# SymbolsHelper-Confirmed: 1.6 amd64
libpcl_segmentation.so.1.6 libpcl-segmentation1.6 #MINVER#
 _Z21linePlaneIntersectionRN5Eigen6MatrixIfLi3ELi1ELi0ELi3ELi1EEES2_S2_S2_@Base 1.6
 (optional=templinst)_Z27projectToPlaneFromViewpointIN3pcl11PointNormalEENS0_10PointCloudIT_EERS4_RN5Eigen6MatrixIfLi4ELi1ELi0ELi4ELi1EEERNS7_IfLi3ELi1ELi0ELi3ELi1EEESB_@Base 1.6
 (optional=templinst)_Z27projectToPlaneFromViewpointIN3pcl11PointXYZHSVEENS0_10PointCloudIT_EERS4_RN5Eigen6MatrixIfLi4ELi1ELi0ELi4ELi1EEERNS7_IfLi3ELi1ELi0ELi3ELi1EEESB_@Base 1.6
 (optional=templinst)_Z27projectToPlaneFromViewpointIN3pcl11PointXYZRGBEENS0_10PointCloudIT_EERS4_RN5Eigen6MatrixIfLi4ELi1ELi0ELi4ELi1EEERNS7_IfLi3ELi1ELi0ELi3ELi1EEESB_@Base 1.6
 (optional=templinst)_Z27projectToPlaneFromViewpointIN3pcl12PointXYZRGBAEENS0_10PointCloudIT_EERS4_RN5Eigen6MatrixIfLi4ELi1ELi0ELi4ELi1EEERNS7_IfLi3ELi1ELi0ELi3ELi1EEESB_@Base 1.6
 (optional=templinst)_Z27projectToPlaneFromViewpointIN3pcl12PointXYZRGBLEENS0_10PointCloudIT_EERS4_RN5Eigen6MatrixIfLi4ELi1ELi0ELi4ELi1EEERNS7_IfLi3ELi1ELi0ELi3ELi1EEESB_@Base 1.6
 (optional=templinst)_Z27projectToPlaneFromViewpointIN3pcl13InterestPointEENS0_10PointCloudIT_EERS4_RN5Eigen6MatrixIfLi4ELi1ELi0ELi4ELi1EEERNS7_IfLi3ELi1ELi0ELi3ELi1EEESB_@Base 1.6
 (optional=templinst)_Z27projectToPlaneFromViewpointIN3pcl14PointWithRangeEENS0_10PointCloudIT_EERS4_RN5Eigen6MatrixIfLi4ELi1ELi0ELi4ELi1EEERNS7_IfLi3ELi1ELi0ELi3ELi1EEESB_@Base 1.6
 (optional=templinst)_Z27projectToPlaneFromViewpointIN3pcl14PointWithScaleEENS0_10PointCloudIT_EERS4_RN5Eigen6MatrixIfLi4ELi1ELi0ELi4ELi1EEERNS7_IfLi3ELi1ELi0ELi3ELi1EEESB_@Base 1.6
 (optional=templinst)_Z27projectToPlaneFromViewpointIN3pcl15PointXYZINormalEENS0_10PointCloudIT_EERS4_RN5Eigen6MatrixIfLi4ELi1ELi0ELi4ELi1EEERNS7_IfLi3ELi1ELi0ELi3ELi1EEESB_@Base 1.6
 (optional=templinst)_Z27projectToPlaneFromViewpointIN3pcl17PointXYZRGBNormalEENS0_10PointCloudIT_EERS4_RN5Eigen6MatrixIfLi4ELi1ELi0ELi4ELi1EEERNS7_IfLi3ELi1ELi0ELi3ELi1EEESB_@Base 1.6
 (optional=templinst)_Z27projectToPlaneFromViewpointIN3pcl18PointWithViewpointEENS0_10PointCloudIT_EERS4_RN5Eigen6MatrixIfLi4ELi1ELi0ELi4ELi1EEERNS7_IfLi3ELi1ELi0ELi3ELi1EEESB_@Base 1.6
 (optional=templinst)_Z27projectToPlaneFromViewpointIN3pcl8PointXYZEENS0_10PointCloudIT_EERS4_RN5Eigen6MatrixIfLi4ELi1ELi0ELi4ELi1EEERNS7_IfLi3ELi1ELi0ELi3ELi1EEESB_@Base 1.6
 (optional=templinst)_Z27projectToPlaneFromViewpointIN3pcl9PointXYZIEENS0_10PointCloudIT_EERS4_RN5Eigen6MatrixIfLi4ELi1ELi0ELi4ELi1EEERNS7_IfLi3ELi1ELi0ELi3ELi1EEESB_@Base 1.6
 (optional=templinst)_Z27projectToPlaneFromViewpointIN3pcl9PointXYZLEENS0_10PointCloudIT_EERS4_RN5Eigen6MatrixIfLi4ELi1ELi0ELi4ELi1EEERNS7_IfLi3ELi1ELi0ELi3ELi1EEESB_@Base 1.6
 (optional=templinst)_ZN3pcl10ComparatorINS_11PointNormalEE13setInputCloudERKN5boost10shared_ptrIKNS_10PointCloudIS1_EEEE@Base 1.6
 (optional=templinst)_ZN3pcl10ComparatorINS_11PointNormalEED0Ev@Base 1.6
 (optional=templinst)_ZN3pcl10ComparatorINS_11PointNormalEED1Ev@Base 1.6
 (optional=templinst)_ZN3pcl10ComparatorINS_11PointNormalEED2Ev@Base 1.6
 (optional=templinst)_ZN3pcl10ComparatorINS_11PointXYZHSVEE13setInputCloudERKN5boost10shared_ptrIKNS_10PointCloudIS1_EEEE@Base 1.6
 (optional=templinst)_ZN3pcl10ComparatorINS_11PointXYZHSVEED0Ev@Base 1.6
 (optional=templinst)_ZN3pcl10ComparatorINS_11PointXYZHSVEED1Ev@Base 1.6
 (optional=templinst)_ZN3pcl10ComparatorINS_11PointXYZHSVEED2Ev@Base 1.6
 (optional=templinst)_ZN3pcl10ComparatorINS_11PointXYZRGBEE13setInputCloudERKN5boost10shared_ptrIKNS_10PointCloudIS1_EEEE@Base 1.6
 (optional=templinst)_ZN3pcl10ComparatorINS_11PointXYZRGBEED0Ev@Base 1.6
 (optional=templinst)_ZN3pcl10ComparatorINS_11PointXYZRGBEED1Ev@Base 1.6
 (optional=templinst)_ZN3pcl10ComparatorINS_11PointXYZRGBEED2Ev@Base 1.6
 (optional=templinst)_ZN3pcl10ComparatorINS_12PointXYZRGBAEE13setInputCloudERKN5boost10shared_ptrIKNS_10PointCloudIS1_EEEE@Base 1.6
 (optional=templinst)_ZN3pcl10ComparatorINS_12PointXYZRGBAEED0Ev@Base 1.6
 (optional=templinst)_ZN3pcl10ComparatorINS_12PointXYZRGBAEED1Ev@Base 1.6
 (optional=templinst)_ZN3pcl10ComparatorINS_12PointXYZRGBAEED2Ev@Base 1.6
 (optional=templinst)_ZN3pcl10ComparatorINS_12PointXYZRGBLEE13setInputCloudERKN5boost10shared_ptrIKNS_10PointCloudIS1_EEEE@Base 1.6
 (optional=templinst)_ZN3pcl10ComparatorINS_12PointXYZRGBLEED0Ev@Base 1.6
 (optional=templinst)_ZN3pcl10ComparatorINS_12PointXYZRGBLEED1Ev@Base 1.6
 (optional=templinst)_ZN3pcl10ComparatorINS_12PointXYZRGBLEED2Ev@Base 1.6
 (optional=templinst)_ZN3pcl10ComparatorINS_13InterestPointEE13setInputCloudERKN5boost10shared_ptrIKNS_10PointCloudIS1_EEEE@Base 1.6
 (optional=templinst)_ZN3pcl10ComparatorINS_13InterestPointEED0Ev@Base 1.6
 (optional=templinst)_ZN3pcl10ComparatorINS_13InterestPointEED1Ev@Base 1.6
 (optional=templinst)_ZN3pcl10ComparatorINS_13InterestPointEED2Ev@Base 1.6
 (optional=templinst)_ZN3pcl10ComparatorINS_14PointWithRangeEE13setInputCloudERKN5boost10shared_ptrIKNS_10PointCloudIS1_EEEE@Base 1.6
 (optional=templinst)_ZN3pcl10ComparatorINS_14PointWithRangeEED0Ev@Base 1.6
 (optional=templinst)_ZN3pcl10ComparatorINS_14PointWithRangeEED1Ev@Base 1.6
 (optional=templinst)_ZN3pcl10ComparatorINS_14PointWithRangeEED2Ev@Base 1.6
 (optional=templinst)_ZN3pcl10ComparatorINS_14PointWithScaleEE13setInputCloudERKN5boost10shared_ptrIKNS_10PointCloudIS1_EEEE@Base 1.6
 (optional=templinst)_ZN3pcl10ComparatorINS_14PointWithScaleEED0Ev@Base 1.6
 (optional=templinst)_ZN3pcl10ComparatorINS_14PointWithScaleEED1Ev@Base 1.6
 (optional=templinst)_ZN3pcl10ComparatorINS_14PointWithScaleEED2Ev@Base 1.6
 (optional=templinst)_ZN3pcl10ComparatorINS_15PointXYZINormalEE13setInputCloudERKN5boost10shared_ptrIKNS_10PointCloudIS1_EEEE@Base 1.6
 (optional=templinst)_ZN3pcl10ComparatorINS_15PointXYZINormalEED0Ev@Base 1.6
 (optional=templinst)_ZN3pcl10ComparatorINS_15PointXYZINormalEED1Ev@Base 1.6
 (optional=templinst)_ZN3pcl10ComparatorINS_15PointXYZINormalEED2Ev@Base 1.6
 (optional=templinst)_ZN3pcl10ComparatorINS_17PointXYZRGBNormalEE13setInputCloudERKN5boost10shared_ptrIKNS_10PointCloudIS1_EEEE@Base 1.6
 (optional=templinst)_ZN3pcl10ComparatorINS_17PointXYZRGBNormalEED0Ev@Base 1.6
 (optional=templinst)_ZN3pcl10ComparatorINS_17PointXYZRGBNormalEED1Ev@Base 1.6
 (optional=templinst)_ZN3pcl10ComparatorINS_17PointXYZRGBNormalEED2Ev@Base 1.6
 (optional=templinst)_ZN3pcl10ComparatorINS_18PointWithViewpointEE13setInputCloudERKN5boost10shared_ptrIKNS_10PointCloudIS1_EEEE@Base 1.6
 (optional=templinst)_ZN3pcl10ComparatorINS_18PointWithViewpointEED0Ev@Base 1.6
 (optional=templinst)_ZN3pcl10ComparatorINS_18PointWithViewpointEED1Ev@Base 1.6
 (optional=templinst)_ZN3pcl10ComparatorINS_18PointWithViewpointEED2Ev@Base 1.6
 (optional=templinst)_ZN3pcl10ComparatorINS_8PointXYZEE13setInputCloudERKN5boost10shared_ptrIKNS_10PointCloudIS1_EEEE@Base 1.6
 (optional=templinst)_ZN3pcl10ComparatorINS_8PointXYZEED0Ev@Base 1.6
 (optional=templinst)_ZN3pcl10ComparatorINS_8PointXYZEED1Ev@Base 1.6
 (optional=templinst)_ZN3pcl10ComparatorINS_8PointXYZEED2Ev@Base 1.6
 (optional=templinst)_ZN3pcl10ComparatorINS_9PointXYZIEE13setInputCloudERKN5boost10shared_ptrIKNS_10PointCloudIS1_EEEE@Base 1.6
 (optional=templinst)_ZN3pcl10ComparatorINS_9PointXYZIEED0Ev@Base 1.6
 (optional=templinst)_ZN3pcl10ComparatorINS_9PointXYZIEED1Ev@Base 1.6
 (optional=templinst)_ZN3pcl10ComparatorINS_9PointXYZIEED2Ev@Base 1.6
 (optional=templinst)_ZN3pcl10ComparatorINS_9PointXYZLEE13setInputCloudERKN5boost10shared_ptrIKNS_10PointCloudIS1_EEEE@Base 1.6
 (optional=templinst)_ZN3pcl10ComparatorINS_9PointXYZLEED0Ev@Base 1.6
 (optional=templinst)_ZN3pcl10ComparatorINS_9PointXYZLEED1Ev@Base 1.6
 (optional=templinst)_ZN3pcl10ComparatorINS_9PointXYZLEED2Ev@Base 1.6
 (optional=templinst)_ZN3pcl10PointCloudINS_11PointNormalEE6resizeEm@Base 1.6
 (optional=templinst)_ZN3pcl10PointCloudINS_11PointNormalEEC1Ev@Base 1.6
 (optional=templinst)_ZN3pcl10PointCloudINS_11PointNormalEEC2Ev@Base 1.6
 (optional=templinst)_ZN3pcl10PointCloudINS_11PointNormalEED0Ev@Base 1.6
 (optional=templinst)_ZN3pcl10PointCloudINS_11PointNormalEED1Ev@Base 1.6
 (optional=templinst)_ZN3pcl10PointCloudINS_11PointNormalEED2Ev@Base 1.6
 (optional=templinst)_ZN3pcl10PointCloudINS_11PointNormalEEaSERKS2_@Base 1.6
 (optional=templinst)_ZN3pcl10PointCloudINS_11PointXYZHSVEE6resizeEm@Base 1.6
 (optional=templinst)_ZN3pcl10PointCloudINS_11PointXYZHSVEEC1Ev@Base 1.6
 (optional=templinst)_ZN3pcl10PointCloudINS_11PointXYZHSVEEC2Ev@Base 1.6
 (optional=templinst)_ZN3pcl10PointCloudINS_11PointXYZHSVEED0Ev@Base 1.6
 (optional=templinst)_ZN3pcl10PointCloudINS_11PointXYZHSVEED1Ev@Base 1.6
 (optional=templinst)_ZN3pcl10PointCloudINS_11PointXYZHSVEED2Ev@Base 1.6
 (optional=templinst)_ZN3pcl10PointCloudINS_11PointXYZHSVEEaSERKS2_@Base 1.6
 (optional=templinst)_ZN3pcl10PointCloudINS_11PointXYZRGBEE6resizeEm@Base 1.6
 (optional=templinst)_ZN3pcl10PointCloudINS_11PointXYZRGBEEC1Ev@Base 1.6
 (optional=templinst)_ZN3pcl10PointCloudINS_11PointXYZRGBEEC2Ev@Base 1.6
 (optional=templinst)_ZN3pcl10PointCloudINS_11PointXYZRGBEED0Ev@Base 1.6
 (optional=templinst)_ZN3pcl10PointCloudINS_11PointXYZRGBEED1Ev@Base 1.6
 (optional=templinst)_ZN3pcl10PointCloudINS_11PointXYZRGBEED2Ev@Base 1.6
 (optional=templinst)_ZN3pcl10PointCloudINS_11PointXYZRGBEEaSERKS2_@Base 1.6
 (optional=templinst)_ZN3pcl10PointCloudINS_12PointXYZRGBAEE6resizeEm@Base 1.6
 (optional=templinst)_ZN3pcl10PointCloudINS_12PointXYZRGBAEEC1Ev@Base 1.6
 (optional=templinst)_ZN3pcl10PointCloudINS_12PointXYZRGBAEEC2Ev@Base 1.6
 (optional=templinst)_ZN3pcl10PointCloudINS_12PointXYZRGBAEED0Ev@Base 1.6
 (optional=templinst)_ZN3pcl10PointCloudINS_12PointXYZRGBAEED1Ev@Base 1.6
 (optional=templinst)_ZN3pcl10PointCloudINS_12PointXYZRGBAEED2Ev@Base 1.6
 (optional=templinst)_ZN3pcl10PointCloudINS_12PointXYZRGBAEEaSERKS2_@Base 1.6
 (optional=templinst)_ZN3pcl10PointCloudINS_12PointXYZRGBLEE6resizeEm@Base 1.6
 (optional=templinst)_ZN3pcl10PointCloudINS_12PointXYZRGBLEEC1Ev@Base 1.6
 (optional=templinst)_ZN3pcl10PointCloudINS_12PointXYZRGBLEEC2Ev@Base 1.6
 (optional=templinst)_ZN3pcl10PointCloudINS_12PointXYZRGBLEED0Ev@Base 1.6
 (optional=templinst)_ZN3pcl10PointCloudINS_12PointXYZRGBLEED1Ev@Base 1.6
 (optional=templinst)_ZN3pcl10PointCloudINS_12PointXYZRGBLEED2Ev@Base 1.6
 (optional=templinst)_ZN3pcl10PointCloudINS_12PointXYZRGBLEEaSERKS2_@Base 1.6
 (optional=templinst)_ZN3pcl10PointCloudINS_13InterestPointEE6resizeEm@Base 1.6
 (optional=templinst)_ZN3pcl10PointCloudINS_13InterestPointEEC1Ev@Base 1.6
 (optional=templinst)_ZN3pcl10PointCloudINS_13InterestPointEEC2Ev@Base 1.6
 (optional=templinst)_ZN3pcl10PointCloudINS_13InterestPointEED0Ev@Base 1.6
 (optional=templinst)_ZN3pcl10PointCloudINS_13InterestPointEED1Ev@Base 1.6
 (optional=templinst)_ZN3pcl10PointCloudINS_13InterestPointEED2Ev@Base 1.6
 (optional=templinst)_ZN3pcl10PointCloudINS_13InterestPointEEaSERKS2_@Base 1.6
 (optional=templinst)_ZN3pcl10PointCloudINS_14PointWithRangeEE6resizeEm@Base 1.6
 (optional=templinst)_ZN3pcl10PointCloudINS_14PointWithRangeEEC1Ev@Base 1.6
 (optional=templinst)_ZN3pcl10PointCloudINS_14PointWithRangeEEC2Ev@Base 1.6
 (optional=templinst)_ZN3pcl10PointCloudINS_14PointWithRangeEED0Ev@Base 1.6
 (optional=templinst)_ZN3pcl10PointCloudINS_14PointWithRangeEED1Ev@Base 1.6
 (optional=templinst)_ZN3pcl10PointCloudINS_14PointWithRangeEED2Ev@Base 1.6
 (optional=templinst)_ZN3pcl10PointCloudINS_14PointWithRangeEEaSERKS2_@Base 1.6
 (optional=templinst)_ZN3pcl10PointCloudINS_14PointWithScaleEE6resizeEm@Base 1.6
 (optional=templinst)_ZN3pcl10PointCloudINS_14PointWithScaleEEC1Ev@Base 1.6
 (optional=templinst)_ZN3pcl10PointCloudINS_14PointWithScaleEEC2Ev@Base 1.6
 (optional=templinst)_ZN3pcl10PointCloudINS_14PointWithScaleEED0Ev@Base 1.6
 (optional=templinst)_ZN3pcl10PointCloudINS_14PointWithScaleEED1Ev@Base 1.6
 (optional=templinst)_ZN3pcl10PointCloudINS_14PointWithScaleEED2Ev@Base 1.6
 (optional=templinst)_ZN3pcl10PointCloudINS_14PointWithScaleEEaSERKS2_@Base 1.6
 (optional=templinst)_ZN3pcl10PointCloudINS_15PointXYZINormalEE6resizeEm@Base 1.6
 (optional=templinst)_ZN3pcl10PointCloudINS_15PointXYZINormalEEC1Ev@Base 1.6
 (optional=templinst)_ZN3pcl10PointCloudINS_15PointXYZINormalEEC2Ev@Base 1.6
 (optional=templinst)_ZN3pcl10PointCloudINS_15PointXYZINormalEED0Ev@Base 1.6
 (optional=templinst)_ZN3pcl10PointCloudINS_15PointXYZINormalEED1Ev@Base 1.6
 (optional=templinst)_ZN3pcl10PointCloudINS_15PointXYZINormalEED2Ev@Base 1.6
 (optional=templinst)_ZN3pcl10PointCloudINS_15PointXYZINormalEEaSERKS2_@Base 1.6
 (optional=templinst)_ZN3pcl10PointCloudINS_17PointXYZRGBNormalEE6resizeEm@Base 1.6
 (optional=templinst)_ZN3pcl10PointCloudINS_17PointXYZRGBNormalEEC1Ev@Base 1.6
 (optional=templinst)_ZN3pcl10PointCloudINS_17PointXYZRGBNormalEEC2Ev@Base 1.6
 (optional=templinst)_ZN3pcl10PointCloudINS_17PointXYZRGBNormalEED0Ev@Base 1.6
 (optional=templinst)_ZN3pcl10PointCloudINS_17PointXYZRGBNormalEED1Ev@Base 1.6
 (optional=templinst)_ZN3pcl10PointCloudINS_17PointXYZRGBNormalEED2Ev@Base 1.6
 (optional=templinst)_ZN3pcl10PointCloudINS_17PointXYZRGBNormalEEaSERKS2_@Base 1.6
 (optional=templinst)_ZN3pcl10PointCloudINS_18PointWithViewpointEE6resizeEm@Base 1.6
 (optional=templinst)_ZN3pcl10PointCloudINS_18PointWithViewpointEEC1Ev@Base 1.6
 (optional=templinst)_ZN3pcl10PointCloudINS_18PointWithViewpointEEC2Ev@Base 1.6
 (optional=templinst)_ZN3pcl10PointCloudINS_18PointWithViewpointEED0Ev@Base 1.6
 (optional=templinst)_ZN3pcl10PointCloudINS_18PointWithViewpointEED1Ev@Base 1.6
 (optional=templinst)_ZN3pcl10PointCloudINS_18PointWithViewpointEED2Ev@Base 1.6
 (optional=templinst)_ZN3pcl10PointCloudINS_18PointWithViewpointEEaSERKS2_@Base 1.6
 (optional=templinst)_ZN3pcl10PointCloudINS_5LabelEEC1Ev@Base 1.6
 (optional=templinst)_ZN3pcl10PointCloudINS_5LabelEEC2Ev@Base 1.6
 (optional=templinst)_ZN3pcl10PointCloudINS_5LabelEED0Ev@Base 1.6
 (optional=templinst)_ZN3pcl10PointCloudINS_5LabelEED1Ev@Base 1.6
 (optional=templinst)_ZN3pcl10PointCloudINS_5LabelEED2Ev@Base 1.6
 (optional=templinst)_ZN3pcl10PointCloudINS_8PointXYZEE6resizeEm@Base 1.6
 (optional=templinst)_ZN3pcl10PointCloudINS_8PointXYZEEC1Ev@Base 1.6
 (optional=templinst)_ZN3pcl10PointCloudINS_8PointXYZEEC2Ev@Base 1.6
 (optional=templinst)_ZN3pcl10PointCloudINS_8PointXYZEED0Ev@Base 1.6
 (optional=templinst)_ZN3pcl10PointCloudINS_8PointXYZEED1Ev@Base 1.6
 (optional=templinst)_ZN3pcl10PointCloudINS_8PointXYZEED2Ev@Base 1.6
 (optional=templinst)_ZN3pcl10PointCloudINS_8PointXYZEEaSERKS2_@Base 1.6
 (optional=templinst)_ZN3pcl10PointCloudINS_9PointXYZIEE6resizeEm@Base 1.6
 (optional=templinst)_ZN3pcl10PointCloudINS_9PointXYZIEEC1Ev@Base 1.6
 (optional=templinst)_ZN3pcl10PointCloudINS_9PointXYZIEEC2Ev@Base 1.6
 (optional=templinst)_ZN3pcl10PointCloudINS_9PointXYZIEED0Ev@Base 1.6
 (optional=templinst)_ZN3pcl10PointCloudINS_9PointXYZIEED1Ev@Base 1.6
 (optional=templinst)_ZN3pcl10PointCloudINS_9PointXYZIEED2Ev@Base 1.6
 (optional=templinst)_ZN3pcl10PointCloudINS_9PointXYZIEEaSERKS2_@Base 1.6
 (optional=templinst)_ZN3pcl10PointCloudINS_9PointXYZLEE6resizeEm@Base 1.6
 (optional=templinst)_ZN3pcl10PointCloudINS_9PointXYZLEEC1Ev@Base 1.6
 (optional=templinst)_ZN3pcl10PointCloudINS_9PointXYZLEEC2Ev@Base 1.6
 (optional=templinst)_ZN3pcl10PointCloudINS_9PointXYZLEED0Ev@Base 1.6
 (optional=templinst)_ZN3pcl10PointCloudINS_9PointXYZLEED1Ev@Base 1.6
 (optional=templinst)_ZN3pcl10PointCloudINS_9PointXYZLEED2Ev@Base 1.6
 (optional=templinst)_ZN3pcl10PointCloudINS_9PointXYZLEEaSERKS2_@Base 1.6
 (optional=templinst)_ZN3pcl11KdTreeFLANNINS_11PointNormalEN5flann9L2_SimpleIfEEE10setEpsilonEf@Base 1.6
 (optional=templinst)_ZN3pcl11KdTreeFLANNINS_11PointNormalEN5flann9L2_SimpleIfEEED0Ev@Base 1.6
 (optional=templinst)_ZN3pcl11KdTreeFLANNINS_11PointNormalEN5flann9L2_SimpleIfEEED1Ev@Base 1.6
 (optional=templinst)_ZN3pcl11KdTreeFLANNINS_11PointNormalEN5flann9L2_SimpleIfEEED2Ev@Base 1.6
 (optional=templinst)_ZN3pcl11KdTreeFLANNINS_11PointXYZHSVEN5flann9L2_SimpleIfEEE10setEpsilonEf@Base 1.6
 (optional=templinst)_ZN3pcl11KdTreeFLANNINS_11PointXYZHSVEN5flann9L2_SimpleIfEEED0Ev@Base 1.6
 (optional=templinst)_ZN3pcl11KdTreeFLANNINS_11PointXYZHSVEN5flann9L2_SimpleIfEEED1Ev@Base 1.6
 (optional=templinst)_ZN3pcl11KdTreeFLANNINS_11PointXYZHSVEN5flann9L2_SimpleIfEEED2Ev@Base 1.6
 (optional=templinst)_ZN3pcl11KdTreeFLANNINS_11PointXYZRGBEN5flann9L2_SimpleIfEEE10setEpsilonEf@Base 1.6
 (optional=templinst)_ZN3pcl11KdTreeFLANNINS_11PointXYZRGBEN5flann9L2_SimpleIfEEED0Ev@Base 1.6
 (optional=templinst)_ZN3pcl11KdTreeFLANNINS_11PointXYZRGBEN5flann9L2_SimpleIfEEED1Ev@Base 1.6
 (optional=templinst)_ZN3pcl11KdTreeFLANNINS_11PointXYZRGBEN5flann9L2_SimpleIfEEED2Ev@Base 1.6
 (optional=templinst)_ZN3pcl11KdTreeFLANNINS_12PointXYZRGBAEN5flann9L2_SimpleIfEEE10setEpsilonEf@Base 1.6
 (optional=templinst)_ZN3pcl11KdTreeFLANNINS_12PointXYZRGBAEN5flann9L2_SimpleIfEEED0Ev@Base 1.6
 (optional=templinst)_ZN3pcl11KdTreeFLANNINS_12PointXYZRGBAEN5flann9L2_SimpleIfEEED1Ev@Base 1.6
 (optional=templinst)_ZN3pcl11KdTreeFLANNINS_12PointXYZRGBAEN5flann9L2_SimpleIfEEED2Ev@Base 1.6
 (optional=templinst)_ZN3pcl11KdTreeFLANNINS_12PointXYZRGBLEN5flann9L2_SimpleIfEEE10setEpsilonEf@Base 1.6
 (optional=templinst)_ZN3pcl11KdTreeFLANNINS_12PointXYZRGBLEN5flann9L2_SimpleIfEEED0Ev@Base 1.6
 (optional=templinst)_ZN3pcl11KdTreeFLANNINS_12PointXYZRGBLEN5flann9L2_SimpleIfEEED1Ev@Base 1.6
 (optional=templinst)_ZN3pcl11KdTreeFLANNINS_12PointXYZRGBLEN5flann9L2_SimpleIfEEED2Ev@Base 1.6
 (optional=templinst)_ZN3pcl11KdTreeFLANNINS_13InterestPointEN5flann9L2_SimpleIfEEE10setEpsilonEf@Base 1.6
 (optional=templinst)_ZN3pcl11KdTreeFLANNINS_13InterestPointEN5flann9L2_SimpleIfEEED0Ev@Base 1.6
 (optional=templinst)_ZN3pcl11KdTreeFLANNINS_13InterestPointEN5flann9L2_SimpleIfEEED1Ev@Base 1.6
 (optional=templinst)_ZN3pcl11KdTreeFLANNINS_13InterestPointEN5flann9L2_SimpleIfEEED2Ev@Base 1.6
 (optional=templinst)_ZN3pcl11KdTreeFLANNINS_14PointWithRangeEN5flann9L2_SimpleIfEEE10setEpsilonEf@Base 1.6
 (optional=templinst)_ZN3pcl11KdTreeFLANNINS_14PointWithRangeEN5flann9L2_SimpleIfEEED0Ev@Base 1.6
 (optional=templinst)_ZN3pcl11KdTreeFLANNINS_14PointWithRangeEN5flann9L2_SimpleIfEEED1Ev@Base 1.6
 (optional=templinst)_ZN3pcl11KdTreeFLANNINS_14PointWithRangeEN5flann9L2_SimpleIfEEED2Ev@Base 1.6
 (optional=templinst)_ZN3pcl11KdTreeFLANNINS_14PointWithScaleEN5flann9L2_SimpleIfEEE10setEpsilonEf@Base 1.6
 (optional=templinst)_ZN3pcl11KdTreeFLANNINS_14PointWithScaleEN5flann9L2_SimpleIfEEED0Ev@Base 1.6
 (optional=templinst)_ZN3pcl11KdTreeFLANNINS_14PointWithScaleEN5flann9L2_SimpleIfEEED1Ev@Base 1.6
 (optional=templinst)_ZN3pcl11KdTreeFLANNINS_14PointWithScaleEN5flann9L2_SimpleIfEEED2Ev@Base 1.6
 (optional=templinst)_ZN3pcl11KdTreeFLANNINS_15PointXYZINormalEN5flann9L2_SimpleIfEEE10setEpsilonEf@Base 1.6
 (optional=templinst)_ZN3pcl11KdTreeFLANNINS_15PointXYZINormalEN5flann9L2_SimpleIfEEED0Ev@Base 1.6
 (optional=templinst)_ZN3pcl11KdTreeFLANNINS_15PointXYZINormalEN5flann9L2_SimpleIfEEED1Ev@Base 1.6
 (optional=templinst)_ZN3pcl11KdTreeFLANNINS_15PointXYZINormalEN5flann9L2_SimpleIfEEED2Ev@Base 1.6
 (optional=templinst)_ZN3pcl11KdTreeFLANNINS_17PointXYZRGBNormalEN5flann9L2_SimpleIfEEE10setEpsilonEf@Base 1.6
 (optional=templinst)_ZN3pcl11KdTreeFLANNINS_17PointXYZRGBNormalEN5flann9L2_SimpleIfEEED0Ev@Base 1.6
 (optional=templinst)_ZN3pcl11KdTreeFLANNINS_17PointXYZRGBNormalEN5flann9L2_SimpleIfEEED1Ev@Base 1.6
 (optional=templinst)_ZN3pcl11KdTreeFLANNINS_17PointXYZRGBNormalEN5flann9L2_SimpleIfEEED2Ev@Base 1.6
 (optional=templinst)_ZN3pcl11KdTreeFLANNINS_18PointWithViewpointEN5flann9L2_SimpleIfEEE10setEpsilonEf@Base 1.6
 (optional=templinst)_ZN3pcl11KdTreeFLANNINS_18PointWithViewpointEN5flann9L2_SimpleIfEEED0Ev@Base 1.6
 (optional=templinst)_ZN3pcl11KdTreeFLANNINS_18PointWithViewpointEN5flann9L2_SimpleIfEEED1Ev@Base 1.6
 (optional=templinst)_ZN3pcl11KdTreeFLANNINS_18PointWithViewpointEN5flann9L2_SimpleIfEEED2Ev@Base 1.6
 (optional=templinst)_ZN3pcl11KdTreeFLANNINS_8PointXYZEN5flann9L2_SimpleIfEEE10setEpsilonEf@Base 1.6
 (optional=templinst)_ZN3pcl11KdTreeFLANNINS_8PointXYZEN5flann9L2_SimpleIfEEED0Ev@Base 1.6
 (optional=templinst)_ZN3pcl11KdTreeFLANNINS_8PointXYZEN5flann9L2_SimpleIfEEED1Ev@Base 1.6
 (optional=templinst)_ZN3pcl11KdTreeFLANNINS_8PointXYZEN5flann9L2_SimpleIfEEED2Ev@Base 1.6
 (optional=templinst)_ZN3pcl11KdTreeFLANNINS_9PointXYZIEN5flann9L2_SimpleIfEEE10setEpsilonEf@Base 1.6
 (optional=templinst)_ZN3pcl11KdTreeFLANNINS_9PointXYZIEN5flann9L2_SimpleIfEEED0Ev@Base 1.6
 (optional=templinst)_ZN3pcl11KdTreeFLANNINS_9PointXYZIEN5flann9L2_SimpleIfEEED1Ev@Base 1.6
 (optional=templinst)_ZN3pcl11KdTreeFLANNINS_9PointXYZIEN5flann9L2_SimpleIfEEED2Ev@Base 1.6
 (optional=templinst)_ZN3pcl11KdTreeFLANNINS_9PointXYZLEN5flann9L2_SimpleIfEEE10setEpsilonEf@Base 1.6
 (optional=templinst)_ZN3pcl11KdTreeFLANNINS_9PointXYZLEN5flann9L2_SimpleIfEEED0Ev@Base 1.6
 (optional=templinst)_ZN3pcl11KdTreeFLANNINS_9PointXYZLEN5flann9L2_SimpleIfEEED1Ev@Base 1.6
 (optional=templinst)_ZN3pcl11KdTreeFLANNINS_9PointXYZLEN5flann9L2_SimpleIfEEED2Ev@Base 1.6
 _ZN3pcl12PCLExceptionC1ERKSsS2_S2_j@Base 1.6
 _ZN3pcl12PCLExceptionC2ERKSsS2_S2_j@Base 1.6
 _ZN3pcl12PCLExceptionD0Ev@Base 1.6
 _ZN3pcl12PCLExceptionD1Ev@Base 1.6
 _ZN3pcl12PCLExceptionD2Ev@Base 1.6
 (optional=templinst)_ZN3pcl12PlanarRegionINS_11PointNormalEEC1ERKS2_@Base 1.6
 (optional=templinst)_ZN3pcl12PlanarRegionINS_11PointNormalEEC1Ev@Base 1.6
 (optional=templinst)_ZN3pcl12PlanarRegionINS_11PointNormalEEC2ERKS2_@Base 1.6
 (optional=templinst)_ZN3pcl12PlanarRegionINS_11PointNormalEEC2Ev@Base 1.6
 (optional=templinst)_ZN3pcl12PlanarRegionINS_11PointNormalEED0Ev@Base 1.6
 (optional=templinst)_ZN3pcl12PlanarRegionINS_11PointNormalEED1Ev@Base 1.6
 (optional=templinst)_ZN3pcl12PlanarRegionINS_11PointNormalEED2Ev@Base 1.6
 (optional=templinst)_ZN3pcl12PlanarRegionINS_11PointXYZHSVEEC1ERKS2_@Base 1.6
 (optional=templinst)_ZN3pcl12PlanarRegionINS_11PointXYZHSVEEC1Ev@Base 1.6
 (optional=templinst)_ZN3pcl12PlanarRegionINS_11PointXYZHSVEEC2ERKS2_@Base 1.6
 (optional=templinst)_ZN3pcl12PlanarRegionINS_11PointXYZHSVEEC2Ev@Base 1.6
 (optional=templinst)_ZN3pcl12PlanarRegionINS_11PointXYZHSVEED0Ev@Base 1.6
 (optional=templinst)_ZN3pcl12PlanarRegionINS_11PointXYZHSVEED1Ev@Base 1.6
 (optional=templinst)_ZN3pcl12PlanarRegionINS_11PointXYZHSVEED2Ev@Base 1.6
 (optional=templinst)_ZN3pcl12PlanarRegionINS_11PointXYZRGBEEC1ERKS2_@Base 1.6
 (optional=templinst)_ZN3pcl12PlanarRegionINS_11PointXYZRGBEEC1Ev@Base 1.6
 (optional=templinst)_ZN3pcl12PlanarRegionINS_11PointXYZRGBEEC2ERKS2_@Base 1.6
 (optional=templinst)_ZN3pcl12PlanarRegionINS_11PointXYZRGBEEC2Ev@Base 1.6
 (optional=templinst)_ZN3pcl12PlanarRegionINS_11PointXYZRGBEED0Ev@Base 1.6
 (optional=templinst)_ZN3pcl12PlanarRegionINS_11PointXYZRGBEED1Ev@Base 1.6
 (optional=templinst)_ZN3pcl12PlanarRegionINS_11PointXYZRGBEED2Ev@Base 1.6
 (optional=templinst)_ZN3pcl12PlanarRegionINS_12PointXYZRGBAEEC1ERKS2_@Base 1.6
 (optional=templinst)_ZN3pcl12PlanarRegionINS_12PointXYZRGBAEEC1Ev@Base 1.6
 (optional=templinst)_ZN3pcl12PlanarRegionINS_12PointXYZRGBAEEC2ERKS2_@Base 1.6
 (optional=templinst)_ZN3pcl12PlanarRegionINS_12PointXYZRGBAEEC2Ev@Base 1.6
 (optional=templinst)_ZN3pcl12PlanarRegionINS_12PointXYZRGBAEED0Ev@Base 1.6
 (optional=templinst)_ZN3pcl12PlanarRegionINS_12PointXYZRGBAEED1Ev@Base 1.6
 (optional=templinst)_ZN3pcl12PlanarRegionINS_12PointXYZRGBAEED2Ev@Base 1.6
 (optional=templinst)_ZN3pcl12PlanarRegionINS_12PointXYZRGBLEEC1ERKS2_@Base 1.6
 (optional=templinst)_ZN3pcl12PlanarRegionINS_12PointXYZRGBLEEC1Ev@Base 1.6
 (optional=templinst)_ZN3pcl12PlanarRegionINS_12PointXYZRGBLEEC2ERKS2_@Base 1.6
 (optional=templinst)_ZN3pcl12PlanarRegionINS_12PointXYZRGBLEEC2Ev@Base 1.6
 (optional=templinst)_ZN3pcl12PlanarRegionINS_12PointXYZRGBLEED0Ev@Base 1.6
 (optional=templinst)_ZN3pcl12PlanarRegionINS_12PointXYZRGBLEED1Ev@Base 1.6
 (optional=templinst)_ZN3pcl12PlanarRegionINS_12PointXYZRGBLEED2Ev@Base 1.6
 (optional=templinst)_ZN3pcl12PlanarRegionINS_13InterestPointEEC1ERKS2_@Base 1.6
 (optional=templinst)_ZN3pcl12PlanarRegionINS_13InterestPointEEC1Ev@Base 1.6
 (optional=templinst)_ZN3pcl12PlanarRegionINS_13InterestPointEEC2ERKS2_@Base 1.6
 (optional=templinst)_ZN3pcl12PlanarRegionINS_13InterestPointEEC2Ev@Base 1.6
 (optional=templinst)_ZN3pcl12PlanarRegionINS_13InterestPointEED0Ev@Base 1.6
 (optional=templinst)_ZN3pcl12PlanarRegionINS_13InterestPointEED1Ev@Base 1.6
 (optional=templinst)_ZN3pcl12PlanarRegionINS_13InterestPointEED2Ev@Base 1.6
 (optional=templinst)_ZN3pcl12PlanarRegionINS_14PointWithRangeEEC1ERKS2_@Base 1.6
 (optional=templinst)_ZN3pcl12PlanarRegionINS_14PointWithRangeEEC1Ev@Base 1.6
 (optional=templinst)_ZN3pcl12PlanarRegionINS_14PointWithRangeEEC2ERKS2_@Base 1.6
 (optional=templinst)_ZN3pcl12PlanarRegionINS_14PointWithRangeEEC2Ev@Base 1.6
 (optional=templinst)_ZN3pcl12PlanarRegionINS_14PointWithRangeEED0Ev@Base 1.6
 (optional=templinst)_ZN3pcl12PlanarRegionINS_14PointWithRangeEED1Ev@Base 1.6
 (optional=templinst)_ZN3pcl12PlanarRegionINS_14PointWithRangeEED2Ev@Base 1.6
 (optional=templinst)_ZN3pcl12PlanarRegionINS_14PointWithScaleEEC1ERKS2_@Base 1.6
 (optional=templinst)_ZN3pcl12PlanarRegionINS_14PointWithScaleEEC1Ev@Base 1.6
 (optional=templinst)_ZN3pcl12PlanarRegionINS_14PointWithScaleEEC2ERKS2_@Base 1.6
 (optional=templinst)_ZN3pcl12PlanarRegionINS_14PointWithScaleEEC2Ev@Base 1.6
 (optional=templinst)_ZN3pcl12PlanarRegionINS_14PointWithScaleEED0Ev@Base 1.6
 (optional=templinst)_ZN3pcl12PlanarRegionINS_14PointWithScaleEED1Ev@Base 1.6
 (optional=templinst)_ZN3pcl12PlanarRegionINS_14PointWithScaleEED2Ev@Base 1.6
 (optional=templinst)_ZN3pcl12PlanarRegionINS_15PointXYZINormalEEC1ERKS2_@Base 1.6
 (optional=templinst)_ZN3pcl12PlanarRegionINS_15PointXYZINormalEEC1Ev@Base 1.6
 (optional=templinst)_ZN3pcl12PlanarRegionINS_15PointXYZINormalEEC2ERKS2_@Base 1.6
 (optional=templinst)_ZN3pcl12PlanarRegionINS_15PointXYZINormalEEC2Ev@Base 1.6
 (optional=templinst)_ZN3pcl12PlanarRegionINS_15PointXYZINormalEED0Ev@Base 1.6
 (optional=templinst)_ZN3pcl12PlanarRegionINS_15PointXYZINormalEED1Ev@Base 1.6
 (optional=templinst)_ZN3pcl12PlanarRegionINS_15PointXYZINormalEED2Ev@Base 1.6
 (optional=templinst)_ZN3pcl12PlanarRegionINS_17PointXYZRGBNormalEEC1ERKS2_@Base 1.6
 (optional=templinst)_ZN3pcl12PlanarRegionINS_17PointXYZRGBNormalEEC1Ev@Base 1.6
 (optional=templinst)_ZN3pcl12PlanarRegionINS_17PointXYZRGBNormalEEC2ERKS2_@Base 1.6
 (optional=templinst)_ZN3pcl12PlanarRegionINS_17PointXYZRGBNormalEEC2Ev@Base 1.6
 (optional=templinst)_ZN3pcl12PlanarRegionINS_17PointXYZRGBNormalEED0Ev@Base 1.6
 (optional=templinst)_ZN3pcl12PlanarRegionINS_17PointXYZRGBNormalEED1Ev@Base 1.6
 (optional=templinst)_ZN3pcl12PlanarRegionINS_17PointXYZRGBNormalEED2Ev@Base 1.6
 (optional=templinst)_ZN3pcl12PlanarRegionINS_18PointWithViewpointEEC1ERKS2_@Base 1.6
 (optional=templinst)_ZN3pcl12PlanarRegionINS_18PointWithViewpointEEC1Ev@Base 1.6
 (optional=templinst)_ZN3pcl12PlanarRegionINS_18PointWithViewpointEEC2ERKS2_@Base 1.6
 (optional=templinst)_ZN3pcl12PlanarRegionINS_18PointWithViewpointEEC2Ev@Base 1.6
 (optional=templinst)_ZN3pcl12PlanarRegionINS_18PointWithViewpointEED0Ev@Base 1.6
 (optional=templinst)_ZN3pcl12PlanarRegionINS_18PointWithViewpointEED1Ev@Base 1.6
 (optional=templinst)_ZN3pcl12PlanarRegionINS_18PointWithViewpointEED2Ev@Base 1.6
 (optional=templinst)_ZN3pcl12PlanarRegionINS_8PointXYZEEC1ERKS2_@Base 1.6
 (optional=templinst)_ZN3pcl12PlanarRegionINS_8PointXYZEEC1Ev@Base 1.6
 (optional=templinst)_ZN3pcl12PlanarRegionINS_8PointXYZEEC2ERKS2_@Base 1.6
 (optional=templinst)_ZN3pcl12PlanarRegionINS_8PointXYZEEC2Ev@Base 1.6
 (optional=templinst)_ZN3pcl12PlanarRegionINS_8PointXYZEED0Ev@Base 1.6
 (optional=templinst)_ZN3pcl12PlanarRegionINS_8PointXYZEED1Ev@Base 1.6
 (optional=templinst)_ZN3pcl12PlanarRegionINS_8PointXYZEED2Ev@Base 1.6
 (optional=templinst)_ZN3pcl12PlanarRegionINS_9PointXYZIEEC1ERKS2_@Base 1.6
 (optional=templinst)_ZN3pcl12PlanarRegionINS_9PointXYZIEEC1Ev@Base 1.6
 (optional=templinst)_ZN3pcl12PlanarRegionINS_9PointXYZIEEC2ERKS2_@Base 1.6
 (optional=templinst)_ZN3pcl12PlanarRegionINS_9PointXYZIEEC2Ev@Base 1.6
 (optional=templinst)_ZN3pcl12PlanarRegionINS_9PointXYZIEED0Ev@Base 1.6
 (optional=templinst)_ZN3pcl12PlanarRegionINS_9PointXYZIEED1Ev@Base 1.6
 (optional=templinst)_ZN3pcl12PlanarRegionINS_9PointXYZIEED2Ev@Base 1.6
 (optional=templinst)_ZN3pcl12PlanarRegionINS_9PointXYZLEEC1ERKS2_@Base 1.6
 (optional=templinst)_ZN3pcl12PlanarRegionINS_9PointXYZLEEC1Ev@Base 1.6
 (optional=templinst)_ZN3pcl12PlanarRegionINS_9PointXYZLEEC2ERKS2_@Base 1.6
 (optional=templinst)_ZN3pcl12PlanarRegionINS_9PointXYZLEEC2Ev@Base 1.6
 (optional=templinst)_ZN3pcl12PlanarRegionINS_9PointXYZLEED0Ev@Base 1.6
 (optional=templinst)_ZN3pcl12PlanarRegionINS_9PointXYZLEED1Ev@Base 1.6
 (optional=templinst)_ZN3pcl12PlanarRegionINS_9PointXYZLEED2Ev@Base 1.6
 _ZN3pcl12PointIndicesC1ERKS0_@Base 1.6
 _ZN3pcl12PointIndicesC2ERKS0_@Base 1.6
 _ZN3pcl12PointIndicesD1Ev@Base 1.6
 _ZN3pcl12PointIndicesD2Ev@Base 1.6
 _ZN3pcl12PointIndicesaSERKS0_@Base 1.6
 (optional=templinst)_ZN3pcl12computeRootsIN5Eigen6MatrixIfLi3ELi3ELi0ELi3ELi3EEENS2_IfLi3ELi1ELi0ELi3ELi1EEEEEvRKT_RT0_@Base 1.6
 (optional=templinst)_ZN3pcl13PlanarPolygonINS_11PointNormalEEC1ERKS2_@Base 1.6
 (optional=templinst)_ZN3pcl13PlanarPolygonINS_11PointNormalEEC2ERKS2_@Base 1.6
 (optional=templinst)_ZN3pcl13PlanarPolygonINS_11PointNormalEED0Ev@Base 1.6
 (optional=templinst)_ZN3pcl13PlanarPolygonINS_11PointNormalEED1Ev@Base 1.6
 (optional=templinst)_ZN3pcl13PlanarPolygonINS_11PointNormalEED2Ev@Base 1.6
 (optional=templinst)_ZN3pcl13PlanarPolygonINS_11PointXYZHSVEEC1ERKS2_@Base 1.6
 (optional=templinst)_ZN3pcl13PlanarPolygonINS_11PointXYZHSVEEC2ERKS2_@Base 1.6
 (optional=templinst)_ZN3pcl13PlanarPolygonINS_11PointXYZHSVEED0Ev@Base 1.6
 (optional=templinst)_ZN3pcl13PlanarPolygonINS_11PointXYZHSVEED1Ev@Base 1.6
 (optional=templinst)_ZN3pcl13PlanarPolygonINS_11PointXYZHSVEED2Ev@Base 1.6
 (optional=templinst)_ZN3pcl13PlanarPolygonINS_11PointXYZRGBEEC1ERKS2_@Base 1.6
 (optional=templinst)_ZN3pcl13PlanarPolygonINS_11PointXYZRGBEEC2ERKS2_@Base 1.6
 (optional=templinst)_ZN3pcl13PlanarPolygonINS_11PointXYZRGBEED0Ev@Base 1.6
 (optional=templinst)_ZN3pcl13PlanarPolygonINS_11PointXYZRGBEED1Ev@Base 1.6
 (optional=templinst)_ZN3pcl13PlanarPolygonINS_11PointXYZRGBEED2Ev@Base 1.6
 (optional=templinst)_ZN3pcl13PlanarPolygonINS_12PointXYZRGBAEEC1ERKS2_@Base 1.6
 (optional=templinst)_ZN3pcl13PlanarPolygonINS_12PointXYZRGBAEEC2ERKS2_@Base 1.6
 (optional=templinst)_ZN3pcl13PlanarPolygonINS_12PointXYZRGBAEED0Ev@Base 1.6
 (optional=templinst)_ZN3pcl13PlanarPolygonINS_12PointXYZRGBAEED1Ev@Base 1.6
 (optional=templinst)_ZN3pcl13PlanarPolygonINS_12PointXYZRGBAEED2Ev@Base 1.6
 (optional=templinst)_ZN3pcl13PlanarPolygonINS_12PointXYZRGBLEEC1ERKS2_@Base 1.6
 (optional=templinst)_ZN3pcl13PlanarPolygonINS_12PointXYZRGBLEEC2ERKS2_@Base 1.6
 (optional=templinst)_ZN3pcl13PlanarPolygonINS_12PointXYZRGBLEED0Ev@Base 1.6
 (optional=templinst)_ZN3pcl13PlanarPolygonINS_12PointXYZRGBLEED1Ev@Base 1.6
 (optional=templinst)_ZN3pcl13PlanarPolygonINS_12PointXYZRGBLEED2Ev@Base 1.6
 (optional=templinst)_ZN3pcl13PlanarPolygonINS_13InterestPointEEC1ERKS2_@Base 1.6
 (optional=templinst)_ZN3pcl13PlanarPolygonINS_13InterestPointEEC2ERKS2_@Base 1.6
 (optional=templinst)_ZN3pcl13PlanarPolygonINS_13InterestPointEED0Ev@Base 1.6
 (optional=templinst)_ZN3pcl13PlanarPolygonINS_13InterestPointEED1Ev@Base 1.6
 (optional=templinst)_ZN3pcl13PlanarPolygonINS_13InterestPointEED2Ev@Base 1.6
 (optional=templinst)_ZN3pcl13PlanarPolygonINS_14PointWithRangeEEC1ERKS2_@Base 1.6
 (optional=templinst)_ZN3pcl13PlanarPolygonINS_14PointWithRangeEEC2ERKS2_@Base 1.6
 (optional=templinst)_ZN3pcl13PlanarPolygonINS_14PointWithRangeEED0Ev@Base 1.6
 (optional=templinst)_ZN3pcl13PlanarPolygonINS_14PointWithRangeEED1Ev@Base 1.6
 (optional=templinst)_ZN3pcl13PlanarPolygonINS_14PointWithRangeEED2Ev@Base 1.6
 (optional=templinst)_ZN3pcl13PlanarPolygonINS_14PointWithScaleEEC1ERKS2_@Base 1.6
 (optional=templinst)_ZN3pcl13PlanarPolygonINS_14PointWithScaleEEC2ERKS2_@Base 1.6
 (optional=templinst)_ZN3pcl13PlanarPolygonINS_14PointWithScaleEED0Ev@Base 1.6
 (optional=templinst)_ZN3pcl13PlanarPolygonINS_14PointWithScaleEED1Ev@Base 1.6
 (optional=templinst)_ZN3pcl13PlanarPolygonINS_14PointWithScaleEED2Ev@Base 1.6
 (optional=templinst)_ZN3pcl13PlanarPolygonINS_15PointXYZINormalEEC1ERKS2_@Base 1.6
 (optional=templinst)_ZN3pcl13PlanarPolygonINS_15PointXYZINormalEEC2ERKS2_@Base 1.6
 (optional=templinst)_ZN3pcl13PlanarPolygonINS_15PointXYZINormalEED0Ev@Base 1.6
 (optional=templinst)_ZN3pcl13PlanarPolygonINS_15PointXYZINormalEED1Ev@Base 1.6
 (optional=templinst)_ZN3pcl13PlanarPolygonINS_15PointXYZINormalEED2Ev@Base 1.6
 (optional=templinst)_ZN3pcl13PlanarPolygonINS_17PointXYZRGBNormalEEC1ERKS2_@Base 1.6
 (optional=templinst)_ZN3pcl13PlanarPolygonINS_17PointXYZRGBNormalEEC2ERKS2_@Base 1.6
 (optional=templinst)_ZN3pcl13PlanarPolygonINS_17PointXYZRGBNormalEED0Ev@Base 1.6
 (optional=templinst)_ZN3pcl13PlanarPolygonINS_17PointXYZRGBNormalEED1Ev@Base 1.6
 (optional=templinst)_ZN3pcl13PlanarPolygonINS_17PointXYZRGBNormalEED2Ev@Base 1.6
 (optional=templinst)_ZN3pcl13PlanarPolygonINS_18PointWithViewpointEEC1ERKS2_@Base 1.6
 (optional=templinst)_ZN3pcl13PlanarPolygonINS_18PointWithViewpointEEC2ERKS2_@Base 1.6
 (optional=templinst)_ZN3pcl13PlanarPolygonINS_18PointWithViewpointEED0Ev@Base 1.6
 (optional=templinst)_ZN3pcl13PlanarPolygonINS_18PointWithViewpointEED1Ev@Base 1.6
 (optional=templinst)_ZN3pcl13PlanarPolygonINS_18PointWithViewpointEED2Ev@Base 1.6
 (optional=templinst)_ZN3pcl13PlanarPolygonINS_8PointXYZEEC1ERKS2_@Base 1.6
 (optional=templinst)_ZN3pcl13PlanarPolygonINS_8PointXYZEEC2ERKS2_@Base 1.6
 (optional=templinst)_ZN3pcl13PlanarPolygonINS_8PointXYZEED0Ev@Base 1.6
 (optional=templinst)_ZN3pcl13PlanarPolygonINS_8PointXYZEED1Ev@Base 1.6
 (optional=templinst)_ZN3pcl13PlanarPolygonINS_8PointXYZEED2Ev@Base 1.6
 (optional=templinst)_ZN3pcl13PlanarPolygonINS_9PointXYZIEEC1ERKS2_@Base 1.6
 (optional=templinst)_ZN3pcl13PlanarPolygonINS_9PointXYZIEEC2ERKS2_@Base 1.6
 (optional=templinst)_ZN3pcl13PlanarPolygonINS_9PointXYZIEED0Ev@Base 1.6
 (optional=templinst)_ZN3pcl13PlanarPolygonINS_9PointXYZIEED1Ev@Base 1.6
 (optional=templinst)_ZN3pcl13PlanarPolygonINS_9PointXYZIEED2Ev@Base 1.6
 (optional=templinst)_ZN3pcl13PlanarPolygonINS_9PointXYZLEEC1ERKS2_@Base 1.6
 (optional=templinst)_ZN3pcl13PlanarPolygonINS_9PointXYZLEEC2ERKS2_@Base 1.6
 (optional=templinst)_ZN3pcl13PlanarPolygonINS_9PointXYZLEED0Ev@Base 1.6
 (optional=templinst)_ZN3pcl13PlanarPolygonINS_9PointXYZLEED1Ev@Base 1.6
 (optional=templinst)_ZN3pcl13PlanarPolygonINS_9PointXYZLEED2Ev@Base 1.6
 (optional=templinst)_ZN3pcl13computeRoots2IfN5Eigen6MatrixIfLi3ELi1ELi0ELi3ELi1EEEEEvRKT_S6_RT0_@Base 1.6
 (optional=templinst)_ZN3pcl15SACSegmentationINS_11PointNormalEE11setEpsAngleEd@Base 1.6
 (optional=templinst)_ZN3pcl15SACSegmentationINS_11PointNormalEE12initSACModelEi@Base 1.6
 (optional=templinst)_ZN3pcl15SACSegmentationINS_11PointNormalEE12setModelTypeEi@Base 1.6
 (optional=templinst)_ZN3pcl15SACSegmentationINS_11PointNormalEE13setMethodTypeEi@Base 1.6
 (optional=templinst)_ZN3pcl15SACSegmentationINS_11PointNormalEE14setProbabilityEd@Base 1.6
 (optional=templinst)_ZN3pcl15SACSegmentationINS_11PointNormalEE15getRadiusLimitsERdS3_@Base 1.6
 (optional=templinst)_ZN3pcl15SACSegmentationINS_11PointNormalEE15setRadiusLimitsERKdS4_@Base 1.6
 (optional=templinst)_ZN3pcl15SACSegmentationINS_11PointNormalEE16setMaxIterationsEi@Base 1.6
 (optional=templinst)_ZN3pcl15SACSegmentationINS_11PointNormalEE17getSamplesMaxDistERd@Base 1.6
 (optional=templinst)_ZN3pcl15SACSegmentationINS_11PointNormalEE17setSamplesMaxDistERKdN5boost10shared_ptrINS_6search6SearchIS1_EEEE@Base 1.6
 (optional=templinst)_ZN3pcl15SACSegmentationINS_11PointNormalEE20setDistanceThresholdEd@Base 1.6
 (optional=templinst)_ZN3pcl15SACSegmentationINS_11PointNormalEE23setOptimizeCoefficientsEb@Base 1.6
 (optional=templinst)_ZN3pcl15SACSegmentationINS_11PointNormalEE7initSACEi@Base 1.6
 (optional=templinst)_ZN3pcl15SACSegmentationINS_11PointNormalEE7segmentERNS_12PointIndicesERNS_17ModelCoefficientsE@Base 1.6
 (optional=templinst)_ZN3pcl15SACSegmentationINS_11PointNormalEE7setAxisERKN5Eigen6MatrixIfLi3ELi1ELi0ELi3ELi1EEE@Base 1.6
 (optional=templinst)_ZN3pcl15SACSegmentationINS_11PointNormalEEC1Ev@Base 1.6
 (optional=templinst)_ZN3pcl15SACSegmentationINS_11PointNormalEEC2Ev@Base 1.6
 (optional=templinst)_ZN3pcl15SACSegmentationINS_11PointNormalEED0Ev@Base 1.6
 (optional=templinst)_ZN3pcl15SACSegmentationINS_11PointNormalEED1Ev@Base 1.6
 (optional=templinst)_ZN3pcl15SACSegmentationINS_11PointNormalEED2Ev@Base 1.6
 (optional=templinst)_ZN3pcl15SACSegmentationINS_11PointXYZHSVEE11setEpsAngleEd@Base 1.6
 (optional=templinst)_ZN3pcl15SACSegmentationINS_11PointXYZHSVEE12initSACModelEi@Base 1.6
 (optional=templinst)_ZN3pcl15SACSegmentationINS_11PointXYZHSVEE12setModelTypeEi@Base 1.6
 (optional=templinst)_ZN3pcl15SACSegmentationINS_11PointXYZHSVEE13setMethodTypeEi@Base 1.6
 (optional=templinst)_ZN3pcl15SACSegmentationINS_11PointXYZHSVEE14setProbabilityEd@Base 1.6
 (optional=templinst)_ZN3pcl15SACSegmentationINS_11PointXYZHSVEE15getRadiusLimitsERdS3_@Base 1.6
 (optional=templinst)_ZN3pcl15SACSegmentationINS_11PointXYZHSVEE15setRadiusLimitsERKdS4_@Base 1.6
 (optional=templinst)_ZN3pcl15SACSegmentationINS_11PointXYZHSVEE16setMaxIterationsEi@Base 1.6
 (optional=templinst)_ZN3pcl15SACSegmentationINS_11PointXYZHSVEE17getSamplesMaxDistERd@Base 1.6
 (optional=templinst)_ZN3pcl15SACSegmentationINS_11PointXYZHSVEE17setSamplesMaxDistERKdN5boost10shared_ptrINS_6search6SearchIS1_EEEE@Base 1.6
 (optional=templinst)_ZN3pcl15SACSegmentationINS_11PointXYZHSVEE20setDistanceThresholdEd@Base 1.6
 (optional=templinst)_ZN3pcl15SACSegmentationINS_11PointXYZHSVEE23setOptimizeCoefficientsEb@Base 1.6
 (optional=templinst)_ZN3pcl15SACSegmentationINS_11PointXYZHSVEE7initSACEi@Base 1.6
 (optional=templinst)_ZN3pcl15SACSegmentationINS_11PointXYZHSVEE7segmentERNS_12PointIndicesERNS_17ModelCoefficientsE@Base 1.6
 (optional=templinst)_ZN3pcl15SACSegmentationINS_11PointXYZHSVEE7setAxisERKN5Eigen6MatrixIfLi3ELi1ELi0ELi3ELi1EEE@Base 1.6
 (optional=templinst)_ZN3pcl15SACSegmentationINS_11PointXYZHSVEEC1Ev@Base 1.6
 (optional=templinst)_ZN3pcl15SACSegmentationINS_11PointXYZHSVEEC2Ev@Base 1.6
 (optional=templinst)_ZN3pcl15SACSegmentationINS_11PointXYZHSVEED0Ev@Base 1.6
 (optional=templinst)_ZN3pcl15SACSegmentationINS_11PointXYZHSVEED1Ev@Base 1.6
 (optional=templinst)_ZN3pcl15SACSegmentationINS_11PointXYZHSVEED2Ev@Base 1.6
 (optional=templinst)_ZN3pcl15SACSegmentationINS_11PointXYZRGBEE11setEpsAngleEd@Base 1.6
 (optional=templinst)_ZN3pcl15SACSegmentationINS_11PointXYZRGBEE12initSACModelEi@Base 1.6
 (optional=templinst)_ZN3pcl15SACSegmentationINS_11PointXYZRGBEE12setModelTypeEi@Base 1.6
 (optional=templinst)_ZN3pcl15SACSegmentationINS_11PointXYZRGBEE13setMethodTypeEi@Base 1.6
 (optional=templinst)_ZN3pcl15SACSegmentationINS_11PointXYZRGBEE14setProbabilityEd@Base 1.6
 (optional=templinst)_ZN3pcl15SACSegmentationINS_11PointXYZRGBEE15getRadiusLimitsERdS3_@Base 1.6
 (optional=templinst)_ZN3pcl15SACSegmentationINS_11PointXYZRGBEE15setRadiusLimitsERKdS4_@Base 1.6
 (optional=templinst)_ZN3pcl15SACSegmentationINS_11PointXYZRGBEE16setMaxIterationsEi@Base 1.6
 (optional=templinst)_ZN3pcl15SACSegmentationINS_11PointXYZRGBEE17getSamplesMaxDistERd@Base 1.6
 (optional=templinst)_ZN3pcl15SACSegmentationINS_11PointXYZRGBEE17setSamplesMaxDistERKdN5boost10shared_ptrINS_6search6SearchIS1_EEEE@Base 1.6
 (optional=templinst)_ZN3pcl15SACSegmentationINS_11PointXYZRGBEE20setDistanceThresholdEd@Base 1.6
 (optional=templinst)_ZN3pcl15SACSegmentationINS_11PointXYZRGBEE23setOptimizeCoefficientsEb@Base 1.6
 (optional=templinst)_ZN3pcl15SACSegmentationINS_11PointXYZRGBEE7initSACEi@Base 1.6
 (optional=templinst)_ZN3pcl15SACSegmentationINS_11PointXYZRGBEE7segmentERNS_12PointIndicesERNS_17ModelCoefficientsE@Base 1.6
 (optional=templinst)_ZN3pcl15SACSegmentationINS_11PointXYZRGBEE7setAxisERKN5Eigen6MatrixIfLi3ELi1ELi0ELi3ELi1EEE@Base 1.6
 (optional=templinst)_ZN3pcl15SACSegmentationINS_11PointXYZRGBEEC1Ev@Base 1.6
 (optional=templinst)_ZN3pcl15SACSegmentationINS_11PointXYZRGBEEC2Ev@Base 1.6
 (optional=templinst)_ZN3pcl15SACSegmentationINS_11PointXYZRGBEED0Ev@Base 1.6
 (optional=templinst)_ZN3pcl15SACSegmentationINS_11PointXYZRGBEED1Ev@Base 1.6
 (optional=templinst)_ZN3pcl15SACSegmentationINS_11PointXYZRGBEED2Ev@Base 1.6
 (optional=templinst)_ZN3pcl15SACSegmentationINS_12PointXYZRGBAEE11setEpsAngleEd@Base 1.6
 (optional=templinst)_ZN3pcl15SACSegmentationINS_12PointXYZRGBAEE12initSACModelEi@Base 1.6
 (optional=templinst)_ZN3pcl15SACSegmentationINS_12PointXYZRGBAEE12setModelTypeEi@Base 1.6
 (optional=templinst)_ZN3pcl15SACSegmentationINS_12PointXYZRGBAEE13setMethodTypeEi@Base 1.6
 (optional=templinst)_ZN3pcl15SACSegmentationINS_12PointXYZRGBAEE14setProbabilityEd@Base 1.6
 (optional=templinst)_ZN3pcl15SACSegmentationINS_12PointXYZRGBAEE15getRadiusLimitsERdS3_@Base 1.6
 (optional=templinst)_ZN3pcl15SACSegmentationINS_12PointXYZRGBAEE15setRadiusLimitsERKdS4_@Base 1.6
 (optional=templinst)_ZN3pcl15SACSegmentationINS_12PointXYZRGBAEE16setMaxIterationsEi@Base 1.6
 (optional=templinst)_ZN3pcl15SACSegmentationINS_12PointXYZRGBAEE17getSamplesMaxDistERd@Base 1.6
 (optional=templinst)_ZN3pcl15SACSegmentationINS_12PointXYZRGBAEE17setSamplesMaxDistERKdN5boost10shared_ptrINS_6search6SearchIS1_EEEE@Base 1.6
 (optional=templinst)_ZN3pcl15SACSegmentationINS_12PointXYZRGBAEE20setDistanceThresholdEd@Base 1.6
 (optional=templinst)_ZN3pcl15SACSegmentationINS_12PointXYZRGBAEE23setOptimizeCoefficientsEb@Base 1.6
 (optional=templinst)_ZN3pcl15SACSegmentationINS_12PointXYZRGBAEE7initSACEi@Base 1.6
 (optional=templinst)_ZN3pcl15SACSegmentationINS_12PointXYZRGBAEE7segmentERNS_12PointIndicesERNS_17ModelCoefficientsE@Base 1.6
 (optional=templinst)_ZN3pcl15SACSegmentationINS_12PointXYZRGBAEE7setAxisERKN5Eigen6MatrixIfLi3ELi1ELi0ELi3ELi1EEE@Base 1.6
 (optional=templinst)_ZN3pcl15SACSegmentationINS_12PointXYZRGBAEEC1Ev@Base 1.6
 (optional=templinst)_ZN3pcl15SACSegmentationINS_12PointXYZRGBAEEC2Ev@Base 1.6
 (optional=templinst)_ZN3pcl15SACSegmentationINS_12PointXYZRGBAEED0Ev@Base 1.6
 (optional=templinst)_ZN3pcl15SACSegmentationINS_12PointXYZRGBAEED1Ev@Base 1.6
 (optional=templinst)_ZN3pcl15SACSegmentationINS_12PointXYZRGBAEED2Ev@Base 1.6
 (optional=templinst)_ZN3pcl15SACSegmentationINS_12PointXYZRGBLEE11setEpsAngleEd@Base 1.6
 (optional=templinst)_ZN3pcl15SACSegmentationINS_12PointXYZRGBLEE12initSACModelEi@Base 1.6
 (optional=templinst)_ZN3pcl15SACSegmentationINS_12PointXYZRGBLEE12setModelTypeEi@Base 1.6
 (optional=templinst)_ZN3pcl15SACSegmentationINS_12PointXYZRGBLEE13setMethodTypeEi@Base 1.6
 (optional=templinst)_ZN3pcl15SACSegmentationINS_12PointXYZRGBLEE14setProbabilityEd@Base 1.6
 (optional=templinst)_ZN3pcl15SACSegmentationINS_12PointXYZRGBLEE15getRadiusLimitsERdS3_@Base 1.6
 (optional=templinst)_ZN3pcl15SACSegmentationINS_12PointXYZRGBLEE15setRadiusLimitsERKdS4_@Base 1.6
 (optional=templinst)_ZN3pcl15SACSegmentationINS_12PointXYZRGBLEE16setMaxIterationsEi@Base 1.6
 (optional=templinst)_ZN3pcl15SACSegmentationINS_12PointXYZRGBLEE17getSamplesMaxDistERd@Base 1.6
 (optional=templinst)_ZN3pcl15SACSegmentationINS_12PointXYZRGBLEE17setSamplesMaxDistERKdN5boost10shared_ptrINS_6search6SearchIS1_EEEE@Base 1.6
 (optional=templinst)_ZN3pcl15SACSegmentationINS_12PointXYZRGBLEE20setDistanceThresholdEd@Base 1.6
 (optional=templinst)_ZN3pcl15SACSegmentationINS_12PointXYZRGBLEE23setOptimizeCoefficientsEb@Base 1.6
 (optional=templinst)_ZN3pcl15SACSegmentationINS_12PointXYZRGBLEE7initSACEi@Base 1.6
 (optional=templinst)_ZN3pcl15SACSegmentationINS_12PointXYZRGBLEE7segmentERNS_12PointIndicesERNS_17ModelCoefficientsE@Base 1.6
 (optional=templinst)_ZN3pcl15SACSegmentationINS_12PointXYZRGBLEE7setAxisERKN5Eigen6MatrixIfLi3ELi1ELi0ELi3ELi1EEE@Base 1.6
 (optional=templinst)_ZN3pcl15SACSegmentationINS_12PointXYZRGBLEEC1Ev@Base 1.6
 (optional=templinst)_ZN3pcl15SACSegmentationINS_12PointXYZRGBLEEC2Ev@Base 1.6
 (optional=templinst)_ZN3pcl15SACSegmentationINS_12PointXYZRGBLEED0Ev@Base 1.6
 (optional=templinst)_ZN3pcl15SACSegmentationINS_12PointXYZRGBLEED1Ev@Base 1.6
 (optional=templinst)_ZN3pcl15SACSegmentationINS_12PointXYZRGBLEED2Ev@Base 1.6
 (optional=templinst)_ZN3pcl15SACSegmentationINS_13InterestPointEE11setEpsAngleEd@Base 1.6
 (optional=templinst)_ZN3pcl15SACSegmentationINS_13InterestPointEE12initSACModelEi@Base 1.6
 (optional=templinst)_ZN3pcl15SACSegmentationINS_13InterestPointEE12setModelTypeEi@Base 1.6
 (optional=templinst)_ZN3pcl15SACSegmentationINS_13InterestPointEE13setMethodTypeEi@Base 1.6
 (optional=templinst)_ZN3pcl15SACSegmentationINS_13InterestPointEE14setProbabilityEd@Base 1.6
 (optional=templinst)_ZN3pcl15SACSegmentationINS_13InterestPointEE15getRadiusLimitsERdS3_@Base 1.6
 (optional=templinst)_ZN3pcl15SACSegmentationINS_13InterestPointEE15setRadiusLimitsERKdS4_@Base 1.6
 (optional=templinst)_ZN3pcl15SACSegmentationINS_13InterestPointEE16setMaxIterationsEi@Base 1.6
 (optional=templinst)_ZN3pcl15SACSegmentationINS_13InterestPointEE17getSamplesMaxDistERd@Base 1.6
 (optional=templinst)_ZN3pcl15SACSegmentationINS_13InterestPointEE17setSamplesMaxDistERKdN5boost10shared_ptrINS_6search6SearchIS1_EEEE@Base 1.6
 (optional=templinst)_ZN3pcl15SACSegmentationINS_13InterestPointEE20setDistanceThresholdEd@Base 1.6
 (optional=templinst)_ZN3pcl15SACSegmentationINS_13InterestPointEE23setOptimizeCoefficientsEb@Base 1.6
 (optional=templinst)_ZN3pcl15SACSegmentationINS_13InterestPointEE7initSACEi@Base 1.6
 (optional=templinst)_ZN3pcl15SACSegmentationINS_13InterestPointEE7segmentERNS_12PointIndicesERNS_17ModelCoefficientsE@Base 1.6
 (optional=templinst)_ZN3pcl15SACSegmentationINS_13InterestPointEE7setAxisERKN5Eigen6MatrixIfLi3ELi1ELi0ELi3ELi1EEE@Base 1.6
 (optional=templinst)_ZN3pcl15SACSegmentationINS_13InterestPointEEC1Ev@Base 1.6
 (optional=templinst)_ZN3pcl15SACSegmentationINS_13InterestPointEEC2Ev@Base 1.6
 (optional=templinst)_ZN3pcl15SACSegmentationINS_13InterestPointEED0Ev@Base 1.6
 (optional=templinst)_ZN3pcl15SACSegmentationINS_13InterestPointEED1Ev@Base 1.6
 (optional=templinst)_ZN3pcl15SACSegmentationINS_13InterestPointEED2Ev@Base 1.6
 (optional=templinst)_ZN3pcl15SACSegmentationINS_14PointWithRangeEE11setEpsAngleEd@Base 1.6
 (optional=templinst)_ZN3pcl15SACSegmentationINS_14PointWithRangeEE12initSACModelEi@Base 1.6
 (optional=templinst)_ZN3pcl15SACSegmentationINS_14PointWithRangeEE12setModelTypeEi@Base 1.6
 (optional=templinst)_ZN3pcl15SACSegmentationINS_14PointWithRangeEE13setMethodTypeEi@Base 1.6
 (optional=templinst)_ZN3pcl15SACSegmentationINS_14PointWithRangeEE14setProbabilityEd@Base 1.6
 (optional=templinst)_ZN3pcl15SACSegmentationINS_14PointWithRangeEE15getRadiusLimitsERdS3_@Base 1.6
 (optional=templinst)_ZN3pcl15SACSegmentationINS_14PointWithRangeEE15setRadiusLimitsERKdS4_@Base 1.6
 (optional=templinst)_ZN3pcl15SACSegmentationINS_14PointWithRangeEE16setMaxIterationsEi@Base 1.6
 (optional=templinst)_ZN3pcl15SACSegmentationINS_14PointWithRangeEE17getSamplesMaxDistERd@Base 1.6
 (optional=templinst)_ZN3pcl15SACSegmentationINS_14PointWithRangeEE17setSamplesMaxDistERKdN5boost10shared_ptrINS_6search6SearchIS1_EEEE@Base 1.6
 (optional=templinst)_ZN3pcl15SACSegmentationINS_14PointWithRangeEE20setDistanceThresholdEd@Base 1.6
 (optional=templinst)_ZN3pcl15SACSegmentationINS_14PointWithRangeEE23setOptimizeCoefficientsEb@Base 1.6
 (optional=templinst)_ZN3pcl15SACSegmentationINS_14PointWithRangeEE7initSACEi@Base 1.6
 (optional=templinst)_ZN3pcl15SACSegmentationINS_14PointWithRangeEE7segmentERNS_12PointIndicesERNS_17ModelCoefficientsE@Base 1.6
 (optional=templinst)_ZN3pcl15SACSegmentationINS_14PointWithRangeEE7setAxisERKN5Eigen6MatrixIfLi3ELi1ELi0ELi3ELi1EEE@Base 1.6
 (optional=templinst)_ZN3pcl15SACSegmentationINS_14PointWithRangeEEC1Ev@Base 1.6
 (optional=templinst)_ZN3pcl15SACSegmentationINS_14PointWithRangeEEC2Ev@Base 1.6
 (optional=templinst)_ZN3pcl15SACSegmentationINS_14PointWithRangeEED0Ev@Base 1.6
 (optional=templinst)_ZN3pcl15SACSegmentationINS_14PointWithRangeEED1Ev@Base 1.6
 (optional=templinst)_ZN3pcl15SACSegmentationINS_14PointWithRangeEED2Ev@Base 1.6
 (optional=templinst)_ZN3pcl15SACSegmentationINS_14PointWithScaleEE11setEpsAngleEd@Base 1.6
 (optional=templinst)_ZN3pcl15SACSegmentationINS_14PointWithScaleEE12initSACModelEi@Base 1.6
 (optional=templinst)_ZN3pcl15SACSegmentationINS_14PointWithScaleEE12setModelTypeEi@Base 1.6
 (optional=templinst)_ZN3pcl15SACSegmentationINS_14PointWithScaleEE13setMethodTypeEi@Base 1.6
 (optional=templinst)_ZN3pcl15SACSegmentationINS_14PointWithScaleEE14setProbabilityEd@Base 1.6
 (optional=templinst)_ZN3pcl15SACSegmentationINS_14PointWithScaleEE15getRadiusLimitsERdS3_@Base 1.6
 (optional=templinst)_ZN3pcl15SACSegmentationINS_14PointWithScaleEE15setRadiusLimitsERKdS4_@Base 1.6
 (optional=templinst)_ZN3pcl15SACSegmentationINS_14PointWithScaleEE16setMaxIterationsEi@Base 1.6
 (optional=templinst)_ZN3pcl15SACSegmentationINS_14PointWithScaleEE17getSamplesMaxDistERd@Base 1.6
 (optional=templinst)_ZN3pcl15SACSegmentationINS_14PointWithScaleEE17setSamplesMaxDistERKdN5boost10shared_ptrINS_6search6SearchIS1_EEEE@Base 1.6
 (optional=templinst)_ZN3pcl15SACSegmentationINS_14PointWithScaleEE20setDistanceThresholdEd@Base 1.6
 (optional=templinst)_ZN3pcl15SACSegmentationINS_14PointWithScaleEE23setOptimizeCoefficientsEb@Base 1.6
 (optional=templinst)_ZN3pcl15SACSegmentationINS_14PointWithScaleEE7initSACEi@Base 1.6
 (optional=templinst)_ZN3pcl15SACSegmentationINS_14PointWithScaleEE7segmentERNS_12PointIndicesERNS_17ModelCoefficientsE@Base 1.6
 (optional=templinst)_ZN3pcl15SACSegmentationINS_14PointWithScaleEE7setAxisERKN5Eigen6MatrixIfLi3ELi1ELi0ELi3ELi1EEE@Base 1.6
 (optional=templinst)_ZN3pcl15SACSegmentationINS_14PointWithScaleEEC1Ev@Base 1.6
 (optional=templinst)_ZN3pcl15SACSegmentationINS_14PointWithScaleEEC2Ev@Base 1.6
 (optional=templinst)_ZN3pcl15SACSegmentationINS_14PointWithScaleEED0Ev@Base 1.6
 (optional=templinst)_ZN3pcl15SACSegmentationINS_14PointWithScaleEED1Ev@Base 1.6
 (optional=templinst)_ZN3pcl15SACSegmentationINS_14PointWithScaleEED2Ev@Base 1.6
 (optional=templinst)_ZN3pcl15SACSegmentationINS_15PointXYZINormalEE11setEpsAngleEd@Base 1.6
 (optional=templinst)_ZN3pcl15SACSegmentationINS_15PointXYZINormalEE12initSACModelEi@Base 1.6
 (optional=templinst)_ZN3pcl15SACSegmentationINS_15PointXYZINormalEE12setModelTypeEi@Base 1.6
 (optional=templinst)_ZN3pcl15SACSegmentationINS_15PointXYZINormalEE13setMethodTypeEi@Base 1.6
 (optional=templinst)_ZN3pcl15SACSegmentationINS_15PointXYZINormalEE14setProbabilityEd@Base 1.6
 (optional=templinst)_ZN3pcl15SACSegmentationINS_15PointXYZINormalEE15getRadiusLimitsERdS3_@Base 1.6
 (optional=templinst)_ZN3pcl15SACSegmentationINS_15PointXYZINormalEE15setRadiusLimitsERKdS4_@Base 1.6
 (optional=templinst)_ZN3pcl15SACSegmentationINS_15PointXYZINormalEE16setMaxIterationsEi@Base 1.6
 (optional=templinst)_ZN3pcl15SACSegmentationINS_15PointXYZINormalEE17getSamplesMaxDistERd@Base 1.6
 (optional=templinst)_ZN3pcl15SACSegmentationINS_15PointXYZINormalEE17setSamplesMaxDistERKdN5boost10shared_ptrINS_6search6SearchIS1_EEEE@Base 1.6
 (optional=templinst)_ZN3pcl15SACSegmentationINS_15PointXYZINormalEE20setDistanceThresholdEd@Base 1.6
 (optional=templinst)_ZN3pcl15SACSegmentationINS_15PointXYZINormalEE23setOptimizeCoefficientsEb@Base 1.6
 (optional=templinst)_ZN3pcl15SACSegmentationINS_15PointXYZINormalEE7initSACEi@Base 1.6
 (optional=templinst)_ZN3pcl15SACSegmentationINS_15PointXYZINormalEE7segmentERNS_12PointIndicesERNS_17ModelCoefficientsE@Base 1.6
 (optional=templinst)_ZN3pcl15SACSegmentationINS_15PointXYZINormalEE7setAxisERKN5Eigen6MatrixIfLi3ELi1ELi0ELi3ELi1EEE@Base 1.6
 (optional=templinst)_ZN3pcl15SACSegmentationINS_15PointXYZINormalEEC1Ev@Base 1.6
 (optional=templinst)_ZN3pcl15SACSegmentationINS_15PointXYZINormalEEC2Ev@Base 1.6
 (optional=templinst)_ZN3pcl15SACSegmentationINS_15PointXYZINormalEED0Ev@Base 1.6
 (optional=templinst)_ZN3pcl15SACSegmentationINS_15PointXYZINormalEED1Ev@Base 1.6
 (optional=templinst)_ZN3pcl15SACSegmentationINS_15PointXYZINormalEED2Ev@Base 1.6
 (optional=templinst)_ZN3pcl15SACSegmentationINS_17PointXYZRGBNormalEE11setEpsAngleEd@Base 1.6
 (optional=templinst)_ZN3pcl15SACSegmentationINS_17PointXYZRGBNormalEE12initSACModelEi@Base 1.6
 (optional=templinst)_ZN3pcl15SACSegmentationINS_17PointXYZRGBNormalEE12setModelTypeEi@Base 1.6
 (optional=templinst)_ZN3pcl15SACSegmentationINS_17PointXYZRGBNormalEE13setMethodTypeEi@Base 1.6
 (optional=templinst)_ZN3pcl15SACSegmentationINS_17PointXYZRGBNormalEE14setProbabilityEd@Base 1.6
 (optional=templinst)_ZN3pcl15SACSegmentationINS_17PointXYZRGBNormalEE15getRadiusLimitsERdS3_@Base 1.6
 (optional=templinst)_ZN3pcl15SACSegmentationINS_17PointXYZRGBNormalEE15setRadiusLimitsERKdS4_@Base 1.6
 (optional=templinst)_ZN3pcl15SACSegmentationINS_17PointXYZRGBNormalEE16setMaxIterationsEi@Base 1.6
 (optional=templinst)_ZN3pcl15SACSegmentationINS_17PointXYZRGBNormalEE17getSamplesMaxDistERd@Base 1.6
 (optional=templinst)_ZN3pcl15SACSegmentationINS_17PointXYZRGBNormalEE17setSamplesMaxDistERKdN5boost10shared_ptrINS_6search6SearchIS1_EEEE@Base 1.6
 (optional=templinst)_ZN3pcl15SACSegmentationINS_17PointXYZRGBNormalEE20setDistanceThresholdEd@Base 1.6
 (optional=templinst)_ZN3pcl15SACSegmentationINS_17PointXYZRGBNormalEE23setOptimizeCoefficientsEb@Base 1.6
 (optional=templinst)_ZN3pcl15SACSegmentationINS_17PointXYZRGBNormalEE7initSACEi@Base 1.6
 (optional=templinst)_ZN3pcl15SACSegmentationINS_17PointXYZRGBNormalEE7segmentERNS_12PointIndicesERNS_17ModelCoefficientsE@Base 1.6
 (optional=templinst)_ZN3pcl15SACSegmentationINS_17PointXYZRGBNormalEE7setAxisERKN5Eigen6MatrixIfLi3ELi1ELi0ELi3ELi1EEE@Base 1.6
 (optional=templinst)_ZN3pcl15SACSegmentationINS_17PointXYZRGBNormalEEC1Ev@Base 1.6
 (optional=templinst)_ZN3pcl15SACSegmentationINS_17PointXYZRGBNormalEEC2Ev@Base 1.6
 (optional=templinst)_ZN3pcl15SACSegmentationINS_17PointXYZRGBNormalEED0Ev@Base 1.6
 (optional=templinst)_ZN3pcl15SACSegmentationINS_17PointXYZRGBNormalEED1Ev@Base 1.6
 (optional=templinst)_ZN3pcl15SACSegmentationINS_17PointXYZRGBNormalEED2Ev@Base 1.6
 (optional=templinst)_ZN3pcl15SACSegmentationINS_18PointWithViewpointEE11setEpsAngleEd@Base 1.6
 (optional=templinst)_ZN3pcl15SACSegmentationINS_18PointWithViewpointEE12initSACModelEi@Base 1.6
 (optional=templinst)_ZN3pcl15SACSegmentationINS_18PointWithViewpointEE12setModelTypeEi@Base 1.6
 (optional=templinst)_ZN3pcl15SACSegmentationINS_18PointWithViewpointEE13setMethodTypeEi@Base 1.6
 (optional=templinst)_ZN3pcl15SACSegmentationINS_18PointWithViewpointEE14setProbabilityEd@Base 1.6
 (optional=templinst)_ZN3pcl15SACSegmentationINS_18PointWithViewpointEE15getRadiusLimitsERdS3_@Base 1.6
 (optional=templinst)_ZN3pcl15SACSegmentationINS_18PointWithViewpointEE15setRadiusLimitsERKdS4_@Base 1.6
 (optional=templinst)_ZN3pcl15SACSegmentationINS_18PointWithViewpointEE16setMaxIterationsEi@Base 1.6
 (optional=templinst)_ZN3pcl15SACSegmentationINS_18PointWithViewpointEE17getSamplesMaxDistERd@Base 1.6
 (optional=templinst)_ZN3pcl15SACSegmentationINS_18PointWithViewpointEE17setSamplesMaxDistERKdN5boost10shared_ptrINS_6search6SearchIS1_EEEE@Base 1.6
 (optional=templinst)_ZN3pcl15SACSegmentationINS_18PointWithViewpointEE20setDistanceThresholdEd@Base 1.6
 (optional=templinst)_ZN3pcl15SACSegmentationINS_18PointWithViewpointEE23setOptimizeCoefficientsEb@Base 1.6
 (optional=templinst)_ZN3pcl15SACSegmentationINS_18PointWithViewpointEE7initSACEi@Base 1.6
 (optional=templinst)_ZN3pcl15SACSegmentationINS_18PointWithViewpointEE7segmentERNS_12PointIndicesERNS_17ModelCoefficientsE@Base 1.6
 (optional=templinst)_ZN3pcl15SACSegmentationINS_18PointWithViewpointEE7setAxisERKN5Eigen6MatrixIfLi3ELi1ELi0ELi3ELi1EEE@Base 1.6
 (optional=templinst)_ZN3pcl15SACSegmentationINS_18PointWithViewpointEEC1Ev@Base 1.6
 (optional=templinst)_ZN3pcl15SACSegmentationINS_18PointWithViewpointEEC2Ev@Base 1.6
 (optional=templinst)_ZN3pcl15SACSegmentationINS_18PointWithViewpointEED0Ev@Base 1.6
 (optional=templinst)_ZN3pcl15SACSegmentationINS_18PointWithViewpointEED1Ev@Base 1.6
 (optional=templinst)_ZN3pcl15SACSegmentationINS_18PointWithViewpointEED2Ev@Base 1.6
 (optional=templinst)_ZN3pcl15SACSegmentationINS_8PointXYZEE11setEpsAngleEd@Base 1.6
 (optional=templinst)_ZN3pcl15SACSegmentationINS_8PointXYZEE12initSACModelEi@Base 1.6
 (optional=templinst)_ZN3pcl15SACSegmentationINS_8PointXYZEE12setModelTypeEi@Base 1.6
 (optional=templinst)_ZN3pcl15SACSegmentationINS_8PointXYZEE13setMethodTypeEi@Base 1.6
 (optional=templinst)_ZN3pcl15SACSegmentationINS_8PointXYZEE14setProbabilityEd@Base 1.6
 (optional=templinst)_ZN3pcl15SACSegmentationINS_8PointXYZEE15getRadiusLimitsERdS3_@Base 1.6
 (optional=templinst)_ZN3pcl15SACSegmentationINS_8PointXYZEE15setRadiusLimitsERKdS4_@Base 1.6
 (optional=templinst)_ZN3pcl15SACSegmentationINS_8PointXYZEE16setMaxIterationsEi@Base 1.6
 (optional=templinst)_ZN3pcl15SACSegmentationINS_8PointXYZEE17getSamplesMaxDistERd@Base 1.6
 (optional=templinst)_ZN3pcl15SACSegmentationINS_8PointXYZEE17setSamplesMaxDistERKdN5boost10shared_ptrINS_6search6SearchIS1_EEEE@Base 1.6
 (optional=templinst)_ZN3pcl15SACSegmentationINS_8PointXYZEE20setDistanceThresholdEd@Base 1.6
 (optional=templinst)_ZN3pcl15SACSegmentationINS_8PointXYZEE23setOptimizeCoefficientsEb@Base 1.6
 (optional=templinst)_ZN3pcl15SACSegmentationINS_8PointXYZEE7initSACEi@Base 1.6
 (optional=templinst)_ZN3pcl15SACSegmentationINS_8PointXYZEE7segmentERNS_12PointIndicesERNS_17ModelCoefficientsE@Base 1.6
 (optional=templinst)_ZN3pcl15SACSegmentationINS_8PointXYZEE7setAxisERKN5Eigen6MatrixIfLi3ELi1ELi0ELi3ELi1EEE@Base 1.6
 (optional=templinst)_ZN3pcl15SACSegmentationINS_8PointXYZEEC1Ev@Base 1.6
 (optional=templinst)_ZN3pcl15SACSegmentationINS_8PointXYZEEC2Ev@Base 1.6
 (optional=templinst)_ZN3pcl15SACSegmentationINS_8PointXYZEED0Ev@Base 1.6
 (optional=templinst)_ZN3pcl15SACSegmentationINS_8PointXYZEED1Ev@Base 1.6
 (optional=templinst)_ZN3pcl15SACSegmentationINS_8PointXYZEED2Ev@Base 1.6
 (optional=templinst)_ZN3pcl15SACSegmentationINS_9PointXYZIEE11setEpsAngleEd@Base 1.6
 (optional=templinst)_ZN3pcl15SACSegmentationINS_9PointXYZIEE12initSACModelEi@Base 1.6
 (optional=templinst)_ZN3pcl15SACSegmentationINS_9PointXYZIEE12setModelTypeEi@Base 1.6
 (optional=templinst)_ZN3pcl15SACSegmentationINS_9PointXYZIEE13setMethodTypeEi@Base 1.6
 (optional=templinst)_ZN3pcl15SACSegmentationINS_9PointXYZIEE14setProbabilityEd@Base 1.6
 (optional=templinst)_ZN3pcl15SACSegmentationINS_9PointXYZIEE15getRadiusLimitsERdS3_@Base 1.6
 (optional=templinst)_ZN3pcl15SACSegmentationINS_9PointXYZIEE15setRadiusLimitsERKdS4_@Base 1.6
 (optional=templinst)_ZN3pcl15SACSegmentationINS_9PointXYZIEE16setMaxIterationsEi@Base 1.6
 (optional=templinst)_ZN3pcl15SACSegmentationINS_9PointXYZIEE17getSamplesMaxDistERd@Base 1.6
 (optional=templinst)_ZN3pcl15SACSegmentationINS_9PointXYZIEE17setSamplesMaxDistERKdN5boost10shared_ptrINS_6search6SearchIS1_EEEE@Base 1.6
 (optional=templinst)_ZN3pcl15SACSegmentationINS_9PointXYZIEE20setDistanceThresholdEd@Base 1.6
 (optional=templinst)_ZN3pcl15SACSegmentationINS_9PointXYZIEE23setOptimizeCoefficientsEb@Base 1.6
 (optional=templinst)_ZN3pcl15SACSegmentationINS_9PointXYZIEE7initSACEi@Base 1.6
 (optional=templinst)_ZN3pcl15SACSegmentationINS_9PointXYZIEE7segmentERNS_12PointIndicesERNS_17ModelCoefficientsE@Base 1.6
 (optional=templinst)_ZN3pcl15SACSegmentationINS_9PointXYZIEE7setAxisERKN5Eigen6MatrixIfLi3ELi1ELi0ELi3ELi1EEE@Base 1.6
 (optional=templinst)_ZN3pcl15SACSegmentationINS_9PointXYZIEEC1Ev@Base 1.6
 (optional=templinst)_ZN3pcl15SACSegmentationINS_9PointXYZIEEC2Ev@Base 1.6
 (optional=templinst)_ZN3pcl15SACSegmentationINS_9PointXYZIEED0Ev@Base 1.6
 (optional=templinst)_ZN3pcl15SACSegmentationINS_9PointXYZIEED1Ev@Base 1.6
 (optional=templinst)_ZN3pcl15SACSegmentationINS_9PointXYZIEED2Ev@Base 1.6
 (optional=templinst)_ZN3pcl15SACSegmentationINS_9PointXYZLEE11setEpsAngleEd@Base 1.6
 (optional=templinst)_ZN3pcl15SACSegmentationINS_9PointXYZLEE12initSACModelEi@Base 1.6
 (optional=templinst)_ZN3pcl15SACSegmentationINS_9PointXYZLEE12setModelTypeEi@Base 1.6
 (optional=templinst)_ZN3pcl15SACSegmentationINS_9PointXYZLEE13setMethodTypeEi@Base 1.6
 (optional=templinst)_ZN3pcl15SACSegmentationINS_9PointXYZLEE14setProbabilityEd@Base 1.6
 (optional=templinst)_ZN3pcl15SACSegmentationINS_9PointXYZLEE15getRadiusLimitsERdS3_@Base 1.6
 (optional=templinst)_ZN3pcl15SACSegmentationINS_9PointXYZLEE15setRadiusLimitsERKdS4_@Base 1.6
 (optional=templinst)_ZN3pcl15SACSegmentationINS_9PointXYZLEE16setMaxIterationsEi@Base 1.6
 (optional=templinst)_ZN3pcl15SACSegmentationINS_9PointXYZLEE17getSamplesMaxDistERd@Base 1.6
 (optional=templinst)_ZN3pcl15SACSegmentationINS_9PointXYZLEE17setSamplesMaxDistERKdN5boost10shared_ptrINS_6search6SearchIS1_EEEE@Base 1.6
 (optional=templinst)_ZN3pcl15SACSegmentationINS_9PointXYZLEE20setDistanceThresholdEd@Base 1.6
 (optional=templinst)_ZN3pcl15SACSegmentationINS_9PointXYZLEE23setOptimizeCoefficientsEb@Base 1.6
 (optional=templinst)_ZN3pcl15SACSegmentationINS_9PointXYZLEE7initSACEi@Base 1.6
 (optional=templinst)_ZN3pcl15SACSegmentationINS_9PointXYZLEE7segmentERNS_12PointIndicesERNS_17ModelCoefficientsE@Base 1.6
 (optional=templinst)_ZN3pcl15SACSegmentationINS_9PointXYZLEE7setAxisERKN5Eigen6MatrixIfLi3ELi1ELi0ELi3ELi1EEE@Base 1.6
 (optional=templinst)_ZN3pcl15SACSegmentationINS_9PointXYZLEEC1Ev@Base 1.6
 (optional=templinst)_ZN3pcl15SACSegmentationINS_9PointXYZLEEC2Ev@Base 1.6
 (optional=templinst)_ZN3pcl15SACSegmentationINS_9PointXYZLEED0Ev@Base 1.6
 (optional=templinst)_ZN3pcl15SACSegmentationINS_9PointXYZLEED1Ev@Base 1.6
 (optional=templinst)_ZN3pcl15SACSegmentationINS_9PointXYZLEED2Ev@Base 1.6
 (optional=templinst)_ZN3pcl15SampleConsensusINS_11PointNormalEE20getModelCoefficientsERN5Eigen6MatrixIfLin1ELi1ELi0ELin1ELi1EEE@Base 1.6
 (optional=templinst)_ZN3pcl15SampleConsensusINS_11PointNormalEEC1ERKN5boost10shared_ptrINS_20SampleConsensusModelIS1_EEEEdb@Base 1.6
 (optional=templinst)_ZN3pcl15SampleConsensusINS_11PointNormalEEC2ERKN5boost10shared_ptrINS_20SampleConsensusModelIS1_EEEEdb@Base 1.6
 (optional=templinst)_ZN3pcl15SampleConsensusINS_11PointNormalEED0Ev@Base 1.6
 (optional=templinst)_ZN3pcl15SampleConsensusINS_11PointNormalEED1Ev@Base 1.6
 (optional=templinst)_ZN3pcl15SampleConsensusINS_11PointNormalEED2Ev@Base 1.6
 (optional=templinst)_ZN3pcl15SampleConsensusINS_11PointXYZHSVEE20getModelCoefficientsERN5Eigen6MatrixIfLin1ELi1ELi0ELin1ELi1EEE@Base 1.6
 (optional=templinst)_ZN3pcl15SampleConsensusINS_11PointXYZHSVEEC1ERKN5boost10shared_ptrINS_20SampleConsensusModelIS1_EEEEdb@Base 1.6
 (optional=templinst)_ZN3pcl15SampleConsensusINS_11PointXYZHSVEEC2ERKN5boost10shared_ptrINS_20SampleConsensusModelIS1_EEEEdb@Base 1.6
 (optional=templinst)_ZN3pcl15SampleConsensusINS_11PointXYZHSVEED0Ev@Base 1.6
 (optional=templinst)_ZN3pcl15SampleConsensusINS_11PointXYZHSVEED1Ev@Base 1.6
 (optional=templinst)_ZN3pcl15SampleConsensusINS_11PointXYZHSVEED2Ev@Base 1.6
 (optional=templinst)_ZN3pcl15SampleConsensusINS_11PointXYZRGBEE20getModelCoefficientsERN5Eigen6MatrixIfLin1ELi1ELi0ELin1ELi1EEE@Base 1.6
 (optional=templinst)_ZN3pcl15SampleConsensusINS_11PointXYZRGBEEC1ERKN5boost10shared_ptrINS_20SampleConsensusModelIS1_EEEEdb@Base 1.6
 (optional=templinst)_ZN3pcl15SampleConsensusINS_11PointXYZRGBEEC2ERKN5boost10shared_ptrINS_20SampleConsensusModelIS1_EEEEdb@Base 1.6
 (optional=templinst)_ZN3pcl15SampleConsensusINS_11PointXYZRGBEED0Ev@Base 1.6
 (optional=templinst)_ZN3pcl15SampleConsensusINS_11PointXYZRGBEED1Ev@Base 1.6
 (optional=templinst)_ZN3pcl15SampleConsensusINS_11PointXYZRGBEED2Ev@Base 1.6
 (optional=templinst)_ZN3pcl15SampleConsensusINS_12PointXYZRGBAEE20getModelCoefficientsERN5Eigen6MatrixIfLin1ELi1ELi0ELin1ELi1EEE@Base 1.6
 (optional=templinst)_ZN3pcl15SampleConsensusINS_12PointXYZRGBAEEC1ERKN5boost10shared_ptrINS_20SampleConsensusModelIS1_EEEEdb@Base 1.6
 (optional=templinst)_ZN3pcl15SampleConsensusINS_12PointXYZRGBAEEC2ERKN5boost10shared_ptrINS_20SampleConsensusModelIS1_EEEEdb@Base 1.6
 (optional=templinst)_ZN3pcl15SampleConsensusINS_12PointXYZRGBAEED0Ev@Base 1.6
 (optional=templinst)_ZN3pcl15SampleConsensusINS_12PointXYZRGBAEED1Ev@Base 1.6
 (optional=templinst)_ZN3pcl15SampleConsensusINS_12PointXYZRGBAEED2Ev@Base 1.6
 (optional=templinst)_ZN3pcl15SampleConsensusINS_12PointXYZRGBLEE20getModelCoefficientsERN5Eigen6MatrixIfLin1ELi1ELi0ELin1ELi1EEE@Base 1.6
 (optional=templinst)_ZN3pcl15SampleConsensusINS_12PointXYZRGBLEEC1ERKN5boost10shared_ptrINS_20SampleConsensusModelIS1_EEEEdb@Base 1.6
 (optional=templinst)_ZN3pcl15SampleConsensusINS_12PointXYZRGBLEEC2ERKN5boost10shared_ptrINS_20SampleConsensusModelIS1_EEEEdb@Base 1.6
 (optional=templinst)_ZN3pcl15SampleConsensusINS_12PointXYZRGBLEED0Ev@Base 1.6
 (optional=templinst)_ZN3pcl15SampleConsensusINS_12PointXYZRGBLEED1Ev@Base 1.6
 (optional=templinst)_ZN3pcl15SampleConsensusINS_12PointXYZRGBLEED2Ev@Base 1.6
 (optional=templinst)_ZN3pcl15SampleConsensusINS_13InterestPointEE20getModelCoefficientsERN5Eigen6MatrixIfLin1ELi1ELi0ELin1ELi1EEE@Base 1.6
 (optional=templinst)_ZN3pcl15SampleConsensusINS_13InterestPointEEC1ERKN5boost10shared_ptrINS_20SampleConsensusModelIS1_EEEEdb@Base 1.6
 (optional=templinst)_ZN3pcl15SampleConsensusINS_13InterestPointEEC2ERKN5boost10shared_ptrINS_20SampleConsensusModelIS1_EEEEdb@Base 1.6
 (optional=templinst)_ZN3pcl15SampleConsensusINS_13InterestPointEED0Ev@Base 1.6
 (optional=templinst)_ZN3pcl15SampleConsensusINS_13InterestPointEED1Ev@Base 1.6
 (optional=templinst)_ZN3pcl15SampleConsensusINS_13InterestPointEED2Ev@Base 1.6
 (optional=templinst)_ZN3pcl15SampleConsensusINS_14PointWithRangeEE20getModelCoefficientsERN5Eigen6MatrixIfLin1ELi1ELi0ELin1ELi1EEE@Base 1.6
 (optional=templinst)_ZN3pcl15SampleConsensusINS_14PointWithRangeEEC1ERKN5boost10shared_ptrINS_20SampleConsensusModelIS1_EEEEdb@Base 1.6
 (optional=templinst)_ZN3pcl15SampleConsensusINS_14PointWithRangeEEC2ERKN5boost10shared_ptrINS_20SampleConsensusModelIS1_EEEEdb@Base 1.6
 (optional=templinst)_ZN3pcl15SampleConsensusINS_14PointWithRangeEED0Ev@Base 1.6
 (optional=templinst)_ZN3pcl15SampleConsensusINS_14PointWithRangeEED1Ev@Base 1.6
 (optional=templinst)_ZN3pcl15SampleConsensusINS_14PointWithRangeEED2Ev@Base 1.6
 (optional=templinst)_ZN3pcl15SampleConsensusINS_14PointWithScaleEE20getModelCoefficientsERN5Eigen6MatrixIfLin1ELi1ELi0ELin1ELi1EEE@Base 1.6
 (optional=templinst)_ZN3pcl15SampleConsensusINS_14PointWithScaleEEC1ERKN5boost10shared_ptrINS_20SampleConsensusModelIS1_EEEEdb@Base 1.6
 (optional=templinst)_ZN3pcl15SampleConsensusINS_14PointWithScaleEEC2ERKN5boost10shared_ptrINS_20SampleConsensusModelIS1_EEEEdb@Base 1.6
 (optional=templinst)_ZN3pcl15SampleConsensusINS_14PointWithScaleEED0Ev@Base 1.6
 (optional=templinst)_ZN3pcl15SampleConsensusINS_14PointWithScaleEED1Ev@Base 1.6
 (optional=templinst)_ZN3pcl15SampleConsensusINS_14PointWithScaleEED2Ev@Base 1.6
 (optional=templinst)_ZN3pcl15SampleConsensusINS_15PointXYZINormalEE20getModelCoefficientsERN5Eigen6MatrixIfLin1ELi1ELi0ELin1ELi1EEE@Base 1.6
 (optional=templinst)_ZN3pcl15SampleConsensusINS_15PointXYZINormalEEC1ERKN5boost10shared_ptrINS_20SampleConsensusModelIS1_EEEEdb@Base 1.6
 (optional=templinst)_ZN3pcl15SampleConsensusINS_15PointXYZINormalEEC2ERKN5boost10shared_ptrINS_20SampleConsensusModelIS1_EEEEdb@Base 1.6
 (optional=templinst)_ZN3pcl15SampleConsensusINS_15PointXYZINormalEED0Ev@Base 1.6
 (optional=templinst)_ZN3pcl15SampleConsensusINS_15PointXYZINormalEED1Ev@Base 1.6
 (optional=templinst)_ZN3pcl15SampleConsensusINS_15PointXYZINormalEED2Ev@Base 1.6
 (optional=templinst)_ZN3pcl15SampleConsensusINS_17PointXYZRGBNormalEE20getModelCoefficientsERN5Eigen6MatrixIfLin1ELi1ELi0ELin1ELi1EEE@Base 1.6
 (optional=templinst)_ZN3pcl15SampleConsensusINS_17PointXYZRGBNormalEEC1ERKN5boost10shared_ptrINS_20SampleConsensusModelIS1_EEEEdb@Base 1.6
 (optional=templinst)_ZN3pcl15SampleConsensusINS_17PointXYZRGBNormalEEC2ERKN5boost10shared_ptrINS_20SampleConsensusModelIS1_EEEEdb@Base 1.6
 (optional=templinst)_ZN3pcl15SampleConsensusINS_17PointXYZRGBNormalEED0Ev@Base 1.6
 (optional=templinst)_ZN3pcl15SampleConsensusINS_17PointXYZRGBNormalEED1Ev@Base 1.6
 (optional=templinst)_ZN3pcl15SampleConsensusINS_17PointXYZRGBNormalEED2Ev@Base 1.6
 (optional=templinst)_ZN3pcl15SampleConsensusINS_18PointWithViewpointEE20getModelCoefficientsERN5Eigen6MatrixIfLin1ELi1ELi0ELin1ELi1EEE@Base 1.6
 (optional=templinst)_ZN3pcl15SampleConsensusINS_18PointWithViewpointEEC1ERKN5boost10shared_ptrINS_20SampleConsensusModelIS1_EEEEdb@Base 1.6
 (optional=templinst)_ZN3pcl15SampleConsensusINS_18PointWithViewpointEEC2ERKN5boost10shared_ptrINS_20SampleConsensusModelIS1_EEEEdb@Base 1.6
 (optional=templinst)_ZN3pcl15SampleConsensusINS_18PointWithViewpointEED0Ev@Base 1.6
 (optional=templinst)_ZN3pcl15SampleConsensusINS_18PointWithViewpointEED1Ev@Base 1.6
 (optional=templinst)_ZN3pcl15SampleConsensusINS_18PointWithViewpointEED2Ev@Base 1.6
 (optional=templinst)_ZN3pcl15SampleConsensusINS_8PointXYZEE20getModelCoefficientsERN5Eigen6MatrixIfLin1ELi1ELi0ELin1ELi1EEE@Base 1.6
 (optional=templinst)_ZN3pcl15SampleConsensusINS_8PointXYZEEC1ERKN5boost10shared_ptrINS_20SampleConsensusModelIS1_EEEEdb@Base 1.6
 (optional=templinst)_ZN3pcl15SampleConsensusINS_8PointXYZEEC2ERKN5boost10shared_ptrINS_20SampleConsensusModelIS1_EEEEdb@Base 1.6
 (optional=templinst)_ZN3pcl15SampleConsensusINS_8PointXYZEED0Ev@Base 1.6
 (optional=templinst)_ZN3pcl15SampleConsensusINS_8PointXYZEED1Ev@Base 1.6
 (optional=templinst)_ZN3pcl15SampleConsensusINS_8PointXYZEED2Ev@Base 1.6
 (optional=templinst)_ZN3pcl15SampleConsensusINS_9PointXYZIEE20getModelCoefficientsERN5Eigen6MatrixIfLin1ELi1ELi0ELin1ELi1EEE@Base 1.6
 (optional=templinst)_ZN3pcl15SampleConsensusINS_9PointXYZIEEC1ERKN5boost10shared_ptrINS_20SampleConsensusModelIS1_EEEEdb@Base 1.6
 (optional=templinst)_ZN3pcl15SampleConsensusINS_9PointXYZIEEC2ERKN5boost10shared_ptrINS_20SampleConsensusModelIS1_EEEEdb@Base 1.6
 (optional=templinst)_ZN3pcl15SampleConsensusINS_9PointXYZIEED0Ev@Base 1.6
 (optional=templinst)_ZN3pcl15SampleConsensusINS_9PointXYZIEED1Ev@Base 1.6
 (optional=templinst)_ZN3pcl15SampleConsensusINS_9PointXYZIEED2Ev@Base 1.6
 (optional=templinst)_ZN3pcl15SampleConsensusINS_9PointXYZLEE20getModelCoefficientsERN5Eigen6MatrixIfLin1ELi1ELi0ELin1ELi1EEE@Base 1.6
 (optional=templinst)_ZN3pcl15SampleConsensusINS_9PointXYZLEEC1ERKN5boost10shared_ptrINS_20SampleConsensusModelIS1_EEEEdb@Base 1.6
 (optional=templinst)_ZN3pcl15SampleConsensusINS_9PointXYZLEEC2ERKN5boost10shared_ptrINS_20SampleConsensusModelIS1_EEEEdb@Base 1.6
 (optional=templinst)_ZN3pcl15SampleConsensusINS_9PointXYZLEED0Ev@Base 1.6
 (optional=templinst)_ZN3pcl15SampleConsensusINS_9PointXYZLEED1Ev@Base 1.6
 (optional=templinst)_ZN3pcl15SampleConsensusINS_9PointXYZLEED2Ev@Base 1.6
 _ZN3pcl17ModelCoefficientsC1ERKS0_@Base 1.6
 _ZN3pcl17ModelCoefficientsC2ERKS0_@Base 1.6
 _ZN3pcl17ModelCoefficientsD1Ev@Base 1.6
 _ZN3pcl17ModelCoefficientsD2Ev@Base 1.6
 _ZN3pcl17ModelCoefficientsaSERKS0_@Base 1.6
 (optional=templinst)_ZN3pcl18LeastMedianSquaresINS_11PointNormalEED0Ev@Base 1.6
 (optional=templinst)_ZN3pcl18LeastMedianSquaresINS_11PointNormalEED1Ev@Base 1.6
 (optional=templinst)_ZN3pcl18LeastMedianSquaresINS_11PointNormalEED2Ev@Base 1.6
 (optional=templinst)_ZN3pcl18LeastMedianSquaresINS_11PointXYZHSVEED0Ev@Base 1.6
 (optional=templinst)_ZN3pcl18LeastMedianSquaresINS_11PointXYZHSVEED1Ev@Base 1.6
 (optional=templinst)_ZN3pcl18LeastMedianSquaresINS_11PointXYZHSVEED2Ev@Base 1.6
 (optional=templinst)_ZN3pcl18LeastMedianSquaresINS_11PointXYZRGBEED0Ev@Base 1.6
 (optional=templinst)_ZN3pcl18LeastMedianSquaresINS_11PointXYZRGBEED1Ev@Base 1.6
 (optional=templinst)_ZN3pcl18LeastMedianSquaresINS_11PointXYZRGBEED2Ev@Base 1.6
 (optional=templinst)_ZN3pcl18LeastMedianSquaresINS_12PointXYZRGBAEED0Ev@Base 1.6
 (optional=templinst)_ZN3pcl18LeastMedianSquaresINS_12PointXYZRGBAEED1Ev@Base 1.6
 (optional=templinst)_ZN3pcl18LeastMedianSquaresINS_12PointXYZRGBAEED2Ev@Base 1.6
 (optional=templinst)_ZN3pcl18LeastMedianSquaresINS_12PointXYZRGBLEED0Ev@Base 1.6
 (optional=templinst)_ZN3pcl18LeastMedianSquaresINS_12PointXYZRGBLEED1Ev@Base 1.6
 (optional=templinst)_ZN3pcl18LeastMedianSquaresINS_12PointXYZRGBLEED2Ev@Base 1.6
 (optional=templinst)_ZN3pcl18LeastMedianSquaresINS_13InterestPointEED0Ev@Base 1.6
 (optional=templinst)_ZN3pcl18LeastMedianSquaresINS_13InterestPointEED1Ev@Base 1.6
 (optional=templinst)_ZN3pcl18LeastMedianSquaresINS_13InterestPointEED2Ev@Base 1.6
 (optional=templinst)_ZN3pcl18LeastMedianSquaresINS_14PointWithRangeEED0Ev@Base 1.6
 (optional=templinst)_ZN3pcl18LeastMedianSquaresINS_14PointWithRangeEED1Ev@Base 1.6
 (optional=templinst)_ZN3pcl18LeastMedianSquaresINS_14PointWithRangeEED2Ev@Base 1.6
 (optional=templinst)_ZN3pcl18LeastMedianSquaresINS_14PointWithScaleEED0Ev@Base 1.6
 (optional=templinst)_ZN3pcl18LeastMedianSquaresINS_14PointWithScaleEED1Ev@Base 1.6
 (optional=templinst)_ZN3pcl18LeastMedianSquaresINS_14PointWithScaleEED2Ev@Base 1.6
 (optional=templinst)_ZN3pcl18LeastMedianSquaresINS_15PointXYZINormalEED0Ev@Base 1.6
 (optional=templinst)_ZN3pcl18LeastMedianSquaresINS_15PointXYZINormalEED1Ev@Base 1.6
 (optional=templinst)_ZN3pcl18LeastMedianSquaresINS_15PointXYZINormalEED2Ev@Base 1.6
 (optional=templinst)_ZN3pcl18LeastMedianSquaresINS_17PointXYZRGBNormalEED0Ev@Base 1.6
 (optional=templinst)_ZN3pcl18LeastMedianSquaresINS_17PointXYZRGBNormalEED1Ev@Base 1.6
 (optional=templinst)_ZN3pcl18LeastMedianSquaresINS_17PointXYZRGBNormalEED2Ev@Base 1.6
 (optional=templinst)_ZN3pcl18LeastMedianSquaresINS_18PointWithViewpointEED0Ev@Base 1.6
 (optional=templinst)_ZN3pcl18LeastMedianSquaresINS_18PointWithViewpointEED1Ev@Base 1.6
 (optional=templinst)_ZN3pcl18LeastMedianSquaresINS_18PointWithViewpointEED2Ev@Base 1.6
 (optional=templinst)_ZN3pcl18LeastMedianSquaresINS_8PointXYZEED0Ev@Base 1.6
 (optional=templinst)_ZN3pcl18LeastMedianSquaresINS_8PointXYZEED1Ev@Base 1.6
 (optional=templinst)_ZN3pcl18LeastMedianSquaresINS_8PointXYZEED2Ev@Base 1.6
 (optional=templinst)_ZN3pcl18LeastMedianSquaresINS_9PointXYZIEED0Ev@Base 1.6
 (optional=templinst)_ZN3pcl18LeastMedianSquaresINS_9PointXYZIEED1Ev@Base 1.6
 (optional=templinst)_ZN3pcl18LeastMedianSquaresINS_9PointXYZIEED2Ev@Base 1.6
 (optional=templinst)_ZN3pcl18LeastMedianSquaresINS_9PointXYZLEED0Ev@Base 1.6
 (optional=templinst)_ZN3pcl18LeastMedianSquaresINS_9PointXYZLEED1Ev@Base 1.6
 (optional=templinst)_ZN3pcl18LeastMedianSquaresINS_9PointXYZLEED2Ev@Base 1.6
 (optional=templinst)_ZN3pcl18SegmentDifferencesINS_11PointNormalEE14getTargetCloudEv@Base 1.6
 (optional=templinst)_ZN3pcl18SegmentDifferencesINS_11PointNormalEE14setTargetCloudERKN5boost10shared_ptrIKNS_10PointCloudIS1_EEEE@Base 1.6
 (optional=templinst)_ZN3pcl18SegmentDifferencesINS_11PointNormalEE15getSearchMethodEv@Base 1.6
 (optional=templinst)_ZN3pcl18SegmentDifferencesINS_11PointNormalEE15setSearchMethodERKN5boost10shared_ptrINS_6search6SearchIS1_EEEE@Base 1.6
 (optional=templinst)_ZN3pcl18SegmentDifferencesINS_11PointNormalEE20getDistanceThresholdEv@Base 1.6
 (optional=templinst)_ZN3pcl18SegmentDifferencesINS_11PointNormalEE20setDistanceThresholdEd@Base 1.6
 (optional=templinst)_ZN3pcl18SegmentDifferencesINS_11PointNormalEE7segmentERNS_10PointCloudIS1_EE@Base 1.6
 (optional=templinst)_ZN3pcl18SegmentDifferencesINS_11PointNormalEEC1Ev@Base 1.6
 (optional=templinst)_ZN3pcl18SegmentDifferencesINS_11PointNormalEEC2Ev@Base 1.6
 (optional=templinst)_ZN3pcl18SegmentDifferencesINS_11PointNormalEED0Ev@Base 1.6
 (optional=templinst)_ZN3pcl18SegmentDifferencesINS_11PointNormalEED1Ev@Base 1.6
 (optional=templinst)_ZN3pcl18SegmentDifferencesINS_11PointNormalEED2Ev@Base 1.6
 (optional=templinst)_ZN3pcl18SegmentDifferencesINS_11PointXYZHSVEE14getTargetCloudEv@Base 1.6
 (optional=templinst)_ZN3pcl18SegmentDifferencesINS_11PointXYZHSVEE14setTargetCloudERKN5boost10shared_ptrIKNS_10PointCloudIS1_EEEE@Base 1.6
 (optional=templinst)_ZN3pcl18SegmentDifferencesINS_11PointXYZHSVEE15getSearchMethodEv@Base 1.6
 (optional=templinst)_ZN3pcl18SegmentDifferencesINS_11PointXYZHSVEE15setSearchMethodERKN5boost10shared_ptrINS_6search6SearchIS1_EEEE@Base 1.6
 (optional=templinst)_ZN3pcl18SegmentDifferencesINS_11PointXYZHSVEE20getDistanceThresholdEv@Base 1.6
 (optional=templinst)_ZN3pcl18SegmentDifferencesINS_11PointXYZHSVEE20setDistanceThresholdEd@Base 1.6
 (optional=templinst)_ZN3pcl18SegmentDifferencesINS_11PointXYZHSVEE7segmentERNS_10PointCloudIS1_EE@Base 1.6
 (optional=templinst)_ZN3pcl18SegmentDifferencesINS_11PointXYZHSVEEC1Ev@Base 1.6
 (optional=templinst)_ZN3pcl18SegmentDifferencesINS_11PointXYZHSVEEC2Ev@Base 1.6
 (optional=templinst)_ZN3pcl18SegmentDifferencesINS_11PointXYZHSVEED0Ev@Base 1.6
 (optional=templinst)_ZN3pcl18SegmentDifferencesINS_11PointXYZHSVEED1Ev@Base 1.6
 (optional=templinst)_ZN3pcl18SegmentDifferencesINS_11PointXYZHSVEED2Ev@Base 1.6
 (optional=templinst)_ZN3pcl18SegmentDifferencesINS_11PointXYZRGBEE14getTargetCloudEv@Base 1.6
 (optional=templinst)_ZN3pcl18SegmentDifferencesINS_11PointXYZRGBEE14setTargetCloudERKN5boost10shared_ptrIKNS_10PointCloudIS1_EEEE@Base 1.6
 (optional=templinst)_ZN3pcl18SegmentDifferencesINS_11PointXYZRGBEE15getSearchMethodEv@Base 1.6
 (optional=templinst)_ZN3pcl18SegmentDifferencesINS_11PointXYZRGBEE15setSearchMethodERKN5boost10shared_ptrINS_6search6SearchIS1_EEEE@Base 1.6
 (optional=templinst)_ZN3pcl18SegmentDifferencesINS_11PointXYZRGBEE20getDistanceThresholdEv@Base 1.6
 (optional=templinst)_ZN3pcl18SegmentDifferencesINS_11PointXYZRGBEE20setDistanceThresholdEd@Base 1.6
 (optional=templinst)_ZN3pcl18SegmentDifferencesINS_11PointXYZRGBEE7segmentERNS_10PointCloudIS1_EE@Base 1.6
 (optional=templinst)_ZN3pcl18SegmentDifferencesINS_11PointXYZRGBEEC1Ev@Base 1.6
 (optional=templinst)_ZN3pcl18SegmentDifferencesINS_11PointXYZRGBEEC2Ev@Base 1.6
 (optional=templinst)_ZN3pcl18SegmentDifferencesINS_11PointXYZRGBEED0Ev@Base 1.6
 (optional=templinst)_ZN3pcl18SegmentDifferencesINS_11PointXYZRGBEED1Ev@Base 1.6
 (optional=templinst)_ZN3pcl18SegmentDifferencesINS_11PointXYZRGBEED2Ev@Base 1.6
 (optional=templinst)_ZN3pcl18SegmentDifferencesINS_12PointXYZRGBAEE14getTargetCloudEv@Base 1.6
 (optional=templinst)_ZN3pcl18SegmentDifferencesINS_12PointXYZRGBAEE14setTargetCloudERKN5boost10shared_ptrIKNS_10PointCloudIS1_EEEE@Base 1.6
 (optional=templinst)_ZN3pcl18SegmentDifferencesINS_12PointXYZRGBAEE15getSearchMethodEv@Base 1.6
 (optional=templinst)_ZN3pcl18SegmentDifferencesINS_12PointXYZRGBAEE15setSearchMethodERKN5boost10shared_ptrINS_6search6SearchIS1_EEEE@Base 1.6
 (optional=templinst)_ZN3pcl18SegmentDifferencesINS_12PointXYZRGBAEE20getDistanceThresholdEv@Base 1.6
 (optional=templinst)_ZN3pcl18SegmentDifferencesINS_12PointXYZRGBAEE20setDistanceThresholdEd@Base 1.6
 (optional=templinst)_ZN3pcl18SegmentDifferencesINS_12PointXYZRGBAEE7segmentERNS_10PointCloudIS1_EE@Base 1.6
 (optional=templinst)_ZN3pcl18SegmentDifferencesINS_12PointXYZRGBAEEC1Ev@Base 1.6
 (optional=templinst)_ZN3pcl18SegmentDifferencesINS_12PointXYZRGBAEEC2Ev@Base 1.6
 (optional=templinst)_ZN3pcl18SegmentDifferencesINS_12PointXYZRGBAEED0Ev@Base 1.6
 (optional=templinst)_ZN3pcl18SegmentDifferencesINS_12PointXYZRGBAEED1Ev@Base 1.6
 (optional=templinst)_ZN3pcl18SegmentDifferencesINS_12PointXYZRGBAEED2Ev@Base 1.6
 (optional=templinst)_ZN3pcl18SegmentDifferencesINS_12PointXYZRGBLEE14getTargetCloudEv@Base 1.6
 (optional=templinst)_ZN3pcl18SegmentDifferencesINS_12PointXYZRGBLEE14setTargetCloudERKN5boost10shared_ptrIKNS_10PointCloudIS1_EEEE@Base 1.6
 (optional=templinst)_ZN3pcl18SegmentDifferencesINS_12PointXYZRGBLEE15getSearchMethodEv@Base 1.6
 (optional=templinst)_ZN3pcl18SegmentDifferencesINS_12PointXYZRGBLEE15setSearchMethodERKN5boost10shared_ptrINS_6search6SearchIS1_EEEE@Base 1.6
 (optional=templinst)_ZN3pcl18SegmentDifferencesINS_12PointXYZRGBLEE20getDistanceThresholdEv@Base 1.6
 (optional=templinst)_ZN3pcl18SegmentDifferencesINS_12PointXYZRGBLEE20setDistanceThresholdEd@Base 1.6
 (optional=templinst)_ZN3pcl18SegmentDifferencesINS_12PointXYZRGBLEE7segmentERNS_10PointCloudIS1_EE@Base 1.6
 (optional=templinst)_ZN3pcl18SegmentDifferencesINS_12PointXYZRGBLEEC1Ev@Base 1.6
 (optional=templinst)_ZN3pcl18SegmentDifferencesINS_12PointXYZRGBLEEC2Ev@Base 1.6
 (optional=templinst)_ZN3pcl18SegmentDifferencesINS_12PointXYZRGBLEED0Ev@Base 1.6
 (optional=templinst)_ZN3pcl18SegmentDifferencesINS_12PointXYZRGBLEED1Ev@Base 1.6
 (optional=templinst)_ZN3pcl18SegmentDifferencesINS_12PointXYZRGBLEED2Ev@Base 1.6
 (optional=templinst)_ZN3pcl18SegmentDifferencesINS_13InterestPointEE14getTargetCloudEv@Base 1.6
 (optional=templinst)_ZN3pcl18SegmentDifferencesINS_13InterestPointEE14setTargetCloudERKN5boost10shared_ptrIKNS_10PointCloudIS1_EEEE@Base 1.6
 (optional=templinst)_ZN3pcl18SegmentDifferencesINS_13InterestPointEE15getSearchMethodEv@Base 1.6
 (optional=templinst)_ZN3pcl18SegmentDifferencesINS_13InterestPointEE15setSearchMethodERKN5boost10shared_ptrINS_6search6SearchIS1_EEEE@Base 1.6
 (optional=templinst)_ZN3pcl18SegmentDifferencesINS_13InterestPointEE20getDistanceThresholdEv@Base 1.6
 (optional=templinst)_ZN3pcl18SegmentDifferencesINS_13InterestPointEE20setDistanceThresholdEd@Base 1.6
 (optional=templinst)_ZN3pcl18SegmentDifferencesINS_13InterestPointEE7segmentERNS_10PointCloudIS1_EE@Base 1.6
 (optional=templinst)_ZN3pcl18SegmentDifferencesINS_13InterestPointEEC1Ev@Base 1.6
 (optional=templinst)_ZN3pcl18SegmentDifferencesINS_13InterestPointEEC2Ev@Base 1.6
 (optional=templinst)_ZN3pcl18SegmentDifferencesINS_13InterestPointEED0Ev@Base 1.6
 (optional=templinst)_ZN3pcl18SegmentDifferencesINS_13InterestPointEED1Ev@Base 1.6
 (optional=templinst)_ZN3pcl18SegmentDifferencesINS_13InterestPointEED2Ev@Base 1.6
 (optional=templinst)_ZN3pcl18SegmentDifferencesINS_14PointWithRangeEE14getTargetCloudEv@Base 1.6
 (optional=templinst)_ZN3pcl18SegmentDifferencesINS_14PointWithRangeEE14setTargetCloudERKN5boost10shared_ptrIKNS_10PointCloudIS1_EEEE@Base 1.6
 (optional=templinst)_ZN3pcl18SegmentDifferencesINS_14PointWithRangeEE15getSearchMethodEv@Base 1.6
 (optional=templinst)_ZN3pcl18SegmentDifferencesINS_14PointWithRangeEE15setSearchMethodERKN5boost10shared_ptrINS_6search6SearchIS1_EEEE@Base 1.6
 (optional=templinst)_ZN3pcl18SegmentDifferencesINS_14PointWithRangeEE20getDistanceThresholdEv@Base 1.6
 (optional=templinst)_ZN3pcl18SegmentDifferencesINS_14PointWithRangeEE20setDistanceThresholdEd@Base 1.6
 (optional=templinst)_ZN3pcl18SegmentDifferencesINS_14PointWithRangeEE7segmentERNS_10PointCloudIS1_EE@Base 1.6
 (optional=templinst)_ZN3pcl18SegmentDifferencesINS_14PointWithRangeEEC1Ev@Base 1.6
 (optional=templinst)_ZN3pcl18SegmentDifferencesINS_14PointWithRangeEEC2Ev@Base 1.6
 (optional=templinst)_ZN3pcl18SegmentDifferencesINS_14PointWithRangeEED0Ev@Base 1.6
 (optional=templinst)_ZN3pcl18SegmentDifferencesINS_14PointWithRangeEED1Ev@Base 1.6
 (optional=templinst)_ZN3pcl18SegmentDifferencesINS_14PointWithRangeEED2Ev@Base 1.6
 (optional=templinst)_ZN3pcl18SegmentDifferencesINS_14PointWithScaleEE14getTargetCloudEv@Base 1.6
 (optional=templinst)_ZN3pcl18SegmentDifferencesINS_14PointWithScaleEE14setTargetCloudERKN5boost10shared_ptrIKNS_10PointCloudIS1_EEEE@Base 1.6
 (optional=templinst)_ZN3pcl18SegmentDifferencesINS_14PointWithScaleEE15getSearchMethodEv@Base 1.6
 (optional=templinst)_ZN3pcl18SegmentDifferencesINS_14PointWithScaleEE15setSearchMethodERKN5boost10shared_ptrINS_6search6SearchIS1_EEEE@Base 1.6
 (optional=templinst)_ZN3pcl18SegmentDifferencesINS_14PointWithScaleEE20getDistanceThresholdEv@Base 1.6
 (optional=templinst)_ZN3pcl18SegmentDifferencesINS_14PointWithScaleEE20setDistanceThresholdEd@Base 1.6
 (optional=templinst)_ZN3pcl18SegmentDifferencesINS_14PointWithScaleEE7segmentERNS_10PointCloudIS1_EE@Base 1.6
 (optional=templinst)_ZN3pcl18SegmentDifferencesINS_14PointWithScaleEEC1Ev@Base 1.6
 (optional=templinst)_ZN3pcl18SegmentDifferencesINS_14PointWithScaleEEC2Ev@Base 1.6
 (optional=templinst)_ZN3pcl18SegmentDifferencesINS_14PointWithScaleEED0Ev@Base 1.6
 (optional=templinst)_ZN3pcl18SegmentDifferencesINS_14PointWithScaleEED1Ev@Base 1.6
 (optional=templinst)_ZN3pcl18SegmentDifferencesINS_14PointWithScaleEED2Ev@Base 1.6
 (optional=templinst)_ZN3pcl18SegmentDifferencesINS_15PointXYZINormalEE14getTargetCloudEv@Base 1.6
 (optional=templinst)_ZN3pcl18SegmentDifferencesINS_15PointXYZINormalEE14setTargetCloudERKN5boost10shared_ptrIKNS_10PointCloudIS1_EEEE@Base 1.6
 (optional=templinst)_ZN3pcl18SegmentDifferencesINS_15PointXYZINormalEE15getSearchMethodEv@Base 1.6
 (optional=templinst)_ZN3pcl18SegmentDifferencesINS_15PointXYZINormalEE15setSearchMethodERKN5boost10shared_ptrINS_6search6SearchIS1_EEEE@Base 1.6
 (optional=templinst)_ZN3pcl18SegmentDifferencesINS_15PointXYZINormalEE20getDistanceThresholdEv@Base 1.6
 (optional=templinst)_ZN3pcl18SegmentDifferencesINS_15PointXYZINormalEE20setDistanceThresholdEd@Base 1.6
 (optional=templinst)_ZN3pcl18SegmentDifferencesINS_15PointXYZINormalEE7segmentERNS_10PointCloudIS1_EE@Base 1.6
 (optional=templinst)_ZN3pcl18SegmentDifferencesINS_15PointXYZINormalEEC1Ev@Base 1.6
 (optional=templinst)_ZN3pcl18SegmentDifferencesINS_15PointXYZINormalEEC2Ev@Base 1.6
 (optional=templinst)_ZN3pcl18SegmentDifferencesINS_15PointXYZINormalEED0Ev@Base 1.6
 (optional=templinst)_ZN3pcl18SegmentDifferencesINS_15PointXYZINormalEED1Ev@Base 1.6
 (optional=templinst)_ZN3pcl18SegmentDifferencesINS_15PointXYZINormalEED2Ev@Base 1.6
 (optional=templinst)_ZN3pcl18SegmentDifferencesINS_17PointXYZRGBNormalEE14getTargetCloudEv@Base 1.6
 (optional=templinst)_ZN3pcl18SegmentDifferencesINS_17PointXYZRGBNormalEE14setTargetCloudERKN5boost10shared_ptrIKNS_10PointCloudIS1_EEEE@Base 1.6
 (optional=templinst)_ZN3pcl18SegmentDifferencesINS_17PointXYZRGBNormalEE15getSearchMethodEv@Base 1.6
 (optional=templinst)_ZN3pcl18SegmentDifferencesINS_17PointXYZRGBNormalEE15setSearchMethodERKN5boost10shared_ptrINS_6search6SearchIS1_EEEE@Base 1.6
 (optional=templinst)_ZN3pcl18SegmentDifferencesINS_17PointXYZRGBNormalEE20getDistanceThresholdEv@Base 1.6
 (optional=templinst)_ZN3pcl18SegmentDifferencesINS_17PointXYZRGBNormalEE20setDistanceThresholdEd@Base 1.6
 (optional=templinst)_ZN3pcl18SegmentDifferencesINS_17PointXYZRGBNormalEE7segmentERNS_10PointCloudIS1_EE@Base 1.6
 (optional=templinst)_ZN3pcl18SegmentDifferencesINS_17PointXYZRGBNormalEEC1Ev@Base 1.6
 (optional=templinst)_ZN3pcl18SegmentDifferencesINS_17PointXYZRGBNormalEEC2Ev@Base 1.6
 (optional=templinst)_ZN3pcl18SegmentDifferencesINS_17PointXYZRGBNormalEED0Ev@Base 1.6
 (optional=templinst)_ZN3pcl18SegmentDifferencesINS_17PointXYZRGBNormalEED1Ev@Base 1.6
 (optional=templinst)_ZN3pcl18SegmentDifferencesINS_17PointXYZRGBNormalEED2Ev@Base 1.6
 (optional=templinst)_ZN3pcl18SegmentDifferencesINS_18PointWithViewpointEE14getTargetCloudEv@Base 1.6
 (optional=templinst)_ZN3pcl18SegmentDifferencesINS_18PointWithViewpointEE14setTargetCloudERKN5boost10shared_ptrIKNS_10PointCloudIS1_EEEE@Base 1.6
 (optional=templinst)_ZN3pcl18SegmentDifferencesINS_18PointWithViewpointEE15getSearchMethodEv@Base 1.6
 (optional=templinst)_ZN3pcl18SegmentDifferencesINS_18PointWithViewpointEE15setSearchMethodERKN5boost10shared_ptrINS_6search6SearchIS1_EEEE@Base 1.6
 (optional=templinst)_ZN3pcl18SegmentDifferencesINS_18PointWithViewpointEE20getDistanceThresholdEv@Base 1.6
 (optional=templinst)_ZN3pcl18SegmentDifferencesINS_18PointWithViewpointEE20setDistanceThresholdEd@Base 1.6
 (optional=templinst)_ZN3pcl18SegmentDifferencesINS_18PointWithViewpointEE7segmentERNS_10PointCloudIS1_EE@Base 1.6
 (optional=templinst)_ZN3pcl18SegmentDifferencesINS_18PointWithViewpointEEC1Ev@Base 1.6
 (optional=templinst)_ZN3pcl18SegmentDifferencesINS_18PointWithViewpointEEC2Ev@Base 1.6
 (optional=templinst)_ZN3pcl18SegmentDifferencesINS_18PointWithViewpointEED0Ev@Base 1.6
 (optional=templinst)_ZN3pcl18SegmentDifferencesINS_18PointWithViewpointEED1Ev@Base 1.6
 (optional=templinst)_ZN3pcl18SegmentDifferencesINS_18PointWithViewpointEED2Ev@Base 1.6
 (optional=templinst)_ZN3pcl18SegmentDifferencesINS_8PointXYZEE14getTargetCloudEv@Base 1.6
 (optional=templinst)_ZN3pcl18SegmentDifferencesINS_8PointXYZEE14setTargetCloudERKN5boost10shared_ptrIKNS_10PointCloudIS1_EEEE@Base 1.6
 (optional=templinst)_ZN3pcl18SegmentDifferencesINS_8PointXYZEE15getSearchMethodEv@Base 1.6
 (optional=templinst)_ZN3pcl18SegmentDifferencesINS_8PointXYZEE15setSearchMethodERKN5boost10shared_ptrINS_6search6SearchIS1_EEEE@Base 1.6
 (optional=templinst)_ZN3pcl18SegmentDifferencesINS_8PointXYZEE20getDistanceThresholdEv@Base 1.6
 (optional=templinst)_ZN3pcl18SegmentDifferencesINS_8PointXYZEE20setDistanceThresholdEd@Base 1.6
 (optional=templinst)_ZN3pcl18SegmentDifferencesINS_8PointXYZEE7segmentERNS_10PointCloudIS1_EE@Base 1.6
 (optional=templinst)_ZN3pcl18SegmentDifferencesINS_8PointXYZEEC1Ev@Base 1.6
 (optional=templinst)_ZN3pcl18SegmentDifferencesINS_8PointXYZEEC2Ev@Base 1.6
 (optional=templinst)_ZN3pcl18SegmentDifferencesINS_8PointXYZEED0Ev@Base 1.6
 (optional=templinst)_ZN3pcl18SegmentDifferencesINS_8PointXYZEED1Ev@Base 1.6
 (optional=templinst)_ZN3pcl18SegmentDifferencesINS_8PointXYZEED2Ev@Base 1.6
 (optional=templinst)_ZN3pcl18SegmentDifferencesINS_9PointXYZIEE14getTargetCloudEv@Base 1.6
 (optional=templinst)_ZN3pcl18SegmentDifferencesINS_9PointXYZIEE14setTargetCloudERKN5boost10shared_ptrIKNS_10PointCloudIS1_EEEE@Base 1.6
 (optional=templinst)_ZN3pcl18SegmentDifferencesINS_9PointXYZIEE15getSearchMethodEv@Base 1.6
 (optional=templinst)_ZN3pcl18SegmentDifferencesINS_9PointXYZIEE15setSearchMethodERKN5boost10shared_ptrINS_6search6SearchIS1_EEEE@Base 1.6
 (optional=templinst)_ZN3pcl18SegmentDifferencesINS_9PointXYZIEE20getDistanceThresholdEv@Base 1.6
 (optional=templinst)_ZN3pcl18SegmentDifferencesINS_9PointXYZIEE20setDistanceThresholdEd@Base 1.6
 (optional=templinst)_ZN3pcl18SegmentDifferencesINS_9PointXYZIEE7segmentERNS_10PointCloudIS1_EE@Base 1.6
 (optional=templinst)_ZN3pcl18SegmentDifferencesINS_9PointXYZIEEC1Ev@Base 1.6
 (optional=templinst)_ZN3pcl18SegmentDifferencesINS_9PointXYZIEEC2Ev@Base 1.6
 (optional=templinst)_ZN3pcl18SegmentDifferencesINS_9PointXYZIEED0Ev@Base 1.6
 (optional=templinst)_ZN3pcl18SegmentDifferencesINS_9PointXYZIEED1Ev@Base 1.6
 (optional=templinst)_ZN3pcl18SegmentDifferencesINS_9PointXYZIEED2Ev@Base 1.6
 (optional=templinst)_ZN3pcl18SegmentDifferencesINS_9PointXYZLEE14getTargetCloudEv@Base 1.6
 (optional=templinst)_ZN3pcl18SegmentDifferencesINS_9PointXYZLEE14setTargetCloudERKN5boost10shared_ptrIKNS_10PointCloudIS1_EEEE@Base 1.6
 (optional=templinst)_ZN3pcl18SegmentDifferencesINS_9PointXYZLEE15getSearchMethodEv@Base 1.6
 (optional=templinst)_ZN3pcl18SegmentDifferencesINS_9PointXYZLEE15setSearchMethodERKN5boost10shared_ptrINS_6search6SearchIS1_EEEE@Base 1.6
 (optional=templinst)_ZN3pcl18SegmentDifferencesINS_9PointXYZLEE20getDistanceThresholdEv@Base 1.6
 (optional=templinst)_ZN3pcl18SegmentDifferencesINS_9PointXYZLEE20setDistanceThresholdEd@Base 1.6
 (optional=templinst)_ZN3pcl18SegmentDifferencesINS_9PointXYZLEE7segmentERNS_10PointCloudIS1_EE@Base 1.6
 (optional=templinst)_ZN3pcl18SegmentDifferencesINS_9PointXYZLEEC1Ev@Base 1.6
 (optional=templinst)_ZN3pcl18SegmentDifferencesINS_9PointXYZLEEC2Ev@Base 1.6
 (optional=templinst)_ZN3pcl18SegmentDifferencesINS_9PointXYZLEED0Ev@Base 1.6
 (optional=templinst)_ZN3pcl18SegmentDifferencesINS_9PointXYZLEED1Ev@Base 1.6
 (optional=templinst)_ZN3pcl18SegmentDifferencesINS_9PointXYZLEED2Ev@Base 1.6
 (optional=templinst)_ZN3pcl18isPointIn2DPolygonINS_11PointNormalEEEbRKT_RKNS_10PointCloudIS2_EE@Base 1.6
 (optional=templinst)_ZN3pcl18isPointIn2DPolygonINS_11PointXYZHSVEEEbRKT_RKNS_10PointCloudIS2_EE@Base 1.6
 (optional=templinst)_ZN3pcl18isPointIn2DPolygonINS_11PointXYZRGBEEEbRKT_RKNS_10PointCloudIS2_EE@Base 1.6
 (optional=templinst)_ZN3pcl18isPointIn2DPolygonINS_12PointXYZRGBAEEEbRKT_RKNS_10PointCloudIS2_EE@Base 1.6
 (optional=templinst)_ZN3pcl18isPointIn2DPolygonINS_12PointXYZRGBLEEEbRKT_RKNS_10PointCloudIS2_EE@Base 1.6
 (optional=templinst)_ZN3pcl18isPointIn2DPolygonINS_13InterestPointEEEbRKT_RKNS_10PointCloudIS2_EE@Base 1.6
 (optional=templinst)_ZN3pcl18isPointIn2DPolygonINS_14PointWithRangeEEEbRKT_RKNS_10PointCloudIS2_EE@Base 1.6
 (optional=templinst)_ZN3pcl18isPointIn2DPolygonINS_14PointWithScaleEEEbRKT_RKNS_10PointCloudIS2_EE@Base 1.6
 (optional=templinst)_ZN3pcl18isPointIn2DPolygonINS_15PointXYZINormalEEEbRKT_RKNS_10PointCloudIS2_EE@Base 1.6
 (optional=templinst)_ZN3pcl18isPointIn2DPolygonINS_17PointXYZRGBNormalEEEbRKT_RKNS_10PointCloudIS2_EE@Base 1.6
 (optional=templinst)_ZN3pcl18isPointIn2DPolygonINS_18PointWithViewpointEEEbRKT_RKNS_10PointCloudIS2_EE@Base 1.6
 (optional=templinst)_ZN3pcl18isPointIn2DPolygonINS_8PointXYZEEEbRKT_RKNS_10PointCloudIS2_EE@Base 1.6
 (optional=templinst)_ZN3pcl18isPointIn2DPolygonINS_9PointXYZIEEEbRKT_RKNS_10PointCloudIS2_EE@Base 1.6
 (optional=templinst)_ZN3pcl18isPointIn2DPolygonINS_9PointXYZLEEEbRKT_RKNS_10PointCloudIS2_EE@Base 1.6
 (optional=templinst)_ZN3pcl19PlanarPolygonFusionINS_11PointNormalEE16addInputPolygonsERKSt6vectorINS_12PlanarRegionIS1_EEN5Eigen17aligned_allocatorIS5_EEE@Base 1.6
 (optional=templinst)_ZN3pcl19PlanarPolygonFusionINS_11PointNormalEE5resetEv@Base 1.6
 (optional=templinst)_ZN3pcl19PlanarPolygonFusionINS_11PointNormalEEC1Ev@Base 1.6
 (optional=templinst)_ZN3pcl19PlanarPolygonFusionINS_11PointNormalEEC2Ev@Base 1.6
 (optional=templinst)_ZN3pcl19PlanarPolygonFusionINS_11PointNormalEED0Ev@Base 1.6
 (optional=templinst)_ZN3pcl19PlanarPolygonFusionINS_11PointNormalEED1Ev@Base 1.6
 (optional=templinst)_ZN3pcl19PlanarPolygonFusionINS_11PointNormalEED2Ev@Base 1.6
 (optional=templinst)_ZN3pcl19PlanarPolygonFusionINS_11PointXYZHSVEE16addInputPolygonsERKSt6vectorINS_12PlanarRegionIS1_EEN5Eigen17aligned_allocatorIS5_EEE@Base 1.6
 (optional=templinst)_ZN3pcl19PlanarPolygonFusionINS_11PointXYZHSVEE5resetEv@Base 1.6
 (optional=templinst)_ZN3pcl19PlanarPolygonFusionINS_11PointXYZHSVEEC1Ev@Base 1.6
 (optional=templinst)_ZN3pcl19PlanarPolygonFusionINS_11PointXYZHSVEEC2Ev@Base 1.6
 (optional=templinst)_ZN3pcl19PlanarPolygonFusionINS_11PointXYZHSVEED0Ev@Base 1.6
 (optional=templinst)_ZN3pcl19PlanarPolygonFusionINS_11PointXYZHSVEED1Ev@Base 1.6
 (optional=templinst)_ZN3pcl19PlanarPolygonFusionINS_11PointXYZHSVEED2Ev@Base 1.6
 (optional=templinst)_ZN3pcl19PlanarPolygonFusionINS_11PointXYZRGBEE16addInputPolygonsERKSt6vectorINS_12PlanarRegionIS1_EEN5Eigen17aligned_allocatorIS5_EEE@Base 1.6
 (optional=templinst)_ZN3pcl19PlanarPolygonFusionINS_11PointXYZRGBEE5resetEv@Base 1.6
 (optional=templinst)_ZN3pcl19PlanarPolygonFusionINS_11PointXYZRGBEEC1Ev@Base 1.6
 (optional=templinst)_ZN3pcl19PlanarPolygonFusionINS_11PointXYZRGBEEC2Ev@Base 1.6
 (optional=templinst)_ZN3pcl19PlanarPolygonFusionINS_11PointXYZRGBEED0Ev@Base 1.6
 (optional=templinst)_ZN3pcl19PlanarPolygonFusionINS_11PointXYZRGBEED1Ev@Base 1.6
 (optional=templinst)_ZN3pcl19PlanarPolygonFusionINS_11PointXYZRGBEED2Ev@Base 1.6
 (optional=templinst)_ZN3pcl19PlanarPolygonFusionINS_12PointXYZRGBAEE16addInputPolygonsERKSt6vectorINS_12PlanarRegionIS1_EEN5Eigen17aligned_allocatorIS5_EEE@Base 1.6
 (optional=templinst)_ZN3pcl19PlanarPolygonFusionINS_12PointXYZRGBAEE5resetEv@Base 1.6
 (optional=templinst)_ZN3pcl19PlanarPolygonFusionINS_12PointXYZRGBAEEC1Ev@Base 1.6
 (optional=templinst)_ZN3pcl19PlanarPolygonFusionINS_12PointXYZRGBAEEC2Ev@Base 1.6
 (optional=templinst)_ZN3pcl19PlanarPolygonFusionINS_12PointXYZRGBAEED0Ev@Base 1.6
 (optional=templinst)_ZN3pcl19PlanarPolygonFusionINS_12PointXYZRGBAEED1Ev@Base 1.6
 (optional=templinst)_ZN3pcl19PlanarPolygonFusionINS_12PointXYZRGBAEED2Ev@Base 1.6
 (optional=templinst)_ZN3pcl19PlanarPolygonFusionINS_12PointXYZRGBLEE16addInputPolygonsERKSt6vectorINS_12PlanarRegionIS1_EEN5Eigen17aligned_allocatorIS5_EEE@Base 1.6
 (optional=templinst)_ZN3pcl19PlanarPolygonFusionINS_12PointXYZRGBLEE5resetEv@Base 1.6
 (optional=templinst)_ZN3pcl19PlanarPolygonFusionINS_12PointXYZRGBLEEC1Ev@Base 1.6
 (optional=templinst)_ZN3pcl19PlanarPolygonFusionINS_12PointXYZRGBLEEC2Ev@Base 1.6
 (optional=templinst)_ZN3pcl19PlanarPolygonFusionINS_12PointXYZRGBLEED0Ev@Base 1.6
 (optional=templinst)_ZN3pcl19PlanarPolygonFusionINS_12PointXYZRGBLEED1Ev@Base 1.6
 (optional=templinst)_ZN3pcl19PlanarPolygonFusionINS_12PointXYZRGBLEED2Ev@Base 1.6
 (optional=templinst)_ZN3pcl19PlanarPolygonFusionINS_13InterestPointEE16addInputPolygonsERKSt6vectorINS_12PlanarRegionIS1_EEN5Eigen17aligned_allocatorIS5_EEE@Base 1.6
 (optional=templinst)_ZN3pcl19PlanarPolygonFusionINS_13InterestPointEE5resetEv@Base 1.6
 (optional=templinst)_ZN3pcl19PlanarPolygonFusionINS_13InterestPointEEC1Ev@Base 1.6
 (optional=templinst)_ZN3pcl19PlanarPolygonFusionINS_13InterestPointEEC2Ev@Base 1.6
 (optional=templinst)_ZN3pcl19PlanarPolygonFusionINS_13InterestPointEED0Ev@Base 1.6
 (optional=templinst)_ZN3pcl19PlanarPolygonFusionINS_13InterestPointEED1Ev@Base 1.6
 (optional=templinst)_ZN3pcl19PlanarPolygonFusionINS_13InterestPointEED2Ev@Base 1.6
 (optional=templinst)_ZN3pcl19PlanarPolygonFusionINS_14PointWithRangeEE16addInputPolygonsERKSt6vectorINS_12PlanarRegionIS1_EEN5Eigen17aligned_allocatorIS5_EEE@Base 1.6
 (optional=templinst)_ZN3pcl19PlanarPolygonFusionINS_14PointWithRangeEE5resetEv@Base 1.6
 (optional=templinst)_ZN3pcl19PlanarPolygonFusionINS_14PointWithRangeEEC1Ev@Base 1.6
 (optional=templinst)_ZN3pcl19PlanarPolygonFusionINS_14PointWithRangeEEC2Ev@Base 1.6
 (optional=templinst)_ZN3pcl19PlanarPolygonFusionINS_14PointWithRangeEED0Ev@Base 1.6
 (optional=templinst)_ZN3pcl19PlanarPolygonFusionINS_14PointWithRangeEED1Ev@Base 1.6
 (optional=templinst)_ZN3pcl19PlanarPolygonFusionINS_14PointWithRangeEED2Ev@Base 1.6
 (optional=templinst)_ZN3pcl19PlanarPolygonFusionINS_14PointWithScaleEE16addInputPolygonsERKSt6vectorINS_12PlanarRegionIS1_EEN5Eigen17aligned_allocatorIS5_EEE@Base 1.6
 (optional=templinst)_ZN3pcl19PlanarPolygonFusionINS_14PointWithScaleEE5resetEv@Base 1.6
 (optional=templinst)_ZN3pcl19PlanarPolygonFusionINS_14PointWithScaleEEC1Ev@Base 1.6
 (optional=templinst)_ZN3pcl19PlanarPolygonFusionINS_14PointWithScaleEEC2Ev@Base 1.6
 (optional=templinst)_ZN3pcl19PlanarPolygonFusionINS_14PointWithScaleEED0Ev@Base 1.6
 (optional=templinst)_ZN3pcl19PlanarPolygonFusionINS_14PointWithScaleEED1Ev@Base 1.6
 (optional=templinst)_ZN3pcl19PlanarPolygonFusionINS_14PointWithScaleEED2Ev@Base 1.6
 (optional=templinst)_ZN3pcl19PlanarPolygonFusionINS_15PointXYZINormalEE16addInputPolygonsERKSt6vectorINS_12PlanarRegionIS1_EEN5Eigen17aligned_allocatorIS5_EEE@Base 1.6
 (optional=templinst)_ZN3pcl19PlanarPolygonFusionINS_15PointXYZINormalEE5resetEv@Base 1.6
 (optional=templinst)_ZN3pcl19PlanarPolygonFusionINS_15PointXYZINormalEEC1Ev@Base 1.6
 (optional=templinst)_ZN3pcl19PlanarPolygonFusionINS_15PointXYZINormalEEC2Ev@Base 1.6
 (optional=templinst)_ZN3pcl19PlanarPolygonFusionINS_15PointXYZINormalEED0Ev@Base 1.6
 (optional=templinst)_ZN3pcl19PlanarPolygonFusionINS_15PointXYZINormalEED1Ev@Base 1.6
 (optional=templinst)_ZN3pcl19PlanarPolygonFusionINS_15PointXYZINormalEED2Ev@Base 1.6
 (optional=templinst)_ZN3pcl19PlanarPolygonFusionINS_17PointXYZRGBNormalEE16addInputPolygonsERKSt6vectorINS_12PlanarRegionIS1_EEN5Eigen17aligned_allocatorIS5_EEE@Base 1.6
 (optional=templinst)_ZN3pcl19PlanarPolygonFusionINS_17PointXYZRGBNormalEE5resetEv@Base 1.6
 (optional=templinst)_ZN3pcl19PlanarPolygonFusionINS_17PointXYZRGBNormalEEC1Ev@Base 1.6
 (optional=templinst)_ZN3pcl19PlanarPolygonFusionINS_17PointXYZRGBNormalEEC2Ev@Base 1.6
 (optional=templinst)_ZN3pcl19PlanarPolygonFusionINS_17PointXYZRGBNormalEED0Ev@Base 1.6
 (optional=templinst)_ZN3pcl19PlanarPolygonFusionINS_17PointXYZRGBNormalEED1Ev@Base 1.6
 (optional=templinst)_ZN3pcl19PlanarPolygonFusionINS_17PointXYZRGBNormalEED2Ev@Base 1.6
 (optional=templinst)_ZN3pcl19PlanarPolygonFusionINS_18PointWithViewpointEE16addInputPolygonsERKSt6vectorINS_12PlanarRegionIS1_EEN5Eigen17aligned_allocatorIS5_EEE@Base 1.6
 (optional=templinst)_ZN3pcl19PlanarPolygonFusionINS_18PointWithViewpointEE5resetEv@Base 1.6
 (optional=templinst)_ZN3pcl19PlanarPolygonFusionINS_18PointWithViewpointEEC1Ev@Base 1.6
 (optional=templinst)_ZN3pcl19PlanarPolygonFusionINS_18PointWithViewpointEEC2Ev@Base 1.6
 (optional=templinst)_ZN3pcl19PlanarPolygonFusionINS_18PointWithViewpointEED0Ev@Base 1.6
 (optional=templinst)_ZN3pcl19PlanarPolygonFusionINS_18PointWithViewpointEED1Ev@Base 1.6
 (optional=templinst)_ZN3pcl19PlanarPolygonFusionINS_18PointWithViewpointEED2Ev@Base 1.6
 (optional=templinst)_ZN3pcl19PlanarPolygonFusionINS_8PointXYZEE16addInputPolygonsERKSt6vectorINS_12PlanarRegionIS1_EEN5Eigen17aligned_allocatorIS5_EEE@Base 1.6
 (optional=templinst)_ZN3pcl19PlanarPolygonFusionINS_8PointXYZEE5resetEv@Base 1.6
 (optional=templinst)_ZN3pcl19PlanarPolygonFusionINS_8PointXYZEEC1Ev@Base 1.6
 (optional=templinst)_ZN3pcl19PlanarPolygonFusionINS_8PointXYZEEC2Ev@Base 1.6
 (optional=templinst)_ZN3pcl19PlanarPolygonFusionINS_8PointXYZEED0Ev@Base 1.6
 (optional=templinst)_ZN3pcl19PlanarPolygonFusionINS_8PointXYZEED1Ev@Base 1.6
 (optional=templinst)_ZN3pcl19PlanarPolygonFusionINS_8PointXYZEED2Ev@Base 1.6
 (optional=templinst)_ZN3pcl19PlanarPolygonFusionINS_9PointXYZIEE16addInputPolygonsERKSt6vectorINS_12PlanarRegionIS1_EEN5Eigen17aligned_allocatorIS5_EEE@Base 1.6
 (optional=templinst)_ZN3pcl19PlanarPolygonFusionINS_9PointXYZIEE5resetEv@Base 1.6
 (optional=templinst)_ZN3pcl19PlanarPolygonFusionINS_9PointXYZIEEC1Ev@Base 1.6
 (optional=templinst)_ZN3pcl19PlanarPolygonFusionINS_9PointXYZIEEC2Ev@Base 1.6
 (optional=templinst)_ZN3pcl19PlanarPolygonFusionINS_9PointXYZIEED0Ev@Base 1.6
 (optional=templinst)_ZN3pcl19PlanarPolygonFusionINS_9PointXYZIEED1Ev@Base 1.6
 (optional=templinst)_ZN3pcl19PlanarPolygonFusionINS_9PointXYZIEED2Ev@Base 1.6
 (optional=templinst)_ZN3pcl19PlanarPolygonFusionINS_9PointXYZLEE16addInputPolygonsERKSt6vectorINS_12PlanarRegionIS1_EEN5Eigen17aligned_allocatorIS5_EEE@Base 1.6
 (optional=templinst)_ZN3pcl19PlanarPolygonFusionINS_9PointXYZLEE5resetEv@Base 1.6
 (optional=templinst)_ZN3pcl19PlanarPolygonFusionINS_9PointXYZLEEC1Ev@Base 1.6
 (optional=templinst)_ZN3pcl19PlanarPolygonFusionINS_9PointXYZLEEC2Ev@Base 1.6
 (optional=templinst)_ZN3pcl19PlanarPolygonFusionINS_9PointXYZLEED0Ev@Base 1.6
 (optional=templinst)_ZN3pcl19PlanarPolygonFusionINS_9PointXYZLEED1Ev@Base 1.6
 (optional=templinst)_ZN3pcl19PlanarPolygonFusionINS_9PointXYZLEED2Ev@Base 1.6
 (optional=templinst)_ZN3pcl19PointRepresentationINS_11PointNormalEED0Ev@Base 1.6
 (optional=templinst)_ZN3pcl19PointRepresentationINS_11PointNormalEED1Ev@Base 1.6
 (optional=templinst)_ZN3pcl19PointRepresentationINS_11PointNormalEED2Ev@Base 1.6
 (optional=templinst)_ZN3pcl19PointRepresentationINS_11PointXYZHSVEED0Ev@Base 1.6
 (optional=templinst)_ZN3pcl19PointRepresentationINS_11PointXYZHSVEED1Ev@Base 1.6
 (optional=templinst)_ZN3pcl19PointRepresentationINS_11PointXYZHSVEED2Ev@Base 1.6
 (optional=templinst)_ZN3pcl19PointRepresentationINS_11PointXYZRGBEED0Ev@Base 1.6
 (optional=templinst)_ZN3pcl19PointRepresentationINS_11PointXYZRGBEED1Ev@Base 1.6
 (optional=templinst)_ZN3pcl19PointRepresentationINS_11PointXYZRGBEED2Ev@Base 1.6
 (optional=templinst)_ZN3pcl19PointRepresentationINS_12PointXYZRGBAEED0Ev@Base 1.6
 (optional=templinst)_ZN3pcl19PointRepresentationINS_12PointXYZRGBAEED1Ev@Base 1.6
 (optional=templinst)_ZN3pcl19PointRepresentationINS_12PointXYZRGBAEED2Ev@Base 1.6
 (optional=templinst)_ZN3pcl19PointRepresentationINS_12PointXYZRGBLEED0Ev@Base 1.6
 (optional=templinst)_ZN3pcl19PointRepresentationINS_12PointXYZRGBLEED1Ev@Base 1.6
 (optional=templinst)_ZN3pcl19PointRepresentationINS_12PointXYZRGBLEED2Ev@Base 1.6
 (optional=templinst)_ZN3pcl19PointRepresentationINS_13InterestPointEED0Ev@Base 1.6
 (optional=templinst)_ZN3pcl19PointRepresentationINS_13InterestPointEED1Ev@Base 1.6
 (optional=templinst)_ZN3pcl19PointRepresentationINS_13InterestPointEED2Ev@Base 1.6
 (optional=templinst)_ZN3pcl19PointRepresentationINS_14PointWithRangeEED0Ev@Base 1.6
 (optional=templinst)_ZN3pcl19PointRepresentationINS_14PointWithRangeEED1Ev@Base 1.6
 (optional=templinst)_ZN3pcl19PointRepresentationINS_14PointWithRangeEED2Ev@Base 1.6
 (optional=templinst)_ZN3pcl19PointRepresentationINS_14PointWithScaleEED0Ev@Base 1.6
 (optional=templinst)_ZN3pcl19PointRepresentationINS_14PointWithScaleEED1Ev@Base 1.6
 (optional=templinst)_ZN3pcl19PointRepresentationINS_14PointWithScaleEED2Ev@Base 1.6
 (optional=templinst)_ZN3pcl19PointRepresentationINS_15PointXYZINormalEED0Ev@Base 1.6
 (optional=templinst)_ZN3pcl19PointRepresentationINS_15PointXYZINormalEED1Ev@Base 1.6
 (optional=templinst)_ZN3pcl19PointRepresentationINS_15PointXYZINormalEED2Ev@Base 1.6
 (optional=templinst)_ZN3pcl19PointRepresentationINS_17PointXYZRGBNormalEED0Ev@Base 1.6
 (optional=templinst)_ZN3pcl19PointRepresentationINS_17PointXYZRGBNormalEED1Ev@Base 1.6
 (optional=templinst)_ZN3pcl19PointRepresentationINS_17PointXYZRGBNormalEED2Ev@Base 1.6
 (optional=templinst)_ZN3pcl19PointRepresentationINS_18PointWithViewpointEED0Ev@Base 1.6
 (optional=templinst)_ZN3pcl19PointRepresentationINS_18PointWithViewpointEED1Ev@Base 1.6
 (optional=templinst)_ZN3pcl19PointRepresentationINS_18PointWithViewpointEED2Ev@Base 1.6
 (optional=templinst)_ZN3pcl19PointRepresentationINS_8PointXYZEED0Ev@Base 1.6
 (optional=templinst)_ZN3pcl19PointRepresentationINS_8PointXYZEED1Ev@Base 1.6
 (optional=templinst)_ZN3pcl19PointRepresentationINS_8PointXYZEED2Ev@Base 1.6
 (optional=templinst)_ZN3pcl19PointRepresentationINS_9PointXYZIEED0Ev@Base 1.6
 (optional=templinst)_ZN3pcl19PointRepresentationINS_9PointXYZIEED1Ev@Base 1.6
 (optional=templinst)_ZN3pcl19PointRepresentationINS_9PointXYZIEED2Ev@Base 1.6
 (optional=templinst)_ZN3pcl19PointRepresentationINS_9PointXYZLEED0Ev@Base 1.6
 (optional=templinst)_ZN3pcl19PointRepresentationINS_9PointXYZLEED1Ev@Base 1.6
 (optional=templinst)_ZN3pcl19PointRepresentationINS_9PointXYZLEED2Ev@Base 1.6
 (optional=templinst)_ZN3pcl20SampleConsensusModelINS_11PointNormalEE13setInputCloudERKN5boost10shared_ptrIKNS_10PointCloudIS1_EEEE@Base 1.6
 (optional=templinst)_ZN3pcl20SampleConsensusModelINS_11PointNormalEEC1ERKN5boost10shared_ptrIKNS_10PointCloudIS1_EEEERKSt6vectorIiSaIiEEb@Base 1.6
 (optional=templinst)_ZN3pcl20SampleConsensusModelINS_11PointNormalEEC1ERKN5boost10shared_ptrIKNS_10PointCloudIS1_EEEEb@Base 1.6
 (optional=templinst)_ZN3pcl20SampleConsensusModelINS_11PointNormalEEC2ERKN5boost10shared_ptrIKNS_10PointCloudIS1_EEEERKSt6vectorIiSaIiEEb@Base 1.6
 (optional=templinst)_ZN3pcl20SampleConsensusModelINS_11PointNormalEEC2ERKN5boost10shared_ptrIKNS_10PointCloudIS1_EEEEb@Base 1.6
 (optional=templinst)_ZN3pcl20SampleConsensusModelINS_11PointNormalEED0Ev@Base 1.6
 (optional=templinst)_ZN3pcl20SampleConsensusModelINS_11PointNormalEED1Ev@Base 1.6
 (optional=templinst)_ZN3pcl20SampleConsensusModelINS_11PointNormalEED2Ev@Base 1.6
 (optional=templinst)_ZN3pcl20SampleConsensusModelINS_11PointXYZHSVEE13setInputCloudERKN5boost10shared_ptrIKNS_10PointCloudIS1_EEEE@Base 1.6
 (optional=templinst)_ZN3pcl20SampleConsensusModelINS_11PointXYZHSVEEC1ERKN5boost10shared_ptrIKNS_10PointCloudIS1_EEEERKSt6vectorIiSaIiEEb@Base 1.6
 (optional=templinst)_ZN3pcl20SampleConsensusModelINS_11PointXYZHSVEEC1ERKN5boost10shared_ptrIKNS_10PointCloudIS1_EEEEb@Base 1.6
 (optional=templinst)_ZN3pcl20SampleConsensusModelINS_11PointXYZHSVEEC2ERKN5boost10shared_ptrIKNS_10PointCloudIS1_EEEERKSt6vectorIiSaIiEEb@Base 1.6
 (optional=templinst)_ZN3pcl20SampleConsensusModelINS_11PointXYZHSVEEC2ERKN5boost10shared_ptrIKNS_10PointCloudIS1_EEEEb@Base 1.6
 (optional=templinst)_ZN3pcl20SampleConsensusModelINS_11PointXYZHSVEED0Ev@Base 1.6
 (optional=templinst)_ZN3pcl20SampleConsensusModelINS_11PointXYZHSVEED1Ev@Base 1.6
 (optional=templinst)_ZN3pcl20SampleConsensusModelINS_11PointXYZHSVEED2Ev@Base 1.6
 (optional=templinst)_ZN3pcl20SampleConsensusModelINS_11PointXYZRGBEE13setInputCloudERKN5boost10shared_ptrIKNS_10PointCloudIS1_EEEE@Base 1.6
 (optional=templinst)_ZN3pcl20SampleConsensusModelINS_11PointXYZRGBEEC1ERKN5boost10shared_ptrIKNS_10PointCloudIS1_EEEERKSt6vectorIiSaIiEEb@Base 1.6
 (optional=templinst)_ZN3pcl20SampleConsensusModelINS_11PointXYZRGBEEC1ERKN5boost10shared_ptrIKNS_10PointCloudIS1_EEEEb@Base 1.6
 (optional=templinst)_ZN3pcl20SampleConsensusModelINS_11PointXYZRGBEEC2ERKN5boost10shared_ptrIKNS_10PointCloudIS1_EEEERKSt6vectorIiSaIiEEb@Base 1.6
 (optional=templinst)_ZN3pcl20SampleConsensusModelINS_11PointXYZRGBEEC2ERKN5boost10shared_ptrIKNS_10PointCloudIS1_EEEEb@Base 1.6
 (optional=templinst)_ZN3pcl20SampleConsensusModelINS_11PointXYZRGBEED0Ev@Base 1.6
 (optional=templinst)_ZN3pcl20SampleConsensusModelINS_11PointXYZRGBEED1Ev@Base 1.6
 (optional=templinst)_ZN3pcl20SampleConsensusModelINS_11PointXYZRGBEED2Ev@Base 1.6
 (optional=templinst)_ZN3pcl20SampleConsensusModelINS_12PointXYZRGBAEE13setInputCloudERKN5boost10shared_ptrIKNS_10PointCloudIS1_EEEE@Base 1.6
 (optional=templinst)_ZN3pcl20SampleConsensusModelINS_12PointXYZRGBAEEC1ERKN5boost10shared_ptrIKNS_10PointCloudIS1_EEEERKSt6vectorIiSaIiEEb@Base 1.6
 (optional=templinst)_ZN3pcl20SampleConsensusModelINS_12PointXYZRGBAEEC1ERKN5boost10shared_ptrIKNS_10PointCloudIS1_EEEEb@Base 1.6
 (optional=templinst)_ZN3pcl20SampleConsensusModelINS_12PointXYZRGBAEEC2ERKN5boost10shared_ptrIKNS_10PointCloudIS1_EEEERKSt6vectorIiSaIiEEb@Base 1.6
 (optional=templinst)_ZN3pcl20SampleConsensusModelINS_12PointXYZRGBAEEC2ERKN5boost10shared_ptrIKNS_10PointCloudIS1_EEEEb@Base 1.6
 (optional=templinst)_ZN3pcl20SampleConsensusModelINS_12PointXYZRGBAEED0Ev@Base 1.6
 (optional=templinst)_ZN3pcl20SampleConsensusModelINS_12PointXYZRGBAEED1Ev@Base 1.6
 (optional=templinst)_ZN3pcl20SampleConsensusModelINS_12PointXYZRGBAEED2Ev@Base 1.6
 (optional=templinst)_ZN3pcl20SampleConsensusModelINS_12PointXYZRGBLEE13setInputCloudERKN5boost10shared_ptrIKNS_10PointCloudIS1_EEEE@Base 1.6
 (optional=templinst)_ZN3pcl20SampleConsensusModelINS_12PointXYZRGBLEEC1ERKN5boost10shared_ptrIKNS_10PointCloudIS1_EEEERKSt6vectorIiSaIiEEb@Base 1.6
 (optional=templinst)_ZN3pcl20SampleConsensusModelINS_12PointXYZRGBLEEC1ERKN5boost10shared_ptrIKNS_10PointCloudIS1_EEEEb@Base 1.6
 (optional=templinst)_ZN3pcl20SampleConsensusModelINS_12PointXYZRGBLEEC2ERKN5boost10shared_ptrIKNS_10PointCloudIS1_EEEERKSt6vectorIiSaIiEEb@Base 1.6
 (optional=templinst)_ZN3pcl20SampleConsensusModelINS_12PointXYZRGBLEEC2ERKN5boost10shared_ptrIKNS_10PointCloudIS1_EEEEb@Base 1.6
 (optional=templinst)_ZN3pcl20SampleConsensusModelINS_12PointXYZRGBLEED0Ev@Base 1.6
 (optional=templinst)_ZN3pcl20SampleConsensusModelINS_12PointXYZRGBLEED1Ev@Base 1.6
 (optional=templinst)_ZN3pcl20SampleConsensusModelINS_12PointXYZRGBLEED2Ev@Base 1.6
 (optional=templinst)_ZN3pcl20SampleConsensusModelINS_13InterestPointEE13setInputCloudERKN5boost10shared_ptrIKNS_10PointCloudIS1_EEEE@Base 1.6
 (optional=templinst)_ZN3pcl20SampleConsensusModelINS_13InterestPointEEC1ERKN5boost10shared_ptrIKNS_10PointCloudIS1_EEEERKSt6vectorIiSaIiEEb@Base 1.6
 (optional=templinst)_ZN3pcl20SampleConsensusModelINS_13InterestPointEEC1ERKN5boost10shared_ptrIKNS_10PointCloudIS1_EEEEb@Base 1.6
 (optional=templinst)_ZN3pcl20SampleConsensusModelINS_13InterestPointEEC2ERKN5boost10shared_ptrIKNS_10PointCloudIS1_EEEERKSt6vectorIiSaIiEEb@Base 1.6
 (optional=templinst)_ZN3pcl20SampleConsensusModelINS_13InterestPointEEC2ERKN5boost10shared_ptrIKNS_10PointCloudIS1_EEEEb@Base 1.6
 (optional=templinst)_ZN3pcl20SampleConsensusModelINS_13InterestPointEED0Ev@Base 1.6
 (optional=templinst)_ZN3pcl20SampleConsensusModelINS_13InterestPointEED1Ev@Base 1.6
 (optional=templinst)_ZN3pcl20SampleConsensusModelINS_13InterestPointEED2Ev@Base 1.6
 (optional=templinst)_ZN3pcl20SampleConsensusModelINS_14PointWithRangeEE13setInputCloudERKN5boost10shared_ptrIKNS_10PointCloudIS1_EEEE@Base 1.6
 (optional=templinst)_ZN3pcl20SampleConsensusModelINS_14PointWithRangeEEC1ERKN5boost10shared_ptrIKNS_10PointCloudIS1_EEEERKSt6vectorIiSaIiEEb@Base 1.6
 (optional=templinst)_ZN3pcl20SampleConsensusModelINS_14PointWithRangeEEC1ERKN5boost10shared_ptrIKNS_10PointCloudIS1_EEEEb@Base 1.6
 (optional=templinst)_ZN3pcl20SampleConsensusModelINS_14PointWithRangeEEC2ERKN5boost10shared_ptrIKNS_10PointCloudIS1_EEEERKSt6vectorIiSaIiEEb@Base 1.6
 (optional=templinst)_ZN3pcl20SampleConsensusModelINS_14PointWithRangeEEC2ERKN5boost10shared_ptrIKNS_10PointCloudIS1_EEEEb@Base 1.6
 (optional=templinst)_ZN3pcl20SampleConsensusModelINS_14PointWithRangeEED0Ev@Base 1.6
 (optional=templinst)_ZN3pcl20SampleConsensusModelINS_14PointWithRangeEED1Ev@Base 1.6
 (optional=templinst)_ZN3pcl20SampleConsensusModelINS_14PointWithRangeEED2Ev@Base 1.6
 (optional=templinst)_ZN3pcl20SampleConsensusModelINS_14PointWithScaleEE13setInputCloudERKN5boost10shared_ptrIKNS_10PointCloudIS1_EEEE@Base 1.6
 (optional=templinst)_ZN3pcl20SampleConsensusModelINS_14PointWithScaleEEC1ERKN5boost10shared_ptrIKNS_10PointCloudIS1_EEEERKSt6vectorIiSaIiEEb@Base 1.6
 (optional=templinst)_ZN3pcl20SampleConsensusModelINS_14PointWithScaleEEC1ERKN5boost10shared_ptrIKNS_10PointCloudIS1_EEEEb@Base 1.6
 (optional=templinst)_ZN3pcl20SampleConsensusModelINS_14PointWithScaleEEC2ERKN5boost10shared_ptrIKNS_10PointCloudIS1_EEEERKSt6vectorIiSaIiEEb@Base 1.6
 (optional=templinst)_ZN3pcl20SampleConsensusModelINS_14PointWithScaleEEC2ERKN5boost10shared_ptrIKNS_10PointCloudIS1_EEEEb@Base 1.6
 (optional=templinst)_ZN3pcl20SampleConsensusModelINS_14PointWithScaleEED0Ev@Base 1.6
 (optional=templinst)_ZN3pcl20SampleConsensusModelINS_14PointWithScaleEED1Ev@Base 1.6
 (optional=templinst)_ZN3pcl20SampleConsensusModelINS_14PointWithScaleEED2Ev@Base 1.6
 (optional=templinst)_ZN3pcl20SampleConsensusModelINS_15PointXYZINormalEE13setInputCloudERKN5boost10shared_ptrIKNS_10PointCloudIS1_EEEE@Base 1.6
 (optional=templinst)_ZN3pcl20SampleConsensusModelINS_15PointXYZINormalEEC1ERKN5boost10shared_ptrIKNS_10PointCloudIS1_EEEERKSt6vectorIiSaIiEEb@Base 1.6
 (optional=templinst)_ZN3pcl20SampleConsensusModelINS_15PointXYZINormalEEC1ERKN5boost10shared_ptrIKNS_10PointCloudIS1_EEEEb@Base 1.6
 (optional=templinst)_ZN3pcl20SampleConsensusModelINS_15PointXYZINormalEEC2ERKN5boost10shared_ptrIKNS_10PointCloudIS1_EEEERKSt6vectorIiSaIiEEb@Base 1.6
 (optional=templinst)_ZN3pcl20SampleConsensusModelINS_15PointXYZINormalEEC2ERKN5boost10shared_ptrIKNS_10PointCloudIS1_EEEEb@Base 1.6
 (optional=templinst)_ZN3pcl20SampleConsensusModelINS_15PointXYZINormalEED0Ev@Base 1.6
 (optional=templinst)_ZN3pcl20SampleConsensusModelINS_15PointXYZINormalEED1Ev@Base 1.6
 (optional=templinst)_ZN3pcl20SampleConsensusModelINS_15PointXYZINormalEED2Ev@Base 1.6
 (optional=templinst)_ZN3pcl20SampleConsensusModelINS_17PointXYZRGBNormalEE13setInputCloudERKN5boost10shared_ptrIKNS_10PointCloudIS1_EEEE@Base 1.6
 (optional=templinst)_ZN3pcl20SampleConsensusModelINS_17PointXYZRGBNormalEEC1ERKN5boost10shared_ptrIKNS_10PointCloudIS1_EEEERKSt6vectorIiSaIiEEb@Base 1.6
 (optional=templinst)_ZN3pcl20SampleConsensusModelINS_17PointXYZRGBNormalEEC1ERKN5boost10shared_ptrIKNS_10PointCloudIS1_EEEEb@Base 1.6
 (optional=templinst)_ZN3pcl20SampleConsensusModelINS_17PointXYZRGBNormalEEC2ERKN5boost10shared_ptrIKNS_10PointCloudIS1_EEEERKSt6vectorIiSaIiEEb@Base 1.6
 (optional=templinst)_ZN3pcl20SampleConsensusModelINS_17PointXYZRGBNormalEEC2ERKN5boost10shared_ptrIKNS_10PointCloudIS1_EEEEb@Base 1.6
 (optional=templinst)_ZN3pcl20SampleConsensusModelINS_17PointXYZRGBNormalEED0Ev@Base 1.6
 (optional=templinst)_ZN3pcl20SampleConsensusModelINS_17PointXYZRGBNormalEED1Ev@Base 1.6
 (optional=templinst)_ZN3pcl20SampleConsensusModelINS_17PointXYZRGBNormalEED2Ev@Base 1.6
 (optional=templinst)_ZN3pcl20SampleConsensusModelINS_18PointWithViewpointEE13setInputCloudERKN5boost10shared_ptrIKNS_10PointCloudIS1_EEEE@Base 1.6
 (optional=templinst)_ZN3pcl20SampleConsensusModelINS_18PointWithViewpointEEC1ERKN5boost10shared_ptrIKNS_10PointCloudIS1_EEEERKSt6vectorIiSaIiEEb@Base 1.6
 (optional=templinst)_ZN3pcl20SampleConsensusModelINS_18PointWithViewpointEEC1ERKN5boost10shared_ptrIKNS_10PointCloudIS1_EEEEb@Base 1.6
 (optional=templinst)_ZN3pcl20SampleConsensusModelINS_18PointWithViewpointEEC2ERKN5boost10shared_ptrIKNS_10PointCloudIS1_EEEERKSt6vectorIiSaIiEEb@Base 1.6
 (optional=templinst)_ZN3pcl20SampleConsensusModelINS_18PointWithViewpointEEC2ERKN5boost10shared_ptrIKNS_10PointCloudIS1_EEEEb@Base 1.6
 (optional=templinst)_ZN3pcl20SampleConsensusModelINS_18PointWithViewpointEED0Ev@Base 1.6
 (optional=templinst)_ZN3pcl20SampleConsensusModelINS_18PointWithViewpointEED1Ev@Base 1.6
 (optional=templinst)_ZN3pcl20SampleConsensusModelINS_18PointWithViewpointEED2Ev@Base 1.6
 (optional=templinst)_ZN3pcl20SampleConsensusModelINS_8PointXYZEE13setInputCloudERKN5boost10shared_ptrIKNS_10PointCloudIS1_EEEE@Base 1.6
 (optional=templinst)_ZN3pcl20SampleConsensusModelINS_8PointXYZEEC1ERKN5boost10shared_ptrIKNS_10PointCloudIS1_EEEERKSt6vectorIiSaIiEEb@Base 1.6
 (optional=templinst)_ZN3pcl20SampleConsensusModelINS_8PointXYZEEC1ERKN5boost10shared_ptrIKNS_10PointCloudIS1_EEEEb@Base 1.6
 (optional=templinst)_ZN3pcl20SampleConsensusModelINS_8PointXYZEEC2ERKN5boost10shared_ptrIKNS_10PointCloudIS1_EEEERKSt6vectorIiSaIiEEb@Base 1.6
 (optional=templinst)_ZN3pcl20SampleConsensusModelINS_8PointXYZEEC2ERKN5boost10shared_ptrIKNS_10PointCloudIS1_EEEEb@Base 1.6
 (optional=templinst)_ZN3pcl20SampleConsensusModelINS_8PointXYZEED0Ev@Base 1.6
 (optional=templinst)_ZN3pcl20SampleConsensusModelINS_8PointXYZEED1Ev@Base 1.6
 (optional=templinst)_ZN3pcl20SampleConsensusModelINS_8PointXYZEED2Ev@Base 1.6
 (optional=templinst)_ZN3pcl20SampleConsensusModelINS_9PointXYZIEE13setInputCloudERKN5boost10shared_ptrIKNS_10PointCloudIS1_EEEE@Base 1.6
 (optional=templinst)_ZN3pcl20SampleConsensusModelINS_9PointXYZIEEC1ERKN5boost10shared_ptrIKNS_10PointCloudIS1_EEEERKSt6vectorIiSaIiEEb@Base 1.6
 (optional=templinst)_ZN3pcl20SampleConsensusModelINS_9PointXYZIEEC1ERKN5boost10shared_ptrIKNS_10PointCloudIS1_EEEEb@Base 1.6
 (optional=templinst)_ZN3pcl20SampleConsensusModelINS_9PointXYZIEEC2ERKN5boost10shared_ptrIKNS_10PointCloudIS1_EEEERKSt6vectorIiSaIiEEb@Base 1.6
 (optional=templinst)_ZN3pcl20SampleConsensusModelINS_9PointXYZIEEC2ERKN5boost10shared_ptrIKNS_10PointCloudIS1_EEEEb@Base 1.6
 (optional=templinst)_ZN3pcl20SampleConsensusModelINS_9PointXYZIEED0Ev@Base 1.6
 (optional=templinst)_ZN3pcl20SampleConsensusModelINS_9PointXYZIEED1Ev@Base 1.6
 (optional=templinst)_ZN3pcl20SampleConsensusModelINS_9PointXYZIEED2Ev@Base 1.6
 (optional=templinst)_ZN3pcl20SampleConsensusModelINS_9PointXYZLEE13setInputCloudERKN5boost10shared_ptrIKNS_10PointCloudIS1_EEEE@Base 1.6
 (optional=templinst)_ZN3pcl20SampleConsensusModelINS_9PointXYZLEEC1ERKN5boost10shared_ptrIKNS_10PointCloudIS1_EEEERKSt6vectorIiSaIiEEb@Base 1.6
 (optional=templinst)_ZN3pcl20SampleConsensusModelINS_9PointXYZLEEC1ERKN5boost10shared_ptrIKNS_10PointCloudIS1_EEEEb@Base 1.6
 (optional=templinst)_ZN3pcl20SampleConsensusModelINS_9PointXYZLEEC2ERKN5boost10shared_ptrIKNS_10PointCloudIS1_EEEERKSt6vectorIiSaIiEEb@Base 1.6
 (optional=templinst)_ZN3pcl20SampleConsensusModelINS_9PointXYZLEEC2ERKN5boost10shared_ptrIKNS_10PointCloudIS1_EEEEb@Base 1.6
 (optional=templinst)_ZN3pcl20SampleConsensusModelINS_9PointXYZLEED0Ev@Base 1.6
 (optional=templinst)_ZN3pcl20SampleConsensusModelINS_9PointXYZLEED1Ev@Base 1.6
 (optional=templinst)_ZN3pcl20SampleConsensusModelINS_9PointXYZLEED2Ev@Base 1.6
 _ZN3pcl20comparePointClustersERKNS_12PointIndicesES2_@Base 1.6
 (optional=templinst)_ZN3pcl21RandomSampleConsensusINS_11PointNormalEE12computeModelEi@Base 1.6
 (optional=templinst)_ZN3pcl21RandomSampleConsensusINS_11PointNormalEED0Ev@Base 1.6
 (optional=templinst)_ZN3pcl21RandomSampleConsensusINS_11PointNormalEED1Ev@Base 1.6
 (optional=templinst)_ZN3pcl21RandomSampleConsensusINS_11PointNormalEED2Ev@Base 1.6
 (optional=templinst)_ZN3pcl21RandomSampleConsensusINS_11PointXYZHSVEE12computeModelEi@Base 1.6
 (optional=templinst)_ZN3pcl21RandomSampleConsensusINS_11PointXYZHSVEED0Ev@Base 1.6
 (optional=templinst)_ZN3pcl21RandomSampleConsensusINS_11PointXYZHSVEED1Ev@Base 1.6
 (optional=templinst)_ZN3pcl21RandomSampleConsensusINS_11PointXYZHSVEED2Ev@Base 1.6
 (optional=templinst)_ZN3pcl21RandomSampleConsensusINS_11PointXYZRGBEE12computeModelEi@Base 1.6
 (optional=templinst)_ZN3pcl21RandomSampleConsensusINS_11PointXYZRGBEED0Ev@Base 1.6
 (optional=templinst)_ZN3pcl21RandomSampleConsensusINS_11PointXYZRGBEED1Ev@Base 1.6
 (optional=templinst)_ZN3pcl21RandomSampleConsensusINS_11PointXYZRGBEED2Ev@Base 1.6
 (optional=templinst)_ZN3pcl21RandomSampleConsensusINS_12PointXYZRGBAEE12computeModelEi@Base 1.6
 (optional=templinst)_ZN3pcl21RandomSampleConsensusINS_12PointXYZRGBAEED0Ev@Base 1.6
 (optional=templinst)_ZN3pcl21RandomSampleConsensusINS_12PointXYZRGBAEED1Ev@Base 1.6
 (optional=templinst)_ZN3pcl21RandomSampleConsensusINS_12PointXYZRGBAEED2Ev@Base 1.6
 (optional=templinst)_ZN3pcl21RandomSampleConsensusINS_12PointXYZRGBLEE12computeModelEi@Base 1.6
 (optional=templinst)_ZN3pcl21RandomSampleConsensusINS_12PointXYZRGBLEED0Ev@Base 1.6
 (optional=templinst)_ZN3pcl21RandomSampleConsensusINS_12PointXYZRGBLEED1Ev@Base 1.6
 (optional=templinst)_ZN3pcl21RandomSampleConsensusINS_12PointXYZRGBLEED2Ev@Base 1.6
 (optional=templinst)_ZN3pcl21RandomSampleConsensusINS_13InterestPointEE12computeModelEi@Base 1.6
 (optional=templinst)_ZN3pcl21RandomSampleConsensusINS_13InterestPointEED0Ev@Base 1.6
 (optional=templinst)_ZN3pcl21RandomSampleConsensusINS_13InterestPointEED1Ev@Base 1.6
 (optional=templinst)_ZN3pcl21RandomSampleConsensusINS_13InterestPointEED2Ev@Base 1.6
 (optional=templinst)_ZN3pcl21RandomSampleConsensusINS_14PointWithRangeEE12computeModelEi@Base 1.6
 (optional=templinst)_ZN3pcl21RandomSampleConsensusINS_14PointWithRangeEED0Ev@Base 1.6
 (optional=templinst)_ZN3pcl21RandomSampleConsensusINS_14PointWithRangeEED1Ev@Base 1.6
 (optional=templinst)_ZN3pcl21RandomSampleConsensusINS_14PointWithRangeEED2Ev@Base 1.6
 (optional=templinst)_ZN3pcl21RandomSampleConsensusINS_14PointWithScaleEE12computeModelEi@Base 1.6
 (optional=templinst)_ZN3pcl21RandomSampleConsensusINS_14PointWithScaleEED0Ev@Base 1.6
 (optional=templinst)_ZN3pcl21RandomSampleConsensusINS_14PointWithScaleEED1Ev@Base 1.6
 (optional=templinst)_ZN3pcl21RandomSampleConsensusINS_14PointWithScaleEED2Ev@Base 1.6
 (optional=templinst)_ZN3pcl21RandomSampleConsensusINS_15PointXYZINormalEE12computeModelEi@Base 1.6
 (optional=templinst)_ZN3pcl21RandomSampleConsensusINS_15PointXYZINormalEED0Ev@Base 1.6
 (optional=templinst)_ZN3pcl21RandomSampleConsensusINS_15PointXYZINormalEED1Ev@Base 1.6
 (optional=templinst)_ZN3pcl21RandomSampleConsensusINS_15PointXYZINormalEED2Ev@Base 1.6
 (optional=templinst)_ZN3pcl21RandomSampleConsensusINS_17PointXYZRGBNormalEE12computeModelEi@Base 1.6
 (optional=templinst)_ZN3pcl21RandomSampleConsensusINS_17PointXYZRGBNormalEED0Ev@Base 1.6
 (optional=templinst)_ZN3pcl21RandomSampleConsensusINS_17PointXYZRGBNormalEED1Ev@Base 1.6
 (optional=templinst)_ZN3pcl21RandomSampleConsensusINS_17PointXYZRGBNormalEED2Ev@Base 1.6
 (optional=templinst)_ZN3pcl21RandomSampleConsensusINS_18PointWithViewpointEE12computeModelEi@Base 1.6
 (optional=templinst)_ZN3pcl21RandomSampleConsensusINS_18PointWithViewpointEED0Ev@Base 1.6
 (optional=templinst)_ZN3pcl21RandomSampleConsensusINS_18PointWithViewpointEED1Ev@Base 1.6
 (optional=templinst)_ZN3pcl21RandomSampleConsensusINS_18PointWithViewpointEED2Ev@Base 1.6
 (optional=templinst)_ZN3pcl21RandomSampleConsensusINS_8PointXYZEE12computeModelEi@Base 1.6
 (optional=templinst)_ZN3pcl21RandomSampleConsensusINS_8PointXYZEED0Ev@Base 1.6
 (optional=templinst)_ZN3pcl21RandomSampleConsensusINS_8PointXYZEED1Ev@Base 1.6
 (optional=templinst)_ZN3pcl21RandomSampleConsensusINS_8PointXYZEED2Ev@Base 1.6
 (optional=templinst)_ZN3pcl21RandomSampleConsensusINS_9PointXYZIEE12computeModelEi@Base 1.6
 (optional=templinst)_ZN3pcl21RandomSampleConsensusINS_9PointXYZIEED0Ev@Base 1.6
 (optional=templinst)_ZN3pcl21RandomSampleConsensusINS_9PointXYZIEED1Ev@Base 1.6
 (optional=templinst)_ZN3pcl21RandomSampleConsensusINS_9PointXYZIEED2Ev@Base 1.6
 (optional=templinst)_ZN3pcl21RandomSampleConsensusINS_9PointXYZLEE12computeModelEi@Base 1.6
 (optional=templinst)_ZN3pcl21RandomSampleConsensusINS_9PointXYZLEED0Ev@Base 1.6
 (optional=templinst)_ZN3pcl21RandomSampleConsensusINS_9PointXYZLEED1Ev@Base 1.6
 (optional=templinst)_ZN3pcl21RandomSampleConsensusINS_9PointXYZLEED2Ev@Base 1.6
 (optional=templinst)_ZN3pcl22isXYPointIn2DXYPolygonINS_11PointNormalEEEbRKT_RKNS_10PointCloudIS2_EE@Base 1.6
 (optional=templinst)_ZN3pcl22isXYPointIn2DXYPolygonINS_11PointXYZHSVEEEbRKT_RKNS_10PointCloudIS2_EE@Base 1.6
 (optional=templinst)_ZN3pcl22isXYPointIn2DXYPolygonINS_11PointXYZRGBEEEbRKT_RKNS_10PointCloudIS2_EE@Base 1.6
 (optional=templinst)_ZN3pcl22isXYPointIn2DXYPolygonINS_12PointXYZRGBAEEEbRKT_RKNS_10PointCloudIS2_EE@Base 1.6
 (optional=templinst)_ZN3pcl22isXYPointIn2DXYPolygonINS_12PointXYZRGBLEEEbRKT_RKNS_10PointCloudIS2_EE@Base 1.6
 (optional=templinst)_ZN3pcl22isXYPointIn2DXYPolygonINS_13InterestPointEEEbRKT_RKNS_10PointCloudIS2_EE@Base 1.6
 (optional=templinst)_ZN3pcl22isXYPointIn2DXYPolygonINS_14PointWithRangeEEEbRKT_RKNS_10PointCloudIS2_EE@Base 1.6
 (optional=templinst)_ZN3pcl22isXYPointIn2DXYPolygonINS_14PointWithScaleEEEbRKT_RKNS_10PointCloudIS2_EE@Base 1.6
 (optional=templinst)_ZN3pcl22isXYPointIn2DXYPolygonINS_15PointXYZINormalEEEbRKT_RKNS_10PointCloudIS2_EE@Base 1.6
 (optional=templinst)_ZN3pcl22isXYPointIn2DXYPolygonINS_17PointXYZRGBNormalEEEbRKT_RKNS_10PointCloudIS2_EE@Base 1.6
 (optional=templinst)_ZN3pcl22isXYPointIn2DXYPolygonINS_18PointWithViewpointEEEbRKT_RKNS_10PointCloudIS2_EE@Base 1.6
 (optional=templinst)_ZN3pcl22isXYPointIn2DXYPolygonINS_8PointXYZEEEbRKT_RKNS_10PointCloudIS2_EE@Base 1.6
 (optional=templinst)_ZN3pcl22isXYPointIn2DXYPolygonINS_9PointXYZIEEEbRKT_RKNS_10PointCloudIS2_EE@Base 1.6
 (optional=templinst)_ZN3pcl22isXYPointIn2DXYPolygonINS_9PointXYZLEEEbRKT_RKNS_10PointCloudIS2_EE@Base 1.6
 (optional=templinst)_ZN3pcl23getPointCloudDifferenceINS_11PointNormalEEEvRKNS_10PointCloudIT_EES6_dRKN5boost10shared_ptrINS_6search6SearchIS3_EEEERS4_@Base 1.6
 (optional=templinst)_ZN3pcl23getPointCloudDifferenceINS_11PointXYZHSVEEEvRKNS_10PointCloudIT_EES6_dRKN5boost10shared_ptrINS_6search6SearchIS3_EEEERS4_@Base 1.6
 (optional=templinst)_ZN3pcl23getPointCloudDifferenceINS_11PointXYZRGBEEEvRKNS_10PointCloudIT_EES6_dRKN5boost10shared_ptrINS_6search6SearchIS3_EEEERS4_@Base 1.6
 (optional=templinst)_ZN3pcl23getPointCloudDifferenceINS_12PointXYZRGBAEEEvRKNS_10PointCloudIT_EES6_dRKN5boost10shared_ptrINS_6search6SearchIS3_EEEERS4_@Base 1.6
 (optional=templinst)_ZN3pcl23getPointCloudDifferenceINS_12PointXYZRGBLEEEvRKNS_10PointCloudIT_EES6_dRKN5boost10shared_ptrINS_6search6SearchIS3_EEEERS4_@Base 1.6
 (optional=templinst)_ZN3pcl23getPointCloudDifferenceINS_13InterestPointEEEvRKNS_10PointCloudIT_EES6_dRKN5boost10shared_ptrINS_6search6SearchIS3_EEEERS4_@Base 1.6
 (optional=templinst)_ZN3pcl23getPointCloudDifferenceINS_14PointWithRangeEEEvRKNS_10PointCloudIT_EES6_dRKN5boost10shared_ptrINS_6search6SearchIS3_EEEERS4_@Base 1.6
 (optional=templinst)_ZN3pcl23getPointCloudDifferenceINS_14PointWithScaleEEEvRKNS_10PointCloudIT_EES6_dRKN5boost10shared_ptrINS_6search6SearchIS3_EEEERS4_@Base 1.6
 (optional=templinst)_ZN3pcl23getPointCloudDifferenceINS_15PointXYZINormalEEEvRKNS_10PointCloudIT_EES6_dRKN5boost10shared_ptrINS_6search6SearchIS3_EEEERS4_@Base 1.6
 (optional=templinst)_ZN3pcl23getPointCloudDifferenceINS_17PointXYZRGBNormalEEEvRKNS_10PointCloudIT_EES6_dRKN5boost10shared_ptrINS_6search6SearchIS3_EEEERS4_@Base 1.6
 (optional=templinst)_ZN3pcl23getPointCloudDifferenceINS_18PointWithViewpointEEEvRKNS_10PointCloudIT_EES6_dRKN5boost10shared_ptrINS_6search6SearchIS3_EEEERS4_@Base 1.6
 (optional=templinst)_ZN3pcl23getPointCloudDifferenceINS_8PointXYZEEEvRKNS_10PointCloudIT_EES6_dRKN5boost10shared_ptrINS_6search6SearchIS3_EEEERS4_@Base 1.6
 (optional=templinst)_ZN3pcl23getPointCloudDifferenceINS_9PointXYZIEEEvRKNS_10PointCloudIT_EES6_dRKN5boost10shared_ptrINS_6search6SearchIS3_EEEERS4_@Base 1.6
 (optional=templinst)_ZN3pcl23getPointCloudDifferenceINS_9PointXYZLEEEvRKNS_10PointCloudIT_EES6_dRKN5boost10shared_ptrINS_6search6SearchIS3_EEEERS4_@Base 1.6
 (optional=templinst)_ZN3pcl24SampleConsensusModelConeINS_11PointNormalENS_15PointXYZINormalEE7setAxisERKN5Eigen6MatrixIfLi3ELi1ELi0ELi3ELi1EEE@Base 1.6
 (optional=templinst)_ZN3pcl24SampleConsensusModelConeINS_11PointNormalENS_15PointXYZINormalEEC1ERKN5boost10shared_ptrIKNS_10PointCloudIS1_EEEERKSt6vectorIiSaIiEE@Base 1.6
 (optional=templinst)_ZN3pcl24SampleConsensusModelConeINS_11PointNormalENS_15PointXYZINormalEEC2ERKN5boost10shared_ptrIKNS_10PointCloudIS1_EEEERKSt6vectorIiSaIiEE@Base 1.6
 (optional=templinst)_ZN3pcl24SampleConsensusModelConeINS_11PointNormalENS_15PointXYZINormalEED0Ev@Base 1.6
 (optional=templinst)_ZN3pcl24SampleConsensusModelConeINS_11PointNormalENS_15PointXYZINormalEED1Ev@Base 1.6
 (optional=templinst)_ZN3pcl24SampleConsensusModelConeINS_11PointNormalENS_15PointXYZINormalEED2Ev@Base 1.6
 (optional=templinst)_ZN3pcl24SampleConsensusModelConeINS_11PointNormalENS_17PointXYZRGBNormalEE7setAxisERKN5Eigen6MatrixIfLi3ELi1ELi0ELi3ELi1EEE@Base 1.6
 (optional=templinst)_ZN3pcl24SampleConsensusModelConeINS_11PointNormalENS_17PointXYZRGBNormalEEC1ERKN5boost10shared_ptrIKNS_10PointCloudIS1_EEEERKSt6vectorIiSaIiEE@Base 1.6
 (optional=templinst)_ZN3pcl24SampleConsensusModelConeINS_11PointNormalENS_17PointXYZRGBNormalEEC2ERKN5boost10shared_ptrIKNS_10PointCloudIS1_EEEERKSt6vectorIiSaIiEE@Base 1.6
 (optional=templinst)_ZN3pcl24SampleConsensusModelConeINS_11PointNormalENS_17PointXYZRGBNormalEED0Ev@Base 1.6
 (optional=templinst)_ZN3pcl24SampleConsensusModelConeINS_11PointNormalENS_17PointXYZRGBNormalEED1Ev@Base 1.6
 (optional=templinst)_ZN3pcl24SampleConsensusModelConeINS_11PointNormalENS_17PointXYZRGBNormalEED2Ev@Base 1.6
 (optional=templinst)_ZN3pcl24SampleConsensusModelConeINS_11PointNormalENS_6NormalEE7setAxisERKN5Eigen6MatrixIfLi3ELi1ELi0ELi3ELi1EEE@Base 1.6
 (optional=templinst)_ZN3pcl24SampleConsensusModelConeINS_11PointNormalENS_6NormalEEC1ERKN5boost10shared_ptrIKNS_10PointCloudIS1_EEEERKSt6vectorIiSaIiEE@Base 1.6
 (optional=templinst)_ZN3pcl24SampleConsensusModelConeINS_11PointNormalENS_6NormalEEC2ERKN5boost10shared_ptrIKNS_10PointCloudIS1_EEEERKSt6vectorIiSaIiEE@Base 1.6
 (optional=templinst)_ZN3pcl24SampleConsensusModelConeINS_11PointNormalENS_6NormalEED0Ev@Base 1.6
 (optional=templinst)_ZN3pcl24SampleConsensusModelConeINS_11PointNormalENS_6NormalEED1Ev@Base 1.6
 (optional=templinst)_ZN3pcl24SampleConsensusModelConeINS_11PointNormalENS_6NormalEED2Ev@Base 1.6
 (optional=templinst)_ZN3pcl24SampleConsensusModelConeINS_11PointNormalES1_E7setAxisERKN5Eigen6MatrixIfLi3ELi1ELi0ELi3ELi1EEE@Base 1.6
 (optional=templinst)_ZN3pcl24SampleConsensusModelConeINS_11PointNormalES1_EC1ERKN5boost10shared_ptrIKNS_10PointCloudIS1_EEEERKSt6vectorIiSaIiEE@Base 1.6
 (optional=templinst)_ZN3pcl24SampleConsensusModelConeINS_11PointNormalES1_EC2ERKN5boost10shared_ptrIKNS_10PointCloudIS1_EEEERKSt6vectorIiSaIiEE@Base 1.6
 (optional=templinst)_ZN3pcl24SampleConsensusModelConeINS_11PointNormalES1_ED0Ev@Base 1.6
 (optional=templinst)_ZN3pcl24SampleConsensusModelConeINS_11PointNormalES1_ED1Ev@Base 1.6
 (optional=templinst)_ZN3pcl24SampleConsensusModelConeINS_11PointNormalES1_ED2Ev@Base 1.6
 (optional=templinst)_ZN3pcl24SampleConsensusModelConeINS_11PointXYZHSVENS_11PointNormalEE7setAxisERKN5Eigen6MatrixIfLi3ELi1ELi0ELi3ELi1EEE@Base 1.6
 (optional=templinst)_ZN3pcl24SampleConsensusModelConeINS_11PointXYZHSVENS_11PointNormalEEC1ERKN5boost10shared_ptrIKNS_10PointCloudIS1_EEEERKSt6vectorIiSaIiEE@Base 1.6
 (optional=templinst)_ZN3pcl24SampleConsensusModelConeINS_11PointXYZHSVENS_11PointNormalEEC2ERKN5boost10shared_ptrIKNS_10PointCloudIS1_EEEERKSt6vectorIiSaIiEE@Base 1.6
 (optional=templinst)_ZN3pcl24SampleConsensusModelConeINS_11PointXYZHSVENS_11PointNormalEED0Ev@Base 1.6
 (optional=templinst)_ZN3pcl24SampleConsensusModelConeINS_11PointXYZHSVENS_11PointNormalEED1Ev@Base 1.6
 (optional=templinst)_ZN3pcl24SampleConsensusModelConeINS_11PointXYZHSVENS_11PointNormalEED2Ev@Base 1.6
 (optional=templinst)_ZN3pcl24SampleConsensusModelConeINS_11PointXYZHSVENS_15PointXYZINormalEE7setAxisERKN5Eigen6MatrixIfLi3ELi1ELi0ELi3ELi1EEE@Base 1.6
 (optional=templinst)_ZN3pcl24SampleConsensusModelConeINS_11PointXYZHSVENS_15PointXYZINormalEEC1ERKN5boost10shared_ptrIKNS_10PointCloudIS1_EEEERKSt6vectorIiSaIiEE@Base 1.6
 (optional=templinst)_ZN3pcl24SampleConsensusModelConeINS_11PointXYZHSVENS_15PointXYZINormalEEC2ERKN5boost10shared_ptrIKNS_10PointCloudIS1_EEEERKSt6vectorIiSaIiEE@Base 1.6
 (optional=templinst)_ZN3pcl24SampleConsensusModelConeINS_11PointXYZHSVENS_15PointXYZINormalEED0Ev@Base 1.6
 (optional=templinst)_ZN3pcl24SampleConsensusModelConeINS_11PointXYZHSVENS_15PointXYZINormalEED1Ev@Base 1.6
 (optional=templinst)_ZN3pcl24SampleConsensusModelConeINS_11PointXYZHSVENS_15PointXYZINormalEED2Ev@Base 1.6
 (optional=templinst)_ZN3pcl24SampleConsensusModelConeINS_11PointXYZHSVENS_17PointXYZRGBNormalEE7setAxisERKN5Eigen6MatrixIfLi3ELi1ELi0ELi3ELi1EEE@Base 1.6
 (optional=templinst)_ZN3pcl24SampleConsensusModelConeINS_11PointXYZHSVENS_17PointXYZRGBNormalEEC1ERKN5boost10shared_ptrIKNS_10PointCloudIS1_EEEERKSt6vectorIiSaIiEE@Base 1.6
 (optional=templinst)_ZN3pcl24SampleConsensusModelConeINS_11PointXYZHSVENS_17PointXYZRGBNormalEEC2ERKN5boost10shared_ptrIKNS_10PointCloudIS1_EEEERKSt6vectorIiSaIiEE@Base 1.6
 (optional=templinst)_ZN3pcl24SampleConsensusModelConeINS_11PointXYZHSVENS_17PointXYZRGBNormalEED0Ev@Base 1.6
 (optional=templinst)_ZN3pcl24SampleConsensusModelConeINS_11PointXYZHSVENS_17PointXYZRGBNormalEED1Ev@Base 1.6
 (optional=templinst)_ZN3pcl24SampleConsensusModelConeINS_11PointXYZHSVENS_17PointXYZRGBNormalEED2Ev@Base 1.6
 (optional=templinst)_ZN3pcl24SampleConsensusModelConeINS_11PointXYZHSVENS_6NormalEE7setAxisERKN5Eigen6MatrixIfLi3ELi1ELi0ELi3ELi1EEE@Base 1.6
 (optional=templinst)_ZN3pcl24SampleConsensusModelConeINS_11PointXYZHSVENS_6NormalEEC1ERKN5boost10shared_ptrIKNS_10PointCloudIS1_EEEERKSt6vectorIiSaIiEE@Base 1.6
 (optional=templinst)_ZN3pcl24SampleConsensusModelConeINS_11PointXYZHSVENS_6NormalEEC2ERKN5boost10shared_ptrIKNS_10PointCloudIS1_EEEERKSt6vectorIiSaIiEE@Base 1.6
 (optional=templinst)_ZN3pcl24SampleConsensusModelConeINS_11PointXYZHSVENS_6NormalEED0Ev@Base 1.6
 (optional=templinst)_ZN3pcl24SampleConsensusModelConeINS_11PointXYZHSVENS_6NormalEED1Ev@Base 1.6
 (optional=templinst)_ZN3pcl24SampleConsensusModelConeINS_11PointXYZHSVENS_6NormalEED2Ev@Base 1.6
 (optional=templinst)_ZN3pcl24SampleConsensusModelConeINS_11PointXYZRGBENS_11PointNormalEE7setAxisERKN5Eigen6MatrixIfLi3ELi1ELi0ELi3ELi1EEE@Base 1.6
 (optional=templinst)_ZN3pcl24SampleConsensusModelConeINS_11PointXYZRGBENS_11PointNormalEEC1ERKN5boost10shared_ptrIKNS_10PointCloudIS1_EEEERKSt6vectorIiSaIiEE@Base 1.6
 (optional=templinst)_ZN3pcl24SampleConsensusModelConeINS_11PointXYZRGBENS_11PointNormalEEC2ERKN5boost10shared_ptrIKNS_10PointCloudIS1_EEEERKSt6vectorIiSaIiEE@Base 1.6
 (optional=templinst)_ZN3pcl24SampleConsensusModelConeINS_11PointXYZRGBENS_11PointNormalEED0Ev@Base 1.6
 (optional=templinst)_ZN3pcl24SampleConsensusModelConeINS_11PointXYZRGBENS_11PointNormalEED1Ev@Base 1.6
 (optional=templinst)_ZN3pcl24SampleConsensusModelConeINS_11PointXYZRGBENS_11PointNormalEED2Ev@Base 1.6
 (optional=templinst)_ZN3pcl24SampleConsensusModelConeINS_11PointXYZRGBENS_15PointXYZINormalEE7setAxisERKN5Eigen6MatrixIfLi3ELi1ELi0ELi3ELi1EEE@Base 1.6
 (optional=templinst)_ZN3pcl24SampleConsensusModelConeINS_11PointXYZRGBENS_15PointXYZINormalEEC1ERKN5boost10shared_ptrIKNS_10PointCloudIS1_EEEERKSt6vectorIiSaIiEE@Base 1.6
 (optional=templinst)_ZN3pcl24SampleConsensusModelConeINS_11PointXYZRGBENS_15PointXYZINormalEEC2ERKN5boost10shared_ptrIKNS_10PointCloudIS1_EEEERKSt6vectorIiSaIiEE@Base 1.6
 (optional=templinst)_ZN3pcl24SampleConsensusModelConeINS_11PointXYZRGBENS_15PointXYZINormalEED0Ev@Base 1.6
 (optional=templinst)_ZN3pcl24SampleConsensusModelConeINS_11PointXYZRGBENS_15PointXYZINormalEED1Ev@Base 1.6
 (optional=templinst)_ZN3pcl24SampleConsensusModelConeINS_11PointXYZRGBENS_15PointXYZINormalEED2Ev@Base 1.6
 (optional=templinst)_ZN3pcl24SampleConsensusModelConeINS_11PointXYZRGBENS_17PointXYZRGBNormalEE7setAxisERKN5Eigen6MatrixIfLi3ELi1ELi0ELi3ELi1EEE@Base 1.6
 (optional=templinst)_ZN3pcl24SampleConsensusModelConeINS_11PointXYZRGBENS_17PointXYZRGBNormalEEC1ERKN5boost10shared_ptrIKNS_10PointCloudIS1_EEEERKSt6vectorIiSaIiEE@Base 1.6
 (optional=templinst)_ZN3pcl24SampleConsensusModelConeINS_11PointXYZRGBENS_17PointXYZRGBNormalEEC2ERKN5boost10shared_ptrIKNS_10PointCloudIS1_EEEERKSt6vectorIiSaIiEE@Base 1.6
 (optional=templinst)_ZN3pcl24SampleConsensusModelConeINS_11PointXYZRGBENS_17PointXYZRGBNormalEED0Ev@Base 1.6
 (optional=templinst)_ZN3pcl24SampleConsensusModelConeINS_11PointXYZRGBENS_17PointXYZRGBNormalEED1Ev@Base 1.6
 (optional=templinst)_ZN3pcl24SampleConsensusModelConeINS_11PointXYZRGBENS_17PointXYZRGBNormalEED2Ev@Base 1.6
 (optional=templinst)_ZN3pcl24SampleConsensusModelConeINS_11PointXYZRGBENS_6NormalEE7setAxisERKN5Eigen6MatrixIfLi3ELi1ELi0ELi3ELi1EEE@Base 1.6
 (optional=templinst)_ZN3pcl24SampleConsensusModelConeINS_11PointXYZRGBENS_6NormalEEC1ERKN5boost10shared_ptrIKNS_10PointCloudIS1_EEEERKSt6vectorIiSaIiEE@Base 1.6
 (optional=templinst)_ZN3pcl24SampleConsensusModelConeINS_11PointXYZRGBENS_6NormalEEC2ERKN5boost10shared_ptrIKNS_10PointCloudIS1_EEEERKSt6vectorIiSaIiEE@Base 1.6
 (optional=templinst)_ZN3pcl24SampleConsensusModelConeINS_11PointXYZRGBENS_6NormalEED0Ev@Base 1.6
 (optional=templinst)_ZN3pcl24SampleConsensusModelConeINS_11PointXYZRGBENS_6NormalEED1Ev@Base 1.6
 (optional=templinst)_ZN3pcl24SampleConsensusModelConeINS_11PointXYZRGBENS_6NormalEED2Ev@Base 1.6
 (optional=templinst)_ZN3pcl24SampleConsensusModelConeINS_12PointXYZRGBAENS_11PointNormalEE7setAxisERKN5Eigen6MatrixIfLi3ELi1ELi0ELi3ELi1EEE@Base 1.6
 (optional=templinst)_ZN3pcl24SampleConsensusModelConeINS_12PointXYZRGBAENS_11PointNormalEEC1ERKN5boost10shared_ptrIKNS_10PointCloudIS1_EEEERKSt6vectorIiSaIiEE@Base 1.6
 (optional=templinst)_ZN3pcl24SampleConsensusModelConeINS_12PointXYZRGBAENS_11PointNormalEEC2ERKN5boost10shared_ptrIKNS_10PointCloudIS1_EEEERKSt6vectorIiSaIiEE@Base 1.6
 (optional=templinst)_ZN3pcl24SampleConsensusModelConeINS_12PointXYZRGBAENS_11PointNormalEED0Ev@Base 1.6
 (optional=templinst)_ZN3pcl24SampleConsensusModelConeINS_12PointXYZRGBAENS_11PointNormalEED1Ev@Base 1.6
 (optional=templinst)_ZN3pcl24SampleConsensusModelConeINS_12PointXYZRGBAENS_11PointNormalEED2Ev@Base 1.6
 (optional=templinst)_ZN3pcl24SampleConsensusModelConeINS_12PointXYZRGBAENS_15PointXYZINormalEE7setAxisERKN5Eigen6MatrixIfLi3ELi1ELi0ELi3ELi1EEE@Base 1.6
 (optional=templinst)_ZN3pcl24SampleConsensusModelConeINS_12PointXYZRGBAENS_15PointXYZINormalEEC1ERKN5boost10shared_ptrIKNS_10PointCloudIS1_EEEERKSt6vectorIiSaIiEE@Base 1.6
 (optional=templinst)_ZN3pcl24SampleConsensusModelConeINS_12PointXYZRGBAENS_15PointXYZINormalEEC2ERKN5boost10shared_ptrIKNS_10PointCloudIS1_EEEERKSt6vectorIiSaIiEE@Base 1.6
 (optional=templinst)_ZN3pcl24SampleConsensusModelConeINS_12PointXYZRGBAENS_15PointXYZINormalEED0Ev@Base 1.6
 (optional=templinst)_ZN3pcl24SampleConsensusModelConeINS_12PointXYZRGBAENS_15PointXYZINormalEED1Ev@Base 1.6
 (optional=templinst)_ZN3pcl24SampleConsensusModelConeINS_12PointXYZRGBAENS_15PointXYZINormalEED2Ev@Base 1.6
 (optional=templinst)_ZN3pcl24SampleConsensusModelConeINS_12PointXYZRGBAENS_17PointXYZRGBNormalEE7setAxisERKN5Eigen6MatrixIfLi3ELi1ELi0ELi3ELi1EEE@Base 1.6
 (optional=templinst)_ZN3pcl24SampleConsensusModelConeINS_12PointXYZRGBAENS_17PointXYZRGBNormalEEC1ERKN5boost10shared_ptrIKNS_10PointCloudIS1_EEEERKSt6vectorIiSaIiEE@Base 1.6
 (optional=templinst)_ZN3pcl24SampleConsensusModelConeINS_12PointXYZRGBAENS_17PointXYZRGBNormalEEC2ERKN5boost10shared_ptrIKNS_10PointCloudIS1_EEEERKSt6vectorIiSaIiEE@Base 1.6
 (optional=templinst)_ZN3pcl24SampleConsensusModelConeINS_12PointXYZRGBAENS_17PointXYZRGBNormalEED0Ev@Base 1.6
 (optional=templinst)_ZN3pcl24SampleConsensusModelConeINS_12PointXYZRGBAENS_17PointXYZRGBNormalEED1Ev@Base 1.6
 (optional=templinst)_ZN3pcl24SampleConsensusModelConeINS_12PointXYZRGBAENS_17PointXYZRGBNormalEED2Ev@Base 1.6
 (optional=templinst)_ZN3pcl24SampleConsensusModelConeINS_12PointXYZRGBAENS_6NormalEE7setAxisERKN5Eigen6MatrixIfLi3ELi1ELi0ELi3ELi1EEE@Base 1.6
 (optional=templinst)_ZN3pcl24SampleConsensusModelConeINS_12PointXYZRGBAENS_6NormalEEC1ERKN5boost10shared_ptrIKNS_10PointCloudIS1_EEEERKSt6vectorIiSaIiEE@Base 1.6
 (optional=templinst)_ZN3pcl24SampleConsensusModelConeINS_12PointXYZRGBAENS_6NormalEEC2ERKN5boost10shared_ptrIKNS_10PointCloudIS1_EEEERKSt6vectorIiSaIiEE@Base 1.6
 (optional=templinst)_ZN3pcl24SampleConsensusModelConeINS_12PointXYZRGBAENS_6NormalEED0Ev@Base 1.6
 (optional=templinst)_ZN3pcl24SampleConsensusModelConeINS_12PointXYZRGBAENS_6NormalEED1Ev@Base 1.6
 (optional=templinst)_ZN3pcl24SampleConsensusModelConeINS_12PointXYZRGBAENS_6NormalEED2Ev@Base 1.6
 (optional=templinst)_ZN3pcl24SampleConsensusModelConeINS_12PointXYZRGBLENS_11PointNormalEE7setAxisERKN5Eigen6MatrixIfLi3ELi1ELi0ELi3ELi1EEE@Base 1.6
 (optional=templinst)_ZN3pcl24SampleConsensusModelConeINS_12PointXYZRGBLENS_11PointNormalEEC1ERKN5boost10shared_ptrIKNS_10PointCloudIS1_EEEERKSt6vectorIiSaIiEE@Base 1.6
 (optional=templinst)_ZN3pcl24SampleConsensusModelConeINS_12PointXYZRGBLENS_11PointNormalEEC2ERKN5boost10shared_ptrIKNS_10PointCloudIS1_EEEERKSt6vectorIiSaIiEE@Base 1.6
 (optional=templinst)_ZN3pcl24SampleConsensusModelConeINS_12PointXYZRGBLENS_11PointNormalEED0Ev@Base 1.6
 (optional=templinst)_ZN3pcl24SampleConsensusModelConeINS_12PointXYZRGBLENS_11PointNormalEED1Ev@Base 1.6
 (optional=templinst)_ZN3pcl24SampleConsensusModelConeINS_12PointXYZRGBLENS_11PointNormalEED2Ev@Base 1.6
 (optional=templinst)_ZN3pcl24SampleConsensusModelConeINS_12PointXYZRGBLENS_15PointXYZINormalEE7setAxisERKN5Eigen6MatrixIfLi3ELi1ELi0ELi3ELi1EEE@Base 1.6
 (optional=templinst)_ZN3pcl24SampleConsensusModelConeINS_12PointXYZRGBLENS_15PointXYZINormalEEC1ERKN5boost10shared_ptrIKNS_10PointCloudIS1_EEEERKSt6vectorIiSaIiEE@Base 1.6
 (optional=templinst)_ZN3pcl24SampleConsensusModelConeINS_12PointXYZRGBLENS_15PointXYZINormalEEC2ERKN5boost10shared_ptrIKNS_10PointCloudIS1_EEEERKSt6vectorIiSaIiEE@Base 1.6
 (optional=templinst)_ZN3pcl24SampleConsensusModelConeINS_12PointXYZRGBLENS_15PointXYZINormalEED0Ev@Base 1.6
 (optional=templinst)_ZN3pcl24SampleConsensusModelConeINS_12PointXYZRGBLENS_15PointXYZINormalEED1Ev@Base 1.6
 (optional=templinst)_ZN3pcl24SampleConsensusModelConeINS_12PointXYZRGBLENS_15PointXYZINormalEED2Ev@Base 1.6
 (optional=templinst)_ZN3pcl24SampleConsensusModelConeINS_12PointXYZRGBLENS_17PointXYZRGBNormalEE7setAxisERKN5Eigen6MatrixIfLi3ELi1ELi0ELi3ELi1EEE@Base 1.6
 (optional=templinst)_ZN3pcl24SampleConsensusModelConeINS_12PointXYZRGBLENS_17PointXYZRGBNormalEEC1ERKN5boost10shared_ptrIKNS_10PointCloudIS1_EEEERKSt6vectorIiSaIiEE@Base 1.6
 (optional=templinst)_ZN3pcl24SampleConsensusModelConeINS_12PointXYZRGBLENS_17PointXYZRGBNormalEEC2ERKN5boost10shared_ptrIKNS_10PointCloudIS1_EEEERKSt6vectorIiSaIiEE@Base 1.6
 (optional=templinst)_ZN3pcl24SampleConsensusModelConeINS_12PointXYZRGBLENS_17PointXYZRGBNormalEED0Ev@Base 1.6
 (optional=templinst)_ZN3pcl24SampleConsensusModelConeINS_12PointXYZRGBLENS_17PointXYZRGBNormalEED1Ev@Base 1.6
 (optional=templinst)_ZN3pcl24SampleConsensusModelConeINS_12PointXYZRGBLENS_17PointXYZRGBNormalEED2Ev@Base 1.6
 (optional=templinst)_ZN3pcl24SampleConsensusModelConeINS_12PointXYZRGBLENS_6NormalEE7setAxisERKN5Eigen6MatrixIfLi3ELi1ELi0ELi3ELi1EEE@Base 1.6
 (optional=templinst)_ZN3pcl24SampleConsensusModelConeINS_12PointXYZRGBLENS_6NormalEEC1ERKN5boost10shared_ptrIKNS_10PointCloudIS1_EEEERKSt6vectorIiSaIiEE@Base 1.6
 (optional=templinst)_ZN3pcl24SampleConsensusModelConeINS_12PointXYZRGBLENS_6NormalEEC2ERKN5boost10shared_ptrIKNS_10PointCloudIS1_EEEERKSt6vectorIiSaIiEE@Base 1.6
 (optional=templinst)_ZN3pcl24SampleConsensusModelConeINS_12PointXYZRGBLENS_6NormalEED0Ev@Base 1.6
 (optional=templinst)_ZN3pcl24SampleConsensusModelConeINS_12PointXYZRGBLENS_6NormalEED1Ev@Base 1.6
 (optional=templinst)_ZN3pcl24SampleConsensusModelConeINS_12PointXYZRGBLENS_6NormalEED2Ev@Base 1.6
 (optional=templinst)_ZN3pcl24SampleConsensusModelConeINS_13InterestPointENS_11PointNormalEE7setAxisERKN5Eigen6MatrixIfLi3ELi1ELi0ELi3ELi1EEE@Base 1.6
 (optional=templinst)_ZN3pcl24SampleConsensusModelConeINS_13InterestPointENS_11PointNormalEEC1ERKN5boost10shared_ptrIKNS_10PointCloudIS1_EEEERKSt6vectorIiSaIiEE@Base 1.6
 (optional=templinst)_ZN3pcl24SampleConsensusModelConeINS_13InterestPointENS_11PointNormalEEC2ERKN5boost10shared_ptrIKNS_10PointCloudIS1_EEEERKSt6vectorIiSaIiEE@Base 1.6
 (optional=templinst)_ZN3pcl24SampleConsensusModelConeINS_13InterestPointENS_11PointNormalEED0Ev@Base 1.6
 (optional=templinst)_ZN3pcl24SampleConsensusModelConeINS_13InterestPointENS_11PointNormalEED1Ev@Base 1.6
 (optional=templinst)_ZN3pcl24SampleConsensusModelConeINS_13InterestPointENS_11PointNormalEED2Ev@Base 1.6
 (optional=templinst)_ZN3pcl24SampleConsensusModelConeINS_13InterestPointENS_15PointXYZINormalEE7setAxisERKN5Eigen6MatrixIfLi3ELi1ELi0ELi3ELi1EEE@Base 1.6
 (optional=templinst)_ZN3pcl24SampleConsensusModelConeINS_13InterestPointENS_15PointXYZINormalEEC1ERKN5boost10shared_ptrIKNS_10PointCloudIS1_EEEERKSt6vectorIiSaIiEE@Base 1.6
 (optional=templinst)_ZN3pcl24SampleConsensusModelConeINS_13InterestPointENS_15PointXYZINormalEEC2ERKN5boost10shared_ptrIKNS_10PointCloudIS1_EEEERKSt6vectorIiSaIiEE@Base 1.6
 (optional=templinst)_ZN3pcl24SampleConsensusModelConeINS_13InterestPointENS_15PointXYZINormalEED0Ev@Base 1.6
 (optional=templinst)_ZN3pcl24SampleConsensusModelConeINS_13InterestPointENS_15PointXYZINormalEED1Ev@Base 1.6
 (optional=templinst)_ZN3pcl24SampleConsensusModelConeINS_13InterestPointENS_15PointXYZINormalEED2Ev@Base 1.6
 (optional=templinst)_ZN3pcl24SampleConsensusModelConeINS_13InterestPointENS_17PointXYZRGBNormalEE7setAxisERKN5Eigen6MatrixIfLi3ELi1ELi0ELi3ELi1EEE@Base 1.6
 (optional=templinst)_ZN3pcl24SampleConsensusModelConeINS_13InterestPointENS_17PointXYZRGBNormalEEC1ERKN5boost10shared_ptrIKNS_10PointCloudIS1_EEEERKSt6vectorIiSaIiEE@Base 1.6
 (optional=templinst)_ZN3pcl24SampleConsensusModelConeINS_13InterestPointENS_17PointXYZRGBNormalEEC2ERKN5boost10shared_ptrIKNS_10PointCloudIS1_EEEERKSt6vectorIiSaIiEE@Base 1.6
 (optional=templinst)_ZN3pcl24SampleConsensusModelConeINS_13InterestPointENS_17PointXYZRGBNormalEED0Ev@Base 1.6
 (optional=templinst)_ZN3pcl24SampleConsensusModelConeINS_13InterestPointENS_17PointXYZRGBNormalEED1Ev@Base 1.6
 (optional=templinst)_ZN3pcl24SampleConsensusModelConeINS_13InterestPointENS_17PointXYZRGBNormalEED2Ev@Base 1.6
 (optional=templinst)_ZN3pcl24SampleConsensusModelConeINS_13InterestPointENS_6NormalEE7setAxisERKN5Eigen6MatrixIfLi3ELi1ELi0ELi3ELi1EEE@Base 1.6
 (optional=templinst)_ZN3pcl24SampleConsensusModelConeINS_13InterestPointENS_6NormalEEC1ERKN5boost10shared_ptrIKNS_10PointCloudIS1_EEEERKSt6vectorIiSaIiEE@Base 1.6
 (optional=templinst)_ZN3pcl24SampleConsensusModelConeINS_13InterestPointENS_6NormalEEC2ERKN5boost10shared_ptrIKNS_10PointCloudIS1_EEEERKSt6vectorIiSaIiEE@Base 1.6
 (optional=templinst)_ZN3pcl24SampleConsensusModelConeINS_13InterestPointENS_6NormalEED0Ev@Base 1.6
 (optional=templinst)_ZN3pcl24SampleConsensusModelConeINS_13InterestPointENS_6NormalEED1Ev@Base 1.6
 (optional=templinst)_ZN3pcl24SampleConsensusModelConeINS_13InterestPointENS_6NormalEED2Ev@Base 1.6
 (optional=templinst)_ZN3pcl24SampleConsensusModelConeINS_14PointWithRangeENS_11PointNormalEE7setAxisERKN5Eigen6MatrixIfLi3ELi1ELi0ELi3ELi1EEE@Base 1.6
 (optional=templinst)_ZN3pcl24SampleConsensusModelConeINS_14PointWithRangeENS_11PointNormalEEC1ERKN5boost10shared_ptrIKNS_10PointCloudIS1_EEEERKSt6vectorIiSaIiEE@Base 1.6
 (optional=templinst)_ZN3pcl24SampleConsensusModelConeINS_14PointWithRangeENS_11PointNormalEEC2ERKN5boost10shared_ptrIKNS_10PointCloudIS1_EEEERKSt6vectorIiSaIiEE@Base 1.6
 (optional=templinst)_ZN3pcl24SampleConsensusModelConeINS_14PointWithRangeENS_11PointNormalEED0Ev@Base 1.6
 (optional=templinst)_ZN3pcl24SampleConsensusModelConeINS_14PointWithRangeENS_11PointNormalEED1Ev@Base 1.6
 (optional=templinst)_ZN3pcl24SampleConsensusModelConeINS_14PointWithRangeENS_11PointNormalEED2Ev@Base 1.6
 (optional=templinst)_ZN3pcl24SampleConsensusModelConeINS_14PointWithRangeENS_15PointXYZINormalEE7setAxisERKN5Eigen6MatrixIfLi3ELi1ELi0ELi3ELi1EEE@Base 1.6
 (optional=templinst)_ZN3pcl24SampleConsensusModelConeINS_14PointWithRangeENS_15PointXYZINormalEEC1ERKN5boost10shared_ptrIKNS_10PointCloudIS1_EEEERKSt6vectorIiSaIiEE@Base 1.6
 (optional=templinst)_ZN3pcl24SampleConsensusModelConeINS_14PointWithRangeENS_15PointXYZINormalEEC2ERKN5boost10shared_ptrIKNS_10PointCloudIS1_EEEERKSt6vectorIiSaIiEE@Base 1.6
 (optional=templinst)_ZN3pcl24SampleConsensusModelConeINS_14PointWithRangeENS_15PointXYZINormalEED0Ev@Base 1.6
 (optional=templinst)_ZN3pcl24SampleConsensusModelConeINS_14PointWithRangeENS_15PointXYZINormalEED1Ev@Base 1.6
 (optional=templinst)_ZN3pcl24SampleConsensusModelConeINS_14PointWithRangeENS_15PointXYZINormalEED2Ev@Base 1.6
 (optional=templinst)_ZN3pcl24SampleConsensusModelConeINS_14PointWithRangeENS_17PointXYZRGBNormalEE7setAxisERKN5Eigen6MatrixIfLi3ELi1ELi0ELi3ELi1EEE@Base 1.6
 (optional=templinst)_ZN3pcl24SampleConsensusModelConeINS_14PointWithRangeENS_17PointXYZRGBNormalEEC1ERKN5boost10shared_ptrIKNS_10PointCloudIS1_EEEERKSt6vectorIiSaIiEE@Base 1.6
 (optional=templinst)_ZN3pcl24SampleConsensusModelConeINS_14PointWithRangeENS_17PointXYZRGBNormalEEC2ERKN5boost10shared_ptrIKNS_10PointCloudIS1_EEEERKSt6vectorIiSaIiEE@Base 1.6
 (optional=templinst)_ZN3pcl24SampleConsensusModelConeINS_14PointWithRangeENS_17PointXYZRGBNormalEED0Ev@Base 1.6
 (optional=templinst)_ZN3pcl24SampleConsensusModelConeINS_14PointWithRangeENS_17PointXYZRGBNormalEED1Ev@Base 1.6
 (optional=templinst)_ZN3pcl24SampleConsensusModelConeINS_14PointWithRangeENS_17PointXYZRGBNormalEED2Ev@Base 1.6
 (optional=templinst)_ZN3pcl24SampleConsensusModelConeINS_14PointWithRangeENS_6NormalEE7setAxisERKN5Eigen6MatrixIfLi3ELi1ELi0ELi3ELi1EEE@Base 1.6
 (optional=templinst)_ZN3pcl24SampleConsensusModelConeINS_14PointWithRangeENS_6NormalEEC1ERKN5boost10shared_ptrIKNS_10PointCloudIS1_EEEERKSt6vectorIiSaIiEE@Base 1.6
 (optional=templinst)_ZN3pcl24SampleConsensusModelConeINS_14PointWithRangeENS_6NormalEEC2ERKN5boost10shared_ptrIKNS_10PointCloudIS1_EEEERKSt6vectorIiSaIiEE@Base 1.6
 (optional=templinst)_ZN3pcl24SampleConsensusModelConeINS_14PointWithRangeENS_6NormalEED0Ev@Base 1.6
 (optional=templinst)_ZN3pcl24SampleConsensusModelConeINS_14PointWithRangeENS_6NormalEED1Ev@Base 1.6
 (optional=templinst)_ZN3pcl24SampleConsensusModelConeINS_14PointWithRangeENS_6NormalEED2Ev@Base 1.6
 (optional=templinst)_ZN3pcl24SampleConsensusModelConeINS_14PointWithScaleENS_11PointNormalEE7setAxisERKN5Eigen6MatrixIfLi3ELi1ELi0ELi3ELi1EEE@Base 1.6
 (optional=templinst)_ZN3pcl24SampleConsensusModelConeINS_14PointWithScaleENS_11PointNormalEEC1ERKN5boost10shared_ptrIKNS_10PointCloudIS1_EEEERKSt6vectorIiSaIiEE@Base 1.6
 (optional=templinst)_ZN3pcl24SampleConsensusModelConeINS_14PointWithScaleENS_11PointNormalEEC2ERKN5boost10shared_ptrIKNS_10PointCloudIS1_EEEERKSt6vectorIiSaIiEE@Base 1.6
 (optional=templinst)_ZN3pcl24SampleConsensusModelConeINS_14PointWithScaleENS_11PointNormalEED0Ev@Base 1.6
 (optional=templinst)_ZN3pcl24SampleConsensusModelConeINS_14PointWithScaleENS_11PointNormalEED1Ev@Base 1.6
 (optional=templinst)_ZN3pcl24SampleConsensusModelConeINS_14PointWithScaleENS_11PointNormalEED2Ev@Base 1.6
 (optional=templinst)_ZN3pcl24SampleConsensusModelConeINS_14PointWithScaleENS_15PointXYZINormalEE7setAxisERKN5Eigen6MatrixIfLi3ELi1ELi0ELi3ELi1EEE@Base 1.6
 (optional=templinst)_ZN3pcl24SampleConsensusModelConeINS_14PointWithScaleENS_15PointXYZINormalEEC1ERKN5boost10shared_ptrIKNS_10PointCloudIS1_EEEERKSt6vectorIiSaIiEE@Base 1.6
 (optional=templinst)_ZN3pcl24SampleConsensusModelConeINS_14PointWithScaleENS_15PointXYZINormalEEC2ERKN5boost10shared_ptrIKNS_10PointCloudIS1_EEEERKSt6vectorIiSaIiEE@Base 1.6
 (optional=templinst)_ZN3pcl24SampleConsensusModelConeINS_14PointWithScaleENS_15PointXYZINormalEED0Ev@Base 1.6
 (optional=templinst)_ZN3pcl24SampleConsensusModelConeINS_14PointWithScaleENS_15PointXYZINormalEED1Ev@Base 1.6
 (optional=templinst)_ZN3pcl24SampleConsensusModelConeINS_14PointWithScaleENS_15PointXYZINormalEED2Ev@Base 1.6
 (optional=templinst)_ZN3pcl24SampleConsensusModelConeINS_14PointWithScaleENS_17PointXYZRGBNormalEE7setAxisERKN5Eigen6MatrixIfLi3ELi1ELi0ELi3ELi1EEE@Base 1.6
 (optional=templinst)_ZN3pcl24SampleConsensusModelConeINS_14PointWithScaleENS_17PointXYZRGBNormalEEC1ERKN5boost10shared_ptrIKNS_10PointCloudIS1_EEEERKSt6vectorIiSaIiEE@Base 1.6
 (optional=templinst)_ZN3pcl24SampleConsensusModelConeINS_14PointWithScaleENS_17PointXYZRGBNormalEEC2ERKN5boost10shared_ptrIKNS_10PointCloudIS1_EEEERKSt6vectorIiSaIiEE@Base 1.6
 (optional=templinst)_ZN3pcl24SampleConsensusModelConeINS_14PointWithScaleENS_17PointXYZRGBNormalEED0Ev@Base 1.6
 (optional=templinst)_ZN3pcl24SampleConsensusModelConeINS_14PointWithScaleENS_17PointXYZRGBNormalEED1Ev@Base 1.6
 (optional=templinst)_ZN3pcl24SampleConsensusModelConeINS_14PointWithScaleENS_17PointXYZRGBNormalEED2Ev@Base 1.6
 (optional=templinst)_ZN3pcl24SampleConsensusModelConeINS_14PointWithScaleENS_6NormalEE7setAxisERKN5Eigen6MatrixIfLi3ELi1ELi0ELi3ELi1EEE@Base 1.6
 (optional=templinst)_ZN3pcl24SampleConsensusModelConeINS_14PointWithScaleENS_6NormalEEC1ERKN5boost10shared_ptrIKNS_10PointCloudIS1_EEEERKSt6vectorIiSaIiEE@Base 1.6
 (optional=templinst)_ZN3pcl24SampleConsensusModelConeINS_14PointWithScaleENS_6NormalEEC2ERKN5boost10shared_ptrIKNS_10PointCloudIS1_EEEERKSt6vectorIiSaIiEE@Base 1.6
 (optional=templinst)_ZN3pcl24SampleConsensusModelConeINS_14PointWithScaleENS_6NormalEED0Ev@Base 1.6
 (optional=templinst)_ZN3pcl24SampleConsensusModelConeINS_14PointWithScaleENS_6NormalEED1Ev@Base 1.6
 (optional=templinst)_ZN3pcl24SampleConsensusModelConeINS_14PointWithScaleENS_6NormalEED2Ev@Base 1.6
 (optional=templinst)_ZN3pcl24SampleConsensusModelConeINS_15PointXYZINormalENS_11PointNormalEE7setAxisERKN5Eigen6MatrixIfLi3ELi1ELi0ELi3ELi1EEE@Base 1.6
 (optional=templinst)_ZN3pcl24SampleConsensusModelConeINS_15PointXYZINormalENS_11PointNormalEEC1ERKN5boost10shared_ptrIKNS_10PointCloudIS1_EEEERKSt6vectorIiSaIiEE@Base 1.6
 (optional=templinst)_ZN3pcl24SampleConsensusModelConeINS_15PointXYZINormalENS_11PointNormalEEC2ERKN5boost10shared_ptrIKNS_10PointCloudIS1_EEEERKSt6vectorIiSaIiEE@Base 1.6
 (optional=templinst)_ZN3pcl24SampleConsensusModelConeINS_15PointXYZINormalENS_11PointNormalEED0Ev@Base 1.6
 (optional=templinst)_ZN3pcl24SampleConsensusModelConeINS_15PointXYZINormalENS_11PointNormalEED1Ev@Base 1.6
 (optional=templinst)_ZN3pcl24SampleConsensusModelConeINS_15PointXYZINormalENS_11PointNormalEED2Ev@Base 1.6
 (optional=templinst)_ZN3pcl24SampleConsensusModelConeINS_15PointXYZINormalENS_17PointXYZRGBNormalEE7setAxisERKN5Eigen6MatrixIfLi3ELi1ELi0ELi3ELi1EEE@Base 1.6
 (optional=templinst)_ZN3pcl24SampleConsensusModelConeINS_15PointXYZINormalENS_17PointXYZRGBNormalEEC1ERKN5boost10shared_ptrIKNS_10PointCloudIS1_EEEERKSt6vectorIiSaIiEE@Base 1.6
 (optional=templinst)_ZN3pcl24SampleConsensusModelConeINS_15PointXYZINormalENS_17PointXYZRGBNormalEEC2ERKN5boost10shared_ptrIKNS_10PointCloudIS1_EEEERKSt6vectorIiSaIiEE@Base 1.6
 (optional=templinst)_ZN3pcl24SampleConsensusModelConeINS_15PointXYZINormalENS_17PointXYZRGBNormalEED0Ev@Base 1.6
 (optional=templinst)_ZN3pcl24SampleConsensusModelConeINS_15PointXYZINormalENS_17PointXYZRGBNormalEED1Ev@Base 1.6
 (optional=templinst)_ZN3pcl24SampleConsensusModelConeINS_15PointXYZINormalENS_17PointXYZRGBNormalEED2Ev@Base 1.6
 (optional=templinst)_ZN3pcl24SampleConsensusModelConeINS_15PointXYZINormalENS_6NormalEE7setAxisERKN5Eigen6MatrixIfLi3ELi1ELi0ELi3ELi1EEE@Base 1.6
 (optional=templinst)_ZN3pcl24SampleConsensusModelConeINS_15PointXYZINormalENS_6NormalEEC1ERKN5boost10shared_ptrIKNS_10PointCloudIS1_EEEERKSt6vectorIiSaIiEE@Base 1.6
 (optional=templinst)_ZN3pcl24SampleConsensusModelConeINS_15PointXYZINormalENS_6NormalEEC2ERKN5boost10shared_ptrIKNS_10PointCloudIS1_EEEERKSt6vectorIiSaIiEE@Base 1.6
 (optional=templinst)_ZN3pcl24SampleConsensusModelConeINS_15PointXYZINormalENS_6NormalEED0Ev@Base 1.6
 (optional=templinst)_ZN3pcl24SampleConsensusModelConeINS_15PointXYZINormalENS_6NormalEED1Ev@Base 1.6
 (optional=templinst)_ZN3pcl24SampleConsensusModelConeINS_15PointXYZINormalENS_6NormalEED2Ev@Base 1.6
 (optional=templinst)_ZN3pcl24SampleConsensusModelConeINS_15PointXYZINormalES1_E7setAxisERKN5Eigen6MatrixIfLi3ELi1ELi0ELi3ELi1EEE@Base 1.6
 (optional=templinst)_ZN3pcl24SampleConsensusModelConeINS_15PointXYZINormalES1_EC1ERKN5boost10shared_ptrIKNS_10PointCloudIS1_EEEERKSt6vectorIiSaIiEE@Base 1.6
 (optional=templinst)_ZN3pcl24SampleConsensusModelConeINS_15PointXYZINormalES1_EC2ERKN5boost10shared_ptrIKNS_10PointCloudIS1_EEEERKSt6vectorIiSaIiEE@Base 1.6
 (optional=templinst)_ZN3pcl24SampleConsensusModelConeINS_15PointXYZINormalES1_ED0Ev@Base 1.6
 (optional=templinst)_ZN3pcl24SampleConsensusModelConeINS_15PointXYZINormalES1_ED1Ev@Base 1.6
 (optional=templinst)_ZN3pcl24SampleConsensusModelConeINS_15PointXYZINormalES1_ED2Ev@Base 1.6
 (optional=templinst)_ZN3pcl24SampleConsensusModelConeINS_17PointXYZRGBNormalENS_11PointNormalEE7setAxisERKN5Eigen6MatrixIfLi3ELi1ELi0ELi3ELi1EEE@Base 1.6
 (optional=templinst)_ZN3pcl24SampleConsensusModelConeINS_17PointXYZRGBNormalENS_11PointNormalEEC1ERKN5boost10shared_ptrIKNS_10PointCloudIS1_EEEERKSt6vectorIiSaIiEE@Base 1.6
 (optional=templinst)_ZN3pcl24SampleConsensusModelConeINS_17PointXYZRGBNormalENS_11PointNormalEEC2ERKN5boost10shared_ptrIKNS_10PointCloudIS1_EEEERKSt6vectorIiSaIiEE@Base 1.6
 (optional=templinst)_ZN3pcl24SampleConsensusModelConeINS_17PointXYZRGBNormalENS_11PointNormalEED0Ev@Base 1.6
 (optional=templinst)_ZN3pcl24SampleConsensusModelConeINS_17PointXYZRGBNormalENS_11PointNormalEED1Ev@Base 1.6
 (optional=templinst)_ZN3pcl24SampleConsensusModelConeINS_17PointXYZRGBNormalENS_11PointNormalEED2Ev@Base 1.6
 (optional=templinst)_ZN3pcl24SampleConsensusModelConeINS_17PointXYZRGBNormalENS_15PointXYZINormalEE7setAxisERKN5Eigen6MatrixIfLi3ELi1ELi0ELi3ELi1EEE@Base 1.6
 (optional=templinst)_ZN3pcl24SampleConsensusModelConeINS_17PointXYZRGBNormalENS_15PointXYZINormalEEC1ERKN5boost10shared_ptrIKNS_10PointCloudIS1_EEEERKSt6vectorIiSaIiEE@Base 1.6
 (optional=templinst)_ZN3pcl24SampleConsensusModelConeINS_17PointXYZRGBNormalENS_15PointXYZINormalEEC2ERKN5boost10shared_ptrIKNS_10PointCloudIS1_EEEERKSt6vectorIiSaIiEE@Base 1.6
 (optional=templinst)_ZN3pcl24SampleConsensusModelConeINS_17PointXYZRGBNormalENS_15PointXYZINormalEED0Ev@Base 1.6
 (optional=templinst)_ZN3pcl24SampleConsensusModelConeINS_17PointXYZRGBNormalENS_15PointXYZINormalEED1Ev@Base 1.6
 (optional=templinst)_ZN3pcl24SampleConsensusModelConeINS_17PointXYZRGBNormalENS_15PointXYZINormalEED2Ev@Base 1.6
 (optional=templinst)_ZN3pcl24SampleConsensusModelConeINS_17PointXYZRGBNormalENS_6NormalEE7setAxisERKN5Eigen6MatrixIfLi3ELi1ELi0ELi3ELi1EEE@Base 1.6
 (optional=templinst)_ZN3pcl24SampleConsensusModelConeINS_17PointXYZRGBNormalENS_6NormalEEC1ERKN5boost10shared_ptrIKNS_10PointCloudIS1_EEEERKSt6vectorIiSaIiEE@Base 1.6
 (optional=templinst)_ZN3pcl24SampleConsensusModelConeINS_17PointXYZRGBNormalENS_6NormalEEC2ERKN5boost10shared_ptrIKNS_10PointCloudIS1_EEEERKSt6vectorIiSaIiEE@Base 1.6
 (optional=templinst)_ZN3pcl24SampleConsensusModelConeINS_17PointXYZRGBNormalENS_6NormalEED0Ev@Base 1.6
 (optional=templinst)_ZN3pcl24SampleConsensusModelConeINS_17PointXYZRGBNormalENS_6NormalEED1Ev@Base 1.6
 (optional=templinst)_ZN3pcl24SampleConsensusModelConeINS_17PointXYZRGBNormalENS_6NormalEED2Ev@Base 1.6
 (optional=templinst)_ZN3pcl24SampleConsensusModelConeINS_17PointXYZRGBNormalES1_E7setAxisERKN5Eigen6MatrixIfLi3ELi1ELi0ELi3ELi1EEE@Base 1.6
 (optional=templinst)_ZN3pcl24SampleConsensusModelConeINS_17PointXYZRGBNormalES1_EC1ERKN5boost10shared_ptrIKNS_10PointCloudIS1_EEEERKSt6vectorIiSaIiEE@Base 1.6
 (optional=templinst)_ZN3pcl24SampleConsensusModelConeINS_17PointXYZRGBNormalES1_EC2ERKN5boost10shared_ptrIKNS_10PointCloudIS1_EEEERKSt6vectorIiSaIiEE@Base 1.6
 (optional=templinst)_ZN3pcl24SampleConsensusModelConeINS_17PointXYZRGBNormalES1_ED0Ev@Base 1.6
 (optional=templinst)_ZN3pcl24SampleConsensusModelConeINS_17PointXYZRGBNormalES1_ED1Ev@Base 1.6
 (optional=templinst)_ZN3pcl24SampleConsensusModelConeINS_17PointXYZRGBNormalES1_ED2Ev@Base 1.6
 (optional=templinst)_ZN3pcl24SampleConsensusModelConeINS_18PointWithViewpointENS_11PointNormalEE7setAxisERKN5Eigen6MatrixIfLi3ELi1ELi0ELi3ELi1EEE@Base 1.6
 (optional=templinst)_ZN3pcl24SampleConsensusModelConeINS_18PointWithViewpointENS_11PointNormalEEC1ERKN5boost10shared_ptrIKNS_10PointCloudIS1_EEEERKSt6vectorIiSaIiEE@Base 1.6
 (optional=templinst)_ZN3pcl24SampleConsensusModelConeINS_18PointWithViewpointENS_11PointNormalEEC2ERKN5boost10shared_ptrIKNS_10PointCloudIS1_EEEERKSt6vectorIiSaIiEE@Base 1.6
 (optional=templinst)_ZN3pcl24SampleConsensusModelConeINS_18PointWithViewpointENS_11PointNormalEED0Ev@Base 1.6
 (optional=templinst)_ZN3pcl24SampleConsensusModelConeINS_18PointWithViewpointENS_11PointNormalEED1Ev@Base 1.6
 (optional=templinst)_ZN3pcl24SampleConsensusModelConeINS_18PointWithViewpointENS_11PointNormalEED2Ev@Base 1.6
 (optional=templinst)_ZN3pcl24SampleConsensusModelConeINS_18PointWithViewpointENS_15PointXYZINormalEE7setAxisERKN5Eigen6MatrixIfLi3ELi1ELi0ELi3ELi1EEE@Base 1.6
 (optional=templinst)_ZN3pcl24SampleConsensusModelConeINS_18PointWithViewpointENS_15PointXYZINormalEEC1ERKN5boost10shared_ptrIKNS_10PointCloudIS1_EEEERKSt6vectorIiSaIiEE@Base 1.6
 (optional=templinst)_ZN3pcl24SampleConsensusModelConeINS_18PointWithViewpointENS_15PointXYZINormalEEC2ERKN5boost10shared_ptrIKNS_10PointCloudIS1_EEEERKSt6vectorIiSaIiEE@Base 1.6
 (optional=templinst)_ZN3pcl24SampleConsensusModelConeINS_18PointWithViewpointENS_15PointXYZINormalEED0Ev@Base 1.6
 (optional=templinst)_ZN3pcl24SampleConsensusModelConeINS_18PointWithViewpointENS_15PointXYZINormalEED1Ev@Base 1.6
 (optional=templinst)_ZN3pcl24SampleConsensusModelConeINS_18PointWithViewpointENS_15PointXYZINormalEED2Ev@Base 1.6
 (optional=templinst)_ZN3pcl24SampleConsensusModelConeINS_18PointWithViewpointENS_17PointXYZRGBNormalEE7setAxisERKN5Eigen6MatrixIfLi3ELi1ELi0ELi3ELi1EEE@Base 1.6
 (optional=templinst)_ZN3pcl24SampleConsensusModelConeINS_18PointWithViewpointENS_17PointXYZRGBNormalEEC1ERKN5boost10shared_ptrIKNS_10PointCloudIS1_EEEERKSt6vectorIiSaIiEE@Base 1.6
 (optional=templinst)_ZN3pcl24SampleConsensusModelConeINS_18PointWithViewpointENS_17PointXYZRGBNormalEEC2ERKN5boost10shared_ptrIKNS_10PointCloudIS1_EEEERKSt6vectorIiSaIiEE@Base 1.6
 (optional=templinst)_ZN3pcl24SampleConsensusModelConeINS_18PointWithViewpointENS_17PointXYZRGBNormalEED0Ev@Base 1.6
 (optional=templinst)_ZN3pcl24SampleConsensusModelConeINS_18PointWithViewpointENS_17PointXYZRGBNormalEED1Ev@Base 1.6
 (optional=templinst)_ZN3pcl24SampleConsensusModelConeINS_18PointWithViewpointENS_17PointXYZRGBNormalEED2Ev@Base 1.6
 (optional=templinst)_ZN3pcl24SampleConsensusModelConeINS_18PointWithViewpointENS_6NormalEE7setAxisERKN5Eigen6MatrixIfLi3ELi1ELi0ELi3ELi1EEE@Base 1.6
 (optional=templinst)_ZN3pcl24SampleConsensusModelConeINS_18PointWithViewpointENS_6NormalEEC1ERKN5boost10shared_ptrIKNS_10PointCloudIS1_EEEERKSt6vectorIiSaIiEE@Base 1.6
 (optional=templinst)_ZN3pcl24SampleConsensusModelConeINS_18PointWithViewpointENS_6NormalEEC2ERKN5boost10shared_ptrIKNS_10PointCloudIS1_EEEERKSt6vectorIiSaIiEE@Base 1.6
 (optional=templinst)_ZN3pcl24SampleConsensusModelConeINS_18PointWithViewpointENS_6NormalEED0Ev@Base 1.6
 (optional=templinst)_ZN3pcl24SampleConsensusModelConeINS_18PointWithViewpointENS_6NormalEED1Ev@Base 1.6
 (optional=templinst)_ZN3pcl24SampleConsensusModelConeINS_18PointWithViewpointENS_6NormalEED2Ev@Base 1.6
 (optional=templinst)_ZN3pcl24SampleConsensusModelConeINS_8PointXYZENS_11PointNormalEE7setAxisERKN5Eigen6MatrixIfLi3ELi1ELi0ELi3ELi1EEE@Base 1.6
 (optional=templinst)_ZN3pcl24SampleConsensusModelConeINS_8PointXYZENS_11PointNormalEEC1ERKN5boost10shared_ptrIKNS_10PointCloudIS1_EEEERKSt6vectorIiSaIiEE@Base 1.6
 (optional=templinst)_ZN3pcl24SampleConsensusModelConeINS_8PointXYZENS_11PointNormalEEC2ERKN5boost10shared_ptrIKNS_10PointCloudIS1_EEEERKSt6vectorIiSaIiEE@Base 1.6
 (optional=templinst)_ZN3pcl24SampleConsensusModelConeINS_8PointXYZENS_11PointNormalEED0Ev@Base 1.6
 (optional=templinst)_ZN3pcl24SampleConsensusModelConeINS_8PointXYZENS_11PointNormalEED1Ev@Base 1.6
 (optional=templinst)_ZN3pcl24SampleConsensusModelConeINS_8PointXYZENS_11PointNormalEED2Ev@Base 1.6
 (optional=templinst)_ZN3pcl24SampleConsensusModelConeINS_8PointXYZENS_15PointXYZINormalEE7setAxisERKN5Eigen6MatrixIfLi3ELi1ELi0ELi3ELi1EEE@Base 1.6
 (optional=templinst)_ZN3pcl24SampleConsensusModelConeINS_8PointXYZENS_15PointXYZINormalEEC1ERKN5boost10shared_ptrIKNS_10PointCloudIS1_EEEERKSt6vectorIiSaIiEE@Base 1.6
 (optional=templinst)_ZN3pcl24SampleConsensusModelConeINS_8PointXYZENS_15PointXYZINormalEEC2ERKN5boost10shared_ptrIKNS_10PointCloudIS1_EEEERKSt6vectorIiSaIiEE@Base 1.6
 (optional=templinst)_ZN3pcl24SampleConsensusModelConeINS_8PointXYZENS_15PointXYZINormalEED0Ev@Base 1.6
 (optional=templinst)_ZN3pcl24SampleConsensusModelConeINS_8PointXYZENS_15PointXYZINormalEED1Ev@Base 1.6
 (optional=templinst)_ZN3pcl24SampleConsensusModelConeINS_8PointXYZENS_15PointXYZINormalEED2Ev@Base 1.6
 (optional=templinst)_ZN3pcl24SampleConsensusModelConeINS_8PointXYZENS_17PointXYZRGBNormalEE7setAxisERKN5Eigen6MatrixIfLi3ELi1ELi0ELi3ELi1EEE@Base 1.6
 (optional=templinst)_ZN3pcl24SampleConsensusModelConeINS_8PointXYZENS_17PointXYZRGBNormalEEC1ERKN5boost10shared_ptrIKNS_10PointCloudIS1_EEEERKSt6vectorIiSaIiEE@Base 1.6
 (optional=templinst)_ZN3pcl24SampleConsensusModelConeINS_8PointXYZENS_17PointXYZRGBNormalEEC2ERKN5boost10shared_ptrIKNS_10PointCloudIS1_EEEERKSt6vectorIiSaIiEE@Base 1.6
 (optional=templinst)_ZN3pcl24SampleConsensusModelConeINS_8PointXYZENS_17PointXYZRGBNormalEED0Ev@Base 1.6
 (optional=templinst)_ZN3pcl24SampleConsensusModelConeINS_8PointXYZENS_17PointXYZRGBNormalEED1Ev@Base 1.6
 (optional=templinst)_ZN3pcl24SampleConsensusModelConeINS_8PointXYZENS_17PointXYZRGBNormalEED2Ev@Base 1.6
 (optional=templinst)_ZN3pcl24SampleConsensusModelConeINS_8PointXYZENS_6NormalEE7setAxisERKN5Eigen6MatrixIfLi3ELi1ELi0ELi3ELi1EEE@Base 1.6
 (optional=templinst)_ZN3pcl24SampleConsensusModelConeINS_8PointXYZENS_6NormalEEC1ERKN5boost10shared_ptrIKNS_10PointCloudIS1_EEEERKSt6vectorIiSaIiEE@Base 1.6
 (optional=templinst)_ZN3pcl24SampleConsensusModelConeINS_8PointXYZENS_6NormalEEC2ERKN5boost10shared_ptrIKNS_10PointCloudIS1_EEEERKSt6vectorIiSaIiEE@Base 1.6
 (optional=templinst)_ZN3pcl24SampleConsensusModelConeINS_8PointXYZENS_6NormalEED0Ev@Base 1.6
 (optional=templinst)_ZN3pcl24SampleConsensusModelConeINS_8PointXYZENS_6NormalEED1Ev@Base 1.6
 (optional=templinst)_ZN3pcl24SampleConsensusModelConeINS_8PointXYZENS_6NormalEED2Ev@Base 1.6
 (optional=templinst)_ZN3pcl24SampleConsensusModelConeINS_9PointXYZIENS_11PointNormalEE7setAxisERKN5Eigen6MatrixIfLi3ELi1ELi0ELi3ELi1EEE@Base 1.6
 (optional=templinst)_ZN3pcl24SampleConsensusModelConeINS_9PointXYZIENS_11PointNormalEEC1ERKN5boost10shared_ptrIKNS_10PointCloudIS1_EEEERKSt6vectorIiSaIiEE@Base 1.6
 (optional=templinst)_ZN3pcl24SampleConsensusModelConeINS_9PointXYZIENS_11PointNormalEEC2ERKN5boost10shared_ptrIKNS_10PointCloudIS1_EEEERKSt6vectorIiSaIiEE@Base 1.6
 (optional=templinst)_ZN3pcl24SampleConsensusModelConeINS_9PointXYZIENS_11PointNormalEED0Ev@Base 1.6
 (optional=templinst)_ZN3pcl24SampleConsensusModelConeINS_9PointXYZIENS_11PointNormalEED1Ev@Base 1.6
 (optional=templinst)_ZN3pcl24SampleConsensusModelConeINS_9PointXYZIENS_11PointNormalEED2Ev@Base 1.6
 (optional=templinst)_ZN3pcl24SampleConsensusModelConeINS_9PointXYZIENS_15PointXYZINormalEE7setAxisERKN5Eigen6MatrixIfLi3ELi1ELi0ELi3ELi1EEE@Base 1.6
 (optional=templinst)_ZN3pcl24SampleConsensusModelConeINS_9PointXYZIENS_15PointXYZINormalEEC1ERKN5boost10shared_ptrIKNS_10PointCloudIS1_EEEERKSt6vectorIiSaIiEE@Base 1.6
 (optional=templinst)_ZN3pcl24SampleConsensusModelConeINS_9PointXYZIENS_15PointXYZINormalEEC2ERKN5boost10shared_ptrIKNS_10PointCloudIS1_EEEERKSt6vectorIiSaIiEE@Base 1.6
 (optional=templinst)_ZN3pcl24SampleConsensusModelConeINS_9PointXYZIENS_15PointXYZINormalEED0Ev@Base 1.6
 (optional=templinst)_ZN3pcl24SampleConsensusModelConeINS_9PointXYZIENS_15PointXYZINormalEED1Ev@Base 1.6
 (optional=templinst)_ZN3pcl24SampleConsensusModelConeINS_9PointXYZIENS_15PointXYZINormalEED2Ev@Base 1.6
 (optional=templinst)_ZN3pcl24SampleConsensusModelConeINS_9PointXYZIENS_17PointXYZRGBNormalEE7setAxisERKN5Eigen6MatrixIfLi3ELi1ELi0ELi3ELi1EEE@Base 1.6
 (optional=templinst)_ZN3pcl24SampleConsensusModelConeINS_9PointXYZIENS_17PointXYZRGBNormalEEC1ERKN5boost10shared_ptrIKNS_10PointCloudIS1_EEEERKSt6vectorIiSaIiEE@Base 1.6
 (optional=templinst)_ZN3pcl24SampleConsensusModelConeINS_9PointXYZIENS_17PointXYZRGBNormalEEC2ERKN5boost10shared_ptrIKNS_10PointCloudIS1_EEEERKSt6vectorIiSaIiEE@Base 1.6
 (optional=templinst)_ZN3pcl24SampleConsensusModelConeINS_9PointXYZIENS_17PointXYZRGBNormalEED0Ev@Base 1.6
 (optional=templinst)_ZN3pcl24SampleConsensusModelConeINS_9PointXYZIENS_17PointXYZRGBNormalEED1Ev@Base 1.6
 (optional=templinst)_ZN3pcl24SampleConsensusModelConeINS_9PointXYZIENS_17PointXYZRGBNormalEED2Ev@Base 1.6
 (optional=templinst)_ZN3pcl24SampleConsensusModelConeINS_9PointXYZIENS_6NormalEE7setAxisERKN5Eigen6MatrixIfLi3ELi1ELi0ELi3ELi1EEE@Base 1.6
 (optional=templinst)_ZN3pcl24SampleConsensusModelConeINS_9PointXYZIENS_6NormalEEC1ERKN5boost10shared_ptrIKNS_10PointCloudIS1_EEEERKSt6vectorIiSaIiEE@Base 1.6
 (optional=templinst)_ZN3pcl24SampleConsensusModelConeINS_9PointXYZIENS_6NormalEEC2ERKN5boost10shared_ptrIKNS_10PointCloudIS1_EEEERKSt6vectorIiSaIiEE@Base 1.6
 (optional=templinst)_ZN3pcl24SampleConsensusModelConeINS_9PointXYZIENS_6NormalEED0Ev@Base 1.6
 (optional=templinst)_ZN3pcl24SampleConsensusModelConeINS_9PointXYZIENS_6NormalEED1Ev@Base 1.6
 (optional=templinst)_ZN3pcl24SampleConsensusModelConeINS_9PointXYZIENS_6NormalEED2Ev@Base 1.6
 (optional=templinst)_ZN3pcl24SampleConsensusModelConeINS_9PointXYZLENS_11PointNormalEE7setAxisERKN5Eigen6MatrixIfLi3ELi1ELi0ELi3ELi1EEE@Base 1.6
 (optional=templinst)_ZN3pcl24SampleConsensusModelConeINS_9PointXYZLENS_11PointNormalEEC1ERKN5boost10shared_ptrIKNS_10PointCloudIS1_EEEERKSt6vectorIiSaIiEE@Base 1.6
 (optional=templinst)_ZN3pcl24SampleConsensusModelConeINS_9PointXYZLENS_11PointNormalEEC2ERKN5boost10shared_ptrIKNS_10PointCloudIS1_EEEERKSt6vectorIiSaIiEE@Base 1.6
 (optional=templinst)_ZN3pcl24SampleConsensusModelConeINS_9PointXYZLENS_11PointNormalEED0Ev@Base 1.6
 (optional=templinst)_ZN3pcl24SampleConsensusModelConeINS_9PointXYZLENS_11PointNormalEED1Ev@Base 1.6
 (optional=templinst)_ZN3pcl24SampleConsensusModelConeINS_9PointXYZLENS_11PointNormalEED2Ev@Base 1.6
 (optional=templinst)_ZN3pcl24SampleConsensusModelConeINS_9PointXYZLENS_15PointXYZINormalEE7setAxisERKN5Eigen6MatrixIfLi3ELi1ELi0ELi3ELi1EEE@Base 1.6
 (optional=templinst)_ZN3pcl24SampleConsensusModelConeINS_9PointXYZLENS_15PointXYZINormalEEC1ERKN5boost10shared_ptrIKNS_10PointCloudIS1_EEEERKSt6vectorIiSaIiEE@Base 1.6
 (optional=templinst)_ZN3pcl24SampleConsensusModelConeINS_9PointXYZLENS_15PointXYZINormalEEC2ERKN5boost10shared_ptrIKNS_10PointCloudIS1_EEEERKSt6vectorIiSaIiEE@Base 1.6
 (optional=templinst)_ZN3pcl24SampleConsensusModelConeINS_9PointXYZLENS_15PointXYZINormalEED0Ev@Base 1.6
 (optional=templinst)_ZN3pcl24SampleConsensusModelConeINS_9PointXYZLENS_15PointXYZINormalEED1Ev@Base 1.6
 (optional=templinst)_ZN3pcl24SampleConsensusModelConeINS_9PointXYZLENS_15PointXYZINormalEED2Ev@Base 1.6
 (optional=templinst)_ZN3pcl24SampleConsensusModelConeINS_9PointXYZLENS_17PointXYZRGBNormalEE7setAxisERKN5Eigen6MatrixIfLi3ELi1ELi0ELi3ELi1EEE@Base 1.6
 (optional=templinst)_ZN3pcl24SampleConsensusModelConeINS_9PointXYZLENS_17PointXYZRGBNormalEEC1ERKN5boost10shared_ptrIKNS_10PointCloudIS1_EEEERKSt6vectorIiSaIiEE@Base 1.6
 (optional=templinst)_ZN3pcl24SampleConsensusModelConeINS_9PointXYZLENS_17PointXYZRGBNormalEEC2ERKN5boost10shared_ptrIKNS_10PointCloudIS1_EEEERKSt6vectorIiSaIiEE@Base 1.6
 (optional=templinst)_ZN3pcl24SampleConsensusModelConeINS_9PointXYZLENS_17PointXYZRGBNormalEED0Ev@Base 1.6
 (optional=templinst)_ZN3pcl24SampleConsensusModelConeINS_9PointXYZLENS_17PointXYZRGBNormalEED1Ev@Base 1.6
 (optional=templinst)_ZN3pcl24SampleConsensusModelConeINS_9PointXYZLENS_17PointXYZRGBNormalEED2Ev@Base 1.6
 (optional=templinst)_ZN3pcl24SampleConsensusModelConeINS_9PointXYZLENS_6NormalEE7setAxisERKN5Eigen6MatrixIfLi3ELi1ELi0ELi3ELi1EEE@Base 1.6
 (optional=templinst)_ZN3pcl24SampleConsensusModelConeINS_9PointXYZLENS_6NormalEEC1ERKN5boost10shared_ptrIKNS_10PointCloudIS1_EEEERKSt6vectorIiSaIiEE@Base 1.6
 (optional=templinst)_ZN3pcl24SampleConsensusModelConeINS_9PointXYZLENS_6NormalEEC2ERKN5boost10shared_ptrIKNS_10PointCloudIS1_EEEERKSt6vectorIiSaIiEE@Base 1.6
 (optional=templinst)_ZN3pcl24SampleConsensusModelConeINS_9PointXYZLENS_6NormalEED0Ev@Base 1.6
 (optional=templinst)_ZN3pcl24SampleConsensusModelConeINS_9PointXYZLENS_6NormalEED1Ev@Base 1.6
 (optional=templinst)_ZN3pcl24SampleConsensusModelConeINS_9PointXYZLENS_6NormalEED2Ev@Base 1.6
 (optional=templinst)_ZN3pcl24SampleConsensusModelLineINS_11PointNormalEE12isModelValidERKN5Eigen6MatrixIfLin1ELi1ELi0ELin1ELi1EEE@Base 1.6
 (optional=templinst)_ZN3pcl24SampleConsensusModelLineINS_11PointNormalEED0Ev@Base 1.6
 (optional=templinst)_ZN3pcl24SampleConsensusModelLineINS_11PointNormalEED1Ev@Base 1.6
 (optional=templinst)_ZN3pcl24SampleConsensusModelLineINS_11PointNormalEED2Ev@Base 1.6
 (optional=templinst)_ZN3pcl24SampleConsensusModelLineINS_11PointXYZHSVEE12isModelValidERKN5Eigen6MatrixIfLin1ELi1ELi0ELin1ELi1EEE@Base 1.6
 (optional=templinst)_ZN3pcl24SampleConsensusModelLineINS_11PointXYZHSVEED0Ev@Base 1.6
 (optional=templinst)_ZN3pcl24SampleConsensusModelLineINS_11PointXYZHSVEED1Ev@Base 1.6
 (optional=templinst)_ZN3pcl24SampleConsensusModelLineINS_11PointXYZHSVEED2Ev@Base 1.6
 (optional=templinst)_ZN3pcl24SampleConsensusModelLineINS_11PointXYZRGBEE12isModelValidERKN5Eigen6MatrixIfLin1ELi1ELi0ELin1ELi1EEE@Base 1.6
 (optional=templinst)_ZN3pcl24SampleConsensusModelLineINS_11PointXYZRGBEED0Ev@Base 1.6
 (optional=templinst)_ZN3pcl24SampleConsensusModelLineINS_11PointXYZRGBEED1Ev@Base 1.6
 (optional=templinst)_ZN3pcl24SampleConsensusModelLineINS_11PointXYZRGBEED2Ev@Base 1.6
 (optional=templinst)_ZN3pcl24SampleConsensusModelLineINS_12PointXYZRGBAEE12isModelValidERKN5Eigen6MatrixIfLin1ELi1ELi0ELin1ELi1EEE@Base 1.6
 (optional=templinst)_ZN3pcl24SampleConsensusModelLineINS_12PointXYZRGBAEED0Ev@Base 1.6
 (optional=templinst)_ZN3pcl24SampleConsensusModelLineINS_12PointXYZRGBAEED1Ev@Base 1.6
 (optional=templinst)_ZN3pcl24SampleConsensusModelLineINS_12PointXYZRGBAEED2Ev@Base 1.6
 (optional=templinst)_ZN3pcl24SampleConsensusModelLineINS_12PointXYZRGBLEE12isModelValidERKN5Eigen6MatrixIfLin1ELi1ELi0ELin1ELi1EEE@Base 1.6
 (optional=templinst)_ZN3pcl24SampleConsensusModelLineINS_12PointXYZRGBLEED0Ev@Base 1.6
 (optional=templinst)_ZN3pcl24SampleConsensusModelLineINS_12PointXYZRGBLEED1Ev@Base 1.6
 (optional=templinst)_ZN3pcl24SampleConsensusModelLineINS_12PointXYZRGBLEED2Ev@Base 1.6
 (optional=templinst)_ZN3pcl24SampleConsensusModelLineINS_13InterestPointEE12isModelValidERKN5Eigen6MatrixIfLin1ELi1ELi0ELin1ELi1EEE@Base 1.6
 (optional=templinst)_ZN3pcl24SampleConsensusModelLineINS_13InterestPointEED0Ev@Base 1.6
 (optional=templinst)_ZN3pcl24SampleConsensusModelLineINS_13InterestPointEED1Ev@Base 1.6
 (optional=templinst)_ZN3pcl24SampleConsensusModelLineINS_13InterestPointEED2Ev@Base 1.6
 (optional=templinst)_ZN3pcl24SampleConsensusModelLineINS_14PointWithRangeEE12isModelValidERKN5Eigen6MatrixIfLin1ELi1ELi0ELin1ELi1EEE@Base 1.6
 (optional=templinst)_ZN3pcl24SampleConsensusModelLineINS_14PointWithRangeEED0Ev@Base 1.6
 (optional=templinst)_ZN3pcl24SampleConsensusModelLineINS_14PointWithRangeEED1Ev@Base 1.6
 (optional=templinst)_ZN3pcl24SampleConsensusModelLineINS_14PointWithRangeEED2Ev@Base 1.6
 (optional=templinst)_ZN3pcl24SampleConsensusModelLineINS_14PointWithScaleEE12isModelValidERKN5Eigen6MatrixIfLin1ELi1ELi0ELin1ELi1EEE@Base 1.6
 (optional=templinst)_ZN3pcl24SampleConsensusModelLineINS_14PointWithScaleEED0Ev@Base 1.6
 (optional=templinst)_ZN3pcl24SampleConsensusModelLineINS_14PointWithScaleEED1Ev@Base 1.6
 (optional=templinst)_ZN3pcl24SampleConsensusModelLineINS_14PointWithScaleEED2Ev@Base 1.6
 (optional=templinst)_ZN3pcl24SampleConsensusModelLineINS_15PointXYZINormalEE12isModelValidERKN5Eigen6MatrixIfLin1ELi1ELi0ELin1ELi1EEE@Base 1.6
 (optional=templinst)_ZN3pcl24SampleConsensusModelLineINS_15PointXYZINormalEED0Ev@Base 1.6
 (optional=templinst)_ZN3pcl24SampleConsensusModelLineINS_15PointXYZINormalEED1Ev@Base 1.6
 (optional=templinst)_ZN3pcl24SampleConsensusModelLineINS_15PointXYZINormalEED2Ev@Base 1.6
 (optional=templinst)_ZN3pcl24SampleConsensusModelLineINS_17PointXYZRGBNormalEE12isModelValidERKN5Eigen6MatrixIfLin1ELi1ELi0ELin1ELi1EEE@Base 1.6
 (optional=templinst)_ZN3pcl24SampleConsensusModelLineINS_17PointXYZRGBNormalEED0Ev@Base 1.6
 (optional=templinst)_ZN3pcl24SampleConsensusModelLineINS_17PointXYZRGBNormalEED1Ev@Base 1.6
 (optional=templinst)_ZN3pcl24SampleConsensusModelLineINS_17PointXYZRGBNormalEED2Ev@Base 1.6
 (optional=templinst)_ZN3pcl24SampleConsensusModelLineINS_18PointWithViewpointEE12isModelValidERKN5Eigen6MatrixIfLin1ELi1ELi0ELin1ELi1EEE@Base 1.6
 (optional=templinst)_ZN3pcl24SampleConsensusModelLineINS_18PointWithViewpointEED0Ev@Base 1.6
 (optional=templinst)_ZN3pcl24SampleConsensusModelLineINS_18PointWithViewpointEED1Ev@Base 1.6
 (optional=templinst)_ZN3pcl24SampleConsensusModelLineINS_18PointWithViewpointEED2Ev@Base 1.6
 (optional=templinst)_ZN3pcl24SampleConsensusModelLineINS_8PointXYZEE12isModelValidERKN5Eigen6MatrixIfLin1ELi1ELi0ELin1ELi1EEE@Base 1.6
 (optional=templinst)_ZN3pcl24SampleConsensusModelLineINS_8PointXYZEED0Ev@Base 1.6
 (optional=templinst)_ZN3pcl24SampleConsensusModelLineINS_8PointXYZEED1Ev@Base 1.6
 (optional=templinst)_ZN3pcl24SampleConsensusModelLineINS_8PointXYZEED2Ev@Base 1.6
 (optional=templinst)_ZN3pcl24SampleConsensusModelLineINS_9PointXYZIEE12isModelValidERKN5Eigen6MatrixIfLin1ELi1ELi0ELin1ELi1EEE@Base 1.6
 (optional=templinst)_ZN3pcl24SampleConsensusModelLineINS_9PointXYZIEED0Ev@Base 1.6
 (optional=templinst)_ZN3pcl24SampleConsensusModelLineINS_9PointXYZIEED1Ev@Base 1.6
 (optional=templinst)_ZN3pcl24SampleConsensusModelLineINS_9PointXYZIEED2Ev@Base 1.6
 (optional=templinst)_ZN3pcl24SampleConsensusModelLineINS_9PointXYZLEE12isModelValidERKN5Eigen6MatrixIfLin1ELi1ELi0ELin1ELi1EEE@Base 1.6
 (optional=templinst)_ZN3pcl24SampleConsensusModelLineINS_9PointXYZLEED0Ev@Base 1.6
 (optional=templinst)_ZN3pcl24SampleConsensusModelLineINS_9PointXYZLEED1Ev@Base 1.6
 (optional=templinst)_ZN3pcl24SampleConsensusModelLineINS_9PointXYZLEED2Ev@Base 1.6
 (optional=templinst)_ZN3pcl24extractEuclideanClustersINS_11PointNormalEEEvRKNS_10PointCloudIT_EERKN5boost10shared_ptrINS_6search6SearchIS3_EEEEfRSt6vectorINS_12PointIndicesESaISG_EEjj@Base 1.6
 (optional=templinst)_ZN3pcl24extractEuclideanClustersINS_11PointNormalEEEvRKNS_10PointCloudIT_EERKSt6vectorIiSaIiEERKN5boost10shared_ptrINS_6search6SearchIS3_EEEEfRS7_INS_12PointIndicesESaISK_EEjj@Base 1.6
 (optional=templinst)_ZN3pcl24extractEuclideanClustersINS_11PointXYZHSVEEEvRKNS_10PointCloudIT_EERKN5boost10shared_ptrINS_6search6SearchIS3_EEEEfRSt6vectorINS_12PointIndicesESaISG_EEjj@Base 1.6
 (optional=templinst)_ZN3pcl24extractEuclideanClustersINS_11PointXYZHSVEEEvRKNS_10PointCloudIT_EERKSt6vectorIiSaIiEERKN5boost10shared_ptrINS_6search6SearchIS3_EEEEfRS7_INS_12PointIndicesESaISK_EEjj@Base 1.6
 (optional=templinst)_ZN3pcl24extractEuclideanClustersINS_11PointXYZRGBEEEvRKNS_10PointCloudIT_EERKN5boost10shared_ptrINS_6search6SearchIS3_EEEEfRSt6vectorINS_12PointIndicesESaISG_EEjj@Base 1.6
 (optional=templinst)_ZN3pcl24extractEuclideanClustersINS_11PointXYZRGBEEEvRKNS_10PointCloudIT_EERKSt6vectorIiSaIiEERKN5boost10shared_ptrINS_6search6SearchIS3_EEEEfRS7_INS_12PointIndicesESaISK_EEjj@Base 1.6
 (optional=templinst)_ZN3pcl24extractEuclideanClustersINS_12PointXYZRGBAEEEvRKNS_10PointCloudIT_EERKN5boost10shared_ptrINS_6search6SearchIS3_EEEEfRSt6vectorINS_12PointIndicesESaISG_EEjj@Base 1.6
 (optional=templinst)_ZN3pcl24extractEuclideanClustersINS_12PointXYZRGBAEEEvRKNS_10PointCloudIT_EERKSt6vectorIiSaIiEERKN5boost10shared_ptrINS_6search6SearchIS3_EEEEfRS7_INS_12PointIndicesESaISK_EEjj@Base 1.6
 (optional=templinst)_ZN3pcl24extractEuclideanClustersINS_12PointXYZRGBLEEEvRKNS_10PointCloudIT_EERKN5boost10shared_ptrINS_6search6SearchIS3_EEEEfRSt6vectorINS_12PointIndicesESaISG_EEjj@Base 1.6
 (optional=templinst)_ZN3pcl24extractEuclideanClustersINS_12PointXYZRGBLEEEvRKNS_10PointCloudIT_EERKSt6vectorIiSaIiEERKN5boost10shared_ptrINS_6search6SearchIS3_EEEEfRS7_INS_12PointIndicesESaISK_EEjj@Base 1.6
 (optional=templinst)_ZN3pcl24extractEuclideanClustersINS_13InterestPointEEEvRKNS_10PointCloudIT_EERKN5boost10shared_ptrINS_6search6SearchIS3_EEEEfRSt6vectorINS_12PointIndicesESaISG_EEjj@Base 1.6
 (optional=templinst)_ZN3pcl24extractEuclideanClustersINS_13InterestPointEEEvRKNS_10PointCloudIT_EERKSt6vectorIiSaIiEERKN5boost10shared_ptrINS_6search6SearchIS3_EEEEfRS7_INS_12PointIndicesESaISK_EEjj@Base 1.6
 (optional=templinst)_ZN3pcl24extractEuclideanClustersINS_14PointWithRangeEEEvRKNS_10PointCloudIT_EERKN5boost10shared_ptrINS_6search6SearchIS3_EEEEfRSt6vectorINS_12PointIndicesESaISG_EEjj@Base 1.6
 (optional=templinst)_ZN3pcl24extractEuclideanClustersINS_14PointWithRangeEEEvRKNS_10PointCloudIT_EERKSt6vectorIiSaIiEERKN5boost10shared_ptrINS_6search6SearchIS3_EEEEfRS7_INS_12PointIndicesESaISK_EEjj@Base 1.6
 (optional=templinst)_ZN3pcl24extractEuclideanClustersINS_14PointWithScaleEEEvRKNS_10PointCloudIT_EERKN5boost10shared_ptrINS_6search6SearchIS3_EEEEfRSt6vectorINS_12PointIndicesESaISG_EEjj@Base 1.6
 (optional=templinst)_ZN3pcl24extractEuclideanClustersINS_14PointWithScaleEEEvRKNS_10PointCloudIT_EERKSt6vectorIiSaIiEERKN5boost10shared_ptrINS_6search6SearchIS3_EEEEfRS7_INS_12PointIndicesESaISK_EEjj@Base 1.6
 (optional=templinst)_ZN3pcl24extractEuclideanClustersINS_15PointXYZINormalEEEvRKNS_10PointCloudIT_EERKN5boost10shared_ptrINS_6search6SearchIS3_EEEEfRSt6vectorINS_12PointIndicesESaISG_EEjj@Base 1.6
 (optional=templinst)_ZN3pcl24extractEuclideanClustersINS_15PointXYZINormalEEEvRKNS_10PointCloudIT_EERKSt6vectorIiSaIiEERKN5boost10shared_ptrINS_6search6SearchIS3_EEEEfRS7_INS_12PointIndicesESaISK_EEjj@Base 1.6
 (optional=templinst)_ZN3pcl24extractEuclideanClustersINS_17PointXYZRGBNormalEEEvRKNS_10PointCloudIT_EERKN5boost10shared_ptrINS_6search6SearchIS3_EEEEfRSt6vectorINS_12PointIndicesESaISG_EEjj@Base 1.6
 (optional=templinst)_ZN3pcl24extractEuclideanClustersINS_17PointXYZRGBNormalEEEvRKNS_10PointCloudIT_EERKSt6vectorIiSaIiEERKN5boost10shared_ptrINS_6search6SearchIS3_EEEEfRS7_INS_12PointIndicesESaISK_EEjj@Base 1.6
 (optional=templinst)_ZN3pcl24extractEuclideanClustersINS_18PointWithViewpointEEEvRKNS_10PointCloudIT_EERKN5boost10shared_ptrINS_6search6SearchIS3_EEEEfRSt6vectorINS_12PointIndicesESaISG_EEjj@Base 1.6
 (optional=templinst)_ZN3pcl24extractEuclideanClustersINS_18PointWithViewpointEEEvRKNS_10PointCloudIT_EERKSt6vectorIiSaIiEERKN5boost10shared_ptrINS_6search6SearchIS3_EEEEfRS7_INS_12PointIndicesESaISK_EEjj@Base 1.6
 (optional=templinst)_ZN3pcl24extractEuclideanClustersINS_8PointXYZEEEvRKNS_10PointCloudIT_EERKN5boost10shared_ptrINS_6search6SearchIS3_EEEEfRSt6vectorINS_12PointIndicesESaISG_EEjj@Base 1.6
 (optional=templinst)_ZN3pcl24extractEuclideanClustersINS_8PointXYZEEEvRKNS_10PointCloudIT_EERKSt6vectorIiSaIiEERKN5boost10shared_ptrINS_6search6SearchIS3_EEEEfRS7_INS_12PointIndicesESaISK_EEjj@Base 1.6
 (optional=templinst)_ZN3pcl24extractEuclideanClustersINS_9PointXYZIEEEvRKNS_10PointCloudIT_EERKN5boost10shared_ptrINS_6search6SearchIS3_EEEEfRSt6vectorINS_12PointIndicesESaISG_EEjj@Base 1.6
 (optional=templinst)_ZN3pcl24extractEuclideanClustersINS_9PointXYZIEEEvRKNS_10PointCloudIT_EERKSt6vectorIiSaIiEERKN5boost10shared_ptrINS_6search6SearchIS3_EEEEfRS7_INS_12PointIndicesESaISK_EEjj@Base 1.6
 (optional=templinst)_ZN3pcl24extractEuclideanClustersINS_9PointXYZLEEEvRKNS_10PointCloudIT_EERKN5boost10shared_ptrINS_6search6SearchIS3_EEEEfRSt6vectorINS_12PointIndicesESaISG_EEjj@Base 1.6
 (optional=templinst)_ZN3pcl24extractEuclideanClustersINS_9PointXYZLEEEvRKNS_10PointCloudIT_EERKSt6vectorIiSaIiEERKN5boost10shared_ptrINS_6search6SearchIS3_EEEEfRS7_INS_12PointIndicesESaISK_EEjj@Base 1.6
 (optional=templinst)_ZN3pcl25ExtractPolygonalPrismDataINS_11PointNormalEE12setViewPointEfff@Base 1.6
 (optional=templinst)_ZN3pcl25ExtractPolygonalPrismDataINS_11PointNormalEE15setHeightLimitsEdd@Base 1.6
 (optional=templinst)_ZN3pcl25ExtractPolygonalPrismDataINS_11PointNormalEE18setInputPlanarHullERKN5boost10shared_ptrIKNS_10PointCloudIS1_EEEE@Base 1.6
 (optional=templinst)_ZN3pcl25ExtractPolygonalPrismDataINS_11PointNormalEE7segmentERNS_12PointIndicesE@Base 1.6
 (optional=templinst)_ZN3pcl25ExtractPolygonalPrismDataINS_11PointNormalEEC1Ev@Base 1.6
 (optional=templinst)_ZN3pcl25ExtractPolygonalPrismDataINS_11PointNormalEEC2Ev@Base 1.6
 (optional=templinst)_ZN3pcl25ExtractPolygonalPrismDataINS_11PointNormalEED0Ev@Base 1.6
 (optional=templinst)_ZN3pcl25ExtractPolygonalPrismDataINS_11PointNormalEED1Ev@Base 1.6
 (optional=templinst)_ZN3pcl25ExtractPolygonalPrismDataINS_11PointNormalEED2Ev@Base 1.6
 (optional=templinst)_ZN3pcl25ExtractPolygonalPrismDataINS_11PointXYZHSVEE12setViewPointEfff@Base 1.6
 (optional=templinst)_ZN3pcl25ExtractPolygonalPrismDataINS_11PointXYZHSVEE15setHeightLimitsEdd@Base 1.6
 (optional=templinst)_ZN3pcl25ExtractPolygonalPrismDataINS_11PointXYZHSVEE18setInputPlanarHullERKN5boost10shared_ptrIKNS_10PointCloudIS1_EEEE@Base 1.6
 (optional=templinst)_ZN3pcl25ExtractPolygonalPrismDataINS_11PointXYZHSVEE7segmentERNS_12PointIndicesE@Base 1.6
 (optional=templinst)_ZN3pcl25ExtractPolygonalPrismDataINS_11PointXYZHSVEEC1Ev@Base 1.6
 (optional=templinst)_ZN3pcl25ExtractPolygonalPrismDataINS_11PointXYZHSVEEC2Ev@Base 1.6
 (optional=templinst)_ZN3pcl25ExtractPolygonalPrismDataINS_11PointXYZHSVEED0Ev@Base 1.6
 (optional=templinst)_ZN3pcl25ExtractPolygonalPrismDataINS_11PointXYZHSVEED1Ev@Base 1.6
 (optional=templinst)_ZN3pcl25ExtractPolygonalPrismDataINS_11PointXYZHSVEED2Ev@Base 1.6
 (optional=templinst)_ZN3pcl25ExtractPolygonalPrismDataINS_11PointXYZRGBEE12setViewPointEfff@Base 1.6
 (optional=templinst)_ZN3pcl25ExtractPolygonalPrismDataINS_11PointXYZRGBEE15setHeightLimitsEdd@Base 1.6
 (optional=templinst)_ZN3pcl25ExtractPolygonalPrismDataINS_11PointXYZRGBEE18setInputPlanarHullERKN5boost10shared_ptrIKNS_10PointCloudIS1_EEEE@Base 1.6
 (optional=templinst)_ZN3pcl25ExtractPolygonalPrismDataINS_11PointXYZRGBEE7segmentERNS_12PointIndicesE@Base 1.6
 (optional=templinst)_ZN3pcl25ExtractPolygonalPrismDataINS_11PointXYZRGBEEC1Ev@Base 1.6
 (optional=templinst)_ZN3pcl25ExtractPolygonalPrismDataINS_11PointXYZRGBEEC2Ev@Base 1.6
 (optional=templinst)_ZN3pcl25ExtractPolygonalPrismDataINS_11PointXYZRGBEED0Ev@Base 1.6
 (optional=templinst)_ZN3pcl25ExtractPolygonalPrismDataINS_11PointXYZRGBEED1Ev@Base 1.6
 (optional=templinst)_ZN3pcl25ExtractPolygonalPrismDataINS_11PointXYZRGBEED2Ev@Base 1.6
 (optional=templinst)_ZN3pcl25ExtractPolygonalPrismDataINS_12PointXYZRGBAEE12setViewPointEfff@Base 1.6
 (optional=templinst)_ZN3pcl25ExtractPolygonalPrismDataINS_12PointXYZRGBAEE15setHeightLimitsEdd@Base 1.6
 (optional=templinst)_ZN3pcl25ExtractPolygonalPrismDataINS_12PointXYZRGBAEE18setInputPlanarHullERKN5boost10shared_ptrIKNS_10PointCloudIS1_EEEE@Base 1.6
 (optional=templinst)_ZN3pcl25ExtractPolygonalPrismDataINS_12PointXYZRGBAEE7segmentERNS_12PointIndicesE@Base 1.6
 (optional=templinst)_ZN3pcl25ExtractPolygonalPrismDataINS_12PointXYZRGBAEEC1Ev@Base 1.6
 (optional=templinst)_ZN3pcl25ExtractPolygonalPrismDataINS_12PointXYZRGBAEEC2Ev@Base 1.6
 (optional=templinst)_ZN3pcl25ExtractPolygonalPrismDataINS_12PointXYZRGBAEED0Ev@Base 1.6
 (optional=templinst)_ZN3pcl25ExtractPolygonalPrismDataINS_12PointXYZRGBAEED1Ev@Base 1.6
 (optional=templinst)_ZN3pcl25ExtractPolygonalPrismDataINS_12PointXYZRGBAEED2Ev@Base 1.6
 (optional=templinst)_ZN3pcl25ExtractPolygonalPrismDataINS_12PointXYZRGBLEE12setViewPointEfff@Base 1.6
 (optional=templinst)_ZN3pcl25ExtractPolygonalPrismDataINS_12PointXYZRGBLEE15setHeightLimitsEdd@Base 1.6
 (optional=templinst)_ZN3pcl25ExtractPolygonalPrismDataINS_12PointXYZRGBLEE18setInputPlanarHullERKN5boost10shared_ptrIKNS_10PointCloudIS1_EEEE@Base 1.6
 (optional=templinst)_ZN3pcl25ExtractPolygonalPrismDataINS_12PointXYZRGBLEE7segmentERNS_12PointIndicesE@Base 1.6
 (optional=templinst)_ZN3pcl25ExtractPolygonalPrismDataINS_12PointXYZRGBLEEC1Ev@Base 1.6
 (optional=templinst)_ZN3pcl25ExtractPolygonalPrismDataINS_12PointXYZRGBLEEC2Ev@Base 1.6
 (optional=templinst)_ZN3pcl25ExtractPolygonalPrismDataINS_12PointXYZRGBLEED0Ev@Base 1.6
 (optional=templinst)_ZN3pcl25ExtractPolygonalPrismDataINS_12PointXYZRGBLEED1Ev@Base 1.6
 (optional=templinst)_ZN3pcl25ExtractPolygonalPrismDataINS_12PointXYZRGBLEED2Ev@Base 1.6
 (optional=templinst)_ZN3pcl25ExtractPolygonalPrismDataINS_13InterestPointEE12setViewPointEfff@Base 1.6
 (optional=templinst)_ZN3pcl25ExtractPolygonalPrismDataINS_13InterestPointEE15setHeightLimitsEdd@Base 1.6
 (optional=templinst)_ZN3pcl25ExtractPolygonalPrismDataINS_13InterestPointEE18setInputPlanarHullERKN5boost10shared_ptrIKNS_10PointCloudIS1_EEEE@Base 1.6
 (optional=templinst)_ZN3pcl25ExtractPolygonalPrismDataINS_13InterestPointEE7segmentERNS_12PointIndicesE@Base 1.6
 (optional=templinst)_ZN3pcl25ExtractPolygonalPrismDataINS_13InterestPointEEC1Ev@Base 1.6
 (optional=templinst)_ZN3pcl25ExtractPolygonalPrismDataINS_13InterestPointEEC2Ev@Base 1.6
 (optional=templinst)_ZN3pcl25ExtractPolygonalPrismDataINS_13InterestPointEED0Ev@Base 1.6
 (optional=templinst)_ZN3pcl25ExtractPolygonalPrismDataINS_13InterestPointEED1Ev@Base 1.6
 (optional=templinst)_ZN3pcl25ExtractPolygonalPrismDataINS_13InterestPointEED2Ev@Base 1.6
 (optional=templinst)_ZN3pcl25ExtractPolygonalPrismDataINS_14PointWithRangeEE12setViewPointEfff@Base 1.6
 (optional=templinst)_ZN3pcl25ExtractPolygonalPrismDataINS_14PointWithRangeEE15setHeightLimitsEdd@Base 1.6
 (optional=templinst)_ZN3pcl25ExtractPolygonalPrismDataINS_14PointWithRangeEE18setInputPlanarHullERKN5boost10shared_ptrIKNS_10PointCloudIS1_EEEE@Base 1.6
 (optional=templinst)_ZN3pcl25ExtractPolygonalPrismDataINS_14PointWithRangeEE7segmentERNS_12PointIndicesE@Base 1.6
 (optional=templinst)_ZN3pcl25ExtractPolygonalPrismDataINS_14PointWithRangeEEC1Ev@Base 1.6
 (optional=templinst)_ZN3pcl25ExtractPolygonalPrismDataINS_14PointWithRangeEEC2Ev@Base 1.6
 (optional=templinst)_ZN3pcl25ExtractPolygonalPrismDataINS_14PointWithRangeEED0Ev@Base 1.6
 (optional=templinst)_ZN3pcl25ExtractPolygonalPrismDataINS_14PointWithRangeEED1Ev@Base 1.6
 (optional=templinst)_ZN3pcl25ExtractPolygonalPrismDataINS_14PointWithRangeEED2Ev@Base 1.6
 (optional=templinst)_ZN3pcl25ExtractPolygonalPrismDataINS_14PointWithScaleEE12setViewPointEfff@Base 1.6
 (optional=templinst)_ZN3pcl25ExtractPolygonalPrismDataINS_14PointWithScaleEE15setHeightLimitsEdd@Base 1.6
 (optional=templinst)_ZN3pcl25ExtractPolygonalPrismDataINS_14PointWithScaleEE18setInputPlanarHullERKN5boost10shared_ptrIKNS_10PointCloudIS1_EEEE@Base 1.6
 (optional=templinst)_ZN3pcl25ExtractPolygonalPrismDataINS_14PointWithScaleEE7segmentERNS_12PointIndicesE@Base 1.6
 (optional=templinst)_ZN3pcl25ExtractPolygonalPrismDataINS_14PointWithScaleEEC1Ev@Base 1.6
 (optional=templinst)_ZN3pcl25ExtractPolygonalPrismDataINS_14PointWithScaleEEC2Ev@Base 1.6
 (optional=templinst)_ZN3pcl25ExtractPolygonalPrismDataINS_14PointWithScaleEED0Ev@Base 1.6
 (optional=templinst)_ZN3pcl25ExtractPolygonalPrismDataINS_14PointWithScaleEED1Ev@Base 1.6
 (optional=templinst)_ZN3pcl25ExtractPolygonalPrismDataINS_14PointWithScaleEED2Ev@Base 1.6
 (optional=templinst)_ZN3pcl25ExtractPolygonalPrismDataINS_15PointXYZINormalEE12setViewPointEfff@Base 1.6
 (optional=templinst)_ZN3pcl25ExtractPolygonalPrismDataINS_15PointXYZINormalEE15setHeightLimitsEdd@Base 1.6
 (optional=templinst)_ZN3pcl25ExtractPolygonalPrismDataINS_15PointXYZINormalEE18setInputPlanarHullERKN5boost10shared_ptrIKNS_10PointCloudIS1_EEEE@Base 1.6
 (optional=templinst)_ZN3pcl25ExtractPolygonalPrismDataINS_15PointXYZINormalEE7segmentERNS_12PointIndicesE@Base 1.6
 (optional=templinst)_ZN3pcl25ExtractPolygonalPrismDataINS_15PointXYZINormalEEC1Ev@Base 1.6
 (optional=templinst)_ZN3pcl25ExtractPolygonalPrismDataINS_15PointXYZINormalEEC2Ev@Base 1.6
 (optional=templinst)_ZN3pcl25ExtractPolygonalPrismDataINS_15PointXYZINormalEED0Ev@Base 1.6
 (optional=templinst)_ZN3pcl25ExtractPolygonalPrismDataINS_15PointXYZINormalEED1Ev@Base 1.6
 (optional=templinst)_ZN3pcl25ExtractPolygonalPrismDataINS_15PointXYZINormalEED2Ev@Base 1.6
 (optional=templinst)_ZN3pcl25ExtractPolygonalPrismDataINS_17PointXYZRGBNormalEE12setViewPointEfff@Base 1.6
 (optional=templinst)_ZN3pcl25ExtractPolygonalPrismDataINS_17PointXYZRGBNormalEE15setHeightLimitsEdd@Base 1.6
 (optional=templinst)_ZN3pcl25ExtractPolygonalPrismDataINS_17PointXYZRGBNormalEE18setInputPlanarHullERKN5boost10shared_ptrIKNS_10PointCloudIS1_EEEE@Base 1.6
 (optional=templinst)_ZN3pcl25ExtractPolygonalPrismDataINS_17PointXYZRGBNormalEE7segmentERNS_12PointIndicesE@Base 1.6
 (optional=templinst)_ZN3pcl25ExtractPolygonalPrismDataINS_17PointXYZRGBNormalEEC1Ev@Base 1.6
 (optional=templinst)_ZN3pcl25ExtractPolygonalPrismDataINS_17PointXYZRGBNormalEEC2Ev@Base 1.6
 (optional=templinst)_ZN3pcl25ExtractPolygonalPrismDataINS_17PointXYZRGBNormalEED0Ev@Base 1.6
 (optional=templinst)_ZN3pcl25ExtractPolygonalPrismDataINS_17PointXYZRGBNormalEED1Ev@Base 1.6
 (optional=templinst)_ZN3pcl25ExtractPolygonalPrismDataINS_17PointXYZRGBNormalEED2Ev@Base 1.6
 (optional=templinst)_ZN3pcl25ExtractPolygonalPrismDataINS_18PointWithViewpointEE12setViewPointEfff@Base 1.6
 (optional=templinst)_ZN3pcl25ExtractPolygonalPrismDataINS_18PointWithViewpointEE15setHeightLimitsEdd@Base 1.6
 (optional=templinst)_ZN3pcl25ExtractPolygonalPrismDataINS_18PointWithViewpointEE18setInputPlanarHullERKN5boost10shared_ptrIKNS_10PointCloudIS1_EEEE@Base 1.6
 (optional=templinst)_ZN3pcl25ExtractPolygonalPrismDataINS_18PointWithViewpointEE7segmentERNS_12PointIndicesE@Base 1.6
 (optional=templinst)_ZN3pcl25ExtractPolygonalPrismDataINS_18PointWithViewpointEEC1Ev@Base 1.6
 (optional=templinst)_ZN3pcl25ExtractPolygonalPrismDataINS_18PointWithViewpointEEC2Ev@Base 1.6
 (optional=templinst)_ZN3pcl25ExtractPolygonalPrismDataINS_18PointWithViewpointEED0Ev@Base 1.6
 (optional=templinst)_ZN3pcl25ExtractPolygonalPrismDataINS_18PointWithViewpointEED1Ev@Base 1.6
 (optional=templinst)_ZN3pcl25ExtractPolygonalPrismDataINS_18PointWithViewpointEED2Ev@Base 1.6
 (optional=templinst)_ZN3pcl25ExtractPolygonalPrismDataINS_8PointXYZEE12setViewPointEfff@Base 1.6
 (optional=templinst)_ZN3pcl25ExtractPolygonalPrismDataINS_8PointXYZEE15setHeightLimitsEdd@Base 1.6
 (optional=templinst)_ZN3pcl25ExtractPolygonalPrismDataINS_8PointXYZEE18setInputPlanarHullERKN5boost10shared_ptrIKNS_10PointCloudIS1_EEEE@Base 1.6
 (optional=templinst)_ZN3pcl25ExtractPolygonalPrismDataINS_8PointXYZEE7segmentERNS_12PointIndicesE@Base 1.6
 (optional=templinst)_ZN3pcl25ExtractPolygonalPrismDataINS_8PointXYZEEC1Ev@Base 1.6
 (optional=templinst)_ZN3pcl25ExtractPolygonalPrismDataINS_8PointXYZEEC2Ev@Base 1.6
 (optional=templinst)_ZN3pcl25ExtractPolygonalPrismDataINS_8PointXYZEED0Ev@Base 1.6
 (optional=templinst)_ZN3pcl25ExtractPolygonalPrismDataINS_8PointXYZEED1Ev@Base 1.6
 (optional=templinst)_ZN3pcl25ExtractPolygonalPrismDataINS_8PointXYZEED2Ev@Base 1.6
 (optional=templinst)_ZN3pcl25ExtractPolygonalPrismDataINS_9PointXYZIEE12setViewPointEfff@Base 1.6
 (optional=templinst)_ZN3pcl25ExtractPolygonalPrismDataINS_9PointXYZIEE15setHeightLimitsEdd@Base 1.6
 (optional=templinst)_ZN3pcl25ExtractPolygonalPrismDataINS_9PointXYZIEE18setInputPlanarHullERKN5boost10shared_ptrIKNS_10PointCloudIS1_EEEE@Base 1.6
 (optional=templinst)_ZN3pcl25ExtractPolygonalPrismDataINS_9PointXYZIEE7segmentERNS_12PointIndicesE@Base 1.6
 (optional=templinst)_ZN3pcl25ExtractPolygonalPrismDataINS_9PointXYZIEEC1Ev@Base 1.6
 (optional=templinst)_ZN3pcl25ExtractPolygonalPrismDataINS_9PointXYZIEEC2Ev@Base 1.6
 (optional=templinst)_ZN3pcl25ExtractPolygonalPrismDataINS_9PointXYZIEED0Ev@Base 1.6
 (optional=templinst)_ZN3pcl25ExtractPolygonalPrismDataINS_9PointXYZIEED1Ev@Base 1.6
 (optional=templinst)_ZN3pcl25ExtractPolygonalPrismDataINS_9PointXYZIEED2Ev@Base 1.6
 (optional=templinst)_ZN3pcl25ExtractPolygonalPrismDataINS_9PointXYZLEE12setViewPointEfff@Base 1.6
 (optional=templinst)_ZN3pcl25ExtractPolygonalPrismDataINS_9PointXYZLEE15setHeightLimitsEdd@Base 1.6
 (optional=templinst)_ZN3pcl25ExtractPolygonalPrismDataINS_9PointXYZLEE18setInputPlanarHullERKN5boost10shared_ptrIKNS_10PointCloudIS1_EEEE@Base 1.6
 (optional=templinst)_ZN3pcl25ExtractPolygonalPrismDataINS_9PointXYZLEE7segmentERNS_12PointIndicesE@Base 1.6
 (optional=templinst)_ZN3pcl25ExtractPolygonalPrismDataINS_9PointXYZLEEC1Ev@Base 1.6
 (optional=templinst)_ZN3pcl25ExtractPolygonalPrismDataINS_9PointXYZLEEC2Ev@Base 1.6
 (optional=templinst)_ZN3pcl25ExtractPolygonalPrismDataINS_9PointXYZLEED0Ev@Base 1.6
 (optional=templinst)_ZN3pcl25ExtractPolygonalPrismDataINS_9PointXYZLEED1Ev@Base 1.6
 (optional=templinst)_ZN3pcl25ExtractPolygonalPrismDataINS_9PointXYZLEED2Ev@Base 1.6
 (optional=templinst)_ZN3pcl25MEstimatorSampleConsensusINS_11PointNormalEED0Ev@Base 1.6
 (optional=templinst)_ZN3pcl25MEstimatorSampleConsensusINS_11PointNormalEED1Ev@Base 1.6
 (optional=templinst)_ZN3pcl25MEstimatorSampleConsensusINS_11PointNormalEED2Ev@Base 1.6
 (optional=templinst)_ZN3pcl25MEstimatorSampleConsensusINS_11PointXYZHSVEED0Ev@Base 1.6
 (optional=templinst)_ZN3pcl25MEstimatorSampleConsensusINS_11PointXYZHSVEED1Ev@Base 1.6
 (optional=templinst)_ZN3pcl25MEstimatorSampleConsensusINS_11PointXYZHSVEED2Ev@Base 1.6
 (optional=templinst)_ZN3pcl25MEstimatorSampleConsensusINS_11PointXYZRGBEED0Ev@Base 1.6
 (optional=templinst)_ZN3pcl25MEstimatorSampleConsensusINS_11PointXYZRGBEED1Ev@Base 1.6
 (optional=templinst)_ZN3pcl25MEstimatorSampleConsensusINS_11PointXYZRGBEED2Ev@Base 1.6
 (optional=templinst)_ZN3pcl25MEstimatorSampleConsensusINS_12PointXYZRGBAEED0Ev@Base 1.6
 (optional=templinst)_ZN3pcl25MEstimatorSampleConsensusINS_12PointXYZRGBAEED1Ev@Base 1.6
 (optional=templinst)_ZN3pcl25MEstimatorSampleConsensusINS_12PointXYZRGBAEED2Ev@Base 1.6
 (optional=templinst)_ZN3pcl25MEstimatorSampleConsensusINS_12PointXYZRGBLEED0Ev@Base 1.6
 (optional=templinst)_ZN3pcl25MEstimatorSampleConsensusINS_12PointXYZRGBLEED1Ev@Base 1.6
 (optional=templinst)_ZN3pcl25MEstimatorSampleConsensusINS_12PointXYZRGBLEED2Ev@Base 1.6
 (optional=templinst)_ZN3pcl25MEstimatorSampleConsensusINS_13InterestPointEED0Ev@Base 1.6
 (optional=templinst)_ZN3pcl25MEstimatorSampleConsensusINS_13InterestPointEED1Ev@Base 1.6
 (optional=templinst)_ZN3pcl25MEstimatorSampleConsensusINS_13InterestPointEED2Ev@Base 1.6
 (optional=templinst)_ZN3pcl25MEstimatorSampleConsensusINS_14PointWithRangeEED0Ev@Base 1.6
 (optional=templinst)_ZN3pcl25MEstimatorSampleConsensusINS_14PointWithRangeEED1Ev@Base 1.6
 (optional=templinst)_ZN3pcl25MEstimatorSampleConsensusINS_14PointWithRangeEED2Ev@Base 1.6
 (optional=templinst)_ZN3pcl25MEstimatorSampleConsensusINS_14PointWithScaleEED0Ev@Base 1.6
 (optional=templinst)_ZN3pcl25MEstimatorSampleConsensusINS_14PointWithScaleEED1Ev@Base 1.6
 (optional=templinst)_ZN3pcl25MEstimatorSampleConsensusINS_14PointWithScaleEED2Ev@Base 1.6
 (optional=templinst)_ZN3pcl25MEstimatorSampleConsensusINS_15PointXYZINormalEED0Ev@Base 1.6
 (optional=templinst)_ZN3pcl25MEstimatorSampleConsensusINS_15PointXYZINormalEED1Ev@Base 1.6
 (optional=templinst)_ZN3pcl25MEstimatorSampleConsensusINS_15PointXYZINormalEED2Ev@Base 1.6
 (optional=templinst)_ZN3pcl25MEstimatorSampleConsensusINS_17PointXYZRGBNormalEED0Ev@Base 1.6
 (optional=templinst)_ZN3pcl25MEstimatorSampleConsensusINS_17PointXYZRGBNormalEED1Ev@Base 1.6
 (optional=templinst)_ZN3pcl25MEstimatorSampleConsensusINS_17PointXYZRGBNormalEED2Ev@Base 1.6
 (optional=templinst)_ZN3pcl25MEstimatorSampleConsensusINS_18PointWithViewpointEED0Ev@Base 1.6
 (optional=templinst)_ZN3pcl25MEstimatorSampleConsensusINS_18PointWithViewpointEED1Ev@Base 1.6
 (optional=templinst)_ZN3pcl25MEstimatorSampleConsensusINS_18PointWithViewpointEED2Ev@Base 1.6
 (optional=templinst)_ZN3pcl25MEstimatorSampleConsensusINS_8PointXYZEED0Ev@Base 1.6
 (optional=templinst)_ZN3pcl25MEstimatorSampleConsensusINS_8PointXYZEED1Ev@Base 1.6
 (optional=templinst)_ZN3pcl25MEstimatorSampleConsensusINS_8PointXYZEED2Ev@Base 1.6
 (optional=templinst)_ZN3pcl25MEstimatorSampleConsensusINS_9PointXYZIEED0Ev@Base 1.6
 (optional=templinst)_ZN3pcl25MEstimatorSampleConsensusINS_9PointXYZIEED1Ev@Base 1.6
 (optional=templinst)_ZN3pcl25MEstimatorSampleConsensusINS_9PointXYZIEED2Ev@Base 1.6
 (optional=templinst)_ZN3pcl25MEstimatorSampleConsensusINS_9PointXYZLEED0Ev@Base 1.6
 (optional=templinst)_ZN3pcl25MEstimatorSampleConsensusINS_9PointXYZLEED1Ev@Base 1.6
 (optional=templinst)_ZN3pcl25MEstimatorSampleConsensusINS_9PointXYZLEED2Ev@Base 1.6
 (optional=templinst)_ZN3pcl25PlaneRefinementComparatorINS_11PointNormalENS_15PointXYZINormalENS_5LabelEE15setLabelToModelERSt6vectorIiSaIiEE@Base 1.6
 (optional=templinst)_ZN3pcl25PlaneRefinementComparatorINS_11PointNormalENS_15PointXYZINormalENS_5LabelEE15setRefineLabelsERSt6vectorIbSaIbEE@Base 1.6
 (optional=templinst)_ZN3pcl25PlaneRefinementComparatorINS_11PointNormalENS_15PointXYZINormalENS_5LabelEE20setModelCoefficientsERSt6vectorINS_17ModelCoefficientsESaIS6_EE@Base 1.6
 (optional=templinst)_ZN3pcl25PlaneRefinementComparatorINS_11PointNormalENS_15PointXYZINormalENS_5LabelEED0Ev@Base 1.6
 (optional=templinst)_ZN3pcl25PlaneRefinementComparatorINS_11PointNormalENS_15PointXYZINormalENS_5LabelEED1Ev@Base 1.6
 (optional=templinst)_ZN3pcl25PlaneRefinementComparatorINS_11PointNormalENS_15PointXYZINormalENS_5LabelEED2Ev@Base 1.6
 (optional=templinst)_ZN3pcl25PlaneRefinementComparatorINS_11PointNormalENS_17PointXYZRGBNormalENS_5LabelEE15setLabelToModelERSt6vectorIiSaIiEE@Base 1.6
 (optional=templinst)_ZN3pcl25PlaneRefinementComparatorINS_11PointNormalENS_17PointXYZRGBNormalENS_5LabelEE15setRefineLabelsERSt6vectorIbSaIbEE@Base 1.6
 (optional=templinst)_ZN3pcl25PlaneRefinementComparatorINS_11PointNormalENS_17PointXYZRGBNormalENS_5LabelEE20setModelCoefficientsERSt6vectorINS_17ModelCoefficientsESaIS6_EE@Base 1.6
 (optional=templinst)_ZN3pcl25PlaneRefinementComparatorINS_11PointNormalENS_17PointXYZRGBNormalENS_5LabelEED0Ev@Base 1.6
 (optional=templinst)_ZN3pcl25PlaneRefinementComparatorINS_11PointNormalENS_17PointXYZRGBNormalENS_5LabelEED1Ev@Base 1.6
 (optional=templinst)_ZN3pcl25PlaneRefinementComparatorINS_11PointNormalENS_17PointXYZRGBNormalENS_5LabelEED2Ev@Base 1.6
 (optional=templinst)_ZN3pcl25PlaneRefinementComparatorINS_11PointNormalENS_6NormalENS_5LabelEE15setLabelToModelERSt6vectorIiSaIiEE@Base 1.6
 (optional=templinst)_ZN3pcl25PlaneRefinementComparatorINS_11PointNormalENS_6NormalENS_5LabelEE15setRefineLabelsERSt6vectorIbSaIbEE@Base 1.6
 (optional=templinst)_ZN3pcl25PlaneRefinementComparatorINS_11PointNormalENS_6NormalENS_5LabelEE20setModelCoefficientsERSt6vectorINS_17ModelCoefficientsESaIS6_EE@Base 1.6
 (optional=templinst)_ZN3pcl25PlaneRefinementComparatorINS_11PointNormalENS_6NormalENS_5LabelEED0Ev@Base 1.6
 (optional=templinst)_ZN3pcl25PlaneRefinementComparatorINS_11PointNormalENS_6NormalENS_5LabelEED1Ev@Base 1.6
 (optional=templinst)_ZN3pcl25PlaneRefinementComparatorINS_11PointNormalENS_6NormalENS_5LabelEED2Ev@Base 1.6
 (optional=templinst)_ZN3pcl25PlaneRefinementComparatorINS_11PointNormalES1_NS_5LabelEE15setLabelToModelERSt6vectorIiSaIiEE@Base 1.6
 (optional=templinst)_ZN3pcl25PlaneRefinementComparatorINS_11PointNormalES1_NS_5LabelEE15setRefineLabelsERSt6vectorIbSaIbEE@Base 1.6
 (optional=templinst)_ZN3pcl25PlaneRefinementComparatorINS_11PointNormalES1_NS_5LabelEE20setModelCoefficientsERSt6vectorINS_17ModelCoefficientsESaIS5_EE@Base 1.6
 (optional=templinst)_ZN3pcl25PlaneRefinementComparatorINS_11PointNormalES1_NS_5LabelEED0Ev@Base 1.6
 (optional=templinst)_ZN3pcl25PlaneRefinementComparatorINS_11PointNormalES1_NS_5LabelEED1Ev@Base 1.6
 (optional=templinst)_ZN3pcl25PlaneRefinementComparatorINS_11PointNormalES1_NS_5LabelEED2Ev@Base 1.6
 (optional=templinst)_ZN3pcl25PlaneRefinementComparatorINS_11PointXYZHSVENS_11PointNormalENS_5LabelEE15setLabelToModelERSt6vectorIiSaIiEE@Base 1.6
 (optional=templinst)_ZN3pcl25PlaneRefinementComparatorINS_11PointXYZHSVENS_11PointNormalENS_5LabelEE15setRefineLabelsERSt6vectorIbSaIbEE@Base 1.6
 (optional=templinst)_ZN3pcl25PlaneRefinementComparatorINS_11PointXYZHSVENS_11PointNormalENS_5LabelEE20setModelCoefficientsERSt6vectorINS_17ModelCoefficientsESaIS6_EE@Base 1.6
 (optional=templinst)_ZN3pcl25PlaneRefinementComparatorINS_11PointXYZHSVENS_11PointNormalENS_5LabelEED0Ev@Base 1.6
 (optional=templinst)_ZN3pcl25PlaneRefinementComparatorINS_11PointXYZHSVENS_11PointNormalENS_5LabelEED1Ev@Base 1.6
 (optional=templinst)_ZN3pcl25PlaneRefinementComparatorINS_11PointXYZHSVENS_11PointNormalENS_5LabelEED2Ev@Base 1.6
 (optional=templinst)_ZN3pcl25PlaneRefinementComparatorINS_11PointXYZHSVENS_15PointXYZINormalENS_5LabelEE15setLabelToModelERSt6vectorIiSaIiEE@Base 1.6
 (optional=templinst)_ZN3pcl25PlaneRefinementComparatorINS_11PointXYZHSVENS_15PointXYZINormalENS_5LabelEE15setRefineLabelsERSt6vectorIbSaIbEE@Base 1.6
 (optional=templinst)_ZN3pcl25PlaneRefinementComparatorINS_11PointXYZHSVENS_15PointXYZINormalENS_5LabelEE20setModelCoefficientsERSt6vectorINS_17ModelCoefficientsESaIS6_EE@Base 1.6
 (optional=templinst)_ZN3pcl25PlaneRefinementComparatorINS_11PointXYZHSVENS_15PointXYZINormalENS_5LabelEED0Ev@Base 1.6
 (optional=templinst)_ZN3pcl25PlaneRefinementComparatorINS_11PointXYZHSVENS_15PointXYZINormalENS_5LabelEED1Ev@Base 1.6
 (optional=templinst)_ZN3pcl25PlaneRefinementComparatorINS_11PointXYZHSVENS_15PointXYZINormalENS_5LabelEED2Ev@Base 1.6
 (optional=templinst)_ZN3pcl25PlaneRefinementComparatorINS_11PointXYZHSVENS_17PointXYZRGBNormalENS_5LabelEE15setLabelToModelERSt6vectorIiSaIiEE@Base 1.6
 (optional=templinst)_ZN3pcl25PlaneRefinementComparatorINS_11PointXYZHSVENS_17PointXYZRGBNormalENS_5LabelEE15setRefineLabelsERSt6vectorIbSaIbEE@Base 1.6
 (optional=templinst)_ZN3pcl25PlaneRefinementComparatorINS_11PointXYZHSVENS_17PointXYZRGBNormalENS_5LabelEE20setModelCoefficientsERSt6vectorINS_17ModelCoefficientsESaIS6_EE@Base 1.6
 (optional=templinst)_ZN3pcl25PlaneRefinementComparatorINS_11PointXYZHSVENS_17PointXYZRGBNormalENS_5LabelEED0Ev@Base 1.6
 (optional=templinst)_ZN3pcl25PlaneRefinementComparatorINS_11PointXYZHSVENS_17PointXYZRGBNormalENS_5LabelEED1Ev@Base 1.6
 (optional=templinst)_ZN3pcl25PlaneRefinementComparatorINS_11PointXYZHSVENS_17PointXYZRGBNormalENS_5LabelEED2Ev@Base 1.6
 (optional=templinst)_ZN3pcl25PlaneRefinementComparatorINS_11PointXYZHSVENS_6NormalENS_5LabelEE15setLabelToModelERSt6vectorIiSaIiEE@Base 1.6
 (optional=templinst)_ZN3pcl25PlaneRefinementComparatorINS_11PointXYZHSVENS_6NormalENS_5LabelEE15setRefineLabelsERSt6vectorIbSaIbEE@Base 1.6
 (optional=templinst)_ZN3pcl25PlaneRefinementComparatorINS_11PointXYZHSVENS_6NormalENS_5LabelEE20setModelCoefficientsERSt6vectorINS_17ModelCoefficientsESaIS6_EE@Base 1.6
 (optional=templinst)_ZN3pcl25PlaneRefinementComparatorINS_11PointXYZHSVENS_6NormalENS_5LabelEED0Ev@Base 1.6
 (optional=templinst)_ZN3pcl25PlaneRefinementComparatorINS_11PointXYZHSVENS_6NormalENS_5LabelEED1Ev@Base 1.6
 (optional=templinst)_ZN3pcl25PlaneRefinementComparatorINS_11PointXYZHSVENS_6NormalENS_5LabelEED2Ev@Base 1.6
 (optional=templinst)_ZN3pcl25PlaneRefinementComparatorINS_11PointXYZRGBENS_11PointNormalENS_5LabelEE15setLabelToModelERSt6vectorIiSaIiEE@Base 1.6
 (optional=templinst)_ZN3pcl25PlaneRefinementComparatorINS_11PointXYZRGBENS_11PointNormalENS_5LabelEE15setRefineLabelsERSt6vectorIbSaIbEE@Base 1.6
 (optional=templinst)_ZN3pcl25PlaneRefinementComparatorINS_11PointXYZRGBENS_11PointNormalENS_5LabelEE20setModelCoefficientsERSt6vectorINS_17ModelCoefficientsESaIS6_EE@Base 1.6
 (optional=templinst)_ZN3pcl25PlaneRefinementComparatorINS_11PointXYZRGBENS_11PointNormalENS_5LabelEED0Ev@Base 1.6
 (optional=templinst)_ZN3pcl25PlaneRefinementComparatorINS_11PointXYZRGBENS_11PointNormalENS_5LabelEED1Ev@Base 1.6
 (optional=templinst)_ZN3pcl25PlaneRefinementComparatorINS_11PointXYZRGBENS_11PointNormalENS_5LabelEED2Ev@Base 1.6
 (optional=templinst)_ZN3pcl25PlaneRefinementComparatorINS_11PointXYZRGBENS_15PointXYZINormalENS_5LabelEE15setLabelToModelERSt6vectorIiSaIiEE@Base 1.6
 (optional=templinst)_ZN3pcl25PlaneRefinementComparatorINS_11PointXYZRGBENS_15PointXYZINormalENS_5LabelEE15setRefineLabelsERSt6vectorIbSaIbEE@Base 1.6
 (optional=templinst)_ZN3pcl25PlaneRefinementComparatorINS_11PointXYZRGBENS_15PointXYZINormalENS_5LabelEE20setModelCoefficientsERSt6vectorINS_17ModelCoefficientsESaIS6_EE@Base 1.6
 (optional=templinst)_ZN3pcl25PlaneRefinementComparatorINS_11PointXYZRGBENS_15PointXYZINormalENS_5LabelEED0Ev@Base 1.6
 (optional=templinst)_ZN3pcl25PlaneRefinementComparatorINS_11PointXYZRGBENS_15PointXYZINormalENS_5LabelEED1Ev@Base 1.6
 (optional=templinst)_ZN3pcl25PlaneRefinementComparatorINS_11PointXYZRGBENS_15PointXYZINormalENS_5LabelEED2Ev@Base 1.6
 (optional=templinst)_ZN3pcl25PlaneRefinementComparatorINS_11PointXYZRGBENS_17PointXYZRGBNormalENS_5LabelEE15setLabelToModelERSt6vectorIiSaIiEE@Base 1.6
 (optional=templinst)_ZN3pcl25PlaneRefinementComparatorINS_11PointXYZRGBENS_17PointXYZRGBNormalENS_5LabelEE15setRefineLabelsERSt6vectorIbSaIbEE@Base 1.6
 (optional=templinst)_ZN3pcl25PlaneRefinementComparatorINS_11PointXYZRGBENS_17PointXYZRGBNormalENS_5LabelEE20setModelCoefficientsERSt6vectorINS_17ModelCoefficientsESaIS6_EE@Base 1.6
 (optional=templinst)_ZN3pcl25PlaneRefinementComparatorINS_11PointXYZRGBENS_17PointXYZRGBNormalENS_5LabelEED0Ev@Base 1.6
 (optional=templinst)_ZN3pcl25PlaneRefinementComparatorINS_11PointXYZRGBENS_17PointXYZRGBNormalENS_5LabelEED1Ev@Base 1.6
 (optional=templinst)_ZN3pcl25PlaneRefinementComparatorINS_11PointXYZRGBENS_17PointXYZRGBNormalENS_5LabelEED2Ev@Base 1.6
 (optional=templinst)_ZN3pcl25PlaneRefinementComparatorINS_11PointXYZRGBENS_6NormalENS_5LabelEE15setLabelToModelERSt6vectorIiSaIiEE@Base 1.6
 (optional=templinst)_ZN3pcl25PlaneRefinementComparatorINS_11PointXYZRGBENS_6NormalENS_5LabelEE15setRefineLabelsERSt6vectorIbSaIbEE@Base 1.6
 (optional=templinst)_ZN3pcl25PlaneRefinementComparatorINS_11PointXYZRGBENS_6NormalENS_5LabelEE20setModelCoefficientsERSt6vectorINS_17ModelCoefficientsESaIS6_EE@Base 1.6
 (optional=templinst)_ZN3pcl25PlaneRefinementComparatorINS_11PointXYZRGBENS_6NormalENS_5LabelEED0Ev@Base 1.6
 (optional=templinst)_ZN3pcl25PlaneRefinementComparatorINS_11PointXYZRGBENS_6NormalENS_5LabelEED1Ev@Base 1.6
 (optional=templinst)_ZN3pcl25PlaneRefinementComparatorINS_11PointXYZRGBENS_6NormalENS_5LabelEED2Ev@Base 1.6
 (optional=templinst)_ZN3pcl25PlaneRefinementComparatorINS_12PointXYZRGBAENS_11PointNormalENS_5LabelEE15setLabelToModelERSt6vectorIiSaIiEE@Base 1.6
 (optional=templinst)_ZN3pcl25PlaneRefinementComparatorINS_12PointXYZRGBAENS_11PointNormalENS_5LabelEE15setRefineLabelsERSt6vectorIbSaIbEE@Base 1.6
 (optional=templinst)_ZN3pcl25PlaneRefinementComparatorINS_12PointXYZRGBAENS_11PointNormalENS_5LabelEE20setModelCoefficientsERSt6vectorINS_17ModelCoefficientsESaIS6_EE@Base 1.6
 (optional=templinst)_ZN3pcl25PlaneRefinementComparatorINS_12PointXYZRGBAENS_11PointNormalENS_5LabelEED0Ev@Base 1.6
 (optional=templinst)_ZN3pcl25PlaneRefinementComparatorINS_12PointXYZRGBAENS_11PointNormalENS_5LabelEED1Ev@Base 1.6
 (optional=templinst)_ZN3pcl25PlaneRefinementComparatorINS_12PointXYZRGBAENS_11PointNormalENS_5LabelEED2Ev@Base 1.6
 (optional=templinst)_ZN3pcl25PlaneRefinementComparatorINS_12PointXYZRGBAENS_15PointXYZINormalENS_5LabelEE15setLabelToModelERSt6vectorIiSaIiEE@Base 1.6
 (optional=templinst)_ZN3pcl25PlaneRefinementComparatorINS_12PointXYZRGBAENS_15PointXYZINormalENS_5LabelEE15setRefineLabelsERSt6vectorIbSaIbEE@Base 1.6
 (optional=templinst)_ZN3pcl25PlaneRefinementComparatorINS_12PointXYZRGBAENS_15PointXYZINormalENS_5LabelEE20setModelCoefficientsERSt6vectorINS_17ModelCoefficientsESaIS6_EE@Base 1.6
 (optional=templinst)_ZN3pcl25PlaneRefinementComparatorINS_12PointXYZRGBAENS_15PointXYZINormalENS_5LabelEED0Ev@Base 1.6
 (optional=templinst)_ZN3pcl25PlaneRefinementComparatorINS_12PointXYZRGBAENS_15PointXYZINormalENS_5LabelEED1Ev@Base 1.6
 (optional=templinst)_ZN3pcl25PlaneRefinementComparatorINS_12PointXYZRGBAENS_15PointXYZINormalENS_5LabelEED2Ev@Base 1.6
 (optional=templinst)_ZN3pcl25PlaneRefinementComparatorINS_12PointXYZRGBAENS_17PointXYZRGBNormalENS_5LabelEE15setLabelToModelERSt6vectorIiSaIiEE@Base 1.6
 (optional=templinst)_ZN3pcl25PlaneRefinementComparatorINS_12PointXYZRGBAENS_17PointXYZRGBNormalENS_5LabelEE15setRefineLabelsERSt6vectorIbSaIbEE@Base 1.6
 (optional=templinst)_ZN3pcl25PlaneRefinementComparatorINS_12PointXYZRGBAENS_17PointXYZRGBNormalENS_5LabelEE20setModelCoefficientsERSt6vectorINS_17ModelCoefficientsESaIS6_EE@Base 1.6
 (optional=templinst)_ZN3pcl25PlaneRefinementComparatorINS_12PointXYZRGBAENS_17PointXYZRGBNormalENS_5LabelEED0Ev@Base 1.6
 (optional=templinst)_ZN3pcl25PlaneRefinementComparatorINS_12PointXYZRGBAENS_17PointXYZRGBNormalENS_5LabelEED1Ev@Base 1.6
 (optional=templinst)_ZN3pcl25PlaneRefinementComparatorINS_12PointXYZRGBAENS_17PointXYZRGBNormalENS_5LabelEED2Ev@Base 1.6
 (optional=templinst)_ZN3pcl25PlaneRefinementComparatorINS_12PointXYZRGBAENS_6NormalENS_5LabelEE15setLabelToModelERSt6vectorIiSaIiEE@Base 1.6
 (optional=templinst)_ZN3pcl25PlaneRefinementComparatorINS_12PointXYZRGBAENS_6NormalENS_5LabelEE15setRefineLabelsERSt6vectorIbSaIbEE@Base 1.6
 (optional=templinst)_ZN3pcl25PlaneRefinementComparatorINS_12PointXYZRGBAENS_6NormalENS_5LabelEE20setModelCoefficientsERSt6vectorINS_17ModelCoefficientsESaIS6_EE@Base 1.6
 (optional=templinst)_ZN3pcl25PlaneRefinementComparatorINS_12PointXYZRGBAENS_6NormalENS_5LabelEED0Ev@Base 1.6
 (optional=templinst)_ZN3pcl25PlaneRefinementComparatorINS_12PointXYZRGBAENS_6NormalENS_5LabelEED1Ev@Base 1.6
 (optional=templinst)_ZN3pcl25PlaneRefinementComparatorINS_12PointXYZRGBAENS_6NormalENS_5LabelEED2Ev@Base 1.6
 (optional=templinst)_ZN3pcl25PlaneRefinementComparatorINS_12PointXYZRGBLENS_11PointNormalENS_5LabelEE15setLabelToModelERSt6vectorIiSaIiEE@Base 1.6
 (optional=templinst)_ZN3pcl25PlaneRefinementComparatorINS_12PointXYZRGBLENS_11PointNormalENS_5LabelEE15setRefineLabelsERSt6vectorIbSaIbEE@Base 1.6
 (optional=templinst)_ZN3pcl25PlaneRefinementComparatorINS_12PointXYZRGBLENS_11PointNormalENS_5LabelEE20setModelCoefficientsERSt6vectorINS_17ModelCoefficientsESaIS6_EE@Base 1.6
 (optional=templinst)_ZN3pcl25PlaneRefinementComparatorINS_12PointXYZRGBLENS_11PointNormalENS_5LabelEED0Ev@Base 1.6
 (optional=templinst)_ZN3pcl25PlaneRefinementComparatorINS_12PointXYZRGBLENS_11PointNormalENS_5LabelEED1Ev@Base 1.6
 (optional=templinst)_ZN3pcl25PlaneRefinementComparatorINS_12PointXYZRGBLENS_11PointNormalENS_5LabelEED2Ev@Base 1.6
 (optional=templinst)_ZN3pcl25PlaneRefinementComparatorINS_12PointXYZRGBLENS_15PointXYZINormalENS_5LabelEE15setLabelToModelERSt6vectorIiSaIiEE@Base 1.6
 (optional=templinst)_ZN3pcl25PlaneRefinementComparatorINS_12PointXYZRGBLENS_15PointXYZINormalENS_5LabelEE15setRefineLabelsERSt6vectorIbSaIbEE@Base 1.6
 (optional=templinst)_ZN3pcl25PlaneRefinementComparatorINS_12PointXYZRGBLENS_15PointXYZINormalENS_5LabelEE20setModelCoefficientsERSt6vectorINS_17ModelCoefficientsESaIS6_EE@Base 1.6
 (optional=templinst)_ZN3pcl25PlaneRefinementComparatorINS_12PointXYZRGBLENS_15PointXYZINormalENS_5LabelEED0Ev@Base 1.6
 (optional=templinst)_ZN3pcl25PlaneRefinementComparatorINS_12PointXYZRGBLENS_15PointXYZINormalENS_5LabelEED1Ev@Base 1.6
 (optional=templinst)_ZN3pcl25PlaneRefinementComparatorINS_12PointXYZRGBLENS_15PointXYZINormalENS_5LabelEED2Ev@Base 1.6
 (optional=templinst)_ZN3pcl25PlaneRefinementComparatorINS_12PointXYZRGBLENS_17PointXYZRGBNormalENS_5LabelEE15setLabelToModelERSt6vectorIiSaIiEE@Base 1.6
 (optional=templinst)_ZN3pcl25PlaneRefinementComparatorINS_12PointXYZRGBLENS_17PointXYZRGBNormalENS_5LabelEE15setRefineLabelsERSt6vectorIbSaIbEE@Base 1.6
 (optional=templinst)_ZN3pcl25PlaneRefinementComparatorINS_12PointXYZRGBLENS_17PointXYZRGBNormalENS_5LabelEE20setModelCoefficientsERSt6vectorINS_17ModelCoefficientsESaIS6_EE@Base 1.6
 (optional=templinst)_ZN3pcl25PlaneRefinementComparatorINS_12PointXYZRGBLENS_17PointXYZRGBNormalENS_5LabelEED0Ev@Base 1.6
 (optional=templinst)_ZN3pcl25PlaneRefinementComparatorINS_12PointXYZRGBLENS_17PointXYZRGBNormalENS_5LabelEED1Ev@Base 1.6
 (optional=templinst)_ZN3pcl25PlaneRefinementComparatorINS_12PointXYZRGBLENS_17PointXYZRGBNormalENS_5LabelEED2Ev@Base 1.6
 (optional=templinst)_ZN3pcl25PlaneRefinementComparatorINS_12PointXYZRGBLENS_6NormalENS_5LabelEE15setLabelToModelERSt6vectorIiSaIiEE@Base 1.6
 (optional=templinst)_ZN3pcl25PlaneRefinementComparatorINS_12PointXYZRGBLENS_6NormalENS_5LabelEE15setRefineLabelsERSt6vectorIbSaIbEE@Base 1.6
 (optional=templinst)_ZN3pcl25PlaneRefinementComparatorINS_12PointXYZRGBLENS_6NormalENS_5LabelEE20setModelCoefficientsERSt6vectorINS_17ModelCoefficientsESaIS6_EE@Base 1.6
 (optional=templinst)_ZN3pcl25PlaneRefinementComparatorINS_12PointXYZRGBLENS_6NormalENS_5LabelEED0Ev@Base 1.6
 (optional=templinst)_ZN3pcl25PlaneRefinementComparatorINS_12PointXYZRGBLENS_6NormalENS_5LabelEED1Ev@Base 1.6
 (optional=templinst)_ZN3pcl25PlaneRefinementComparatorINS_12PointXYZRGBLENS_6NormalENS_5LabelEED2Ev@Base 1.6
 (optional=templinst)_ZN3pcl25PlaneRefinementComparatorINS_13InterestPointENS_11PointNormalENS_5LabelEE15setLabelToModelERSt6vectorIiSaIiEE@Base 1.6
 (optional=templinst)_ZN3pcl25PlaneRefinementComparatorINS_13InterestPointENS_11PointNormalENS_5LabelEE15setRefineLabelsERSt6vectorIbSaIbEE@Base 1.6
 (optional=templinst)_ZN3pcl25PlaneRefinementComparatorINS_13InterestPointENS_11PointNormalENS_5LabelEE20setModelCoefficientsERSt6vectorINS_17ModelCoefficientsESaIS6_EE@Base 1.6
 (optional=templinst)_ZN3pcl25PlaneRefinementComparatorINS_13InterestPointENS_11PointNormalENS_5LabelEED0Ev@Base 1.6
 (optional=templinst)_ZN3pcl25PlaneRefinementComparatorINS_13InterestPointENS_11PointNormalENS_5LabelEED1Ev@Base 1.6
 (optional=templinst)_ZN3pcl25PlaneRefinementComparatorINS_13InterestPointENS_11PointNormalENS_5LabelEED2Ev@Base 1.6
 (optional=templinst)_ZN3pcl25PlaneRefinementComparatorINS_13InterestPointENS_15PointXYZINormalENS_5LabelEE15setLabelToModelERSt6vectorIiSaIiEE@Base 1.6
 (optional=templinst)_ZN3pcl25PlaneRefinementComparatorINS_13InterestPointENS_15PointXYZINormalENS_5LabelEE15setRefineLabelsERSt6vectorIbSaIbEE@Base 1.6
 (optional=templinst)_ZN3pcl25PlaneRefinementComparatorINS_13InterestPointENS_15PointXYZINormalENS_5LabelEE20setModelCoefficientsERSt6vectorINS_17ModelCoefficientsESaIS6_EE@Base 1.6
 (optional=templinst)_ZN3pcl25PlaneRefinementComparatorINS_13InterestPointENS_15PointXYZINormalENS_5LabelEED0Ev@Base 1.6
 (optional=templinst)_ZN3pcl25PlaneRefinementComparatorINS_13InterestPointENS_15PointXYZINormalENS_5LabelEED1Ev@Base 1.6
 (optional=templinst)_ZN3pcl25PlaneRefinementComparatorINS_13InterestPointENS_15PointXYZINormalENS_5LabelEED2Ev@Base 1.6
 (optional=templinst)_ZN3pcl25PlaneRefinementComparatorINS_13InterestPointENS_17PointXYZRGBNormalENS_5LabelEE15setLabelToModelERSt6vectorIiSaIiEE@Base 1.6
 (optional=templinst)_ZN3pcl25PlaneRefinementComparatorINS_13InterestPointENS_17PointXYZRGBNormalENS_5LabelEE15setRefineLabelsERSt6vectorIbSaIbEE@Base 1.6
 (optional=templinst)_ZN3pcl25PlaneRefinementComparatorINS_13InterestPointENS_17PointXYZRGBNormalENS_5LabelEE20setModelCoefficientsERSt6vectorINS_17ModelCoefficientsESaIS6_EE@Base 1.6
 (optional=templinst)_ZN3pcl25PlaneRefinementComparatorINS_13InterestPointENS_17PointXYZRGBNormalENS_5LabelEED0Ev@Base 1.6
 (optional=templinst)_ZN3pcl25PlaneRefinementComparatorINS_13InterestPointENS_17PointXYZRGBNormalENS_5LabelEED1Ev@Base 1.6
 (optional=templinst)_ZN3pcl25PlaneRefinementComparatorINS_13InterestPointENS_17PointXYZRGBNormalENS_5LabelEED2Ev@Base 1.6
 (optional=templinst)_ZN3pcl25PlaneRefinementComparatorINS_13InterestPointENS_6NormalENS_5LabelEE15setLabelToModelERSt6vectorIiSaIiEE@Base 1.6
 (optional=templinst)_ZN3pcl25PlaneRefinementComparatorINS_13InterestPointENS_6NormalENS_5LabelEE15setRefineLabelsERSt6vectorIbSaIbEE@Base 1.6
 (optional=templinst)_ZN3pcl25PlaneRefinementComparatorINS_13InterestPointENS_6NormalENS_5LabelEE20setModelCoefficientsERSt6vectorINS_17ModelCoefficientsESaIS6_EE@Base 1.6
 (optional=templinst)_ZN3pcl25PlaneRefinementComparatorINS_13InterestPointENS_6NormalENS_5LabelEED0Ev@Base 1.6
 (optional=templinst)_ZN3pcl25PlaneRefinementComparatorINS_13InterestPointENS_6NormalENS_5LabelEED1Ev@Base 1.6
 (optional=templinst)_ZN3pcl25PlaneRefinementComparatorINS_13InterestPointENS_6NormalENS_5LabelEED2Ev@Base 1.6
 (optional=templinst)_ZN3pcl25PlaneRefinementComparatorINS_14PointWithRangeENS_11PointNormalENS_5LabelEE15setLabelToModelERSt6vectorIiSaIiEE@Base 1.6
 (optional=templinst)_ZN3pcl25PlaneRefinementComparatorINS_14PointWithRangeENS_11PointNormalENS_5LabelEE15setRefineLabelsERSt6vectorIbSaIbEE@Base 1.6
 (optional=templinst)_ZN3pcl25PlaneRefinementComparatorINS_14PointWithRangeENS_11PointNormalENS_5LabelEE20setModelCoefficientsERSt6vectorINS_17ModelCoefficientsESaIS6_EE@Base 1.6
 (optional=templinst)_ZN3pcl25PlaneRefinementComparatorINS_14PointWithRangeENS_11PointNormalENS_5LabelEED0Ev@Base 1.6
 (optional=templinst)_ZN3pcl25PlaneRefinementComparatorINS_14PointWithRangeENS_11PointNormalENS_5LabelEED1Ev@Base 1.6
 (optional=templinst)_ZN3pcl25PlaneRefinementComparatorINS_14PointWithRangeENS_11PointNormalENS_5LabelEED2Ev@Base 1.6
 (optional=templinst)_ZN3pcl25PlaneRefinementComparatorINS_14PointWithRangeENS_15PointXYZINormalENS_5LabelEE15setLabelToModelERSt6vectorIiSaIiEE@Base 1.6
 (optional=templinst)_ZN3pcl25PlaneRefinementComparatorINS_14PointWithRangeENS_15PointXYZINormalENS_5LabelEE15setRefineLabelsERSt6vectorIbSaIbEE@Base 1.6
 (optional=templinst)_ZN3pcl25PlaneRefinementComparatorINS_14PointWithRangeENS_15PointXYZINormalENS_5LabelEE20setModelCoefficientsERSt6vectorINS_17ModelCoefficientsESaIS6_EE@Base 1.6
 (optional=templinst)_ZN3pcl25PlaneRefinementComparatorINS_14PointWithRangeENS_15PointXYZINormalENS_5LabelEED0Ev@Base 1.6
 (optional=templinst)_ZN3pcl25PlaneRefinementComparatorINS_14PointWithRangeENS_15PointXYZINormalENS_5LabelEED1Ev@Base 1.6
 (optional=templinst)_ZN3pcl25PlaneRefinementComparatorINS_14PointWithRangeENS_15PointXYZINormalENS_5LabelEED2Ev@Base 1.6
 (optional=templinst)_ZN3pcl25PlaneRefinementComparatorINS_14PointWithRangeENS_17PointXYZRGBNormalENS_5LabelEE15setLabelToModelERSt6vectorIiSaIiEE@Base 1.6
 (optional=templinst)_ZN3pcl25PlaneRefinementComparatorINS_14PointWithRangeENS_17PointXYZRGBNormalENS_5LabelEE15setRefineLabelsERSt6vectorIbSaIbEE@Base 1.6
 (optional=templinst)_ZN3pcl25PlaneRefinementComparatorINS_14PointWithRangeENS_17PointXYZRGBNormalENS_5LabelEE20setModelCoefficientsERSt6vectorINS_17ModelCoefficientsESaIS6_EE@Base 1.6
 (optional=templinst)_ZN3pcl25PlaneRefinementComparatorINS_14PointWithRangeENS_17PointXYZRGBNormalENS_5LabelEED0Ev@Base 1.6
 (optional=templinst)_ZN3pcl25PlaneRefinementComparatorINS_14PointWithRangeENS_17PointXYZRGBNormalENS_5LabelEED1Ev@Base 1.6
 (optional=templinst)_ZN3pcl25PlaneRefinementComparatorINS_14PointWithRangeENS_17PointXYZRGBNormalENS_5LabelEED2Ev@Base 1.6
 (optional=templinst)_ZN3pcl25PlaneRefinementComparatorINS_14PointWithRangeENS_6NormalENS_5LabelEE15setLabelToModelERSt6vectorIiSaIiEE@Base 1.6
 (optional=templinst)_ZN3pcl25PlaneRefinementComparatorINS_14PointWithRangeENS_6NormalENS_5LabelEE15setRefineLabelsERSt6vectorIbSaIbEE@Base 1.6
 (optional=templinst)_ZN3pcl25PlaneRefinementComparatorINS_14PointWithRangeENS_6NormalENS_5LabelEE20setModelCoefficientsERSt6vectorINS_17ModelCoefficientsESaIS6_EE@Base 1.6
 (optional=templinst)_ZN3pcl25PlaneRefinementComparatorINS_14PointWithRangeENS_6NormalENS_5LabelEED0Ev@Base 1.6
 (optional=templinst)_ZN3pcl25PlaneRefinementComparatorINS_14PointWithRangeENS_6NormalENS_5LabelEED1Ev@Base 1.6
 (optional=templinst)_ZN3pcl25PlaneRefinementComparatorINS_14PointWithRangeENS_6NormalENS_5LabelEED2Ev@Base 1.6
 (optional=templinst)_ZN3pcl25PlaneRefinementComparatorINS_14PointWithScaleENS_11PointNormalENS_5LabelEE15setLabelToModelERSt6vectorIiSaIiEE@Base 1.6
 (optional=templinst)_ZN3pcl25PlaneRefinementComparatorINS_14PointWithScaleENS_11PointNormalENS_5LabelEE15setRefineLabelsERSt6vectorIbSaIbEE@Base 1.6
 (optional=templinst)_ZN3pcl25PlaneRefinementComparatorINS_14PointWithScaleENS_11PointNormalENS_5LabelEE20setModelCoefficientsERSt6vectorINS_17ModelCoefficientsESaIS6_EE@Base 1.6
 (optional=templinst)_ZN3pcl25PlaneRefinementComparatorINS_14PointWithScaleENS_11PointNormalENS_5LabelEED0Ev@Base 1.6
 (optional=templinst)_ZN3pcl25PlaneRefinementComparatorINS_14PointWithScaleENS_11PointNormalENS_5LabelEED1Ev@Base 1.6
 (optional=templinst)_ZN3pcl25PlaneRefinementComparatorINS_14PointWithScaleENS_11PointNormalENS_5LabelEED2Ev@Base 1.6
 (optional=templinst)_ZN3pcl25PlaneRefinementComparatorINS_14PointWithScaleENS_15PointXYZINormalENS_5LabelEE15setLabelToModelERSt6vectorIiSaIiEE@Base 1.6
 (optional=templinst)_ZN3pcl25PlaneRefinementComparatorINS_14PointWithScaleENS_15PointXYZINormalENS_5LabelEE15setRefineLabelsERSt6vectorIbSaIbEE@Base 1.6
 (optional=templinst)_ZN3pcl25PlaneRefinementComparatorINS_14PointWithScaleENS_15PointXYZINormalENS_5LabelEE20setModelCoefficientsERSt6vectorINS_17ModelCoefficientsESaIS6_EE@Base 1.6
 (optional=templinst)_ZN3pcl25PlaneRefinementComparatorINS_14PointWithScaleENS_15PointXYZINormalENS_5LabelEED0Ev@Base 1.6
 (optional=templinst)_ZN3pcl25PlaneRefinementComparatorINS_14PointWithScaleENS_15PointXYZINormalENS_5LabelEED1Ev@Base 1.6
 (optional=templinst)_ZN3pcl25PlaneRefinementComparatorINS_14PointWithScaleENS_15PointXYZINormalENS_5LabelEED2Ev@Base 1.6
 (optional=templinst)_ZN3pcl25PlaneRefinementComparatorINS_14PointWithScaleENS_17PointXYZRGBNormalENS_5LabelEE15setLabelToModelERSt6vectorIiSaIiEE@Base 1.6
 (optional=templinst)_ZN3pcl25PlaneRefinementComparatorINS_14PointWithScaleENS_17PointXYZRGBNormalENS_5LabelEE15setRefineLabelsERSt6vectorIbSaIbEE@Base 1.6
 (optional=templinst)_ZN3pcl25PlaneRefinementComparatorINS_14PointWithScaleENS_17PointXYZRGBNormalENS_5LabelEE20setModelCoefficientsERSt6vectorINS_17ModelCoefficientsESaIS6_EE@Base 1.6
 (optional=templinst)_ZN3pcl25PlaneRefinementComparatorINS_14PointWithScaleENS_17PointXYZRGBNormalENS_5LabelEED0Ev@Base 1.6
 (optional=templinst)_ZN3pcl25PlaneRefinementComparatorINS_14PointWithScaleENS_17PointXYZRGBNormalENS_5LabelEED1Ev@Base 1.6
 (optional=templinst)_ZN3pcl25PlaneRefinementComparatorINS_14PointWithScaleENS_17PointXYZRGBNormalENS_5LabelEED2Ev@Base 1.6
 (optional=templinst)_ZN3pcl25PlaneRefinementComparatorINS_14PointWithScaleENS_6NormalENS_5LabelEE15setLabelToModelERSt6vectorIiSaIiEE@Base 1.6
 (optional=templinst)_ZN3pcl25PlaneRefinementComparatorINS_14PointWithScaleENS_6NormalENS_5LabelEE15setRefineLabelsERSt6vectorIbSaIbEE@Base 1.6
 (optional=templinst)_ZN3pcl25PlaneRefinementComparatorINS_14PointWithScaleENS_6NormalENS_5LabelEE20setModelCoefficientsERSt6vectorINS_17ModelCoefficientsESaIS6_EE@Base 1.6
 (optional=templinst)_ZN3pcl25PlaneRefinementComparatorINS_14PointWithScaleENS_6NormalENS_5LabelEED0Ev@Base 1.6
 (optional=templinst)_ZN3pcl25PlaneRefinementComparatorINS_14PointWithScaleENS_6NormalENS_5LabelEED1Ev@Base 1.6
 (optional=templinst)_ZN3pcl25PlaneRefinementComparatorINS_14PointWithScaleENS_6NormalENS_5LabelEED2Ev@Base 1.6
 (optional=templinst)_ZN3pcl25PlaneRefinementComparatorINS_15PointXYZINormalENS_11PointNormalENS_5LabelEE15setLabelToModelERSt6vectorIiSaIiEE@Base 1.6
 (optional=templinst)_ZN3pcl25PlaneRefinementComparatorINS_15PointXYZINormalENS_11PointNormalENS_5LabelEE15setRefineLabelsERSt6vectorIbSaIbEE@Base 1.6
 (optional=templinst)_ZN3pcl25PlaneRefinementComparatorINS_15PointXYZINormalENS_11PointNormalENS_5LabelEE20setModelCoefficientsERSt6vectorINS_17ModelCoefficientsESaIS6_EE@Base 1.6
 (optional=templinst)_ZN3pcl25PlaneRefinementComparatorINS_15PointXYZINormalENS_11PointNormalENS_5LabelEED0Ev@Base 1.6
 (optional=templinst)_ZN3pcl25PlaneRefinementComparatorINS_15PointXYZINormalENS_11PointNormalENS_5LabelEED1Ev@Base 1.6
 (optional=templinst)_ZN3pcl25PlaneRefinementComparatorINS_15PointXYZINormalENS_11PointNormalENS_5LabelEED2Ev@Base 1.6
 (optional=templinst)_ZN3pcl25PlaneRefinementComparatorINS_15PointXYZINormalENS_17PointXYZRGBNormalENS_5LabelEE15setLabelToModelERSt6vectorIiSaIiEE@Base 1.6
 (optional=templinst)_ZN3pcl25PlaneRefinementComparatorINS_15PointXYZINormalENS_17PointXYZRGBNormalENS_5LabelEE15setRefineLabelsERSt6vectorIbSaIbEE@Base 1.6
 (optional=templinst)_ZN3pcl25PlaneRefinementComparatorINS_15PointXYZINormalENS_17PointXYZRGBNormalENS_5LabelEE20setModelCoefficientsERSt6vectorINS_17ModelCoefficientsESaIS6_EE@Base 1.6
 (optional=templinst)_ZN3pcl25PlaneRefinementComparatorINS_15PointXYZINormalENS_17PointXYZRGBNormalENS_5LabelEED0Ev@Base 1.6
 (optional=templinst)_ZN3pcl25PlaneRefinementComparatorINS_15PointXYZINormalENS_17PointXYZRGBNormalENS_5LabelEED1Ev@Base 1.6
 (optional=templinst)_ZN3pcl25PlaneRefinementComparatorINS_15PointXYZINormalENS_17PointXYZRGBNormalENS_5LabelEED2Ev@Base 1.6
 (optional=templinst)_ZN3pcl25PlaneRefinementComparatorINS_15PointXYZINormalENS_6NormalENS_5LabelEE15setLabelToModelERSt6vectorIiSaIiEE@Base 1.6
 (optional=templinst)_ZN3pcl25PlaneRefinementComparatorINS_15PointXYZINormalENS_6NormalENS_5LabelEE15setRefineLabelsERSt6vectorIbSaIbEE@Base 1.6
 (optional=templinst)_ZN3pcl25PlaneRefinementComparatorINS_15PointXYZINormalENS_6NormalENS_5LabelEE20setModelCoefficientsERSt6vectorINS_17ModelCoefficientsESaIS6_EE@Base 1.6
 (optional=templinst)_ZN3pcl25PlaneRefinementComparatorINS_15PointXYZINormalENS_6NormalENS_5LabelEED0Ev@Base 1.6
 (optional=templinst)_ZN3pcl25PlaneRefinementComparatorINS_15PointXYZINormalENS_6NormalENS_5LabelEED1Ev@Base 1.6
 (optional=templinst)_ZN3pcl25PlaneRefinementComparatorINS_15PointXYZINormalENS_6NormalENS_5LabelEED2Ev@Base 1.6
 (optional=templinst)_ZN3pcl25PlaneRefinementComparatorINS_15PointXYZINormalES1_NS_5LabelEE15setLabelToModelERSt6vectorIiSaIiEE@Base 1.6
 (optional=templinst)_ZN3pcl25PlaneRefinementComparatorINS_15PointXYZINormalES1_NS_5LabelEE15setRefineLabelsERSt6vectorIbSaIbEE@Base 1.6
 (optional=templinst)_ZN3pcl25PlaneRefinementComparatorINS_15PointXYZINormalES1_NS_5LabelEE20setModelCoefficientsERSt6vectorINS_17ModelCoefficientsESaIS5_EE@Base 1.6
 (optional=templinst)_ZN3pcl25PlaneRefinementComparatorINS_15PointXYZINormalES1_NS_5LabelEED0Ev@Base 1.6
 (optional=templinst)_ZN3pcl25PlaneRefinementComparatorINS_15PointXYZINormalES1_NS_5LabelEED1Ev@Base 1.6
 (optional=templinst)_ZN3pcl25PlaneRefinementComparatorINS_15PointXYZINormalES1_NS_5LabelEED2Ev@Base 1.6
 (optional=templinst)_ZN3pcl25PlaneRefinementComparatorINS_17PointXYZRGBNormalENS_11PointNormalENS_5LabelEE15setLabelToModelERSt6vectorIiSaIiEE@Base 1.6
 (optional=templinst)_ZN3pcl25PlaneRefinementComparatorINS_17PointXYZRGBNormalENS_11PointNormalENS_5LabelEE15setRefineLabelsERSt6vectorIbSaIbEE@Base 1.6
 (optional=templinst)_ZN3pcl25PlaneRefinementComparatorINS_17PointXYZRGBNormalENS_11PointNormalENS_5LabelEE20setModelCoefficientsERSt6vectorINS_17ModelCoefficientsESaIS6_EE@Base 1.6
 (optional=templinst)_ZN3pcl25PlaneRefinementComparatorINS_17PointXYZRGBNormalENS_11PointNormalENS_5LabelEED0Ev@Base 1.6
 (optional=templinst)_ZN3pcl25PlaneRefinementComparatorINS_17PointXYZRGBNormalENS_11PointNormalENS_5LabelEED1Ev@Base 1.6
 (optional=templinst)_ZN3pcl25PlaneRefinementComparatorINS_17PointXYZRGBNormalENS_11PointNormalENS_5LabelEED2Ev@Base 1.6
 (optional=templinst)_ZN3pcl25PlaneRefinementComparatorINS_17PointXYZRGBNormalENS_15PointXYZINormalENS_5LabelEE15setLabelToModelERSt6vectorIiSaIiEE@Base 1.6
 (optional=templinst)_ZN3pcl25PlaneRefinementComparatorINS_17PointXYZRGBNormalENS_15PointXYZINormalENS_5LabelEE15setRefineLabelsERSt6vectorIbSaIbEE@Base 1.6
 (optional=templinst)_ZN3pcl25PlaneRefinementComparatorINS_17PointXYZRGBNormalENS_15PointXYZINormalENS_5LabelEE20setModelCoefficientsERSt6vectorINS_17ModelCoefficientsESaIS6_EE@Base 1.6
 (optional=templinst)_ZN3pcl25PlaneRefinementComparatorINS_17PointXYZRGBNormalENS_15PointXYZINormalENS_5LabelEED0Ev@Base 1.6
 (optional=templinst)_ZN3pcl25PlaneRefinementComparatorINS_17PointXYZRGBNormalENS_15PointXYZINormalENS_5LabelEED1Ev@Base 1.6
 (optional=templinst)_ZN3pcl25PlaneRefinementComparatorINS_17PointXYZRGBNormalENS_15PointXYZINormalENS_5LabelEED2Ev@Base 1.6
 (optional=templinst)_ZN3pcl25PlaneRefinementComparatorINS_17PointXYZRGBNormalENS_6NormalENS_5LabelEE15setLabelToModelERSt6vectorIiSaIiEE@Base 1.6
 (optional=templinst)_ZN3pcl25PlaneRefinementComparatorINS_17PointXYZRGBNormalENS_6NormalENS_5LabelEE15setRefineLabelsERSt6vectorIbSaIbEE@Base 1.6
 (optional=templinst)_ZN3pcl25PlaneRefinementComparatorINS_17PointXYZRGBNormalENS_6NormalENS_5LabelEE20setModelCoefficientsERSt6vectorINS_17ModelCoefficientsESaIS6_EE@Base 1.6
 (optional=templinst)_ZN3pcl25PlaneRefinementComparatorINS_17PointXYZRGBNormalENS_6NormalENS_5LabelEED0Ev@Base 1.6
 (optional=templinst)_ZN3pcl25PlaneRefinementComparatorINS_17PointXYZRGBNormalENS_6NormalENS_5LabelEED1Ev@Base 1.6
 (optional=templinst)_ZN3pcl25PlaneRefinementComparatorINS_17PointXYZRGBNormalENS_6NormalENS_5LabelEED2Ev@Base 1.6
 (optional=templinst)_ZN3pcl25PlaneRefinementComparatorINS_17PointXYZRGBNormalES1_NS_5LabelEE15setLabelToModelERSt6vectorIiSaIiEE@Base 1.6
 (optional=templinst)_ZN3pcl25PlaneRefinementComparatorINS_17PointXYZRGBNormalES1_NS_5LabelEE15setRefineLabelsERSt6vectorIbSaIbEE@Base 1.6
 (optional=templinst)_ZN3pcl25PlaneRefinementComparatorINS_17PointXYZRGBNormalES1_NS_5LabelEE20setModelCoefficientsERSt6vectorINS_17ModelCoefficientsESaIS5_EE@Base 1.6
 (optional=templinst)_ZN3pcl25PlaneRefinementComparatorINS_17PointXYZRGBNormalES1_NS_5LabelEED0Ev@Base 1.6
 (optional=templinst)_ZN3pcl25PlaneRefinementComparatorINS_17PointXYZRGBNormalES1_NS_5LabelEED1Ev@Base 1.6
 (optional=templinst)_ZN3pcl25PlaneRefinementComparatorINS_17PointXYZRGBNormalES1_NS_5LabelEED2Ev@Base 1.6
 (optional=templinst)_ZN3pcl25PlaneRefinementComparatorINS_18PointWithViewpointENS_11PointNormalENS_5LabelEE15setLabelToModelERSt6vectorIiSaIiEE@Base 1.6
 (optional=templinst)_ZN3pcl25PlaneRefinementComparatorINS_18PointWithViewpointENS_11PointNormalENS_5LabelEE15setRefineLabelsERSt6vectorIbSaIbEE@Base 1.6
 (optional=templinst)_ZN3pcl25PlaneRefinementComparatorINS_18PointWithViewpointENS_11PointNormalENS_5LabelEE20setModelCoefficientsERSt6vectorINS_17ModelCoefficientsESaIS6_EE@Base 1.6
 (optional=templinst)_ZN3pcl25PlaneRefinementComparatorINS_18PointWithViewpointENS_11PointNormalENS_5LabelEED0Ev@Base 1.6
 (optional=templinst)_ZN3pcl25PlaneRefinementComparatorINS_18PointWithViewpointENS_11PointNormalENS_5LabelEED1Ev@Base 1.6
 (optional=templinst)_ZN3pcl25PlaneRefinementComparatorINS_18PointWithViewpointENS_11PointNormalENS_5LabelEED2Ev@Base 1.6
 (optional=templinst)_ZN3pcl25PlaneRefinementComparatorINS_18PointWithViewpointENS_15PointXYZINormalENS_5LabelEE15setLabelToModelERSt6vectorIiSaIiEE@Base 1.6
 (optional=templinst)_ZN3pcl25PlaneRefinementComparatorINS_18PointWithViewpointENS_15PointXYZINormalENS_5LabelEE15setRefineLabelsERSt6vectorIbSaIbEE@Base 1.6
 (optional=templinst)_ZN3pcl25PlaneRefinementComparatorINS_18PointWithViewpointENS_15PointXYZINormalENS_5LabelEE20setModelCoefficientsERSt6vectorINS_17ModelCoefficientsESaIS6_EE@Base 1.6
 (optional=templinst)_ZN3pcl25PlaneRefinementComparatorINS_18PointWithViewpointENS_15PointXYZINormalENS_5LabelEED0Ev@Base 1.6
 (optional=templinst)_ZN3pcl25PlaneRefinementComparatorINS_18PointWithViewpointENS_15PointXYZINormalENS_5LabelEED1Ev@Base 1.6
 (optional=templinst)_ZN3pcl25PlaneRefinementComparatorINS_18PointWithViewpointENS_15PointXYZINormalENS_5LabelEED2Ev@Base 1.6
 (optional=templinst)_ZN3pcl25PlaneRefinementComparatorINS_18PointWithViewpointENS_17PointXYZRGBNormalENS_5LabelEE15setLabelToModelERSt6vectorIiSaIiEE@Base 1.6
 (optional=templinst)_ZN3pcl25PlaneRefinementComparatorINS_18PointWithViewpointENS_17PointXYZRGBNormalENS_5LabelEE15setRefineLabelsERSt6vectorIbSaIbEE@Base 1.6
 (optional=templinst)_ZN3pcl25PlaneRefinementComparatorINS_18PointWithViewpointENS_17PointXYZRGBNormalENS_5LabelEE20setModelCoefficientsERSt6vectorINS_17ModelCoefficientsESaIS6_EE@Base 1.6
 (optional=templinst)_ZN3pcl25PlaneRefinementComparatorINS_18PointWithViewpointENS_17PointXYZRGBNormalENS_5LabelEED0Ev@Base 1.6
 (optional=templinst)_ZN3pcl25PlaneRefinementComparatorINS_18PointWithViewpointENS_17PointXYZRGBNormalENS_5LabelEED1Ev@Base 1.6
 (optional=templinst)_ZN3pcl25PlaneRefinementComparatorINS_18PointWithViewpointENS_17PointXYZRGBNormalENS_5LabelEED2Ev@Base 1.6
 (optional=templinst)_ZN3pcl25PlaneRefinementComparatorINS_18PointWithViewpointENS_6NormalENS_5LabelEE15setLabelToModelERSt6vectorIiSaIiEE@Base 1.6
 (optional=templinst)_ZN3pcl25PlaneRefinementComparatorINS_18PointWithViewpointENS_6NormalENS_5LabelEE15setRefineLabelsERSt6vectorIbSaIbEE@Base 1.6
 (optional=templinst)_ZN3pcl25PlaneRefinementComparatorINS_18PointWithViewpointENS_6NormalENS_5LabelEE20setModelCoefficientsERSt6vectorINS_17ModelCoefficientsESaIS6_EE@Base 1.6
 (optional=templinst)_ZN3pcl25PlaneRefinementComparatorINS_18PointWithViewpointENS_6NormalENS_5LabelEED0Ev@Base 1.6
 (optional=templinst)_ZN3pcl25PlaneRefinementComparatorINS_18PointWithViewpointENS_6NormalENS_5LabelEED1Ev@Base 1.6
 (optional=templinst)_ZN3pcl25PlaneRefinementComparatorINS_18PointWithViewpointENS_6NormalENS_5LabelEED2Ev@Base 1.6
 (optional=templinst)_ZN3pcl25PlaneRefinementComparatorINS_8PointXYZENS_11PointNormalENS_5LabelEE15setLabelToModelERSt6vectorIiSaIiEE@Base 1.6
 (optional=templinst)_ZN3pcl25PlaneRefinementComparatorINS_8PointXYZENS_11PointNormalENS_5LabelEE15setRefineLabelsERSt6vectorIbSaIbEE@Base 1.6
 (optional=templinst)_ZN3pcl25PlaneRefinementComparatorINS_8PointXYZENS_11PointNormalENS_5LabelEE20setModelCoefficientsERSt6vectorINS_17ModelCoefficientsESaIS6_EE@Base 1.6
 (optional=templinst)_ZN3pcl25PlaneRefinementComparatorINS_8PointXYZENS_11PointNormalENS_5LabelEED0Ev@Base 1.6
 (optional=templinst)_ZN3pcl25PlaneRefinementComparatorINS_8PointXYZENS_11PointNormalENS_5LabelEED1Ev@Base 1.6
 (optional=templinst)_ZN3pcl25PlaneRefinementComparatorINS_8PointXYZENS_11PointNormalENS_5LabelEED2Ev@Base 1.6
 (optional=templinst)_ZN3pcl25PlaneRefinementComparatorINS_8PointXYZENS_15PointXYZINormalENS_5LabelEE15setLabelToModelERSt6vectorIiSaIiEE@Base 1.6
 (optional=templinst)_ZN3pcl25PlaneRefinementComparatorINS_8PointXYZENS_15PointXYZINormalENS_5LabelEE15setRefineLabelsERSt6vectorIbSaIbEE@Base 1.6
 (optional=templinst)_ZN3pcl25PlaneRefinementComparatorINS_8PointXYZENS_15PointXYZINormalENS_5LabelEE20setModelCoefficientsERSt6vectorINS_17ModelCoefficientsESaIS6_EE@Base 1.6
 (optional=templinst)_ZN3pcl25PlaneRefinementComparatorINS_8PointXYZENS_15PointXYZINormalENS_5LabelEED0Ev@Base 1.6
 (optional=templinst)_ZN3pcl25PlaneRefinementComparatorINS_8PointXYZENS_15PointXYZINormalENS_5LabelEED1Ev@Base 1.6
 (optional=templinst)_ZN3pcl25PlaneRefinementComparatorINS_8PointXYZENS_15PointXYZINormalENS_5LabelEED2Ev@Base 1.6
 (optional=templinst)_ZN3pcl25PlaneRefinementComparatorINS_8PointXYZENS_17PointXYZRGBNormalENS_5LabelEE15setLabelToModelERSt6vectorIiSaIiEE@Base 1.6
 (optional=templinst)_ZN3pcl25PlaneRefinementComparatorINS_8PointXYZENS_17PointXYZRGBNormalENS_5LabelEE15setRefineLabelsERSt6vectorIbSaIbEE@Base 1.6
 (optional=templinst)_ZN3pcl25PlaneRefinementComparatorINS_8PointXYZENS_17PointXYZRGBNormalENS_5LabelEE20setModelCoefficientsERSt6vectorINS_17ModelCoefficientsESaIS6_EE@Base 1.6
 (optional=templinst)_ZN3pcl25PlaneRefinementComparatorINS_8PointXYZENS_17PointXYZRGBNormalENS_5LabelEED0Ev@Base 1.6
 (optional=templinst)_ZN3pcl25PlaneRefinementComparatorINS_8PointXYZENS_17PointXYZRGBNormalENS_5LabelEED1Ev@Base 1.6
 (optional=templinst)_ZN3pcl25PlaneRefinementComparatorINS_8PointXYZENS_17PointXYZRGBNormalENS_5LabelEED2Ev@Base 1.6
 (optional=templinst)_ZN3pcl25PlaneRefinementComparatorINS_8PointXYZENS_6NormalENS_5LabelEE15setLabelToModelERSt6vectorIiSaIiEE@Base 1.6
 (optional=templinst)_ZN3pcl25PlaneRefinementComparatorINS_8PointXYZENS_6NormalENS_5LabelEE15setRefineLabelsERSt6vectorIbSaIbEE@Base 1.6
 (optional=templinst)_ZN3pcl25PlaneRefinementComparatorINS_8PointXYZENS_6NormalENS_5LabelEE20setModelCoefficientsERSt6vectorINS_17ModelCoefficientsESaIS6_EE@Base 1.6
 (optional=templinst)_ZN3pcl25PlaneRefinementComparatorINS_8PointXYZENS_6NormalENS_5LabelEED0Ev@Base 1.6
 (optional=templinst)_ZN3pcl25PlaneRefinementComparatorINS_8PointXYZENS_6NormalENS_5LabelEED1Ev@Base 1.6
 (optional=templinst)_ZN3pcl25PlaneRefinementComparatorINS_8PointXYZENS_6NormalENS_5LabelEED2Ev@Base 1.6
 (optional=templinst)_ZN3pcl25PlaneRefinementComparatorINS_9PointXYZIENS_11PointNormalENS_5LabelEE15setLabelToModelERSt6vectorIiSaIiEE@Base 1.6
 (optional=templinst)_ZN3pcl25PlaneRefinementComparatorINS_9PointXYZIENS_11PointNormalENS_5LabelEE15setRefineLabelsERSt6vectorIbSaIbEE@Base 1.6
 (optional=templinst)_ZN3pcl25PlaneRefinementComparatorINS_9PointXYZIENS_11PointNormalENS_5LabelEE20setModelCoefficientsERSt6vectorINS_17ModelCoefficientsESaIS6_EE@Base 1.6
 (optional=templinst)_ZN3pcl25PlaneRefinementComparatorINS_9PointXYZIENS_11PointNormalENS_5LabelEED0Ev@Base 1.6
 (optional=templinst)_ZN3pcl25PlaneRefinementComparatorINS_9PointXYZIENS_11PointNormalENS_5LabelEED1Ev@Base 1.6
 (optional=templinst)_ZN3pcl25PlaneRefinementComparatorINS_9PointXYZIENS_11PointNormalENS_5LabelEED2Ev@Base 1.6
 (optional=templinst)_ZN3pcl25PlaneRefinementComparatorINS_9PointXYZIENS_15PointXYZINormalENS_5LabelEE15setLabelToModelERSt6vectorIiSaIiEE@Base 1.6
 (optional=templinst)_ZN3pcl25PlaneRefinementComparatorINS_9PointXYZIENS_15PointXYZINormalENS_5LabelEE15setRefineLabelsERSt6vectorIbSaIbEE@Base 1.6
 (optional=templinst)_ZN3pcl25PlaneRefinementComparatorINS_9PointXYZIENS_15PointXYZINormalENS_5LabelEE20setModelCoefficientsERSt6vectorINS_17ModelCoefficientsESaIS6_EE@Base 1.6
 (optional=templinst)_ZN3pcl25PlaneRefinementComparatorINS_9PointXYZIENS_15PointXYZINormalENS_5LabelEED0Ev@Base 1.6
 (optional=templinst)_ZN3pcl25PlaneRefinementComparatorINS_9PointXYZIENS_15PointXYZINormalENS_5LabelEED1Ev@Base 1.6
 (optional=templinst)_ZN3pcl25PlaneRefinementComparatorINS_9PointXYZIENS_15PointXYZINormalENS_5LabelEED2Ev@Base 1.6
 (optional=templinst)_ZN3pcl25PlaneRefinementComparatorINS_9PointXYZIENS_17PointXYZRGBNormalENS_5LabelEE15setLabelToModelERSt6vectorIiSaIiEE@Base 1.6
 (optional=templinst)_ZN3pcl25PlaneRefinementComparatorINS_9PointXYZIENS_17PointXYZRGBNormalENS_5LabelEE15setRefineLabelsERSt6vectorIbSaIbEE@Base 1.6
 (optional=templinst)_ZN3pcl25PlaneRefinementComparatorINS_9PointXYZIENS_17PointXYZRGBNormalENS_5LabelEE20setModelCoefficientsERSt6vectorINS_17ModelCoefficientsESaIS6_EE@Base 1.6
 (optional=templinst)_ZN3pcl25PlaneRefinementComparatorINS_9PointXYZIENS_17PointXYZRGBNormalENS_5LabelEED0Ev@Base 1.6
 (optional=templinst)_ZN3pcl25PlaneRefinementComparatorINS_9PointXYZIENS_17PointXYZRGBNormalENS_5LabelEED1Ev@Base 1.6
 (optional=templinst)_ZN3pcl25PlaneRefinementComparatorINS_9PointXYZIENS_17PointXYZRGBNormalENS_5LabelEED2Ev@Base 1.6
 (optional=templinst)_ZN3pcl25PlaneRefinementComparatorINS_9PointXYZIENS_6NormalENS_5LabelEE15setLabelToModelERSt6vectorIiSaIiEE@Base 1.6
 (optional=templinst)_ZN3pcl25PlaneRefinementComparatorINS_9PointXYZIENS_6NormalENS_5LabelEE15setRefineLabelsERSt6vectorIbSaIbEE@Base 1.6
 (optional=templinst)_ZN3pcl25PlaneRefinementComparatorINS_9PointXYZIENS_6NormalENS_5LabelEE20setModelCoefficientsERSt6vectorINS_17ModelCoefficientsESaIS6_EE@Base 1.6
 (optional=templinst)_ZN3pcl25PlaneRefinementComparatorINS_9PointXYZIENS_6NormalENS_5LabelEED0Ev@Base 1.6
 (optional=templinst)_ZN3pcl25PlaneRefinementComparatorINS_9PointXYZIENS_6NormalENS_5LabelEED1Ev@Base 1.6
 (optional=templinst)_ZN3pcl25PlaneRefinementComparatorINS_9PointXYZIENS_6NormalENS_5LabelEED2Ev@Base 1.6
 (optional=templinst)_ZN3pcl25PlaneRefinementComparatorINS_9PointXYZLENS_11PointNormalENS_5LabelEE15setLabelToModelERSt6vectorIiSaIiEE@Base 1.6
 (optional=templinst)_ZN3pcl25PlaneRefinementComparatorINS_9PointXYZLENS_11PointNormalENS_5LabelEE15setRefineLabelsERSt6vectorIbSaIbEE@Base 1.6
 (optional=templinst)_ZN3pcl25PlaneRefinementComparatorINS_9PointXYZLENS_11PointNormalENS_5LabelEE20setModelCoefficientsERSt6vectorINS_17ModelCoefficientsESaIS6_EE@Base 1.6
 (optional=templinst)_ZN3pcl25PlaneRefinementComparatorINS_9PointXYZLENS_11PointNormalENS_5LabelEED0Ev@Base 1.6
 (optional=templinst)_ZN3pcl25PlaneRefinementComparatorINS_9PointXYZLENS_11PointNormalENS_5LabelEED1Ev@Base 1.6
 (optional=templinst)_ZN3pcl25PlaneRefinementComparatorINS_9PointXYZLENS_11PointNormalENS_5LabelEED2Ev@Base 1.6
 (optional=templinst)_ZN3pcl25PlaneRefinementComparatorINS_9PointXYZLENS_15PointXYZINormalENS_5LabelEE15setLabelToModelERSt6vectorIiSaIiEE@Base 1.6
 (optional=templinst)_ZN3pcl25PlaneRefinementComparatorINS_9PointXYZLENS_15PointXYZINormalENS_5LabelEE15setRefineLabelsERSt6vectorIbSaIbEE@Base 1.6
 (optional=templinst)_ZN3pcl25PlaneRefinementComparatorINS_9PointXYZLENS_15PointXYZINormalENS_5LabelEE20setModelCoefficientsERSt6vectorINS_17ModelCoefficientsESaIS6_EE@Base 1.6
 (optional=templinst)_ZN3pcl25PlaneRefinementComparatorINS_9PointXYZLENS_15PointXYZINormalENS_5LabelEED0Ev@Base 1.6
 (optional=templinst)_ZN3pcl25PlaneRefinementComparatorINS_9PointXYZLENS_15PointXYZINormalENS_5LabelEED1Ev@Base 1.6
 (optional=templinst)_ZN3pcl25PlaneRefinementComparatorINS_9PointXYZLENS_15PointXYZINormalENS_5LabelEED2Ev@Base 1.6
 (optional=templinst)_ZN3pcl25PlaneRefinementComparatorINS_9PointXYZLENS_17PointXYZRGBNormalENS_5LabelEE15setLabelToModelERSt6vectorIiSaIiEE@Base 1.6
 (optional=templinst)_ZN3pcl25PlaneRefinementComparatorINS_9PointXYZLENS_17PointXYZRGBNormalENS_5LabelEE15setRefineLabelsERSt6vectorIbSaIbEE@Base 1.6
 (optional=templinst)_ZN3pcl25PlaneRefinementComparatorINS_9PointXYZLENS_17PointXYZRGBNormalENS_5LabelEE20setModelCoefficientsERSt6vectorINS_17ModelCoefficientsESaIS6_EE@Base 1.6
 (optional=templinst)_ZN3pcl25PlaneRefinementComparatorINS_9PointXYZLENS_17PointXYZRGBNormalENS_5LabelEED0Ev@Base 1.6
 (optional=templinst)_ZN3pcl25PlaneRefinementComparatorINS_9PointXYZLENS_17PointXYZRGBNormalENS_5LabelEED1Ev@Base 1.6
 (optional=templinst)_ZN3pcl25PlaneRefinementComparatorINS_9PointXYZLENS_17PointXYZRGBNormalENS_5LabelEED2Ev@Base 1.6
 (optional=templinst)_ZN3pcl25PlaneRefinementComparatorINS_9PointXYZLENS_6NormalENS_5LabelEE15setLabelToModelERSt6vectorIiSaIiEE@Base 1.6
 (optional=templinst)_ZN3pcl25PlaneRefinementComparatorINS_9PointXYZLENS_6NormalENS_5LabelEE15setRefineLabelsERSt6vectorIbSaIbEE@Base 1.6
 (optional=templinst)_ZN3pcl25PlaneRefinementComparatorINS_9PointXYZLENS_6NormalENS_5LabelEE20setModelCoefficientsERSt6vectorINS_17ModelCoefficientsESaIS6_EE@Base 1.6
 (optional=templinst)_ZN3pcl25PlaneRefinementComparatorINS_9PointXYZLENS_6NormalENS_5LabelEED0Ev@Base 1.6
 (optional=templinst)_ZN3pcl25PlaneRefinementComparatorINS_9PointXYZLENS_6NormalENS_5LabelEED1Ev@Base 1.6
 (optional=templinst)_ZN3pcl25PlaneRefinementComparatorINS_9PointXYZLENS_6NormalENS_5LabelEED2Ev@Base 1.6
 (optional=templinst)_ZN3pcl25SampleConsensusModelPlaneINS_11PointNormalEE12isModelValidERKN5Eigen6MatrixIfLin1ELi1ELi0ELin1ELi1EEE@Base 1.6
 (optional=templinst)_ZN3pcl25SampleConsensusModelPlaneINS_11PointNormalEED0Ev@Base 1.6
 (optional=templinst)_ZN3pcl25SampleConsensusModelPlaneINS_11PointNormalEED1Ev@Base 1.6
 (optional=templinst)_ZN3pcl25SampleConsensusModelPlaneINS_11PointNormalEED2Ev@Base 1.6
 (optional=templinst)_ZN3pcl25SampleConsensusModelPlaneINS_11PointXYZHSVEE12isModelValidERKN5Eigen6MatrixIfLin1ELi1ELi0ELin1ELi1EEE@Base 1.6
 (optional=templinst)_ZN3pcl25SampleConsensusModelPlaneINS_11PointXYZHSVEED0Ev@Base 1.6
 (optional=templinst)_ZN3pcl25SampleConsensusModelPlaneINS_11PointXYZHSVEED1Ev@Base 1.6
 (optional=templinst)_ZN3pcl25SampleConsensusModelPlaneINS_11PointXYZHSVEED2Ev@Base 1.6
 (optional=templinst)_ZN3pcl25SampleConsensusModelPlaneINS_11PointXYZRGBEE12isModelValidERKN5Eigen6MatrixIfLin1ELi1ELi0ELin1ELi1EEE@Base 1.6
 (optional=templinst)_ZN3pcl25SampleConsensusModelPlaneINS_11PointXYZRGBEED0Ev@Base 1.6
 (optional=templinst)_ZN3pcl25SampleConsensusModelPlaneINS_11PointXYZRGBEED1Ev@Base 1.6
 (optional=templinst)_ZN3pcl25SampleConsensusModelPlaneINS_11PointXYZRGBEED2Ev@Base 1.6
 (optional=templinst)_ZN3pcl25SampleConsensusModelPlaneINS_12PointXYZRGBAEE12isModelValidERKN5Eigen6MatrixIfLin1ELi1ELi0ELin1ELi1EEE@Base 1.6
 (optional=templinst)_ZN3pcl25SampleConsensusModelPlaneINS_12PointXYZRGBAEED0Ev@Base 1.6
 (optional=templinst)_ZN3pcl25SampleConsensusModelPlaneINS_12PointXYZRGBAEED1Ev@Base 1.6
 (optional=templinst)_ZN3pcl25SampleConsensusModelPlaneINS_12PointXYZRGBAEED2Ev@Base 1.6
 (optional=templinst)_ZN3pcl25SampleConsensusModelPlaneINS_12PointXYZRGBLEE12isModelValidERKN5Eigen6MatrixIfLin1ELi1ELi0ELin1ELi1EEE@Base 1.6
 (optional=templinst)_ZN3pcl25SampleConsensusModelPlaneINS_12PointXYZRGBLEED0Ev@Base 1.6
 (optional=templinst)_ZN3pcl25SampleConsensusModelPlaneINS_12PointXYZRGBLEED1Ev@Base 1.6
 (optional=templinst)_ZN3pcl25SampleConsensusModelPlaneINS_12PointXYZRGBLEED2Ev@Base 1.6
 (optional=templinst)_ZN3pcl25SampleConsensusModelPlaneINS_13InterestPointEE12isModelValidERKN5Eigen6MatrixIfLin1ELi1ELi0ELin1ELi1EEE@Base 1.6
 (optional=templinst)_ZN3pcl25SampleConsensusModelPlaneINS_13InterestPointEED0Ev@Base 1.6
 (optional=templinst)_ZN3pcl25SampleConsensusModelPlaneINS_13InterestPointEED1Ev@Base 1.6
 (optional=templinst)_ZN3pcl25SampleConsensusModelPlaneINS_13InterestPointEED2Ev@Base 1.6
 (optional=templinst)_ZN3pcl25SampleConsensusModelPlaneINS_14PointWithRangeEE12isModelValidERKN5Eigen6MatrixIfLin1ELi1ELi0ELin1ELi1EEE@Base 1.6
 (optional=templinst)_ZN3pcl25SampleConsensusModelPlaneINS_14PointWithRangeEED0Ev@Base 1.6
 (optional=templinst)_ZN3pcl25SampleConsensusModelPlaneINS_14PointWithRangeEED1Ev@Base 1.6
 (optional=templinst)_ZN3pcl25SampleConsensusModelPlaneINS_14PointWithRangeEED2Ev@Base 1.6
 (optional=templinst)_ZN3pcl25SampleConsensusModelPlaneINS_14PointWithScaleEE12isModelValidERKN5Eigen6MatrixIfLin1ELi1ELi0ELin1ELi1EEE@Base 1.6
 (optional=templinst)_ZN3pcl25SampleConsensusModelPlaneINS_14PointWithScaleEED0Ev@Base 1.6
 (optional=templinst)_ZN3pcl25SampleConsensusModelPlaneINS_14PointWithScaleEED1Ev@Base 1.6
 (optional=templinst)_ZN3pcl25SampleConsensusModelPlaneINS_14PointWithScaleEED2Ev@Base 1.6
 (optional=templinst)_ZN3pcl25SampleConsensusModelPlaneINS_15PointXYZINormalEE12isModelValidERKN5Eigen6MatrixIfLin1ELi1ELi0ELin1ELi1EEE@Base 1.6
 (optional=templinst)_ZN3pcl25SampleConsensusModelPlaneINS_15PointXYZINormalEED0Ev@Base 1.6
 (optional=templinst)_ZN3pcl25SampleConsensusModelPlaneINS_15PointXYZINormalEED1Ev@Base 1.6
 (optional=templinst)_ZN3pcl25SampleConsensusModelPlaneINS_15PointXYZINormalEED2Ev@Base 1.6
 (optional=templinst)_ZN3pcl25SampleConsensusModelPlaneINS_17PointXYZRGBNormalEE12isModelValidERKN5Eigen6MatrixIfLin1ELi1ELi0ELin1ELi1EEE@Base 1.6
 (optional=templinst)_ZN3pcl25SampleConsensusModelPlaneINS_17PointXYZRGBNormalEED0Ev@Base 1.6
 (optional=templinst)_ZN3pcl25SampleConsensusModelPlaneINS_17PointXYZRGBNormalEED1Ev@Base 1.6
 (optional=templinst)_ZN3pcl25SampleConsensusModelPlaneINS_17PointXYZRGBNormalEED2Ev@Base 1.6
 (optional=templinst)_ZN3pcl25SampleConsensusModelPlaneINS_18PointWithViewpointEE12isModelValidERKN5Eigen6MatrixIfLin1ELi1ELi0ELin1ELi1EEE@Base 1.6
 (optional=templinst)_ZN3pcl25SampleConsensusModelPlaneINS_18PointWithViewpointEED0Ev@Base 1.6
 (optional=templinst)_ZN3pcl25SampleConsensusModelPlaneINS_18PointWithViewpointEED1Ev@Base 1.6
 (optional=templinst)_ZN3pcl25SampleConsensusModelPlaneINS_18PointWithViewpointEED2Ev@Base 1.6
 (optional=templinst)_ZN3pcl25SampleConsensusModelPlaneINS_8PointXYZEE12isModelValidERKN5Eigen6MatrixIfLin1ELi1ELi0ELin1ELi1EEE@Base 1.6
 (optional=templinst)_ZN3pcl25SampleConsensusModelPlaneINS_8PointXYZEED0Ev@Base 1.6
 (optional=templinst)_ZN3pcl25SampleConsensusModelPlaneINS_8PointXYZEED1Ev@Base 1.6
 (optional=templinst)_ZN3pcl25SampleConsensusModelPlaneINS_8PointXYZEED2Ev@Base 1.6
 (optional=templinst)_ZN3pcl25SampleConsensusModelPlaneINS_9PointXYZIEE12isModelValidERKN5Eigen6MatrixIfLin1ELi1ELi0ELin1ELi1EEE@Base 1.6
 (optional=templinst)_ZN3pcl25SampleConsensusModelPlaneINS_9PointXYZIEED0Ev@Base 1.6
 (optional=templinst)_ZN3pcl25SampleConsensusModelPlaneINS_9PointXYZIEED1Ev@Base 1.6
 (optional=templinst)_ZN3pcl25SampleConsensusModelPlaneINS_9PointXYZIEED2Ev@Base 1.6
 (optional=templinst)_ZN3pcl25SampleConsensusModelPlaneINS_9PointXYZLEE12isModelValidERKN5Eigen6MatrixIfLin1ELi1ELi0ELin1ELi1EEE@Base 1.6
 (optional=templinst)_ZN3pcl25SampleConsensusModelPlaneINS_9PointXYZLEED0Ev@Base 1.6
 (optional=templinst)_ZN3pcl25SampleConsensusModelPlaneINS_9PointXYZLEED1Ev@Base 1.6
 (optional=templinst)_ZN3pcl25SampleConsensusModelPlaneINS_9PointXYZLEED2Ev@Base 1.6
 (optional=templinst)_ZN3pcl25SampleConsensusModelStickINS_11PointNormalEE12isModelValidERKN5Eigen6MatrixIfLin1ELi1ELi0ELin1ELi1EEE@Base 1.6
 (optional=templinst)_ZN3pcl25SampleConsensusModelStickINS_11PointNormalEED0Ev@Base 1.6
 (optional=templinst)_ZN3pcl25SampleConsensusModelStickINS_11PointNormalEED1Ev@Base 1.6
 (optional=templinst)_ZN3pcl25SampleConsensusModelStickINS_11PointNormalEED2Ev@Base 1.6
 (optional=templinst)_ZN3pcl25SampleConsensusModelStickINS_11PointXYZHSVEE12isModelValidERKN5Eigen6MatrixIfLin1ELi1ELi0ELin1ELi1EEE@Base 1.6
 (optional=templinst)_ZN3pcl25SampleConsensusModelStickINS_11PointXYZHSVEED0Ev@Base 1.6
 (optional=templinst)_ZN3pcl25SampleConsensusModelStickINS_11PointXYZHSVEED1Ev@Base 1.6
 (optional=templinst)_ZN3pcl25SampleConsensusModelStickINS_11PointXYZHSVEED2Ev@Base 1.6
 (optional=templinst)_ZN3pcl25SampleConsensusModelStickINS_11PointXYZRGBEE12isModelValidERKN5Eigen6MatrixIfLin1ELi1ELi0ELin1ELi1EEE@Base 1.6
 (optional=templinst)_ZN3pcl25SampleConsensusModelStickINS_11PointXYZRGBEED0Ev@Base 1.6
 (optional=templinst)_ZN3pcl25SampleConsensusModelStickINS_11PointXYZRGBEED1Ev@Base 1.6
 (optional=templinst)_ZN3pcl25SampleConsensusModelStickINS_11PointXYZRGBEED2Ev@Base 1.6
 (optional=templinst)_ZN3pcl25SampleConsensusModelStickINS_12PointXYZRGBAEE12isModelValidERKN5Eigen6MatrixIfLin1ELi1ELi0ELin1ELi1EEE@Base 1.6
 (optional=templinst)_ZN3pcl25SampleConsensusModelStickINS_12PointXYZRGBAEED0Ev@Base 1.6
 (optional=templinst)_ZN3pcl25SampleConsensusModelStickINS_12PointXYZRGBAEED1Ev@Base 1.6
 (optional=templinst)_ZN3pcl25SampleConsensusModelStickINS_12PointXYZRGBAEED2Ev@Base 1.6
 (optional=templinst)_ZN3pcl25SampleConsensusModelStickINS_12PointXYZRGBLEE12isModelValidERKN5Eigen6MatrixIfLin1ELi1ELi0ELin1ELi1EEE@Base 1.6
 (optional=templinst)_ZN3pcl25SampleConsensusModelStickINS_12PointXYZRGBLEED0Ev@Base 1.6
 (optional=templinst)_ZN3pcl25SampleConsensusModelStickINS_12PointXYZRGBLEED1Ev@Base 1.6
 (optional=templinst)_ZN3pcl25SampleConsensusModelStickINS_12PointXYZRGBLEED2Ev@Base 1.6
 (optional=templinst)_ZN3pcl25SampleConsensusModelStickINS_13InterestPointEE12isModelValidERKN5Eigen6MatrixIfLin1ELi1ELi0ELin1ELi1EEE@Base 1.6
 (optional=templinst)_ZN3pcl25SampleConsensusModelStickINS_13InterestPointEED0Ev@Base 1.6
 (optional=templinst)_ZN3pcl25SampleConsensusModelStickINS_13InterestPointEED1Ev@Base 1.6
 (optional=templinst)_ZN3pcl25SampleConsensusModelStickINS_13InterestPointEED2Ev@Base 1.6
 (optional=templinst)_ZN3pcl25SampleConsensusModelStickINS_14PointWithRangeEE12isModelValidERKN5Eigen6MatrixIfLin1ELi1ELi0ELin1ELi1EEE@Base 1.6
 (optional=templinst)_ZN3pcl25SampleConsensusModelStickINS_14PointWithRangeEED0Ev@Base 1.6
 (optional=templinst)_ZN3pcl25SampleConsensusModelStickINS_14PointWithRangeEED1Ev@Base 1.6
 (optional=templinst)_ZN3pcl25SampleConsensusModelStickINS_14PointWithRangeEED2Ev@Base 1.6
 (optional=templinst)_ZN3pcl25SampleConsensusModelStickINS_14PointWithScaleEE12isModelValidERKN5Eigen6MatrixIfLin1ELi1ELi0ELin1ELi1EEE@Base 1.6
 (optional=templinst)_ZN3pcl25SampleConsensusModelStickINS_14PointWithScaleEED0Ev@Base 1.6
 (optional=templinst)_ZN3pcl25SampleConsensusModelStickINS_14PointWithScaleEED1Ev@Base 1.6
 (optional=templinst)_ZN3pcl25SampleConsensusModelStickINS_14PointWithScaleEED2Ev@Base 1.6
 (optional=templinst)_ZN3pcl25SampleConsensusModelStickINS_15PointXYZINormalEE12isModelValidERKN5Eigen6MatrixIfLin1ELi1ELi0ELin1ELi1EEE@Base 1.6
 (optional=templinst)_ZN3pcl25SampleConsensusModelStickINS_15PointXYZINormalEED0Ev@Base 1.6
 (optional=templinst)_ZN3pcl25SampleConsensusModelStickINS_15PointXYZINormalEED1Ev@Base 1.6
 (optional=templinst)_ZN3pcl25SampleConsensusModelStickINS_15PointXYZINormalEED2Ev@Base 1.6
 (optional=templinst)_ZN3pcl25SampleConsensusModelStickINS_17PointXYZRGBNormalEE12isModelValidERKN5Eigen6MatrixIfLin1ELi1ELi0ELin1ELi1EEE@Base 1.6
 (optional=templinst)_ZN3pcl25SampleConsensusModelStickINS_17PointXYZRGBNormalEED0Ev@Base 1.6
 (optional=templinst)_ZN3pcl25SampleConsensusModelStickINS_17PointXYZRGBNormalEED1Ev@Base 1.6
 (optional=templinst)_ZN3pcl25SampleConsensusModelStickINS_17PointXYZRGBNormalEED2Ev@Base 1.6
 (optional=templinst)_ZN3pcl25SampleConsensusModelStickINS_18PointWithViewpointEE12isModelValidERKN5Eigen6MatrixIfLin1ELi1ELi0ELin1ELi1EEE@Base 1.6
 (optional=templinst)_ZN3pcl25SampleConsensusModelStickINS_18PointWithViewpointEED0Ev@Base 1.6
 (optional=templinst)_ZN3pcl25SampleConsensusModelStickINS_18PointWithViewpointEED1Ev@Base 1.6
 (optional=templinst)_ZN3pcl25SampleConsensusModelStickINS_18PointWithViewpointEED2Ev@Base 1.6
 (optional=templinst)_ZN3pcl25SampleConsensusModelStickINS_8PointXYZEE12isModelValidERKN5Eigen6MatrixIfLin1ELi1ELi0ELin1ELi1EEE@Base 1.6
 (optional=templinst)_ZN3pcl25SampleConsensusModelStickINS_8PointXYZEED0Ev@Base 1.6
 (optional=templinst)_ZN3pcl25SampleConsensusModelStickINS_8PointXYZEED1Ev@Base 1.6
 (optional=templinst)_ZN3pcl25SampleConsensusModelStickINS_8PointXYZEED2Ev@Base 1.6
 (optional=templinst)_ZN3pcl25SampleConsensusModelStickINS_9PointXYZIEE12isModelValidERKN5Eigen6MatrixIfLin1ELi1ELi0ELin1ELi1EEE@Base 1.6
 (optional=templinst)_ZN3pcl25SampleConsensusModelStickINS_9PointXYZIEED0Ev@Base 1.6
 (optional=templinst)_ZN3pcl25SampleConsensusModelStickINS_9PointXYZIEED1Ev@Base 1.6
 (optional=templinst)_ZN3pcl25SampleConsensusModelStickINS_9PointXYZIEED2Ev@Base 1.6
 (optional=templinst)_ZN3pcl25SampleConsensusModelStickINS_9PointXYZLEE12isModelValidERKN5Eigen6MatrixIfLin1ELi1ELi0ELin1ELi1EEE@Base 1.6
 (optional=templinst)_ZN3pcl25SampleConsensusModelStickINS_9PointXYZLEED0Ev@Base 1.6
 (optional=templinst)_ZN3pcl25SampleConsensusModelStickINS_9PointXYZLEED1Ev@Base 1.6
 (optional=templinst)_ZN3pcl25SampleConsensusModelStickINS_9PointXYZLEED2Ev@Base 1.6
 (optional=templinst)_ZN3pcl26DefaultPointRepresentationINS_11PointNormalEED0Ev@Base 1.6
 (optional=templinst)_ZN3pcl26DefaultPointRepresentationINS_11PointNormalEED1Ev@Base 1.6
 (optional=templinst)_ZN3pcl26DefaultPointRepresentationINS_11PointNormalEED2Ev@Base 1.6
 (optional=templinst)_ZN3pcl26DefaultPointRepresentationINS_11PointXYZHSVEED0Ev@Base 1.6
 (optional=templinst)_ZN3pcl26DefaultPointRepresentationINS_11PointXYZHSVEED1Ev@Base 1.6
 (optional=templinst)_ZN3pcl26DefaultPointRepresentationINS_11PointXYZHSVEED2Ev@Base 1.6
 (optional=templinst)_ZN3pcl26DefaultPointRepresentationINS_11PointXYZRGBEED0Ev@Base 1.6
 (optional=templinst)_ZN3pcl26DefaultPointRepresentationINS_11PointXYZRGBEED1Ev@Base 1.6
 (optional=templinst)_ZN3pcl26DefaultPointRepresentationINS_11PointXYZRGBEED2Ev@Base 1.6
 (optional=templinst)_ZN3pcl26DefaultPointRepresentationINS_12PointXYZRGBAEED0Ev@Base 1.6
 (optional=templinst)_ZN3pcl26DefaultPointRepresentationINS_12PointXYZRGBAEED1Ev@Base 1.6
 (optional=templinst)_ZN3pcl26DefaultPointRepresentationINS_12PointXYZRGBAEED2Ev@Base 1.6
 (optional=templinst)_ZN3pcl26DefaultPointRepresentationINS_12PointXYZRGBLEED0Ev@Base 1.6
 (optional=templinst)_ZN3pcl26DefaultPointRepresentationINS_12PointXYZRGBLEED1Ev@Base 1.6
 (optional=templinst)_ZN3pcl26DefaultPointRepresentationINS_12PointXYZRGBLEED2Ev@Base 1.6
 (optional=templinst)_ZN3pcl26DefaultPointRepresentationINS_13InterestPointEED0Ev@Base 1.6
 (optional=templinst)_ZN3pcl26DefaultPointRepresentationINS_13InterestPointEED1Ev@Base 1.6
 (optional=templinst)_ZN3pcl26DefaultPointRepresentationINS_13InterestPointEED2Ev@Base 1.6
 (optional=templinst)_ZN3pcl26DefaultPointRepresentationINS_14PointWithRangeEED0Ev@Base 1.6
 (optional=templinst)_ZN3pcl26DefaultPointRepresentationINS_14PointWithRangeEED1Ev@Base 1.6
 (optional=templinst)_ZN3pcl26DefaultPointRepresentationINS_14PointWithRangeEED2Ev@Base 1.6
 (optional=templinst)_ZN3pcl26DefaultPointRepresentationINS_14PointWithScaleEED0Ev@Base 1.6
 (optional=templinst)_ZN3pcl26DefaultPointRepresentationINS_14PointWithScaleEED1Ev@Base 1.6
 (optional=templinst)_ZN3pcl26DefaultPointRepresentationINS_14PointWithScaleEED2Ev@Base 1.6
 (optional=templinst)_ZN3pcl26DefaultPointRepresentationINS_15PointXYZINormalEED0Ev@Base 1.6
 (optional=templinst)_ZN3pcl26DefaultPointRepresentationINS_15PointXYZINormalEED1Ev@Base 1.6
 (optional=templinst)_ZN3pcl26DefaultPointRepresentationINS_15PointXYZINormalEED2Ev@Base 1.6
 (optional=templinst)_ZN3pcl26DefaultPointRepresentationINS_17PointXYZRGBNormalEED0Ev@Base 1.6
 (optional=templinst)_ZN3pcl26DefaultPointRepresentationINS_17PointXYZRGBNormalEED1Ev@Base 1.6
 (optional=templinst)_ZN3pcl26DefaultPointRepresentationINS_17PointXYZRGBNormalEED2Ev@Base 1.6
 (optional=templinst)_ZN3pcl26DefaultPointRepresentationINS_18PointWithViewpointEED0Ev@Base 1.6
 (optional=templinst)_ZN3pcl26DefaultPointRepresentationINS_18PointWithViewpointEED1Ev@Base 1.6
 (optional=templinst)_ZN3pcl26DefaultPointRepresentationINS_18PointWithViewpointEED2Ev@Base 1.6
 (optional=templinst)_ZN3pcl26DefaultPointRepresentationINS_8PointXYZEED0Ev@Base 1.6
 (optional=templinst)_ZN3pcl26DefaultPointRepresentationINS_8PointXYZEED1Ev@Base 1.6
 (optional=templinst)_ZN3pcl26DefaultPointRepresentationINS_8PointXYZEED2Ev@Base 1.6
 (optional=templinst)_ZN3pcl26DefaultPointRepresentationINS_9PointXYZIEED0Ev@Base 1.6
 (optional=templinst)_ZN3pcl26DefaultPointRepresentationINS_9PointXYZIEED1Ev@Base 1.6
 (optional=templinst)_ZN3pcl26DefaultPointRepresentationINS_9PointXYZIEED2Ev@Base 1.6
 (optional=templinst)_ZN3pcl26DefaultPointRepresentationINS_9PointXYZLEED0Ev@Base 1.6
 (optional=templinst)_ZN3pcl26DefaultPointRepresentationINS_9PointXYZLEED1Ev@Base 1.6
 (optional=templinst)_ZN3pcl26DefaultPointRepresentationINS_9PointXYZLEED2Ev@Base 1.6
 (optional=templinst)_ZN3pcl26EuclideanClusterExtractionINS_11PointNormalEE15setSearchMethodERKN5boost10shared_ptrINS_6search6SearchIS1_EEEE@Base 1.6
 (optional=templinst)_ZN3pcl26EuclideanClusterExtractionINS_11PointNormalEE17setMaxClusterSizeEi@Base 1.6
 (optional=templinst)_ZN3pcl26EuclideanClusterExtractionINS_11PointNormalEE17setMinClusterSizeEi@Base 1.6
 (optional=templinst)_ZN3pcl26EuclideanClusterExtractionINS_11PointNormalEE19setClusterToleranceEd@Base 1.6
 (optional=templinst)_ZN3pcl26EuclideanClusterExtractionINS_11PointNormalEE7extractERSt6vectorINS_12PointIndicesESaIS4_EE@Base 1.6
 (optional=templinst)_ZN3pcl26EuclideanClusterExtractionINS_11PointNormalEEC1Ev@Base 1.6
 (optional=templinst)_ZN3pcl26EuclideanClusterExtractionINS_11PointNormalEEC2Ev@Base 1.6
 (optional=templinst)_ZN3pcl26EuclideanClusterExtractionINS_11PointNormalEED0Ev@Base 1.6
 (optional=templinst)_ZN3pcl26EuclideanClusterExtractionINS_11PointNormalEED1Ev@Base 1.6
 (optional=templinst)_ZN3pcl26EuclideanClusterExtractionINS_11PointNormalEED2Ev@Base 1.6
 (optional=templinst)_ZN3pcl26EuclideanClusterExtractionINS_11PointXYZHSVEE15setSearchMethodERKN5boost10shared_ptrINS_6search6SearchIS1_EEEE@Base 1.6
 (optional=templinst)_ZN3pcl26EuclideanClusterExtractionINS_11PointXYZHSVEE17setMaxClusterSizeEi@Base 1.6
 (optional=templinst)_ZN3pcl26EuclideanClusterExtractionINS_11PointXYZHSVEE17setMinClusterSizeEi@Base 1.6
 (optional=templinst)_ZN3pcl26EuclideanClusterExtractionINS_11PointXYZHSVEE19setClusterToleranceEd@Base 1.6
 (optional=templinst)_ZN3pcl26EuclideanClusterExtractionINS_11PointXYZHSVEE7extractERSt6vectorINS_12PointIndicesESaIS4_EE@Base 1.6
 (optional=templinst)_ZN3pcl26EuclideanClusterExtractionINS_11PointXYZHSVEEC1Ev@Base 1.6
 (optional=templinst)_ZN3pcl26EuclideanClusterExtractionINS_11PointXYZHSVEEC2Ev@Base 1.6
 (optional=templinst)_ZN3pcl26EuclideanClusterExtractionINS_11PointXYZHSVEED0Ev@Base 1.6
 (optional=templinst)_ZN3pcl26EuclideanClusterExtractionINS_11PointXYZHSVEED1Ev@Base 1.6
 (optional=templinst)_ZN3pcl26EuclideanClusterExtractionINS_11PointXYZHSVEED2Ev@Base 1.6
 (optional=templinst)_ZN3pcl26EuclideanClusterExtractionINS_11PointXYZRGBEE15setSearchMethodERKN5boost10shared_ptrINS_6search6SearchIS1_EEEE@Base 1.6
 (optional=templinst)_ZN3pcl26EuclideanClusterExtractionINS_11PointXYZRGBEE17setMaxClusterSizeEi@Base 1.6
 (optional=templinst)_ZN3pcl26EuclideanClusterExtractionINS_11PointXYZRGBEE17setMinClusterSizeEi@Base 1.6
 (optional=templinst)_ZN3pcl26EuclideanClusterExtractionINS_11PointXYZRGBEE19setClusterToleranceEd@Base 1.6
 (optional=templinst)_ZN3pcl26EuclideanClusterExtractionINS_11PointXYZRGBEE7extractERSt6vectorINS_12PointIndicesESaIS4_EE@Base 1.6
 (optional=templinst)_ZN3pcl26EuclideanClusterExtractionINS_11PointXYZRGBEEC1Ev@Base 1.6
 (optional=templinst)_ZN3pcl26EuclideanClusterExtractionINS_11PointXYZRGBEEC2Ev@Base 1.6
 (optional=templinst)_ZN3pcl26EuclideanClusterExtractionINS_11PointXYZRGBEED0Ev@Base 1.6
 (optional=templinst)_ZN3pcl26EuclideanClusterExtractionINS_11PointXYZRGBEED1Ev@Base 1.6
 (optional=templinst)_ZN3pcl26EuclideanClusterExtractionINS_11PointXYZRGBEED2Ev@Base 1.6
 (optional=templinst)_ZN3pcl26EuclideanClusterExtractionINS_12PointXYZRGBAEE15setSearchMethodERKN5boost10shared_ptrINS_6search6SearchIS1_EEEE@Base 1.6
 (optional=templinst)_ZN3pcl26EuclideanClusterExtractionINS_12PointXYZRGBAEE17setMaxClusterSizeEi@Base 1.6
 (optional=templinst)_ZN3pcl26EuclideanClusterExtractionINS_12PointXYZRGBAEE17setMinClusterSizeEi@Base 1.6
 (optional=templinst)_ZN3pcl26EuclideanClusterExtractionINS_12PointXYZRGBAEE19setClusterToleranceEd@Base 1.6
 (optional=templinst)_ZN3pcl26EuclideanClusterExtractionINS_12PointXYZRGBAEE7extractERSt6vectorINS_12PointIndicesESaIS4_EE@Base 1.6
 (optional=templinst)_ZN3pcl26EuclideanClusterExtractionINS_12PointXYZRGBAEEC1Ev@Base 1.6
 (optional=templinst)_ZN3pcl26EuclideanClusterExtractionINS_12PointXYZRGBAEEC2Ev@Base 1.6
 (optional=templinst)_ZN3pcl26EuclideanClusterExtractionINS_12PointXYZRGBAEED0Ev@Base 1.6
 (optional=templinst)_ZN3pcl26EuclideanClusterExtractionINS_12PointXYZRGBAEED1Ev@Base 1.6
 (optional=templinst)_ZN3pcl26EuclideanClusterExtractionINS_12PointXYZRGBAEED2Ev@Base 1.6
 (optional=templinst)_ZN3pcl26EuclideanClusterExtractionINS_12PointXYZRGBLEE15setSearchMethodERKN5boost10shared_ptrINS_6search6SearchIS1_EEEE@Base 1.6
 (optional=templinst)_ZN3pcl26EuclideanClusterExtractionINS_12PointXYZRGBLEE17setMaxClusterSizeEi@Base 1.6
 (optional=templinst)_ZN3pcl26EuclideanClusterExtractionINS_12PointXYZRGBLEE17setMinClusterSizeEi@Base 1.6
 (optional=templinst)_ZN3pcl26EuclideanClusterExtractionINS_12PointXYZRGBLEE19setClusterToleranceEd@Base 1.6
 (optional=templinst)_ZN3pcl26EuclideanClusterExtractionINS_12PointXYZRGBLEE7extractERSt6vectorINS_12PointIndicesESaIS4_EE@Base 1.6
 (optional=templinst)_ZN3pcl26EuclideanClusterExtractionINS_12PointXYZRGBLEEC1Ev@Base 1.6
 (optional=templinst)_ZN3pcl26EuclideanClusterExtractionINS_12PointXYZRGBLEEC2Ev@Base 1.6
 (optional=templinst)_ZN3pcl26EuclideanClusterExtractionINS_12PointXYZRGBLEED0Ev@Base 1.6
 (optional=templinst)_ZN3pcl26EuclideanClusterExtractionINS_12PointXYZRGBLEED1Ev@Base 1.6
 (optional=templinst)_ZN3pcl26EuclideanClusterExtractionINS_12PointXYZRGBLEED2Ev@Base 1.6
 (optional=templinst)_ZN3pcl26EuclideanClusterExtractionINS_13InterestPointEE15setSearchMethodERKN5boost10shared_ptrINS_6search6SearchIS1_EEEE@Base 1.6
 (optional=templinst)_ZN3pcl26EuclideanClusterExtractionINS_13InterestPointEE17setMaxClusterSizeEi@Base 1.6
 (optional=templinst)_ZN3pcl26EuclideanClusterExtractionINS_13InterestPointEE17setMinClusterSizeEi@Base 1.6
 (optional=templinst)_ZN3pcl26EuclideanClusterExtractionINS_13InterestPointEE19setClusterToleranceEd@Base 1.6
 (optional=templinst)_ZN3pcl26EuclideanClusterExtractionINS_13InterestPointEE7extractERSt6vectorINS_12PointIndicesESaIS4_EE@Base 1.6
 (optional=templinst)_ZN3pcl26EuclideanClusterExtractionINS_13InterestPointEEC1Ev@Base 1.6
 (optional=templinst)_ZN3pcl26EuclideanClusterExtractionINS_13InterestPointEEC2Ev@Base 1.6
 (optional=templinst)_ZN3pcl26EuclideanClusterExtractionINS_13InterestPointEED0Ev@Base 1.6
 (optional=templinst)_ZN3pcl26EuclideanClusterExtractionINS_13InterestPointEED1Ev@Base 1.6
 (optional=templinst)_ZN3pcl26EuclideanClusterExtractionINS_13InterestPointEED2Ev@Base 1.6
 (optional=templinst)_ZN3pcl26EuclideanClusterExtractionINS_14PointWithRangeEE15setSearchMethodERKN5boost10shared_ptrINS_6search6SearchIS1_EEEE@Base 1.6
 (optional=templinst)_ZN3pcl26EuclideanClusterExtractionINS_14PointWithRangeEE17setMaxClusterSizeEi@Base 1.6
 (optional=templinst)_ZN3pcl26EuclideanClusterExtractionINS_14PointWithRangeEE17setMinClusterSizeEi@Base 1.6
 (optional=templinst)_ZN3pcl26EuclideanClusterExtractionINS_14PointWithRangeEE19setClusterToleranceEd@Base 1.6
 (optional=templinst)_ZN3pcl26EuclideanClusterExtractionINS_14PointWithRangeEE7extractERSt6vectorINS_12PointIndicesESaIS4_EE@Base 1.6
 (optional=templinst)_ZN3pcl26EuclideanClusterExtractionINS_14PointWithRangeEEC1Ev@Base 1.6
 (optional=templinst)_ZN3pcl26EuclideanClusterExtractionINS_14PointWithRangeEEC2Ev@Base 1.6
 (optional=templinst)_ZN3pcl26EuclideanClusterExtractionINS_14PointWithRangeEED0Ev@Base 1.6
 (optional=templinst)_ZN3pcl26EuclideanClusterExtractionINS_14PointWithRangeEED1Ev@Base 1.6
 (optional=templinst)_ZN3pcl26EuclideanClusterExtractionINS_14PointWithRangeEED2Ev@Base 1.6
 (optional=templinst)_ZN3pcl26EuclideanClusterExtractionINS_14PointWithScaleEE15setSearchMethodERKN5boost10shared_ptrINS_6search6SearchIS1_EEEE@Base 1.6
 (optional=templinst)_ZN3pcl26EuclideanClusterExtractionINS_14PointWithScaleEE17setMaxClusterSizeEi@Base 1.6
 (optional=templinst)_ZN3pcl26EuclideanClusterExtractionINS_14PointWithScaleEE17setMinClusterSizeEi@Base 1.6
 (optional=templinst)_ZN3pcl26EuclideanClusterExtractionINS_14PointWithScaleEE19setClusterToleranceEd@Base 1.6
 (optional=templinst)_ZN3pcl26EuclideanClusterExtractionINS_14PointWithScaleEE7extractERSt6vectorINS_12PointIndicesESaIS4_EE@Base 1.6
 (optional=templinst)_ZN3pcl26EuclideanClusterExtractionINS_14PointWithScaleEEC1Ev@Base 1.6
 (optional=templinst)_ZN3pcl26EuclideanClusterExtractionINS_14PointWithScaleEEC2Ev@Base 1.6
 (optional=templinst)_ZN3pcl26EuclideanClusterExtractionINS_14PointWithScaleEED0Ev@Base 1.6
 (optional=templinst)_ZN3pcl26EuclideanClusterExtractionINS_14PointWithScaleEED1Ev@Base 1.6
 (optional=templinst)_ZN3pcl26EuclideanClusterExtractionINS_14PointWithScaleEED2Ev@Base 1.6
 (optional=templinst)_ZN3pcl26EuclideanClusterExtractionINS_15PointXYZINormalEE15setSearchMethodERKN5boost10shared_ptrINS_6search6SearchIS1_EEEE@Base 1.6
 (optional=templinst)_ZN3pcl26EuclideanClusterExtractionINS_15PointXYZINormalEE17setMaxClusterSizeEi@Base 1.6
 (optional=templinst)_ZN3pcl26EuclideanClusterExtractionINS_15PointXYZINormalEE17setMinClusterSizeEi@Base 1.6
 (optional=templinst)_ZN3pcl26EuclideanClusterExtractionINS_15PointXYZINormalEE19setClusterToleranceEd@Base 1.6
 (optional=templinst)_ZN3pcl26EuclideanClusterExtractionINS_15PointXYZINormalEE7extractERSt6vectorINS_12PointIndicesESaIS4_EE@Base 1.6
 (optional=templinst)_ZN3pcl26EuclideanClusterExtractionINS_15PointXYZINormalEEC1Ev@Base 1.6
 (optional=templinst)_ZN3pcl26EuclideanClusterExtractionINS_15PointXYZINormalEEC2Ev@Base 1.6
 (optional=templinst)_ZN3pcl26EuclideanClusterExtractionINS_15PointXYZINormalEED0Ev@Base 1.6
 (optional=templinst)_ZN3pcl26EuclideanClusterExtractionINS_15PointXYZINormalEED1Ev@Base 1.6
 (optional=templinst)_ZN3pcl26EuclideanClusterExtractionINS_15PointXYZINormalEED2Ev@Base 1.6
 (optional=templinst)_ZN3pcl26EuclideanClusterExtractionINS_17PointXYZRGBNormalEE15setSearchMethodERKN5boost10shared_ptrINS_6search6SearchIS1_EEEE@Base 1.6
 (optional=templinst)_ZN3pcl26EuclideanClusterExtractionINS_17PointXYZRGBNormalEE17setMaxClusterSizeEi@Base 1.6
 (optional=templinst)_ZN3pcl26EuclideanClusterExtractionINS_17PointXYZRGBNormalEE17setMinClusterSizeEi@Base 1.6
 (optional=templinst)_ZN3pcl26EuclideanClusterExtractionINS_17PointXYZRGBNormalEE19setClusterToleranceEd@Base 1.6
 (optional=templinst)_ZN3pcl26EuclideanClusterExtractionINS_17PointXYZRGBNormalEE7extractERSt6vectorINS_12PointIndicesESaIS4_EE@Base 1.6
 (optional=templinst)_ZN3pcl26EuclideanClusterExtractionINS_17PointXYZRGBNormalEEC1Ev@Base 1.6
 (optional=templinst)_ZN3pcl26EuclideanClusterExtractionINS_17PointXYZRGBNormalEEC2Ev@Base 1.6
 (optional=templinst)_ZN3pcl26EuclideanClusterExtractionINS_17PointXYZRGBNormalEED0Ev@Base 1.6
 (optional=templinst)_ZN3pcl26EuclideanClusterExtractionINS_17PointXYZRGBNormalEED1Ev@Base 1.6
 (optional=templinst)_ZN3pcl26EuclideanClusterExtractionINS_17PointXYZRGBNormalEED2Ev@Base 1.6
 (optional=templinst)_ZN3pcl26EuclideanClusterExtractionINS_18PointWithViewpointEE15setSearchMethodERKN5boost10shared_ptrINS_6search6SearchIS1_EEEE@Base 1.6
 (optional=templinst)_ZN3pcl26EuclideanClusterExtractionINS_18PointWithViewpointEE17setMaxClusterSizeEi@Base 1.6
 (optional=templinst)_ZN3pcl26EuclideanClusterExtractionINS_18PointWithViewpointEE17setMinClusterSizeEi@Base 1.6
 (optional=templinst)_ZN3pcl26EuclideanClusterExtractionINS_18PointWithViewpointEE19setClusterToleranceEd@Base 1.6
 (optional=templinst)_ZN3pcl26EuclideanClusterExtractionINS_18PointWithViewpointEE7extractERSt6vectorINS_12PointIndicesESaIS4_EE@Base 1.6
 (optional=templinst)_ZN3pcl26EuclideanClusterExtractionINS_18PointWithViewpointEEC1Ev@Base 1.6
 (optional=templinst)_ZN3pcl26EuclideanClusterExtractionINS_18PointWithViewpointEEC2Ev@Base 1.6
 (optional=templinst)_ZN3pcl26EuclideanClusterExtractionINS_18PointWithViewpointEED0Ev@Base 1.6
 (optional=templinst)_ZN3pcl26EuclideanClusterExtractionINS_18PointWithViewpointEED1Ev@Base 1.6
 (optional=templinst)_ZN3pcl26EuclideanClusterExtractionINS_18PointWithViewpointEED2Ev@Base 1.6
 (optional=templinst)_ZN3pcl26EuclideanClusterExtractionINS_8PointXYZEE15setSearchMethodERKN5boost10shared_ptrINS_6search6SearchIS1_EEEE@Base 1.6
 (optional=templinst)_ZN3pcl26EuclideanClusterExtractionINS_8PointXYZEE17setMaxClusterSizeEi@Base 1.6
 (optional=templinst)_ZN3pcl26EuclideanClusterExtractionINS_8PointXYZEE17setMinClusterSizeEi@Base 1.6
 (optional=templinst)_ZN3pcl26EuclideanClusterExtractionINS_8PointXYZEE19setClusterToleranceEd@Base 1.6
 (optional=templinst)_ZN3pcl26EuclideanClusterExtractionINS_8PointXYZEE7extractERSt6vectorINS_12PointIndicesESaIS4_EE@Base 1.6
 (optional=templinst)_ZN3pcl26EuclideanClusterExtractionINS_8PointXYZEEC1Ev@Base 1.6
 (optional=templinst)_ZN3pcl26EuclideanClusterExtractionINS_8PointXYZEEC2Ev@Base 1.6
 (optional=templinst)_ZN3pcl26EuclideanClusterExtractionINS_8PointXYZEED0Ev@Base 1.6
 (optional=templinst)_ZN3pcl26EuclideanClusterExtractionINS_8PointXYZEED1Ev@Base 1.6
 (optional=templinst)_ZN3pcl26EuclideanClusterExtractionINS_8PointXYZEED2Ev@Base 1.6
 (optional=templinst)_ZN3pcl26EuclideanClusterExtractionINS_9PointXYZIEE15setSearchMethodERKN5boost10shared_ptrINS_6search6SearchIS1_EEEE@Base 1.6
 (optional=templinst)_ZN3pcl26EuclideanClusterExtractionINS_9PointXYZIEE17setMaxClusterSizeEi@Base 1.6
 (optional=templinst)_ZN3pcl26EuclideanClusterExtractionINS_9PointXYZIEE17setMinClusterSizeEi@Base 1.6
 (optional=templinst)_ZN3pcl26EuclideanClusterExtractionINS_9PointXYZIEE19setClusterToleranceEd@Base 1.6
 (optional=templinst)_ZN3pcl26EuclideanClusterExtractionINS_9PointXYZIEE7extractERSt6vectorINS_12PointIndicesESaIS4_EE@Base 1.6
 (optional=templinst)_ZN3pcl26EuclideanClusterExtractionINS_9PointXYZIEEC1Ev@Base 1.6
 (optional=templinst)_ZN3pcl26EuclideanClusterExtractionINS_9PointXYZIEEC2Ev@Base 1.6
 (optional=templinst)_ZN3pcl26EuclideanClusterExtractionINS_9PointXYZIEED0Ev@Base 1.6
 (optional=templinst)_ZN3pcl26EuclideanClusterExtractionINS_9PointXYZIEED1Ev@Base 1.6
 (optional=templinst)_ZN3pcl26EuclideanClusterExtractionINS_9PointXYZIEED2Ev@Base 1.6
 (optional=templinst)_ZN3pcl26EuclideanClusterExtractionINS_9PointXYZLEE15setSearchMethodERKN5boost10shared_ptrINS_6search6SearchIS1_EEEE@Base 1.6
 (optional=templinst)_ZN3pcl26EuclideanClusterExtractionINS_9PointXYZLEE17setMaxClusterSizeEi@Base 1.6
 (optional=templinst)_ZN3pcl26EuclideanClusterExtractionINS_9PointXYZLEE17setMinClusterSizeEi@Base 1.6
 (optional=templinst)_ZN3pcl26EuclideanClusterExtractionINS_9PointXYZLEE19setClusterToleranceEd@Base 1.6
 (optional=templinst)_ZN3pcl26EuclideanClusterExtractionINS_9PointXYZLEE7extractERSt6vectorINS_12PointIndicesESaIS4_EE@Base 1.6
 (optional=templinst)_ZN3pcl26EuclideanClusterExtractionINS_9PointXYZLEEC1Ev@Base 1.6
 (optional=templinst)_ZN3pcl26EuclideanClusterExtractionINS_9PointXYZLEEC2Ev@Base 1.6
 (optional=templinst)_ZN3pcl26EuclideanClusterExtractionINS_9PointXYZLEED0Ev@Base 1.6
 (optional=templinst)_ZN3pcl26EuclideanClusterExtractionINS_9PointXYZLEED1Ev@Base 1.6
 (optional=templinst)_ZN3pcl26EuclideanClusterExtractionINS_9PointXYZLEED2Ev@Base 1.6
 (optional=templinst)_ZN3pcl26PlaneCoefficientComparatorINS_11PointNormalENS_15PointXYZINormalEE13setInputCloudERKN5boost10shared_ptrIKNS_10PointCloudIS1_EEEE@Base 1.6
 (optional=templinst)_ZN3pcl26PlaneCoefficientComparatorINS_11PointNormalENS_15PointXYZINormalEE14setPlaneCoeffDERSt6vectorIfSaIfEE@Base 1.6
 (optional=templinst)_ZN3pcl26PlaneCoefficientComparatorINS_11PointNormalENS_15PointXYZINormalEE19setAngularThresholdEf@Base 1.6
 (optional=templinst)_ZN3pcl26PlaneCoefficientComparatorINS_11PointNormalENS_15PointXYZINormalEED0Ev@Base 1.6
 (optional=templinst)_ZN3pcl26PlaneCoefficientComparatorINS_11PointNormalENS_15PointXYZINormalEED1Ev@Base 1.6
 (optional=templinst)_ZN3pcl26PlaneCoefficientComparatorINS_11PointNormalENS_15PointXYZINormalEED2Ev@Base 1.6
 (optional=templinst)_ZN3pcl26PlaneCoefficientComparatorINS_11PointNormalENS_17PointXYZRGBNormalEE13setInputCloudERKN5boost10shared_ptrIKNS_10PointCloudIS1_EEEE@Base 1.6
 (optional=templinst)_ZN3pcl26PlaneCoefficientComparatorINS_11PointNormalENS_17PointXYZRGBNormalEE14setPlaneCoeffDERSt6vectorIfSaIfEE@Base 1.6
 (optional=templinst)_ZN3pcl26PlaneCoefficientComparatorINS_11PointNormalENS_17PointXYZRGBNormalEE19setAngularThresholdEf@Base 1.6
 (optional=templinst)_ZN3pcl26PlaneCoefficientComparatorINS_11PointNormalENS_17PointXYZRGBNormalEED0Ev@Base 1.6
 (optional=templinst)_ZN3pcl26PlaneCoefficientComparatorINS_11PointNormalENS_17PointXYZRGBNormalEED1Ev@Base 1.6
 (optional=templinst)_ZN3pcl26PlaneCoefficientComparatorINS_11PointNormalENS_17PointXYZRGBNormalEED2Ev@Base 1.6
 (optional=templinst)_ZN3pcl26PlaneCoefficientComparatorINS_11PointNormalENS_6NormalEE13setInputCloudERKN5boost10shared_ptrIKNS_10PointCloudIS1_EEEE@Base 1.6
 (optional=templinst)_ZN3pcl26PlaneCoefficientComparatorINS_11PointNormalENS_6NormalEE14setPlaneCoeffDERSt6vectorIfSaIfEE@Base 1.6
 (optional=templinst)_ZN3pcl26PlaneCoefficientComparatorINS_11PointNormalENS_6NormalEE19setAngularThresholdEf@Base 1.6
 (optional=templinst)_ZN3pcl26PlaneCoefficientComparatorINS_11PointNormalENS_6NormalEED0Ev@Base 1.6
 (optional=templinst)_ZN3pcl26PlaneCoefficientComparatorINS_11PointNormalENS_6NormalEED1Ev@Base 1.6
 (optional=templinst)_ZN3pcl26PlaneCoefficientComparatorINS_11PointNormalENS_6NormalEED2Ev@Base 1.6
 (optional=templinst)_ZN3pcl26PlaneCoefficientComparatorINS_11PointNormalES1_E13setInputCloudERKN5boost10shared_ptrIKNS_10PointCloudIS1_EEEE@Base 1.6
 (optional=templinst)_ZN3pcl26PlaneCoefficientComparatorINS_11PointNormalES1_E14setPlaneCoeffDERSt6vectorIfSaIfEE@Base 1.6
 (optional=templinst)_ZN3pcl26PlaneCoefficientComparatorINS_11PointNormalES1_E19setAngularThresholdEf@Base 1.6
 (optional=templinst)_ZN3pcl26PlaneCoefficientComparatorINS_11PointNormalES1_ED0Ev@Base 1.6
 (optional=templinst)_ZN3pcl26PlaneCoefficientComparatorINS_11PointNormalES1_ED1Ev@Base 1.6
 (optional=templinst)_ZN3pcl26PlaneCoefficientComparatorINS_11PointNormalES1_ED2Ev@Base 1.6
 (optional=templinst)_ZN3pcl26PlaneCoefficientComparatorINS_11PointXYZHSVENS_11PointNormalEE13setInputCloudERKN5boost10shared_ptrIKNS_10PointCloudIS1_EEEE@Base 1.6
 (optional=templinst)_ZN3pcl26PlaneCoefficientComparatorINS_11PointXYZHSVENS_11PointNormalEE14setPlaneCoeffDERSt6vectorIfSaIfEE@Base 1.6
 (optional=templinst)_ZN3pcl26PlaneCoefficientComparatorINS_11PointXYZHSVENS_11PointNormalEE19setAngularThresholdEf@Base 1.6
 (optional=templinst)_ZN3pcl26PlaneCoefficientComparatorINS_11PointXYZHSVENS_11PointNormalEED0Ev@Base 1.6
 (optional=templinst)_ZN3pcl26PlaneCoefficientComparatorINS_11PointXYZHSVENS_11PointNormalEED1Ev@Base 1.6
 (optional=templinst)_ZN3pcl26PlaneCoefficientComparatorINS_11PointXYZHSVENS_11PointNormalEED2Ev@Base 1.6
 (optional=templinst)_ZN3pcl26PlaneCoefficientComparatorINS_11PointXYZHSVENS_15PointXYZINormalEE13setInputCloudERKN5boost10shared_ptrIKNS_10PointCloudIS1_EEEE@Base 1.6
 (optional=templinst)_ZN3pcl26PlaneCoefficientComparatorINS_11PointXYZHSVENS_15PointXYZINormalEE14setPlaneCoeffDERSt6vectorIfSaIfEE@Base 1.6
 (optional=templinst)_ZN3pcl26PlaneCoefficientComparatorINS_11PointXYZHSVENS_15PointXYZINormalEE19setAngularThresholdEf@Base 1.6
 (optional=templinst)_ZN3pcl26PlaneCoefficientComparatorINS_11PointXYZHSVENS_15PointXYZINormalEED0Ev@Base 1.6
 (optional=templinst)_ZN3pcl26PlaneCoefficientComparatorINS_11PointXYZHSVENS_15PointXYZINormalEED1Ev@Base 1.6
 (optional=templinst)_ZN3pcl26PlaneCoefficientComparatorINS_11PointXYZHSVENS_15PointXYZINormalEED2Ev@Base 1.6
 (optional=templinst)_ZN3pcl26PlaneCoefficientComparatorINS_11PointXYZHSVENS_17PointXYZRGBNormalEE13setInputCloudERKN5boost10shared_ptrIKNS_10PointCloudIS1_EEEE@Base 1.6
 (optional=templinst)_ZN3pcl26PlaneCoefficientComparatorINS_11PointXYZHSVENS_17PointXYZRGBNormalEE14setPlaneCoeffDERSt6vectorIfSaIfEE@Base 1.6
 (optional=templinst)_ZN3pcl26PlaneCoefficientComparatorINS_11PointXYZHSVENS_17PointXYZRGBNormalEE19setAngularThresholdEf@Base 1.6
 (optional=templinst)_ZN3pcl26PlaneCoefficientComparatorINS_11PointXYZHSVENS_17PointXYZRGBNormalEED0Ev@Base 1.6
 (optional=templinst)_ZN3pcl26PlaneCoefficientComparatorINS_11PointXYZHSVENS_17PointXYZRGBNormalEED1Ev@Base 1.6
 (optional=templinst)_ZN3pcl26PlaneCoefficientComparatorINS_11PointXYZHSVENS_17PointXYZRGBNormalEED2Ev@Base 1.6
 (optional=templinst)_ZN3pcl26PlaneCoefficientComparatorINS_11PointXYZHSVENS_6NormalEE13setInputCloudERKN5boost10shared_ptrIKNS_10PointCloudIS1_EEEE@Base 1.6
 (optional=templinst)_ZN3pcl26PlaneCoefficientComparatorINS_11PointXYZHSVENS_6NormalEE14setPlaneCoeffDERSt6vectorIfSaIfEE@Base 1.6
 (optional=templinst)_ZN3pcl26PlaneCoefficientComparatorINS_11PointXYZHSVENS_6NormalEE19setAngularThresholdEf@Base 1.6
 (optional=templinst)_ZN3pcl26PlaneCoefficientComparatorINS_11PointXYZHSVENS_6NormalEED0Ev@Base 1.6
 (optional=templinst)_ZN3pcl26PlaneCoefficientComparatorINS_11PointXYZHSVENS_6NormalEED1Ev@Base 1.6
 (optional=templinst)_ZN3pcl26PlaneCoefficientComparatorINS_11PointXYZHSVENS_6NormalEED2Ev@Base 1.6
 (optional=templinst)_ZN3pcl26PlaneCoefficientComparatorINS_11PointXYZRGBENS_11PointNormalEE13setInputCloudERKN5boost10shared_ptrIKNS_10PointCloudIS1_EEEE@Base 1.6
 (optional=templinst)_ZN3pcl26PlaneCoefficientComparatorINS_11PointXYZRGBENS_11PointNormalEE14setPlaneCoeffDERSt6vectorIfSaIfEE@Base 1.6
 (optional=templinst)_ZN3pcl26PlaneCoefficientComparatorINS_11PointXYZRGBENS_11PointNormalEE19setAngularThresholdEf@Base 1.6
 (optional=templinst)_ZN3pcl26PlaneCoefficientComparatorINS_11PointXYZRGBENS_11PointNormalEED0Ev@Base 1.6
 (optional=templinst)_ZN3pcl26PlaneCoefficientComparatorINS_11PointXYZRGBENS_11PointNormalEED1Ev@Base 1.6
 (optional=templinst)_ZN3pcl26PlaneCoefficientComparatorINS_11PointXYZRGBENS_11PointNormalEED2Ev@Base 1.6
 (optional=templinst)_ZN3pcl26PlaneCoefficientComparatorINS_11PointXYZRGBENS_15PointXYZINormalEE13setInputCloudERKN5boost10shared_ptrIKNS_10PointCloudIS1_EEEE@Base 1.6
 (optional=templinst)_ZN3pcl26PlaneCoefficientComparatorINS_11PointXYZRGBENS_15PointXYZINormalEE14setPlaneCoeffDERSt6vectorIfSaIfEE@Base 1.6
 (optional=templinst)_ZN3pcl26PlaneCoefficientComparatorINS_11PointXYZRGBENS_15PointXYZINormalEE19setAngularThresholdEf@Base 1.6
 (optional=templinst)_ZN3pcl26PlaneCoefficientComparatorINS_11PointXYZRGBENS_15PointXYZINormalEED0Ev@Base 1.6
 (optional=templinst)_ZN3pcl26PlaneCoefficientComparatorINS_11PointXYZRGBENS_15PointXYZINormalEED1Ev@Base 1.6
 (optional=templinst)_ZN3pcl26PlaneCoefficientComparatorINS_11PointXYZRGBENS_15PointXYZINormalEED2Ev@Base 1.6
 (optional=templinst)_ZN3pcl26PlaneCoefficientComparatorINS_11PointXYZRGBENS_17PointXYZRGBNormalEE13setInputCloudERKN5boost10shared_ptrIKNS_10PointCloudIS1_EEEE@Base 1.6
 (optional=templinst)_ZN3pcl26PlaneCoefficientComparatorINS_11PointXYZRGBENS_17PointXYZRGBNormalEE14setPlaneCoeffDERSt6vectorIfSaIfEE@Base 1.6
 (optional=templinst)_ZN3pcl26PlaneCoefficientComparatorINS_11PointXYZRGBENS_17PointXYZRGBNormalEE19setAngularThresholdEf@Base 1.6
 (optional=templinst)_ZN3pcl26PlaneCoefficientComparatorINS_11PointXYZRGBENS_17PointXYZRGBNormalEED0Ev@Base 1.6
 (optional=templinst)_ZN3pcl26PlaneCoefficientComparatorINS_11PointXYZRGBENS_17PointXYZRGBNormalEED1Ev@Base 1.6
 (optional=templinst)_ZN3pcl26PlaneCoefficientComparatorINS_11PointXYZRGBENS_17PointXYZRGBNormalEED2Ev@Base 1.6
 (optional=templinst)_ZN3pcl26PlaneCoefficientComparatorINS_11PointXYZRGBENS_6NormalEE13setInputCloudERKN5boost10shared_ptrIKNS_10PointCloudIS1_EEEE@Base 1.6
 (optional=templinst)_ZN3pcl26PlaneCoefficientComparatorINS_11PointXYZRGBENS_6NormalEE14setPlaneCoeffDERSt6vectorIfSaIfEE@Base 1.6
 (optional=templinst)_ZN3pcl26PlaneCoefficientComparatorINS_11PointXYZRGBENS_6NormalEE19setAngularThresholdEf@Base 1.6
 (optional=templinst)_ZN3pcl26PlaneCoefficientComparatorINS_11PointXYZRGBENS_6NormalEED0Ev@Base 1.6
 (optional=templinst)_ZN3pcl26PlaneCoefficientComparatorINS_11PointXYZRGBENS_6NormalEED1Ev@Base 1.6
 (optional=templinst)_ZN3pcl26PlaneCoefficientComparatorINS_11PointXYZRGBENS_6NormalEED2Ev@Base 1.6
 (optional=templinst)_ZN3pcl26PlaneCoefficientComparatorINS_12PointXYZRGBAENS_11PointNormalEE13setInputCloudERKN5boost10shared_ptrIKNS_10PointCloudIS1_EEEE@Base 1.6
 (optional=templinst)_ZN3pcl26PlaneCoefficientComparatorINS_12PointXYZRGBAENS_11PointNormalEE14setPlaneCoeffDERSt6vectorIfSaIfEE@Base 1.6
 (optional=templinst)_ZN3pcl26PlaneCoefficientComparatorINS_12PointXYZRGBAENS_11PointNormalEE19setAngularThresholdEf@Base 1.6
 (optional=templinst)_ZN3pcl26PlaneCoefficientComparatorINS_12PointXYZRGBAENS_11PointNormalEED0Ev@Base 1.6
 (optional=templinst)_ZN3pcl26PlaneCoefficientComparatorINS_12PointXYZRGBAENS_11PointNormalEED1Ev@Base 1.6
 (optional=templinst)_ZN3pcl26PlaneCoefficientComparatorINS_12PointXYZRGBAENS_11PointNormalEED2Ev@Base 1.6
 (optional=templinst)_ZN3pcl26PlaneCoefficientComparatorINS_12PointXYZRGBAENS_15PointXYZINormalEE13setInputCloudERKN5boost10shared_ptrIKNS_10PointCloudIS1_EEEE@Base 1.6
 (optional=templinst)_ZN3pcl26PlaneCoefficientComparatorINS_12PointXYZRGBAENS_15PointXYZINormalEE14setPlaneCoeffDERSt6vectorIfSaIfEE@Base 1.6
 (optional=templinst)_ZN3pcl26PlaneCoefficientComparatorINS_12PointXYZRGBAENS_15PointXYZINormalEE19setAngularThresholdEf@Base 1.6
 (optional=templinst)_ZN3pcl26PlaneCoefficientComparatorINS_12PointXYZRGBAENS_15PointXYZINormalEED0Ev@Base 1.6
 (optional=templinst)_ZN3pcl26PlaneCoefficientComparatorINS_12PointXYZRGBAENS_15PointXYZINormalEED1Ev@Base 1.6
 (optional=templinst)_ZN3pcl26PlaneCoefficientComparatorINS_12PointXYZRGBAENS_15PointXYZINormalEED2Ev@Base 1.6
 (optional=templinst)_ZN3pcl26PlaneCoefficientComparatorINS_12PointXYZRGBAENS_17PointXYZRGBNormalEE13setInputCloudERKN5boost10shared_ptrIKNS_10PointCloudIS1_EEEE@Base 1.6
 (optional=templinst)_ZN3pcl26PlaneCoefficientComparatorINS_12PointXYZRGBAENS_17PointXYZRGBNormalEE14setPlaneCoeffDERSt6vectorIfSaIfEE@Base 1.6
 (optional=templinst)_ZN3pcl26PlaneCoefficientComparatorINS_12PointXYZRGBAENS_17PointXYZRGBNormalEE19setAngularThresholdEf@Base 1.6
 (optional=templinst)_ZN3pcl26PlaneCoefficientComparatorINS_12PointXYZRGBAENS_17PointXYZRGBNormalEED0Ev@Base 1.6
 (optional=templinst)_ZN3pcl26PlaneCoefficientComparatorINS_12PointXYZRGBAENS_17PointXYZRGBNormalEED1Ev@Base 1.6
 (optional=templinst)_ZN3pcl26PlaneCoefficientComparatorINS_12PointXYZRGBAENS_17PointXYZRGBNormalEED2Ev@Base 1.6
 (optional=templinst)_ZN3pcl26PlaneCoefficientComparatorINS_12PointXYZRGBAENS_6NormalEE13setInputCloudERKN5boost10shared_ptrIKNS_10PointCloudIS1_EEEE@Base 1.6
 (optional=templinst)_ZN3pcl26PlaneCoefficientComparatorINS_12PointXYZRGBAENS_6NormalEE14setPlaneCoeffDERSt6vectorIfSaIfEE@Base 1.6
 (optional=templinst)_ZN3pcl26PlaneCoefficientComparatorINS_12PointXYZRGBAENS_6NormalEE19setAngularThresholdEf@Base 1.6
 (optional=templinst)_ZN3pcl26PlaneCoefficientComparatorINS_12PointXYZRGBAENS_6NormalEED0Ev@Base 1.6
 (optional=templinst)_ZN3pcl26PlaneCoefficientComparatorINS_12PointXYZRGBAENS_6NormalEED1Ev@Base 1.6
 (optional=templinst)_ZN3pcl26PlaneCoefficientComparatorINS_12PointXYZRGBAENS_6NormalEED2Ev@Base 1.6
 (optional=templinst)_ZN3pcl26PlaneCoefficientComparatorINS_12PointXYZRGBLENS_11PointNormalEE13setInputCloudERKN5boost10shared_ptrIKNS_10PointCloudIS1_EEEE@Base 1.6
 (optional=templinst)_ZN3pcl26PlaneCoefficientComparatorINS_12PointXYZRGBLENS_11PointNormalEE14setPlaneCoeffDERSt6vectorIfSaIfEE@Base 1.6
 (optional=templinst)_ZN3pcl26PlaneCoefficientComparatorINS_12PointXYZRGBLENS_11PointNormalEE19setAngularThresholdEf@Base 1.6
 (optional=templinst)_ZN3pcl26PlaneCoefficientComparatorINS_12PointXYZRGBLENS_11PointNormalEED0Ev@Base 1.6
 (optional=templinst)_ZN3pcl26PlaneCoefficientComparatorINS_12PointXYZRGBLENS_11PointNormalEED1Ev@Base 1.6
 (optional=templinst)_ZN3pcl26PlaneCoefficientComparatorINS_12PointXYZRGBLENS_11PointNormalEED2Ev@Base 1.6
 (optional=templinst)_ZN3pcl26PlaneCoefficientComparatorINS_12PointXYZRGBLENS_15PointXYZINormalEE13setInputCloudERKN5boost10shared_ptrIKNS_10PointCloudIS1_EEEE@Base 1.6
 (optional=templinst)_ZN3pcl26PlaneCoefficientComparatorINS_12PointXYZRGBLENS_15PointXYZINormalEE14setPlaneCoeffDERSt6vectorIfSaIfEE@Base 1.6
 (optional=templinst)_ZN3pcl26PlaneCoefficientComparatorINS_12PointXYZRGBLENS_15PointXYZINormalEE19setAngularThresholdEf@Base 1.6
 (optional=templinst)_ZN3pcl26PlaneCoefficientComparatorINS_12PointXYZRGBLENS_15PointXYZINormalEED0Ev@Base 1.6
 (optional=templinst)_ZN3pcl26PlaneCoefficientComparatorINS_12PointXYZRGBLENS_15PointXYZINormalEED1Ev@Base 1.6
 (optional=templinst)_ZN3pcl26PlaneCoefficientComparatorINS_12PointXYZRGBLENS_15PointXYZINormalEED2Ev@Base 1.6
 (optional=templinst)_ZN3pcl26PlaneCoefficientComparatorINS_12PointXYZRGBLENS_17PointXYZRGBNormalEE13setInputCloudERKN5boost10shared_ptrIKNS_10PointCloudIS1_EEEE@Base 1.6
 (optional=templinst)_ZN3pcl26PlaneCoefficientComparatorINS_12PointXYZRGBLENS_17PointXYZRGBNormalEE14setPlaneCoeffDERSt6vectorIfSaIfEE@Base 1.6
 (optional=templinst)_ZN3pcl26PlaneCoefficientComparatorINS_12PointXYZRGBLENS_17PointXYZRGBNormalEE19setAngularThresholdEf@Base 1.6
 (optional=templinst)_ZN3pcl26PlaneCoefficientComparatorINS_12PointXYZRGBLENS_17PointXYZRGBNormalEED0Ev@Base 1.6
 (optional=templinst)_ZN3pcl26PlaneCoefficientComparatorINS_12PointXYZRGBLENS_17PointXYZRGBNormalEED1Ev@Base 1.6
 (optional=templinst)_ZN3pcl26PlaneCoefficientComparatorINS_12PointXYZRGBLENS_17PointXYZRGBNormalEED2Ev@Base 1.6
 (optional=templinst)_ZN3pcl26PlaneCoefficientComparatorINS_12PointXYZRGBLENS_6NormalEE13setInputCloudERKN5boost10shared_ptrIKNS_10PointCloudIS1_EEEE@Base 1.6
 (optional=templinst)_ZN3pcl26PlaneCoefficientComparatorINS_12PointXYZRGBLENS_6NormalEE14setPlaneCoeffDERSt6vectorIfSaIfEE@Base 1.6
 (optional=templinst)_ZN3pcl26PlaneCoefficientComparatorINS_12PointXYZRGBLENS_6NormalEE19setAngularThresholdEf@Base 1.6
 (optional=templinst)_ZN3pcl26PlaneCoefficientComparatorINS_12PointXYZRGBLENS_6NormalEED0Ev@Base 1.6
 (optional=templinst)_ZN3pcl26PlaneCoefficientComparatorINS_12PointXYZRGBLENS_6NormalEED1Ev@Base 1.6
 (optional=templinst)_ZN3pcl26PlaneCoefficientComparatorINS_12PointXYZRGBLENS_6NormalEED2Ev@Base 1.6
 (optional=templinst)_ZN3pcl26PlaneCoefficientComparatorINS_13InterestPointENS_11PointNormalEE13setInputCloudERKN5boost10shared_ptrIKNS_10PointCloudIS1_EEEE@Base 1.6
 (optional=templinst)_ZN3pcl26PlaneCoefficientComparatorINS_13InterestPointENS_11PointNormalEE14setPlaneCoeffDERSt6vectorIfSaIfEE@Base 1.6
 (optional=templinst)_ZN3pcl26PlaneCoefficientComparatorINS_13InterestPointENS_11PointNormalEE19setAngularThresholdEf@Base 1.6
 (optional=templinst)_ZN3pcl26PlaneCoefficientComparatorINS_13InterestPointENS_11PointNormalEED0Ev@Base 1.6
 (optional=templinst)_ZN3pcl26PlaneCoefficientComparatorINS_13InterestPointENS_11PointNormalEED1Ev@Base 1.6
 (optional=templinst)_ZN3pcl26PlaneCoefficientComparatorINS_13InterestPointENS_11PointNormalEED2Ev@Base 1.6
 (optional=templinst)_ZN3pcl26PlaneCoefficientComparatorINS_13InterestPointENS_15PointXYZINormalEE13setInputCloudERKN5boost10shared_ptrIKNS_10PointCloudIS1_EEEE@Base 1.6
 (optional=templinst)_ZN3pcl26PlaneCoefficientComparatorINS_13InterestPointENS_15PointXYZINormalEE14setPlaneCoeffDERSt6vectorIfSaIfEE@Base 1.6
 (optional=templinst)_ZN3pcl26PlaneCoefficientComparatorINS_13InterestPointENS_15PointXYZINormalEE19setAngularThresholdEf@Base 1.6
 (optional=templinst)_ZN3pcl26PlaneCoefficientComparatorINS_13InterestPointENS_15PointXYZINormalEED0Ev@Base 1.6
 (optional=templinst)_ZN3pcl26PlaneCoefficientComparatorINS_13InterestPointENS_15PointXYZINormalEED1Ev@Base 1.6
 (optional=templinst)_ZN3pcl26PlaneCoefficientComparatorINS_13InterestPointENS_15PointXYZINormalEED2Ev@Base 1.6
 (optional=templinst)_ZN3pcl26PlaneCoefficientComparatorINS_13InterestPointENS_17PointXYZRGBNormalEE13setInputCloudERKN5boost10shared_ptrIKNS_10PointCloudIS1_EEEE@Base 1.6
 (optional=templinst)_ZN3pcl26PlaneCoefficientComparatorINS_13InterestPointENS_17PointXYZRGBNormalEE14setPlaneCoeffDERSt6vectorIfSaIfEE@Base 1.6
 (optional=templinst)_ZN3pcl26PlaneCoefficientComparatorINS_13InterestPointENS_17PointXYZRGBNormalEE19setAngularThresholdEf@Base 1.6
 (optional=templinst)_ZN3pcl26PlaneCoefficientComparatorINS_13InterestPointENS_17PointXYZRGBNormalEED0Ev@Base 1.6
 (optional=templinst)_ZN3pcl26PlaneCoefficientComparatorINS_13InterestPointENS_17PointXYZRGBNormalEED1Ev@Base 1.6
 (optional=templinst)_ZN3pcl26PlaneCoefficientComparatorINS_13InterestPointENS_17PointXYZRGBNormalEED2Ev@Base 1.6
 (optional=templinst)_ZN3pcl26PlaneCoefficientComparatorINS_13InterestPointENS_6NormalEE13setInputCloudERKN5boost10shared_ptrIKNS_10PointCloudIS1_EEEE@Base 1.6
 (optional=templinst)_ZN3pcl26PlaneCoefficientComparatorINS_13InterestPointENS_6NormalEE14setPlaneCoeffDERSt6vectorIfSaIfEE@Base 1.6
 (optional=templinst)_ZN3pcl26PlaneCoefficientComparatorINS_13InterestPointENS_6NormalEE19setAngularThresholdEf@Base 1.6
 (optional=templinst)_ZN3pcl26PlaneCoefficientComparatorINS_13InterestPointENS_6NormalEED0Ev@Base 1.6
 (optional=templinst)_ZN3pcl26PlaneCoefficientComparatorINS_13InterestPointENS_6NormalEED1Ev@Base 1.6
 (optional=templinst)_ZN3pcl26PlaneCoefficientComparatorINS_13InterestPointENS_6NormalEED2Ev@Base 1.6
 (optional=templinst)_ZN3pcl26PlaneCoefficientComparatorINS_14PointWithRangeENS_11PointNormalEE13setInputCloudERKN5boost10shared_ptrIKNS_10PointCloudIS1_EEEE@Base 1.6
 (optional=templinst)_ZN3pcl26PlaneCoefficientComparatorINS_14PointWithRangeENS_11PointNormalEE14setPlaneCoeffDERSt6vectorIfSaIfEE@Base 1.6
 (optional=templinst)_ZN3pcl26PlaneCoefficientComparatorINS_14PointWithRangeENS_11PointNormalEE19setAngularThresholdEf@Base 1.6
 (optional=templinst)_ZN3pcl26PlaneCoefficientComparatorINS_14PointWithRangeENS_11PointNormalEED0Ev@Base 1.6
 (optional=templinst)_ZN3pcl26PlaneCoefficientComparatorINS_14PointWithRangeENS_11PointNormalEED1Ev@Base 1.6
 (optional=templinst)_ZN3pcl26PlaneCoefficientComparatorINS_14PointWithRangeENS_11PointNormalEED2Ev@Base 1.6
 (optional=templinst)_ZN3pcl26PlaneCoefficientComparatorINS_14PointWithRangeENS_15PointXYZINormalEE13setInputCloudERKN5boost10shared_ptrIKNS_10PointCloudIS1_EEEE@Base 1.6
 (optional=templinst)_ZN3pcl26PlaneCoefficientComparatorINS_14PointWithRangeENS_15PointXYZINormalEE14setPlaneCoeffDERSt6vectorIfSaIfEE@Base 1.6
 (optional=templinst)_ZN3pcl26PlaneCoefficientComparatorINS_14PointWithRangeENS_15PointXYZINormalEE19setAngularThresholdEf@Base 1.6
 (optional=templinst)_ZN3pcl26PlaneCoefficientComparatorINS_14PointWithRangeENS_15PointXYZINormalEED0Ev@Base 1.6
 (optional=templinst)_ZN3pcl26PlaneCoefficientComparatorINS_14PointWithRangeENS_15PointXYZINormalEED1Ev@Base 1.6
 (optional=templinst)_ZN3pcl26PlaneCoefficientComparatorINS_14PointWithRangeENS_15PointXYZINormalEED2Ev@Base 1.6
 (optional=templinst)_ZN3pcl26PlaneCoefficientComparatorINS_14PointWithRangeENS_17PointXYZRGBNormalEE13setInputCloudERKN5boost10shared_ptrIKNS_10PointCloudIS1_EEEE@Base 1.6
 (optional=templinst)_ZN3pcl26PlaneCoefficientComparatorINS_14PointWithRangeENS_17PointXYZRGBNormalEE14setPlaneCoeffDERSt6vectorIfSaIfEE@Base 1.6
 (optional=templinst)_ZN3pcl26PlaneCoefficientComparatorINS_14PointWithRangeENS_17PointXYZRGBNormalEE19setAngularThresholdEf@Base 1.6
 (optional=templinst)_ZN3pcl26PlaneCoefficientComparatorINS_14PointWithRangeENS_17PointXYZRGBNormalEED0Ev@Base 1.6
 (optional=templinst)_ZN3pcl26PlaneCoefficientComparatorINS_14PointWithRangeENS_17PointXYZRGBNormalEED1Ev@Base 1.6
 (optional=templinst)_ZN3pcl26PlaneCoefficientComparatorINS_14PointWithRangeENS_17PointXYZRGBNormalEED2Ev@Base 1.6
 (optional=templinst)_ZN3pcl26PlaneCoefficientComparatorINS_14PointWithRangeENS_6NormalEE13setInputCloudERKN5boost10shared_ptrIKNS_10PointCloudIS1_EEEE@Base 1.6
 (optional=templinst)_ZN3pcl26PlaneCoefficientComparatorINS_14PointWithRangeENS_6NormalEE14setPlaneCoeffDERSt6vectorIfSaIfEE@Base 1.6
 (optional=templinst)_ZN3pcl26PlaneCoefficientComparatorINS_14PointWithRangeENS_6NormalEE19setAngularThresholdEf@Base 1.6
 (optional=templinst)_ZN3pcl26PlaneCoefficientComparatorINS_14PointWithRangeENS_6NormalEED0Ev@Base 1.6
 (optional=templinst)_ZN3pcl26PlaneCoefficientComparatorINS_14PointWithRangeENS_6NormalEED1Ev@Base 1.6
 (optional=templinst)_ZN3pcl26PlaneCoefficientComparatorINS_14PointWithRangeENS_6NormalEED2Ev@Base 1.6
 (optional=templinst)_ZN3pcl26PlaneCoefficientComparatorINS_14PointWithScaleENS_11PointNormalEE13setInputCloudERKN5boost10shared_ptrIKNS_10PointCloudIS1_EEEE@Base 1.6
 (optional=templinst)_ZN3pcl26PlaneCoefficientComparatorINS_14PointWithScaleENS_11PointNormalEE14setPlaneCoeffDERSt6vectorIfSaIfEE@Base 1.6
 (optional=templinst)_ZN3pcl26PlaneCoefficientComparatorINS_14PointWithScaleENS_11PointNormalEE19setAngularThresholdEf@Base 1.6
 (optional=templinst)_ZN3pcl26PlaneCoefficientComparatorINS_14PointWithScaleENS_11PointNormalEED0Ev@Base 1.6
 (optional=templinst)_ZN3pcl26PlaneCoefficientComparatorINS_14PointWithScaleENS_11PointNormalEED1Ev@Base 1.6
 (optional=templinst)_ZN3pcl26PlaneCoefficientComparatorINS_14PointWithScaleENS_11PointNormalEED2Ev@Base 1.6
 (optional=templinst)_ZN3pcl26PlaneCoefficientComparatorINS_14PointWithScaleENS_15PointXYZINormalEE13setInputCloudERKN5boost10shared_ptrIKNS_10PointCloudIS1_EEEE@Base 1.6
 (optional=templinst)_ZN3pcl26PlaneCoefficientComparatorINS_14PointWithScaleENS_15PointXYZINormalEE14setPlaneCoeffDERSt6vectorIfSaIfEE@Base 1.6
 (optional=templinst)_ZN3pcl26PlaneCoefficientComparatorINS_14PointWithScaleENS_15PointXYZINormalEE19setAngularThresholdEf@Base 1.6
 (optional=templinst)_ZN3pcl26PlaneCoefficientComparatorINS_14PointWithScaleENS_15PointXYZINormalEED0Ev@Base 1.6
 (optional=templinst)_ZN3pcl26PlaneCoefficientComparatorINS_14PointWithScaleENS_15PointXYZINormalEED1Ev@Base 1.6
 (optional=templinst)_ZN3pcl26PlaneCoefficientComparatorINS_14PointWithScaleENS_15PointXYZINormalEED2Ev@Base 1.6
 (optional=templinst)_ZN3pcl26PlaneCoefficientComparatorINS_14PointWithScaleENS_17PointXYZRGBNormalEE13setInputCloudERKN5boost10shared_ptrIKNS_10PointCloudIS1_EEEE@Base 1.6
 (optional=templinst)_ZN3pcl26PlaneCoefficientComparatorINS_14PointWithScaleENS_17PointXYZRGBNormalEE14setPlaneCoeffDERSt6vectorIfSaIfEE@Base 1.6
 (optional=templinst)_ZN3pcl26PlaneCoefficientComparatorINS_14PointWithScaleENS_17PointXYZRGBNormalEE19setAngularThresholdEf@Base 1.6
 (optional=templinst)_ZN3pcl26PlaneCoefficientComparatorINS_14PointWithScaleENS_17PointXYZRGBNormalEED0Ev@Base 1.6
 (optional=templinst)_ZN3pcl26PlaneCoefficientComparatorINS_14PointWithScaleENS_17PointXYZRGBNormalEED1Ev@Base 1.6
 (optional=templinst)_ZN3pcl26PlaneCoefficientComparatorINS_14PointWithScaleENS_17PointXYZRGBNormalEED2Ev@Base 1.6
 (optional=templinst)_ZN3pcl26PlaneCoefficientComparatorINS_14PointWithScaleENS_6NormalEE13setInputCloudERKN5boost10shared_ptrIKNS_10PointCloudIS1_EEEE@Base 1.6
 (optional=templinst)_ZN3pcl26PlaneCoefficientComparatorINS_14PointWithScaleENS_6NormalEE14setPlaneCoeffDERSt6vectorIfSaIfEE@Base 1.6
 (optional=templinst)_ZN3pcl26PlaneCoefficientComparatorINS_14PointWithScaleENS_6NormalEE19setAngularThresholdEf@Base 1.6
 (optional=templinst)_ZN3pcl26PlaneCoefficientComparatorINS_14PointWithScaleENS_6NormalEED0Ev@Base 1.6
 (optional=templinst)_ZN3pcl26PlaneCoefficientComparatorINS_14PointWithScaleENS_6NormalEED1Ev@Base 1.6
 (optional=templinst)_ZN3pcl26PlaneCoefficientComparatorINS_14PointWithScaleENS_6NormalEED2Ev@Base 1.6
 (optional=templinst)_ZN3pcl26PlaneCoefficientComparatorINS_15PointXYZINormalENS_11PointNormalEE13setInputCloudERKN5boost10shared_ptrIKNS_10PointCloudIS1_EEEE@Base 1.6
 (optional=templinst)_ZN3pcl26PlaneCoefficientComparatorINS_15PointXYZINormalENS_11PointNormalEE14setPlaneCoeffDERSt6vectorIfSaIfEE@Base 1.6
 (optional=templinst)_ZN3pcl26PlaneCoefficientComparatorINS_15PointXYZINormalENS_11PointNormalEE19setAngularThresholdEf@Base 1.6
 (optional=templinst)_ZN3pcl26PlaneCoefficientComparatorINS_15PointXYZINormalENS_11PointNormalEED0Ev@Base 1.6
 (optional=templinst)_ZN3pcl26PlaneCoefficientComparatorINS_15PointXYZINormalENS_11PointNormalEED1Ev@Base 1.6
 (optional=templinst)_ZN3pcl26PlaneCoefficientComparatorINS_15PointXYZINormalENS_11PointNormalEED2Ev@Base 1.6
 (optional=templinst)_ZN3pcl26PlaneCoefficientComparatorINS_15PointXYZINormalENS_17PointXYZRGBNormalEE13setInputCloudERKN5boost10shared_ptrIKNS_10PointCloudIS1_EEEE@Base 1.6
 (optional=templinst)_ZN3pcl26PlaneCoefficientComparatorINS_15PointXYZINormalENS_17PointXYZRGBNormalEE14setPlaneCoeffDERSt6vectorIfSaIfEE@Base 1.6
 (optional=templinst)_ZN3pcl26PlaneCoefficientComparatorINS_15PointXYZINormalENS_17PointXYZRGBNormalEE19setAngularThresholdEf@Base 1.6
 (optional=templinst)_ZN3pcl26PlaneCoefficientComparatorINS_15PointXYZINormalENS_17PointXYZRGBNormalEED0Ev@Base 1.6
 (optional=templinst)_ZN3pcl26PlaneCoefficientComparatorINS_15PointXYZINormalENS_17PointXYZRGBNormalEED1Ev@Base 1.6
 (optional=templinst)_ZN3pcl26PlaneCoefficientComparatorINS_15PointXYZINormalENS_17PointXYZRGBNormalEED2Ev@Base 1.6
 (optional=templinst)_ZN3pcl26PlaneCoefficientComparatorINS_15PointXYZINormalENS_6NormalEE13setInputCloudERKN5boost10shared_ptrIKNS_10PointCloudIS1_EEEE@Base 1.6
 (optional=templinst)_ZN3pcl26PlaneCoefficientComparatorINS_15PointXYZINormalENS_6NormalEE14setPlaneCoeffDERSt6vectorIfSaIfEE@Base 1.6
 (optional=templinst)_ZN3pcl26PlaneCoefficientComparatorINS_15PointXYZINormalENS_6NormalEE19setAngularThresholdEf@Base 1.6
 (optional=templinst)_ZN3pcl26PlaneCoefficientComparatorINS_15PointXYZINormalENS_6NormalEED0Ev@Base 1.6
 (optional=templinst)_ZN3pcl26PlaneCoefficientComparatorINS_15PointXYZINormalENS_6NormalEED1Ev@Base 1.6
 (optional=templinst)_ZN3pcl26PlaneCoefficientComparatorINS_15PointXYZINormalENS_6NormalEED2Ev@Base 1.6
 (optional=templinst)_ZN3pcl26PlaneCoefficientComparatorINS_15PointXYZINormalES1_E13setInputCloudERKN5boost10shared_ptrIKNS_10PointCloudIS1_EEEE@Base 1.6
 (optional=templinst)_ZN3pcl26PlaneCoefficientComparatorINS_15PointXYZINormalES1_E14setPlaneCoeffDERSt6vectorIfSaIfEE@Base 1.6
 (optional=templinst)_ZN3pcl26PlaneCoefficientComparatorINS_15PointXYZINormalES1_E19setAngularThresholdEf@Base 1.6
 (optional=templinst)_ZN3pcl26PlaneCoefficientComparatorINS_15PointXYZINormalES1_ED0Ev@Base 1.6
 (optional=templinst)_ZN3pcl26PlaneCoefficientComparatorINS_15PointXYZINormalES1_ED1Ev@Base 1.6
 (optional=templinst)_ZN3pcl26PlaneCoefficientComparatorINS_15PointXYZINormalES1_ED2Ev@Base 1.6
 (optional=templinst)_ZN3pcl26PlaneCoefficientComparatorINS_17PointXYZRGBNormalENS_11PointNormalEE13setInputCloudERKN5boost10shared_ptrIKNS_10PointCloudIS1_EEEE@Base 1.6
 (optional=templinst)_ZN3pcl26PlaneCoefficientComparatorINS_17PointXYZRGBNormalENS_11PointNormalEE14setPlaneCoeffDERSt6vectorIfSaIfEE@Base 1.6
 (optional=templinst)_ZN3pcl26PlaneCoefficientComparatorINS_17PointXYZRGBNormalENS_11PointNormalEE19setAngularThresholdEf@Base 1.6
 (optional=templinst)_ZN3pcl26PlaneCoefficientComparatorINS_17PointXYZRGBNormalENS_11PointNormalEED0Ev@Base 1.6
 (optional=templinst)_ZN3pcl26PlaneCoefficientComparatorINS_17PointXYZRGBNormalENS_11PointNormalEED1Ev@Base 1.6
 (optional=templinst)_ZN3pcl26PlaneCoefficientComparatorINS_17PointXYZRGBNormalENS_11PointNormalEED2Ev@Base 1.6
 (optional=templinst)_ZN3pcl26PlaneCoefficientComparatorINS_17PointXYZRGBNormalENS_15PointXYZINormalEE13setInputCloudERKN5boost10shared_ptrIKNS_10PointCloudIS1_EEEE@Base 1.6
 (optional=templinst)_ZN3pcl26PlaneCoefficientComparatorINS_17PointXYZRGBNormalENS_15PointXYZINormalEE14setPlaneCoeffDERSt6vectorIfSaIfEE@Base 1.6
 (optional=templinst)_ZN3pcl26PlaneCoefficientComparatorINS_17PointXYZRGBNormalENS_15PointXYZINormalEE19setAngularThresholdEf@Base 1.6
 (optional=templinst)_ZN3pcl26PlaneCoefficientComparatorINS_17PointXYZRGBNormalENS_15PointXYZINormalEED0Ev@Base 1.6
 (optional=templinst)_ZN3pcl26PlaneCoefficientComparatorINS_17PointXYZRGBNormalENS_15PointXYZINormalEED1Ev@Base 1.6
 (optional=templinst)_ZN3pcl26PlaneCoefficientComparatorINS_17PointXYZRGBNormalENS_15PointXYZINormalEED2Ev@Base 1.6
 (optional=templinst)_ZN3pcl26PlaneCoefficientComparatorINS_17PointXYZRGBNormalENS_6NormalEE13setInputCloudERKN5boost10shared_ptrIKNS_10PointCloudIS1_EEEE@Base 1.6
 (optional=templinst)_ZN3pcl26PlaneCoefficientComparatorINS_17PointXYZRGBNormalENS_6NormalEE14setPlaneCoeffDERSt6vectorIfSaIfEE@Base 1.6
 (optional=templinst)_ZN3pcl26PlaneCoefficientComparatorINS_17PointXYZRGBNormalENS_6NormalEE19setAngularThresholdEf@Base 1.6
 (optional=templinst)_ZN3pcl26PlaneCoefficientComparatorINS_17PointXYZRGBNormalENS_6NormalEED0Ev@Base 1.6
 (optional=templinst)_ZN3pcl26PlaneCoefficientComparatorINS_17PointXYZRGBNormalENS_6NormalEED1Ev@Base 1.6
 (optional=templinst)_ZN3pcl26PlaneCoefficientComparatorINS_17PointXYZRGBNormalENS_6NormalEED2Ev@Base 1.6
 (optional=templinst)_ZN3pcl26PlaneCoefficientComparatorINS_17PointXYZRGBNormalES1_E13setInputCloudERKN5boost10shared_ptrIKNS_10PointCloudIS1_EEEE@Base 1.6
 (optional=templinst)_ZN3pcl26PlaneCoefficientComparatorINS_17PointXYZRGBNormalES1_E14setPlaneCoeffDERSt6vectorIfSaIfEE@Base 1.6
 (optional=templinst)_ZN3pcl26PlaneCoefficientComparatorINS_17PointXYZRGBNormalES1_E19setAngularThresholdEf@Base 1.6
 (optional=templinst)_ZN3pcl26PlaneCoefficientComparatorINS_17PointXYZRGBNormalES1_ED0Ev@Base 1.6
 (optional=templinst)_ZN3pcl26PlaneCoefficientComparatorINS_17PointXYZRGBNormalES1_ED1Ev@Base 1.6
 (optional=templinst)_ZN3pcl26PlaneCoefficientComparatorINS_17PointXYZRGBNormalES1_ED2Ev@Base 1.6
 (optional=templinst)_ZN3pcl26PlaneCoefficientComparatorINS_18PointWithViewpointENS_11PointNormalEE13setInputCloudERKN5boost10shared_ptrIKNS_10PointCloudIS1_EEEE@Base 1.6
 (optional=templinst)_ZN3pcl26PlaneCoefficientComparatorINS_18PointWithViewpointENS_11PointNormalEE14setPlaneCoeffDERSt6vectorIfSaIfEE@Base 1.6
 (optional=templinst)_ZN3pcl26PlaneCoefficientComparatorINS_18PointWithViewpointENS_11PointNormalEE19setAngularThresholdEf@Base 1.6
 (optional=templinst)_ZN3pcl26PlaneCoefficientComparatorINS_18PointWithViewpointENS_11PointNormalEED0Ev@Base 1.6
 (optional=templinst)_ZN3pcl26PlaneCoefficientComparatorINS_18PointWithViewpointENS_11PointNormalEED1Ev@Base 1.6
 (optional=templinst)_ZN3pcl26PlaneCoefficientComparatorINS_18PointWithViewpointENS_11PointNormalEED2Ev@Base 1.6
 (optional=templinst)_ZN3pcl26PlaneCoefficientComparatorINS_18PointWithViewpointENS_15PointXYZINormalEE13setInputCloudERKN5boost10shared_ptrIKNS_10PointCloudIS1_EEEE@Base 1.6
 (optional=templinst)_ZN3pcl26PlaneCoefficientComparatorINS_18PointWithViewpointENS_15PointXYZINormalEE14setPlaneCoeffDERSt6vectorIfSaIfEE@Base 1.6
 (optional=templinst)_ZN3pcl26PlaneCoefficientComparatorINS_18PointWithViewpointENS_15PointXYZINormalEE19setAngularThresholdEf@Base 1.6
 (optional=templinst)_ZN3pcl26PlaneCoefficientComparatorINS_18PointWithViewpointENS_15PointXYZINormalEED0Ev@Base 1.6
 (optional=templinst)_ZN3pcl26PlaneCoefficientComparatorINS_18PointWithViewpointENS_15PointXYZINormalEED1Ev@Base 1.6
 (optional=templinst)_ZN3pcl26PlaneCoefficientComparatorINS_18PointWithViewpointENS_15PointXYZINormalEED2Ev@Base 1.6
 (optional=templinst)_ZN3pcl26PlaneCoefficientComparatorINS_18PointWithViewpointENS_17PointXYZRGBNormalEE13setInputCloudERKN5boost10shared_ptrIKNS_10PointCloudIS1_EEEE@Base 1.6
 (optional=templinst)_ZN3pcl26PlaneCoefficientComparatorINS_18PointWithViewpointENS_17PointXYZRGBNormalEE14setPlaneCoeffDERSt6vectorIfSaIfEE@Base 1.6
 (optional=templinst)_ZN3pcl26PlaneCoefficientComparatorINS_18PointWithViewpointENS_17PointXYZRGBNormalEE19setAngularThresholdEf@Base 1.6
 (optional=templinst)_ZN3pcl26PlaneCoefficientComparatorINS_18PointWithViewpointENS_17PointXYZRGBNormalEED0Ev@Base 1.6
 (optional=templinst)_ZN3pcl26PlaneCoefficientComparatorINS_18PointWithViewpointENS_17PointXYZRGBNormalEED1Ev@Base 1.6
 (optional=templinst)_ZN3pcl26PlaneCoefficientComparatorINS_18PointWithViewpointENS_17PointXYZRGBNormalEED2Ev@Base 1.6
 (optional=templinst)_ZN3pcl26PlaneCoefficientComparatorINS_18PointWithViewpointENS_6NormalEE13setInputCloudERKN5boost10shared_ptrIKNS_10PointCloudIS1_EEEE@Base 1.6
 (optional=templinst)_ZN3pcl26PlaneCoefficientComparatorINS_18PointWithViewpointENS_6NormalEE14setPlaneCoeffDERSt6vectorIfSaIfEE@Base 1.6
 (optional=templinst)_ZN3pcl26PlaneCoefficientComparatorINS_18PointWithViewpointENS_6NormalEE19setAngularThresholdEf@Base 1.6
 (optional=templinst)_ZN3pcl26PlaneCoefficientComparatorINS_18PointWithViewpointENS_6NormalEED0Ev@Base 1.6
 (optional=templinst)_ZN3pcl26PlaneCoefficientComparatorINS_18PointWithViewpointENS_6NormalEED1Ev@Base 1.6
 (optional=templinst)_ZN3pcl26PlaneCoefficientComparatorINS_18PointWithViewpointENS_6NormalEED2Ev@Base 1.6
 (optional=templinst)_ZN3pcl26PlaneCoefficientComparatorINS_8PointXYZENS_11PointNormalEE13setInputCloudERKN5boost10shared_ptrIKNS_10PointCloudIS1_EEEE@Base 1.6
 (optional=templinst)_ZN3pcl26PlaneCoefficientComparatorINS_8PointXYZENS_11PointNormalEE14setPlaneCoeffDERSt6vectorIfSaIfEE@Base 1.6
 (optional=templinst)_ZN3pcl26PlaneCoefficientComparatorINS_8PointXYZENS_11PointNormalEE19setAngularThresholdEf@Base 1.6
 (optional=templinst)_ZN3pcl26PlaneCoefficientComparatorINS_8PointXYZENS_11PointNormalEED0Ev@Base 1.6
 (optional=templinst)_ZN3pcl26PlaneCoefficientComparatorINS_8PointXYZENS_11PointNormalEED1Ev@Base 1.6
 (optional=templinst)_ZN3pcl26PlaneCoefficientComparatorINS_8PointXYZENS_11PointNormalEED2Ev@Base 1.6
 (optional=templinst)_ZN3pcl26PlaneCoefficientComparatorINS_8PointXYZENS_15PointXYZINormalEE13setInputCloudERKN5boost10shared_ptrIKNS_10PointCloudIS1_EEEE@Base 1.6
 (optional=templinst)_ZN3pcl26PlaneCoefficientComparatorINS_8PointXYZENS_15PointXYZINormalEE14setPlaneCoeffDERSt6vectorIfSaIfEE@Base 1.6
 (optional=templinst)_ZN3pcl26PlaneCoefficientComparatorINS_8PointXYZENS_15PointXYZINormalEE19setAngularThresholdEf@Base 1.6
 (optional=templinst)_ZN3pcl26PlaneCoefficientComparatorINS_8PointXYZENS_15PointXYZINormalEED0Ev@Base 1.6
 (optional=templinst)_ZN3pcl26PlaneCoefficientComparatorINS_8PointXYZENS_15PointXYZINormalEED1Ev@Base 1.6
 (optional=templinst)_ZN3pcl26PlaneCoefficientComparatorINS_8PointXYZENS_15PointXYZINormalEED2Ev@Base 1.6
 (optional=templinst)_ZN3pcl26PlaneCoefficientComparatorINS_8PointXYZENS_17PointXYZRGBNormalEE13setInputCloudERKN5boost10shared_ptrIKNS_10PointCloudIS1_EEEE@Base 1.6
 (optional=templinst)_ZN3pcl26PlaneCoefficientComparatorINS_8PointXYZENS_17PointXYZRGBNormalEE14setPlaneCoeffDERSt6vectorIfSaIfEE@Base 1.6
 (optional=templinst)_ZN3pcl26PlaneCoefficientComparatorINS_8PointXYZENS_17PointXYZRGBNormalEE19setAngularThresholdEf@Base 1.6
 (optional=templinst)_ZN3pcl26PlaneCoefficientComparatorINS_8PointXYZENS_17PointXYZRGBNormalEED0Ev@Base 1.6
 (optional=templinst)_ZN3pcl26PlaneCoefficientComparatorINS_8PointXYZENS_17PointXYZRGBNormalEED1Ev@Base 1.6
 (optional=templinst)_ZN3pcl26PlaneCoefficientComparatorINS_8PointXYZENS_17PointXYZRGBNormalEED2Ev@Base 1.6
 (optional=templinst)_ZN3pcl26PlaneCoefficientComparatorINS_8PointXYZENS_6NormalEE13setInputCloudERKN5boost10shared_ptrIKNS_10PointCloudIS1_EEEE@Base 1.6
 (optional=templinst)_ZN3pcl26PlaneCoefficientComparatorINS_8PointXYZENS_6NormalEE14setPlaneCoeffDERSt6vectorIfSaIfEE@Base 1.6
 (optional=templinst)_ZN3pcl26PlaneCoefficientComparatorINS_8PointXYZENS_6NormalEE19setAngularThresholdEf@Base 1.6
 (optional=templinst)_ZN3pcl26PlaneCoefficientComparatorINS_8PointXYZENS_6NormalEED0Ev@Base 1.6
 (optional=templinst)_ZN3pcl26PlaneCoefficientComparatorINS_8PointXYZENS_6NormalEED1Ev@Base 1.6
 (optional=templinst)_ZN3pcl26PlaneCoefficientComparatorINS_8PointXYZENS_6NormalEED2Ev@Base 1.6
 (optional=templinst)_ZN3pcl26PlaneCoefficientComparatorINS_9PointXYZIENS_11PointNormalEE13setInputCloudERKN5boost10shared_ptrIKNS_10PointCloudIS1_EEEE@Base 1.6
 (optional=templinst)_ZN3pcl26PlaneCoefficientComparatorINS_9PointXYZIENS_11PointNormalEE14setPlaneCoeffDERSt6vectorIfSaIfEE@Base 1.6
 (optional=templinst)_ZN3pcl26PlaneCoefficientComparatorINS_9PointXYZIENS_11PointNormalEE19setAngularThresholdEf@Base 1.6
 (optional=templinst)_ZN3pcl26PlaneCoefficientComparatorINS_9PointXYZIENS_11PointNormalEED0Ev@Base 1.6
 (optional=templinst)_ZN3pcl26PlaneCoefficientComparatorINS_9PointXYZIENS_11PointNormalEED1Ev@Base 1.6
 (optional=templinst)_ZN3pcl26PlaneCoefficientComparatorINS_9PointXYZIENS_11PointNormalEED2Ev@Base 1.6
 (optional=templinst)_ZN3pcl26PlaneCoefficientComparatorINS_9PointXYZIENS_15PointXYZINormalEE13setInputCloudERKN5boost10shared_ptrIKNS_10PointCloudIS1_EEEE@Base 1.6
 (optional=templinst)_ZN3pcl26PlaneCoefficientComparatorINS_9PointXYZIENS_15PointXYZINormalEE14setPlaneCoeffDERSt6vectorIfSaIfEE@Base 1.6
 (optional=templinst)_ZN3pcl26PlaneCoefficientComparatorINS_9PointXYZIENS_15PointXYZINormalEE19setAngularThresholdEf@Base 1.6
 (optional=templinst)_ZN3pcl26PlaneCoefficientComparatorINS_9PointXYZIENS_15PointXYZINormalEED0Ev@Base 1.6
 (optional=templinst)_ZN3pcl26PlaneCoefficientComparatorINS_9PointXYZIENS_15PointXYZINormalEED1Ev@Base 1.6
 (optional=templinst)_ZN3pcl26PlaneCoefficientComparatorINS_9PointXYZIENS_15PointXYZINormalEED2Ev@Base 1.6
 (optional=templinst)_ZN3pcl26PlaneCoefficientComparatorINS_9PointXYZIENS_17PointXYZRGBNormalEE13setInputCloudERKN5boost10shared_ptrIKNS_10PointCloudIS1_EEEE@Base 1.6
 (optional=templinst)_ZN3pcl26PlaneCoefficientComparatorINS_9PointXYZIENS_17PointXYZRGBNormalEE14setPlaneCoeffDERSt6vectorIfSaIfEE@Base 1.6
 (optional=templinst)_ZN3pcl26PlaneCoefficientComparatorINS_9PointXYZIENS_17PointXYZRGBNormalEE19setAngularThresholdEf@Base 1.6
 (optional=templinst)_ZN3pcl26PlaneCoefficientComparatorINS_9PointXYZIENS_17PointXYZRGBNormalEED0Ev@Base 1.6
 (optional=templinst)_ZN3pcl26PlaneCoefficientComparatorINS_9PointXYZIENS_17PointXYZRGBNormalEED1Ev@Base 1.6
 (optional=templinst)_ZN3pcl26PlaneCoefficientComparatorINS_9PointXYZIENS_17PointXYZRGBNormalEED2Ev@Base 1.6
 (optional=templinst)_ZN3pcl26PlaneCoefficientComparatorINS_9PointXYZIENS_6NormalEE13setInputCloudERKN5boost10shared_ptrIKNS_10PointCloudIS1_EEEE@Base 1.6
 (optional=templinst)_ZN3pcl26PlaneCoefficientComparatorINS_9PointXYZIENS_6NormalEE14setPlaneCoeffDERSt6vectorIfSaIfEE@Base 1.6
 (optional=templinst)_ZN3pcl26PlaneCoefficientComparatorINS_9PointXYZIENS_6NormalEE19setAngularThresholdEf@Base 1.6
 (optional=templinst)_ZN3pcl26PlaneCoefficientComparatorINS_9PointXYZIENS_6NormalEED0Ev@Base 1.6
 (optional=templinst)_ZN3pcl26PlaneCoefficientComparatorINS_9PointXYZIENS_6NormalEED1Ev@Base 1.6
 (optional=templinst)_ZN3pcl26PlaneCoefficientComparatorINS_9PointXYZIENS_6NormalEED2Ev@Base 1.6
 (optional=templinst)_ZN3pcl26PlaneCoefficientComparatorINS_9PointXYZLENS_11PointNormalEE13setInputCloudERKN5boost10shared_ptrIKNS_10PointCloudIS1_EEEE@Base 1.6
 (optional=templinst)_ZN3pcl26PlaneCoefficientComparatorINS_9PointXYZLENS_11PointNormalEE14setPlaneCoeffDERSt6vectorIfSaIfEE@Base 1.6
 (optional=templinst)_ZN3pcl26PlaneCoefficientComparatorINS_9PointXYZLENS_11PointNormalEE19setAngularThresholdEf@Base 1.6
 (optional=templinst)_ZN3pcl26PlaneCoefficientComparatorINS_9PointXYZLENS_11PointNormalEED0Ev@Base 1.6
 (optional=templinst)_ZN3pcl26PlaneCoefficientComparatorINS_9PointXYZLENS_11PointNormalEED1Ev@Base 1.6
 (optional=templinst)_ZN3pcl26PlaneCoefficientComparatorINS_9PointXYZLENS_11PointNormalEED2Ev@Base 1.6
 (optional=templinst)_ZN3pcl26PlaneCoefficientComparatorINS_9PointXYZLENS_15PointXYZINormalEE13setInputCloudERKN5boost10shared_ptrIKNS_10PointCloudIS1_EEEE@Base 1.6
 (optional=templinst)_ZN3pcl26PlaneCoefficientComparatorINS_9PointXYZLENS_15PointXYZINormalEE14setPlaneCoeffDERSt6vectorIfSaIfEE@Base 1.6
 (optional=templinst)_ZN3pcl26PlaneCoefficientComparatorINS_9PointXYZLENS_15PointXYZINormalEE19setAngularThresholdEf@Base 1.6
 (optional=templinst)_ZN3pcl26PlaneCoefficientComparatorINS_9PointXYZLENS_15PointXYZINormalEED0Ev@Base 1.6
 (optional=templinst)_ZN3pcl26PlaneCoefficientComparatorINS_9PointXYZLENS_15PointXYZINormalEED1Ev@Base 1.6
 (optional=templinst)_ZN3pcl26PlaneCoefficientComparatorINS_9PointXYZLENS_15PointXYZINormalEED2Ev@Base 1.6
 (optional=templinst)_ZN3pcl26PlaneCoefficientComparatorINS_9PointXYZLENS_17PointXYZRGBNormalEE13setInputCloudERKN5boost10shared_ptrIKNS_10PointCloudIS1_EEEE@Base 1.6
 (optional=templinst)_ZN3pcl26PlaneCoefficientComparatorINS_9PointXYZLENS_17PointXYZRGBNormalEE14setPlaneCoeffDERSt6vectorIfSaIfEE@Base 1.6
 (optional=templinst)_ZN3pcl26PlaneCoefficientComparatorINS_9PointXYZLENS_17PointXYZRGBNormalEE19setAngularThresholdEf@Base 1.6
 (optional=templinst)_ZN3pcl26PlaneCoefficientComparatorINS_9PointXYZLENS_17PointXYZRGBNormalEED0Ev@Base 1.6
 (optional=templinst)_ZN3pcl26PlaneCoefficientComparatorINS_9PointXYZLENS_17PointXYZRGBNormalEED1Ev@Base 1.6
 (optional=templinst)_ZN3pcl26PlaneCoefficientComparatorINS_9PointXYZLENS_17PointXYZRGBNormalEED2Ev@Base 1.6
 (optional=templinst)_ZN3pcl26PlaneCoefficientComparatorINS_9PointXYZLENS_6NormalEE13setInputCloudERKN5boost10shared_ptrIKNS_10PointCloudIS1_EEEE@Base 1.6
 (optional=templinst)_ZN3pcl26PlaneCoefficientComparatorINS_9PointXYZLENS_6NormalEE14setPlaneCoeffDERSt6vectorIfSaIfEE@Base 1.6
 (optional=templinst)_ZN3pcl26PlaneCoefficientComparatorINS_9PointXYZLENS_6NormalEE19setAngularThresholdEf@Base 1.6
 (optional=templinst)_ZN3pcl26PlaneCoefficientComparatorINS_9PointXYZLENS_6NormalEED0Ev@Base 1.6
 (optional=templinst)_ZN3pcl26PlaneCoefficientComparatorINS_9PointXYZLENS_6NormalEED1Ev@Base 1.6
 (optional=templinst)_ZN3pcl26PlaneCoefficientComparatorINS_9PointXYZLENS_6NormalEED2Ev@Base 1.6
 (optional=templinst)_ZN3pcl26ProgressiveSampleConsensusINS_11PointNormalEED0Ev@Base 1.6
 (optional=templinst)_ZN3pcl26ProgressiveSampleConsensusINS_11PointNormalEED1Ev@Base 1.6
 (optional=templinst)_ZN3pcl26ProgressiveSampleConsensusINS_11PointNormalEED2Ev@Base 1.6
 (optional=templinst)_ZN3pcl26ProgressiveSampleConsensusINS_11PointXYZHSVEED0Ev@Base 1.6
 (optional=templinst)_ZN3pcl26ProgressiveSampleConsensusINS_11PointXYZHSVEED1Ev@Base 1.6
 (optional=templinst)_ZN3pcl26ProgressiveSampleConsensusINS_11PointXYZHSVEED2Ev@Base 1.6
 (optional=templinst)_ZN3pcl26ProgressiveSampleConsensusINS_11PointXYZRGBEED0Ev@Base 1.6
 (optional=templinst)_ZN3pcl26ProgressiveSampleConsensusINS_11PointXYZRGBEED1Ev@Base 1.6
 (optional=templinst)_ZN3pcl26ProgressiveSampleConsensusINS_11PointXYZRGBEED2Ev@Base 1.6
 (optional=templinst)_ZN3pcl26ProgressiveSampleConsensusINS_12PointXYZRGBAEED0Ev@Base 1.6
 (optional=templinst)_ZN3pcl26ProgressiveSampleConsensusINS_12PointXYZRGBAEED1Ev@Base 1.6
 (optional=templinst)_ZN3pcl26ProgressiveSampleConsensusINS_12PointXYZRGBAEED2Ev@Base 1.6
 (optional=templinst)_ZN3pcl26ProgressiveSampleConsensusINS_12PointXYZRGBLEED0Ev@Base 1.6
 (optional=templinst)_ZN3pcl26ProgressiveSampleConsensusINS_12PointXYZRGBLEED1Ev@Base 1.6
 (optional=templinst)_ZN3pcl26ProgressiveSampleConsensusINS_12PointXYZRGBLEED2Ev@Base 1.6
 (optional=templinst)_ZN3pcl26ProgressiveSampleConsensusINS_13InterestPointEED0Ev@Base 1.6
 (optional=templinst)_ZN3pcl26ProgressiveSampleConsensusINS_13InterestPointEED1Ev@Base 1.6
 (optional=templinst)_ZN3pcl26ProgressiveSampleConsensusINS_13InterestPointEED2Ev@Base 1.6
 (optional=templinst)_ZN3pcl26ProgressiveSampleConsensusINS_14PointWithRangeEED0Ev@Base 1.6
 (optional=templinst)_ZN3pcl26ProgressiveSampleConsensusINS_14PointWithRangeEED1Ev@Base 1.6
 (optional=templinst)_ZN3pcl26ProgressiveSampleConsensusINS_14PointWithRangeEED2Ev@Base 1.6
 (optional=templinst)_ZN3pcl26ProgressiveSampleConsensusINS_14PointWithScaleEED0Ev@Base 1.6
 (optional=templinst)_ZN3pcl26ProgressiveSampleConsensusINS_14PointWithScaleEED1Ev@Base 1.6
 (optional=templinst)_ZN3pcl26ProgressiveSampleConsensusINS_14PointWithScaleEED2Ev@Base 1.6
 (optional=templinst)_ZN3pcl26ProgressiveSampleConsensusINS_15PointXYZINormalEED0Ev@Base 1.6
 (optional=templinst)_ZN3pcl26ProgressiveSampleConsensusINS_15PointXYZINormalEED1Ev@Base 1.6
 (optional=templinst)_ZN3pcl26ProgressiveSampleConsensusINS_15PointXYZINormalEED2Ev@Base 1.6
 (optional=templinst)_ZN3pcl26ProgressiveSampleConsensusINS_17PointXYZRGBNormalEED0Ev@Base 1.6
 (optional=templinst)_ZN3pcl26ProgressiveSampleConsensusINS_17PointXYZRGBNormalEED1Ev@Base 1.6
 (optional=templinst)_ZN3pcl26ProgressiveSampleConsensusINS_17PointXYZRGBNormalEED2Ev@Base 1.6
 (optional=templinst)_ZN3pcl26ProgressiveSampleConsensusINS_18PointWithViewpointEED0Ev@Base 1.6
 (optional=templinst)_ZN3pcl26ProgressiveSampleConsensusINS_18PointWithViewpointEED1Ev@Base 1.6
 (optional=templinst)_ZN3pcl26ProgressiveSampleConsensusINS_18PointWithViewpointEED2Ev@Base 1.6
 (optional=templinst)_ZN3pcl26ProgressiveSampleConsensusINS_8PointXYZEED0Ev@Base 1.6
 (optional=templinst)_ZN3pcl26ProgressiveSampleConsensusINS_8PointXYZEED1Ev@Base 1.6
 (optional=templinst)_ZN3pcl26ProgressiveSampleConsensusINS_8PointXYZEED2Ev@Base 1.6
 (optional=templinst)_ZN3pcl26ProgressiveSampleConsensusINS_9PointXYZIEED0Ev@Base 1.6
 (optional=templinst)_ZN3pcl26ProgressiveSampleConsensusINS_9PointXYZIEED1Ev@Base 1.6
 (optional=templinst)_ZN3pcl26ProgressiveSampleConsensusINS_9PointXYZIEED2Ev@Base 1.6
 (optional=templinst)_ZN3pcl26ProgressiveSampleConsensusINS_9PointXYZLEED0Ev@Base 1.6
 (optional=templinst)_ZN3pcl26ProgressiveSampleConsensusINS_9PointXYZLEED1Ev@Base 1.6
 (optional=templinst)_ZN3pcl26ProgressiveSampleConsensusINS_9PointXYZLEED2Ev@Base 1.6
 (optional=templinst)_ZN3pcl26SACSegmentationFromNormalsINS_11PointNormalENS_15PointXYZINormalEE12initSACModelEi@Base 1.6
 (optional=templinst)_ZN3pcl26SACSegmentationFromNormalsINS_11PointNormalENS_15PointXYZINormalEE15setInputNormalsERKN5boost10shared_ptrIKNS_10PointCloudIS2_EEEE@Base 1.6
 (optional=templinst)_ZN3pcl26SACSegmentationFromNormalsINS_11PointNormalENS_15PointXYZINormalEE21getMinMaxOpeningAngleERdS4_@Base 1.6
 (optional=templinst)_ZN3pcl26SACSegmentationFromNormalsINS_11PointNormalENS_15PointXYZINormalEE21setDistanceFromOriginEd@Base 1.6
 (optional=templinst)_ZN3pcl26SACSegmentationFromNormalsINS_11PointNormalENS_15PointXYZINormalEE21setMinMaxOpeningAngleERKdS5_@Base 1.6
 (optional=templinst)_ZN3pcl26SACSegmentationFromNormalsINS_11PointNormalENS_15PointXYZINormalEE23setNormalDistanceWeightEd@Base 1.6
 (optional=templinst)_ZN3pcl26SACSegmentationFromNormalsINS_11PointNormalENS_15PointXYZINormalEEC1Ev@Base 1.6
 (optional=templinst)_ZN3pcl26SACSegmentationFromNormalsINS_11PointNormalENS_15PointXYZINormalEEC2Ev@Base 1.6
 (optional=templinst)_ZN3pcl26SACSegmentationFromNormalsINS_11PointNormalENS_15PointXYZINormalEED0Ev@Base 1.6
 (optional=templinst)_ZN3pcl26SACSegmentationFromNormalsINS_11PointNormalENS_15PointXYZINormalEED1Ev@Base 1.6
 (optional=templinst)_ZN3pcl26SACSegmentationFromNormalsINS_11PointNormalENS_15PointXYZINormalEED2Ev@Base 1.6
 (optional=templinst)_ZN3pcl26SACSegmentationFromNormalsINS_11PointNormalENS_17PointXYZRGBNormalEE12initSACModelEi@Base 1.6
 (optional=templinst)_ZN3pcl26SACSegmentationFromNormalsINS_11PointNormalENS_17PointXYZRGBNormalEE15setInputNormalsERKN5boost10shared_ptrIKNS_10PointCloudIS2_EEEE@Base 1.6
 (optional=templinst)_ZN3pcl26SACSegmentationFromNormalsINS_11PointNormalENS_17PointXYZRGBNormalEE21getMinMaxOpeningAngleERdS4_@Base 1.6
 (optional=templinst)_ZN3pcl26SACSegmentationFromNormalsINS_11PointNormalENS_17PointXYZRGBNormalEE21setDistanceFromOriginEd@Base 1.6
 (optional=templinst)_ZN3pcl26SACSegmentationFromNormalsINS_11PointNormalENS_17PointXYZRGBNormalEE21setMinMaxOpeningAngleERKdS5_@Base 1.6
 (optional=templinst)_ZN3pcl26SACSegmentationFromNormalsINS_11PointNormalENS_17PointXYZRGBNormalEE23setNormalDistanceWeightEd@Base 1.6
 (optional=templinst)_ZN3pcl26SACSegmentationFromNormalsINS_11PointNormalENS_17PointXYZRGBNormalEEC1Ev@Base 1.6
 (optional=templinst)_ZN3pcl26SACSegmentationFromNormalsINS_11PointNormalENS_17PointXYZRGBNormalEEC2Ev@Base 1.6
 (optional=templinst)_ZN3pcl26SACSegmentationFromNormalsINS_11PointNormalENS_17PointXYZRGBNormalEED0Ev@Base 1.6
 (optional=templinst)_ZN3pcl26SACSegmentationFromNormalsINS_11PointNormalENS_17PointXYZRGBNormalEED1Ev@Base 1.6
 (optional=templinst)_ZN3pcl26SACSegmentationFromNormalsINS_11PointNormalENS_17PointXYZRGBNormalEED2Ev@Base 1.6
 (optional=templinst)_ZN3pcl26SACSegmentationFromNormalsINS_11PointNormalENS_6NormalEE12initSACModelEi@Base 1.6
 (optional=templinst)_ZN3pcl26SACSegmentationFromNormalsINS_11PointNormalENS_6NormalEE15setInputNormalsERKN5boost10shared_ptrIKNS_10PointCloudIS2_EEEE@Base 1.6
 (optional=templinst)_ZN3pcl26SACSegmentationFromNormalsINS_11PointNormalENS_6NormalEE21getMinMaxOpeningAngleERdS4_@Base 1.6
 (optional=templinst)_ZN3pcl26SACSegmentationFromNormalsINS_11PointNormalENS_6NormalEE21setDistanceFromOriginEd@Base 1.6
 (optional=templinst)_ZN3pcl26SACSegmentationFromNormalsINS_11PointNormalENS_6NormalEE21setMinMaxOpeningAngleERKdS5_@Base 1.6
 (optional=templinst)_ZN3pcl26SACSegmentationFromNormalsINS_11PointNormalENS_6NormalEE23setNormalDistanceWeightEd@Base 1.6
 (optional=templinst)_ZN3pcl26SACSegmentationFromNormalsINS_11PointNormalENS_6NormalEEC1Ev@Base 1.6
 (optional=templinst)_ZN3pcl26SACSegmentationFromNormalsINS_11PointNormalENS_6NormalEEC2Ev@Base 1.6
 (optional=templinst)_ZN3pcl26SACSegmentationFromNormalsINS_11PointNormalENS_6NormalEED0Ev@Base 1.6
 (optional=templinst)_ZN3pcl26SACSegmentationFromNormalsINS_11PointNormalENS_6NormalEED1Ev@Base 1.6
 (optional=templinst)_ZN3pcl26SACSegmentationFromNormalsINS_11PointNormalENS_6NormalEED2Ev@Base 1.6
 (optional=templinst)_ZN3pcl26SACSegmentationFromNormalsINS_11PointNormalES1_E12initSACModelEi@Base 1.6
 (optional=templinst)_ZN3pcl26SACSegmentationFromNormalsINS_11PointNormalES1_E15setInputNormalsERKN5boost10shared_ptrIKNS_10PointCloudIS1_EEEE@Base 1.6
 (optional=templinst)_ZN3pcl26SACSegmentationFromNormalsINS_11PointNormalES1_E21getMinMaxOpeningAngleERdS3_@Base 1.6
 (optional=templinst)_ZN3pcl26SACSegmentationFromNormalsINS_11PointNormalES1_E21setDistanceFromOriginEd@Base 1.6
 (optional=templinst)_ZN3pcl26SACSegmentationFromNormalsINS_11PointNormalES1_E21setMinMaxOpeningAngleERKdS4_@Base 1.6
 (optional=templinst)_ZN3pcl26SACSegmentationFromNormalsINS_11PointNormalES1_E23setNormalDistanceWeightEd@Base 1.6
 (optional=templinst)_ZN3pcl26SACSegmentationFromNormalsINS_11PointNormalES1_EC1Ev@Base 1.6
 (optional=templinst)_ZN3pcl26SACSegmentationFromNormalsINS_11PointNormalES1_EC2Ev@Base 1.6
 (optional=templinst)_ZN3pcl26SACSegmentationFromNormalsINS_11PointNormalES1_ED0Ev@Base 1.6
 (optional=templinst)_ZN3pcl26SACSegmentationFromNormalsINS_11PointNormalES1_ED1Ev@Base 1.6
 (optional=templinst)_ZN3pcl26SACSegmentationFromNormalsINS_11PointNormalES1_ED2Ev@Base 1.6
 (optional=templinst)_ZN3pcl26SACSegmentationFromNormalsINS_11PointXYZHSVENS_11PointNormalEE12initSACModelEi@Base 1.6
 (optional=templinst)_ZN3pcl26SACSegmentationFromNormalsINS_11PointXYZHSVENS_11PointNormalEE15setInputNormalsERKN5boost10shared_ptrIKNS_10PointCloudIS2_EEEE@Base 1.6
 (optional=templinst)_ZN3pcl26SACSegmentationFromNormalsINS_11PointXYZHSVENS_11PointNormalEE21getMinMaxOpeningAngleERdS4_@Base 1.6
 (optional=templinst)_ZN3pcl26SACSegmentationFromNormalsINS_11PointXYZHSVENS_11PointNormalEE21setDistanceFromOriginEd@Base 1.6
 (optional=templinst)_ZN3pcl26SACSegmentationFromNormalsINS_11PointXYZHSVENS_11PointNormalEE21setMinMaxOpeningAngleERKdS5_@Base 1.6
 (optional=templinst)_ZN3pcl26SACSegmentationFromNormalsINS_11PointXYZHSVENS_11PointNormalEE23setNormalDistanceWeightEd@Base 1.6
 (optional=templinst)_ZN3pcl26SACSegmentationFromNormalsINS_11PointXYZHSVENS_11PointNormalEEC1Ev@Base 1.6
 (optional=templinst)_ZN3pcl26SACSegmentationFromNormalsINS_11PointXYZHSVENS_11PointNormalEEC2Ev@Base 1.6
 (optional=templinst)_ZN3pcl26SACSegmentationFromNormalsINS_11PointXYZHSVENS_11PointNormalEED0Ev@Base 1.6
 (optional=templinst)_ZN3pcl26SACSegmentationFromNormalsINS_11PointXYZHSVENS_11PointNormalEED1Ev@Base 1.6
 (optional=templinst)_ZN3pcl26SACSegmentationFromNormalsINS_11PointXYZHSVENS_11PointNormalEED2Ev@Base 1.6
 (optional=templinst)_ZN3pcl26SACSegmentationFromNormalsINS_11PointXYZHSVENS_15PointXYZINormalEE12initSACModelEi@Base 1.6
 (optional=templinst)_ZN3pcl26SACSegmentationFromNormalsINS_11PointXYZHSVENS_15PointXYZINormalEE15setInputNormalsERKN5boost10shared_ptrIKNS_10PointCloudIS2_EEEE@Base 1.6
 (optional=templinst)_ZN3pcl26SACSegmentationFromNormalsINS_11PointXYZHSVENS_15PointXYZINormalEE21getMinMaxOpeningAngleERdS4_@Base 1.6
 (optional=templinst)_ZN3pcl26SACSegmentationFromNormalsINS_11PointXYZHSVENS_15PointXYZINormalEE21setDistanceFromOriginEd@Base 1.6
 (optional=templinst)_ZN3pcl26SACSegmentationFromNormalsINS_11PointXYZHSVENS_15PointXYZINormalEE21setMinMaxOpeningAngleERKdS5_@Base 1.6
 (optional=templinst)_ZN3pcl26SACSegmentationFromNormalsINS_11PointXYZHSVENS_15PointXYZINormalEE23setNormalDistanceWeightEd@Base 1.6
 (optional=templinst)_ZN3pcl26SACSegmentationFromNormalsINS_11PointXYZHSVENS_15PointXYZINormalEEC1Ev@Base 1.6
 (optional=templinst)_ZN3pcl26SACSegmentationFromNormalsINS_11PointXYZHSVENS_15PointXYZINormalEEC2Ev@Base 1.6
 (optional=templinst)_ZN3pcl26SACSegmentationFromNormalsINS_11PointXYZHSVENS_15PointXYZINormalEED0Ev@Base 1.6
 (optional=templinst)_ZN3pcl26SACSegmentationFromNormalsINS_11PointXYZHSVENS_15PointXYZINormalEED1Ev@Base 1.6
 (optional=templinst)_ZN3pcl26SACSegmentationFromNormalsINS_11PointXYZHSVENS_15PointXYZINormalEED2Ev@Base 1.6
 (optional=templinst)_ZN3pcl26SACSegmentationFromNormalsINS_11PointXYZHSVENS_17PointXYZRGBNormalEE12initSACModelEi@Base 1.6
 (optional=templinst)_ZN3pcl26SACSegmentationFromNormalsINS_11PointXYZHSVENS_17PointXYZRGBNormalEE15setInputNormalsERKN5boost10shared_ptrIKNS_10PointCloudIS2_EEEE@Base 1.6
 (optional=templinst)_ZN3pcl26SACSegmentationFromNormalsINS_11PointXYZHSVENS_17PointXYZRGBNormalEE21getMinMaxOpeningAngleERdS4_@Base 1.6
 (optional=templinst)_ZN3pcl26SACSegmentationFromNormalsINS_11PointXYZHSVENS_17PointXYZRGBNormalEE21setDistanceFromOriginEd@Base 1.6
 (optional=templinst)_ZN3pcl26SACSegmentationFromNormalsINS_11PointXYZHSVENS_17PointXYZRGBNormalEE21setMinMaxOpeningAngleERKdS5_@Base 1.6
 (optional=templinst)_ZN3pcl26SACSegmentationFromNormalsINS_11PointXYZHSVENS_17PointXYZRGBNormalEE23setNormalDistanceWeightEd@Base 1.6
 (optional=templinst)_ZN3pcl26SACSegmentationFromNormalsINS_11PointXYZHSVENS_17PointXYZRGBNormalEEC1Ev@Base 1.6
 (optional=templinst)_ZN3pcl26SACSegmentationFromNormalsINS_11PointXYZHSVENS_17PointXYZRGBNormalEEC2Ev@Base 1.6
 (optional=templinst)_ZN3pcl26SACSegmentationFromNormalsINS_11PointXYZHSVENS_17PointXYZRGBNormalEED0Ev@Base 1.6
 (optional=templinst)_ZN3pcl26SACSegmentationFromNormalsINS_11PointXYZHSVENS_17PointXYZRGBNormalEED1Ev@Base 1.6
 (optional=templinst)_ZN3pcl26SACSegmentationFromNormalsINS_11PointXYZHSVENS_17PointXYZRGBNormalEED2Ev@Base 1.6
 (optional=templinst)_ZN3pcl26SACSegmentationFromNormalsINS_11PointXYZHSVENS_6NormalEE12initSACModelEi@Base 1.6
 (optional=templinst)_ZN3pcl26SACSegmentationFromNormalsINS_11PointXYZHSVENS_6NormalEE15setInputNormalsERKN5boost10shared_ptrIKNS_10PointCloudIS2_EEEE@Base 1.6
 (optional=templinst)_ZN3pcl26SACSegmentationFromNormalsINS_11PointXYZHSVENS_6NormalEE21getMinMaxOpeningAngleERdS4_@Base 1.6
 (optional=templinst)_ZN3pcl26SACSegmentationFromNormalsINS_11PointXYZHSVENS_6NormalEE21setDistanceFromOriginEd@Base 1.6
 (optional=templinst)_ZN3pcl26SACSegmentationFromNormalsINS_11PointXYZHSVENS_6NormalEE21setMinMaxOpeningAngleERKdS5_@Base 1.6
 (optional=templinst)_ZN3pcl26SACSegmentationFromNormalsINS_11PointXYZHSVENS_6NormalEE23setNormalDistanceWeightEd@Base 1.6
 (optional=templinst)_ZN3pcl26SACSegmentationFromNormalsINS_11PointXYZHSVENS_6NormalEEC1Ev@Base 1.6
 (optional=templinst)_ZN3pcl26SACSegmentationFromNormalsINS_11PointXYZHSVENS_6NormalEEC2Ev@Base 1.6
 (optional=templinst)_ZN3pcl26SACSegmentationFromNormalsINS_11PointXYZHSVENS_6NormalEED0Ev@Base 1.6
 (optional=templinst)_ZN3pcl26SACSegmentationFromNormalsINS_11PointXYZHSVENS_6NormalEED1Ev@Base 1.6
 (optional=templinst)_ZN3pcl26SACSegmentationFromNormalsINS_11PointXYZHSVENS_6NormalEED2Ev@Base 1.6
 (optional=templinst)_ZN3pcl26SACSegmentationFromNormalsINS_11PointXYZRGBENS_11PointNormalEE12initSACModelEi@Base 1.6
 (optional=templinst)_ZN3pcl26SACSegmentationFromNormalsINS_11PointXYZRGBENS_11PointNormalEE15setInputNormalsERKN5boost10shared_ptrIKNS_10PointCloudIS2_EEEE@Base 1.6
 (optional=templinst)_ZN3pcl26SACSegmentationFromNormalsINS_11PointXYZRGBENS_11PointNormalEE21getMinMaxOpeningAngleERdS4_@Base 1.6
 (optional=templinst)_ZN3pcl26SACSegmentationFromNormalsINS_11PointXYZRGBENS_11PointNormalEE21setDistanceFromOriginEd@Base 1.6
 (optional=templinst)_ZN3pcl26SACSegmentationFromNormalsINS_11PointXYZRGBENS_11PointNormalEE21setMinMaxOpeningAngleERKdS5_@Base 1.6
 (optional=templinst)_ZN3pcl26SACSegmentationFromNormalsINS_11PointXYZRGBENS_11PointNormalEE23setNormalDistanceWeightEd@Base 1.6
 (optional=templinst)_ZN3pcl26SACSegmentationFromNormalsINS_11PointXYZRGBENS_11PointNormalEEC1Ev@Base 1.6
 (optional=templinst)_ZN3pcl26SACSegmentationFromNormalsINS_11PointXYZRGBENS_11PointNormalEEC2Ev@Base 1.6
 (optional=templinst)_ZN3pcl26SACSegmentationFromNormalsINS_11PointXYZRGBENS_11PointNormalEED0Ev@Base 1.6
 (optional=templinst)_ZN3pcl26SACSegmentationFromNormalsINS_11PointXYZRGBENS_11PointNormalEED1Ev@Base 1.6
 (optional=templinst)_ZN3pcl26SACSegmentationFromNormalsINS_11PointXYZRGBENS_11PointNormalEED2Ev@Base 1.6
 (optional=templinst)_ZN3pcl26SACSegmentationFromNormalsINS_11PointXYZRGBENS_15PointXYZINormalEE12initSACModelEi@Base 1.6
 (optional=templinst)_ZN3pcl26SACSegmentationFromNormalsINS_11PointXYZRGBENS_15PointXYZINormalEE15setInputNormalsERKN5boost10shared_ptrIKNS_10PointCloudIS2_EEEE@Base 1.6
 (optional=templinst)_ZN3pcl26SACSegmentationFromNormalsINS_11PointXYZRGBENS_15PointXYZINormalEE21getMinMaxOpeningAngleERdS4_@Base 1.6
 (optional=templinst)_ZN3pcl26SACSegmentationFromNormalsINS_11PointXYZRGBENS_15PointXYZINormalEE21setDistanceFromOriginEd@Base 1.6
 (optional=templinst)_ZN3pcl26SACSegmentationFromNormalsINS_11PointXYZRGBENS_15PointXYZINormalEE21setMinMaxOpeningAngleERKdS5_@Base 1.6
 (optional=templinst)_ZN3pcl26SACSegmentationFromNormalsINS_11PointXYZRGBENS_15PointXYZINormalEE23setNormalDistanceWeightEd@Base 1.6
 (optional=templinst)_ZN3pcl26SACSegmentationFromNormalsINS_11PointXYZRGBENS_15PointXYZINormalEEC1Ev@Base 1.6
 (optional=templinst)_ZN3pcl26SACSegmentationFromNormalsINS_11PointXYZRGBENS_15PointXYZINormalEEC2Ev@Base 1.6
 (optional=templinst)_ZN3pcl26SACSegmentationFromNormalsINS_11PointXYZRGBENS_15PointXYZINormalEED0Ev@Base 1.6
 (optional=templinst)_ZN3pcl26SACSegmentationFromNormalsINS_11PointXYZRGBENS_15PointXYZINormalEED1Ev@Base 1.6
 (optional=templinst)_ZN3pcl26SACSegmentationFromNormalsINS_11PointXYZRGBENS_15PointXYZINormalEED2Ev@Base 1.6
 (optional=templinst)_ZN3pcl26SACSegmentationFromNormalsINS_11PointXYZRGBENS_17PointXYZRGBNormalEE12initSACModelEi@Base 1.6
 (optional=templinst)_ZN3pcl26SACSegmentationFromNormalsINS_11PointXYZRGBENS_17PointXYZRGBNormalEE15setInputNormalsERKN5boost10shared_ptrIKNS_10PointCloudIS2_EEEE@Base 1.6
 (optional=templinst)_ZN3pcl26SACSegmentationFromNormalsINS_11PointXYZRGBENS_17PointXYZRGBNormalEE21getMinMaxOpeningAngleERdS4_@Base 1.6
 (optional=templinst)_ZN3pcl26SACSegmentationFromNormalsINS_11PointXYZRGBENS_17PointXYZRGBNormalEE21setDistanceFromOriginEd@Base 1.6
 (optional=templinst)_ZN3pcl26SACSegmentationFromNormalsINS_11PointXYZRGBENS_17PointXYZRGBNormalEE21setMinMaxOpeningAngleERKdS5_@Base 1.6
 (optional=templinst)_ZN3pcl26SACSegmentationFromNormalsINS_11PointXYZRGBENS_17PointXYZRGBNormalEE23setNormalDistanceWeightEd@Base 1.6
 (optional=templinst)_ZN3pcl26SACSegmentationFromNormalsINS_11PointXYZRGBENS_17PointXYZRGBNormalEEC1Ev@Base 1.6
 (optional=templinst)_ZN3pcl26SACSegmentationFromNormalsINS_11PointXYZRGBENS_17PointXYZRGBNormalEEC2Ev@Base 1.6
 (optional=templinst)_ZN3pcl26SACSegmentationFromNormalsINS_11PointXYZRGBENS_17PointXYZRGBNormalEED0Ev@Base 1.6
 (optional=templinst)_ZN3pcl26SACSegmentationFromNormalsINS_11PointXYZRGBENS_17PointXYZRGBNormalEED1Ev@Base 1.6
 (optional=templinst)_ZN3pcl26SACSegmentationFromNormalsINS_11PointXYZRGBENS_17PointXYZRGBNormalEED2Ev@Base 1.6
 (optional=templinst)_ZN3pcl26SACSegmentationFromNormalsINS_11PointXYZRGBENS_6NormalEE12initSACModelEi@Base 1.6
 (optional=templinst)_ZN3pcl26SACSegmentationFromNormalsINS_11PointXYZRGBENS_6NormalEE15setInputNormalsERKN5boost10shared_ptrIKNS_10PointCloudIS2_EEEE@Base 1.6
 (optional=templinst)_ZN3pcl26SACSegmentationFromNormalsINS_11PointXYZRGBENS_6NormalEE21getMinMaxOpeningAngleERdS4_@Base 1.6
 (optional=templinst)_ZN3pcl26SACSegmentationFromNormalsINS_11PointXYZRGBENS_6NormalEE21setDistanceFromOriginEd@Base 1.6
 (optional=templinst)_ZN3pcl26SACSegmentationFromNormalsINS_11PointXYZRGBENS_6NormalEE21setMinMaxOpeningAngleERKdS5_@Base 1.6
 (optional=templinst)_ZN3pcl26SACSegmentationFromNormalsINS_11PointXYZRGBENS_6NormalEE23setNormalDistanceWeightEd@Base 1.6
 (optional=templinst)_ZN3pcl26SACSegmentationFromNormalsINS_11PointXYZRGBENS_6NormalEEC1Ev@Base 1.6
 (optional=templinst)_ZN3pcl26SACSegmentationFromNormalsINS_11PointXYZRGBENS_6NormalEEC2Ev@Base 1.6
 (optional=templinst)_ZN3pcl26SACSegmentationFromNormalsINS_11PointXYZRGBENS_6NormalEED0Ev@Base 1.6
 (optional=templinst)_ZN3pcl26SACSegmentationFromNormalsINS_11PointXYZRGBENS_6NormalEED1Ev@Base 1.6
 (optional=templinst)_ZN3pcl26SACSegmentationFromNormalsINS_11PointXYZRGBENS_6NormalEED2Ev@Base 1.6
 (optional=templinst)_ZN3pcl26SACSegmentationFromNormalsINS_12PointXYZRGBAENS_11PointNormalEE12initSACModelEi@Base 1.6
 (optional=templinst)_ZN3pcl26SACSegmentationFromNormalsINS_12PointXYZRGBAENS_11PointNormalEE15setInputNormalsERKN5boost10shared_ptrIKNS_10PointCloudIS2_EEEE@Base 1.6
 (optional=templinst)_ZN3pcl26SACSegmentationFromNormalsINS_12PointXYZRGBAENS_11PointNormalEE21getMinMaxOpeningAngleERdS4_@Base 1.6
 (optional=templinst)_ZN3pcl26SACSegmentationFromNormalsINS_12PointXYZRGBAENS_11PointNormalEE21setDistanceFromOriginEd@Base 1.6
 (optional=templinst)_ZN3pcl26SACSegmentationFromNormalsINS_12PointXYZRGBAENS_11PointNormalEE21setMinMaxOpeningAngleERKdS5_@Base 1.6
 (optional=templinst)_ZN3pcl26SACSegmentationFromNormalsINS_12PointXYZRGBAENS_11PointNormalEE23setNormalDistanceWeightEd@Base 1.6
 (optional=templinst)_ZN3pcl26SACSegmentationFromNormalsINS_12PointXYZRGBAENS_11PointNormalEEC1Ev@Base 1.6
 (optional=templinst)_ZN3pcl26SACSegmentationFromNormalsINS_12PointXYZRGBAENS_11PointNormalEEC2Ev@Base 1.6
 (optional=templinst)_ZN3pcl26SACSegmentationFromNormalsINS_12PointXYZRGBAENS_11PointNormalEED0Ev@Base 1.6
 (optional=templinst)_ZN3pcl26SACSegmentationFromNormalsINS_12PointXYZRGBAENS_11PointNormalEED1Ev@Base 1.6
 (optional=templinst)_ZN3pcl26SACSegmentationFromNormalsINS_12PointXYZRGBAENS_11PointNormalEED2Ev@Base 1.6
 (optional=templinst)_ZN3pcl26SACSegmentationFromNormalsINS_12PointXYZRGBAENS_15PointXYZINormalEE12initSACModelEi@Base 1.6
 (optional=templinst)_ZN3pcl26SACSegmentationFromNormalsINS_12PointXYZRGBAENS_15PointXYZINormalEE15setInputNormalsERKN5boost10shared_ptrIKNS_10PointCloudIS2_EEEE@Base 1.6
 (optional=templinst)_ZN3pcl26SACSegmentationFromNormalsINS_12PointXYZRGBAENS_15PointXYZINormalEE21getMinMaxOpeningAngleERdS4_@Base 1.6
 (optional=templinst)_ZN3pcl26SACSegmentationFromNormalsINS_12PointXYZRGBAENS_15PointXYZINormalEE21setDistanceFromOriginEd@Base 1.6
 (optional=templinst)_ZN3pcl26SACSegmentationFromNormalsINS_12PointXYZRGBAENS_15PointXYZINormalEE21setMinMaxOpeningAngleERKdS5_@Base 1.6
 (optional=templinst)_ZN3pcl26SACSegmentationFromNormalsINS_12PointXYZRGBAENS_15PointXYZINormalEE23setNormalDistanceWeightEd@Base 1.6
 (optional=templinst)_ZN3pcl26SACSegmentationFromNormalsINS_12PointXYZRGBAENS_15PointXYZINormalEEC1Ev@Base 1.6
 (optional=templinst)_ZN3pcl26SACSegmentationFromNormalsINS_12PointXYZRGBAENS_15PointXYZINormalEEC2Ev@Base 1.6
 (optional=templinst)_ZN3pcl26SACSegmentationFromNormalsINS_12PointXYZRGBAENS_15PointXYZINormalEED0Ev@Base 1.6
 (optional=templinst)_ZN3pcl26SACSegmentationFromNormalsINS_12PointXYZRGBAENS_15PointXYZINormalEED1Ev@Base 1.6
 (optional=templinst)_ZN3pcl26SACSegmentationFromNormalsINS_12PointXYZRGBAENS_15PointXYZINormalEED2Ev@Base 1.6
 (optional=templinst)_ZN3pcl26SACSegmentationFromNormalsINS_12PointXYZRGBAENS_17PointXYZRGBNormalEE12initSACModelEi@Base 1.6
 (optional=templinst)_ZN3pcl26SACSegmentationFromNormalsINS_12PointXYZRGBAENS_17PointXYZRGBNormalEE15setInputNormalsERKN5boost10shared_ptrIKNS_10PointCloudIS2_EEEE@Base 1.6
 (optional=templinst)_ZN3pcl26SACSegmentationFromNormalsINS_12PointXYZRGBAENS_17PointXYZRGBNormalEE21getMinMaxOpeningAngleERdS4_@Base 1.6
 (optional=templinst)_ZN3pcl26SACSegmentationFromNormalsINS_12PointXYZRGBAENS_17PointXYZRGBNormalEE21setDistanceFromOriginEd@Base 1.6
 (optional=templinst)_ZN3pcl26SACSegmentationFromNormalsINS_12PointXYZRGBAENS_17PointXYZRGBNormalEE21setMinMaxOpeningAngleERKdS5_@Base 1.6
 (optional=templinst)_ZN3pcl26SACSegmentationFromNormalsINS_12PointXYZRGBAENS_17PointXYZRGBNormalEE23setNormalDistanceWeightEd@Base 1.6
 (optional=templinst)_ZN3pcl26SACSegmentationFromNormalsINS_12PointXYZRGBAENS_17PointXYZRGBNormalEEC1Ev@Base 1.6
 (optional=templinst)_ZN3pcl26SACSegmentationFromNormalsINS_12PointXYZRGBAENS_17PointXYZRGBNormalEEC2Ev@Base 1.6
 (optional=templinst)_ZN3pcl26SACSegmentationFromNormalsINS_12PointXYZRGBAENS_17PointXYZRGBNormalEED0Ev@Base 1.6
 (optional=templinst)_ZN3pcl26SACSegmentationFromNormalsINS_12PointXYZRGBAENS_17PointXYZRGBNormalEED1Ev@Base 1.6
 (optional=templinst)_ZN3pcl26SACSegmentationFromNormalsINS_12PointXYZRGBAENS_17PointXYZRGBNormalEED2Ev@Base 1.6
 (optional=templinst)_ZN3pcl26SACSegmentationFromNormalsINS_12PointXYZRGBAENS_6NormalEE12initSACModelEi@Base 1.6
 (optional=templinst)_ZN3pcl26SACSegmentationFromNormalsINS_12PointXYZRGBAENS_6NormalEE15setInputNormalsERKN5boost10shared_ptrIKNS_10PointCloudIS2_EEEE@Base 1.6
 (optional=templinst)_ZN3pcl26SACSegmentationFromNormalsINS_12PointXYZRGBAENS_6NormalEE21getMinMaxOpeningAngleERdS4_@Base 1.6
 (optional=templinst)_ZN3pcl26SACSegmentationFromNormalsINS_12PointXYZRGBAENS_6NormalEE21setDistanceFromOriginEd@Base 1.6
 (optional=templinst)_ZN3pcl26SACSegmentationFromNormalsINS_12PointXYZRGBAENS_6NormalEE21setMinMaxOpeningAngleERKdS5_@Base 1.6
 (optional=templinst)_ZN3pcl26SACSegmentationFromNormalsINS_12PointXYZRGBAENS_6NormalEE23setNormalDistanceWeightEd@Base 1.6
 (optional=templinst)_ZN3pcl26SACSegmentationFromNormalsINS_12PointXYZRGBAENS_6NormalEEC1Ev@Base 1.6
 (optional=templinst)_ZN3pcl26SACSegmentationFromNormalsINS_12PointXYZRGBAENS_6NormalEEC2Ev@Base 1.6
 (optional=templinst)_ZN3pcl26SACSegmentationFromNormalsINS_12PointXYZRGBAENS_6NormalEED0Ev@Base 1.6
 (optional=templinst)_ZN3pcl26SACSegmentationFromNormalsINS_12PointXYZRGBAENS_6NormalEED1Ev@Base 1.6
 (optional=templinst)_ZN3pcl26SACSegmentationFromNormalsINS_12PointXYZRGBAENS_6NormalEED2Ev@Base 1.6
 (optional=templinst)_ZN3pcl26SACSegmentationFromNormalsINS_12PointXYZRGBLENS_11PointNormalEE12initSACModelEi@Base 1.6
 (optional=templinst)_ZN3pcl26SACSegmentationFromNormalsINS_12PointXYZRGBLENS_11PointNormalEE15setInputNormalsERKN5boost10shared_ptrIKNS_10PointCloudIS2_EEEE@Base 1.6
 (optional=templinst)_ZN3pcl26SACSegmentationFromNormalsINS_12PointXYZRGBLENS_11PointNormalEE21getMinMaxOpeningAngleERdS4_@Base 1.6
 (optional=templinst)_ZN3pcl26SACSegmentationFromNormalsINS_12PointXYZRGBLENS_11PointNormalEE21setDistanceFromOriginEd@Base 1.6
 (optional=templinst)_ZN3pcl26SACSegmentationFromNormalsINS_12PointXYZRGBLENS_11PointNormalEE21setMinMaxOpeningAngleERKdS5_@Base 1.6
 (optional=templinst)_ZN3pcl26SACSegmentationFromNormalsINS_12PointXYZRGBLENS_11PointNormalEE23setNormalDistanceWeightEd@Base 1.6
 (optional=templinst)_ZN3pcl26SACSegmentationFromNormalsINS_12PointXYZRGBLENS_11PointNormalEEC1Ev@Base 1.6
 (optional=templinst)_ZN3pcl26SACSegmentationFromNormalsINS_12PointXYZRGBLENS_11PointNormalEEC2Ev@Base 1.6
 (optional=templinst)_ZN3pcl26SACSegmentationFromNormalsINS_12PointXYZRGBLENS_11PointNormalEED0Ev@Base 1.6
 (optional=templinst)_ZN3pcl26SACSegmentationFromNormalsINS_12PointXYZRGBLENS_11PointNormalEED1Ev@Base 1.6
 (optional=templinst)_ZN3pcl26SACSegmentationFromNormalsINS_12PointXYZRGBLENS_11PointNormalEED2Ev@Base 1.6
 (optional=templinst)_ZN3pcl26SACSegmentationFromNormalsINS_12PointXYZRGBLENS_15PointXYZINormalEE12initSACModelEi@Base 1.6
 (optional=templinst)_ZN3pcl26SACSegmentationFromNormalsINS_12PointXYZRGBLENS_15PointXYZINormalEE15setInputNormalsERKN5boost10shared_ptrIKNS_10PointCloudIS2_EEEE@Base 1.6
 (optional=templinst)_ZN3pcl26SACSegmentationFromNormalsINS_12PointXYZRGBLENS_15PointXYZINormalEE21getMinMaxOpeningAngleERdS4_@Base 1.6
 (optional=templinst)_ZN3pcl26SACSegmentationFromNormalsINS_12PointXYZRGBLENS_15PointXYZINormalEE21setDistanceFromOriginEd@Base 1.6
 (optional=templinst)_ZN3pcl26SACSegmentationFromNormalsINS_12PointXYZRGBLENS_15PointXYZINormalEE21setMinMaxOpeningAngleERKdS5_@Base 1.6
 (optional=templinst)_ZN3pcl26SACSegmentationFromNormalsINS_12PointXYZRGBLENS_15PointXYZINormalEE23setNormalDistanceWeightEd@Base 1.6
 (optional=templinst)_ZN3pcl26SACSegmentationFromNormalsINS_12PointXYZRGBLENS_15PointXYZINormalEEC1Ev@Base 1.6
 (optional=templinst)_ZN3pcl26SACSegmentationFromNormalsINS_12PointXYZRGBLENS_15PointXYZINormalEEC2Ev@Base 1.6
 (optional=templinst)_ZN3pcl26SACSegmentationFromNormalsINS_12PointXYZRGBLENS_15PointXYZINormalEED0Ev@Base 1.6
 (optional=templinst)_ZN3pcl26SACSegmentationFromNormalsINS_12PointXYZRGBLENS_15PointXYZINormalEED1Ev@Base 1.6
 (optional=templinst)_ZN3pcl26SACSegmentationFromNormalsINS_12PointXYZRGBLENS_15PointXYZINormalEED2Ev@Base 1.6
 (optional=templinst)_ZN3pcl26SACSegmentationFromNormalsINS_12PointXYZRGBLENS_17PointXYZRGBNormalEE12initSACModelEi@Base 1.6
 (optional=templinst)_ZN3pcl26SACSegmentationFromNormalsINS_12PointXYZRGBLENS_17PointXYZRGBNormalEE15setInputNormalsERKN5boost10shared_ptrIKNS_10PointCloudIS2_EEEE@Base 1.6
 (optional=templinst)_ZN3pcl26SACSegmentationFromNormalsINS_12PointXYZRGBLENS_17PointXYZRGBNormalEE21getMinMaxOpeningAngleERdS4_@Base 1.6
 (optional=templinst)_ZN3pcl26SACSegmentationFromNormalsINS_12PointXYZRGBLENS_17PointXYZRGBNormalEE21setDistanceFromOriginEd@Base 1.6
 (optional=templinst)_ZN3pcl26SACSegmentationFromNormalsINS_12PointXYZRGBLENS_17PointXYZRGBNormalEE21setMinMaxOpeningAngleERKdS5_@Base 1.6
 (optional=templinst)_ZN3pcl26SACSegmentationFromNormalsINS_12PointXYZRGBLENS_17PointXYZRGBNormalEE23setNormalDistanceWeightEd@Base 1.6
 (optional=templinst)_ZN3pcl26SACSegmentationFromNormalsINS_12PointXYZRGBLENS_17PointXYZRGBNormalEEC1Ev@Base 1.6
 (optional=templinst)_ZN3pcl26SACSegmentationFromNormalsINS_12PointXYZRGBLENS_17PointXYZRGBNormalEEC2Ev@Base 1.6
 (optional=templinst)_ZN3pcl26SACSegmentationFromNormalsINS_12PointXYZRGBLENS_17PointXYZRGBNormalEED0Ev@Base 1.6
 (optional=templinst)_ZN3pcl26SACSegmentationFromNormalsINS_12PointXYZRGBLENS_17PointXYZRGBNormalEED1Ev@Base 1.6
 (optional=templinst)_ZN3pcl26SACSegmentationFromNormalsINS_12PointXYZRGBLENS_17PointXYZRGBNormalEED2Ev@Base 1.6
 (optional=templinst)_ZN3pcl26SACSegmentationFromNormalsINS_12PointXYZRGBLENS_6NormalEE12initSACModelEi@Base 1.6
 (optional=templinst)_ZN3pcl26SACSegmentationFromNormalsINS_12PointXYZRGBLENS_6NormalEE15setInputNormalsERKN5boost10shared_ptrIKNS_10PointCloudIS2_EEEE@Base 1.6
 (optional=templinst)_ZN3pcl26SACSegmentationFromNormalsINS_12PointXYZRGBLENS_6NormalEE21getMinMaxOpeningAngleERdS4_@Base 1.6
 (optional=templinst)_ZN3pcl26SACSegmentationFromNormalsINS_12PointXYZRGBLENS_6NormalEE21setDistanceFromOriginEd@Base 1.6
 (optional=templinst)_ZN3pcl26SACSegmentationFromNormalsINS_12PointXYZRGBLENS_6NormalEE21setMinMaxOpeningAngleERKdS5_@Base 1.6
 (optional=templinst)_ZN3pcl26SACSegmentationFromNormalsINS_12PointXYZRGBLENS_6NormalEE23setNormalDistanceWeightEd@Base 1.6
 (optional=templinst)_ZN3pcl26SACSegmentationFromNormalsINS_12PointXYZRGBLENS_6NormalEEC1Ev@Base 1.6
 (optional=templinst)_ZN3pcl26SACSegmentationFromNormalsINS_12PointXYZRGBLENS_6NormalEEC2Ev@Base 1.6
 (optional=templinst)_ZN3pcl26SACSegmentationFromNormalsINS_12PointXYZRGBLENS_6NormalEED0Ev@Base 1.6
 (optional=templinst)_ZN3pcl26SACSegmentationFromNormalsINS_12PointXYZRGBLENS_6NormalEED1Ev@Base 1.6
 (optional=templinst)_ZN3pcl26SACSegmentationFromNormalsINS_12PointXYZRGBLENS_6NormalEED2Ev@Base 1.6
 (optional=templinst)_ZN3pcl26SACSegmentationFromNormalsINS_13InterestPointENS_11PointNormalEE12initSACModelEi@Base 1.6
 (optional=templinst)_ZN3pcl26SACSegmentationFromNormalsINS_13InterestPointENS_11PointNormalEE15setInputNormalsERKN5boost10shared_ptrIKNS_10PointCloudIS2_EEEE@Base 1.6
 (optional=templinst)_ZN3pcl26SACSegmentationFromNormalsINS_13InterestPointENS_11PointNormalEE21getMinMaxOpeningAngleERdS4_@Base 1.6
 (optional=templinst)_ZN3pcl26SACSegmentationFromNormalsINS_13InterestPointENS_11PointNormalEE21setDistanceFromOriginEd@Base 1.6
 (optional=templinst)_ZN3pcl26SACSegmentationFromNormalsINS_13InterestPointENS_11PointNormalEE21setMinMaxOpeningAngleERKdS5_@Base 1.6
 (optional=templinst)_ZN3pcl26SACSegmentationFromNormalsINS_13InterestPointENS_11PointNormalEE23setNormalDistanceWeightEd@Base 1.6
 (optional=templinst)_ZN3pcl26SACSegmentationFromNormalsINS_13InterestPointENS_11PointNormalEEC1Ev@Base 1.6
 (optional=templinst)_ZN3pcl26SACSegmentationFromNormalsINS_13InterestPointENS_11PointNormalEEC2Ev@Base 1.6
 (optional=templinst)_ZN3pcl26SACSegmentationFromNormalsINS_13InterestPointENS_11PointNormalEED0Ev@Base 1.6
 (optional=templinst)_ZN3pcl26SACSegmentationFromNormalsINS_13InterestPointENS_11PointNormalEED1Ev@Base 1.6
 (optional=templinst)_ZN3pcl26SACSegmentationFromNormalsINS_13InterestPointENS_11PointNormalEED2Ev@Base 1.6
 (optional=templinst)_ZN3pcl26SACSegmentationFromNormalsINS_13InterestPointENS_15PointXYZINormalEE12initSACModelEi@Base 1.6
 (optional=templinst)_ZN3pcl26SACSegmentationFromNormalsINS_13InterestPointENS_15PointXYZINormalEE15setInputNormalsERKN5boost10shared_ptrIKNS_10PointCloudIS2_EEEE@Base 1.6
 (optional=templinst)_ZN3pcl26SACSegmentationFromNormalsINS_13InterestPointENS_15PointXYZINormalEE21getMinMaxOpeningAngleERdS4_@Base 1.6
 (optional=templinst)_ZN3pcl26SACSegmentationFromNormalsINS_13InterestPointENS_15PointXYZINormalEE21setDistanceFromOriginEd@Base 1.6
 (optional=templinst)_ZN3pcl26SACSegmentationFromNormalsINS_13InterestPointENS_15PointXYZINormalEE21setMinMaxOpeningAngleERKdS5_@Base 1.6
 (optional=templinst)_ZN3pcl26SACSegmentationFromNormalsINS_13InterestPointENS_15PointXYZINormalEE23setNormalDistanceWeightEd@Base 1.6
 (optional=templinst)_ZN3pcl26SACSegmentationFromNormalsINS_13InterestPointENS_15PointXYZINormalEEC1Ev@Base 1.6
 (optional=templinst)_ZN3pcl26SACSegmentationFromNormalsINS_13InterestPointENS_15PointXYZINormalEEC2Ev@Base 1.6
 (optional=templinst)_ZN3pcl26SACSegmentationFromNormalsINS_13InterestPointENS_15PointXYZINormalEED0Ev@Base 1.6
 (optional=templinst)_ZN3pcl26SACSegmentationFromNormalsINS_13InterestPointENS_15PointXYZINormalEED1Ev@Base 1.6
 (optional=templinst)_ZN3pcl26SACSegmentationFromNormalsINS_13InterestPointENS_15PointXYZINormalEED2Ev@Base 1.6
 (optional=templinst)_ZN3pcl26SACSegmentationFromNormalsINS_13InterestPointENS_17PointXYZRGBNormalEE12initSACModelEi@Base 1.6
 (optional=templinst)_ZN3pcl26SACSegmentationFromNormalsINS_13InterestPointENS_17PointXYZRGBNormalEE15setInputNormalsERKN5boost10shared_ptrIKNS_10PointCloudIS2_EEEE@Base 1.6
 (optional=templinst)_ZN3pcl26SACSegmentationFromNormalsINS_13InterestPointENS_17PointXYZRGBNormalEE21getMinMaxOpeningAngleERdS4_@Base 1.6
 (optional=templinst)_ZN3pcl26SACSegmentationFromNormalsINS_13InterestPointENS_17PointXYZRGBNormalEE21setDistanceFromOriginEd@Base 1.6
 (optional=templinst)_ZN3pcl26SACSegmentationFromNormalsINS_13InterestPointENS_17PointXYZRGBNormalEE21setMinMaxOpeningAngleERKdS5_@Base 1.6
 (optional=templinst)_ZN3pcl26SACSegmentationFromNormalsINS_13InterestPointENS_17PointXYZRGBNormalEE23setNormalDistanceWeightEd@Base 1.6
 (optional=templinst)_ZN3pcl26SACSegmentationFromNormalsINS_13InterestPointENS_17PointXYZRGBNormalEEC1Ev@Base 1.6
 (optional=templinst)_ZN3pcl26SACSegmentationFromNormalsINS_13InterestPointENS_17PointXYZRGBNormalEEC2Ev@Base 1.6
 (optional=templinst)_ZN3pcl26SACSegmentationFromNormalsINS_13InterestPointENS_17PointXYZRGBNormalEED0Ev@Base 1.6
 (optional=templinst)_ZN3pcl26SACSegmentationFromNormalsINS_13InterestPointENS_17PointXYZRGBNormalEED1Ev@Base 1.6
 (optional=templinst)_ZN3pcl26SACSegmentationFromNormalsINS_13InterestPointENS_17PointXYZRGBNormalEED2Ev@Base 1.6
 (optional=templinst)_ZN3pcl26SACSegmentationFromNormalsINS_13InterestPointENS_6NormalEE12initSACModelEi@Base 1.6
 (optional=templinst)_ZN3pcl26SACSegmentationFromNormalsINS_13InterestPointENS_6NormalEE15setInputNormalsERKN5boost10shared_ptrIKNS_10PointCloudIS2_EEEE@Base 1.6
 (optional=templinst)_ZN3pcl26SACSegmentationFromNormalsINS_13InterestPointENS_6NormalEE21getMinMaxOpeningAngleERdS4_@Base 1.6
 (optional=templinst)_ZN3pcl26SACSegmentationFromNormalsINS_13InterestPointENS_6NormalEE21setDistanceFromOriginEd@Base 1.6
 (optional=templinst)_ZN3pcl26SACSegmentationFromNormalsINS_13InterestPointENS_6NormalEE21setMinMaxOpeningAngleERKdS5_@Base 1.6
 (optional=templinst)_ZN3pcl26SACSegmentationFromNormalsINS_13InterestPointENS_6NormalEE23setNormalDistanceWeightEd@Base 1.6
 (optional=templinst)_ZN3pcl26SACSegmentationFromNormalsINS_13InterestPointENS_6NormalEEC1Ev@Base 1.6
 (optional=templinst)_ZN3pcl26SACSegmentationFromNormalsINS_13InterestPointENS_6NormalEEC2Ev@Base 1.6
 (optional=templinst)_ZN3pcl26SACSegmentationFromNormalsINS_13InterestPointENS_6NormalEED0Ev@Base 1.6
 (optional=templinst)_ZN3pcl26SACSegmentationFromNormalsINS_13InterestPointENS_6NormalEED1Ev@Base 1.6
 (optional=templinst)_ZN3pcl26SACSegmentationFromNormalsINS_13InterestPointENS_6NormalEED2Ev@Base 1.6
 (optional=templinst)_ZN3pcl26SACSegmentationFromNormalsINS_14PointWithRangeENS_11PointNormalEE12initSACModelEi@Base 1.6
 (optional=templinst)_ZN3pcl26SACSegmentationFromNormalsINS_14PointWithRangeENS_11PointNormalEE15setInputNormalsERKN5boost10shared_ptrIKNS_10PointCloudIS2_EEEE@Base 1.6
 (optional=templinst)_ZN3pcl26SACSegmentationFromNormalsINS_14PointWithRangeENS_11PointNormalEE21getMinMaxOpeningAngleERdS4_@Base 1.6
 (optional=templinst)_ZN3pcl26SACSegmentationFromNormalsINS_14PointWithRangeENS_11PointNormalEE21setDistanceFromOriginEd@Base 1.6
 (optional=templinst)_ZN3pcl26SACSegmentationFromNormalsINS_14PointWithRangeENS_11PointNormalEE21setMinMaxOpeningAngleERKdS5_@Base 1.6
 (optional=templinst)_ZN3pcl26SACSegmentationFromNormalsINS_14PointWithRangeENS_11PointNormalEE23setNormalDistanceWeightEd@Base 1.6
 (optional=templinst)_ZN3pcl26SACSegmentationFromNormalsINS_14PointWithRangeENS_11PointNormalEEC1Ev@Base 1.6
 (optional=templinst)_ZN3pcl26SACSegmentationFromNormalsINS_14PointWithRangeENS_11PointNormalEEC2Ev@Base 1.6
 (optional=templinst)_ZN3pcl26SACSegmentationFromNormalsINS_14PointWithRangeENS_11PointNormalEED0Ev@Base 1.6
 (optional=templinst)_ZN3pcl26SACSegmentationFromNormalsINS_14PointWithRangeENS_11PointNormalEED1Ev@Base 1.6
 (optional=templinst)_ZN3pcl26SACSegmentationFromNormalsINS_14PointWithRangeENS_11PointNormalEED2Ev@Base 1.6
 (optional=templinst)_ZN3pcl26SACSegmentationFromNormalsINS_14PointWithRangeENS_15PointXYZINormalEE12initSACModelEi@Base 1.6
 (optional=templinst)_ZN3pcl26SACSegmentationFromNormalsINS_14PointWithRangeENS_15PointXYZINormalEE15setInputNormalsERKN5boost10shared_ptrIKNS_10PointCloudIS2_EEEE@Base 1.6
 (optional=templinst)_ZN3pcl26SACSegmentationFromNormalsINS_14PointWithRangeENS_15PointXYZINormalEE21getMinMaxOpeningAngleERdS4_@Base 1.6
 (optional=templinst)_ZN3pcl26SACSegmentationFromNormalsINS_14PointWithRangeENS_15PointXYZINormalEE21setDistanceFromOriginEd@Base 1.6
 (optional=templinst)_ZN3pcl26SACSegmentationFromNormalsINS_14PointWithRangeENS_15PointXYZINormalEE21setMinMaxOpeningAngleERKdS5_@Base 1.6
 (optional=templinst)_ZN3pcl26SACSegmentationFromNormalsINS_14PointWithRangeENS_15PointXYZINormalEE23setNormalDistanceWeightEd@Base 1.6
 (optional=templinst)_ZN3pcl26SACSegmentationFromNormalsINS_14PointWithRangeENS_15PointXYZINormalEEC1Ev@Base 1.6
 (optional=templinst)_ZN3pcl26SACSegmentationFromNormalsINS_14PointWithRangeENS_15PointXYZINormalEEC2Ev@Base 1.6
 (optional=templinst)_ZN3pcl26SACSegmentationFromNormalsINS_14PointWithRangeENS_15PointXYZINormalEED0Ev@Base 1.6
 (optional=templinst)_ZN3pcl26SACSegmentationFromNormalsINS_14PointWithRangeENS_15PointXYZINormalEED1Ev@Base 1.6
 (optional=templinst)_ZN3pcl26SACSegmentationFromNormalsINS_14PointWithRangeENS_15PointXYZINormalEED2Ev@Base 1.6
 (optional=templinst)_ZN3pcl26SACSegmentationFromNormalsINS_14PointWithRangeENS_17PointXYZRGBNormalEE12initSACModelEi@Base 1.6
 (optional=templinst)_ZN3pcl26SACSegmentationFromNormalsINS_14PointWithRangeENS_17PointXYZRGBNormalEE15setInputNormalsERKN5boost10shared_ptrIKNS_10PointCloudIS2_EEEE@Base 1.6
 (optional=templinst)_ZN3pcl26SACSegmentationFromNormalsINS_14PointWithRangeENS_17PointXYZRGBNormalEE21getMinMaxOpeningAngleERdS4_@Base 1.6
 (optional=templinst)_ZN3pcl26SACSegmentationFromNormalsINS_14PointWithRangeENS_17PointXYZRGBNormalEE21setDistanceFromOriginEd@Base 1.6
 (optional=templinst)_ZN3pcl26SACSegmentationFromNormalsINS_14PointWithRangeENS_17PointXYZRGBNormalEE21setMinMaxOpeningAngleERKdS5_@Base 1.6
 (optional=templinst)_ZN3pcl26SACSegmentationFromNormalsINS_14PointWithRangeENS_17PointXYZRGBNormalEE23setNormalDistanceWeightEd@Base 1.6
 (optional=templinst)_ZN3pcl26SACSegmentationFromNormalsINS_14PointWithRangeENS_17PointXYZRGBNormalEEC1Ev@Base 1.6
 (optional=templinst)_ZN3pcl26SACSegmentationFromNormalsINS_14PointWithRangeENS_17PointXYZRGBNormalEEC2Ev@Base 1.6
 (optional=templinst)_ZN3pcl26SACSegmentationFromNormalsINS_14PointWithRangeENS_17PointXYZRGBNormalEED0Ev@Base 1.6
 (optional=templinst)_ZN3pcl26SACSegmentationFromNormalsINS_14PointWithRangeENS_17PointXYZRGBNormalEED1Ev@Base 1.6
 (optional=templinst)_ZN3pcl26SACSegmentationFromNormalsINS_14PointWithRangeENS_17PointXYZRGBNormalEED2Ev@Base 1.6
 (optional=templinst)_ZN3pcl26SACSegmentationFromNormalsINS_14PointWithRangeENS_6NormalEE12initSACModelEi@Base 1.6
 (optional=templinst)_ZN3pcl26SACSegmentationFromNormalsINS_14PointWithRangeENS_6NormalEE15setInputNormalsERKN5boost10shared_ptrIKNS_10PointCloudIS2_EEEE@Base 1.6
 (optional=templinst)_ZN3pcl26SACSegmentationFromNormalsINS_14PointWithRangeENS_6NormalEE21getMinMaxOpeningAngleERdS4_@Base 1.6
 (optional=templinst)_ZN3pcl26SACSegmentationFromNormalsINS_14PointWithRangeENS_6NormalEE21setDistanceFromOriginEd@Base 1.6
 (optional=templinst)_ZN3pcl26SACSegmentationFromNormalsINS_14PointWithRangeENS_6NormalEE21setMinMaxOpeningAngleERKdS5_@Base 1.6
 (optional=templinst)_ZN3pcl26SACSegmentationFromNormalsINS_14PointWithRangeENS_6NormalEE23setNormalDistanceWeightEd@Base 1.6
 (optional=templinst)_ZN3pcl26SACSegmentationFromNormalsINS_14PointWithRangeENS_6NormalEEC1Ev@Base 1.6
 (optional=templinst)_ZN3pcl26SACSegmentationFromNormalsINS_14PointWithRangeENS_6NormalEEC2Ev@Base 1.6
 (optional=templinst)_ZN3pcl26SACSegmentationFromNormalsINS_14PointWithRangeENS_6NormalEED0Ev@Base 1.6
 (optional=templinst)_ZN3pcl26SACSegmentationFromNormalsINS_14PointWithRangeENS_6NormalEED1Ev@Base 1.6
 (optional=templinst)_ZN3pcl26SACSegmentationFromNormalsINS_14PointWithRangeENS_6NormalEED2Ev@Base 1.6
 (optional=templinst)_ZN3pcl26SACSegmentationFromNormalsINS_14PointWithScaleENS_11PointNormalEE12initSACModelEi@Base 1.6
 (optional=templinst)_ZN3pcl26SACSegmentationFromNormalsINS_14PointWithScaleENS_11PointNormalEE15setInputNormalsERKN5boost10shared_ptrIKNS_10PointCloudIS2_EEEE@Base 1.6
 (optional=templinst)_ZN3pcl26SACSegmentationFromNormalsINS_14PointWithScaleENS_11PointNormalEE21getMinMaxOpeningAngleERdS4_@Base 1.6
 (optional=templinst)_ZN3pcl26SACSegmentationFromNormalsINS_14PointWithScaleENS_11PointNormalEE21setDistanceFromOriginEd@Base 1.6
 (optional=templinst)_ZN3pcl26SACSegmentationFromNormalsINS_14PointWithScaleENS_11PointNormalEE21setMinMaxOpeningAngleERKdS5_@Base 1.6
 (optional=templinst)_ZN3pcl26SACSegmentationFromNormalsINS_14PointWithScaleENS_11PointNormalEE23setNormalDistanceWeightEd@Base 1.6
 (optional=templinst)_ZN3pcl26SACSegmentationFromNormalsINS_14PointWithScaleENS_11PointNormalEEC1Ev@Base 1.6
 (optional=templinst)_ZN3pcl26SACSegmentationFromNormalsINS_14PointWithScaleENS_11PointNormalEEC2Ev@Base 1.6
 (optional=templinst)_ZN3pcl26SACSegmentationFromNormalsINS_14PointWithScaleENS_11PointNormalEED0Ev@Base 1.6
 (optional=templinst)_ZN3pcl26SACSegmentationFromNormalsINS_14PointWithScaleENS_11PointNormalEED1Ev@Base 1.6
 (optional=templinst)_ZN3pcl26SACSegmentationFromNormalsINS_14PointWithScaleENS_11PointNormalEED2Ev@Base 1.6
 (optional=templinst)_ZN3pcl26SACSegmentationFromNormalsINS_14PointWithScaleENS_15PointXYZINormalEE12initSACModelEi@Base 1.6
 (optional=templinst)_ZN3pcl26SACSegmentationFromNormalsINS_14PointWithScaleENS_15PointXYZINormalEE15setInputNormalsERKN5boost10shared_ptrIKNS_10PointCloudIS2_EEEE@Base 1.6
 (optional=templinst)_ZN3pcl26SACSegmentationFromNormalsINS_14PointWithScaleENS_15PointXYZINormalEE21getMinMaxOpeningAngleERdS4_@Base 1.6
 (optional=templinst)_ZN3pcl26SACSegmentationFromNormalsINS_14PointWithScaleENS_15PointXYZINormalEE21setDistanceFromOriginEd@Base 1.6
 (optional=templinst)_ZN3pcl26SACSegmentationFromNormalsINS_14PointWithScaleENS_15PointXYZINormalEE21setMinMaxOpeningAngleERKdS5_@Base 1.6
 (optional=templinst)_ZN3pcl26SACSegmentationFromNormalsINS_14PointWithScaleENS_15PointXYZINormalEE23setNormalDistanceWeightEd@Base 1.6
 (optional=templinst)_ZN3pcl26SACSegmentationFromNormalsINS_14PointWithScaleENS_15PointXYZINormalEEC1Ev@Base 1.6
 (optional=templinst)_ZN3pcl26SACSegmentationFromNormalsINS_14PointWithScaleENS_15PointXYZINormalEEC2Ev@Base 1.6
 (optional=templinst)_ZN3pcl26SACSegmentationFromNormalsINS_14PointWithScaleENS_15PointXYZINormalEED0Ev@Base 1.6
 (optional=templinst)_ZN3pcl26SACSegmentationFromNormalsINS_14PointWithScaleENS_15PointXYZINormalEED1Ev@Base 1.6
 (optional=templinst)_ZN3pcl26SACSegmentationFromNormalsINS_14PointWithScaleENS_15PointXYZINormalEED2Ev@Base 1.6
 (optional=templinst)_ZN3pcl26SACSegmentationFromNormalsINS_14PointWithScaleENS_17PointXYZRGBNormalEE12initSACModelEi@Base 1.6
 (optional=templinst)_ZN3pcl26SACSegmentationFromNormalsINS_14PointWithScaleENS_17PointXYZRGBNormalEE15setInputNormalsERKN5boost10shared_ptrIKNS_10PointCloudIS2_EEEE@Base 1.6
 (optional=templinst)_ZN3pcl26SACSegmentationFromNormalsINS_14PointWithScaleENS_17PointXYZRGBNormalEE21getMinMaxOpeningAngleERdS4_@Base 1.6
 (optional=templinst)_ZN3pcl26SACSegmentationFromNormalsINS_14PointWithScaleENS_17PointXYZRGBNormalEE21setDistanceFromOriginEd@Base 1.6
 (optional=templinst)_ZN3pcl26SACSegmentationFromNormalsINS_14PointWithScaleENS_17PointXYZRGBNormalEE21setMinMaxOpeningAngleERKdS5_@Base 1.6
 (optional=templinst)_ZN3pcl26SACSegmentationFromNormalsINS_14PointWithScaleENS_17PointXYZRGBNormalEE23setNormalDistanceWeightEd@Base 1.6
 (optional=templinst)_ZN3pcl26SACSegmentationFromNormalsINS_14PointWithScaleENS_17PointXYZRGBNormalEEC1Ev@Base 1.6
 (optional=templinst)_ZN3pcl26SACSegmentationFromNormalsINS_14PointWithScaleENS_17PointXYZRGBNormalEEC2Ev@Base 1.6
 (optional=templinst)_ZN3pcl26SACSegmentationFromNormalsINS_14PointWithScaleENS_17PointXYZRGBNormalEED0Ev@Base 1.6
 (optional=templinst)_ZN3pcl26SACSegmentationFromNormalsINS_14PointWithScaleENS_17PointXYZRGBNormalEED1Ev@Base 1.6
 (optional=templinst)_ZN3pcl26SACSegmentationFromNormalsINS_14PointWithScaleENS_17PointXYZRGBNormalEED2Ev@Base 1.6
 (optional=templinst)_ZN3pcl26SACSegmentationFromNormalsINS_14PointWithScaleENS_6NormalEE12initSACModelEi@Base 1.6
 (optional=templinst)_ZN3pcl26SACSegmentationFromNormalsINS_14PointWithScaleENS_6NormalEE15setInputNormalsERKN5boost10shared_ptrIKNS_10PointCloudIS2_EEEE@Base 1.6
 (optional=templinst)_ZN3pcl26SACSegmentationFromNormalsINS_14PointWithScaleENS_6NormalEE21getMinMaxOpeningAngleERdS4_@Base 1.6
 (optional=templinst)_ZN3pcl26SACSegmentationFromNormalsINS_14PointWithScaleENS_6NormalEE21setDistanceFromOriginEd@Base 1.6
 (optional=templinst)_ZN3pcl26SACSegmentationFromNormalsINS_14PointWithScaleENS_6NormalEE21setMinMaxOpeningAngleERKdS5_@Base 1.6
 (optional=templinst)_ZN3pcl26SACSegmentationFromNormalsINS_14PointWithScaleENS_6NormalEE23setNormalDistanceWeightEd@Base 1.6
 (optional=templinst)_ZN3pcl26SACSegmentationFromNormalsINS_14PointWithScaleENS_6NormalEEC1Ev@Base 1.6
 (optional=templinst)_ZN3pcl26SACSegmentationFromNormalsINS_14PointWithScaleENS_6NormalEEC2Ev@Base 1.6
 (optional=templinst)_ZN3pcl26SACSegmentationFromNormalsINS_14PointWithScaleENS_6NormalEED0Ev@Base 1.6
 (optional=templinst)_ZN3pcl26SACSegmentationFromNormalsINS_14PointWithScaleENS_6NormalEED1Ev@Base 1.6
 (optional=templinst)_ZN3pcl26SACSegmentationFromNormalsINS_14PointWithScaleENS_6NormalEED2Ev@Base 1.6
 (optional=templinst)_ZN3pcl26SACSegmentationFromNormalsINS_15PointXYZINormalENS_11PointNormalEE12initSACModelEi@Base 1.6
 (optional=templinst)_ZN3pcl26SACSegmentationFromNormalsINS_15PointXYZINormalENS_11PointNormalEE15setInputNormalsERKN5boost10shared_ptrIKNS_10PointCloudIS2_EEEE@Base 1.6
 (optional=templinst)_ZN3pcl26SACSegmentationFromNormalsINS_15PointXYZINormalENS_11PointNormalEE21getMinMaxOpeningAngleERdS4_@Base 1.6
 (optional=templinst)_ZN3pcl26SACSegmentationFromNormalsINS_15PointXYZINormalENS_11PointNormalEE21setDistanceFromOriginEd@Base 1.6
 (optional=templinst)_ZN3pcl26SACSegmentationFromNormalsINS_15PointXYZINormalENS_11PointNormalEE21setMinMaxOpeningAngleERKdS5_@Base 1.6
 (optional=templinst)_ZN3pcl26SACSegmentationFromNormalsINS_15PointXYZINormalENS_11PointNormalEE23setNormalDistanceWeightEd@Base 1.6
 (optional=templinst)_ZN3pcl26SACSegmentationFromNormalsINS_15PointXYZINormalENS_11PointNormalEEC1Ev@Base 1.6
 (optional=templinst)_ZN3pcl26SACSegmentationFromNormalsINS_15PointXYZINormalENS_11PointNormalEEC2Ev@Base 1.6
 (optional=templinst)_ZN3pcl26SACSegmentationFromNormalsINS_15PointXYZINormalENS_11PointNormalEED0Ev@Base 1.6
 (optional=templinst)_ZN3pcl26SACSegmentationFromNormalsINS_15PointXYZINormalENS_11PointNormalEED1Ev@Base 1.6
 (optional=templinst)_ZN3pcl26SACSegmentationFromNormalsINS_15PointXYZINormalENS_11PointNormalEED2Ev@Base 1.6
 (optional=templinst)_ZN3pcl26SACSegmentationFromNormalsINS_15PointXYZINormalENS_17PointXYZRGBNormalEE12initSACModelEi@Base 1.6
 (optional=templinst)_ZN3pcl26SACSegmentationFromNormalsINS_15PointXYZINormalENS_17PointXYZRGBNormalEE15setInputNormalsERKN5boost10shared_ptrIKNS_10PointCloudIS2_EEEE@Base 1.6
 (optional=templinst)_ZN3pcl26SACSegmentationFromNormalsINS_15PointXYZINormalENS_17PointXYZRGBNormalEE21getMinMaxOpeningAngleERdS4_@Base 1.6
 (optional=templinst)_ZN3pcl26SACSegmentationFromNormalsINS_15PointXYZINormalENS_17PointXYZRGBNormalEE21setDistanceFromOriginEd@Base 1.6
 (optional=templinst)_ZN3pcl26SACSegmentationFromNormalsINS_15PointXYZINormalENS_17PointXYZRGBNormalEE21setMinMaxOpeningAngleERKdS5_@Base 1.6
 (optional=templinst)_ZN3pcl26SACSegmentationFromNormalsINS_15PointXYZINormalENS_17PointXYZRGBNormalEE23setNormalDistanceWeightEd@Base 1.6
 (optional=templinst)_ZN3pcl26SACSegmentationFromNormalsINS_15PointXYZINormalENS_17PointXYZRGBNormalEEC1Ev@Base 1.6
 (optional=templinst)_ZN3pcl26SACSegmentationFromNormalsINS_15PointXYZINormalENS_17PointXYZRGBNormalEEC2Ev@Base 1.6
 (optional=templinst)_ZN3pcl26SACSegmentationFromNormalsINS_15PointXYZINormalENS_17PointXYZRGBNormalEED0Ev@Base 1.6
 (optional=templinst)_ZN3pcl26SACSegmentationFromNormalsINS_15PointXYZINormalENS_17PointXYZRGBNormalEED1Ev@Base 1.6
 (optional=templinst)_ZN3pcl26SACSegmentationFromNormalsINS_15PointXYZINormalENS_17PointXYZRGBNormalEED2Ev@Base 1.6
 (optional=templinst)_ZN3pcl26SACSegmentationFromNormalsINS_15PointXYZINormalENS_6NormalEE12initSACModelEi@Base 1.6
 (optional=templinst)_ZN3pcl26SACSegmentationFromNormalsINS_15PointXYZINormalENS_6NormalEE15setInputNormalsERKN5boost10shared_ptrIKNS_10PointCloudIS2_EEEE@Base 1.6
 (optional=templinst)_ZN3pcl26SACSegmentationFromNormalsINS_15PointXYZINormalENS_6NormalEE21getMinMaxOpeningAngleERdS4_@Base 1.6
 (optional=templinst)_ZN3pcl26SACSegmentationFromNormalsINS_15PointXYZINormalENS_6NormalEE21setDistanceFromOriginEd@Base 1.6
 (optional=templinst)_ZN3pcl26SACSegmentationFromNormalsINS_15PointXYZINormalENS_6NormalEE21setMinMaxOpeningAngleERKdS5_@Base 1.6
 (optional=templinst)_ZN3pcl26SACSegmentationFromNormalsINS_15PointXYZINormalENS_6NormalEE23setNormalDistanceWeightEd@Base 1.6
 (optional=templinst)_ZN3pcl26SACSegmentationFromNormalsINS_15PointXYZINormalENS_6NormalEEC1Ev@Base 1.6
 (optional=templinst)_ZN3pcl26SACSegmentationFromNormalsINS_15PointXYZINormalENS_6NormalEEC2Ev@Base 1.6
 (optional=templinst)_ZN3pcl26SACSegmentationFromNormalsINS_15PointXYZINormalENS_6NormalEED0Ev@Base 1.6
 (optional=templinst)_ZN3pcl26SACSegmentationFromNormalsINS_15PointXYZINormalENS_6NormalEED1Ev@Base 1.6
 (optional=templinst)_ZN3pcl26SACSegmentationFromNormalsINS_15PointXYZINormalENS_6NormalEED2Ev@Base 1.6
 (optional=templinst)_ZN3pcl26SACSegmentationFromNormalsINS_15PointXYZINormalES1_E12initSACModelEi@Base 1.6
 (optional=templinst)_ZN3pcl26SACSegmentationFromNormalsINS_15PointXYZINormalES1_E15setInputNormalsERKN5boost10shared_ptrIKNS_10PointCloudIS1_EEEE@Base 1.6
 (optional=templinst)_ZN3pcl26SACSegmentationFromNormalsINS_15PointXYZINormalES1_E21getMinMaxOpeningAngleERdS3_@Base 1.6
 (optional=templinst)_ZN3pcl26SACSegmentationFromNormalsINS_15PointXYZINormalES1_E21setDistanceFromOriginEd@Base 1.6
 (optional=templinst)_ZN3pcl26SACSegmentationFromNormalsINS_15PointXYZINormalES1_E21setMinMaxOpeningAngleERKdS4_@Base 1.6
 (optional=templinst)_ZN3pcl26SACSegmentationFromNormalsINS_15PointXYZINormalES1_E23setNormalDistanceWeightEd@Base 1.6
 (optional=templinst)_ZN3pcl26SACSegmentationFromNormalsINS_15PointXYZINormalES1_EC1Ev@Base 1.6
 (optional=templinst)_ZN3pcl26SACSegmentationFromNormalsINS_15PointXYZINormalES1_EC2Ev@Base 1.6
 (optional=templinst)_ZN3pcl26SACSegmentationFromNormalsINS_15PointXYZINormalES1_ED0Ev@Base 1.6
 (optional=templinst)_ZN3pcl26SACSegmentationFromNormalsINS_15PointXYZINormalES1_ED1Ev@Base 1.6
 (optional=templinst)_ZN3pcl26SACSegmentationFromNormalsINS_15PointXYZINormalES1_ED2Ev@Base 1.6
 (optional=templinst)_ZN3pcl26SACSegmentationFromNormalsINS_17PointXYZRGBNormalENS_11PointNormalEE12initSACModelEi@Base 1.6
 (optional=templinst)_ZN3pcl26SACSegmentationFromNormalsINS_17PointXYZRGBNormalENS_11PointNormalEE15setInputNormalsERKN5boost10shared_ptrIKNS_10PointCloudIS2_EEEE@Base 1.6
 (optional=templinst)_ZN3pcl26SACSegmentationFromNormalsINS_17PointXYZRGBNormalENS_11PointNormalEE21getMinMaxOpeningAngleERdS4_@Base 1.6
 (optional=templinst)_ZN3pcl26SACSegmentationFromNormalsINS_17PointXYZRGBNormalENS_11PointNormalEE21setDistanceFromOriginEd@Base 1.6
 (optional=templinst)_ZN3pcl26SACSegmentationFromNormalsINS_17PointXYZRGBNormalENS_11PointNormalEE21setMinMaxOpeningAngleERKdS5_@Base 1.6
 (optional=templinst)_ZN3pcl26SACSegmentationFromNormalsINS_17PointXYZRGBNormalENS_11PointNormalEE23setNormalDistanceWeightEd@Base 1.6
 (optional=templinst)_ZN3pcl26SACSegmentationFromNormalsINS_17PointXYZRGBNormalENS_11PointNormalEEC1Ev@Base 1.6
 (optional=templinst)_ZN3pcl26SACSegmentationFromNormalsINS_17PointXYZRGBNormalENS_11PointNormalEEC2Ev@Base 1.6
 (optional=templinst)_ZN3pcl26SACSegmentationFromNormalsINS_17PointXYZRGBNormalENS_11PointNormalEED0Ev@Base 1.6
 (optional=templinst)_ZN3pcl26SACSegmentationFromNormalsINS_17PointXYZRGBNormalENS_11PointNormalEED1Ev@Base 1.6
 (optional=templinst)_ZN3pcl26SACSegmentationFromNormalsINS_17PointXYZRGBNormalENS_11PointNormalEED2Ev@Base 1.6
 (optional=templinst)_ZN3pcl26SACSegmentationFromNormalsINS_17PointXYZRGBNormalENS_15PointXYZINormalEE12initSACModelEi@Base 1.6
 (optional=templinst)_ZN3pcl26SACSegmentationFromNormalsINS_17PointXYZRGBNormalENS_15PointXYZINormalEE15setInputNormalsERKN5boost10shared_ptrIKNS_10PointCloudIS2_EEEE@Base 1.6
 (optional=templinst)_ZN3pcl26SACSegmentationFromNormalsINS_17PointXYZRGBNormalENS_15PointXYZINormalEE21getMinMaxOpeningAngleERdS4_@Base 1.6
 (optional=templinst)_ZN3pcl26SACSegmentationFromNormalsINS_17PointXYZRGBNormalENS_15PointXYZINormalEE21setDistanceFromOriginEd@Base 1.6
 (optional=templinst)_ZN3pcl26SACSegmentationFromNormalsINS_17PointXYZRGBNormalENS_15PointXYZINormalEE21setMinMaxOpeningAngleERKdS5_@Base 1.6
 (optional=templinst)_ZN3pcl26SACSegmentationFromNormalsINS_17PointXYZRGBNormalENS_15PointXYZINormalEE23setNormalDistanceWeightEd@Base 1.6
 (optional=templinst)_ZN3pcl26SACSegmentationFromNormalsINS_17PointXYZRGBNormalENS_15PointXYZINormalEEC1Ev@Base 1.6
 (optional=templinst)_ZN3pcl26SACSegmentationFromNormalsINS_17PointXYZRGBNormalENS_15PointXYZINormalEEC2Ev@Base 1.6
 (optional=templinst)_ZN3pcl26SACSegmentationFromNormalsINS_17PointXYZRGBNormalENS_15PointXYZINormalEED0Ev@Base 1.6
 (optional=templinst)_ZN3pcl26SACSegmentationFromNormalsINS_17PointXYZRGBNormalENS_15PointXYZINormalEED1Ev@Base 1.6
 (optional=templinst)_ZN3pcl26SACSegmentationFromNormalsINS_17PointXYZRGBNormalENS_15PointXYZINormalEED2Ev@Base 1.6
 (optional=templinst)_ZN3pcl26SACSegmentationFromNormalsINS_17PointXYZRGBNormalENS_6NormalEE12initSACModelEi@Base 1.6
 (optional=templinst)_ZN3pcl26SACSegmentationFromNormalsINS_17PointXYZRGBNormalENS_6NormalEE15setInputNormalsERKN5boost10shared_ptrIKNS_10PointCloudIS2_EEEE@Base 1.6
 (optional=templinst)_ZN3pcl26SACSegmentationFromNormalsINS_17PointXYZRGBNormalENS_6NormalEE21getMinMaxOpeningAngleERdS4_@Base 1.6
 (optional=templinst)_ZN3pcl26SACSegmentationFromNormalsINS_17PointXYZRGBNormalENS_6NormalEE21setDistanceFromOriginEd@Base 1.6
 (optional=templinst)_ZN3pcl26SACSegmentationFromNormalsINS_17PointXYZRGBNormalENS_6NormalEE21setMinMaxOpeningAngleERKdS5_@Base 1.6
 (optional=templinst)_ZN3pcl26SACSegmentationFromNormalsINS_17PointXYZRGBNormalENS_6NormalEE23setNormalDistanceWeightEd@Base 1.6
 (optional=templinst)_ZN3pcl26SACSegmentationFromNormalsINS_17PointXYZRGBNormalENS_6NormalEEC1Ev@Base 1.6
 (optional=templinst)_ZN3pcl26SACSegmentationFromNormalsINS_17PointXYZRGBNormalENS_6NormalEEC2Ev@Base 1.6
 (optional=templinst)_ZN3pcl26SACSegmentationFromNormalsINS_17PointXYZRGBNormalENS_6NormalEED0Ev@Base 1.6
 (optional=templinst)_ZN3pcl26SACSegmentationFromNormalsINS_17PointXYZRGBNormalENS_6NormalEED1Ev@Base 1.6
 (optional=templinst)_ZN3pcl26SACSegmentationFromNormalsINS_17PointXYZRGBNormalENS_6NormalEED2Ev@Base 1.6
 (optional=templinst)_ZN3pcl26SACSegmentationFromNormalsINS_17PointXYZRGBNormalES1_E12initSACModelEi@Base 1.6
 (optional=templinst)_ZN3pcl26SACSegmentationFromNormalsINS_17PointXYZRGBNormalES1_E15setInputNormalsERKN5boost10shared_ptrIKNS_10PointCloudIS1_EEEE@Base 1.6
 (optional=templinst)_ZN3pcl26SACSegmentationFromNormalsINS_17PointXYZRGBNormalES1_E21getMinMaxOpeningAngleERdS3_@Base 1.6
 (optional=templinst)_ZN3pcl26SACSegmentationFromNormalsINS_17PointXYZRGBNormalES1_E21setDistanceFromOriginEd@Base 1.6
 (optional=templinst)_ZN3pcl26SACSegmentationFromNormalsINS_17PointXYZRGBNormalES1_E21setMinMaxOpeningAngleERKdS4_@Base 1.6
 (optional=templinst)_ZN3pcl26SACSegmentationFromNormalsINS_17PointXYZRGBNormalES1_E23setNormalDistanceWeightEd@Base 1.6
 (optional=templinst)_ZN3pcl26SACSegmentationFromNormalsINS_17PointXYZRGBNormalES1_EC1Ev@Base 1.6
 (optional=templinst)_ZN3pcl26SACSegmentationFromNormalsINS_17PointXYZRGBNormalES1_EC2Ev@Base 1.6
 (optional=templinst)_ZN3pcl26SACSegmentationFromNormalsINS_17PointXYZRGBNormalES1_ED0Ev@Base 1.6
 (optional=templinst)_ZN3pcl26SACSegmentationFromNormalsINS_17PointXYZRGBNormalES1_ED1Ev@Base 1.6
 (optional=templinst)_ZN3pcl26SACSegmentationFromNormalsINS_17PointXYZRGBNormalES1_ED2Ev@Base 1.6
 (optional=templinst)_ZN3pcl26SACSegmentationFromNormalsINS_18PointWithViewpointENS_11PointNormalEE12initSACModelEi@Base 1.6
 (optional=templinst)_ZN3pcl26SACSegmentationFromNormalsINS_18PointWithViewpointENS_11PointNormalEE15setInputNormalsERKN5boost10shared_ptrIKNS_10PointCloudIS2_EEEE@Base 1.6
 (optional=templinst)_ZN3pcl26SACSegmentationFromNormalsINS_18PointWithViewpointENS_11PointNormalEE21getMinMaxOpeningAngleERdS4_@Base 1.6
 (optional=templinst)_ZN3pcl26SACSegmentationFromNormalsINS_18PointWithViewpointENS_11PointNormalEE21setDistanceFromOriginEd@Base 1.6
 (optional=templinst)_ZN3pcl26SACSegmentationFromNormalsINS_18PointWithViewpointENS_11PointNormalEE21setMinMaxOpeningAngleERKdS5_@Base 1.6
 (optional=templinst)_ZN3pcl26SACSegmentationFromNormalsINS_18PointWithViewpointENS_11PointNormalEE23setNormalDistanceWeightEd@Base 1.6
 (optional=templinst)_ZN3pcl26SACSegmentationFromNormalsINS_18PointWithViewpointENS_11PointNormalEEC1Ev@Base 1.6
 (optional=templinst)_ZN3pcl26SACSegmentationFromNormalsINS_18PointWithViewpointENS_11PointNormalEEC2Ev@Base 1.6
 (optional=templinst)_ZN3pcl26SACSegmentationFromNormalsINS_18PointWithViewpointENS_11PointNormalEED0Ev@Base 1.6
 (optional=templinst)_ZN3pcl26SACSegmentationFromNormalsINS_18PointWithViewpointENS_11PointNormalEED1Ev@Base 1.6
 (optional=templinst)_ZN3pcl26SACSegmentationFromNormalsINS_18PointWithViewpointENS_11PointNormalEED2Ev@Base 1.6
 (optional=templinst)_ZN3pcl26SACSegmentationFromNormalsINS_18PointWithViewpointENS_15PointXYZINormalEE12initSACModelEi@Base 1.6
 (optional=templinst)_ZN3pcl26SACSegmentationFromNormalsINS_18PointWithViewpointENS_15PointXYZINormalEE15setInputNormalsERKN5boost10shared_ptrIKNS_10PointCloudIS2_EEEE@Base 1.6
 (optional=templinst)_ZN3pcl26SACSegmentationFromNormalsINS_18PointWithViewpointENS_15PointXYZINormalEE21getMinMaxOpeningAngleERdS4_@Base 1.6
 (optional=templinst)_ZN3pcl26SACSegmentationFromNormalsINS_18PointWithViewpointENS_15PointXYZINormalEE21setDistanceFromOriginEd@Base 1.6
 (optional=templinst)_ZN3pcl26SACSegmentationFromNormalsINS_18PointWithViewpointENS_15PointXYZINormalEE21setMinMaxOpeningAngleERKdS5_@Base 1.6
 (optional=templinst)_ZN3pcl26SACSegmentationFromNormalsINS_18PointWithViewpointENS_15PointXYZINormalEE23setNormalDistanceWeightEd@Base 1.6
 (optional=templinst)_ZN3pcl26SACSegmentationFromNormalsINS_18PointWithViewpointENS_15PointXYZINormalEEC1Ev@Base 1.6
 (optional=templinst)_ZN3pcl26SACSegmentationFromNormalsINS_18PointWithViewpointENS_15PointXYZINormalEEC2Ev@Base 1.6
 (optional=templinst)_ZN3pcl26SACSegmentationFromNormalsINS_18PointWithViewpointENS_15PointXYZINormalEED0Ev@Base 1.6
 (optional=templinst)_ZN3pcl26SACSegmentationFromNormalsINS_18PointWithViewpointENS_15PointXYZINormalEED1Ev@Base 1.6
 (optional=templinst)_ZN3pcl26SACSegmentationFromNormalsINS_18PointWithViewpointENS_15PointXYZINormalEED2Ev@Base 1.6
 (optional=templinst)_ZN3pcl26SACSegmentationFromNormalsINS_18PointWithViewpointENS_17PointXYZRGBNormalEE12initSACModelEi@Base 1.6
 (optional=templinst)_ZN3pcl26SACSegmentationFromNormalsINS_18PointWithViewpointENS_17PointXYZRGBNormalEE15setInputNormalsERKN5boost10shared_ptrIKNS_10PointCloudIS2_EEEE@Base 1.6
 (optional=templinst)_ZN3pcl26SACSegmentationFromNormalsINS_18PointWithViewpointENS_17PointXYZRGBNormalEE21getMinMaxOpeningAngleERdS4_@Base 1.6
 (optional=templinst)_ZN3pcl26SACSegmentationFromNormalsINS_18PointWithViewpointENS_17PointXYZRGBNormalEE21setDistanceFromOriginEd@Base 1.6
 (optional=templinst)_ZN3pcl26SACSegmentationFromNormalsINS_18PointWithViewpointENS_17PointXYZRGBNormalEE21setMinMaxOpeningAngleERKdS5_@Base 1.6
 (optional=templinst)_ZN3pcl26SACSegmentationFromNormalsINS_18PointWithViewpointENS_17PointXYZRGBNormalEE23setNormalDistanceWeightEd@Base 1.6
 (optional=templinst)_ZN3pcl26SACSegmentationFromNormalsINS_18PointWithViewpointENS_17PointXYZRGBNormalEEC1Ev@Base 1.6
 (optional=templinst)_ZN3pcl26SACSegmentationFromNormalsINS_18PointWithViewpointENS_17PointXYZRGBNormalEEC2Ev@Base 1.6
 (optional=templinst)_ZN3pcl26SACSegmentationFromNormalsINS_18PointWithViewpointENS_17PointXYZRGBNormalEED0Ev@Base 1.6
 (optional=templinst)_ZN3pcl26SACSegmentationFromNormalsINS_18PointWithViewpointENS_17PointXYZRGBNormalEED1Ev@Base 1.6
 (optional=templinst)_ZN3pcl26SACSegmentationFromNormalsINS_18PointWithViewpointENS_17PointXYZRGBNormalEED2Ev@Base 1.6
 (optional=templinst)_ZN3pcl26SACSegmentationFromNormalsINS_18PointWithViewpointENS_6NormalEE12initSACModelEi@Base 1.6
 (optional=templinst)_ZN3pcl26SACSegmentationFromNormalsINS_18PointWithViewpointENS_6NormalEE15setInputNormalsERKN5boost10shared_ptrIKNS_10PointCloudIS2_EEEE@Base 1.6
 (optional=templinst)_ZN3pcl26SACSegmentationFromNormalsINS_18PointWithViewpointENS_6NormalEE21getMinMaxOpeningAngleERdS4_@Base 1.6
 (optional=templinst)_ZN3pcl26SACSegmentationFromNormalsINS_18PointWithViewpointENS_6NormalEE21setDistanceFromOriginEd@Base 1.6
 (optional=templinst)_ZN3pcl26SACSegmentationFromNormalsINS_18PointWithViewpointENS_6NormalEE21setMinMaxOpeningAngleERKdS5_@Base 1.6
 (optional=templinst)_ZN3pcl26SACSegmentationFromNormalsINS_18PointWithViewpointENS_6NormalEE23setNormalDistanceWeightEd@Base 1.6
 (optional=templinst)_ZN3pcl26SACSegmentationFromNormalsINS_18PointWithViewpointENS_6NormalEEC1Ev@Base 1.6
 (optional=templinst)_ZN3pcl26SACSegmentationFromNormalsINS_18PointWithViewpointENS_6NormalEEC2Ev@Base 1.6
 (optional=templinst)_ZN3pcl26SACSegmentationFromNormalsINS_18PointWithViewpointENS_6NormalEED0Ev@Base 1.6
 (optional=templinst)_ZN3pcl26SACSegmentationFromNormalsINS_18PointWithViewpointENS_6NormalEED1Ev@Base 1.6
 (optional=templinst)_ZN3pcl26SACSegmentationFromNormalsINS_18PointWithViewpointENS_6NormalEED2Ev@Base 1.6
 (optional=templinst)_ZN3pcl26SACSegmentationFromNormalsINS_8PointXYZENS_11PointNormalEE12initSACModelEi@Base 1.6
 (optional=templinst)_ZN3pcl26SACSegmentationFromNormalsINS_8PointXYZENS_11PointNormalEE15setInputNormalsERKN5boost10shared_ptrIKNS_10PointCloudIS2_EEEE@Base 1.6
 (optional=templinst)_ZN3pcl26SACSegmentationFromNormalsINS_8PointXYZENS_11PointNormalEE21getMinMaxOpeningAngleERdS4_@Base 1.6
 (optional=templinst)_ZN3pcl26SACSegmentationFromNormalsINS_8PointXYZENS_11PointNormalEE21setDistanceFromOriginEd@Base 1.6
 (optional=templinst)_ZN3pcl26SACSegmentationFromNormalsINS_8PointXYZENS_11PointNormalEE21setMinMaxOpeningAngleERKdS5_@Base 1.6
 (optional=templinst)_ZN3pcl26SACSegmentationFromNormalsINS_8PointXYZENS_11PointNormalEE23setNormalDistanceWeightEd@Base 1.6
 (optional=templinst)_ZN3pcl26SACSegmentationFromNormalsINS_8PointXYZENS_11PointNormalEEC1Ev@Base 1.6
 (optional=templinst)_ZN3pcl26SACSegmentationFromNormalsINS_8PointXYZENS_11PointNormalEEC2Ev@Base 1.6
 (optional=templinst)_ZN3pcl26SACSegmentationFromNormalsINS_8PointXYZENS_11PointNormalEED0Ev@Base 1.6
 (optional=templinst)_ZN3pcl26SACSegmentationFromNormalsINS_8PointXYZENS_11PointNormalEED1Ev@Base 1.6
 (optional=templinst)_ZN3pcl26SACSegmentationFromNormalsINS_8PointXYZENS_11PointNormalEED2Ev@Base 1.6
 (optional=templinst)_ZN3pcl26SACSegmentationFromNormalsINS_8PointXYZENS_15PointXYZINormalEE12initSACModelEi@Base 1.6
 (optional=templinst)_ZN3pcl26SACSegmentationFromNormalsINS_8PointXYZENS_15PointXYZINormalEE15setInputNormalsERKN5boost10shared_ptrIKNS_10PointCloudIS2_EEEE@Base 1.6
 (optional=templinst)_ZN3pcl26SACSegmentationFromNormalsINS_8PointXYZENS_15PointXYZINormalEE21getMinMaxOpeningAngleERdS4_@Base 1.6
 (optional=templinst)_ZN3pcl26SACSegmentationFromNormalsINS_8PointXYZENS_15PointXYZINormalEE21setDistanceFromOriginEd@Base 1.6
 (optional=templinst)_ZN3pcl26SACSegmentationFromNormalsINS_8PointXYZENS_15PointXYZINormalEE21setMinMaxOpeningAngleERKdS5_@Base 1.6
 (optional=templinst)_ZN3pcl26SACSegmentationFromNormalsINS_8PointXYZENS_15PointXYZINormalEE23setNormalDistanceWeightEd@Base 1.6
 (optional=templinst)_ZN3pcl26SACSegmentationFromNormalsINS_8PointXYZENS_15PointXYZINormalEEC1Ev@Base 1.6
 (optional=templinst)_ZN3pcl26SACSegmentationFromNormalsINS_8PointXYZENS_15PointXYZINormalEEC2Ev@Base 1.6
 (optional=templinst)_ZN3pcl26SACSegmentationFromNormalsINS_8PointXYZENS_15PointXYZINormalEED0Ev@Base 1.6
 (optional=templinst)_ZN3pcl26SACSegmentationFromNormalsINS_8PointXYZENS_15PointXYZINormalEED1Ev@Base 1.6
 (optional=templinst)_ZN3pcl26SACSegmentationFromNormalsINS_8PointXYZENS_15PointXYZINormalEED2Ev@Base 1.6
 (optional=templinst)_ZN3pcl26SACSegmentationFromNormalsINS_8PointXYZENS_17PointXYZRGBNormalEE12initSACModelEi@Base 1.6
 (optional=templinst)_ZN3pcl26SACSegmentationFromNormalsINS_8PointXYZENS_17PointXYZRGBNormalEE15setInputNormalsERKN5boost10shared_ptrIKNS_10PointCloudIS2_EEEE@Base 1.6
 (optional=templinst)_ZN3pcl26SACSegmentationFromNormalsINS_8PointXYZENS_17PointXYZRGBNormalEE21getMinMaxOpeningAngleERdS4_@Base 1.6
 (optional=templinst)_ZN3pcl26SACSegmentationFromNormalsINS_8PointXYZENS_17PointXYZRGBNormalEE21setDistanceFromOriginEd@Base 1.6
 (optional=templinst)_ZN3pcl26SACSegmentationFromNormalsINS_8PointXYZENS_17PointXYZRGBNormalEE21setMinMaxOpeningAngleERKdS5_@Base 1.6
 (optional=templinst)_ZN3pcl26SACSegmentationFromNormalsINS_8PointXYZENS_17PointXYZRGBNormalEE23setNormalDistanceWeightEd@Base 1.6
 (optional=templinst)_ZN3pcl26SACSegmentationFromNormalsINS_8PointXYZENS_17PointXYZRGBNormalEEC1Ev@Base 1.6
 (optional=templinst)_ZN3pcl26SACSegmentationFromNormalsINS_8PointXYZENS_17PointXYZRGBNormalEEC2Ev@Base 1.6
 (optional=templinst)_ZN3pcl26SACSegmentationFromNormalsINS_8PointXYZENS_17PointXYZRGBNormalEED0Ev@Base 1.6
 (optional=templinst)_ZN3pcl26SACSegmentationFromNormalsINS_8PointXYZENS_17PointXYZRGBNormalEED1Ev@Base 1.6
 (optional=templinst)_ZN3pcl26SACSegmentationFromNormalsINS_8PointXYZENS_17PointXYZRGBNormalEED2Ev@Base 1.6
 (optional=templinst)_ZN3pcl26SACSegmentationFromNormalsINS_8PointXYZENS_6NormalEE12initSACModelEi@Base 1.6
 (optional=templinst)_ZN3pcl26SACSegmentationFromNormalsINS_8PointXYZENS_6NormalEE15setInputNormalsERKN5boost10shared_ptrIKNS_10PointCloudIS2_EEEE@Base 1.6
 (optional=templinst)_ZN3pcl26SACSegmentationFromNormalsINS_8PointXYZENS_6NormalEE21getMinMaxOpeningAngleERdS4_@Base 1.6
 (optional=templinst)_ZN3pcl26SACSegmentationFromNormalsINS_8PointXYZENS_6NormalEE21setDistanceFromOriginEd@Base 1.6
 (optional=templinst)_ZN3pcl26SACSegmentationFromNormalsINS_8PointXYZENS_6NormalEE21setMinMaxOpeningAngleERKdS5_@Base 1.6
 (optional=templinst)_ZN3pcl26SACSegmentationFromNormalsINS_8PointXYZENS_6NormalEE23setNormalDistanceWeightEd@Base 1.6
 (optional=templinst)_ZN3pcl26SACSegmentationFromNormalsINS_8PointXYZENS_6NormalEEC1Ev@Base 1.6
 (optional=templinst)_ZN3pcl26SACSegmentationFromNormalsINS_8PointXYZENS_6NormalEEC2Ev@Base 1.6
 (optional=templinst)_ZN3pcl26SACSegmentationFromNormalsINS_8PointXYZENS_6NormalEED0Ev@Base 1.6
 (optional=templinst)_ZN3pcl26SACSegmentationFromNormalsINS_8PointXYZENS_6NormalEED1Ev@Base 1.6
 (optional=templinst)_ZN3pcl26SACSegmentationFromNormalsINS_8PointXYZENS_6NormalEED2Ev@Base 1.6
 (optional=templinst)_ZN3pcl26SACSegmentationFromNormalsINS_9PointXYZIENS_11PointNormalEE12initSACModelEi@Base 1.6
 (optional=templinst)_ZN3pcl26SACSegmentationFromNormalsINS_9PointXYZIENS_11PointNormalEE15setInputNormalsERKN5boost10shared_ptrIKNS_10PointCloudIS2_EEEE@Base 1.6
 (optional=templinst)_ZN3pcl26SACSegmentationFromNormalsINS_9PointXYZIENS_11PointNormalEE21getMinMaxOpeningAngleERdS4_@Base 1.6
 (optional=templinst)_ZN3pcl26SACSegmentationFromNormalsINS_9PointXYZIENS_11PointNormalEE21setDistanceFromOriginEd@Base 1.6
 (optional=templinst)_ZN3pcl26SACSegmentationFromNormalsINS_9PointXYZIENS_11PointNormalEE21setMinMaxOpeningAngleERKdS5_@Base 1.6
 (optional=templinst)_ZN3pcl26SACSegmentationFromNormalsINS_9PointXYZIENS_11PointNormalEE23setNormalDistanceWeightEd@Base 1.6
 (optional=templinst)_ZN3pcl26SACSegmentationFromNormalsINS_9PointXYZIENS_11PointNormalEEC1Ev@Base 1.6
 (optional=templinst)_ZN3pcl26SACSegmentationFromNormalsINS_9PointXYZIENS_11PointNormalEEC2Ev@Base 1.6
 (optional=templinst)_ZN3pcl26SACSegmentationFromNormalsINS_9PointXYZIENS_11PointNormalEED0Ev@Base 1.6
 (optional=templinst)_ZN3pcl26SACSegmentationFromNormalsINS_9PointXYZIENS_11PointNormalEED1Ev@Base 1.6
 (optional=templinst)_ZN3pcl26SACSegmentationFromNormalsINS_9PointXYZIENS_11PointNormalEED2Ev@Base 1.6
 (optional=templinst)_ZN3pcl26SACSegmentationFromNormalsINS_9PointXYZIENS_15PointXYZINormalEE12initSACModelEi@Base 1.6
 (optional=templinst)_ZN3pcl26SACSegmentationFromNormalsINS_9PointXYZIENS_15PointXYZINormalEE15setInputNormalsERKN5boost10shared_ptrIKNS_10PointCloudIS2_EEEE@Base 1.6
 (optional=templinst)_ZN3pcl26SACSegmentationFromNormalsINS_9PointXYZIENS_15PointXYZINormalEE21getMinMaxOpeningAngleERdS4_@Base 1.6
 (optional=templinst)_ZN3pcl26SACSegmentationFromNormalsINS_9PointXYZIENS_15PointXYZINormalEE21setDistanceFromOriginEd@Base 1.6
 (optional=templinst)_ZN3pcl26SACSegmentationFromNormalsINS_9PointXYZIENS_15PointXYZINormalEE21setMinMaxOpeningAngleERKdS5_@Base 1.6
 (optional=templinst)_ZN3pcl26SACSegmentationFromNormalsINS_9PointXYZIENS_15PointXYZINormalEE23setNormalDistanceWeightEd@Base 1.6
 (optional=templinst)_ZN3pcl26SACSegmentationFromNormalsINS_9PointXYZIENS_15PointXYZINormalEEC1Ev@Base 1.6
 (optional=templinst)_ZN3pcl26SACSegmentationFromNormalsINS_9PointXYZIENS_15PointXYZINormalEEC2Ev@Base 1.6
 (optional=templinst)_ZN3pcl26SACSegmentationFromNormalsINS_9PointXYZIENS_15PointXYZINormalEED0Ev@Base 1.6
 (optional=templinst)_ZN3pcl26SACSegmentationFromNormalsINS_9PointXYZIENS_15PointXYZINormalEED1Ev@Base 1.6
 (optional=templinst)_ZN3pcl26SACSegmentationFromNormalsINS_9PointXYZIENS_15PointXYZINormalEED2Ev@Base 1.6
 (optional=templinst)_ZN3pcl26SACSegmentationFromNormalsINS_9PointXYZIENS_17PointXYZRGBNormalEE12initSACModelEi@Base 1.6
 (optional=templinst)_ZN3pcl26SACSegmentationFromNormalsINS_9PointXYZIENS_17PointXYZRGBNormalEE15setInputNormalsERKN5boost10shared_ptrIKNS_10PointCloudIS2_EEEE@Base 1.6
 (optional=templinst)_ZN3pcl26SACSegmentationFromNormalsINS_9PointXYZIENS_17PointXYZRGBNormalEE21getMinMaxOpeningAngleERdS4_@Base 1.6
 (optional=templinst)_ZN3pcl26SACSegmentationFromNormalsINS_9PointXYZIENS_17PointXYZRGBNormalEE21setDistanceFromOriginEd@Base 1.6
 (optional=templinst)_ZN3pcl26SACSegmentationFromNormalsINS_9PointXYZIENS_17PointXYZRGBNormalEE21setMinMaxOpeningAngleERKdS5_@Base 1.6
 (optional=templinst)_ZN3pcl26SACSegmentationFromNormalsINS_9PointXYZIENS_17PointXYZRGBNormalEE23setNormalDistanceWeightEd@Base 1.6
 (optional=templinst)_ZN3pcl26SACSegmentationFromNormalsINS_9PointXYZIENS_17PointXYZRGBNormalEEC1Ev@Base 1.6
 (optional=templinst)_ZN3pcl26SACSegmentationFromNormalsINS_9PointXYZIENS_17PointXYZRGBNormalEEC2Ev@Base 1.6
 (optional=templinst)_ZN3pcl26SACSegmentationFromNormalsINS_9PointXYZIENS_17PointXYZRGBNormalEED0Ev@Base 1.6
 (optional=templinst)_ZN3pcl26SACSegmentationFromNormalsINS_9PointXYZIENS_17PointXYZRGBNormalEED1Ev@Base 1.6
 (optional=templinst)_ZN3pcl26SACSegmentationFromNormalsINS_9PointXYZIENS_17PointXYZRGBNormalEED2Ev@Base 1.6
 (optional=templinst)_ZN3pcl26SACSegmentationFromNormalsINS_9PointXYZIENS_6NormalEE12initSACModelEi@Base 1.6
 (optional=templinst)_ZN3pcl26SACSegmentationFromNormalsINS_9PointXYZIENS_6NormalEE15setInputNormalsERKN5boost10shared_ptrIKNS_10PointCloudIS2_EEEE@Base 1.6
 (optional=templinst)_ZN3pcl26SACSegmentationFromNormalsINS_9PointXYZIENS_6NormalEE21getMinMaxOpeningAngleERdS4_@Base 1.6
 (optional=templinst)_ZN3pcl26SACSegmentationFromNormalsINS_9PointXYZIENS_6NormalEE21setDistanceFromOriginEd@Base 1.6
 (optional=templinst)_ZN3pcl26SACSegmentationFromNormalsINS_9PointXYZIENS_6NormalEE21setMinMaxOpeningAngleERKdS5_@Base 1.6
 (optional=templinst)_ZN3pcl26SACSegmentationFromNormalsINS_9PointXYZIENS_6NormalEE23setNormalDistanceWeightEd@Base 1.6
 (optional=templinst)_ZN3pcl26SACSegmentationFromNormalsINS_9PointXYZIENS_6NormalEEC1Ev@Base 1.6
 (optional=templinst)_ZN3pcl26SACSegmentationFromNormalsINS_9PointXYZIENS_6NormalEEC2Ev@Base 1.6
 (optional=templinst)_ZN3pcl26SACSegmentationFromNormalsINS_9PointXYZIENS_6NormalEED0Ev@Base 1.6
 (optional=templinst)_ZN3pcl26SACSegmentationFromNormalsINS_9PointXYZIENS_6NormalEED1Ev@Base 1.6
 (optional=templinst)_ZN3pcl26SACSegmentationFromNormalsINS_9PointXYZIENS_6NormalEED2Ev@Base 1.6
 (optional=templinst)_ZN3pcl26SACSegmentationFromNormalsINS_9PointXYZLENS_11PointNormalEE12initSACModelEi@Base 1.6
 (optional=templinst)_ZN3pcl26SACSegmentationFromNormalsINS_9PointXYZLENS_11PointNormalEE15setInputNormalsERKN5boost10shared_ptrIKNS_10PointCloudIS2_EEEE@Base 1.6
 (optional=templinst)_ZN3pcl26SACSegmentationFromNormalsINS_9PointXYZLENS_11PointNormalEE21getMinMaxOpeningAngleERdS4_@Base 1.6
 (optional=templinst)_ZN3pcl26SACSegmentationFromNormalsINS_9PointXYZLENS_11PointNormalEE21setDistanceFromOriginEd@Base 1.6
 (optional=templinst)_ZN3pcl26SACSegmentationFromNormalsINS_9PointXYZLENS_11PointNormalEE21setMinMaxOpeningAngleERKdS5_@Base 1.6
 (optional=templinst)_ZN3pcl26SACSegmentationFromNormalsINS_9PointXYZLENS_11PointNormalEE23setNormalDistanceWeightEd@Base 1.6
 (optional=templinst)_ZN3pcl26SACSegmentationFromNormalsINS_9PointXYZLENS_11PointNormalEEC1Ev@Base 1.6
 (optional=templinst)_ZN3pcl26SACSegmentationFromNormalsINS_9PointXYZLENS_11PointNormalEEC2Ev@Base 1.6
 (optional=templinst)_ZN3pcl26SACSegmentationFromNormalsINS_9PointXYZLENS_11PointNormalEED0Ev@Base 1.6
 (optional=templinst)_ZN3pcl26SACSegmentationFromNormalsINS_9PointXYZLENS_11PointNormalEED1Ev@Base 1.6
 (optional=templinst)_ZN3pcl26SACSegmentationFromNormalsINS_9PointXYZLENS_11PointNormalEED2Ev@Base 1.6
 (optional=templinst)_ZN3pcl26SACSegmentationFromNormalsINS_9PointXYZLENS_15PointXYZINormalEE12initSACModelEi@Base 1.6
 (optional=templinst)_ZN3pcl26SACSegmentationFromNormalsINS_9PointXYZLENS_15PointXYZINormalEE15setInputNormalsERKN5boost10shared_ptrIKNS_10PointCloudIS2_EEEE@Base 1.6
 (optional=templinst)_ZN3pcl26SACSegmentationFromNormalsINS_9PointXYZLENS_15PointXYZINormalEE21getMinMaxOpeningAngleERdS4_@Base 1.6
 (optional=templinst)_ZN3pcl26SACSegmentationFromNormalsINS_9PointXYZLENS_15PointXYZINormalEE21setDistanceFromOriginEd@Base 1.6
 (optional=templinst)_ZN3pcl26SACSegmentationFromNormalsINS_9PointXYZLENS_15PointXYZINormalEE21setMinMaxOpeningAngleERKdS5_@Base 1.6
 (optional=templinst)_ZN3pcl26SACSegmentationFromNormalsINS_9PointXYZLENS_15PointXYZINormalEE23setNormalDistanceWeightEd@Base 1.6
 (optional=templinst)_ZN3pcl26SACSegmentationFromNormalsINS_9PointXYZLENS_15PointXYZINormalEEC1Ev@Base 1.6
 (optional=templinst)_ZN3pcl26SACSegmentationFromNormalsINS_9PointXYZLENS_15PointXYZINormalEEC2Ev@Base 1.6
 (optional=templinst)_ZN3pcl26SACSegmentationFromNormalsINS_9PointXYZLENS_15PointXYZINormalEED0Ev@Base 1.6
 (optional=templinst)_ZN3pcl26SACSegmentationFromNormalsINS_9PointXYZLENS_15PointXYZINormalEED1Ev@Base 1.6
 (optional=templinst)_ZN3pcl26SACSegmentationFromNormalsINS_9PointXYZLENS_15PointXYZINormalEED2Ev@Base 1.6
 (optional=templinst)_ZN3pcl26SACSegmentationFromNormalsINS_9PointXYZLENS_17PointXYZRGBNormalEE12initSACModelEi@Base 1.6
 (optional=templinst)_ZN3pcl26SACSegmentationFromNormalsINS_9PointXYZLENS_17PointXYZRGBNormalEE15setInputNormalsERKN5boost10shared_ptrIKNS_10PointCloudIS2_EEEE@Base 1.6
 (optional=templinst)_ZN3pcl26SACSegmentationFromNormalsINS_9PointXYZLENS_17PointXYZRGBNormalEE21getMinMaxOpeningAngleERdS4_@Base 1.6
 (optional=templinst)_ZN3pcl26SACSegmentationFromNormalsINS_9PointXYZLENS_17PointXYZRGBNormalEE21setDistanceFromOriginEd@Base 1.6
 (optional=templinst)_ZN3pcl26SACSegmentationFromNormalsINS_9PointXYZLENS_17PointXYZRGBNormalEE21setMinMaxOpeningAngleERKdS5_@Base 1.6
 (optional=templinst)_ZN3pcl26SACSegmentationFromNormalsINS_9PointXYZLENS_17PointXYZRGBNormalEE23setNormalDistanceWeightEd@Base 1.6
 (optional=templinst)_ZN3pcl26SACSegmentationFromNormalsINS_9PointXYZLENS_17PointXYZRGBNormalEEC1Ev@Base 1.6
 (optional=templinst)_ZN3pcl26SACSegmentationFromNormalsINS_9PointXYZLENS_17PointXYZRGBNormalEEC2Ev@Base 1.6
 (optional=templinst)_ZN3pcl26SACSegmentationFromNormalsINS_9PointXYZLENS_17PointXYZRGBNormalEED0Ev@Base 1.6
 (optional=templinst)_ZN3pcl26SACSegmentationFromNormalsINS_9PointXYZLENS_17PointXYZRGBNormalEED1Ev@Base 1.6
 (optional=templinst)_ZN3pcl26SACSegmentationFromNormalsINS_9PointXYZLENS_17PointXYZRGBNormalEED2Ev@Base 1.6
 (optional=templinst)_ZN3pcl26SACSegmentationFromNormalsINS_9PointXYZLENS_6NormalEE12initSACModelEi@Base 1.6
 (optional=templinst)_ZN3pcl26SACSegmentationFromNormalsINS_9PointXYZLENS_6NormalEE15setInputNormalsERKN5boost10shared_ptrIKNS_10PointCloudIS2_EEEE@Base 1.6
 (optional=templinst)_ZN3pcl26SACSegmentationFromNormalsINS_9PointXYZLENS_6NormalEE21getMinMaxOpeningAngleERdS4_@Base 1.6
 (optional=templinst)_ZN3pcl26SACSegmentationFromNormalsINS_9PointXYZLENS_6NormalEE21setDistanceFromOriginEd@Base 1.6
 (optional=templinst)_ZN3pcl26SACSegmentationFromNormalsINS_9PointXYZLENS_6NormalEE21setMinMaxOpeningAngleERKdS5_@Base 1.6
 (optional=templinst)_ZN3pcl26SACSegmentationFromNormalsINS_9PointXYZLENS_6NormalEE23setNormalDistanceWeightEd@Base 1.6
 (optional=templinst)_ZN3pcl26SACSegmentationFromNormalsINS_9PointXYZLENS_6NormalEEC1Ev@Base 1.6
 (optional=templinst)_ZN3pcl26SACSegmentationFromNormalsINS_9PointXYZLENS_6NormalEEC2Ev@Base 1.6
 (optional=templinst)_ZN3pcl26SACSegmentationFromNormalsINS_9PointXYZLENS_6NormalEED0Ev@Base 1.6
 (optional=templinst)_ZN3pcl26SACSegmentationFromNormalsINS_9PointXYZLENS_6NormalEED1Ev@Base 1.6
 (optional=templinst)_ZN3pcl26SACSegmentationFromNormalsINS_9PointXYZLENS_6NormalEED2Ev@Base 1.6
 (optional=templinst)_ZN3pcl26SampleConsensusModelSphereINS_11PointNormalEE12isModelValidERKN5Eigen6MatrixIfLin1ELi1ELi0ELin1ELi1EEE@Base 1.6
 (optional=templinst)_ZN3pcl26SampleConsensusModelSphereINS_11PointNormalEED0Ev@Base 1.6
 (optional=templinst)_ZN3pcl26SampleConsensusModelSphereINS_11PointNormalEED1Ev@Base 1.6
 (optional=templinst)_ZN3pcl26SampleConsensusModelSphereINS_11PointNormalEED2Ev@Base 1.6
 (optional=templinst)_ZN3pcl26SampleConsensusModelSphereINS_11PointXYZHSVEE12isModelValidERKN5Eigen6MatrixIfLin1ELi1ELi0ELin1ELi1EEE@Base 1.6
 (optional=templinst)_ZN3pcl26SampleConsensusModelSphereINS_11PointXYZHSVEED0Ev@Base 1.6
 (optional=templinst)_ZN3pcl26SampleConsensusModelSphereINS_11PointXYZHSVEED1Ev@Base 1.6
 (optional=templinst)_ZN3pcl26SampleConsensusModelSphereINS_11PointXYZHSVEED2Ev@Base 1.6
 (optional=templinst)_ZN3pcl26SampleConsensusModelSphereINS_11PointXYZRGBEE12isModelValidERKN5Eigen6MatrixIfLin1ELi1ELi0ELin1ELi1EEE@Base 1.6
 (optional=templinst)_ZN3pcl26SampleConsensusModelSphereINS_11PointXYZRGBEED0Ev@Base 1.6
 (optional=templinst)_ZN3pcl26SampleConsensusModelSphereINS_11PointXYZRGBEED1Ev@Base 1.6
 (optional=templinst)_ZN3pcl26SampleConsensusModelSphereINS_11PointXYZRGBEED2Ev@Base 1.6
 (optional=templinst)_ZN3pcl26SampleConsensusModelSphereINS_12PointXYZRGBAEE12isModelValidERKN5Eigen6MatrixIfLin1ELi1ELi0ELin1ELi1EEE@Base 1.6
 (optional=templinst)_ZN3pcl26SampleConsensusModelSphereINS_12PointXYZRGBAEED0Ev@Base 1.6
 (optional=templinst)_ZN3pcl26SampleConsensusModelSphereINS_12PointXYZRGBAEED1Ev@Base 1.6
 (optional=templinst)_ZN3pcl26SampleConsensusModelSphereINS_12PointXYZRGBAEED2Ev@Base 1.6
 (optional=templinst)_ZN3pcl26SampleConsensusModelSphereINS_12PointXYZRGBLEE12isModelValidERKN5Eigen6MatrixIfLin1ELi1ELi0ELin1ELi1EEE@Base 1.6
 (optional=templinst)_ZN3pcl26SampleConsensusModelSphereINS_12PointXYZRGBLEED0Ev@Base 1.6
 (optional=templinst)_ZN3pcl26SampleConsensusModelSphereINS_12PointXYZRGBLEED1Ev@Base 1.6
 (optional=templinst)_ZN3pcl26SampleConsensusModelSphereINS_12PointXYZRGBLEED2Ev@Base 1.6
 (optional=templinst)_ZN3pcl26SampleConsensusModelSphereINS_13InterestPointEE12isModelValidERKN5Eigen6MatrixIfLin1ELi1ELi0ELin1ELi1EEE@Base 1.6
 (optional=templinst)_ZN3pcl26SampleConsensusModelSphereINS_13InterestPointEED0Ev@Base 1.6
 (optional=templinst)_ZN3pcl26SampleConsensusModelSphereINS_13InterestPointEED1Ev@Base 1.6
 (optional=templinst)_ZN3pcl26SampleConsensusModelSphereINS_13InterestPointEED2Ev@Base 1.6
 (optional=templinst)_ZN3pcl26SampleConsensusModelSphereINS_14PointWithRangeEE12isModelValidERKN5Eigen6MatrixIfLin1ELi1ELi0ELin1ELi1EEE@Base 1.6
 (optional=templinst)_ZN3pcl26SampleConsensusModelSphereINS_14PointWithRangeEED0Ev@Base 1.6
 (optional=templinst)_ZN3pcl26SampleConsensusModelSphereINS_14PointWithRangeEED1Ev@Base 1.6
 (optional=templinst)_ZN3pcl26SampleConsensusModelSphereINS_14PointWithRangeEED2Ev@Base 1.6
 (optional=templinst)_ZN3pcl26SampleConsensusModelSphereINS_14PointWithScaleEE12isModelValidERKN5Eigen6MatrixIfLin1ELi1ELi0ELin1ELi1EEE@Base 1.6
 (optional=templinst)_ZN3pcl26SampleConsensusModelSphereINS_14PointWithScaleEED0Ev@Base 1.6
 (optional=templinst)_ZN3pcl26SampleConsensusModelSphereINS_14PointWithScaleEED1Ev@Base 1.6
 (optional=templinst)_ZN3pcl26SampleConsensusModelSphereINS_14PointWithScaleEED2Ev@Base 1.6
 (optional=templinst)_ZN3pcl26SampleConsensusModelSphereINS_15PointXYZINormalEE12isModelValidERKN5Eigen6MatrixIfLin1ELi1ELi0ELin1ELi1EEE@Base 1.6
 (optional=templinst)_ZN3pcl26SampleConsensusModelSphereINS_15PointXYZINormalEED0Ev@Base 1.6
 (optional=templinst)_ZN3pcl26SampleConsensusModelSphereINS_15PointXYZINormalEED1Ev@Base 1.6
 (optional=templinst)_ZN3pcl26SampleConsensusModelSphereINS_15PointXYZINormalEED2Ev@Base 1.6
 (optional=templinst)_ZN3pcl26SampleConsensusModelSphereINS_17PointXYZRGBNormalEE12isModelValidERKN5Eigen6MatrixIfLin1ELi1ELi0ELin1ELi1EEE@Base 1.6
 (optional=templinst)_ZN3pcl26SampleConsensusModelSphereINS_17PointXYZRGBNormalEED0Ev@Base 1.6
 (optional=templinst)_ZN3pcl26SampleConsensusModelSphereINS_17PointXYZRGBNormalEED1Ev@Base 1.6
 (optional=templinst)_ZN3pcl26SampleConsensusModelSphereINS_17PointXYZRGBNormalEED2Ev@Base 1.6
 (optional=templinst)_ZN3pcl26SampleConsensusModelSphereINS_18PointWithViewpointEE12isModelValidERKN5Eigen6MatrixIfLin1ELi1ELi0ELin1ELi1EEE@Base 1.6
 (optional=templinst)_ZN3pcl26SampleConsensusModelSphereINS_18PointWithViewpointEED0Ev@Base 1.6
 (optional=templinst)_ZN3pcl26SampleConsensusModelSphereINS_18PointWithViewpointEED1Ev@Base 1.6
 (optional=templinst)_ZN3pcl26SampleConsensusModelSphereINS_18PointWithViewpointEED2Ev@Base 1.6
 (optional=templinst)_ZN3pcl26SampleConsensusModelSphereINS_8PointXYZEE12isModelValidERKN5Eigen6MatrixIfLin1ELi1ELi0ELin1ELi1EEE@Base 1.6
 (optional=templinst)_ZN3pcl26SampleConsensusModelSphereINS_8PointXYZEED0Ev@Base 1.6
 (optional=templinst)_ZN3pcl26SampleConsensusModelSphereINS_8PointXYZEED1Ev@Base 1.6
 (optional=templinst)_ZN3pcl26SampleConsensusModelSphereINS_8PointXYZEED2Ev@Base 1.6
 (optional=templinst)_ZN3pcl26SampleConsensusModelSphereINS_9PointXYZIEE12isModelValidERKN5Eigen6MatrixIfLin1ELi1ELi0ELin1ELi1EEE@Base 1.6
 (optional=templinst)_ZN3pcl26SampleConsensusModelSphereINS_9PointXYZIEED0Ev@Base 1.6
 (optional=templinst)_ZN3pcl26SampleConsensusModelSphereINS_9PointXYZIEED1Ev@Base 1.6
 (optional=templinst)_ZN3pcl26SampleConsensusModelSphereINS_9PointXYZIEED2Ev@Base 1.6
 (optional=templinst)_ZN3pcl26SampleConsensusModelSphereINS_9PointXYZLEE12isModelValidERKN5Eigen6MatrixIfLin1ELi1ELi0ELin1ELi1EEE@Base 1.6
 (optional=templinst)_ZN3pcl26SampleConsensusModelSphereINS_9PointXYZLEED0Ev@Base 1.6
 (optional=templinst)_ZN3pcl26SampleConsensusModelSphereINS_9PointXYZLEED1Ev@Base 1.6
 (optional=templinst)_ZN3pcl26SampleConsensusModelSphereINS_9PointXYZLEED2Ev@Base 1.6
 _ZN3pcl28InvalidSACModelTypeExceptionC1ERKSsS2_S2_j@Base 1.6
 _ZN3pcl28InvalidSACModelTypeExceptionC2ERKSsS2_S2_j@Base 1.6
 _ZN3pcl28InvalidSACModelTypeExceptionD0Ev@Base 1.6
 _ZN3pcl28InvalidSACModelTypeExceptionD1Ev@Base 1.6
 _ZN3pcl28InvalidSACModelTypeExceptionD2Ev@Base 1.6
 (optional=templinst)_ZN3pcl28SampleConsensusModelCircle2DINS_11PointNormalEED0Ev@Base 1.6
 (optional=templinst)_ZN3pcl28SampleConsensusModelCircle2DINS_11PointNormalEED1Ev@Base 1.6
 (optional=templinst)_ZN3pcl28SampleConsensusModelCircle2DINS_11PointNormalEED2Ev@Base 1.6
 (optional=templinst)_ZN3pcl28SampleConsensusModelCircle2DINS_11PointXYZHSVEED0Ev@Base 1.6
 (optional=templinst)_ZN3pcl28SampleConsensusModelCircle2DINS_11PointXYZHSVEED1Ev@Base 1.6
 (optional=templinst)_ZN3pcl28SampleConsensusModelCircle2DINS_11PointXYZHSVEED2Ev@Base 1.6
 (optional=templinst)_ZN3pcl28SampleConsensusModelCircle2DINS_11PointXYZRGBEED0Ev@Base 1.6
 (optional=templinst)_ZN3pcl28SampleConsensusModelCircle2DINS_11PointXYZRGBEED1Ev@Base 1.6
 (optional=templinst)_ZN3pcl28SampleConsensusModelCircle2DINS_11PointXYZRGBEED2Ev@Base 1.6
 (optional=templinst)_ZN3pcl28SampleConsensusModelCircle2DINS_12PointXYZRGBAEED0Ev@Base 1.6
 (optional=templinst)_ZN3pcl28SampleConsensusModelCircle2DINS_12PointXYZRGBAEED1Ev@Base 1.6
 (optional=templinst)_ZN3pcl28SampleConsensusModelCircle2DINS_12PointXYZRGBAEED2Ev@Base 1.6
 (optional=templinst)_ZN3pcl28SampleConsensusModelCircle2DINS_12PointXYZRGBLEED0Ev@Base 1.6
 (optional=templinst)_ZN3pcl28SampleConsensusModelCircle2DINS_12PointXYZRGBLEED1Ev@Base 1.6
 (optional=templinst)_ZN3pcl28SampleConsensusModelCircle2DINS_12PointXYZRGBLEED2Ev@Base 1.6
 (optional=templinst)_ZN3pcl28SampleConsensusModelCircle2DINS_13InterestPointEED0Ev@Base 1.6
 (optional=templinst)_ZN3pcl28SampleConsensusModelCircle2DINS_13InterestPointEED1Ev@Base 1.6
 (optional=templinst)_ZN3pcl28SampleConsensusModelCircle2DINS_13InterestPointEED2Ev@Base 1.6
 (optional=templinst)_ZN3pcl28SampleConsensusModelCircle2DINS_14PointWithRangeEED0Ev@Base 1.6
 (optional=templinst)_ZN3pcl28SampleConsensusModelCircle2DINS_14PointWithRangeEED1Ev@Base 1.6
 (optional=templinst)_ZN3pcl28SampleConsensusModelCircle2DINS_14PointWithRangeEED2Ev@Base 1.6
 (optional=templinst)_ZN3pcl28SampleConsensusModelCircle2DINS_14PointWithScaleEED0Ev@Base 1.6
 (optional=templinst)_ZN3pcl28SampleConsensusModelCircle2DINS_14PointWithScaleEED1Ev@Base 1.6
 (optional=templinst)_ZN3pcl28SampleConsensusModelCircle2DINS_14PointWithScaleEED2Ev@Base 1.6
 (optional=templinst)_ZN3pcl28SampleConsensusModelCircle2DINS_15PointXYZINormalEED0Ev@Base 1.6
 (optional=templinst)_ZN3pcl28SampleConsensusModelCircle2DINS_15PointXYZINormalEED1Ev@Base 1.6
 (optional=templinst)_ZN3pcl28SampleConsensusModelCircle2DINS_15PointXYZINormalEED2Ev@Base 1.6
 (optional=templinst)_ZN3pcl28SampleConsensusModelCircle2DINS_17PointXYZRGBNormalEED0Ev@Base 1.6
 (optional=templinst)_ZN3pcl28SampleConsensusModelCircle2DINS_17PointXYZRGBNormalEED1Ev@Base 1.6
 (optional=templinst)_ZN3pcl28SampleConsensusModelCircle2DINS_17PointXYZRGBNormalEED2Ev@Base 1.6
 (optional=templinst)_ZN3pcl28SampleConsensusModelCircle2DINS_18PointWithViewpointEED0Ev@Base 1.6
 (optional=templinst)_ZN3pcl28SampleConsensusModelCircle2DINS_18PointWithViewpointEED1Ev@Base 1.6
 (optional=templinst)_ZN3pcl28SampleConsensusModelCircle2DINS_18PointWithViewpointEED2Ev@Base 1.6
 (optional=templinst)_ZN3pcl28SampleConsensusModelCircle2DINS_8PointXYZEED0Ev@Base 1.6
 (optional=templinst)_ZN3pcl28SampleConsensusModelCircle2DINS_8PointXYZEED1Ev@Base 1.6
 (optional=templinst)_ZN3pcl28SampleConsensusModelCircle2DINS_8PointXYZEED2Ev@Base 1.6
 (optional=templinst)_ZN3pcl28SampleConsensusModelCircle2DINS_9PointXYZIEED0Ev@Base 1.6
 (optional=templinst)_ZN3pcl28SampleConsensusModelCircle2DINS_9PointXYZIEED1Ev@Base 1.6
 (optional=templinst)_ZN3pcl28SampleConsensusModelCircle2DINS_9PointXYZIEED2Ev@Base 1.6
 (optional=templinst)_ZN3pcl28SampleConsensusModelCircle2DINS_9PointXYZLEED0Ev@Base 1.6
 (optional=templinst)_ZN3pcl28SampleConsensusModelCircle2DINS_9PointXYZLEED1Ev@Base 1.6
 (optional=templinst)_ZN3pcl28SampleConsensusModelCircle2DINS_9PointXYZLEED2Ev@Base 1.6
 (optional=templinst)_ZN3pcl28SampleConsensusModelCylinderINS_11PointNormalENS_15PointXYZINormalEE7setAxisERKN5Eigen6MatrixIfLi3ELi1ELi0ELi3ELi1EEE@Base 1.6
 (optional=templinst)_ZN3pcl28SampleConsensusModelCylinderINS_11PointNormalENS_15PointXYZINormalEEC1ERKN5boost10shared_ptrIKNS_10PointCloudIS1_EEEERKSt6vectorIiSaIiEE@Base 1.6
 (optional=templinst)_ZN3pcl28SampleConsensusModelCylinderINS_11PointNormalENS_15PointXYZINormalEEC2ERKN5boost10shared_ptrIKNS_10PointCloudIS1_EEEERKSt6vectorIiSaIiEE@Base 1.6
 (optional=templinst)_ZN3pcl28SampleConsensusModelCylinderINS_11PointNormalENS_15PointXYZINormalEED0Ev@Base 1.6
 (optional=templinst)_ZN3pcl28SampleConsensusModelCylinderINS_11PointNormalENS_15PointXYZINormalEED1Ev@Base 1.6
 (optional=templinst)_ZN3pcl28SampleConsensusModelCylinderINS_11PointNormalENS_15PointXYZINormalEED2Ev@Base 1.6
 (optional=templinst)_ZN3pcl28SampleConsensusModelCylinderINS_11PointNormalENS_17PointXYZRGBNormalEE7setAxisERKN5Eigen6MatrixIfLi3ELi1ELi0ELi3ELi1EEE@Base 1.6
 (optional=templinst)_ZN3pcl28SampleConsensusModelCylinderINS_11PointNormalENS_17PointXYZRGBNormalEEC1ERKN5boost10shared_ptrIKNS_10PointCloudIS1_EEEERKSt6vectorIiSaIiEE@Base 1.6
 (optional=templinst)_ZN3pcl28SampleConsensusModelCylinderINS_11PointNormalENS_17PointXYZRGBNormalEEC2ERKN5boost10shared_ptrIKNS_10PointCloudIS1_EEEERKSt6vectorIiSaIiEE@Base 1.6
 (optional=templinst)_ZN3pcl28SampleConsensusModelCylinderINS_11PointNormalENS_17PointXYZRGBNormalEED0Ev@Base 1.6
 (optional=templinst)_ZN3pcl28SampleConsensusModelCylinderINS_11PointNormalENS_17PointXYZRGBNormalEED1Ev@Base 1.6
 (optional=templinst)_ZN3pcl28SampleConsensusModelCylinderINS_11PointNormalENS_17PointXYZRGBNormalEED2Ev@Base 1.6
 (optional=templinst)_ZN3pcl28SampleConsensusModelCylinderINS_11PointNormalENS_6NormalEE7setAxisERKN5Eigen6MatrixIfLi3ELi1ELi0ELi3ELi1EEE@Base 1.6
 (optional=templinst)_ZN3pcl28SampleConsensusModelCylinderINS_11PointNormalENS_6NormalEEC1ERKN5boost10shared_ptrIKNS_10PointCloudIS1_EEEERKSt6vectorIiSaIiEE@Base 1.6
 (optional=templinst)_ZN3pcl28SampleConsensusModelCylinderINS_11PointNormalENS_6NormalEEC2ERKN5boost10shared_ptrIKNS_10PointCloudIS1_EEEERKSt6vectorIiSaIiEE@Base 1.6
 (optional=templinst)_ZN3pcl28SampleConsensusModelCylinderINS_11PointNormalENS_6NormalEED0Ev@Base 1.6
 (optional=templinst)_ZN3pcl28SampleConsensusModelCylinderINS_11PointNormalENS_6NormalEED1Ev@Base 1.6
 (optional=templinst)_ZN3pcl28SampleConsensusModelCylinderINS_11PointNormalENS_6NormalEED2Ev@Base 1.6
 (optional=templinst)_ZN3pcl28SampleConsensusModelCylinderINS_11PointNormalES1_E7setAxisERKN5Eigen6MatrixIfLi3ELi1ELi0ELi3ELi1EEE@Base 1.6
 (optional=templinst)_ZN3pcl28SampleConsensusModelCylinderINS_11PointNormalES1_EC1ERKN5boost10shared_ptrIKNS_10PointCloudIS1_EEEERKSt6vectorIiSaIiEE@Base 1.6
 (optional=templinst)_ZN3pcl28SampleConsensusModelCylinderINS_11PointNormalES1_EC2ERKN5boost10shared_ptrIKNS_10PointCloudIS1_EEEERKSt6vectorIiSaIiEE@Base 1.6
 (optional=templinst)_ZN3pcl28SampleConsensusModelCylinderINS_11PointNormalES1_ED0Ev@Base 1.6
 (optional=templinst)_ZN3pcl28SampleConsensusModelCylinderINS_11PointNormalES1_ED1Ev@Base 1.6
 (optional=templinst)_ZN3pcl28SampleConsensusModelCylinderINS_11PointNormalES1_ED2Ev@Base 1.6
 (optional=templinst)_ZN3pcl28SampleConsensusModelCylinderINS_11PointXYZHSVENS_11PointNormalEE7setAxisERKN5Eigen6MatrixIfLi3ELi1ELi0ELi3ELi1EEE@Base 1.6
 (optional=templinst)_ZN3pcl28SampleConsensusModelCylinderINS_11PointXYZHSVENS_11PointNormalEEC1ERKN5boost10shared_ptrIKNS_10PointCloudIS1_EEEERKSt6vectorIiSaIiEE@Base 1.6
 (optional=templinst)_ZN3pcl28SampleConsensusModelCylinderINS_11PointXYZHSVENS_11PointNormalEEC2ERKN5boost10shared_ptrIKNS_10PointCloudIS1_EEEERKSt6vectorIiSaIiEE@Base 1.6
 (optional=templinst)_ZN3pcl28SampleConsensusModelCylinderINS_11PointXYZHSVENS_11PointNormalEED0Ev@Base 1.6
 (optional=templinst)_ZN3pcl28SampleConsensusModelCylinderINS_11PointXYZHSVENS_11PointNormalEED1Ev@Base 1.6
 (optional=templinst)_ZN3pcl28SampleConsensusModelCylinderINS_11PointXYZHSVENS_11PointNormalEED2Ev@Base 1.6
 (optional=templinst)_ZN3pcl28SampleConsensusModelCylinderINS_11PointXYZHSVENS_15PointXYZINormalEE7setAxisERKN5Eigen6MatrixIfLi3ELi1ELi0ELi3ELi1EEE@Base 1.6
 (optional=templinst)_ZN3pcl28SampleConsensusModelCylinderINS_11PointXYZHSVENS_15PointXYZINormalEEC1ERKN5boost10shared_ptrIKNS_10PointCloudIS1_EEEERKSt6vectorIiSaIiEE@Base 1.6
 (optional=templinst)_ZN3pcl28SampleConsensusModelCylinderINS_11PointXYZHSVENS_15PointXYZINormalEEC2ERKN5boost10shared_ptrIKNS_10PointCloudIS1_EEEERKSt6vectorIiSaIiEE@Base 1.6
 (optional=templinst)_ZN3pcl28SampleConsensusModelCylinderINS_11PointXYZHSVENS_15PointXYZINormalEED0Ev@Base 1.6
 (optional=templinst)_ZN3pcl28SampleConsensusModelCylinderINS_11PointXYZHSVENS_15PointXYZINormalEED1Ev@Base 1.6
 (optional=templinst)_ZN3pcl28SampleConsensusModelCylinderINS_11PointXYZHSVENS_15PointXYZINormalEED2Ev@Base 1.6
 (optional=templinst)_ZN3pcl28SampleConsensusModelCylinderINS_11PointXYZHSVENS_17PointXYZRGBNormalEE7setAxisERKN5Eigen6MatrixIfLi3ELi1ELi0ELi3ELi1EEE@Base 1.6
 (optional=templinst)_ZN3pcl28SampleConsensusModelCylinderINS_11PointXYZHSVENS_17PointXYZRGBNormalEEC1ERKN5boost10shared_ptrIKNS_10PointCloudIS1_EEEERKSt6vectorIiSaIiEE@Base 1.6
 (optional=templinst)_ZN3pcl28SampleConsensusModelCylinderINS_11PointXYZHSVENS_17PointXYZRGBNormalEEC2ERKN5boost10shared_ptrIKNS_10PointCloudIS1_EEEERKSt6vectorIiSaIiEE@Base 1.6
 (optional=templinst)_ZN3pcl28SampleConsensusModelCylinderINS_11PointXYZHSVENS_17PointXYZRGBNormalEED0Ev@Base 1.6
 (optional=templinst)_ZN3pcl28SampleConsensusModelCylinderINS_11PointXYZHSVENS_17PointXYZRGBNormalEED1Ev@Base 1.6
 (optional=templinst)_ZN3pcl28SampleConsensusModelCylinderINS_11PointXYZHSVENS_17PointXYZRGBNormalEED2Ev@Base 1.6
 (optional=templinst)_ZN3pcl28SampleConsensusModelCylinderINS_11PointXYZHSVENS_6NormalEE7setAxisERKN5Eigen6MatrixIfLi3ELi1ELi0ELi3ELi1EEE@Base 1.6
 (optional=templinst)_ZN3pcl28SampleConsensusModelCylinderINS_11PointXYZHSVENS_6NormalEEC1ERKN5boost10shared_ptrIKNS_10PointCloudIS1_EEEERKSt6vectorIiSaIiEE@Base 1.6
 (optional=templinst)_ZN3pcl28SampleConsensusModelCylinderINS_11PointXYZHSVENS_6NormalEEC2ERKN5boost10shared_ptrIKNS_10PointCloudIS1_EEEERKSt6vectorIiSaIiEE@Base 1.6
 (optional=templinst)_ZN3pcl28SampleConsensusModelCylinderINS_11PointXYZHSVENS_6NormalEED0Ev@Base 1.6
 (optional=templinst)_ZN3pcl28SampleConsensusModelCylinderINS_11PointXYZHSVENS_6NormalEED1Ev@Base 1.6
 (optional=templinst)_ZN3pcl28SampleConsensusModelCylinderINS_11PointXYZHSVENS_6NormalEED2Ev@Base 1.6
 (optional=templinst)_ZN3pcl28SampleConsensusModelCylinderINS_11PointXYZRGBENS_11PointNormalEE7setAxisERKN5Eigen6MatrixIfLi3ELi1ELi0ELi3ELi1EEE@Base 1.6
 (optional=templinst)_ZN3pcl28SampleConsensusModelCylinderINS_11PointXYZRGBENS_11PointNormalEEC1ERKN5boost10shared_ptrIKNS_10PointCloudIS1_EEEERKSt6vectorIiSaIiEE@Base 1.6
 (optional=templinst)_ZN3pcl28SampleConsensusModelCylinderINS_11PointXYZRGBENS_11PointNormalEEC2ERKN5boost10shared_ptrIKNS_10PointCloudIS1_EEEERKSt6vectorIiSaIiEE@Base 1.6
 (optional=templinst)_ZN3pcl28SampleConsensusModelCylinderINS_11PointXYZRGBENS_11PointNormalEED0Ev@Base 1.6
 (optional=templinst)_ZN3pcl28SampleConsensusModelCylinderINS_11PointXYZRGBENS_11PointNormalEED1Ev@Base 1.6
 (optional=templinst)_ZN3pcl28SampleConsensusModelCylinderINS_11PointXYZRGBENS_11PointNormalEED2Ev@Base 1.6
 (optional=templinst)_ZN3pcl28SampleConsensusModelCylinderINS_11PointXYZRGBENS_15PointXYZINormalEE7setAxisERKN5Eigen6MatrixIfLi3ELi1ELi0ELi3ELi1EEE@Base 1.6
 (optional=templinst)_ZN3pcl28SampleConsensusModelCylinderINS_11PointXYZRGBENS_15PointXYZINormalEEC1ERKN5boost10shared_ptrIKNS_10PointCloudIS1_EEEERKSt6vectorIiSaIiEE@Base 1.6
 (optional=templinst)_ZN3pcl28SampleConsensusModelCylinderINS_11PointXYZRGBENS_15PointXYZINormalEEC2ERKN5boost10shared_ptrIKNS_10PointCloudIS1_EEEERKSt6vectorIiSaIiEE@Base 1.6
 (optional=templinst)_ZN3pcl28SampleConsensusModelCylinderINS_11PointXYZRGBENS_15PointXYZINormalEED0Ev@Base 1.6
 (optional=templinst)_ZN3pcl28SampleConsensusModelCylinderINS_11PointXYZRGBENS_15PointXYZINormalEED1Ev@Base 1.6
 (optional=templinst)_ZN3pcl28SampleConsensusModelCylinderINS_11PointXYZRGBENS_15PointXYZINormalEED2Ev@Base 1.6
 (optional=templinst)_ZN3pcl28SampleConsensusModelCylinderINS_11PointXYZRGBENS_17PointXYZRGBNormalEE7setAxisERKN5Eigen6MatrixIfLi3ELi1ELi0ELi3ELi1EEE@Base 1.6
 (optional=templinst)_ZN3pcl28SampleConsensusModelCylinderINS_11PointXYZRGBENS_17PointXYZRGBNormalEEC1ERKN5boost10shared_ptrIKNS_10PointCloudIS1_EEEERKSt6vectorIiSaIiEE@Base 1.6
 (optional=templinst)_ZN3pcl28SampleConsensusModelCylinderINS_11PointXYZRGBENS_17PointXYZRGBNormalEEC2ERKN5boost10shared_ptrIKNS_10PointCloudIS1_EEEERKSt6vectorIiSaIiEE@Base 1.6
 (optional=templinst)_ZN3pcl28SampleConsensusModelCylinderINS_11PointXYZRGBENS_17PointXYZRGBNormalEED0Ev@Base 1.6
 (optional=templinst)_ZN3pcl28SampleConsensusModelCylinderINS_11PointXYZRGBENS_17PointXYZRGBNormalEED1Ev@Base 1.6
 (optional=templinst)_ZN3pcl28SampleConsensusModelCylinderINS_11PointXYZRGBENS_17PointXYZRGBNormalEED2Ev@Base 1.6
 (optional=templinst)_ZN3pcl28SampleConsensusModelCylinderINS_11PointXYZRGBENS_6NormalEE7setAxisERKN5Eigen6MatrixIfLi3ELi1ELi0ELi3ELi1EEE@Base 1.6
 (optional=templinst)_ZN3pcl28SampleConsensusModelCylinderINS_11PointXYZRGBENS_6NormalEEC1ERKN5boost10shared_ptrIKNS_10PointCloudIS1_EEEERKSt6vectorIiSaIiEE@Base 1.6
 (optional=templinst)_ZN3pcl28SampleConsensusModelCylinderINS_11PointXYZRGBENS_6NormalEEC2ERKN5boost10shared_ptrIKNS_10PointCloudIS1_EEEERKSt6vectorIiSaIiEE@Base 1.6
 (optional=templinst)_ZN3pcl28SampleConsensusModelCylinderINS_11PointXYZRGBENS_6NormalEED0Ev@Base 1.6
 (optional=templinst)_ZN3pcl28SampleConsensusModelCylinderINS_11PointXYZRGBENS_6NormalEED1Ev@Base 1.6
 (optional=templinst)_ZN3pcl28SampleConsensusModelCylinderINS_11PointXYZRGBENS_6NormalEED2Ev@Base 1.6
 (optional=templinst)_ZN3pcl28SampleConsensusModelCylinderINS_12PointXYZRGBAENS_11PointNormalEE7setAxisERKN5Eigen6MatrixIfLi3ELi1ELi0ELi3ELi1EEE@Base 1.6
 (optional=templinst)_ZN3pcl28SampleConsensusModelCylinderINS_12PointXYZRGBAENS_11PointNormalEEC1ERKN5boost10shared_ptrIKNS_10PointCloudIS1_EEEERKSt6vectorIiSaIiEE@Base 1.6
 (optional=templinst)_ZN3pcl28SampleConsensusModelCylinderINS_12PointXYZRGBAENS_11PointNormalEEC2ERKN5boost10shared_ptrIKNS_10PointCloudIS1_EEEERKSt6vectorIiSaIiEE@Base 1.6
 (optional=templinst)_ZN3pcl28SampleConsensusModelCylinderINS_12PointXYZRGBAENS_11PointNormalEED0Ev@Base 1.6
 (optional=templinst)_ZN3pcl28SampleConsensusModelCylinderINS_12PointXYZRGBAENS_11PointNormalEED1Ev@Base 1.6
 (optional=templinst)_ZN3pcl28SampleConsensusModelCylinderINS_12PointXYZRGBAENS_11PointNormalEED2Ev@Base 1.6
 (optional=templinst)_ZN3pcl28SampleConsensusModelCylinderINS_12PointXYZRGBAENS_15PointXYZINormalEE7setAxisERKN5Eigen6MatrixIfLi3ELi1ELi0ELi3ELi1EEE@Base 1.6
 (optional=templinst)_ZN3pcl28SampleConsensusModelCylinderINS_12PointXYZRGBAENS_15PointXYZINormalEEC1ERKN5boost10shared_ptrIKNS_10PointCloudIS1_EEEERKSt6vectorIiSaIiEE@Base 1.6
 (optional=templinst)_ZN3pcl28SampleConsensusModelCylinderINS_12PointXYZRGBAENS_15PointXYZINormalEEC2ERKN5boost10shared_ptrIKNS_10PointCloudIS1_EEEERKSt6vectorIiSaIiEE@Base 1.6
 (optional=templinst)_ZN3pcl28SampleConsensusModelCylinderINS_12PointXYZRGBAENS_15PointXYZINormalEED0Ev@Base 1.6
 (optional=templinst)_ZN3pcl28SampleConsensusModelCylinderINS_12PointXYZRGBAENS_15PointXYZINormalEED1Ev@Base 1.6
 (optional=templinst)_ZN3pcl28SampleConsensusModelCylinderINS_12PointXYZRGBAENS_15PointXYZINormalEED2Ev@Base 1.6
 (optional=templinst)_ZN3pcl28SampleConsensusModelCylinderINS_12PointXYZRGBAENS_17PointXYZRGBNormalEE7setAxisERKN5Eigen6MatrixIfLi3ELi1ELi0ELi3ELi1EEE@Base 1.6
 (optional=templinst)_ZN3pcl28SampleConsensusModelCylinderINS_12PointXYZRGBAENS_17PointXYZRGBNormalEEC1ERKN5boost10shared_ptrIKNS_10PointCloudIS1_EEEERKSt6vectorIiSaIiEE@Base 1.6
 (optional=templinst)_ZN3pcl28SampleConsensusModelCylinderINS_12PointXYZRGBAENS_17PointXYZRGBNormalEEC2ERKN5boost10shared_ptrIKNS_10PointCloudIS1_EEEERKSt6vectorIiSaIiEE@Base 1.6
 (optional=templinst)_ZN3pcl28SampleConsensusModelCylinderINS_12PointXYZRGBAENS_17PointXYZRGBNormalEED0Ev@Base 1.6
 (optional=templinst)_ZN3pcl28SampleConsensusModelCylinderINS_12PointXYZRGBAENS_17PointXYZRGBNormalEED1Ev@Base 1.6
 (optional=templinst)_ZN3pcl28SampleConsensusModelCylinderINS_12PointXYZRGBAENS_17PointXYZRGBNormalEED2Ev@Base 1.6
 (optional=templinst)_ZN3pcl28SampleConsensusModelCylinderINS_12PointXYZRGBAENS_6NormalEE7setAxisERKN5Eigen6MatrixIfLi3ELi1ELi0ELi3ELi1EEE@Base 1.6
 (optional=templinst)_ZN3pcl28SampleConsensusModelCylinderINS_12PointXYZRGBAENS_6NormalEEC1ERKN5boost10shared_ptrIKNS_10PointCloudIS1_EEEERKSt6vectorIiSaIiEE@Base 1.6
 (optional=templinst)_ZN3pcl28SampleConsensusModelCylinderINS_12PointXYZRGBAENS_6NormalEEC2ERKN5boost10shared_ptrIKNS_10PointCloudIS1_EEEERKSt6vectorIiSaIiEE@Base 1.6
 (optional=templinst)_ZN3pcl28SampleConsensusModelCylinderINS_12PointXYZRGBAENS_6NormalEED0Ev@Base 1.6
 (optional=templinst)_ZN3pcl28SampleConsensusModelCylinderINS_12PointXYZRGBAENS_6NormalEED1Ev@Base 1.6
 (optional=templinst)_ZN3pcl28SampleConsensusModelCylinderINS_12PointXYZRGBAENS_6NormalEED2Ev@Base 1.6
 (optional=templinst)_ZN3pcl28SampleConsensusModelCylinderINS_12PointXYZRGBLENS_11PointNormalEE7setAxisERKN5Eigen6MatrixIfLi3ELi1ELi0ELi3ELi1EEE@Base 1.6
 (optional=templinst)_ZN3pcl28SampleConsensusModelCylinderINS_12PointXYZRGBLENS_11PointNormalEEC1ERKN5boost10shared_ptrIKNS_10PointCloudIS1_EEEERKSt6vectorIiSaIiEE@Base 1.6
 (optional=templinst)_ZN3pcl28SampleConsensusModelCylinderINS_12PointXYZRGBLENS_11PointNormalEEC2ERKN5boost10shared_ptrIKNS_10PointCloudIS1_EEEERKSt6vectorIiSaIiEE@Base 1.6
 (optional=templinst)_ZN3pcl28SampleConsensusModelCylinderINS_12PointXYZRGBLENS_11PointNormalEED0Ev@Base 1.6
 (optional=templinst)_ZN3pcl28SampleConsensusModelCylinderINS_12PointXYZRGBLENS_11PointNormalEED1Ev@Base 1.6
 (optional=templinst)_ZN3pcl28SampleConsensusModelCylinderINS_12PointXYZRGBLENS_11PointNormalEED2Ev@Base 1.6
 (optional=templinst)_ZN3pcl28SampleConsensusModelCylinderINS_12PointXYZRGBLENS_15PointXYZINormalEE7setAxisERKN5Eigen6MatrixIfLi3ELi1ELi0ELi3ELi1EEE@Base 1.6
 (optional=templinst)_ZN3pcl28SampleConsensusModelCylinderINS_12PointXYZRGBLENS_15PointXYZINormalEEC1ERKN5boost10shared_ptrIKNS_10PointCloudIS1_EEEERKSt6vectorIiSaIiEE@Base 1.6
 (optional=templinst)_ZN3pcl28SampleConsensusModelCylinderINS_12PointXYZRGBLENS_15PointXYZINormalEEC2ERKN5boost10shared_ptrIKNS_10PointCloudIS1_EEEERKSt6vectorIiSaIiEE@Base 1.6
 (optional=templinst)_ZN3pcl28SampleConsensusModelCylinderINS_12PointXYZRGBLENS_15PointXYZINormalEED0Ev@Base 1.6
 (optional=templinst)_ZN3pcl28SampleConsensusModelCylinderINS_12PointXYZRGBLENS_15PointXYZINormalEED1Ev@Base 1.6
 (optional=templinst)_ZN3pcl28SampleConsensusModelCylinderINS_12PointXYZRGBLENS_15PointXYZINormalEED2Ev@Base 1.6
 (optional=templinst)_ZN3pcl28SampleConsensusModelCylinderINS_12PointXYZRGBLENS_17PointXYZRGBNormalEE7setAxisERKN5Eigen6MatrixIfLi3ELi1ELi0ELi3ELi1EEE@Base 1.6
 (optional=templinst)_ZN3pcl28SampleConsensusModelCylinderINS_12PointXYZRGBLENS_17PointXYZRGBNormalEEC1ERKN5boost10shared_ptrIKNS_10PointCloudIS1_EEEERKSt6vectorIiSaIiEE@Base 1.6
 (optional=templinst)_ZN3pcl28SampleConsensusModelCylinderINS_12PointXYZRGBLENS_17PointXYZRGBNormalEEC2ERKN5boost10shared_ptrIKNS_10PointCloudIS1_EEEERKSt6vectorIiSaIiEE@Base 1.6
 (optional=templinst)_ZN3pcl28SampleConsensusModelCylinderINS_12PointXYZRGBLENS_17PointXYZRGBNormalEED0Ev@Base 1.6
 (optional=templinst)_ZN3pcl28SampleConsensusModelCylinderINS_12PointXYZRGBLENS_17PointXYZRGBNormalEED1Ev@Base 1.6
 (optional=templinst)_ZN3pcl28SampleConsensusModelCylinderINS_12PointXYZRGBLENS_17PointXYZRGBNormalEED2Ev@Base 1.6
 (optional=templinst)_ZN3pcl28SampleConsensusModelCylinderINS_12PointXYZRGBLENS_6NormalEE7setAxisERKN5Eigen6MatrixIfLi3ELi1ELi0ELi3ELi1EEE@Base 1.6
 (optional=templinst)_ZN3pcl28SampleConsensusModelCylinderINS_12PointXYZRGBLENS_6NormalEEC1ERKN5boost10shared_ptrIKNS_10PointCloudIS1_EEEERKSt6vectorIiSaIiEE@Base 1.6
 (optional=templinst)_ZN3pcl28SampleConsensusModelCylinderINS_12PointXYZRGBLENS_6NormalEEC2ERKN5boost10shared_ptrIKNS_10PointCloudIS1_EEEERKSt6vectorIiSaIiEE@Base 1.6
 (optional=templinst)_ZN3pcl28SampleConsensusModelCylinderINS_12PointXYZRGBLENS_6NormalEED0Ev@Base 1.6
 (optional=templinst)_ZN3pcl28SampleConsensusModelCylinderINS_12PointXYZRGBLENS_6NormalEED1Ev@Base 1.6
 (optional=templinst)_ZN3pcl28SampleConsensusModelCylinderINS_12PointXYZRGBLENS_6NormalEED2Ev@Base 1.6
 (optional=templinst)_ZN3pcl28SampleConsensusModelCylinderINS_13InterestPointENS_11PointNormalEE7setAxisERKN5Eigen6MatrixIfLi3ELi1ELi0ELi3ELi1EEE@Base 1.6
 (optional=templinst)_ZN3pcl28SampleConsensusModelCylinderINS_13InterestPointENS_11PointNormalEEC1ERKN5boost10shared_ptrIKNS_10PointCloudIS1_EEEERKSt6vectorIiSaIiEE@Base 1.6
 (optional=templinst)_ZN3pcl28SampleConsensusModelCylinderINS_13InterestPointENS_11PointNormalEEC2ERKN5boost10shared_ptrIKNS_10PointCloudIS1_EEEERKSt6vectorIiSaIiEE@Base 1.6
 (optional=templinst)_ZN3pcl28SampleConsensusModelCylinderINS_13InterestPointENS_11PointNormalEED0Ev@Base 1.6
 (optional=templinst)_ZN3pcl28SampleConsensusModelCylinderINS_13InterestPointENS_11PointNormalEED1Ev@Base 1.6
 (optional=templinst)_ZN3pcl28SampleConsensusModelCylinderINS_13InterestPointENS_11PointNormalEED2Ev@Base 1.6
 (optional=templinst)_ZN3pcl28SampleConsensusModelCylinderINS_13InterestPointENS_15PointXYZINormalEE7setAxisERKN5Eigen6MatrixIfLi3ELi1ELi0ELi3ELi1EEE@Base 1.6
 (optional=templinst)_ZN3pcl28SampleConsensusModelCylinderINS_13InterestPointENS_15PointXYZINormalEEC1ERKN5boost10shared_ptrIKNS_10PointCloudIS1_EEEERKSt6vectorIiSaIiEE@Base 1.6
 (optional=templinst)_ZN3pcl28SampleConsensusModelCylinderINS_13InterestPointENS_15PointXYZINormalEEC2ERKN5boost10shared_ptrIKNS_10PointCloudIS1_EEEERKSt6vectorIiSaIiEE@Base 1.6
 (optional=templinst)_ZN3pcl28SampleConsensusModelCylinderINS_13InterestPointENS_15PointXYZINormalEED0Ev@Base 1.6
 (optional=templinst)_ZN3pcl28SampleConsensusModelCylinderINS_13InterestPointENS_15PointXYZINormalEED1Ev@Base 1.6
 (optional=templinst)_ZN3pcl28SampleConsensusModelCylinderINS_13InterestPointENS_15PointXYZINormalEED2Ev@Base 1.6
 (optional=templinst)_ZN3pcl28SampleConsensusModelCylinderINS_13InterestPointENS_17PointXYZRGBNormalEE7setAxisERKN5Eigen6MatrixIfLi3ELi1ELi0ELi3ELi1EEE@Base 1.6
 (optional=templinst)_ZN3pcl28SampleConsensusModelCylinderINS_13InterestPointENS_17PointXYZRGBNormalEEC1ERKN5boost10shared_ptrIKNS_10PointCloudIS1_EEEERKSt6vectorIiSaIiEE@Base 1.6
 (optional=templinst)_ZN3pcl28SampleConsensusModelCylinderINS_13InterestPointENS_17PointXYZRGBNormalEEC2ERKN5boost10shared_ptrIKNS_10PointCloudIS1_EEEERKSt6vectorIiSaIiEE@Base 1.6
 (optional=templinst)_ZN3pcl28SampleConsensusModelCylinderINS_13InterestPointENS_17PointXYZRGBNormalEED0Ev@Base 1.6
 (optional=templinst)_ZN3pcl28SampleConsensusModelCylinderINS_13InterestPointENS_17PointXYZRGBNormalEED1Ev@Base 1.6
 (optional=templinst)_ZN3pcl28SampleConsensusModelCylinderINS_13InterestPointENS_17PointXYZRGBNormalEED2Ev@Base 1.6
 (optional=templinst)_ZN3pcl28SampleConsensusModelCylinderINS_13InterestPointENS_6NormalEE7setAxisERKN5Eigen6MatrixIfLi3ELi1ELi0ELi3ELi1EEE@Base 1.6
 (optional=templinst)_ZN3pcl28SampleConsensusModelCylinderINS_13InterestPointENS_6NormalEEC1ERKN5boost10shared_ptrIKNS_10PointCloudIS1_EEEERKSt6vectorIiSaIiEE@Base 1.6
 (optional=templinst)_ZN3pcl28SampleConsensusModelCylinderINS_13InterestPointENS_6NormalEEC2ERKN5boost10shared_ptrIKNS_10PointCloudIS1_EEEERKSt6vectorIiSaIiEE@Base 1.6
 (optional=templinst)_ZN3pcl28SampleConsensusModelCylinderINS_13InterestPointENS_6NormalEED0Ev@Base 1.6
 (optional=templinst)_ZN3pcl28SampleConsensusModelCylinderINS_13InterestPointENS_6NormalEED1Ev@Base 1.6
 (optional=templinst)_ZN3pcl28SampleConsensusModelCylinderINS_13InterestPointENS_6NormalEED2Ev@Base 1.6
 (optional=templinst)_ZN3pcl28SampleConsensusModelCylinderINS_14PointWithRangeENS_11PointNormalEE7setAxisERKN5Eigen6MatrixIfLi3ELi1ELi0ELi3ELi1EEE@Base 1.6
 (optional=templinst)_ZN3pcl28SampleConsensusModelCylinderINS_14PointWithRangeENS_11PointNormalEEC1ERKN5boost10shared_ptrIKNS_10PointCloudIS1_EEEERKSt6vectorIiSaIiEE@Base 1.6
 (optional=templinst)_ZN3pcl28SampleConsensusModelCylinderINS_14PointWithRangeENS_11PointNormalEEC2ERKN5boost10shared_ptrIKNS_10PointCloudIS1_EEEERKSt6vectorIiSaIiEE@Base 1.6
 (optional=templinst)_ZN3pcl28SampleConsensusModelCylinderINS_14PointWithRangeENS_11PointNormalEED0Ev@Base 1.6
 (optional=templinst)_ZN3pcl28SampleConsensusModelCylinderINS_14PointWithRangeENS_11PointNormalEED1Ev@Base 1.6
 (optional=templinst)_ZN3pcl28SampleConsensusModelCylinderINS_14PointWithRangeENS_11PointNormalEED2Ev@Base 1.6
 (optional=templinst)_ZN3pcl28SampleConsensusModelCylinderINS_14PointWithRangeENS_15PointXYZINormalEE7setAxisERKN5Eigen6MatrixIfLi3ELi1ELi0ELi3ELi1EEE@Base 1.6
 (optional=templinst)_ZN3pcl28SampleConsensusModelCylinderINS_14PointWithRangeENS_15PointXYZINormalEEC1ERKN5boost10shared_ptrIKNS_10PointCloudIS1_EEEERKSt6vectorIiSaIiEE@Base 1.6
 (optional=templinst)_ZN3pcl28SampleConsensusModelCylinderINS_14PointWithRangeENS_15PointXYZINormalEEC2ERKN5boost10shared_ptrIKNS_10PointCloudIS1_EEEERKSt6vectorIiSaIiEE@Base 1.6
 (optional=templinst)_ZN3pcl28SampleConsensusModelCylinderINS_14PointWithRangeENS_15PointXYZINormalEED0Ev@Base 1.6
 (optional=templinst)_ZN3pcl28SampleConsensusModelCylinderINS_14PointWithRangeENS_15PointXYZINormalEED1Ev@Base 1.6
 (optional=templinst)_ZN3pcl28SampleConsensusModelCylinderINS_14PointWithRangeENS_15PointXYZINormalEED2Ev@Base 1.6
 (optional=templinst)_ZN3pcl28SampleConsensusModelCylinderINS_14PointWithRangeENS_17PointXYZRGBNormalEE7setAxisERKN5Eigen6MatrixIfLi3ELi1ELi0ELi3ELi1EEE@Base 1.6
 (optional=templinst)_ZN3pcl28SampleConsensusModelCylinderINS_14PointWithRangeENS_17PointXYZRGBNormalEEC1ERKN5boost10shared_ptrIKNS_10PointCloudIS1_EEEERKSt6vectorIiSaIiEE@Base 1.6
 (optional=templinst)_ZN3pcl28SampleConsensusModelCylinderINS_14PointWithRangeENS_17PointXYZRGBNormalEEC2ERKN5boost10shared_ptrIKNS_10PointCloudIS1_EEEERKSt6vectorIiSaIiEE@Base 1.6
 (optional=templinst)_ZN3pcl28SampleConsensusModelCylinderINS_14PointWithRangeENS_17PointXYZRGBNormalEED0Ev@Base 1.6
 (optional=templinst)_ZN3pcl28SampleConsensusModelCylinderINS_14PointWithRangeENS_17PointXYZRGBNormalEED1Ev@Base 1.6
 (optional=templinst)_ZN3pcl28SampleConsensusModelCylinderINS_14PointWithRangeENS_17PointXYZRGBNormalEED2Ev@Base 1.6
 (optional=templinst)_ZN3pcl28SampleConsensusModelCylinderINS_14PointWithRangeENS_6NormalEE7setAxisERKN5Eigen6MatrixIfLi3ELi1ELi0ELi3ELi1EEE@Base 1.6
 (optional=templinst)_ZN3pcl28SampleConsensusModelCylinderINS_14PointWithRangeENS_6NormalEEC1ERKN5boost10shared_ptrIKNS_10PointCloudIS1_EEEERKSt6vectorIiSaIiEE@Base 1.6
 (optional=templinst)_ZN3pcl28SampleConsensusModelCylinderINS_14PointWithRangeENS_6NormalEEC2ERKN5boost10shared_ptrIKNS_10PointCloudIS1_EEEERKSt6vectorIiSaIiEE@Base 1.6
 (optional=templinst)_ZN3pcl28SampleConsensusModelCylinderINS_14PointWithRangeENS_6NormalEED0Ev@Base 1.6
 (optional=templinst)_ZN3pcl28SampleConsensusModelCylinderINS_14PointWithRangeENS_6NormalEED1Ev@Base 1.6
 (optional=templinst)_ZN3pcl28SampleConsensusModelCylinderINS_14PointWithRangeENS_6NormalEED2Ev@Base 1.6
 (optional=templinst)_ZN3pcl28SampleConsensusModelCylinderINS_14PointWithScaleENS_11PointNormalEE7setAxisERKN5Eigen6MatrixIfLi3ELi1ELi0ELi3ELi1EEE@Base 1.6
 (optional=templinst)_ZN3pcl28SampleConsensusModelCylinderINS_14PointWithScaleENS_11PointNormalEEC1ERKN5boost10shared_ptrIKNS_10PointCloudIS1_EEEERKSt6vectorIiSaIiEE@Base 1.6
 (optional=templinst)_ZN3pcl28SampleConsensusModelCylinderINS_14PointWithScaleENS_11PointNormalEEC2ERKN5boost10shared_ptrIKNS_10PointCloudIS1_EEEERKSt6vectorIiSaIiEE@Base 1.6
 (optional=templinst)_ZN3pcl28SampleConsensusModelCylinderINS_14PointWithScaleENS_11PointNormalEED0Ev@Base 1.6
 (optional=templinst)_ZN3pcl28SampleConsensusModelCylinderINS_14PointWithScaleENS_11PointNormalEED1Ev@Base 1.6
 (optional=templinst)_ZN3pcl28SampleConsensusModelCylinderINS_14PointWithScaleENS_11PointNormalEED2Ev@Base 1.6
 (optional=templinst)_ZN3pcl28SampleConsensusModelCylinderINS_14PointWithScaleENS_15PointXYZINormalEE7setAxisERKN5Eigen6MatrixIfLi3ELi1ELi0ELi3ELi1EEE@Base 1.6
 (optional=templinst)_ZN3pcl28SampleConsensusModelCylinderINS_14PointWithScaleENS_15PointXYZINormalEEC1ERKN5boost10shared_ptrIKNS_10PointCloudIS1_EEEERKSt6vectorIiSaIiEE@Base 1.6
 (optional=templinst)_ZN3pcl28SampleConsensusModelCylinderINS_14PointWithScaleENS_15PointXYZINormalEEC2ERKN5boost10shared_ptrIKNS_10PointCloudIS1_EEEERKSt6vectorIiSaIiEE@Base 1.6
 (optional=templinst)_ZN3pcl28SampleConsensusModelCylinderINS_14PointWithScaleENS_15PointXYZINormalEED0Ev@Base 1.6
 (optional=templinst)_ZN3pcl28SampleConsensusModelCylinderINS_14PointWithScaleENS_15PointXYZINormalEED1Ev@Base 1.6
 (optional=templinst)_ZN3pcl28SampleConsensusModelCylinderINS_14PointWithScaleENS_15PointXYZINormalEED2Ev@Base 1.6
 (optional=templinst)_ZN3pcl28SampleConsensusModelCylinderINS_14PointWithScaleENS_17PointXYZRGBNormalEE7setAxisERKN5Eigen6MatrixIfLi3ELi1ELi0ELi3ELi1EEE@Base 1.6
 (optional=templinst)_ZN3pcl28SampleConsensusModelCylinderINS_14PointWithScaleENS_17PointXYZRGBNormalEEC1ERKN5boost10shared_ptrIKNS_10PointCloudIS1_EEEERKSt6vectorIiSaIiEE@Base 1.6
 (optional=templinst)_ZN3pcl28SampleConsensusModelCylinderINS_14PointWithScaleENS_17PointXYZRGBNormalEEC2ERKN5boost10shared_ptrIKNS_10PointCloudIS1_EEEERKSt6vectorIiSaIiEE@Base 1.6
 (optional=templinst)_ZN3pcl28SampleConsensusModelCylinderINS_14PointWithScaleENS_17PointXYZRGBNormalEED0Ev@Base 1.6
 (optional=templinst)_ZN3pcl28SampleConsensusModelCylinderINS_14PointWithScaleENS_17PointXYZRGBNormalEED1Ev@Base 1.6
 (optional=templinst)_ZN3pcl28SampleConsensusModelCylinderINS_14PointWithScaleENS_17PointXYZRGBNormalEED2Ev@Base 1.6
 (optional=templinst)_ZN3pcl28SampleConsensusModelCylinderINS_14PointWithScaleENS_6NormalEE7setAxisERKN5Eigen6MatrixIfLi3ELi1ELi0ELi3ELi1EEE@Base 1.6
 (optional=templinst)_ZN3pcl28SampleConsensusModelCylinderINS_14PointWithScaleENS_6NormalEEC1ERKN5boost10shared_ptrIKNS_10PointCloudIS1_EEEERKSt6vectorIiSaIiEE@Base 1.6
 (optional=templinst)_ZN3pcl28SampleConsensusModelCylinderINS_14PointWithScaleENS_6NormalEEC2ERKN5boost10shared_ptrIKNS_10PointCloudIS1_EEEERKSt6vectorIiSaIiEE@Base 1.6
 (optional=templinst)_ZN3pcl28SampleConsensusModelCylinderINS_14PointWithScaleENS_6NormalEED0Ev@Base 1.6
 (optional=templinst)_ZN3pcl28SampleConsensusModelCylinderINS_14PointWithScaleENS_6NormalEED1Ev@Base 1.6
 (optional=templinst)_ZN3pcl28SampleConsensusModelCylinderINS_14PointWithScaleENS_6NormalEED2Ev@Base 1.6
 (optional=templinst)_ZN3pcl28SampleConsensusModelCylinderINS_15PointXYZINormalENS_11PointNormalEE7setAxisERKN5Eigen6MatrixIfLi3ELi1ELi0ELi3ELi1EEE@Base 1.6
 (optional=templinst)_ZN3pcl28SampleConsensusModelCylinderINS_15PointXYZINormalENS_11PointNormalEEC1ERKN5boost10shared_ptrIKNS_10PointCloudIS1_EEEERKSt6vectorIiSaIiEE@Base 1.6
 (optional=templinst)_ZN3pcl28SampleConsensusModelCylinderINS_15PointXYZINormalENS_11PointNormalEEC2ERKN5boost10shared_ptrIKNS_10PointCloudIS1_EEEERKSt6vectorIiSaIiEE@Base 1.6
 (optional=templinst)_ZN3pcl28SampleConsensusModelCylinderINS_15PointXYZINormalENS_11PointNormalEED0Ev@Base 1.6
 (optional=templinst)_ZN3pcl28SampleConsensusModelCylinderINS_15PointXYZINormalENS_11PointNormalEED1Ev@Base 1.6
 (optional=templinst)_ZN3pcl28SampleConsensusModelCylinderINS_15PointXYZINormalENS_11PointNormalEED2Ev@Base 1.6
 (optional=templinst)_ZN3pcl28SampleConsensusModelCylinderINS_15PointXYZINormalENS_17PointXYZRGBNormalEE7setAxisERKN5Eigen6MatrixIfLi3ELi1ELi0ELi3ELi1EEE@Base 1.6
 (optional=templinst)_ZN3pcl28SampleConsensusModelCylinderINS_15PointXYZINormalENS_17PointXYZRGBNormalEEC1ERKN5boost10shared_ptrIKNS_10PointCloudIS1_EEEERKSt6vectorIiSaIiEE@Base 1.6
 (optional=templinst)_ZN3pcl28SampleConsensusModelCylinderINS_15PointXYZINormalENS_17PointXYZRGBNormalEEC2ERKN5boost10shared_ptrIKNS_10PointCloudIS1_EEEERKSt6vectorIiSaIiEE@Base 1.6
 (optional=templinst)_ZN3pcl28SampleConsensusModelCylinderINS_15PointXYZINormalENS_17PointXYZRGBNormalEED0Ev@Base 1.6
 (optional=templinst)_ZN3pcl28SampleConsensusModelCylinderINS_15PointXYZINormalENS_17PointXYZRGBNormalEED1Ev@Base 1.6
 (optional=templinst)_ZN3pcl28SampleConsensusModelCylinderINS_15PointXYZINormalENS_17PointXYZRGBNormalEED2Ev@Base 1.6
 (optional=templinst)_ZN3pcl28SampleConsensusModelCylinderINS_15PointXYZINormalENS_6NormalEE7setAxisERKN5Eigen6MatrixIfLi3ELi1ELi0ELi3ELi1EEE@Base 1.6
 (optional=templinst)_ZN3pcl28SampleConsensusModelCylinderINS_15PointXYZINormalENS_6NormalEEC1ERKN5boost10shared_ptrIKNS_10PointCloudIS1_EEEERKSt6vectorIiSaIiEE@Base 1.6
 (optional=templinst)_ZN3pcl28SampleConsensusModelCylinderINS_15PointXYZINormalENS_6NormalEEC2ERKN5boost10shared_ptrIKNS_10PointCloudIS1_EEEERKSt6vectorIiSaIiEE@Base 1.6
 (optional=templinst)_ZN3pcl28SampleConsensusModelCylinderINS_15PointXYZINormalENS_6NormalEED0Ev@Base 1.6
 (optional=templinst)_ZN3pcl28SampleConsensusModelCylinderINS_15PointXYZINormalENS_6NormalEED1Ev@Base 1.6
 (optional=templinst)_ZN3pcl28SampleConsensusModelCylinderINS_15PointXYZINormalENS_6NormalEED2Ev@Base 1.6
 (optional=templinst)_ZN3pcl28SampleConsensusModelCylinderINS_15PointXYZINormalES1_E7setAxisERKN5Eigen6MatrixIfLi3ELi1ELi0ELi3ELi1EEE@Base 1.6
 (optional=templinst)_ZN3pcl28SampleConsensusModelCylinderINS_15PointXYZINormalES1_EC1ERKN5boost10shared_ptrIKNS_10PointCloudIS1_EEEERKSt6vectorIiSaIiEE@Base 1.6
 (optional=templinst)_ZN3pcl28SampleConsensusModelCylinderINS_15PointXYZINormalES1_EC2ERKN5boost10shared_ptrIKNS_10PointCloudIS1_EEEERKSt6vectorIiSaIiEE@Base 1.6
 (optional=templinst)_ZN3pcl28SampleConsensusModelCylinderINS_15PointXYZINormalES1_ED0Ev@Base 1.6
 (optional=templinst)_ZN3pcl28SampleConsensusModelCylinderINS_15PointXYZINormalES1_ED1Ev@Base 1.6
 (optional=templinst)_ZN3pcl28SampleConsensusModelCylinderINS_15PointXYZINormalES1_ED2Ev@Base 1.6
 (optional=templinst)_ZN3pcl28SampleConsensusModelCylinderINS_17PointXYZRGBNormalENS_11PointNormalEE7setAxisERKN5Eigen6MatrixIfLi3ELi1ELi0ELi3ELi1EEE@Base 1.6
 (optional=templinst)_ZN3pcl28SampleConsensusModelCylinderINS_17PointXYZRGBNormalENS_11PointNormalEEC1ERKN5boost10shared_ptrIKNS_10PointCloudIS1_EEEERKSt6vectorIiSaIiEE@Base 1.6
 (optional=templinst)_ZN3pcl28SampleConsensusModelCylinderINS_17PointXYZRGBNormalENS_11PointNormalEEC2ERKN5boost10shared_ptrIKNS_10PointCloudIS1_EEEERKSt6vectorIiSaIiEE@Base 1.6
 (optional=templinst)_ZN3pcl28SampleConsensusModelCylinderINS_17PointXYZRGBNormalENS_11PointNormalEED0Ev@Base 1.6
 (optional=templinst)_ZN3pcl28SampleConsensusModelCylinderINS_17PointXYZRGBNormalENS_11PointNormalEED1Ev@Base 1.6
 (optional=templinst)_ZN3pcl28SampleConsensusModelCylinderINS_17PointXYZRGBNormalENS_11PointNormalEED2Ev@Base 1.6
 (optional=templinst)_ZN3pcl28SampleConsensusModelCylinderINS_17PointXYZRGBNormalENS_15PointXYZINormalEE7setAxisERKN5Eigen6MatrixIfLi3ELi1ELi0ELi3ELi1EEE@Base 1.6
 (optional=templinst)_ZN3pcl28SampleConsensusModelCylinderINS_17PointXYZRGBNormalENS_15PointXYZINormalEEC1ERKN5boost10shared_ptrIKNS_10PointCloudIS1_EEEERKSt6vectorIiSaIiEE@Base 1.6
 (optional=templinst)_ZN3pcl28SampleConsensusModelCylinderINS_17PointXYZRGBNormalENS_15PointXYZINormalEEC2ERKN5boost10shared_ptrIKNS_10PointCloudIS1_EEEERKSt6vectorIiSaIiEE@Base 1.6
 (optional=templinst)_ZN3pcl28SampleConsensusModelCylinderINS_17PointXYZRGBNormalENS_15PointXYZINormalEED0Ev@Base 1.6
 (optional=templinst)_ZN3pcl28SampleConsensusModelCylinderINS_17PointXYZRGBNormalENS_15PointXYZINormalEED1Ev@Base 1.6
 (optional=templinst)_ZN3pcl28SampleConsensusModelCylinderINS_17PointXYZRGBNormalENS_15PointXYZINormalEED2Ev@Base 1.6
 (optional=templinst)_ZN3pcl28SampleConsensusModelCylinderINS_17PointXYZRGBNormalENS_6NormalEE7setAxisERKN5Eigen6MatrixIfLi3ELi1ELi0ELi3ELi1EEE@Base 1.6
 (optional=templinst)_ZN3pcl28SampleConsensusModelCylinderINS_17PointXYZRGBNormalENS_6NormalEEC1ERKN5boost10shared_ptrIKNS_10PointCloudIS1_EEEERKSt6vectorIiSaIiEE@Base 1.6
 (optional=templinst)_ZN3pcl28SampleConsensusModelCylinderINS_17PointXYZRGBNormalENS_6NormalEEC2ERKN5boost10shared_ptrIKNS_10PointCloudIS1_EEEERKSt6vectorIiSaIiEE@Base 1.6
 (optional=templinst)_ZN3pcl28SampleConsensusModelCylinderINS_17PointXYZRGBNormalENS_6NormalEED0Ev@Base 1.6
 (optional=templinst)_ZN3pcl28SampleConsensusModelCylinderINS_17PointXYZRGBNormalENS_6NormalEED1Ev@Base 1.6
 (optional=templinst)_ZN3pcl28SampleConsensusModelCylinderINS_17PointXYZRGBNormalENS_6NormalEED2Ev@Base 1.6
 (optional=templinst)_ZN3pcl28SampleConsensusModelCylinderINS_17PointXYZRGBNormalES1_E7setAxisERKN5Eigen6MatrixIfLi3ELi1ELi0ELi3ELi1EEE@Base 1.6
 (optional=templinst)_ZN3pcl28SampleConsensusModelCylinderINS_17PointXYZRGBNormalES1_EC1ERKN5boost10shared_ptrIKNS_10PointCloudIS1_EEEERKSt6vectorIiSaIiEE@Base 1.6
 (optional=templinst)_ZN3pcl28SampleConsensusModelCylinderINS_17PointXYZRGBNormalES1_EC2ERKN5boost10shared_ptrIKNS_10PointCloudIS1_EEEERKSt6vectorIiSaIiEE@Base 1.6
 (optional=templinst)_ZN3pcl28SampleConsensusModelCylinderINS_17PointXYZRGBNormalES1_ED0Ev@Base 1.6
 (optional=templinst)_ZN3pcl28SampleConsensusModelCylinderINS_17PointXYZRGBNormalES1_ED1Ev@Base 1.6
 (optional=templinst)_ZN3pcl28SampleConsensusModelCylinderINS_17PointXYZRGBNormalES1_ED2Ev@Base 1.6
 (optional=templinst)_ZN3pcl28SampleConsensusModelCylinderINS_18PointWithViewpointENS_11PointNormalEE7setAxisERKN5Eigen6MatrixIfLi3ELi1ELi0ELi3ELi1EEE@Base 1.6
 (optional=templinst)_ZN3pcl28SampleConsensusModelCylinderINS_18PointWithViewpointENS_11PointNormalEEC1ERKN5boost10shared_ptrIKNS_10PointCloudIS1_EEEERKSt6vectorIiSaIiEE@Base 1.6
 (optional=templinst)_ZN3pcl28SampleConsensusModelCylinderINS_18PointWithViewpointENS_11PointNormalEEC2ERKN5boost10shared_ptrIKNS_10PointCloudIS1_EEEERKSt6vectorIiSaIiEE@Base 1.6
 (optional=templinst)_ZN3pcl28SampleConsensusModelCylinderINS_18PointWithViewpointENS_11PointNormalEED0Ev@Base 1.6
 (optional=templinst)_ZN3pcl28SampleConsensusModelCylinderINS_18PointWithViewpointENS_11PointNormalEED1Ev@Base 1.6
 (optional=templinst)_ZN3pcl28SampleConsensusModelCylinderINS_18PointWithViewpointENS_11PointNormalEED2Ev@Base 1.6
 (optional=templinst)_ZN3pcl28SampleConsensusModelCylinderINS_18PointWithViewpointENS_15PointXYZINormalEE7setAxisERKN5Eigen6MatrixIfLi3ELi1ELi0ELi3ELi1EEE@Base 1.6
 (optional=templinst)_ZN3pcl28SampleConsensusModelCylinderINS_18PointWithViewpointENS_15PointXYZINormalEEC1ERKN5boost10shared_ptrIKNS_10PointCloudIS1_EEEERKSt6vectorIiSaIiEE@Base 1.6
 (optional=templinst)_ZN3pcl28SampleConsensusModelCylinderINS_18PointWithViewpointENS_15PointXYZINormalEEC2ERKN5boost10shared_ptrIKNS_10PointCloudIS1_EEEERKSt6vectorIiSaIiEE@Base 1.6
 (optional=templinst)_ZN3pcl28SampleConsensusModelCylinderINS_18PointWithViewpointENS_15PointXYZINormalEED0Ev@Base 1.6
 (optional=templinst)_ZN3pcl28SampleConsensusModelCylinderINS_18PointWithViewpointENS_15PointXYZINormalEED1Ev@Base 1.6
 (optional=templinst)_ZN3pcl28SampleConsensusModelCylinderINS_18PointWithViewpointENS_15PointXYZINormalEED2Ev@Base 1.6
 (optional=templinst)_ZN3pcl28SampleConsensusModelCylinderINS_18PointWithViewpointENS_17PointXYZRGBNormalEE7setAxisERKN5Eigen6MatrixIfLi3ELi1ELi0ELi3ELi1EEE@Base 1.6
 (optional=templinst)_ZN3pcl28SampleConsensusModelCylinderINS_18PointWithViewpointENS_17PointXYZRGBNormalEEC1ERKN5boost10shared_ptrIKNS_10PointCloudIS1_EEEERKSt6vectorIiSaIiEE@Base 1.6
 (optional=templinst)_ZN3pcl28SampleConsensusModelCylinderINS_18PointWithViewpointENS_17PointXYZRGBNormalEEC2ERKN5boost10shared_ptrIKNS_10PointCloudIS1_EEEERKSt6vectorIiSaIiEE@Base 1.6
 (optional=templinst)_ZN3pcl28SampleConsensusModelCylinderINS_18PointWithViewpointENS_17PointXYZRGBNormalEED0Ev@Base 1.6
 (optional=templinst)_ZN3pcl28SampleConsensusModelCylinderINS_18PointWithViewpointENS_17PointXYZRGBNormalEED1Ev@Base 1.6
 (optional=templinst)_ZN3pcl28SampleConsensusModelCylinderINS_18PointWithViewpointENS_17PointXYZRGBNormalEED2Ev@Base 1.6
 (optional=templinst)_ZN3pcl28SampleConsensusModelCylinderINS_18PointWithViewpointENS_6NormalEE7setAxisERKN5Eigen6MatrixIfLi3ELi1ELi0ELi3ELi1EEE@Base 1.6
 (optional=templinst)_ZN3pcl28SampleConsensusModelCylinderINS_18PointWithViewpointENS_6NormalEEC1ERKN5boost10shared_ptrIKNS_10PointCloudIS1_EEEERKSt6vectorIiSaIiEE@Base 1.6
 (optional=templinst)_ZN3pcl28SampleConsensusModelCylinderINS_18PointWithViewpointENS_6NormalEEC2ERKN5boost10shared_ptrIKNS_10PointCloudIS1_EEEERKSt6vectorIiSaIiEE@Base 1.6
 (optional=templinst)_ZN3pcl28SampleConsensusModelCylinderINS_18PointWithViewpointENS_6NormalEED0Ev@Base 1.6
 (optional=templinst)_ZN3pcl28SampleConsensusModelCylinderINS_18PointWithViewpointENS_6NormalEED1Ev@Base 1.6
 (optional=templinst)_ZN3pcl28SampleConsensusModelCylinderINS_18PointWithViewpointENS_6NormalEED2Ev@Base 1.6
 (optional=templinst)_ZN3pcl28SampleConsensusModelCylinderINS_8PointXYZENS_11PointNormalEE7setAxisERKN5Eigen6MatrixIfLi3ELi1ELi0ELi3ELi1EEE@Base 1.6
 (optional=templinst)_ZN3pcl28SampleConsensusModelCylinderINS_8PointXYZENS_11PointNormalEEC1ERKN5boost10shared_ptrIKNS_10PointCloudIS1_EEEERKSt6vectorIiSaIiEE@Base 1.6
 (optional=templinst)_ZN3pcl28SampleConsensusModelCylinderINS_8PointXYZENS_11PointNormalEEC2ERKN5boost10shared_ptrIKNS_10PointCloudIS1_EEEERKSt6vectorIiSaIiEE@Base 1.6
 (optional=templinst)_ZN3pcl28SampleConsensusModelCylinderINS_8PointXYZENS_11PointNormalEED0Ev@Base 1.6
 (optional=templinst)_ZN3pcl28SampleConsensusModelCylinderINS_8PointXYZENS_11PointNormalEED1Ev@Base 1.6
 (optional=templinst)_ZN3pcl28SampleConsensusModelCylinderINS_8PointXYZENS_11PointNormalEED2Ev@Base 1.6
 (optional=templinst)_ZN3pcl28SampleConsensusModelCylinderINS_8PointXYZENS_15PointXYZINormalEE7setAxisERKN5Eigen6MatrixIfLi3ELi1ELi0ELi3ELi1EEE@Base 1.6
 (optional=templinst)_ZN3pcl28SampleConsensusModelCylinderINS_8PointXYZENS_15PointXYZINormalEEC1ERKN5boost10shared_ptrIKNS_10PointCloudIS1_EEEERKSt6vectorIiSaIiEE@Base 1.6
 (optional=templinst)_ZN3pcl28SampleConsensusModelCylinderINS_8PointXYZENS_15PointXYZINormalEEC2ERKN5boost10shared_ptrIKNS_10PointCloudIS1_EEEERKSt6vectorIiSaIiEE@Base 1.6
 (optional=templinst)_ZN3pcl28SampleConsensusModelCylinderINS_8PointXYZENS_15PointXYZINormalEED0Ev@Base 1.6
 (optional=templinst)_ZN3pcl28SampleConsensusModelCylinderINS_8PointXYZENS_15PointXYZINormalEED1Ev@Base 1.6
 (optional=templinst)_ZN3pcl28SampleConsensusModelCylinderINS_8PointXYZENS_15PointXYZINormalEED2Ev@Base 1.6
 (optional=templinst)_ZN3pcl28SampleConsensusModelCylinderINS_8PointXYZENS_17PointXYZRGBNormalEE7setAxisERKN5Eigen6MatrixIfLi3ELi1ELi0ELi3ELi1EEE@Base 1.6
 (optional=templinst)_ZN3pcl28SampleConsensusModelCylinderINS_8PointXYZENS_17PointXYZRGBNormalEEC1ERKN5boost10shared_ptrIKNS_10PointCloudIS1_EEEERKSt6vectorIiSaIiEE@Base 1.6
 (optional=templinst)_ZN3pcl28SampleConsensusModelCylinderINS_8PointXYZENS_17PointXYZRGBNormalEEC2ERKN5boost10shared_ptrIKNS_10PointCloudIS1_EEEERKSt6vectorIiSaIiEE@Base 1.6
 (optional=templinst)_ZN3pcl28SampleConsensusModelCylinderINS_8PointXYZENS_17PointXYZRGBNormalEED0Ev@Base 1.6
 (optional=templinst)_ZN3pcl28SampleConsensusModelCylinderINS_8PointXYZENS_17PointXYZRGBNormalEED1Ev@Base 1.6
 (optional=templinst)_ZN3pcl28SampleConsensusModelCylinderINS_8PointXYZENS_17PointXYZRGBNormalEED2Ev@Base 1.6
 (optional=templinst)_ZN3pcl28SampleConsensusModelCylinderINS_8PointXYZENS_6NormalEE7setAxisERKN5Eigen6MatrixIfLi3ELi1ELi0ELi3ELi1EEE@Base 1.6
 (optional=templinst)_ZN3pcl28SampleConsensusModelCylinderINS_8PointXYZENS_6NormalEEC1ERKN5boost10shared_ptrIKNS_10PointCloudIS1_EEEERKSt6vectorIiSaIiEE@Base 1.6
 (optional=templinst)_ZN3pcl28SampleConsensusModelCylinderINS_8PointXYZENS_6NormalEEC2ERKN5boost10shared_ptrIKNS_10PointCloudIS1_EEEERKSt6vectorIiSaIiEE@Base 1.6
 (optional=templinst)_ZN3pcl28SampleConsensusModelCylinderINS_8PointXYZENS_6NormalEED0Ev@Base 1.6
 (optional=templinst)_ZN3pcl28SampleConsensusModelCylinderINS_8PointXYZENS_6NormalEED1Ev@Base 1.6
 (optional=templinst)_ZN3pcl28SampleConsensusModelCylinderINS_8PointXYZENS_6NormalEED2Ev@Base 1.6
 (optional=templinst)_ZN3pcl28SampleConsensusModelCylinderINS_9PointXYZIENS_11PointNormalEE7setAxisERKN5Eigen6MatrixIfLi3ELi1ELi0ELi3ELi1EEE@Base 1.6
 (optional=templinst)_ZN3pcl28SampleConsensusModelCylinderINS_9PointXYZIENS_11PointNormalEEC1ERKN5boost10shared_ptrIKNS_10PointCloudIS1_EEEERKSt6vectorIiSaIiEE@Base 1.6
 (optional=templinst)_ZN3pcl28SampleConsensusModelCylinderINS_9PointXYZIENS_11PointNormalEEC2ERKN5boost10shared_ptrIKNS_10PointCloudIS1_EEEERKSt6vectorIiSaIiEE@Base 1.6
 (optional=templinst)_ZN3pcl28SampleConsensusModelCylinderINS_9PointXYZIENS_11PointNormalEED0Ev@Base 1.6
 (optional=templinst)_ZN3pcl28SampleConsensusModelCylinderINS_9PointXYZIENS_11PointNormalEED1Ev@Base 1.6
 (optional=templinst)_ZN3pcl28SampleConsensusModelCylinderINS_9PointXYZIENS_11PointNormalEED2Ev@Base 1.6
 (optional=templinst)_ZN3pcl28SampleConsensusModelCylinderINS_9PointXYZIENS_15PointXYZINormalEE7setAxisERKN5Eigen6MatrixIfLi3ELi1ELi0ELi3ELi1EEE@Base 1.6
 (optional=templinst)_ZN3pcl28SampleConsensusModelCylinderINS_9PointXYZIENS_15PointXYZINormalEEC1ERKN5boost10shared_ptrIKNS_10PointCloudIS1_EEEERKSt6vectorIiSaIiEE@Base 1.6
 (optional=templinst)_ZN3pcl28SampleConsensusModelCylinderINS_9PointXYZIENS_15PointXYZINormalEEC2ERKN5boost10shared_ptrIKNS_10PointCloudIS1_EEEERKSt6vectorIiSaIiEE@Base 1.6
 (optional=templinst)_ZN3pcl28SampleConsensusModelCylinderINS_9PointXYZIENS_15PointXYZINormalEED0Ev@Base 1.6
 (optional=templinst)_ZN3pcl28SampleConsensusModelCylinderINS_9PointXYZIENS_15PointXYZINormalEED1Ev@Base 1.6
 (optional=templinst)_ZN3pcl28SampleConsensusModelCylinderINS_9PointXYZIENS_15PointXYZINormalEED2Ev@Base 1.6
 (optional=templinst)_ZN3pcl28SampleConsensusModelCylinderINS_9PointXYZIENS_17PointXYZRGBNormalEE7setAxisERKN5Eigen6MatrixIfLi3ELi1ELi0ELi3ELi1EEE@Base 1.6
 (optional=templinst)_ZN3pcl28SampleConsensusModelCylinderINS_9PointXYZIENS_17PointXYZRGBNormalEEC1ERKN5boost10shared_ptrIKNS_10PointCloudIS1_EEEERKSt6vectorIiSaIiEE@Base 1.6
 (optional=templinst)_ZN3pcl28SampleConsensusModelCylinderINS_9PointXYZIENS_17PointXYZRGBNormalEEC2ERKN5boost10shared_ptrIKNS_10PointCloudIS1_EEEERKSt6vectorIiSaIiEE@Base 1.6
 (optional=templinst)_ZN3pcl28SampleConsensusModelCylinderINS_9PointXYZIENS_17PointXYZRGBNormalEED0Ev@Base 1.6
 (optional=templinst)_ZN3pcl28SampleConsensusModelCylinderINS_9PointXYZIENS_17PointXYZRGBNormalEED1Ev@Base 1.6
 (optional=templinst)_ZN3pcl28SampleConsensusModelCylinderINS_9PointXYZIENS_17PointXYZRGBNormalEED2Ev@Base 1.6
 (optional=templinst)_ZN3pcl28SampleConsensusModelCylinderINS_9PointXYZIENS_6NormalEE7setAxisERKN5Eigen6MatrixIfLi3ELi1ELi0ELi3ELi1EEE@Base 1.6
 (optional=templinst)_ZN3pcl28SampleConsensusModelCylinderINS_9PointXYZIENS_6NormalEEC1ERKN5boost10shared_ptrIKNS_10PointCloudIS1_EEEERKSt6vectorIiSaIiEE@Base 1.6
 (optional=templinst)_ZN3pcl28SampleConsensusModelCylinderINS_9PointXYZIENS_6NormalEEC2ERKN5boost10shared_ptrIKNS_10PointCloudIS1_EEEERKSt6vectorIiSaIiEE@Base 1.6
 (optional=templinst)_ZN3pcl28SampleConsensusModelCylinderINS_9PointXYZIENS_6NormalEED0Ev@Base 1.6
 (optional=templinst)_ZN3pcl28SampleConsensusModelCylinderINS_9PointXYZIENS_6NormalEED1Ev@Base 1.6
 (optional=templinst)_ZN3pcl28SampleConsensusModelCylinderINS_9PointXYZIENS_6NormalEED2Ev@Base 1.6
 (optional=templinst)_ZN3pcl28SampleConsensusModelCylinderINS_9PointXYZLENS_11PointNormalEE7setAxisERKN5Eigen6MatrixIfLi3ELi1ELi0ELi3ELi1EEE@Base 1.6
 (optional=templinst)_ZN3pcl28SampleConsensusModelCylinderINS_9PointXYZLENS_11PointNormalEEC1ERKN5boost10shared_ptrIKNS_10PointCloudIS1_EEEERKSt6vectorIiSaIiEE@Base 1.6
 (optional=templinst)_ZN3pcl28SampleConsensusModelCylinderINS_9PointXYZLENS_11PointNormalEEC2ERKN5boost10shared_ptrIKNS_10PointCloudIS1_EEEERKSt6vectorIiSaIiEE@Base 1.6
 (optional=templinst)_ZN3pcl28SampleConsensusModelCylinderINS_9PointXYZLENS_11PointNormalEED0Ev@Base 1.6
 (optional=templinst)_ZN3pcl28SampleConsensusModelCylinderINS_9PointXYZLENS_11PointNormalEED1Ev@Base 1.6
 (optional=templinst)_ZN3pcl28SampleConsensusModelCylinderINS_9PointXYZLENS_11PointNormalEED2Ev@Base 1.6
 (optional=templinst)_ZN3pcl28SampleConsensusModelCylinderINS_9PointXYZLENS_15PointXYZINormalEE7setAxisERKN5Eigen6MatrixIfLi3ELi1ELi0ELi3ELi1EEE@Base 1.6
 (optional=templinst)_ZN3pcl28SampleConsensusModelCylinderINS_9PointXYZLENS_15PointXYZINormalEEC1ERKN5boost10shared_ptrIKNS_10PointCloudIS1_EEEERKSt6vectorIiSaIiEE@Base 1.6
 (optional=templinst)_ZN3pcl28SampleConsensusModelCylinderINS_9PointXYZLENS_15PointXYZINormalEEC2ERKN5boost10shared_ptrIKNS_10PointCloudIS1_EEEERKSt6vectorIiSaIiEE@Base 1.6
 (optional=templinst)_ZN3pcl28SampleConsensusModelCylinderINS_9PointXYZLENS_15PointXYZINormalEED0Ev@Base 1.6
 (optional=templinst)_ZN3pcl28SampleConsensusModelCylinderINS_9PointXYZLENS_15PointXYZINormalEED1Ev@Base 1.6
 (optional=templinst)_ZN3pcl28SampleConsensusModelCylinderINS_9PointXYZLENS_15PointXYZINormalEED2Ev@Base 1.6
 (optional=templinst)_ZN3pcl28SampleConsensusModelCylinderINS_9PointXYZLENS_17PointXYZRGBNormalEE7setAxisERKN5Eigen6MatrixIfLi3ELi1ELi0ELi3ELi1EEE@Base 1.6
 (optional=templinst)_ZN3pcl28SampleConsensusModelCylinderINS_9PointXYZLENS_17PointXYZRGBNormalEEC1ERKN5boost10shared_ptrIKNS_10PointCloudIS1_EEEERKSt6vectorIiSaIiEE@Base 1.6
 (optional=templinst)_ZN3pcl28SampleConsensusModelCylinderINS_9PointXYZLENS_17PointXYZRGBNormalEEC2ERKN5boost10shared_ptrIKNS_10PointCloudIS1_EEEERKSt6vectorIiSaIiEE@Base 1.6
 (optional=templinst)_ZN3pcl28SampleConsensusModelCylinderINS_9PointXYZLENS_17PointXYZRGBNormalEED0Ev@Base 1.6
 (optional=templinst)_ZN3pcl28SampleConsensusModelCylinderINS_9PointXYZLENS_17PointXYZRGBNormalEED1Ev@Base 1.6
 (optional=templinst)_ZN3pcl28SampleConsensusModelCylinderINS_9PointXYZLENS_17PointXYZRGBNormalEED2Ev@Base 1.6
 (optional=templinst)_ZN3pcl28SampleConsensusModelCylinderINS_9PointXYZLENS_6NormalEE7setAxisERKN5Eigen6MatrixIfLi3ELi1ELi0ELi3ELi1EEE@Base 1.6
 (optional=templinst)_ZN3pcl28SampleConsensusModelCylinderINS_9PointXYZLENS_6NormalEEC1ERKN5boost10shared_ptrIKNS_10PointCloudIS1_EEEERKSt6vectorIiSaIiEE@Base 1.6
 (optional=templinst)_ZN3pcl28SampleConsensusModelCylinderINS_9PointXYZLENS_6NormalEEC2ERKN5boost10shared_ptrIKNS_10PointCloudIS1_EEEERKSt6vectorIiSaIiEE@Base 1.6
 (optional=templinst)_ZN3pcl28SampleConsensusModelCylinderINS_9PointXYZLENS_6NormalEED0Ev@Base 1.6
 (optional=templinst)_ZN3pcl28SampleConsensusModelCylinderINS_9PointXYZLENS_6NormalEED1Ev@Base 1.6
 (optional=templinst)_ZN3pcl28SampleConsensusModelCylinderINS_9PointXYZLENS_6NormalEED2Ev@Base 1.6
 (optional=templinst)_ZN3pcl30computeMeanAndCovarianceMatrixINS_11PointNormalEEEjRKNS_10PointCloudIT_EERKSt6vectorIiSaIiEERN5Eigen6MatrixIfLi3ELi3ELi0ELi3ELi3EEERNSD_IfLi4ELi1ELi0ELi4ELi1EEE@Base 1.6
 (optional=templinst)_ZN3pcl30computeMeanAndCovarianceMatrixINS_11PointNormalEEEjRKNS_10PointCloudIT_EERN5Eigen6MatrixIfLi3ELi3ELi0ELi3ELi3EEERNS8_IfLi4ELi1ELi0ELi4ELi1EEE@Base 1.6
 (optional=templinst)_ZN3pcl30computeMeanAndCovarianceMatrixINS_11PointXYZHSVEEEjRKNS_10PointCloudIT_EERKSt6vectorIiSaIiEERN5Eigen6MatrixIfLi3ELi3ELi0ELi3ELi3EEERNSD_IfLi4ELi1ELi0ELi4ELi1EEE@Base 1.6
 (optional=templinst)_ZN3pcl30computeMeanAndCovarianceMatrixINS_11PointXYZHSVEEEjRKNS_10PointCloudIT_EERN5Eigen6MatrixIfLi3ELi3ELi0ELi3ELi3EEERNS8_IfLi4ELi1ELi0ELi4ELi1EEE@Base 1.6
 (optional=templinst)_ZN3pcl30computeMeanAndCovarianceMatrixINS_11PointXYZRGBEEEjRKNS_10PointCloudIT_EERKSt6vectorIiSaIiEERN5Eigen6MatrixIfLi3ELi3ELi0ELi3ELi3EEERNSD_IfLi4ELi1ELi0ELi4ELi1EEE@Base 1.6
 (optional=templinst)_ZN3pcl30computeMeanAndCovarianceMatrixINS_11PointXYZRGBEEEjRKNS_10PointCloudIT_EERN5Eigen6MatrixIfLi3ELi3ELi0ELi3ELi3EEERNS8_IfLi4ELi1ELi0ELi4ELi1EEE@Base 1.6
 (optional=templinst)_ZN3pcl30computeMeanAndCovarianceMatrixINS_12PointXYZRGBAEEEjRKNS_10PointCloudIT_EERKSt6vectorIiSaIiEERN5Eigen6MatrixIfLi3ELi3ELi0ELi3ELi3EEERNSD_IfLi4ELi1ELi0ELi4ELi1EEE@Base 1.6
 (optional=templinst)_ZN3pcl30computeMeanAndCovarianceMatrixINS_12PointXYZRGBAEEEjRKNS_10PointCloudIT_EERN5Eigen6MatrixIfLi3ELi3ELi0ELi3ELi3EEERNS8_IfLi4ELi1ELi0ELi4ELi1EEE@Base 1.6
 (optional=templinst)_ZN3pcl30computeMeanAndCovarianceMatrixINS_12PointXYZRGBLEEEjRKNS_10PointCloudIT_EERKSt6vectorIiSaIiEERN5Eigen6MatrixIfLi3ELi3ELi0ELi3ELi3EEERNSD_IfLi4ELi1ELi0ELi4ELi1EEE@Base 1.6
 (optional=templinst)_ZN3pcl30computeMeanAndCovarianceMatrixINS_12PointXYZRGBLEEEjRKNS_10PointCloudIT_EERN5Eigen6MatrixIfLi3ELi3ELi0ELi3ELi3EEERNS8_IfLi4ELi1ELi0ELi4ELi1EEE@Base 1.6
 (optional=templinst)_ZN3pcl30computeMeanAndCovarianceMatrixINS_13InterestPointEEEjRKNS_10PointCloudIT_EERKSt6vectorIiSaIiEERN5Eigen6MatrixIfLi3ELi3ELi0ELi3ELi3EEERNSD_IfLi4ELi1ELi0ELi4ELi1EEE@Base 1.6
 (optional=templinst)_ZN3pcl30computeMeanAndCovarianceMatrixINS_13InterestPointEEEjRKNS_10PointCloudIT_EERN5Eigen6MatrixIfLi3ELi3ELi0ELi3ELi3EEERNS8_IfLi4ELi1ELi0ELi4ELi1EEE@Base 1.6
 (optional=templinst)_ZN3pcl30computeMeanAndCovarianceMatrixINS_14PointWithRangeEEEjRKNS_10PointCloudIT_EERKSt6vectorIiSaIiEERN5Eigen6MatrixIfLi3ELi3ELi0ELi3ELi3EEERNSD_IfLi4ELi1ELi0ELi4ELi1EEE@Base 1.6
 (optional=templinst)_ZN3pcl30computeMeanAndCovarianceMatrixINS_14PointWithRangeEEEjRKNS_10PointCloudIT_EERN5Eigen6MatrixIfLi3ELi3ELi0ELi3ELi3EEERNS8_IfLi4ELi1ELi0ELi4ELi1EEE@Base 1.6
 (optional=templinst)_ZN3pcl30computeMeanAndCovarianceMatrixINS_14PointWithScaleEEEjRKNS_10PointCloudIT_EERKSt6vectorIiSaIiEERN5Eigen6MatrixIfLi3ELi3ELi0ELi3ELi3EEERNSD_IfLi4ELi1ELi0ELi4ELi1EEE@Base 1.6
 (optional=templinst)_ZN3pcl30computeMeanAndCovarianceMatrixINS_14PointWithScaleEEEjRKNS_10PointCloudIT_EERN5Eigen6MatrixIfLi3ELi3ELi0ELi3ELi3EEERNS8_IfLi4ELi1ELi0ELi4ELi1EEE@Base 1.6
 (optional=templinst)_ZN3pcl30computeMeanAndCovarianceMatrixINS_15PointXYZINormalEEEjRKNS_10PointCloudIT_EERKSt6vectorIiSaIiEERN5Eigen6MatrixIfLi3ELi3ELi0ELi3ELi3EEERNSD_IfLi4ELi1ELi0ELi4ELi1EEE@Base 1.6
 (optional=templinst)_ZN3pcl30computeMeanAndCovarianceMatrixINS_15PointXYZINormalEEEjRKNS_10PointCloudIT_EERN5Eigen6MatrixIfLi3ELi3ELi0ELi3ELi3EEERNS8_IfLi4ELi1ELi0ELi4ELi1EEE@Base 1.6
 (optional=templinst)_ZN3pcl30computeMeanAndCovarianceMatrixINS_17PointXYZRGBNormalEEEjRKNS_10PointCloudIT_EERKSt6vectorIiSaIiEERN5Eigen6MatrixIfLi3ELi3ELi0ELi3ELi3EEERNSD_IfLi4ELi1ELi0ELi4ELi1EEE@Base 1.6
 (optional=templinst)_ZN3pcl30computeMeanAndCovarianceMatrixINS_17PointXYZRGBNormalEEEjRKNS_10PointCloudIT_EERN5Eigen6MatrixIfLi3ELi3ELi0ELi3ELi3EEERNS8_IfLi4ELi1ELi0ELi4ELi1EEE@Base 1.6
 (optional=templinst)_ZN3pcl30computeMeanAndCovarianceMatrixINS_18PointWithViewpointEEEjRKNS_10PointCloudIT_EERKSt6vectorIiSaIiEERN5Eigen6MatrixIfLi3ELi3ELi0ELi3ELi3EEERNSD_IfLi4ELi1ELi0ELi4ELi1EEE@Base 1.6
 (optional=templinst)_ZN3pcl30computeMeanAndCovarianceMatrixINS_18PointWithViewpointEEEjRKNS_10PointCloudIT_EERN5Eigen6MatrixIfLi3ELi3ELi0ELi3ELi3EEERNS8_IfLi4ELi1ELi0ELi4ELi1EEE@Base 1.6
 (optional=templinst)_ZN3pcl30computeMeanAndCovarianceMatrixINS_8PointXYZEEEjRKNS_10PointCloudIT_EERKSt6vectorIiSaIiEERN5Eigen6MatrixIfLi3ELi3ELi0ELi3ELi3EEERNSD_IfLi4ELi1ELi0ELi4ELi1EEE@Base 1.6
 (optional=templinst)_ZN3pcl30computeMeanAndCovarianceMatrixINS_8PointXYZEEEjRKNS_10PointCloudIT_EERN5Eigen6MatrixIfLi3ELi3ELi0ELi3ELi3EEERNS8_IfLi4ELi1ELi0ELi4ELi1EEE@Base 1.6
 (optional=templinst)_ZN3pcl30computeMeanAndCovarianceMatrixINS_9PointXYZIEEEjRKNS_10PointCloudIT_EERKSt6vectorIiSaIiEERN5Eigen6MatrixIfLi3ELi3ELi0ELi3ELi3EEERNSD_IfLi4ELi1ELi0ELi4ELi1EEE@Base 1.6
 (optional=templinst)_ZN3pcl30computeMeanAndCovarianceMatrixINS_9PointXYZIEEEjRKNS_10PointCloudIT_EERN5Eigen6MatrixIfLi3ELi3ELi0ELi3ELi3EEERNS8_IfLi4ELi1ELi0ELi4ELi1EEE@Base 1.6
 (optional=templinst)_ZN3pcl30computeMeanAndCovarianceMatrixINS_9PointXYZLEEEjRKNS_10PointCloudIT_EERKSt6vectorIiSaIiEERN5Eigen6MatrixIfLi3ELi3ELi0ELi3ELi3EEERNSD_IfLi4ELi1ELi0ELi4ELi1EEE@Base 1.6
 (optional=templinst)_ZN3pcl30computeMeanAndCovarianceMatrixINS_9PointXYZLEEEjRKNS_10PointCloudIT_EERN5Eigen6MatrixIfLi3ELi3ELi0ELi3ELi3EEERNS8_IfLi4ELi1ELi0ELi4ELi1EEE@Base 1.6
 (optional=templinst)_ZN3pcl31OrganizedMultiPlaneSegmentationINS_11PointNormalENS_15PointXYZINormalENS_5LabelEE13setComparatorERKN5boost10shared_ptrINS_26PlaneCoefficientComparatorIS1_S2_EEEE@Base 1.6
 (optional=templinst)_ZN3pcl31OrganizedMultiPlaneSegmentationINS_11PointNormalENS_15PointXYZINormalENS_5LabelEE13setMinInliersEj@Base 1.6
 (optional=templinst)_ZN3pcl31OrganizedMultiPlaneSegmentationINS_11PointNormalENS_15PointXYZINormalENS_5LabelEE15setInputNormalsERKN5boost10shared_ptrIKNS_10PointCloudIS2_EEEE@Base 1.6
 (optional=templinst)_ZN3pcl31OrganizedMultiPlaneSegmentationINS_11PointNormalENS_15PointXYZINormalENS_5LabelEE16segmentAndRefineERSt6vectorINS_12PlanarRegionIS1_EEN5Eigen17aligned_allocatorIS7_EEE@Base 1.6
 (optional=templinst)_ZN3pcl31OrganizedMultiPlaneSegmentationINS_11PointNormalENS_15PointXYZINormalENS_5LabelEE16segmentAndRefineERSt6vectorINS_12PlanarRegionIS1_EEN5Eigen17aligned_allocatorIS7_EEERS5_INS_17ModelCoefficientsESaISD_EERS5_INS_12PointIndicesESaISH_EERN5boost10shared_ptrINS_10PointCloudIS3_EEEESK_SK_@Base 1.6
 (optional=templinst)_ZN3pcl31OrganizedMultiPlaneSegmentationINS_11PointNormalENS_15PointXYZINormalENS_5LabelEE16setProjectPointsEb@Base 1.6
 (optional=templinst)_ZN3pcl31OrganizedMultiPlaneSegmentationINS_11PointNormalENS_15PointXYZINormalENS_5LabelEE19setAngularThresholdEd@Base 1.6
 (optional=templinst)_ZN3pcl31OrganizedMultiPlaneSegmentationINS_11PointNormalENS_15PointXYZINormalENS_5LabelEE19setMaximumCurvatureEd@Base 1.6
 (optional=templinst)_ZN3pcl31OrganizedMultiPlaneSegmentationINS_11PointNormalENS_15PointXYZINormalENS_5LabelEE20setDistanceThresholdEd@Base 1.6
 (optional=templinst)_ZN3pcl31OrganizedMultiPlaneSegmentationINS_11PointNormalENS_15PointXYZINormalENS_5LabelEE23setRefinementComparatorERKN5boost10shared_ptrINS_25PlaneRefinementComparatorIS1_S2_S3_EEEE@Base 1.6
 (optional=templinst)_ZN3pcl31OrganizedMultiPlaneSegmentationINS_11PointNormalENS_15PointXYZINormalENS_5LabelEE6refineERSt6vectorINS_17ModelCoefficientsESaIS6_EERS5_INS_12PointIndicesESaISA_EERS5_IN5Eigen6MatrixIfLi4ELi1ELi0ELi4ELi1EEENSE_17aligned_allocatorISG_EEERS5_INSF_IfLi3ELi3ELi0ELi3ELi3EEENSH_ISL_EEERN5boost10shared_ptrINS_10PointCloudIS3_EEEESD_@Base 1.6
 (optional=templinst)_ZN3pcl31OrganizedMultiPlaneSegmentationINS_11PointNormalENS_15PointXYZINormalENS_5LabelEE7segmentERSt6vectorINS_12PlanarRegionIS1_EEN5Eigen17aligned_allocatorIS7_EEE@Base 1.6
 (optional=templinst)_ZN3pcl31OrganizedMultiPlaneSegmentationINS_11PointNormalENS_15PointXYZINormalENS_5LabelEE7segmentERSt6vectorINS_17ModelCoefficientsESaIS6_EERS5_INS_12PointIndicesESaISA_EE@Base 1.6
 (optional=templinst)_ZN3pcl31OrganizedMultiPlaneSegmentationINS_11PointNormalENS_15PointXYZINormalENS_5LabelEE7segmentERSt6vectorINS_17ModelCoefficientsESaIS6_EERS5_INS_12PointIndicesESaISA_EERS5_IN5Eigen6MatrixIfLi4ELi1ELi0ELi4ELi1EEENSE_17aligned_allocatorISG_EEERS5_INSF_IfLi3ELi3ELi0ELi3ELi3EEENSH_ISL_EEERNS_10PointCloudIS3_EESD_@Base 1.6
 (optional=templinst)_ZN3pcl31OrganizedMultiPlaneSegmentationINS_11PointNormalENS_15PointXYZINormalENS_5LabelEEC1Ev@Base 1.6
 (optional=templinst)_ZN3pcl31OrganizedMultiPlaneSegmentationINS_11PointNormalENS_15PointXYZINormalENS_5LabelEEC2Ev@Base 1.6
 (optional=templinst)_ZN3pcl31OrganizedMultiPlaneSegmentationINS_11PointNormalENS_15PointXYZINormalENS_5LabelEED0Ev@Base 1.6
 (optional=templinst)_ZN3pcl31OrganizedMultiPlaneSegmentationINS_11PointNormalENS_15PointXYZINormalENS_5LabelEED1Ev@Base 1.6
 (optional=templinst)_ZN3pcl31OrganizedMultiPlaneSegmentationINS_11PointNormalENS_15PointXYZINormalENS_5LabelEED2Ev@Base 1.6
 (optional=templinst)_ZN3pcl31OrganizedMultiPlaneSegmentationINS_11PointNormalENS_17PointXYZRGBNormalENS_5LabelEE13setComparatorERKN5boost10shared_ptrINS_26PlaneCoefficientComparatorIS1_S2_EEEE@Base 1.6
 (optional=templinst)_ZN3pcl31OrganizedMultiPlaneSegmentationINS_11PointNormalENS_17PointXYZRGBNormalENS_5LabelEE13setMinInliersEj@Base 1.6
 (optional=templinst)_ZN3pcl31OrganizedMultiPlaneSegmentationINS_11PointNormalENS_17PointXYZRGBNormalENS_5LabelEE15setInputNormalsERKN5boost10shared_ptrIKNS_10PointCloudIS2_EEEE@Base 1.6
 (optional=templinst)_ZN3pcl31OrganizedMultiPlaneSegmentationINS_11PointNormalENS_17PointXYZRGBNormalENS_5LabelEE16segmentAndRefineERSt6vectorINS_12PlanarRegionIS1_EEN5Eigen17aligned_allocatorIS7_EEE@Base 1.6
 (optional=templinst)_ZN3pcl31OrganizedMultiPlaneSegmentationINS_11PointNormalENS_17PointXYZRGBNormalENS_5LabelEE16segmentAndRefineERSt6vectorINS_12PlanarRegionIS1_EEN5Eigen17aligned_allocatorIS7_EEERS5_INS_17ModelCoefficientsESaISD_EERS5_INS_12PointIndicesESaISH_EERN5boost10shared_ptrINS_10PointCloudIS3_EEEESK_SK_@Base 1.6
 (optional=templinst)_ZN3pcl31OrganizedMultiPlaneSegmentationINS_11PointNormalENS_17PointXYZRGBNormalENS_5LabelEE16setProjectPointsEb@Base 1.6
 (optional=templinst)_ZN3pcl31OrganizedMultiPlaneSegmentationINS_11PointNormalENS_17PointXYZRGBNormalENS_5LabelEE19setAngularThresholdEd@Base 1.6
 (optional=templinst)_ZN3pcl31OrganizedMultiPlaneSegmentationINS_11PointNormalENS_17PointXYZRGBNormalENS_5LabelEE19setMaximumCurvatureEd@Base 1.6
 (optional=templinst)_ZN3pcl31OrganizedMultiPlaneSegmentationINS_11PointNormalENS_17PointXYZRGBNormalENS_5LabelEE20setDistanceThresholdEd@Base 1.6
 (optional=templinst)_ZN3pcl31OrganizedMultiPlaneSegmentationINS_11PointNormalENS_17PointXYZRGBNormalENS_5LabelEE23setRefinementComparatorERKN5boost10shared_ptrINS_25PlaneRefinementComparatorIS1_S2_S3_EEEE@Base 1.6
 (optional=templinst)_ZN3pcl31OrganizedMultiPlaneSegmentationINS_11PointNormalENS_17PointXYZRGBNormalENS_5LabelEE6refineERSt6vectorINS_17ModelCoefficientsESaIS6_EERS5_INS_12PointIndicesESaISA_EERS5_IN5Eigen6MatrixIfLi4ELi1ELi0ELi4ELi1EEENSE_17aligned_allocatorISG_EEERS5_INSF_IfLi3ELi3ELi0ELi3ELi3EEENSH_ISL_EEERN5boost10shared_ptrINS_10PointCloudIS3_EEEESD_@Base 1.6
 (optional=templinst)_ZN3pcl31OrganizedMultiPlaneSegmentationINS_11PointNormalENS_17PointXYZRGBNormalENS_5LabelEE7segmentERSt6vectorINS_12PlanarRegionIS1_EEN5Eigen17aligned_allocatorIS7_EEE@Base 1.6
 (optional=templinst)_ZN3pcl31OrganizedMultiPlaneSegmentationINS_11PointNormalENS_17PointXYZRGBNormalENS_5LabelEE7segmentERSt6vectorINS_17ModelCoefficientsESaIS6_EERS5_INS_12PointIndicesESaISA_EE@Base 1.6
 (optional=templinst)_ZN3pcl31OrganizedMultiPlaneSegmentationINS_11PointNormalENS_17PointXYZRGBNormalENS_5LabelEE7segmentERSt6vectorINS_17ModelCoefficientsESaIS6_EERS5_INS_12PointIndicesESaISA_EERS5_IN5Eigen6MatrixIfLi4ELi1ELi0ELi4ELi1EEENSE_17aligned_allocatorISG_EEERS5_INSF_IfLi3ELi3ELi0ELi3ELi3EEENSH_ISL_EEERNS_10PointCloudIS3_EESD_@Base 1.6
 (optional=templinst)_ZN3pcl31OrganizedMultiPlaneSegmentationINS_11PointNormalENS_17PointXYZRGBNormalENS_5LabelEEC1Ev@Base 1.6
 (optional=templinst)_ZN3pcl31OrganizedMultiPlaneSegmentationINS_11PointNormalENS_17PointXYZRGBNormalENS_5LabelEEC2Ev@Base 1.6
 (optional=templinst)_ZN3pcl31OrganizedMultiPlaneSegmentationINS_11PointNormalENS_17PointXYZRGBNormalENS_5LabelEED0Ev@Base 1.6
 (optional=templinst)_ZN3pcl31OrganizedMultiPlaneSegmentationINS_11PointNormalENS_17PointXYZRGBNormalENS_5LabelEED1Ev@Base 1.6
 (optional=templinst)_ZN3pcl31OrganizedMultiPlaneSegmentationINS_11PointNormalENS_17PointXYZRGBNormalENS_5LabelEED2Ev@Base 1.6
 (optional=templinst)_ZN3pcl31OrganizedMultiPlaneSegmentationINS_11PointNormalENS_6NormalENS_5LabelEE13setComparatorERKN5boost10shared_ptrINS_26PlaneCoefficientComparatorIS1_S2_EEEE@Base 1.6
 (optional=templinst)_ZN3pcl31OrganizedMultiPlaneSegmentationINS_11PointNormalENS_6NormalENS_5LabelEE13setMinInliersEj@Base 1.6
 (optional=templinst)_ZN3pcl31OrganizedMultiPlaneSegmentationINS_11PointNormalENS_6NormalENS_5LabelEE15setInputNormalsERKN5boost10shared_ptrIKNS_10PointCloudIS2_EEEE@Base 1.6
 (optional=templinst)_ZN3pcl31OrganizedMultiPlaneSegmentationINS_11PointNormalENS_6NormalENS_5LabelEE16segmentAndRefineERSt6vectorINS_12PlanarRegionIS1_EEN5Eigen17aligned_allocatorIS7_EEE@Base 1.6
 (optional=templinst)_ZN3pcl31OrganizedMultiPlaneSegmentationINS_11PointNormalENS_6NormalENS_5LabelEE16segmentAndRefineERSt6vectorINS_12PlanarRegionIS1_EEN5Eigen17aligned_allocatorIS7_EEERS5_INS_17ModelCoefficientsESaISD_EERS5_INS_12PointIndicesESaISH_EERN5boost10shared_ptrINS_10PointCloudIS3_EEEESK_SK_@Base 1.6
 (optional=templinst)_ZN3pcl31OrganizedMultiPlaneSegmentationINS_11PointNormalENS_6NormalENS_5LabelEE16setProjectPointsEb@Base 1.6
 (optional=templinst)_ZN3pcl31OrganizedMultiPlaneSegmentationINS_11PointNormalENS_6NormalENS_5LabelEE19setAngularThresholdEd@Base 1.6
 (optional=templinst)_ZN3pcl31OrganizedMultiPlaneSegmentationINS_11PointNormalENS_6NormalENS_5LabelEE19setMaximumCurvatureEd@Base 1.6
 (optional=templinst)_ZN3pcl31OrganizedMultiPlaneSegmentationINS_11PointNormalENS_6NormalENS_5LabelEE20setDistanceThresholdEd@Base 1.6
 (optional=templinst)_ZN3pcl31OrganizedMultiPlaneSegmentationINS_11PointNormalENS_6NormalENS_5LabelEE23setRefinementComparatorERKN5boost10shared_ptrINS_25PlaneRefinementComparatorIS1_S2_S3_EEEE@Base 1.6
 (optional=templinst)_ZN3pcl31OrganizedMultiPlaneSegmentationINS_11PointNormalENS_6NormalENS_5LabelEE6refineERSt6vectorINS_17ModelCoefficientsESaIS6_EERS5_INS_12PointIndicesESaISA_EERS5_IN5Eigen6MatrixIfLi4ELi1ELi0ELi4ELi1EEENSE_17aligned_allocatorISG_EEERS5_INSF_IfLi3ELi3ELi0ELi3ELi3EEENSH_ISL_EEERN5boost10shared_ptrINS_10PointCloudIS3_EEEESD_@Base 1.6
 (optional=templinst)_ZN3pcl31OrganizedMultiPlaneSegmentationINS_11PointNormalENS_6NormalENS_5LabelEE7segmentERSt6vectorINS_12PlanarRegionIS1_EEN5Eigen17aligned_allocatorIS7_EEE@Base 1.6
 (optional=templinst)_ZN3pcl31OrganizedMultiPlaneSegmentationINS_11PointNormalENS_6NormalENS_5LabelEE7segmentERSt6vectorINS_17ModelCoefficientsESaIS6_EERS5_INS_12PointIndicesESaISA_EE@Base 1.6
 (optional=templinst)_ZN3pcl31OrganizedMultiPlaneSegmentationINS_11PointNormalENS_6NormalENS_5LabelEE7segmentERSt6vectorINS_17ModelCoefficientsESaIS6_EERS5_INS_12PointIndicesESaISA_EERS5_IN5Eigen6MatrixIfLi4ELi1ELi0ELi4ELi1EEENSE_17aligned_allocatorISG_EEERS5_INSF_IfLi3ELi3ELi0ELi3ELi3EEENSH_ISL_EEERNS_10PointCloudIS3_EESD_@Base 1.6
 (optional=templinst)_ZN3pcl31OrganizedMultiPlaneSegmentationINS_11PointNormalENS_6NormalENS_5LabelEEC1Ev@Base 1.6
 (optional=templinst)_ZN3pcl31OrganizedMultiPlaneSegmentationINS_11PointNormalENS_6NormalENS_5LabelEEC2Ev@Base 1.6
 (optional=templinst)_ZN3pcl31OrganizedMultiPlaneSegmentationINS_11PointNormalENS_6NormalENS_5LabelEED0Ev@Base 1.6
 (optional=templinst)_ZN3pcl31OrganizedMultiPlaneSegmentationINS_11PointNormalENS_6NormalENS_5LabelEED1Ev@Base 1.6
 (optional=templinst)_ZN3pcl31OrganizedMultiPlaneSegmentationINS_11PointNormalENS_6NormalENS_5LabelEED2Ev@Base 1.6
 (optional=templinst)_ZN3pcl31OrganizedMultiPlaneSegmentationINS_11PointNormalES1_NS_5LabelEE13setComparatorERKN5boost10shared_ptrINS_26PlaneCoefficientComparatorIS1_S1_EEEE@Base 1.6
 (optional=templinst)_ZN3pcl31OrganizedMultiPlaneSegmentationINS_11PointNormalES1_NS_5LabelEE13setMinInliersEj@Base 1.6
 (optional=templinst)_ZN3pcl31OrganizedMultiPlaneSegmentationINS_11PointNormalES1_NS_5LabelEE15setInputNormalsERKN5boost10shared_ptrIKNS_10PointCloudIS1_EEEE@Base 1.6
 (optional=templinst)_ZN3pcl31OrganizedMultiPlaneSegmentationINS_11PointNormalES1_NS_5LabelEE16segmentAndRefineERSt6vectorINS_12PlanarRegionIS1_EEN5Eigen17aligned_allocatorIS6_EEE@Base 1.6
 (optional=templinst)_ZN3pcl31OrganizedMultiPlaneSegmentationINS_11PointNormalES1_NS_5LabelEE16segmentAndRefineERSt6vectorINS_12PlanarRegionIS1_EEN5Eigen17aligned_allocatorIS6_EEERS4_INS_17ModelCoefficientsESaISC_EERS4_INS_12PointIndicesESaISG_EERN5boost10shared_ptrINS_10PointCloudIS2_EEEESJ_SJ_@Base 1.6
 (optional=templinst)_ZN3pcl31OrganizedMultiPlaneSegmentationINS_11PointNormalES1_NS_5LabelEE16setProjectPointsEb@Base 1.6
 (optional=templinst)_ZN3pcl31OrganizedMultiPlaneSegmentationINS_11PointNormalES1_NS_5LabelEE19setAngularThresholdEd@Base 1.6
 (optional=templinst)_ZN3pcl31OrganizedMultiPlaneSegmentationINS_11PointNormalES1_NS_5LabelEE19setMaximumCurvatureEd@Base 1.6
 (optional=templinst)_ZN3pcl31OrganizedMultiPlaneSegmentationINS_11PointNormalES1_NS_5LabelEE20setDistanceThresholdEd@Base 1.6
 (optional=templinst)_ZN3pcl31OrganizedMultiPlaneSegmentationINS_11PointNormalES1_NS_5LabelEE23setRefinementComparatorERKN5boost10shared_ptrINS_25PlaneRefinementComparatorIS1_S1_S2_EEEE@Base 1.6
 (optional=templinst)_ZN3pcl31OrganizedMultiPlaneSegmentationINS_11PointNormalES1_NS_5LabelEE6refineERSt6vectorINS_17ModelCoefficientsESaIS5_EERS4_INS_12PointIndicesESaIS9_EERS4_IN5Eigen6MatrixIfLi4ELi1ELi0ELi4ELi1EEENSD_17aligned_allocatorISF_EEERS4_INSE_IfLi3ELi3ELi0ELi3ELi3EEENSG_ISK_EEERN5boost10shared_ptrINS_10PointCloudIS2_EEEESC_@Base 1.6
 (optional=templinst)_ZN3pcl31OrganizedMultiPlaneSegmentationINS_11PointNormalES1_NS_5LabelEE7segmentERSt6vectorINS_12PlanarRegionIS1_EEN5Eigen17aligned_allocatorIS6_EEE@Base 1.6
 (optional=templinst)_ZN3pcl31OrganizedMultiPlaneSegmentationINS_11PointNormalES1_NS_5LabelEE7segmentERSt6vectorINS_17ModelCoefficientsESaIS5_EERS4_INS_12PointIndicesESaIS9_EE@Base 1.6
 (optional=templinst)_ZN3pcl31OrganizedMultiPlaneSegmentationINS_11PointNormalES1_NS_5LabelEE7segmentERSt6vectorINS_17ModelCoefficientsESaIS5_EERS4_INS_12PointIndicesESaIS9_EERS4_IN5Eigen6MatrixIfLi4ELi1ELi0ELi4ELi1EEENSD_17aligned_allocatorISF_EEERS4_INSE_IfLi3ELi3ELi0ELi3ELi3EEENSG_ISK_EEERNS_10PointCloudIS2_EESC_@Base 1.6
 (optional=templinst)_ZN3pcl31OrganizedMultiPlaneSegmentationINS_11PointNormalES1_NS_5LabelEEC1Ev@Base 1.6
 (optional=templinst)_ZN3pcl31OrganizedMultiPlaneSegmentationINS_11PointNormalES1_NS_5LabelEEC2Ev@Base 1.6
 (optional=templinst)_ZN3pcl31OrganizedMultiPlaneSegmentationINS_11PointNormalES1_NS_5LabelEED0Ev@Base 1.6
 (optional=templinst)_ZN3pcl31OrganizedMultiPlaneSegmentationINS_11PointNormalES1_NS_5LabelEED1Ev@Base 1.6
 (optional=templinst)_ZN3pcl31OrganizedMultiPlaneSegmentationINS_11PointNormalES1_NS_5LabelEED2Ev@Base 1.6
 (optional=templinst)_ZN3pcl31OrganizedMultiPlaneSegmentationINS_11PointXYZHSVENS_11PointNormalENS_5LabelEE13setComparatorERKN5boost10shared_ptrINS_26PlaneCoefficientComparatorIS1_S2_EEEE@Base 1.6
 (optional=templinst)_ZN3pcl31OrganizedMultiPlaneSegmentationINS_11PointXYZHSVENS_11PointNormalENS_5LabelEE13setMinInliersEj@Base 1.6
 (optional=templinst)_ZN3pcl31OrganizedMultiPlaneSegmentationINS_11PointXYZHSVENS_11PointNormalENS_5LabelEE15setInputNormalsERKN5boost10shared_ptrIKNS_10PointCloudIS2_EEEE@Base 1.6
 (optional=templinst)_ZN3pcl31OrganizedMultiPlaneSegmentationINS_11PointXYZHSVENS_11PointNormalENS_5LabelEE16segmentAndRefineERSt6vectorINS_12PlanarRegionIS1_EEN5Eigen17aligned_allocatorIS7_EEE@Base 1.6
 (optional=templinst)_ZN3pcl31OrganizedMultiPlaneSegmentationINS_11PointXYZHSVENS_11PointNormalENS_5LabelEE16segmentAndRefineERSt6vectorINS_12PlanarRegionIS1_EEN5Eigen17aligned_allocatorIS7_EEERS5_INS_17ModelCoefficientsESaISD_EERS5_INS_12PointIndicesESaISH_EERN5boost10shared_ptrINS_10PointCloudIS3_EEEESK_SK_@Base 1.6
 (optional=templinst)_ZN3pcl31OrganizedMultiPlaneSegmentationINS_11PointXYZHSVENS_11PointNormalENS_5LabelEE16setProjectPointsEb@Base 1.6
 (optional=templinst)_ZN3pcl31OrganizedMultiPlaneSegmentationINS_11PointXYZHSVENS_11PointNormalENS_5LabelEE19setAngularThresholdEd@Base 1.6
 (optional=templinst)_ZN3pcl31OrganizedMultiPlaneSegmentationINS_11PointXYZHSVENS_11PointNormalENS_5LabelEE19setMaximumCurvatureEd@Base 1.6
 (optional=templinst)_ZN3pcl31OrganizedMultiPlaneSegmentationINS_11PointXYZHSVENS_11PointNormalENS_5LabelEE20setDistanceThresholdEd@Base 1.6
 (optional=templinst)_ZN3pcl31OrganizedMultiPlaneSegmentationINS_11PointXYZHSVENS_11PointNormalENS_5LabelEE23setRefinementComparatorERKN5boost10shared_ptrINS_25PlaneRefinementComparatorIS1_S2_S3_EEEE@Base 1.6
 (optional=templinst)_ZN3pcl31OrganizedMultiPlaneSegmentationINS_11PointXYZHSVENS_11PointNormalENS_5LabelEE6refineERSt6vectorINS_17ModelCoefficientsESaIS6_EERS5_INS_12PointIndicesESaISA_EERS5_IN5Eigen6MatrixIfLi4ELi1ELi0ELi4ELi1EEENSE_17aligned_allocatorISG_EEERS5_INSF_IfLi3ELi3ELi0ELi3ELi3EEENSH_ISL_EEERN5boost10shared_ptrINS_10PointCloudIS3_EEEESD_@Base 1.6
 (optional=templinst)_ZN3pcl31OrganizedMultiPlaneSegmentationINS_11PointXYZHSVENS_11PointNormalENS_5LabelEE7segmentERSt6vectorINS_12PlanarRegionIS1_EEN5Eigen17aligned_allocatorIS7_EEE@Base 1.6
 (optional=templinst)_ZN3pcl31OrganizedMultiPlaneSegmentationINS_11PointXYZHSVENS_11PointNormalENS_5LabelEE7segmentERSt6vectorINS_17ModelCoefficientsESaIS6_EERS5_INS_12PointIndicesESaISA_EE@Base 1.6
 (optional=templinst)_ZN3pcl31OrganizedMultiPlaneSegmentationINS_11PointXYZHSVENS_11PointNormalENS_5LabelEE7segmentERSt6vectorINS_17ModelCoefficientsESaIS6_EERS5_INS_12PointIndicesESaISA_EERS5_IN5Eigen6MatrixIfLi4ELi1ELi0ELi4ELi1EEENSE_17aligned_allocatorISG_EEERS5_INSF_IfLi3ELi3ELi0ELi3ELi3EEENSH_ISL_EEERNS_10PointCloudIS3_EESD_@Base 1.6
 (optional=templinst)_ZN3pcl31OrganizedMultiPlaneSegmentationINS_11PointXYZHSVENS_11PointNormalENS_5LabelEEC1Ev@Base 1.6
 (optional=templinst)_ZN3pcl31OrganizedMultiPlaneSegmentationINS_11PointXYZHSVENS_11PointNormalENS_5LabelEEC2Ev@Base 1.6
 (optional=templinst)_ZN3pcl31OrganizedMultiPlaneSegmentationINS_11PointXYZHSVENS_11PointNormalENS_5LabelEED0Ev@Base 1.6
 (optional=templinst)_ZN3pcl31OrganizedMultiPlaneSegmentationINS_11PointXYZHSVENS_11PointNormalENS_5LabelEED1Ev@Base 1.6
 (optional=templinst)_ZN3pcl31OrganizedMultiPlaneSegmentationINS_11PointXYZHSVENS_11PointNormalENS_5LabelEED2Ev@Base 1.6
 (optional=templinst)_ZN3pcl31OrganizedMultiPlaneSegmentationINS_11PointXYZHSVENS_15PointXYZINormalENS_5LabelEE13setComparatorERKN5boost10shared_ptrINS_26PlaneCoefficientComparatorIS1_S2_EEEE@Base 1.6
 (optional=templinst)_ZN3pcl31OrganizedMultiPlaneSegmentationINS_11PointXYZHSVENS_15PointXYZINormalENS_5LabelEE13setMinInliersEj@Base 1.6
 (optional=templinst)_ZN3pcl31OrganizedMultiPlaneSegmentationINS_11PointXYZHSVENS_15PointXYZINormalENS_5LabelEE15setInputNormalsERKN5boost10shared_ptrIKNS_10PointCloudIS2_EEEE@Base 1.6
 (optional=templinst)_ZN3pcl31OrganizedMultiPlaneSegmentationINS_11PointXYZHSVENS_15PointXYZINormalENS_5LabelEE16segmentAndRefineERSt6vectorINS_12PlanarRegionIS1_EEN5Eigen17aligned_allocatorIS7_EEE@Base 1.6
 (optional=templinst)_ZN3pcl31OrganizedMultiPlaneSegmentationINS_11PointXYZHSVENS_15PointXYZINormalENS_5LabelEE16segmentAndRefineERSt6vectorINS_12PlanarRegionIS1_EEN5Eigen17aligned_allocatorIS7_EEERS5_INS_17ModelCoefficientsESaISD_EERS5_INS_12PointIndicesESaISH_EERN5boost10shared_ptrINS_10PointCloudIS3_EEEESK_SK_@Base 1.6
 (optional=templinst)_ZN3pcl31OrganizedMultiPlaneSegmentationINS_11PointXYZHSVENS_15PointXYZINormalENS_5LabelEE16setProjectPointsEb@Base 1.6
 (optional=templinst)_ZN3pcl31OrganizedMultiPlaneSegmentationINS_11PointXYZHSVENS_15PointXYZINormalENS_5LabelEE19setAngularThresholdEd@Base 1.6
 (optional=templinst)_ZN3pcl31OrganizedMultiPlaneSegmentationINS_11PointXYZHSVENS_15PointXYZINormalENS_5LabelEE19setMaximumCurvatureEd@Base 1.6
 (optional=templinst)_ZN3pcl31OrganizedMultiPlaneSegmentationINS_11PointXYZHSVENS_15PointXYZINormalENS_5LabelEE20setDistanceThresholdEd@Base 1.6
 (optional=templinst)_ZN3pcl31OrganizedMultiPlaneSegmentationINS_11PointXYZHSVENS_15PointXYZINormalENS_5LabelEE23setRefinementComparatorERKN5boost10shared_ptrINS_25PlaneRefinementComparatorIS1_S2_S3_EEEE@Base 1.6
 (optional=templinst)_ZN3pcl31OrganizedMultiPlaneSegmentationINS_11PointXYZHSVENS_15PointXYZINormalENS_5LabelEE6refineERSt6vectorINS_17ModelCoefficientsESaIS6_EERS5_INS_12PointIndicesESaISA_EERS5_IN5Eigen6MatrixIfLi4ELi1ELi0ELi4ELi1EEENSE_17aligned_allocatorISG_EEERS5_INSF_IfLi3ELi3ELi0ELi3ELi3EEENSH_ISL_EEERN5boost10shared_ptrINS_10PointCloudIS3_EEEESD_@Base 1.6
 (optional=templinst)_ZN3pcl31OrganizedMultiPlaneSegmentationINS_11PointXYZHSVENS_15PointXYZINormalENS_5LabelEE7segmentERSt6vectorINS_12PlanarRegionIS1_EEN5Eigen17aligned_allocatorIS7_EEE@Base 1.6
 (optional=templinst)_ZN3pcl31OrganizedMultiPlaneSegmentationINS_11PointXYZHSVENS_15PointXYZINormalENS_5LabelEE7segmentERSt6vectorINS_17ModelCoefficientsESaIS6_EERS5_INS_12PointIndicesESaISA_EE@Base 1.6
 (optional=templinst)_ZN3pcl31OrganizedMultiPlaneSegmentationINS_11PointXYZHSVENS_15PointXYZINormalENS_5LabelEE7segmentERSt6vectorINS_17ModelCoefficientsESaIS6_EERS5_INS_12PointIndicesESaISA_EERS5_IN5Eigen6MatrixIfLi4ELi1ELi0ELi4ELi1EEENSE_17aligned_allocatorISG_EEERS5_INSF_IfLi3ELi3ELi0ELi3ELi3EEENSH_ISL_EEERNS_10PointCloudIS3_EESD_@Base 1.6
 (optional=templinst)_ZN3pcl31OrganizedMultiPlaneSegmentationINS_11PointXYZHSVENS_15PointXYZINormalENS_5LabelEEC1Ev@Base 1.6
 (optional=templinst)_ZN3pcl31OrganizedMultiPlaneSegmentationINS_11PointXYZHSVENS_15PointXYZINormalENS_5LabelEEC2Ev@Base 1.6
 (optional=templinst)_ZN3pcl31OrganizedMultiPlaneSegmentationINS_11PointXYZHSVENS_15PointXYZINormalENS_5LabelEED0Ev@Base 1.6
 (optional=templinst)_ZN3pcl31OrganizedMultiPlaneSegmentationINS_11PointXYZHSVENS_15PointXYZINormalENS_5LabelEED1Ev@Base 1.6
 (optional=templinst)_ZN3pcl31OrganizedMultiPlaneSegmentationINS_11PointXYZHSVENS_15PointXYZINormalENS_5LabelEED2Ev@Base 1.6
 (optional=templinst)_ZN3pcl31OrganizedMultiPlaneSegmentationINS_11PointXYZHSVENS_17PointXYZRGBNormalENS_5LabelEE13setComparatorERKN5boost10shared_ptrINS_26PlaneCoefficientComparatorIS1_S2_EEEE@Base 1.6
 (optional=templinst)_ZN3pcl31OrganizedMultiPlaneSegmentationINS_11PointXYZHSVENS_17PointXYZRGBNormalENS_5LabelEE13setMinInliersEj@Base 1.6
 (optional=templinst)_ZN3pcl31OrganizedMultiPlaneSegmentationINS_11PointXYZHSVENS_17PointXYZRGBNormalENS_5LabelEE15setInputNormalsERKN5boost10shared_ptrIKNS_10PointCloudIS2_EEEE@Base 1.6
 (optional=templinst)_ZN3pcl31OrganizedMultiPlaneSegmentationINS_11PointXYZHSVENS_17PointXYZRGBNormalENS_5LabelEE16segmentAndRefineERSt6vectorINS_12PlanarRegionIS1_EEN5Eigen17aligned_allocatorIS7_EEE@Base 1.6
 (optional=templinst)_ZN3pcl31OrganizedMultiPlaneSegmentationINS_11PointXYZHSVENS_17PointXYZRGBNormalENS_5LabelEE16segmentAndRefineERSt6vectorINS_12PlanarRegionIS1_EEN5Eigen17aligned_allocatorIS7_EEERS5_INS_17ModelCoefficientsESaISD_EERS5_INS_12PointIndicesESaISH_EERN5boost10shared_ptrINS_10PointCloudIS3_EEEESK_SK_@Base 1.6
 (optional=templinst)_ZN3pcl31OrganizedMultiPlaneSegmentationINS_11PointXYZHSVENS_17PointXYZRGBNormalENS_5LabelEE16setProjectPointsEb@Base 1.6
 (optional=templinst)_ZN3pcl31OrganizedMultiPlaneSegmentationINS_11PointXYZHSVENS_17PointXYZRGBNormalENS_5LabelEE19setAngularThresholdEd@Base 1.6
 (optional=templinst)_ZN3pcl31OrganizedMultiPlaneSegmentationINS_11PointXYZHSVENS_17PointXYZRGBNormalENS_5LabelEE19setMaximumCurvatureEd@Base 1.6
 (optional=templinst)_ZN3pcl31OrganizedMultiPlaneSegmentationINS_11PointXYZHSVENS_17PointXYZRGBNormalENS_5LabelEE20setDistanceThresholdEd@Base 1.6
 (optional=templinst)_ZN3pcl31OrganizedMultiPlaneSegmentationINS_11PointXYZHSVENS_17PointXYZRGBNormalENS_5LabelEE23setRefinementComparatorERKN5boost10shared_ptrINS_25PlaneRefinementComparatorIS1_S2_S3_EEEE@Base 1.6
 (optional=templinst)_ZN3pcl31OrganizedMultiPlaneSegmentationINS_11PointXYZHSVENS_17PointXYZRGBNormalENS_5LabelEE6refineERSt6vectorINS_17ModelCoefficientsESaIS6_EERS5_INS_12PointIndicesESaISA_EERS5_IN5Eigen6MatrixIfLi4ELi1ELi0ELi4ELi1EEENSE_17aligned_allocatorISG_EEERS5_INSF_IfLi3ELi3ELi0ELi3ELi3EEENSH_ISL_EEERN5boost10shared_ptrINS_10PointCloudIS3_EEEESD_@Base 1.6
 (optional=templinst)_ZN3pcl31OrganizedMultiPlaneSegmentationINS_11PointXYZHSVENS_17PointXYZRGBNormalENS_5LabelEE7segmentERSt6vectorINS_12PlanarRegionIS1_EEN5Eigen17aligned_allocatorIS7_EEE@Base 1.6
 (optional=templinst)_ZN3pcl31OrganizedMultiPlaneSegmentationINS_11PointXYZHSVENS_17PointXYZRGBNormalENS_5LabelEE7segmentERSt6vectorINS_17ModelCoefficientsESaIS6_EERS5_INS_12PointIndicesESaISA_EE@Base 1.6
 (optional=templinst)_ZN3pcl31OrganizedMultiPlaneSegmentationINS_11PointXYZHSVENS_17PointXYZRGBNormalENS_5LabelEE7segmentERSt6vectorINS_17ModelCoefficientsESaIS6_EERS5_INS_12PointIndicesESaISA_EERS5_IN5Eigen6MatrixIfLi4ELi1ELi0ELi4ELi1EEENSE_17aligned_allocatorISG_EEERS5_INSF_IfLi3ELi3ELi0ELi3ELi3EEENSH_ISL_EEERNS_10PointCloudIS3_EESD_@Base 1.6
 (optional=templinst)_ZN3pcl31OrganizedMultiPlaneSegmentationINS_11PointXYZHSVENS_17PointXYZRGBNormalENS_5LabelEEC1Ev@Base 1.6
 (optional=templinst)_ZN3pcl31OrganizedMultiPlaneSegmentationINS_11PointXYZHSVENS_17PointXYZRGBNormalENS_5LabelEEC2Ev@Base 1.6
 (optional=templinst)_ZN3pcl31OrganizedMultiPlaneSegmentationINS_11PointXYZHSVENS_17PointXYZRGBNormalENS_5LabelEED0Ev@Base 1.6
 (optional=templinst)_ZN3pcl31OrganizedMultiPlaneSegmentationINS_11PointXYZHSVENS_17PointXYZRGBNormalENS_5LabelEED1Ev@Base 1.6
 (optional=templinst)_ZN3pcl31OrganizedMultiPlaneSegmentationINS_11PointXYZHSVENS_17PointXYZRGBNormalENS_5LabelEED2Ev@Base 1.6
 (optional=templinst)_ZN3pcl31OrganizedMultiPlaneSegmentationINS_11PointXYZHSVENS_6NormalENS_5LabelEE13setComparatorERKN5boost10shared_ptrINS_26PlaneCoefficientComparatorIS1_S2_EEEE@Base 1.6
 (optional=templinst)_ZN3pcl31OrganizedMultiPlaneSegmentationINS_11PointXYZHSVENS_6NormalENS_5LabelEE13setMinInliersEj@Base 1.6
 (optional=templinst)_ZN3pcl31OrganizedMultiPlaneSegmentationINS_11PointXYZHSVENS_6NormalENS_5LabelEE15setInputNormalsERKN5boost10shared_ptrIKNS_10PointCloudIS2_EEEE@Base 1.6
 (optional=templinst)_ZN3pcl31OrganizedMultiPlaneSegmentationINS_11PointXYZHSVENS_6NormalENS_5LabelEE16segmentAndRefineERSt6vectorINS_12PlanarRegionIS1_EEN5Eigen17aligned_allocatorIS7_EEE@Base 1.6
 (optional=templinst)_ZN3pcl31OrganizedMultiPlaneSegmentationINS_11PointXYZHSVENS_6NormalENS_5LabelEE16segmentAndRefineERSt6vectorINS_12PlanarRegionIS1_EEN5Eigen17aligned_allocatorIS7_EEERS5_INS_17ModelCoefficientsESaISD_EERS5_INS_12PointIndicesESaISH_EERN5boost10shared_ptrINS_10PointCloudIS3_EEEESK_SK_@Base 1.6
 (optional=templinst)_ZN3pcl31OrganizedMultiPlaneSegmentationINS_11PointXYZHSVENS_6NormalENS_5LabelEE16setProjectPointsEb@Base 1.6
 (optional=templinst)_ZN3pcl31OrganizedMultiPlaneSegmentationINS_11PointXYZHSVENS_6NormalENS_5LabelEE19setAngularThresholdEd@Base 1.6
 (optional=templinst)_ZN3pcl31OrganizedMultiPlaneSegmentationINS_11PointXYZHSVENS_6NormalENS_5LabelEE19setMaximumCurvatureEd@Base 1.6
 (optional=templinst)_ZN3pcl31OrganizedMultiPlaneSegmentationINS_11PointXYZHSVENS_6NormalENS_5LabelEE20setDistanceThresholdEd@Base 1.6
 (optional=templinst)_ZN3pcl31OrganizedMultiPlaneSegmentationINS_11PointXYZHSVENS_6NormalENS_5LabelEE23setRefinementComparatorERKN5boost10shared_ptrINS_25PlaneRefinementComparatorIS1_S2_S3_EEEE@Base 1.6
 (optional=templinst)_ZN3pcl31OrganizedMultiPlaneSegmentationINS_11PointXYZHSVENS_6NormalENS_5LabelEE6refineERSt6vectorINS_17ModelCoefficientsESaIS6_EERS5_INS_12PointIndicesESaISA_EERS5_IN5Eigen6MatrixIfLi4ELi1ELi0ELi4ELi1EEENSE_17aligned_allocatorISG_EEERS5_INSF_IfLi3ELi3ELi0ELi3ELi3EEENSH_ISL_EEERN5boost10shared_ptrINS_10PointCloudIS3_EEEESD_@Base 1.6
 (optional=templinst)_ZN3pcl31OrganizedMultiPlaneSegmentationINS_11PointXYZHSVENS_6NormalENS_5LabelEE7segmentERSt6vectorINS_12PlanarRegionIS1_EEN5Eigen17aligned_allocatorIS7_EEE@Base 1.6
 (optional=templinst)_ZN3pcl31OrganizedMultiPlaneSegmentationINS_11PointXYZHSVENS_6NormalENS_5LabelEE7segmentERSt6vectorINS_17ModelCoefficientsESaIS6_EERS5_INS_12PointIndicesESaISA_EE@Base 1.6
 (optional=templinst)_ZN3pcl31OrganizedMultiPlaneSegmentationINS_11PointXYZHSVENS_6NormalENS_5LabelEE7segmentERSt6vectorINS_17ModelCoefficientsESaIS6_EERS5_INS_12PointIndicesESaISA_EERS5_IN5Eigen6MatrixIfLi4ELi1ELi0ELi4ELi1EEENSE_17aligned_allocatorISG_EEERS5_INSF_IfLi3ELi3ELi0ELi3ELi3EEENSH_ISL_EEERNS_10PointCloudIS3_EESD_@Base 1.6
 (optional=templinst)_ZN3pcl31OrganizedMultiPlaneSegmentationINS_11PointXYZHSVENS_6NormalENS_5LabelEEC1Ev@Base 1.6
 (optional=templinst)_ZN3pcl31OrganizedMultiPlaneSegmentationINS_11PointXYZHSVENS_6NormalENS_5LabelEEC2Ev@Base 1.6
 (optional=templinst)_ZN3pcl31OrganizedMultiPlaneSegmentationINS_11PointXYZHSVENS_6NormalENS_5LabelEED0Ev@Base 1.6
 (optional=templinst)_ZN3pcl31OrganizedMultiPlaneSegmentationINS_11PointXYZHSVENS_6NormalENS_5LabelEED1Ev@Base 1.6
 (optional=templinst)_ZN3pcl31OrganizedMultiPlaneSegmentationINS_11PointXYZHSVENS_6NormalENS_5LabelEED2Ev@Base 1.6
 (optional=templinst)_ZN3pcl31OrganizedMultiPlaneSegmentationINS_11PointXYZRGBENS_11PointNormalENS_5LabelEE13setComparatorERKN5boost10shared_ptrINS_26PlaneCoefficientComparatorIS1_S2_EEEE@Base 1.6
 (optional=templinst)_ZN3pcl31OrganizedMultiPlaneSegmentationINS_11PointXYZRGBENS_11PointNormalENS_5LabelEE13setMinInliersEj@Base 1.6
 (optional=templinst)_ZN3pcl31OrganizedMultiPlaneSegmentationINS_11PointXYZRGBENS_11PointNormalENS_5LabelEE15setInputNormalsERKN5boost10shared_ptrIKNS_10PointCloudIS2_EEEE@Base 1.6
 (optional=templinst)_ZN3pcl31OrganizedMultiPlaneSegmentationINS_11PointXYZRGBENS_11PointNormalENS_5LabelEE16segmentAndRefineERSt6vectorINS_12PlanarRegionIS1_EEN5Eigen17aligned_allocatorIS7_EEE@Base 1.6
 (optional=templinst)_ZN3pcl31OrganizedMultiPlaneSegmentationINS_11PointXYZRGBENS_11PointNormalENS_5LabelEE16segmentAndRefineERSt6vectorINS_12PlanarRegionIS1_EEN5Eigen17aligned_allocatorIS7_EEERS5_INS_17ModelCoefficientsESaISD_EERS5_INS_12PointIndicesESaISH_EERN5boost10shared_ptrINS_10PointCloudIS3_EEEESK_SK_@Base 1.6
 (optional=templinst)_ZN3pcl31OrganizedMultiPlaneSegmentationINS_11PointXYZRGBENS_11PointNormalENS_5LabelEE16setProjectPointsEb@Base 1.6
 (optional=templinst)_ZN3pcl31OrganizedMultiPlaneSegmentationINS_11PointXYZRGBENS_11PointNormalENS_5LabelEE19setAngularThresholdEd@Base 1.6
 (optional=templinst)_ZN3pcl31OrganizedMultiPlaneSegmentationINS_11PointXYZRGBENS_11PointNormalENS_5LabelEE19setMaximumCurvatureEd@Base 1.6
 (optional=templinst)_ZN3pcl31OrganizedMultiPlaneSegmentationINS_11PointXYZRGBENS_11PointNormalENS_5LabelEE20setDistanceThresholdEd@Base 1.6
 (optional=templinst)_ZN3pcl31OrganizedMultiPlaneSegmentationINS_11PointXYZRGBENS_11PointNormalENS_5LabelEE23setRefinementComparatorERKN5boost10shared_ptrINS_25PlaneRefinementComparatorIS1_S2_S3_EEEE@Base 1.6
 (optional=templinst)_ZN3pcl31OrganizedMultiPlaneSegmentationINS_11PointXYZRGBENS_11PointNormalENS_5LabelEE6refineERSt6vectorINS_17ModelCoefficientsESaIS6_EERS5_INS_12PointIndicesESaISA_EERS5_IN5Eigen6MatrixIfLi4ELi1ELi0ELi4ELi1EEENSE_17aligned_allocatorISG_EEERS5_INSF_IfLi3ELi3ELi0ELi3ELi3EEENSH_ISL_EEERN5boost10shared_ptrINS_10PointCloudIS3_EEEESD_@Base 1.6
 (optional=templinst)_ZN3pcl31OrganizedMultiPlaneSegmentationINS_11PointXYZRGBENS_11PointNormalENS_5LabelEE7segmentERSt6vectorINS_12PlanarRegionIS1_EEN5Eigen17aligned_allocatorIS7_EEE@Base 1.6
 (optional=templinst)_ZN3pcl31OrganizedMultiPlaneSegmentationINS_11PointXYZRGBENS_11PointNormalENS_5LabelEE7segmentERSt6vectorINS_17ModelCoefficientsESaIS6_EERS5_INS_12PointIndicesESaISA_EE@Base 1.6
 (optional=templinst)_ZN3pcl31OrganizedMultiPlaneSegmentationINS_11PointXYZRGBENS_11PointNormalENS_5LabelEE7segmentERSt6vectorINS_17ModelCoefficientsESaIS6_EERS5_INS_12PointIndicesESaISA_EERS5_IN5Eigen6MatrixIfLi4ELi1ELi0ELi4ELi1EEENSE_17aligned_allocatorISG_EEERS5_INSF_IfLi3ELi3ELi0ELi3ELi3EEENSH_ISL_EEERNS_10PointCloudIS3_EESD_@Base 1.6
 (optional=templinst)_ZN3pcl31OrganizedMultiPlaneSegmentationINS_11PointXYZRGBENS_11PointNormalENS_5LabelEEC1Ev@Base 1.6
 (optional=templinst)_ZN3pcl31OrganizedMultiPlaneSegmentationINS_11PointXYZRGBENS_11PointNormalENS_5LabelEEC2Ev@Base 1.6
 (optional=templinst)_ZN3pcl31OrganizedMultiPlaneSegmentationINS_11PointXYZRGBENS_11PointNormalENS_5LabelEED0Ev@Base 1.6
 (optional=templinst)_ZN3pcl31OrganizedMultiPlaneSegmentationINS_11PointXYZRGBENS_11PointNormalENS_5LabelEED1Ev@Base 1.6
 (optional=templinst)_ZN3pcl31OrganizedMultiPlaneSegmentationINS_11PointXYZRGBENS_11PointNormalENS_5LabelEED2Ev@Base 1.6
 (optional=templinst)_ZN3pcl31OrganizedMultiPlaneSegmentationINS_11PointXYZRGBENS_15PointXYZINormalENS_5LabelEE13setComparatorERKN5boost10shared_ptrINS_26PlaneCoefficientComparatorIS1_S2_EEEE@Base 1.6
 (optional=templinst)_ZN3pcl31OrganizedMultiPlaneSegmentationINS_11PointXYZRGBENS_15PointXYZINormalENS_5LabelEE13setMinInliersEj@Base 1.6
 (optional=templinst)_ZN3pcl31OrganizedMultiPlaneSegmentationINS_11PointXYZRGBENS_15PointXYZINormalENS_5LabelEE15setInputNormalsERKN5boost10shared_ptrIKNS_10PointCloudIS2_EEEE@Base 1.6
 (optional=templinst)_ZN3pcl31OrganizedMultiPlaneSegmentationINS_11PointXYZRGBENS_15PointXYZINormalENS_5LabelEE16segmentAndRefineERSt6vectorINS_12PlanarRegionIS1_EEN5Eigen17aligned_allocatorIS7_EEE@Base 1.6
 (optional=templinst)_ZN3pcl31OrganizedMultiPlaneSegmentationINS_11PointXYZRGBENS_15PointXYZINormalENS_5LabelEE16segmentAndRefineERSt6vectorINS_12PlanarRegionIS1_EEN5Eigen17aligned_allocatorIS7_EEERS5_INS_17ModelCoefficientsESaISD_EERS5_INS_12PointIndicesESaISH_EERN5boost10shared_ptrINS_10PointCloudIS3_EEEESK_SK_@Base 1.6
 (optional=templinst)_ZN3pcl31OrganizedMultiPlaneSegmentationINS_11PointXYZRGBENS_15PointXYZINormalENS_5LabelEE16setProjectPointsEb@Base 1.6
 (optional=templinst)_ZN3pcl31OrganizedMultiPlaneSegmentationINS_11PointXYZRGBENS_15PointXYZINormalENS_5LabelEE19setAngularThresholdEd@Base 1.6
 (optional=templinst)_ZN3pcl31OrganizedMultiPlaneSegmentationINS_11PointXYZRGBENS_15PointXYZINormalENS_5LabelEE19setMaximumCurvatureEd@Base 1.6
 (optional=templinst)_ZN3pcl31OrganizedMultiPlaneSegmentationINS_11PointXYZRGBENS_15PointXYZINormalENS_5LabelEE20setDistanceThresholdEd@Base 1.6
 (optional=templinst)_ZN3pcl31OrganizedMultiPlaneSegmentationINS_11PointXYZRGBENS_15PointXYZINormalENS_5LabelEE23setRefinementComparatorERKN5boost10shared_ptrINS_25PlaneRefinementComparatorIS1_S2_S3_EEEE@Base 1.6
 (optional=templinst)_ZN3pcl31OrganizedMultiPlaneSegmentationINS_11PointXYZRGBENS_15PointXYZINormalENS_5LabelEE6refineERSt6vectorINS_17ModelCoefficientsESaIS6_EERS5_INS_12PointIndicesESaISA_EERS5_IN5Eigen6MatrixIfLi4ELi1ELi0ELi4ELi1EEENSE_17aligned_allocatorISG_EEERS5_INSF_IfLi3ELi3ELi0ELi3ELi3EEENSH_ISL_EEERN5boost10shared_ptrINS_10PointCloudIS3_EEEESD_@Base 1.6
 (optional=templinst)_ZN3pcl31OrganizedMultiPlaneSegmentationINS_11PointXYZRGBENS_15PointXYZINormalENS_5LabelEE7segmentERSt6vectorINS_12PlanarRegionIS1_EEN5Eigen17aligned_allocatorIS7_EEE@Base 1.6
 (optional=templinst)_ZN3pcl31OrganizedMultiPlaneSegmentationINS_11PointXYZRGBENS_15PointXYZINormalENS_5LabelEE7segmentERSt6vectorINS_17ModelCoefficientsESaIS6_EERS5_INS_12PointIndicesESaISA_EE@Base 1.6
 (optional=templinst)_ZN3pcl31OrganizedMultiPlaneSegmentationINS_11PointXYZRGBENS_15PointXYZINormalENS_5LabelEE7segmentERSt6vectorINS_17ModelCoefficientsESaIS6_EERS5_INS_12PointIndicesESaISA_EERS5_IN5Eigen6MatrixIfLi4ELi1ELi0ELi4ELi1EEENSE_17aligned_allocatorISG_EEERS5_INSF_IfLi3ELi3ELi0ELi3ELi3EEENSH_ISL_EEERNS_10PointCloudIS3_EESD_@Base 1.6
 (optional=templinst)_ZN3pcl31OrganizedMultiPlaneSegmentationINS_11PointXYZRGBENS_15PointXYZINormalENS_5LabelEEC1Ev@Base 1.6
 (optional=templinst)_ZN3pcl31OrganizedMultiPlaneSegmentationINS_11PointXYZRGBENS_15PointXYZINormalENS_5LabelEEC2Ev@Base 1.6
 (optional=templinst)_ZN3pcl31OrganizedMultiPlaneSegmentationINS_11PointXYZRGBENS_15PointXYZINormalENS_5LabelEED0Ev@Base 1.6
 (optional=templinst)_ZN3pcl31OrganizedMultiPlaneSegmentationINS_11PointXYZRGBENS_15PointXYZINormalENS_5LabelEED1Ev@Base 1.6
 (optional=templinst)_ZN3pcl31OrganizedMultiPlaneSegmentationINS_11PointXYZRGBENS_15PointXYZINormalENS_5LabelEED2Ev@Base 1.6
 (optional=templinst)_ZN3pcl31OrganizedMultiPlaneSegmentationINS_11PointXYZRGBENS_17PointXYZRGBNormalENS_5LabelEE13setComparatorERKN5boost10shared_ptrINS_26PlaneCoefficientComparatorIS1_S2_EEEE@Base 1.6
 (optional=templinst)_ZN3pcl31OrganizedMultiPlaneSegmentationINS_11PointXYZRGBENS_17PointXYZRGBNormalENS_5LabelEE13setMinInliersEj@Base 1.6
 (optional=templinst)_ZN3pcl31OrganizedMultiPlaneSegmentationINS_11PointXYZRGBENS_17PointXYZRGBNormalENS_5LabelEE15setInputNormalsERKN5boost10shared_ptrIKNS_10PointCloudIS2_EEEE@Base 1.6
 (optional=templinst)_ZN3pcl31OrganizedMultiPlaneSegmentationINS_11PointXYZRGBENS_17PointXYZRGBNormalENS_5LabelEE16segmentAndRefineERSt6vectorINS_12PlanarRegionIS1_EEN5Eigen17aligned_allocatorIS7_EEE@Base 1.6
 (optional=templinst)_ZN3pcl31OrganizedMultiPlaneSegmentationINS_11PointXYZRGBENS_17PointXYZRGBNormalENS_5LabelEE16segmentAndRefineERSt6vectorINS_12PlanarRegionIS1_EEN5Eigen17aligned_allocatorIS7_EEERS5_INS_17ModelCoefficientsESaISD_EERS5_INS_12PointIndicesESaISH_EERN5boost10shared_ptrINS_10PointCloudIS3_EEEESK_SK_@Base 1.6
 (optional=templinst)_ZN3pcl31OrganizedMultiPlaneSegmentationINS_11PointXYZRGBENS_17PointXYZRGBNormalENS_5LabelEE16setProjectPointsEb@Base 1.6
 (optional=templinst)_ZN3pcl31OrganizedMultiPlaneSegmentationINS_11PointXYZRGBENS_17PointXYZRGBNormalENS_5LabelEE19setAngularThresholdEd@Base 1.6
 (optional=templinst)_ZN3pcl31OrganizedMultiPlaneSegmentationINS_11PointXYZRGBENS_17PointXYZRGBNormalENS_5LabelEE19setMaximumCurvatureEd@Base 1.6
 (optional=templinst)_ZN3pcl31OrganizedMultiPlaneSegmentationINS_11PointXYZRGBENS_17PointXYZRGBNormalENS_5LabelEE20setDistanceThresholdEd@Base 1.6
 (optional=templinst)_ZN3pcl31OrganizedMultiPlaneSegmentationINS_11PointXYZRGBENS_17PointXYZRGBNormalENS_5LabelEE23setRefinementComparatorERKN5boost10shared_ptrINS_25PlaneRefinementComparatorIS1_S2_S3_EEEE@Base 1.6
 (optional=templinst)_ZN3pcl31OrganizedMultiPlaneSegmentationINS_11PointXYZRGBENS_17PointXYZRGBNormalENS_5LabelEE6refineERSt6vectorINS_17ModelCoefficientsESaIS6_EERS5_INS_12PointIndicesESaISA_EERS5_IN5Eigen6MatrixIfLi4ELi1ELi0ELi4ELi1EEENSE_17aligned_allocatorISG_EEERS5_INSF_IfLi3ELi3ELi0ELi3ELi3EEENSH_ISL_EEERN5boost10shared_ptrINS_10PointCloudIS3_EEEESD_@Base 1.6
 (optional=templinst)_ZN3pcl31OrganizedMultiPlaneSegmentationINS_11PointXYZRGBENS_17PointXYZRGBNormalENS_5LabelEE7segmentERSt6vectorINS_12PlanarRegionIS1_EEN5Eigen17aligned_allocatorIS7_EEE@Base 1.6
 (optional=templinst)_ZN3pcl31OrganizedMultiPlaneSegmentationINS_11PointXYZRGBENS_17PointXYZRGBNormalENS_5LabelEE7segmentERSt6vectorINS_17ModelCoefficientsESaIS6_EERS5_INS_12PointIndicesESaISA_EE@Base 1.6
 (optional=templinst)_ZN3pcl31OrganizedMultiPlaneSegmentationINS_11PointXYZRGBENS_17PointXYZRGBNormalENS_5LabelEE7segmentERSt6vectorINS_17ModelCoefficientsESaIS6_EERS5_INS_12PointIndicesESaISA_EERS5_IN5Eigen6MatrixIfLi4ELi1ELi0ELi4ELi1EEENSE_17aligned_allocatorISG_EEERS5_INSF_IfLi3ELi3ELi0ELi3ELi3EEENSH_ISL_EEERNS_10PointCloudIS3_EESD_@Base 1.6
 (optional=templinst)_ZN3pcl31OrganizedMultiPlaneSegmentationINS_11PointXYZRGBENS_17PointXYZRGBNormalENS_5LabelEEC1Ev@Base 1.6
 (optional=templinst)_ZN3pcl31OrganizedMultiPlaneSegmentationINS_11PointXYZRGBENS_17PointXYZRGBNormalENS_5LabelEEC2Ev@Base 1.6
 (optional=templinst)_ZN3pcl31OrganizedMultiPlaneSegmentationINS_11PointXYZRGBENS_17PointXYZRGBNormalENS_5LabelEED0Ev@Base 1.6
 (optional=templinst)_ZN3pcl31OrganizedMultiPlaneSegmentationINS_11PointXYZRGBENS_17PointXYZRGBNormalENS_5LabelEED1Ev@Base 1.6
 (optional=templinst)_ZN3pcl31OrganizedMultiPlaneSegmentationINS_11PointXYZRGBENS_17PointXYZRGBNormalENS_5LabelEED2Ev@Base 1.6
 (optional=templinst)_ZN3pcl31OrganizedMultiPlaneSegmentationINS_11PointXYZRGBENS_6NormalENS_5LabelEE13setComparatorERKN5boost10shared_ptrINS_26PlaneCoefficientComparatorIS1_S2_EEEE@Base 1.6
 (optional=templinst)_ZN3pcl31OrganizedMultiPlaneSegmentationINS_11PointXYZRGBENS_6NormalENS_5LabelEE13setMinInliersEj@Base 1.6
 (optional=templinst)_ZN3pcl31OrganizedMultiPlaneSegmentationINS_11PointXYZRGBENS_6NormalENS_5LabelEE15setInputNormalsERKN5boost10shared_ptrIKNS_10PointCloudIS2_EEEE@Base 1.6
 (optional=templinst)_ZN3pcl31OrganizedMultiPlaneSegmentationINS_11PointXYZRGBENS_6NormalENS_5LabelEE16segmentAndRefineERSt6vectorINS_12PlanarRegionIS1_EEN5Eigen17aligned_allocatorIS7_EEE@Base 1.6
 (optional=templinst)_ZN3pcl31OrganizedMultiPlaneSegmentationINS_11PointXYZRGBENS_6NormalENS_5LabelEE16segmentAndRefineERSt6vectorINS_12PlanarRegionIS1_EEN5Eigen17aligned_allocatorIS7_EEERS5_INS_17ModelCoefficientsESaISD_EERS5_INS_12PointIndicesESaISH_EERN5boost10shared_ptrINS_10PointCloudIS3_EEEESK_SK_@Base 1.6
 (optional=templinst)_ZN3pcl31OrganizedMultiPlaneSegmentationINS_11PointXYZRGBENS_6NormalENS_5LabelEE16setProjectPointsEb@Base 1.6
 (optional=templinst)_ZN3pcl31OrganizedMultiPlaneSegmentationINS_11PointXYZRGBENS_6NormalENS_5LabelEE19setAngularThresholdEd@Base 1.6
 (optional=templinst)_ZN3pcl31OrganizedMultiPlaneSegmentationINS_11PointXYZRGBENS_6NormalENS_5LabelEE19setMaximumCurvatureEd@Base 1.6
