# SymbolsHelper-Confirmed: 1.6 amd64
libpcl_io.so.1.6 libpcl-io1.6 #MINVER#
 _ZGVN5boost16exception_detail37exception_ptr_static_exception_objectINS0_10bad_alloc_EE1eE@Base 1.6
 _ZGVN5boost16exception_detail37exception_ptr_static_exception_objectINS0_14bad_exception_EE1eE@Base 1.6
 _ZGVZN14openni_wrapper12OpenNIDriver11getInstanceEvE6driver@Base 1.6
 _ZGVZN5boost16exception_detail27get_static_exception_objectINS0_10bad_alloc_EEENS_13exception_ptrEvE2ep@Base 1.6
 _ZGVZN5boost16exception_detail27get_static_exception_objectINS0_14bad_exception_EEENS_13exception_ptrEvE2ep@Base 1.6
 _ZGVZNK3pcl13OpenNIGrabber25convertToXYZRGBPointCloudINS_11PointXYZRGBEEENS_10PointCloudIT_E3PtrERKN5boost10shared_ptrIN14openni_wrapper5ImageEEERKNS8_INS9_10DepthImageEEEE12depth_buffer@Base 1.6
 _ZGVZNK3pcl13OpenNIGrabber25convertToXYZRGBPointCloudINS_11PointXYZRGBEEENS_10PointCloudIT_E3PtrERKN5boost10shared_ptrIN14openni_wrapper5ImageEEERKNS8_INS9_10DepthImageEEEE9rgb_array@Base 1.6
 _ZGVZNK3pcl13OpenNIGrabber25convertToXYZRGBPointCloudINS_12PointXYZRGBAEEENS_10PointCloudIT_E3PtrERKN5boost10shared_ptrIN14openni_wrapper5ImageEEERKNS8_INS9_10DepthImageEEEE12depth_buffer@Base 1.6
 _ZGVZNK3pcl13OpenNIGrabber25convertToXYZRGBPointCloudINS_12PointXYZRGBAEEENS_10PointCloudIT_E3PtrERKN5boost10shared_ptrIN14openni_wrapper5ImageEEERKNS8_INS9_10DepthImageEEEE9rgb_array@Base 1.6
 _ZN11sensor_msgs10PointFieldD1Ev@Base 1.6
 _ZN11sensor_msgs10PointFieldD2Ev@Base 1.6
 _ZN11sensor_msgs11PointCloud2D1Ev@Base 1.6
 _ZN11sensor_msgs11PointCloud2D2Ev@Base 1.6
 _ZN14openni_wrapper10DepthImageD0Ev@Base 1.6
 _ZN14openni_wrapper10DepthImageD1Ev@Base 1.6
 _ZN14openni_wrapper10DepthImageD2Ev@Base 1.6
 _ZN14openni_wrapper10ImageRGB24C1EN5boost10shared_ptrIN2xn13ImageMetaDataEEE@Base 1.6
 _ZN14openni_wrapper10ImageRGB24C2EN5boost10shared_ptrIN2xn13ImageMetaDataEEE@Base 1.6
 _ZN14openni_wrapper10ImageRGB24D0Ev@Base 1.6
 _ZN14openni_wrapper10ImageRGB24D1Ev@Base 1.6
 _ZN14openni_wrapper10ImageRGB24D2Ev@Base 1.6
 _ZN14openni_wrapper11ImageYUV422C1EN5boost10shared_ptrIN2xn13ImageMetaDataEEE@Base 1.6
 _ZN14openni_wrapper11ImageYUV422C2EN5boost10shared_ptrIN2xn13ImageMetaDataEEE@Base 1.6
 _ZN14openni_wrapper11ImageYUV422D0Ev@Base 1.6
 _ZN14openni_wrapper11ImageYUV422D1Ev@Base 1.6
 _ZN14openni_wrapper11ImageYUV422D2Ev@Base 1.6
 _ZN14openni_wrapper12DeviceKinect18enumAvailableModesEv@Base 1.6
 _ZN14openni_wrapper12DeviceKinectC1ERN2xn7ContextERKNS1_8NodeInfoES6_S6_S6_@Base 1.6
 _ZN14openni_wrapper12DeviceKinectC2ERN2xn7ContextERKNS1_8NodeInfoES6_S6_S6_@Base 1.6
 _ZN14openni_wrapper12DeviceKinectD0Ev@Base 1.6
 _ZN14openni_wrapper12DeviceKinectD1Ev@Base 1.6
 _ZN14openni_wrapper12DeviceKinectD2Ev@Base 1.6
 _ZN14openni_wrapper12OpenNIDevice12stopIRStreamEv@Base 1.6
 _ZN14openni_wrapper12OpenNIDevice13startIRStreamEv@Base 1.6
 _ZN14openni_wrapper12OpenNIDevice15setIROutputModeERK15XnMapOutputMode@Base 1.6
 _ZN14openni_wrapper12OpenNIDevice15stopDepthStreamEv@Base 1.6
 _ZN14openni_wrapper12OpenNIDevice15stopImageStreamEv@Base 1.6
 _ZN14openni_wrapper12OpenNIDevice16setDepthCroppingEjjjj@Base 1.6
 _ZN14openni_wrapper12OpenNIDevice16startDepthStreamEv@Base 1.6
 _ZN14openni_wrapper12OpenNIDevice16startImageStreamEv@Base 1.6
 _ZN14openni_wrapper12OpenNIDevice18NewIRDataAvailableERN2xn14ProductionNodeEPv@Base 1.6
 _ZN14openni_wrapper12OpenNIDevice18registerIRCallbackERKN5boost8functionIFvNS1_10shared_ptrINS_7IRImageEEEPvEEES6_@Base 1.6
 (optional=templinst)_ZN14openni_wrapper12OpenNIDevice18registerIRCallbackIN3pcl10ONIGrabberEEEjMT_FvN5boost10shared_ptrINS_7IRImageEEEPvERS4_S9_@Base 1.6
 (optional=templinst)_ZN14openni_wrapper12OpenNIDevice18registerIRCallbackIN3pcl13OpenNIGrabberEEEjMT_FvN5boost10shared_ptrINS_7IRImageEEEPvERS4_S9_@Base 1.6
 _ZN14openni_wrapper12OpenNIDevice18setDepthOutputModeERK15XnMapOutputMode@Base 1.6
 _ZN14openni_wrapper12OpenNIDevice18setImageOutputModeERK15XnMapOutputMode@Base 1.6
 _ZN14openni_wrapper12OpenNIDevice18setSynchronizationEb@Base 1.6
 _ZN14openni_wrapper12OpenNIDevice20IRDataThreadFunctionEv@Base 1.6
 _ZN14openni_wrapper12OpenNIDevice20setDepthRegistrationEb@Base 1.6
 _ZN14openni_wrapper12OpenNIDevice20unregisterIRCallbackERKj@Base 1.6
 _ZN14openni_wrapper12OpenNIDevice21NewDepthDataAvailableERN2xn14ProductionNodeEPv@Base 1.6
 _ZN14openni_wrapper12OpenNIDevice21NewImageDataAvailableERN2xn14ProductionNodeEPv@Base 1.6
 _ZN14openni_wrapper12OpenNIDevice21registerDepthCallbackERKN5boost8functionIFvNS1_10shared_ptrINS_10DepthImageEEEPvEEES6_@Base 1.6
 (optional=templinst)_ZN14openni_wrapper12OpenNIDevice21registerDepthCallbackIN3pcl10ONIGrabberEEEjMT_FvN5boost10shared_ptrINS_10DepthImageEEEPvERS4_S9_@Base 1.6
 (optional=templinst)_ZN14openni_wrapper12OpenNIDevice21registerDepthCallbackIN3pcl13OpenNIGrabberEEEjMT_FvN5boost10shared_ptrINS_10DepthImageEEEPvERS4_S9_@Base 1.6
 _ZN14openni_wrapper12OpenNIDevice21registerImageCallbackERKN5boost8functionIFvNS1_10shared_ptrINS_5ImageEEEPvEEES6_@Base 1.6
 (optional=templinst)_ZN14openni_wrapper12OpenNIDevice21registerImageCallbackIN3pcl10ONIGrabberEEEjMT_FvN5boost10shared_ptrINS_5ImageEEEPvERS4_S9_@Base 1.6
 (optional=templinst)_ZN14openni_wrapper12OpenNIDevice21registerImageCallbackIN3pcl13OpenNIGrabberEEEjMT_FvN5boost10shared_ptrINS_5ImageEEEPvERS4_S9_@Base 1.6
 _ZN14openni_wrapper12OpenNIDevice23DepthDataThreadFunctionEv@Base 1.6
 _ZN14openni_wrapper12OpenNIDevice23ImageDataThreadFunctionEv@Base 1.6
 _ZN14openni_wrapper12OpenNIDevice23unregisterDepthCallbackERKj@Base 1.6
 _ZN14openni_wrapper12OpenNIDevice23unregisterImageCallbackERKj@Base 1.6
 _ZN14openni_wrapper12OpenNIDevice4InitEv@Base 1.6
 _ZN14openni_wrapper12OpenNIDeviceC1ERN2xn7ContextE@Base 1.6
 _ZN14openni_wrapper12OpenNIDeviceC1ERN2xn7ContextERKNS1_8NodeInfoES6_S6_@Base 1.6
 _ZN14openni_wrapper12OpenNIDeviceC1ERN2xn7ContextERKNS1_8NodeInfoES6_S6_S6_@Base 1.6
 _ZN14openni_wrapper12OpenNIDeviceC2ERN2xn7ContextE@Base 1.6
 _ZN14openni_wrapper12OpenNIDeviceC2ERN2xn7ContextERKNS1_8NodeInfoES6_S6_@Base 1.6
 _ZN14openni_wrapper12OpenNIDeviceC2ERN2xn7ContextERKNS1_8NodeInfoES6_S6_S6_@Base 1.6
 _ZN14openni_wrapper12OpenNIDeviceD0Ev@Base 1.6
 _ZN14openni_wrapper12OpenNIDeviceD1Ev@Base 1.6
 _ZN14openni_wrapper12OpenNIDeviceD2Ev@Base 1.6
 _ZN14openni_wrapper12OpenNIDriver11getInstanceEv@Base 1.6
 _ZN14openni_wrapper12OpenNIDriver13DeviceContextC1ERKN2xn8NodeInfoE@Base 1.6
 _ZN14openni_wrapper12OpenNIDriver13DeviceContextC1ERKN2xn8NodeInfoEPS3_S6_S6_@Base 1.6
 _ZN14openni_wrapper12OpenNIDriver13DeviceContextC1ERKS1_@Base 1.6
 _ZN14openni_wrapper12OpenNIDriver13DeviceContextC2ERKN2xn8NodeInfoE@Base 1.6
 _ZN14openni_wrapper12OpenNIDriver13DeviceContextC2ERKN2xn8NodeInfoEPS3_S6_S6_@Base 1.6
 _ZN14openni_wrapper12OpenNIDriver13DeviceContextC2ERKS1_@Base 1.6
 _ZN14openni_wrapper12OpenNIDriver13DeviceContextD1Ev@Base 1.6
 _ZN14openni_wrapper12OpenNIDriver13DeviceContextD2Ev@Base 1.6
 _ZN14openni_wrapper12OpenNIDriver13DeviceContextaSERKS1_@Base 1.6
 _ZN14openni_wrapper12OpenNIDriver13getDeviceTypeERKSsRtS3_@Base 1.6
 _ZN14openni_wrapper12OpenNIDriver14getDeviceInfosEv@Base 1.6
 _ZN14openni_wrapper12OpenNIDriver16updateDeviceListEv@Base 1.6
 _ZN14openni_wrapper12OpenNIDriver7stopAllEv@Base 1.6
 _ZN14openni_wrapper12OpenNIDriverC1Ev@Base 1.6
 _ZN14openni_wrapper12OpenNIDriverC2Ev@Base 1.6
 _ZN14openni_wrapper12OpenNIDriverD1Ev@Base 1.6
 _ZN14openni_wrapper12OpenNIDriverD2Ev@Base 1.6
 _ZN14openni_wrapper14DeviceXtionPro16startDepthStreamEv@Base 1.6
 _ZN14openni_wrapper14DeviceXtionPro18enumAvailableModesEv@Base 1.6
 _ZN14openni_wrapper14DeviceXtionProC1ERN2xn7ContextERKNS1_8NodeInfoES6_S6_@Base 1.6
 _ZN14openni_wrapper14DeviceXtionProC2ERN2xn7ContextERKNS1_8NodeInfoES6_S6_@Base 1.6
 _ZN14openni_wrapper14DeviceXtionProD0Ev@Base 1.6
 _ZN14openni_wrapper14DeviceXtionProD1Ev@Base 1.6
 _ZN14openni_wrapper14DeviceXtionProD2Ev@Base 1.6
 _ZN14openni_wrapper14ImageBayerGRBGC1EN5boost10shared_ptrIN2xn13ImageMetaDataEEENS0_16DebayeringMethodE@Base 1.6
 _ZN14openni_wrapper14ImageBayerGRBGC2EN5boost10shared_ptrIN2xn13ImageMetaDataEEENS0_16DebayeringMethodE@Base 1.6
 _ZN14openni_wrapper14ImageBayerGRBGD0Ev@Base 1.6
 _ZN14openni_wrapper14ImageBayerGRBGD1Ev@Base 1.6
 _ZN14openni_wrapper14ImageBayerGRBGD2Ev@Base 1.6
 _ZN14openni_wrapper15OpenNIExceptionC1ERKSsS2_jS2_@Base 1.6
 _ZN14openni_wrapper15OpenNIExceptionC2ERKSsS2_jS2_@Base 1.6
 _ZN14openni_wrapper15OpenNIExceptionD0Ev@Base 1.6
 _ZN14openni_wrapper15OpenNIExceptionD1Ev@Base 1.6
 _ZN14openni_wrapper15OpenNIExceptionD2Ev@Base 1.6
 _ZN14openni_wrapper15OpenNIExceptionaSERKS0_@Base 1.6
 _ZN14openni_wrapper16DevicePrimesense16startDepthStreamEv@Base 1.6
 _ZN14openni_wrapper16DevicePrimesense16startImageStreamEv@Base 1.6
 _ZN14openni_wrapper16DevicePrimesense18enumAvailableModesEv@Base 1.6
 _ZN14openni_wrapper16DevicePrimesenseC1ERN2xn7ContextERKNS1_8NodeInfoES6_S6_S6_@Base 1.6
 _ZN14openni_wrapper16DevicePrimesenseC2ERN2xn7ContextERKNS1_8NodeInfoES6_S6_S6_@Base 1.6
 _ZN14openni_wrapper16DevicePrimesenseD0Ev@Base 1.6
 _ZN14openni_wrapper16DevicePrimesenseD1Ev@Base 1.6
 _ZN14openni_wrapper16DevicePrimesenseD2Ev@Base 1.6
 _ZN14openni_wrapper20throwOpenNIExceptionEPKcS1_jS1_z@Base 1.6
 _ZN14openni_wrapper5ImageD0Ev@Base 1.6
 _ZN14openni_wrapper5ImageD1Ev@Base 1.6
 _ZN14openni_wrapper5ImageD2Ev@Base 1.6
 _ZN14openni_wrapper7IRImageD0Ev@Base 1.6
 _ZN14openni_wrapper7IRImageD1Ev@Base 1.6
 _ZN14openni_wrapper7IRImageD2Ev@Base 1.6
 _ZN14openni_wrapper9DeviceONI12stopIRStreamEv@Base 1.6
 _ZN14openni_wrapper9DeviceONI13startIRStreamEv@Base 1.6
 _ZN14openni_wrapper9DeviceONI15stopDepthStreamEv@Base 1.6
 _ZN14openni_wrapper9DeviceONI15stopImageStreamEv@Base 1.6
 _ZN14openni_wrapper9DeviceONI16startDepthStreamEv@Base 1.6
 _ZN14openni_wrapper9DeviceONI16startImageStreamEv@Base 1.6
 _ZN14openni_wrapper9DeviceONI20PlayerThreadFunctionEv@Base 1.6
 _ZN14openni_wrapper9DeviceONI21NewONIIRDataAvailableERN2xn14ProductionNodeEPv@Base 1.6
 _ZN14openni_wrapper9DeviceONI24NewONIDepthDataAvailableERN2xn14ProductionNodeEPv@Base 1.6
 _ZN14openni_wrapper9DeviceONI24NewONIImageDataAvailableERN2xn14ProductionNodeEPv@Base 1.6
 _ZN14openni_wrapper9DeviceONI7triggerEv@Base 1.6
 _ZN14openni_wrapper9DeviceONIC1ERN2xn7ContextERKSsbb@Base 1.6
 _ZN14openni_wrapper9DeviceONIC2ERN2xn7ContextERKSsbb@Base 1.6
 _ZN14openni_wrapper9DeviceONID0Ev@Base 1.6
 _ZN14openni_wrapper9DeviceONID1Ev@Base 1.6
 _ZN14openni_wrapper9DeviceONID2Ev@Base 1.6
 (optional=templinst)_ZN15vtkSmartPointerI11vtkPolyDataED1Ev@Base 1.6
 (optional=templinst)_ZN15vtkSmartPointerI11vtkPolyDataED2Ev@Base 1.6
 _ZN2xn10IRMetaDataD0Ev@Base 1.6
 _ZN2xn10IRMetaDataD1Ev@Base 1.6
 _ZN2xn10IRMetaDataD2Ev@Base 1.6
 _ZN2xn11IRGeneratorD1Ev@Base 1.6
 _ZN2xn11IRGeneratorD2Ev@Base 1.6
 _ZN2xn11MapMetaDataD0Ev@Base 1.6
 _ZN2xn11MapMetaDataD1Ev@Base 1.6
 _ZN2xn11MapMetaDataD2Ev@Base 1.6
 _ZN2xn11NodeWrapper13TakeOwnershipEP18XnInternalNodeData@Base 1.6
 _ZN2xn11NodeWrapper27ContextShuttingDownCallbackEP9XnContextPv@Base 1.6
 _ZN2xn11NodeWrapper9SetHandleEP18XnInternalNodeData@Base 1.6
 _ZN2xn12NodeInfoList8Iterator20UpdateInternalObjectE22XnNodeInfoListIterator@Base 1.6
 _ZN2xn12NodeInfoList8IteratorC1E22XnNodeInfoListIterator@Base 1.6
 _ZN2xn12NodeInfoList8IteratorC2E22XnNodeInfoListIterator@Base 1.6
 _ZN2xn12NodeInfoList8IteratorD1Ev@Base 1.6
 _ZN2xn12NodeInfoList8IteratorD2Ev@Base 1.6
 _ZN2xn12NodeInfoListC1Ev@Base 1.6
 _ZN2xn12NodeInfoListC2Ev@Base 1.6
 _ZN2xn12NodeInfoListD1Ev@Base 1.6
 _ZN2xn12NodeInfoListD2Ev@Base 1.6
 _ZN2xn13DepthMetaDataD0Ev@Base 1.6
 _ZN2xn13DepthMetaDataD1Ev@Base 1.6
 _ZN2xn13DepthMetaDataD2Ev@Base 1.6
 _ZN2xn13ImageMetaDataD0Ev@Base 1.6
 _ZN2xn13ImageMetaDataD1Ev@Base 1.6
 _ZN2xn13ImageMetaDataD2Ev@Base 1.6
 _ZN2xn14DepthGeneratorD1Ev@Base 1.6
 _ZN2xn14DepthGeneratorD2Ev@Base 1.6
 _ZN2xn14ImageGeneratorD1Ev@Base 1.6
 _ZN2xn14ImageGeneratorD2Ev@Base 1.6
 _ZN2xn14OutputMetaDataD0Ev@Base 1.6
 _ZN2xn14OutputMetaDataD1Ev@Base 1.6
 _ZN2xn14OutputMetaDataD2Ev@Base 1.6
 _ZN2xn14ProductionNodeD1Ev@Base 1.6
 _ZN2xn14ProductionNodeD2Ev@Base 1.6
 _ZN2xn18CroppingCapabilityD1Ev@Base 1.6
 _ZN2xn18CroppingCapabilityD2Ev@Base 1.6
 _ZN2xn19FrameSyncCapabilityC1EP18XnInternalNodeData@Base 1.6
 _ZN2xn19FrameSyncCapabilityC2EP18XnInternalNodeData@Base 1.6
 _ZN2xn19FrameSyncCapabilityD1Ev@Base 1.6
 _ZN2xn19FrameSyncCapabilityD2Ev@Base 1.6
 _ZN2xn30AlternativeViewPointCapabilityD1Ev@Base 1.6
 _ZN2xn30AlternativeViewPointCapabilityD2Ev@Base 1.6
 _ZN2xn30StateChangedCallbackTranslator20StateChangedCallbackEP18XnInternalNodeDataPv@Base 1.6
 _ZN2xn6DeviceD1Ev@Base 1.6
 _ZN2xn6DeviceD2Ev@Base 1.6
 _ZN2xn6PlayerD1Ev@Base 1.6
 _ZN2xn6PlayerD2Ev@Base 1.6
 _ZN2xn7Context27ContextShuttingDownCallbackEP9XnContextPv@Base 1.6
 _ZN2xn7Context9SetHandleEP9XnContext@Base 1.6
 _ZN2xn8NodeInfo19SetUnderlyingObjectEP10XnNodeInfo@Base 1.6
 _ZN2xn8NodeInfoD1Ev@Base 1.6
 _ZN2xn8NodeInfoD2Ev@Base 1.6
 _ZN3pcl10FileReaderD0Ev@Base 1.6
 _ZN3pcl10FileReaderD1Ev@Base 1.6
 _ZN3pcl10FileReaderD2Ev@Base 1.6
 _ZN3pcl10FileWriterD0Ev@Base 1.6
 _ZN3pcl10FileWriterD1Ev@Base 1.6
 _ZN3pcl10FileWriterD2Ev@Base 1.6
 _ZN3pcl10ONIGrabber10irCallbackEN5boost10shared_ptrIN14openni_wrapper7IRImageEEEPv@Base 1.6
 _ZN3pcl10ONIGrabber13depthCallbackEN5boost10shared_ptrIN14openni_wrapper10DepthImageEEEPv@Base 1.6
 _ZN3pcl10ONIGrabber13imageCallbackEN5boost10shared_ptrIN14openni_wrapper5ImageEEEPv@Base 1.6
 _ZN3pcl10ONIGrabber20irDepthImageCallbackERKN5boost10shared_ptrIN14openni_wrapper7IRImageEEERKNS2_INS3_10DepthImageEEE@Base 1.6
 _ZN3pcl10ONIGrabber23imageDepthImageCallbackERKN5boost10shared_ptrIN14openni_wrapper5ImageEEERKNS2_INS3_10DepthImageEEE@Base 1.6
 _ZN3pcl10ONIGrabber4stopEv@Base 1.6
 _ZN3pcl10ONIGrabber5startEv@Base 1.6
 _ZN3pcl10ONIGrabberC1ERKSsbb@Base 1.6
 _ZN3pcl10ONIGrabberC2ERKSsbb@Base 1.6
 _ZN3pcl10ONIGrabberD0Ev@Base 1.6
 _ZN3pcl10ONIGrabberD1Ev@Base 1.6
 _ZN3pcl10ONIGrabberD2Ev@Base 1.6
 (optional=templinst)_ZN3pcl10PointCloudIN5Eigen6MatrixIfLin1ELin1ELi0ELin1ELin1EEEEC1Ev@Base 1.6
 (optional=templinst)_ZN3pcl10PointCloudIN5Eigen6MatrixIfLin1ELin1ELi0ELin1ELin1EEEEC2Ev@Base 1.6
 (optional=templinst)_ZN3pcl10PointCloudIN5Eigen6MatrixIfLin1ELin1ELi0ELin1ELin1EEEED0Ev@Base 1.6
 (optional=templinst)_ZN3pcl10PointCloudIN5Eigen6MatrixIfLin1ELin1ELi0ELin1ELin1EEEED1Ev@Base 1.6
 (optional=templinst)_ZN3pcl10PointCloudIN5Eigen6MatrixIfLin1ELin1ELi0ELin1ELin1EEEED2Ev@Base 1.6
 (optional=templinst)_ZN3pcl10PointCloudINS_11PointXYZRGBEEC1Ev@Base 1.6
 (optional=templinst)_ZN3pcl10PointCloudINS_11PointXYZRGBEEC2Ev@Base 1.6
 (optional=templinst)_ZN3pcl10PointCloudINS_11PointXYZRGBEED0Ev@Base 1.6
 (optional=templinst)_ZN3pcl10PointCloudINS_11PointXYZRGBEED1Ev@Base 1.6
 (optional=templinst)_ZN3pcl10PointCloudINS_11PointXYZRGBEED2Ev@Base 1.6
 (optional=templinst)_ZN3pcl10PointCloudINS_12PointXYZRGBAEEC1Ev@Base 1.6
 (optional=templinst)_ZN3pcl10PointCloudINS_12PointXYZRGBAEEC2Ev@Base 1.6
 (optional=templinst)_ZN3pcl10PointCloudINS_12PointXYZRGBAEED0Ev@Base 1.6
 (optional=templinst)_ZN3pcl10PointCloudINS_12PointXYZRGBAEED1Ev@Base 1.6
 (optional=templinst)_ZN3pcl10PointCloudINS_12PointXYZRGBAEED2Ev@Base 1.6
 (optional=templinst)_ZN3pcl10PointCloudINS_8PointXYZEEC1Ev@Base 1.6
 (optional=templinst)_ZN3pcl10PointCloudINS_8PointXYZEEC2Ev@Base 1.6
 (optional=templinst)_ZN3pcl10PointCloudINS_8PointXYZEED0Ev@Base 1.6
 (optional=templinst)_ZN3pcl10PointCloudINS_8PointXYZEED1Ev@Base 1.6
 (optional=templinst)_ZN3pcl10PointCloudINS_8PointXYZEED2Ev@Base 1.6
 (optional=templinst)_ZN3pcl10PointCloudINS_9PointXYZIEEC1Ev@Base 1.6
 (optional=templinst)_ZN3pcl10PointCloudINS_9PointXYZIEEC2Ev@Base 1.6
 (optional=templinst)_ZN3pcl10PointCloudINS_9PointXYZIEED0Ev@Base 1.6
 (optional=templinst)_ZN3pcl10PointCloudINS_9PointXYZIEED1Ev@Base 1.6
 (optional=templinst)_ZN3pcl10PointCloudINS_9PointXYZIEED2Ev@Base 1.6
 _ZN3pcl11IOExceptionC1ERKSsS2_S2_j@Base 1.6
 _ZN3pcl11IOExceptionC2ERKSsS2_S2_j@Base 1.6
 _ZN3pcl11IOExceptionD0Ev@Base 1.6
 _ZN3pcl11IOExceptionD1Ev@Base 1.6
 _ZN3pcl11IOExceptionD2Ev@Base 1.6
 _ZN3pcl11lzfCompressEPKvjPvj@Base 1.6
 _ZN3pcl12PCLExceptionC1ERKSsS2_S2_j@Base 1.6
 _ZN3pcl12PCLExceptionC2ERKSsS2_S2_j@Base 1.6
 _ZN3pcl12PCLExceptionD0Ev@Base 1.6
 _ZN3pcl12PCLExceptionD1Ev@Base 1.6
 _ZN3pcl12PCLExceptionD2Ev@Base 1.6
 (optional=templinst)_ZN3pcl12SynchronizerIN5boost10shared_ptrIN14openni_wrapper5ImageEEENS2_INS3_10DepthImageEEEE11addCallbackERKNS1_8functionIFvS5_S7_mmEEE@Base 1.6
 (optional=templinst)_ZN3pcl12SynchronizerIN5boost10shared_ptrIN14openni_wrapper5ImageEEENS2_INS3_10DepthImageEEEE11publishDataEv@Base 1.6
 (optional=templinst)_ZN3pcl12SynchronizerIN5boost10shared_ptrIN14openni_wrapper5ImageEEENS2_INS3_10DepthImageEEEE4add0ERKS5_m@Base 1.6
 (optional=templinst)_ZN3pcl12SynchronizerIN5boost10shared_ptrIN14openni_wrapper5ImageEEENS2_INS3_10DepthImageEEEE4add1ERKS7_m@Base 1.6
 (optional=templinst)_ZN3pcl12SynchronizerIN5boost10shared_ptrIN14openni_wrapper5ImageEEENS2_INS3_10DepthImageEEEE7publishEv@Base 1.6
 (optional=templinst)_ZN3pcl12SynchronizerIN5boost10shared_ptrIN14openni_wrapper5ImageEEENS2_INS3_10DepthImageEEEEC1Ev@Base 1.6
 (optional=templinst)_ZN3pcl12SynchronizerIN5boost10shared_ptrIN14openni_wrapper5ImageEEENS2_INS3_10DepthImageEEEEC2Ev@Base 1.6
 (optional=templinst)_ZN3pcl12SynchronizerIN5boost10shared_ptrIN14openni_wrapper5ImageEEENS2_INS3_10DepthImageEEEED1Ev@Base 1.6
 (optional=templinst)_ZN3pcl12SynchronizerIN5boost10shared_ptrIN14openni_wrapper5ImageEEENS2_INS3_10DepthImageEEEED2Ev@Base 1.6
 (optional=templinst)_ZN3pcl12SynchronizerIN5boost10shared_ptrIN14openni_wrapper7IRImageEEENS2_INS3_10DepthImageEEEE11addCallbackERKNS1_8functionIFvS5_S7_mmEEE@Base 1.6
 (optional=templinst)_ZN3pcl12SynchronizerIN5boost10shared_ptrIN14openni_wrapper7IRImageEEENS2_INS3_10DepthImageEEEE11publishDataEv@Base 1.6
 (optional=templinst)_ZN3pcl12SynchronizerIN5boost10shared_ptrIN14openni_wrapper7IRImageEEENS2_INS3_10DepthImageEEEE4add0ERKS5_m@Base 1.6
 (optional=templinst)_ZN3pcl12SynchronizerIN5boost10shared_ptrIN14openni_wrapper7IRImageEEENS2_INS3_10DepthImageEEEE4add1ERKS7_m@Base 1.6
 (optional=templinst)_ZN3pcl12SynchronizerIN5boost10shared_ptrIN14openni_wrapper7IRImageEEENS2_INS3_10DepthImageEEEE7publishEv@Base 1.6
 (optional=templinst)_ZN3pcl12SynchronizerIN5boost10shared_ptrIN14openni_wrapper7IRImageEEENS2_INS3_10DepthImageEEEEC1Ev@Base 1.6
 (optional=templinst)_ZN3pcl12SynchronizerIN5boost10shared_ptrIN14openni_wrapper7IRImageEEENS2_INS3_10DepthImageEEEEC2Ev@Base 1.6
 (optional=templinst)_ZN3pcl12SynchronizerIN5boost10shared_ptrIN14openni_wrapper7IRImageEEENS2_INS3_10DepthImageEEEED1Ev@Base 1.6
 (optional=templinst)_ZN3pcl12SynchronizerIN5boost10shared_ptrIN14openni_wrapper7IRImageEEENS2_INS3_10DepthImageEEEED2Ev@Base 1.6
 _ZN3pcl12getFieldTypeEic@Base 1.6
 _ZN3pcl13OpenNIGrabber10irCallbackEN5boost10shared_ptrIN14openni_wrapper7IRImageEEEPv@Base 1.6
 _ZN3pcl13OpenNIGrabber11setupDeviceERKSsRKNS0_4ModeES5_@Base 1.6
 _ZN3pcl13OpenNIGrabber13depthCallbackEN5boost10shared_ptrIN14openni_wrapper10DepthImageEEEPv@Base 1.6
 _ZN3pcl13OpenNIGrabber13imageCallbackEN5boost10shared_ptrIN14openni_wrapper5ImageEEEPv@Base 1.6
 _ZN3pcl13OpenNIGrabber14signalsChangedEv@Base 1.6
 _ZN3pcl13OpenNIGrabber14updateModeMapsEv@Base 1.6
 _ZN3pcl13OpenNIGrabber19stopSynchronizationEv@Base 1.6
 _ZN3pcl13OpenNIGrabber20irDepthImageCallbackERKN5boost10shared_ptrIN14openni_wrapper7IRImageEEERKNS2_INS3_10DepthImageEEE@Base 1.6
 _ZN3pcl13OpenNIGrabber20startSynchronizationEv@Base 1.6
 _ZN3pcl13OpenNIGrabber21checkIRStreamRequiredEv@Base 1.6
 _ZN3pcl13OpenNIGrabber23imageDepthImageCallbackERKN5boost10shared_ptrIN14openni_wrapper5ImageEEERKNS2_INS3_10DepthImageEEE@Base 1.6
 _ZN3pcl13OpenNIGrabber24checkDepthStreamRequiredEv@Base 1.6
 _ZN3pcl13OpenNIGrabber24checkImageStreamRequiredEv@Base 1.6
 _ZN3pcl13OpenNIGrabber41checkImageAndDepthSynchronizationRequiredEv@Base 1.6
 _ZN3pcl13OpenNIGrabber4stopEv@Base 1.6
 _ZN3pcl13OpenNIGrabber5startEv@Base 1.6
 _ZN3pcl13OpenNIGrabber6onInitERKSsRKNS0_4ModeES5_@Base 1.6
 _ZN3pcl13OpenNIGrabberC1ERKSsRKNS0_4ModeES5_@Base 1.6
 _ZN3pcl13OpenNIGrabberC2ERKSsRKNS0_4ModeES5_@Base 1.6
 _ZN3pcl13OpenNIGrabberD0Ev@Base 1.6
 _ZN3pcl13OpenNIGrabberD1Ev@Base 1.6
 _ZN3pcl13OpenNIGrabberD2Ev@Base 1.6
 _ZN3pcl13getFieldIndexERKN11sensor_msgs11PointCloud2ERKSs@Base 1.6
 _ZN3pcl13getFieldsListERKN11sensor_msgs11PointCloud2E@Base 1.6
 _ZN3pcl13lzfDecompressEPKvjPvj@Base 1.6
 _ZN3pcl14PCDGrabberBase14PCDGrabberImpl11openTARFileERKSs@Base 1.6
 _ZN3pcl14PCDGrabberBase14PCDGrabberImpl12closeTARFileEv@Base 1.6
 _ZN3pcl14PCDGrabberBase14PCDGrabberImpl13readTARHeaderEv@Base 1.6
 _ZN3pcl14PCDGrabberBase14PCDGrabberImpl7triggerEv@Base 1.6
 _ZN3pcl14PCDGrabberBase14PCDGrabberImpl9readAheadEv@Base 1.6
 _ZN3pcl14PCDGrabberBase14PCDGrabberImplC1ERS0_RKSsfb@Base 1.6
 _ZN3pcl14PCDGrabberBase14PCDGrabberImplC1ERS0_RKSt6vectorISsSaISsEEfb@Base 1.6
 _ZN3pcl14PCDGrabberBase14PCDGrabberImplC2ERS0_RKSsfb@Base 1.6
 _ZN3pcl14PCDGrabberBase14PCDGrabberImplC2ERS0_RKSt6vectorISsSaISsEEfb@Base 1.6
 _ZN3pcl14PCDGrabberBase14PCDGrabberImplD1Ev@Base 1.6
 _ZN3pcl14PCDGrabberBase14PCDGrabberImplD2Ev@Base 1.6
 _ZN3pcl14PCDGrabberBase4stopEv@Base 1.6
 _ZN3pcl14PCDGrabberBase5startEv@Base 1.6
 _ZN3pcl14PCDGrabberBase6rewindEv@Base 1.6
 _ZN3pcl14PCDGrabberBase7triggerEv@Base 1.6
 _ZN3pcl14PCDGrabberBaseC1ERKSsfb@Base 1.6
 _ZN3pcl14PCDGrabberBaseC1ERKSt6vectorISsSaISsEEfb@Base 1.6
 _ZN3pcl14PCDGrabberBaseC2ERKSsfb@Base 1.6
 _ZN3pcl14PCDGrabberBaseC2ERKSt6vectorISsSaISsEEfb@Base 1.6
 _ZN3pcl14PCDGrabberBaseD0Ev@Base 1.6
 _ZN3pcl14PCDGrabberBaseD1Ev@Base 1.6
 _ZN3pcl14PCDGrabberBaseD2Ev@Base 1.6
 _ZN3pcl14PCLIOExceptionD0Ev@Base 1.6
 _ZN3pcl14PCLIOExceptionD1Ev@Base 1.6
 _ZN3pcl14PCLIOExceptionD2Ev@Base 1.6
 _ZN3pcl16StaticRangeCoder23decodeStreamToIntVectorERSiRSt6vectorIjSaIjEE@Base 1.6
 _ZN3pcl16StaticRangeCoder23encodeIntVectorToStreamERSt6vectorIjSaIjEERSo@Base 1.6
 _ZN3pcl16StaticRangeCoder24decodeStreamToCharVectorERSiRSt6vectorIcSaIcEE@Base 1.6
 _ZN3pcl16StaticRangeCoder24encodeCharVectorToStreamERKSt6vectorIcSaIcEERSo@Base 1.6
 _ZN3pcl16StaticRangeCoderD0Ev@Base 1.6
 _ZN3pcl16StaticRangeCoderD1Ev@Base 1.6
 _ZN3pcl16StaticRangeCoderD2Ev@Base 1.6
 _ZN3pcl17ChannelPropertiesC1ERKS0_@Base 1.6
 _ZN3pcl17ChannelPropertiesC1Ev@Base 1.6
 _ZN3pcl17ChannelPropertiesC2ERKS0_@Base 1.6
 _ZN3pcl17ChannelPropertiesC2Ev@Base 1.6
 _ZN3pcl17ChannelPropertiesD1Ev@Base 1.6
 _ZN3pcl17ChannelPropertiesD2Ev@Base 1.6
 _ZN3pcl17ChannelPropertiesaSERKS0_@Base 1.6
 _ZN3pcl18AdaptiveRangeCoder24decodeStreamToCharVectorERSiRSt6vectorIcSaIcEE@Base 1.6
 _ZN3pcl18AdaptiveRangeCoder24encodeCharVectorToStreamERKSt6vectorIcSaIcEERSo@Base 1.6
 _ZN3pcl19throwPCLIOExceptionEPKcS1_jS1_z@Base 1.6
 _ZN3pcl2io11saveOBJFileERKSsRKNS_11PolygonMeshEj@Base 1.6
 _ZN3pcl2io11saveOBJFileERKSsRKNS_11TextureMeshEj@Base 1.6
 _ZN3pcl2io11savePLYFileERKSsRKNS_11PolygonMeshEj@Base 1.6
 _ZN3pcl2io11saveVTKFileERKSsRKN11sensor_msgs11PointCloud2Ej@Base 1.6
 _ZN3pcl2io11saveVTKFileERKSsRKNS_11PolygonMeshEj@Base 1.6
 _ZN3pcl2io15loadPolygonFileERKSsRNS_11PolygonMeshE@Base 1.6
 _ZN3pcl2io15savePolygonFileERKSsRKNS_11PolygonMeshE@Base 1.6
 _ZN3pcl2io18loadPolygonFileOBJERKSsRNS_11PolygonMeshE@Base 1.6
 _ZN3pcl2io18loadPolygonFilePLYERKSsRNS_11PolygonMeshE@Base 1.6
 _ZN3pcl2io18loadPolygonFileSTLERKSsRNS_11PolygonMeshE@Base 1.6
 _ZN3pcl2io18loadPolygonFileVTKERKSsRNS_11PolygonMeshE@Base 1.6
 _ZN3pcl2io18savePolygonFilePLYERKSsRKNS_11PolygonMeshE@Base 1.6
 _ZN3pcl2io18savePolygonFileSTLERKSsRKNS_11PolygonMeshE@Base 1.6
 _ZN3pcl2io18savePolygonFileVTKERKSsRKNS_11PolygonMeshE@Base 1.6
 _ZN3pcl2io27saveRangeImagePlanarFilePNGERKSsRKNS_16RangeImagePlanarE@Base 1.6
 (optional=templinst)_ZN3pcl2io3ply10ply_parser39list_property_definition_callbacks_type17callbacks_elementIN5boost3mpl4pairIhaEEED1Ev@Base 1.6
 (optional=templinst)_ZN3pcl2io3ply10ply_parser39list_property_definition_callbacks_type17callbacks_elementIN5boost3mpl4pairIhaEEED2Ev@Base 1.6
 (optional=templinst)_ZN3pcl2io3ply10ply_parser41scalar_property_definition_callbacks_type17callbacks_elementIaED1Ev@Base 1.6
 (optional=templinst)_ZN3pcl2io3ply10ply_parser41scalar_property_definition_callbacks_type17callbacks_elementIaED2Ev@Base 1.6
 _ZN3pcl2io3ply10ply_parserC1Ei@Base 1.6
 _ZN3pcl2io3ply10ply_parserC2Ei@Base 1.6
 _ZN3pcl2io3ply10ply_parserD1Ev@Base 1.6
 _ZN3pcl2io3ply10ply_parserD2Ev@Base 1.6
 _ZN3pcl2io8mesh2vtkERKNS_11PolygonMeshER15vtkSmartPointerI11vtkPolyDataE@Base 1.6
 _ZN3pcl2io8vtk2meshERK15vtkSmartPointerI11vtkPolyDataERNS_11PolygonMeshE@Base 1.6
 (optional=templinst)_ZN3pcl6detail10FieldAdderINS_11PointXYZRGBEEclINS_6fields1xEEEvv@Base 1.6
 (optional=templinst)_ZN3pcl6detail10FieldAdderINS_11PointXYZRGBEEclINS_6fields1yEEEvv@Base 1.6
 (optional=templinst)_ZN3pcl6detail10FieldAdderINS_11PointXYZRGBEEclINS_6fields1zEEEvv@Base 1.6
 (optional=templinst)_ZN3pcl6detail10FieldAdderINS_11PointXYZRGBEEclINS_6fields3rgbEEEvv@Base 1.6
 (optional=templinst)_ZN3pcl6detail10FieldAdderINS_12PointXYZRGBAEEclINS_6fields1xEEEvv@Base 1.6
 (optional=templinst)_ZN3pcl6detail10FieldAdderINS_12PointXYZRGBAEEclINS_6fields1yEEEvv@Base 1.6
 (optional=templinst)_ZN3pcl6detail10FieldAdderINS_12PointXYZRGBAEEclINS_6fields1zEEEvv@Base 1.6
 (optional=templinst)_ZN3pcl6detail10FieldAdderINS_12PointXYZRGBAEEclINS_6fields4rgbaEEEvv@Base 1.6
 (optional=templinst)_ZN3pcl6detail10FieldAdderINS_8PointXYZEEclINS_6fields1xEEEvv@Base 1.6
 (optional=templinst)_ZN3pcl6detail10FieldAdderINS_8PointXYZEEclINS_6fields1yEEEvv@Base 1.6
 (optional=templinst)_ZN3pcl6detail10FieldAdderINS_8PointXYZEEclINS_6fields1zEEEvv@Base 1.6
 _ZN3pcl6octree10OctreeNodeD0Ev@Base 1.6
 _ZN3pcl6octree10OctreeNodeD1Ev@Base 1.6
 _ZN3pcl6octree10OctreeNodeD2Ev@Base 1.6
 (optional=templinst)_ZN3pcl6octree11ColorCodingINS_11PointXYZRGBEE12decodePointsEN5boost10shared_ptrINS_10PointCloudIS2_EEEEmmh@Base 1.6
 (optional=templinst)_ZN3pcl6octree11ColorCodingINS_11PointXYZRGBEE12encodePointsERKSt6vectorIiSaIiEEhN5boost10shared_ptrIKNS_10PointCloudIS2_EEEE@Base 1.6
 (optional=templinst)_ZN3pcl6octree11ColorCodingINS_11PointXYZRGBEE21encodeAverageOfPointsERKSt6vectorIiSaIiEEhN5boost10shared_ptrIKNS_10PointCloudIS2_EEEE@Base 1.6
 (optional=templinst)_ZN3pcl6octree11ColorCodingINS_11PointXYZRGBEED0Ev@Base 1.6
 (optional=templinst)_ZN3pcl6octree11ColorCodingINS_11PointXYZRGBEED1Ev@Base 1.6
 (optional=templinst)_ZN3pcl6octree11ColorCodingINS_11PointXYZRGBEED2Ev@Base 1.6
 (optional=templinst)_ZN3pcl6octree11ColorCodingINS_12PointXYZRGBAEE12decodePointsEN5boost10shared_ptrINS_10PointCloudIS2_EEEEmmh@Base 1.6
 (optional=templinst)_ZN3pcl6octree11ColorCodingINS_12PointXYZRGBAEE12encodePointsERKSt6vectorIiSaIiEEhN5boost10shared_ptrIKNS_10PointCloudIS2_EEEE@Base 1.6
 (optional=templinst)_ZN3pcl6octree11ColorCodingINS_12PointXYZRGBAEE21encodeAverageOfPointsERKSt6vectorIiSaIiEEhN5boost10shared_ptrIKNS_10PointCloudIS2_EEEE@Base 1.6
 (optional=templinst)_ZN3pcl6octree11ColorCodingINS_12PointXYZRGBAEED0Ev@Base 1.6
 (optional=templinst)_ZN3pcl6octree11ColorCodingINS_12PointXYZRGBAEED1Ev@Base 1.6
 (optional=templinst)_ZN3pcl6octree11ColorCodingINS_12PointXYZRGBAEED2Ev@Base 1.6
 (optional=templinst)_ZN3pcl6octree11ColorCodingINS_8PointXYZEE12decodePointsEN5boost10shared_ptrINS_10PointCloudIS2_EEEEmmh@Base 1.6
 (optional=templinst)_ZN3pcl6octree11ColorCodingINS_8PointXYZEE12encodePointsERKSt6vectorIiSaIiEEhN5boost10shared_ptrIKNS_10PointCloudIS2_EEEE@Base 1.6
 (optional=templinst)_ZN3pcl6octree11ColorCodingINS_8PointXYZEE21encodeAverageOfPointsERKSt6vectorIiSaIiEEhN5boost10shared_ptrIKNS_10PointCloudIS2_EEEE@Base 1.6
 (optional=templinst)_ZN3pcl6octree11ColorCodingINS_8PointXYZEED0Ev@Base 1.6
 (optional=templinst)_ZN3pcl6octree11ColorCodingINS_8PointXYZEED1Ev@Base 1.6
 (optional=templinst)_ZN3pcl6octree11ColorCodingINS_8PointXYZEED2Ev@Base 1.6
 (optional=templinst)_ZN3pcl6octree11PointCodingINS_11PointXYZRGBEE12encodePointsERKSt6vectorIiSaIiEEPKdN5boost10shared_ptrIKNS_10PointCloudIS2_EEEE@Base 1.6
 (optional=templinst)_ZN3pcl6octree11PointCodingINS_11PointXYZRGBEED0Ev@Base 1.6
 (optional=templinst)_ZN3pcl6octree11PointCodingINS_11PointXYZRGBEED1Ev@Base 1.6
 (optional=templinst)_ZN3pcl6octree11PointCodingINS_11PointXYZRGBEED2Ev@Base 1.6
 (optional=templinst)_ZN3pcl6octree11PointCodingINS_12PointXYZRGBAEE12encodePointsERKSt6vectorIiSaIiEEPKdN5boost10shared_ptrIKNS_10PointCloudIS2_EEEE@Base 1.6
 (optional=templinst)_ZN3pcl6octree11PointCodingINS_12PointXYZRGBAEED0Ev@Base 1.6
 (optional=templinst)_ZN3pcl6octree11PointCodingINS_12PointXYZRGBAEED1Ev@Base 1.6
 (optional=templinst)_ZN3pcl6octree11PointCodingINS_12PointXYZRGBAEED2Ev@Base 1.6
 (optional=templinst)_ZN3pcl6octree11PointCodingINS_8PointXYZEE12encodePointsERKSt6vectorIiSaIiEEPKdN5boost10shared_ptrIKNS_10PointCloudIS2_EEEE@Base 1.6
 (optional=templinst)_ZN3pcl6octree11PointCodingINS_8PointXYZEED0Ev@Base 1.6
 (optional=templinst)_ZN3pcl6octree11PointCodingINS_8PointXYZEED1Ev@Base 1.6
 (optional=templinst)_ZN3pcl6octree11PointCodingINS_8PointXYZEED2Ev@Base 1.6
 (optional=templinst)_ZN3pcl6octree14Octree2BufBaseIiNS0_26OctreeContainerDataTVectorIiEENS0_20OctreeContainerEmptyIiEEE10deleteTreeEb@Base 1.6
 (optional=templinst)_ZN3pcl6octree14Octree2BufBaseIiNS0_26OctreeContainerDataTVectorIiEENS0_20OctreeContainerEmptyIiEEE12deleteBranchERNS0_18BufferedBranchNodeIS5_EE@Base 1.6
 (optional=templinst)_ZN3pcl6octree14Octree2BufBaseIiNS0_26OctreeContainerDataTVectorIiEENS0_20OctreeContainerEmptyIiEEE13serializeTreeERSt6vectorIcSaIcEEb@Base 1.6
 (optional=templinst)_ZN3pcl6octree14Octree2BufBaseIiNS0_26OctreeContainerDataTVectorIiEENS0_20OctreeContainerEmptyIiEEE13switchBuffersEv@Base 1.6
 (optional=templinst)_ZN3pcl6octree14Octree2BufBaseIiNS0_26OctreeContainerDataTVectorIiEENS0_20OctreeContainerEmptyIiEEE15deserializeTreeERSt6vectorIcSaIcEEb@Base 1.6
 (optional=templinst)_ZN3pcl6octree14Octree2BufBaseIiNS0_26OctreeContainerDataTVectorIiEENS0_20OctreeContainerEmptyIiEEE17deleteBranchChildERNS0_18BufferedBranchNodeIS5_EEhh@Base 1.6
 (optional=templinst)_ZN3pcl6octree14Octree2BufBaseIiNS0_26OctreeContainerDataTVectorIiEENS0_20OctreeContainerEmptyIiEEE19createLeafRecursiveERKNS0_9OctreeKeyEjPNS0_18BufferedBranchNodeIS5_EEb@Base 1.6
 (optional=templinst)_ZN3pcl6octree14Octree2BufBaseIiNS0_26OctreeContainerDataTVectorIiEENS0_20OctreeContainerEmptyIiEEE20treeCleanUpRecursiveEPNS0_18BufferedBranchNodeIS5_EE@Base 1.6
 (optional=templinst)_ZN3pcl6octree14Octree2BufBaseIiNS0_26OctreeContainerDataTVectorIiEENS0_20OctreeContainerEmptyIiEEE21serializeTreeCallbackERNS0_14OctreeLeafNodeIS3_EERKNS0_9OctreeKeyE@Base 1.6
 (optional=templinst)_ZN3pcl6octree14Octree2BufBaseIiNS0_26OctreeContainerDataTVectorIiEENS0_20OctreeContainerEmptyIiEEE22serializeTreeRecursiveEPNS0_18BufferedBranchNodeIS5_EERNS0_9OctreeKeyEPSt6vectorIcSaIcEEPSC_IiSaIiEEbbm@Base 1.6
 (optional=templinst)_ZN3pcl6octree14Octree2BufBaseIiNS0_26OctreeContainerDataTVectorIiEENS0_20OctreeContainerEmptyIiEEE23deserializeTreeCallbackERNS0_14OctreeLeafNodeIS3_EERKNS0_9OctreeKeyE@Base 1.6
 (optional=templinst)_ZN3pcl6octree14Octree2BufBaseIiNS0_26OctreeContainerDataTVectorIiEENS0_20OctreeContainerEmptyIiEEE24deserializeTreeRecursiveEPNS0_18BufferedBranchNodeIS5_EEjRNS0_9OctreeKeyERN9__gnu_cxx17__normal_iteratorIPKcSt6vectorIcSaIcEEEESK_PNSD_IPKiSG_IiSaIiEEEESQ_bb@Base 1.6
 (optional=templinst)_ZN3pcl6octree14Octree2BufBaseIiNS0_26OctreeContainerDataTVectorIiEENS0_20OctreeContainerEmptyIiEEEC1Ev@Base 1.6
 (optional=templinst)_ZN3pcl6octree14Octree2BufBaseIiNS0_26OctreeContainerDataTVectorIiEENS0_20OctreeContainerEmptyIiEEEC2Ev@Base 1.6
 (optional=templinst)_ZN3pcl6octree14Octree2BufBaseIiNS0_26OctreeContainerDataTVectorIiEENS0_20OctreeContainerEmptyIiEEED0Ev@Base 1.6
 (optional=templinst)_ZN3pcl6octree14Octree2BufBaseIiNS0_26OctreeContainerDataTVectorIiEENS0_20OctreeContainerEmptyIiEEED1Ev@Base 1.6
 (optional=templinst)_ZN3pcl6octree14Octree2BufBaseIiNS0_26OctreeContainerDataTVectorIiEENS0_20OctreeContainerEmptyIiEEED2Ev@Base 1.6
 (optional=templinst)_ZN3pcl6octree14OctreeLeafNodeINS0_26OctreeContainerDataTVectorIiEEED0Ev@Base 1.6
 (optional=templinst)_ZN3pcl6octree14OctreeLeafNodeINS0_26OctreeContainerDataTVectorIiEEED1Ev@Base 1.6
 (optional=templinst)_ZN3pcl6octree14OctreeLeafNodeINS0_26OctreeContainerDataTVectorIiEEED2Ev@Base 1.6
 (optional=templinst)_ZN3pcl6octree14OctreeNodePoolINS0_14OctreeLeafNodeINS0_26OctreeContainerDataTVectorIiEEEEE10deletePoolEv@Base 1.6
 (optional=templinst)_ZN3pcl6octree14OctreeNodePoolINS0_14OctreeLeafNodeINS0_26OctreeContainerDataTVectorIiEEEEE7popNodeEv@Base 1.6
 (optional=templinst)_ZN3pcl6octree14OctreeNodePoolINS0_14OctreeLeafNodeINS0_26OctreeContainerDataTVectorIiEEEEED0Ev@Base 1.6
 (optional=templinst)_ZN3pcl6octree14OctreeNodePoolINS0_14OctreeLeafNodeINS0_26OctreeContainerDataTVectorIiEEEEED1Ev@Base 1.6
 (optional=templinst)_ZN3pcl6octree14OctreeNodePoolINS0_14OctreeLeafNodeINS0_26OctreeContainerDataTVectorIiEEEEED2Ev@Base 1.6
 (optional=templinst)_ZN3pcl6octree14OctreeNodePoolINS0_18BufferedBranchNodeINS0_20OctreeContainerEmptyIiEEEEE10deletePoolEv@Base 1.6
 (optional=templinst)_ZN3pcl6octree14OctreeNodePoolINS0_18BufferedBranchNodeINS0_20OctreeContainerEmptyIiEEEEE7popNodeEv@Base 1.6
 (optional=templinst)_ZN3pcl6octree14OctreeNodePoolINS0_18BufferedBranchNodeINS0_20OctreeContainerEmptyIiEEEEED0Ev@Base 1.6
 (optional=templinst)_ZN3pcl6octree14OctreeNodePoolINS0_18BufferedBranchNodeINS0_20OctreeContainerEmptyIiEEEEED1Ev@Base 1.6
 (optional=templinst)_ZN3pcl6octree14OctreeNodePoolINS0_18BufferedBranchNodeINS0_20OctreeContainerEmptyIiEEEEED2Ev@Base 1.6
 (optional=templinst)_ZN3pcl6octree16OctreePointCloudINS_11PointXYZRGBENS0_26OctreeContainerDataTVectorIiEENS0_20OctreeContainerEmptyIiEENS0_14Octree2BufBaseIiS4_S6_EEE11addPointIdxEi@Base 1.6
 (optional=templinst)_ZN3pcl6octree16OctreePointCloudINS_11PointXYZRGBENS0_26OctreeContainerDataTVectorIiEENS0_20OctreeContainerEmptyIiEENS0_14Octree2BufBaseIiS4_S6_EEE13getKeyBitSizeEv@Base 1.6
 (optional=templinst)_ZN3pcl6octree16OctreePointCloudINS_11PointXYZRGBENS0_26OctreeContainerDataTVectorIiEENS0_20OctreeContainerEmptyIiEENS0_14Octree2BufBaseIiS4_S6_EEE17defineBoundingBoxEdddddd@Base 1.6
 (optional=templinst)_ZN3pcl6octree16OctreePointCloudINS_11PointXYZRGBENS0_26OctreeContainerDataTVectorIiEENS0_20OctreeContainerEmptyIiEENS0_14Octree2BufBaseIiS4_S6_EEE23addPointsFromInputCloudEv@Base 1.6
 (optional=templinst)_ZN3pcl6octree16OctreePointCloudINS_11PointXYZRGBENS0_26OctreeContainerDataTVectorIiEENS0_20OctreeContainerEmptyIiEENS0_14Octree2BufBaseIiS4_S6_EEE23adoptBoundingBoxToPointERKS2_@Base 1.6
 (optional=templinst)_ZN3pcl6octree16OctreePointCloudINS_11PointXYZRGBENS0_26OctreeContainerDataTVectorIiEENS0_20OctreeContainerEmptyIiEENS0_14Octree2BufBaseIiS4_S6_EEED0Ev@Base 1.6
 (optional=templinst)_ZN3pcl6octree16OctreePointCloudINS_11PointXYZRGBENS0_26OctreeContainerDataTVectorIiEENS0_20OctreeContainerEmptyIiEENS0_14Octree2BufBaseIiS4_S6_EEED1Ev@Base 1.6
 (optional=templinst)_ZN3pcl6octree16OctreePointCloudINS_11PointXYZRGBENS0_26OctreeContainerDataTVectorIiEENS0_20OctreeContainerEmptyIiEENS0_14Octree2BufBaseIiS4_S6_EEED2Ev@Base 1.6
 (optional=templinst)_ZN3pcl6octree16OctreePointCloudINS_12PointXYZRGBAENS0_26OctreeContainerDataTVectorIiEENS0_20OctreeContainerEmptyIiEENS0_14Octree2BufBaseIiS4_S6_EEE11addPointIdxEi@Base 1.6
 (optional=templinst)_ZN3pcl6octree16OctreePointCloudINS_12PointXYZRGBAENS0_26OctreeContainerDataTVectorIiEENS0_20OctreeContainerEmptyIiEENS0_14Octree2BufBaseIiS4_S6_EEE13getKeyBitSizeEv@Base 1.6
 (optional=templinst)_ZN3pcl6octree16OctreePointCloudINS_12PointXYZRGBAENS0_26OctreeContainerDataTVectorIiEENS0_20OctreeContainerEmptyIiEENS0_14Octree2BufBaseIiS4_S6_EEE17defineBoundingBoxEdddddd@Base 1.6
 (optional=templinst)_ZN3pcl6octree16OctreePointCloudINS_12PointXYZRGBAENS0_26OctreeContainerDataTVectorIiEENS0_20OctreeContainerEmptyIiEENS0_14Octree2BufBaseIiS4_S6_EEE23addPointsFromInputCloudEv@Base 1.6
 (optional=templinst)_ZN3pcl6octree16OctreePointCloudINS_12PointXYZRGBAENS0_26OctreeContainerDataTVectorIiEENS0_20OctreeContainerEmptyIiEENS0_14Octree2BufBaseIiS4_S6_EEE23adoptBoundingBoxToPointERKS2_@Base 1.6
 (optional=templinst)_ZN3pcl6octree16OctreePointCloudINS_12PointXYZRGBAENS0_26OctreeContainerDataTVectorIiEENS0_20OctreeContainerEmptyIiEENS0_14Octree2BufBaseIiS4_S6_EEED0Ev@Base 1.6
 (optional=templinst)_ZN3pcl6octree16OctreePointCloudINS_12PointXYZRGBAENS0_26OctreeContainerDataTVectorIiEENS0_20OctreeContainerEmptyIiEENS0_14Octree2BufBaseIiS4_S6_EEED1Ev@Base 1.6
 (optional=templinst)_ZN3pcl6octree16OctreePointCloudINS_12PointXYZRGBAENS0_26OctreeContainerDataTVectorIiEENS0_20OctreeContainerEmptyIiEENS0_14Octree2BufBaseIiS4_S6_EEED2Ev@Base 1.6
 (optional=templinst)_ZN3pcl6octree16OctreePointCloudINS_8PointXYZENS0_26OctreeContainerDataTVectorIiEENS0_20OctreeContainerEmptyIiEENS0_14Octree2BufBaseIiS4_S6_EEE11addPointIdxEi@Base 1.6
 (optional=templinst)_ZN3pcl6octree16OctreePointCloudINS_8PointXYZENS0_26OctreeContainerDataTVectorIiEENS0_20OctreeContainerEmptyIiEENS0_14Octree2BufBaseIiS4_S6_EEE13getKeyBitSizeEv@Base 1.6
 (optional=templinst)_ZN3pcl6octree16OctreePointCloudINS_8PointXYZENS0_26OctreeContainerDataTVectorIiEENS0_20OctreeContainerEmptyIiEENS0_14Octree2BufBaseIiS4_S6_EEE17defineBoundingBoxEdddddd@Base 1.6
 (optional=templinst)_ZN3pcl6octree16OctreePointCloudINS_8PointXYZENS0_26OctreeContainerDataTVectorIiEENS0_20OctreeContainerEmptyIiEENS0_14Octree2BufBaseIiS4_S6_EEE23addPointsFromInputCloudEv@Base 1.6
 (optional=templinst)_ZN3pcl6octree16OctreePointCloudINS_8PointXYZENS0_26OctreeContainerDataTVectorIiEENS0_20OctreeContainerEmptyIiEENS0_14Octree2BufBaseIiS4_S6_EEE23adoptBoundingBoxToPointERKS2_@Base 1.6
 (optional=templinst)_ZN3pcl6octree16OctreePointCloudINS_8PointXYZENS0_26OctreeContainerDataTVectorIiEENS0_20OctreeContainerEmptyIiEENS0_14Octree2BufBaseIiS4_S6_EEED0Ev@Base 1.6
 (optional=templinst)_ZN3pcl6octree16OctreePointCloudINS_8PointXYZENS0_26OctreeContainerDataTVectorIiEENS0_20OctreeContainerEmptyIiEENS0_14Octree2BufBaseIiS4_S6_EEED1Ev@Base 1.6
 (optional=templinst)_ZN3pcl6octree16OctreePointCloudINS_8PointXYZENS0_26OctreeContainerDataTVectorIiEENS0_20OctreeContainerEmptyIiEENS0_14Octree2BufBaseIiS4_S6_EEED2Ev@Base 1.6
 (optional=templinst)_ZN3pcl6octree18BufferedBranchNodeINS0_20OctreeContainerEmptyIiEEED0Ev@Base 1.6
 (optional=templinst)_ZN3pcl6octree18BufferedBranchNodeINS0_20OctreeContainerEmptyIiEEED1Ev@Base 1.6
 (optional=templinst)_ZN3pcl6octree18BufferedBranchNodeINS0_20OctreeContainerEmptyIiEEED2Ev@Base 1.6
 (optional=templinst)_ZN3pcl6octree20OctreeContainerEmptyIiED0Ev@Base 1.6
 (optional=templinst)_ZN3pcl6octree20OctreeContainerEmptyIiED1Ev@Base 1.6
 (optional=templinst)_ZN3pcl6octree20OctreeContainerEmptyIiED2Ev@Base 1.6
 (optional=templinst)_ZN3pcl6octree21PointCloudCompressionINS_11PointXYZRGBENS0_26OctreeContainerDataTVectorIiEENS0_20OctreeContainerEmptyIiEENS0_14Octree2BufBaseIiS4_S6_EEE12syncToHeaderERSi@Base 1.6
 (optional=templinst)_ZN3pcl6octree21PointCloudCompressionINS_11PointXYZRGBENS0_26OctreeContainerDataTVectorIiEENS0_20OctreeContainerEmptyIiEENS0_14Octree2BufBaseIiS4_S6_EEE14initializationEv@Base 1.6
 (optional=templinst)_ZN3pcl6octree21PointCloudCompressionINS_11PointXYZRGBENS0_26OctreeContainerDataTVectorIiEENS0_20OctreeContainerEmptyIiEENS0_14Octree2BufBaseIiS4_S6_EEE14setOutputCloudERKN5boost10shared_ptrINS_10PointCloudIS2_EEEE@Base 1.6
 (optional=templinst)_ZN3pcl6octree21PointCloudCompressionINS_11PointXYZRGBENS0_26OctreeContainerDataTVectorIiEENS0_20OctreeContainerEmptyIiEENS0_14Octree2BufBaseIiS4_S6_EEE15entropyDecodingERSi@Base 1.6
 (optional=templinst)_ZN3pcl6octree21PointCloudCompressionINS_11PointXYZRGBENS0_26OctreeContainerDataTVectorIiEENS0_20OctreeContainerEmptyIiEENS0_14Octree2BufBaseIiS4_S6_EEE15entropyEncodingERSo@Base 1.6
 (optional=templinst)_ZN3pcl6octree21PointCloudCompressionINS_11PointXYZRGBENS0_26OctreeContainerDataTVectorIiEENS0_20OctreeContainerEmptyIiEENS0_14Octree2BufBaseIiS4_S6_EEE15readFrameHeaderERSi@Base 1.6
 (optional=templinst)_ZN3pcl6octree21PointCloudCompressionINS_11PointXYZRGBENS0_26OctreeContainerDataTVectorIiEENS0_20OctreeContainerEmptyIiEENS0_14Octree2BufBaseIiS4_S6_EEE16decodePointCloudERSiRN5boost10shared_ptrINS_10PointCloudIS2_EEEE@Base 1.6
 (optional=templinst)_ZN3pcl6octree21PointCloudCompressionINS_11PointXYZRGBENS0_26OctreeContainerDataTVectorIiEENS0_20OctreeContainerEmptyIiEENS0_14Octree2BufBaseIiS4_S6_EEE16encodePointCloudERKN5boost10shared_ptrIKNS_10PointCloudIS2_EEEERSo@Base 1.6
 (optional=templinst)_ZN3pcl6octree21PointCloudCompressionINS_11PointXYZRGBENS0_26OctreeContainerDataTVectorIiEENS0_20OctreeContainerEmptyIiEENS0_14Octree2BufBaseIiS4_S6_EEE16writeFrameHeaderERSo@Base 1.6
 (optional=templinst)_ZN3pcl6octree21PointCloudCompressionINS_11PointXYZRGBENS0_26OctreeContainerDataTVectorIiEENS0_20OctreeContainerEmptyIiEENS0_14Octree2BufBaseIiS4_S6_EEE21serializeTreeCallbackERNS0_14OctreeLeafNodeIS4_EERKNS0_9OctreeKeyE@Base 1.6
 _ZN3pcl6octree21PointCloudCompressionINS_11PointXYZRGBENS0_26OctreeContainerDataTVectorIiEENS0_20OctreeContainerEmptyIiEENS0_14Octree2BufBaseIiS4_S6_EEE22frameHeaderIdentifier_E@Base 1.6
 (optional=templinst)_ZN3pcl6octree21PointCloudCompressionINS_11PointXYZRGBENS0_26OctreeContainerDataTVectorIiEENS0_20OctreeContainerEmptyIiEENS0_14Octree2BufBaseIiS4_S6_EEE23deserializeTreeCallbackERNS0_14OctreeLeafNodeIS4_EERKNS0_9OctreeKeyE@Base 1.6
 (optional=templinst)_ZN3pcl6octree21PointCloudCompressionINS_11PointXYZRGBENS0_26OctreeContainerDataTVectorIiEENS0_20OctreeContainerEmptyIiEENS0_14Octree2BufBaseIiS4_S6_EEEC1ENS0_22compression_Profiles_eEbddbjbh@Base 1.6
 (optional=templinst)_ZN3pcl6octree21PointCloudCompressionINS_11PointXYZRGBENS0_26OctreeContainerDataTVectorIiEENS0_20OctreeContainerEmptyIiEENS0_14Octree2BufBaseIiS4_S6_EEEC2ENS0_22compression_Profiles_eEbddbjbh@Base 1.6
 (optional=templinst)_ZN3pcl6octree21PointCloudCompressionINS_11PointXYZRGBENS0_26OctreeContainerDataTVectorIiEENS0_20OctreeContainerEmptyIiEENS0_14Octree2BufBaseIiS4_S6_EEED0Ev@Base 1.6
 (optional=templinst)_ZN3pcl6octree21PointCloudCompressionINS_11PointXYZRGBENS0_26OctreeContainerDataTVectorIiEENS0_20OctreeContainerEmptyIiEENS0_14Octree2BufBaseIiS4_S6_EEED1Ev@Base 1.6
 (optional=templinst)_ZN3pcl6octree21PointCloudCompressionINS_11PointXYZRGBENS0_26OctreeContainerDataTVectorIiEENS0_20OctreeContainerEmptyIiEENS0_14Octree2BufBaseIiS4_S6_EEED2Ev@Base 1.6
 (optional=templinst)_ZN3pcl6octree21PointCloudCompressionINS_12PointXYZRGBAENS0_26OctreeContainerDataTVectorIiEENS0_20OctreeContainerEmptyIiEENS0_14Octree2BufBaseIiS4_S6_EEE12syncToHeaderERSi@Base 1.6
 (optional=templinst)_ZN3pcl6octree21PointCloudCompressionINS_12PointXYZRGBAENS0_26OctreeContainerDataTVectorIiEENS0_20OctreeContainerEmptyIiEENS0_14Octree2BufBaseIiS4_S6_EEE14initializationEv@Base 1.6
 (optional=templinst)_ZN3pcl6octree21PointCloudCompressionINS_12PointXYZRGBAENS0_26OctreeContainerDataTVectorIiEENS0_20OctreeContainerEmptyIiEENS0_14Octree2BufBaseIiS4_S6_EEE14setOutputCloudERKN5boost10shared_ptrINS_10PointCloudIS2_EEEE@Base 1.6
 (optional=templinst)_ZN3pcl6octree21PointCloudCompressionINS_12PointXYZRGBAENS0_26OctreeContainerDataTVectorIiEENS0_20OctreeContainerEmptyIiEENS0_14Octree2BufBaseIiS4_S6_EEE15entropyDecodingERSi@Base 1.6
 (optional=templinst)_ZN3pcl6octree21PointCloudCompressionINS_12PointXYZRGBAENS0_26OctreeContainerDataTVectorIiEENS0_20OctreeContainerEmptyIiEENS0_14Octree2BufBaseIiS4_S6_EEE15entropyEncodingERSo@Base 1.6
 (optional=templinst)_ZN3pcl6octree21PointCloudCompressionINS_12PointXYZRGBAENS0_26OctreeContainerDataTVectorIiEENS0_20OctreeContainerEmptyIiEENS0_14Octree2BufBaseIiS4_S6_EEE15readFrameHeaderERSi@Base 1.6
 (optional=templinst)_ZN3pcl6octree21PointCloudCompressionINS_12PointXYZRGBAENS0_26OctreeContainerDataTVectorIiEENS0_20OctreeContainerEmptyIiEENS0_14Octree2BufBaseIiS4_S6_EEE16decodePointCloudERSiRN5boost10shared_ptrINS_10PointCloudIS2_EEEE@Base 1.6
 (optional=templinst)_ZN3pcl6octree21PointCloudCompressionINS_12PointXYZRGBAENS0_26OctreeContainerDataTVectorIiEENS0_20OctreeContainerEmptyIiEENS0_14Octree2BufBaseIiS4_S6_EEE16encodePointCloudERKN5boost10shared_ptrIKNS_10PointCloudIS2_EEEERSo@Base 1.6
 (optional=templinst)_ZN3pcl6octree21PointCloudCompressionINS_12PointXYZRGBAENS0_26OctreeContainerDataTVectorIiEENS0_20OctreeContainerEmptyIiEENS0_14Octree2BufBaseIiS4_S6_EEE16writeFrameHeaderERSo@Base 1.6
 (optional=templinst)_ZN3pcl6octree21PointCloudCompressionINS_12PointXYZRGBAENS0_26OctreeContainerDataTVectorIiEENS0_20OctreeContainerEmptyIiEENS0_14Octree2BufBaseIiS4_S6_EEE21serializeTreeCallbackERNS0_14OctreeLeafNodeIS4_EERKNS0_9OctreeKeyE@Base 1.6
 _ZN3pcl6octree21PointCloudCompressionINS_12PointXYZRGBAENS0_26OctreeContainerDataTVectorIiEENS0_20OctreeContainerEmptyIiEENS0_14Octree2BufBaseIiS4_S6_EEE22frameHeaderIdentifier_E@Base 1.6
 (optional=templinst)_ZN3pcl6octree21PointCloudCompressionINS_12PointXYZRGBAENS0_26OctreeContainerDataTVectorIiEENS0_20OctreeContainerEmptyIiEENS0_14Octree2BufBaseIiS4_S6_EEE23deserializeTreeCallbackERNS0_14OctreeLeafNodeIS4_EERKNS0_9OctreeKeyE@Base 1.6
 (optional=templinst)_ZN3pcl6octree21PointCloudCompressionINS_12PointXYZRGBAENS0_26OctreeContainerDataTVectorIiEENS0_20OctreeContainerEmptyIiEENS0_14Octree2BufBaseIiS4_S6_EEEC1ENS0_22compression_Profiles_eEbddbjbh@Base 1.6
 (optional=templinst)_ZN3pcl6octree21PointCloudCompressionINS_12PointXYZRGBAENS0_26OctreeContainerDataTVectorIiEENS0_20OctreeContainerEmptyIiEENS0_14Octree2BufBaseIiS4_S6_EEEC2ENS0_22compression_Profiles_eEbddbjbh@Base 1.6
 (optional=templinst)_ZN3pcl6octree21PointCloudCompressionINS_12PointXYZRGBAENS0_26OctreeContainerDataTVectorIiEENS0_20OctreeContainerEmptyIiEENS0_14Octree2BufBaseIiS4_S6_EEED0Ev@Base 1.6
 (optional=templinst)_ZN3pcl6octree21PointCloudCompressionINS_12PointXYZRGBAENS0_26OctreeContainerDataTVectorIiEENS0_20OctreeContainerEmptyIiEENS0_14Octree2BufBaseIiS4_S6_EEED1Ev@Base 1.6
 (optional=templinst)_ZN3pcl6octree21PointCloudCompressionINS_12PointXYZRGBAENS0_26OctreeContainerDataTVectorIiEENS0_20OctreeContainerEmptyIiEENS0_14Octree2BufBaseIiS4_S6_EEED2Ev@Base 1.6
 (optional=templinst)_ZN3pcl6octree21PointCloudCompressionINS_8PointXYZENS0_26OctreeContainerDataTVectorIiEENS0_20OctreeContainerEmptyIiEENS0_14Octree2BufBaseIiS4_S6_EEE12syncToHeaderERSi@Base 1.6
 (optional=templinst)_ZN3pcl6octree21PointCloudCompressionINS_8PointXYZENS0_26OctreeContainerDataTVectorIiEENS0_20OctreeContainerEmptyIiEENS0_14Octree2BufBaseIiS4_S6_EEE14initializationEv@Base 1.6
 (optional=templinst)_ZN3pcl6octree21PointCloudCompressionINS_8PointXYZENS0_26OctreeContainerDataTVectorIiEENS0_20OctreeContainerEmptyIiEENS0_14Octree2BufBaseIiS4_S6_EEE14setOutputCloudERKN5boost10shared_ptrINS_10PointCloudIS2_EEEE@Base 1.6
 (optional=templinst)_ZN3pcl6octree21PointCloudCompressionINS_8PointXYZENS0_26OctreeContainerDataTVectorIiEENS0_20OctreeContainerEmptyIiEENS0_14Octree2BufBaseIiS4_S6_EEE15entropyDecodingERSi@Base 1.6
 (optional=templinst)_ZN3pcl6octree21PointCloudCompressionINS_8PointXYZENS0_26OctreeContainerDataTVectorIiEENS0_20OctreeContainerEmptyIiEENS0_14Octree2BufBaseIiS4_S6_EEE15entropyEncodingERSo@Base 1.6
 (optional=templinst)_ZN3pcl6octree21PointCloudCompressionINS_8PointXYZENS0_26OctreeContainerDataTVectorIiEENS0_20OctreeContainerEmptyIiEENS0_14Octree2BufBaseIiS4_S6_EEE15readFrameHeaderERSi@Base 1.6
 (optional=templinst)_ZN3pcl6octree21PointCloudCompressionINS_8PointXYZENS0_26OctreeContainerDataTVectorIiEENS0_20OctreeContainerEmptyIiEENS0_14Octree2BufBaseIiS4_S6_EEE16decodePointCloudERSiRN5boost10shared_ptrINS_10PointCloudIS2_EEEE@Base 1.6
 (optional=templinst)_ZN3pcl6octree21PointCloudCompressionINS_8PointXYZENS0_26OctreeContainerDataTVectorIiEENS0_20OctreeContainerEmptyIiEENS0_14Octree2BufBaseIiS4_S6_EEE16encodePointCloudERKN5boost10shared_ptrIKNS_10PointCloudIS2_EEEERSo@Base 1.6
 (optional=templinst)_ZN3pcl6octree21PointCloudCompressionINS_8PointXYZENS0_26OctreeContainerDataTVectorIiEENS0_20OctreeContainerEmptyIiEENS0_14Octree2BufBaseIiS4_S6_EEE16writeFrameHeaderERSo@Base 1.6
 (optional=templinst)_ZN3pcl6octree21PointCloudCompressionINS_8PointXYZENS0_26OctreeContainerDataTVectorIiEENS0_20OctreeContainerEmptyIiEENS0_14Octree2BufBaseIiS4_S6_EEE21serializeTreeCallbackERNS0_14OctreeLeafNodeIS4_EERKNS0_9OctreeKeyE@Base 1.6
 _ZN3pcl6octree21PointCloudCompressionINS_8PointXYZENS0_26OctreeContainerDataTVectorIiEENS0_20OctreeContainerEmptyIiEENS0_14Octree2BufBaseIiS4_S6_EEE22frameHeaderIdentifier_E@Base 1.6
 (optional=templinst)_ZN3pcl6octree21PointCloudCompressionINS_8PointXYZENS0_26OctreeContainerDataTVectorIiEENS0_20OctreeContainerEmptyIiEENS0_14Octree2BufBaseIiS4_S6_EEE23deserializeTreeCallbackERNS0_14OctreeLeafNodeIS4_EERKNS0_9OctreeKeyE@Base 1.6
 (optional=templinst)_ZN3pcl6octree21PointCloudCompressionINS_8PointXYZENS0_26OctreeContainerDataTVectorIiEENS0_20OctreeContainerEmptyIiEENS0_14Octree2BufBaseIiS4_S6_EEEC1ENS0_22compression_Profiles_eEbddbjbh@Base 1.6
 (optional=templinst)_ZN3pcl6octree21PointCloudCompressionINS_8PointXYZENS0_26OctreeContainerDataTVectorIiEENS0_20OctreeContainerEmptyIiEENS0_14Octree2BufBaseIiS4_S6_EEEC2ENS0_22compression_Profiles_eEbddbjbh@Base 1.6
 (optional=templinst)_ZN3pcl6octree21PointCloudCompressionINS_8PointXYZENS0_26OctreeContainerDataTVectorIiEENS0_20OctreeContainerEmptyIiEENS0_14Octree2BufBaseIiS4_S6_EEED0Ev@Base 1.6
 (optional=templinst)_ZN3pcl6octree21PointCloudCompressionINS_8PointXYZENS0_26OctreeContainerDataTVectorIiEENS0_20OctreeContainerEmptyIiEENS0_14Octree2BufBaseIiS4_S6_EEED1Ev@Base 1.6
 (optional=templinst)_ZN3pcl6octree21PointCloudCompressionINS_8PointXYZENS0_26OctreeContainerDataTVectorIiEENS0_20OctreeContainerEmptyIiEENS0_14Octree2BufBaseIiS4_S6_EEED2Ev@Base 1.6
 (optional=templinst)_ZN3pcl6octree26OctreeContainerDataTVectorIiED0Ev@Base 1.6
 (optional=templinst)_ZN3pcl6octree26OctreeContainerDataTVectorIiED1Ev@Base 1.6
 (optional=templinst)_ZN3pcl6octree26OctreeContainerDataTVectorIiED2Ev@Base 1.6
 _ZN3pcl6traits4nameINS_12_PointXYZRGBENS_6fields1xELi0EE5valueE@Base 1.6
 _ZN3pcl6traits4nameINS_12_PointXYZRGBENS_6fields1yELi0EE5valueE@Base 1.6
 _ZN3pcl6traits4nameINS_12_PointXYZRGBENS_6fields1zELi0EE5valueE@Base 1.6
 _ZN3pcl6traits4nameINS_12_PointXYZRGBENS_6fields3rgbELi0EE5valueE@Base 1.6
 _ZN3pcl6traits4nameINS_13_PointXYZRGBAENS_6fields1xELi0EE5valueE@Base 1.6
 _ZN3pcl6traits4nameINS_13_PointXYZRGBAENS_6fields1yELi0EE5valueE@Base 1.6
 _ZN3pcl6traits4nameINS_13_PointXYZRGBAENS_6fields1zELi0EE5valueE@Base 1.6
 _ZN3pcl6traits4nameINS_13_PointXYZRGBAENS_6fields4rgbaELi0EE5valueE@Base 1.6
 _ZN3pcl6traits4nameINS_9_PointXYZENS_6fields1xELi0EE5valueE@Base 1.6
 _ZN3pcl6traits4nameINS_9_PointXYZENS_6fields1yELi0EE5valueE@Base 1.6
 _ZN3pcl6traits4nameINS_9_PointXYZENS_6fields1zELi0EE5valueE@Base 1.6
 (optional=templinst)_ZN3pcl7Grabber12createSignalIFvRKN5boost10shared_ptrIKNS_10PointCloudIN5Eigen6MatrixIfLin1ELin1ELi0ELin1ELin1EEEEEEEEEEPNS2_8signals26signalIT_NSE_19optional_last_valueINS2_15function_traitsISG_E11result_typeEEEiSt4lessIiENS2_8functionISG_EENSE_6detail18extended_signatureIXsrSJ_5arityESG_E13function_typeENSE_5mutexEEEv@Base 1.6
 (optional=templinst)_ZN3pcl7Grabber12createSignalIFvRKN5boost10shared_ptrIKNS_10PointCloudINS_11PointXYZRGBEEEEEEEEPNS2_8signals26signalIT_NSC_19optional_last_valueINS2_15function_traitsISE_E11result_typeEEEiSt4lessIiENS2_8functionISE_EENSC_6detail18extended_signatureIXsrSH_5arityESE_E13function_typeENSC_5mutexEEEv@Base 1.6
 (optional=templinst)_ZN3pcl7Grabber12createSignalIFvRKN5boost10shared_ptrIKNS_10PointCloudINS_12PointXYZRGBAEEEEEEEEPNS2_8signals26signalIT_NSC_19optional_last_valueINS2_15function_traitsISE_E11result_typeEEEiSt4lessIiENS2_8functionISE_EENSC_6detail18extended_signatureIXsrSH_5arityESE_E13function_typeENSC_5mutexEEEv@Base 1.6
 (optional=templinst)_ZN3pcl7Grabber12createSignalIFvRKN5boost10shared_ptrIKNS_10PointCloudINS_8PointXYZEEEEEEEEPNS2_8signals26signalIT_NSC_19optional_last_valueINS2_15function_traitsISE_E11result_typeEEEiSt4lessIiENS2_8functionISE_EENSC_6detail18extended_signatureIXsrSH_5arityESE_E13function_typeENSC_5mutexEEEv@Base 1.6
 (optional=templinst)_ZN3pcl7Grabber12createSignalIFvRKN5boost10shared_ptrIKNS_10PointCloudINS_9PointXYZIEEEEEEEEPNS2_8signals26signalIT_NSC_19optional_last_valueINS2_15function_traitsISE_E11result_typeEEEiSt4lessIiENS2_8functionISE_EENSC_6detail18extended_signatureIXsrSH_5arityESE_E13function_typeENSC_5mutexEEEv@Base 1.6
 (optional=templinst)_ZN3pcl7Grabber12createSignalIFvRKN5boost10shared_ptrIN14openni_wrapper10DepthImageEEEEEEPNS2_8signals26signalIT_NSA_19optional_last_valueINS2_15function_traitsISC_E11result_typeEEEiSt4lessIiENS2_8functionISC_EENSA_6detail18extended_signatureIXsrSF_5arityESC_E13function_typeENSA_5mutexEEEv@Base 1.6
 (optional=templinst)_ZN3pcl7Grabber12createSignalIFvRKN5boost10shared_ptrIN14openni_wrapper5ImageEEEEEEPNS2_8signals26signalIT_NSA_19optional_last_valueINS2_15function_traitsISC_E11result_typeEEEiSt4lessIiENS2_8functionISC_EENSA_6detail18extended_signatureIXsrSF_5arityESC_E13function_typeENSA_5mutexEEEv@Base 1.6
 (optional=templinst)_ZN3pcl7Grabber12createSignalIFvRKN5boost10shared_ptrIN14openni_wrapper5ImageEEERKNS3_INS4_10DepthImageEEEfEEEPNS2_8signals26signalIT_NSE_19optional_last_valueINS2_15function_traitsISG_E11result_typeEEEiSt4lessIiENS2_8functionISG_EENSE_6detail18extended_signatureIXsrSJ_5arityESG_E13function_typeENSE_5mutexEEEv@Base 1.6
 (optional=templinst)_ZN3pcl7Grabber12createSignalIFvRKN5boost10shared_ptrIN14openni_wrapper7IRImageEEEEEEPNS2_8signals26signalIT_NSA_19optional_last_valueINS2_15function_traitsISC_E11result_typeEEEiSt4lessIiENS2_8functionISC_EENSA_6detail18extended_signatureIXsrSF_5arityESC_E13function_typeENSA_5mutexEEEv@Base 1.6
 (optional=templinst)_ZN3pcl7Grabber12createSignalIFvRKN5boost10shared_ptrIN14openni_wrapper7IRImageEEERKNS3_INS4_10DepthImageEEEfEEEPNS2_8signals26signalIT_NSE_19optional_last_valueINS2_15function_traitsISG_E11result_typeEEEiSt4lessIiENS2_8functionISG_EENSE_6detail18extended_signatureIXsrSJ_5arityESG_E13function_typeENSE_5mutexEEEv@Base 1.6
 _ZN3pcl7Grabber13block_signalsEv@Base 1.6
 _ZN3pcl7Grabber14signalsChangedEv@Base 1.6
 _ZN3pcl7Grabber15unblock_signalsEv@Base 1.6
 (optional=templinst)_ZN3pcl7Grabber20disconnect_all_slotsIFvRKN5boost10shared_ptrIKNS_10PointCloudIN5Eigen6MatrixIfLin1ELin1ELi0ELin1ELin1EEEEEEEEEEvv@Base 1.6
 (optional=templinst)_ZN3pcl7Grabber20disconnect_all_slotsIFvRKN5boost10shared_ptrIKNS_10PointCloudINS_11PointXYZRGBEEEEEEEEvv@Base 1.6
 (optional=templinst)_ZN3pcl7Grabber20disconnect_all_slotsIFvRKN5boost10shared_ptrIKNS_10PointCloudINS_12PointXYZRGBAEEEEEEEEvv@Base 1.6
 (optional=templinst)_ZN3pcl7Grabber20disconnect_all_slotsIFvRKN5boost10shared_ptrIKNS_10PointCloudINS_8PointXYZEEEEEEEEvv@Base 1.6
 (optional=templinst)_ZN3pcl7Grabber20disconnect_all_slotsIFvRKN5boost10shared_ptrIKNS_10PointCloudINS_9PointXYZIEEEEEEEEvv@Base 1.6
 (optional=templinst)_ZN3pcl7Grabber20disconnect_all_slotsIFvRKN5boost10shared_ptrIN14openni_wrapper10DepthImageEEEEEEvv@Base 1.6
 (optional=templinst)_ZN3pcl7Grabber20disconnect_all_slotsIFvRKN5boost10shared_ptrIN14openni_wrapper5ImageEEEEEEvv@Base 1.6
 (optional=templinst)_ZN3pcl7Grabber20disconnect_all_slotsIFvRKN5boost10shared_ptrIN14openni_wrapper5ImageEEERKNS3_INS4_10DepthImageEEEfEEEvv@Base 1.6
 (optional=templinst)_ZN3pcl7Grabber20disconnect_all_slotsIFvRKN5boost10shared_ptrIN14openni_wrapper7IRImageEEEEEEvv@Base 1.6
 _ZN3pcl7GrabberC1Ev@Base 1.6
 _ZN3pcl7GrabberC2Ev@Base 1.6
 _ZN3pcl7GrabberD0Ev@Base 1.6
 _ZN3pcl7GrabberD1Ev@Base 1.6
 _ZN3pcl7GrabberD2Ev@Base 1.6
 _ZN3pcl8VerticesD1Ev@Base 1.6
 _ZN3pcl8VerticesD2Ev@Base 1.6
 (optional=templinst)_ZN3pcl8toROSMsgINS_11PointXYZRGBEEEvRKNS_10PointCloudIT_EERN11sensor_msgs11PointCloud2E@Base 1.6
 (optional=templinst)_ZN3pcl8toROSMsgINS_8PointXYZEEEvRKNS_10PointCloudIT_EERN11sensor_msgs11PointCloud2E@Base 1.6
 _ZN3pcl9PCDReader10readHeaderERKSsRN11sensor_msgs11PointCloud2ERN5Eigen6MatrixIfLi4ELi1ELi0ELi4ELi1EEERNS6_10QuaternionIfLi0EEERiSD_Rji@Base 1.6
 _ZN3pcl9PCDReader10readHeaderERKSsRN11sensor_msgs11PointCloud2Ei@Base 1.6
 _ZN3pcl9PCDReader15readHeaderEigenERKSsRNS_10PointCloudIN5Eigen6MatrixIfLin1ELin1ELi0ELin1ELin1EEEEERiS9_Rji@Base 1.6
 _ZN3pcl9PCDReader4readERKSsRN11sensor_msgs11PointCloud2ERN5Eigen6MatrixIfLi4ELi1ELi0ELi4ELi1EEERNS6_10QuaternionIfLi0EEERii@Base 1.6
 _ZN3pcl9PCDReader4readERKSsRN11sensor_msgs11PointCloud2Ei@Base 1.6
 _ZN3pcl9PCDReader9readEigenERKSsRNS_10PointCloudIN5Eigen6MatrixIfLin1ELin1ELi0ELin1ELin1EEEEEi@Base 1.6
 _ZN3pcl9PCDReaderD0Ev@Base 1.6
 _ZN3pcl9PCDReaderD1Ev@Base 1.6
 _ZN3pcl9PCDReaderD2Ev@Base 1.6
 _ZN3pcl9PCDWriter10writeASCIIERKSsRKN11sensor_msgs11PointCloud2ERKN5Eigen6MatrixIfLi4ELi1ELi0ELi4ELi1EEERKNS7_10QuaternionIfLi0EEEi@Base 1.6
 _ZN3pcl9PCDWriter11writeBinaryERKSsRKN11sensor_msgs11PointCloud2ERKN5Eigen6MatrixIfLi4ELi1ELi0ELi4ELi1EEERKNS7_10QuaternionIfLi0EEE@Base 1.6
 _ZN3pcl9PCDWriter15writeASCIIEigenERKSsRKNS_10PointCloudIN5Eigen6MatrixIfLin1ELin1ELi0ELin1ELin1EEEEEi@Base 1.6
 _ZN3pcl9PCDWriter16writeBinaryEigenERKSsRKNS_10PointCloudIN5Eigen6MatrixIfLin1ELin1ELi0ELin1ELin1EEEEE@Base 1.6
 _ZN3pcl9PCDWriter19generateHeaderASCIIERKN11sensor_msgs11PointCloud2ERKN5Eigen6MatrixIfLi4ELi1ELi0ELi4ELi1EEERKNS5_10QuaternionIfLi0EEE@Base 1.6
 _ZN3pcl9PCDWriter19generateHeaderEigenERKNS_10PointCloudIN5Eigen6MatrixIfLin1ELin1ELi0ELin1ELin1EEEEEi@Base 1.6
 _ZN3pcl9PCDWriter20generateHeaderBinaryERKN11sensor_msgs11PointCloud2ERKN5Eigen6MatrixIfLi4ELi1ELi0ELi4ELi1EEERKNS5_10QuaternionIfLi0EEE@Base 1.6
 _ZN3pcl9PCDWriter21writeBinaryCompressedERKSsRKN11sensor_msgs11PointCloud2ERKN5Eigen6MatrixIfLi4ELi1ELi0ELi4ELi1EEERKNS7_10QuaternionIfLi0EEE@Base 1.6
 _ZN3pcl9PCDWriter26writeBinaryCompressedEigenERKSsRKNS_10PointCloudIN5Eigen6MatrixIfLin1ELin1ELi0ELin1ELin1EEEEE@Base 1.6
 _ZN3pcl9PCDWriter30generateHeaderBinaryCompressedERKN11sensor_msgs11PointCloud2ERKN5Eigen6MatrixIfLi4ELi1ELi0ELi4ELi1EEERKNS5_10QuaternionIfLi0EEE@Base 1.6
 _ZN3pcl9PCDWriter5writeERKSsRKN11sensor_msgs11PointCloud2ERKN5Eigen6MatrixIfLi4ELi1ELi0ELi4ELi1EEERKNS7_10QuaternionIfLi0EEEb@Base 1.6
 _ZN3pcl9PCDWriterD0Ev@Base 1.6
 _ZN3pcl9PCDWriterD1Ev@Base 1.6
 _ZN3pcl9PCDWriterD2Ev@Base 1.6
 _ZN3pcl9PLYReader10readHeaderERKSsRN11sensor_msgs11PointCloud2ERN5Eigen6MatrixIfLi4ELi1ELi0ELi4ELi1EEERNS6_10QuaternionIfLi0EEERiSD_Rji@Base 1.6
 _ZN3pcl9PLYReader12infoCallbackERKSsmS2_@Base 1.6
 _ZN3pcl9PLYReader13errorCallbackERKSsmS2_@Base 1.6
 _ZN3pcl9PLYReader15objInfoCallbackERKSs@Base 1.6
 _ZN3pcl9PLYReader15originXCallbackERKf@Base 1.6
 _ZN3pcl9PLYReader15originYCallbackERKf@Base 1.6
 _ZN3pcl9PLYReader15originZCallbackERKf@Base 1.6
 _ZN3pcl9PLYReader15warningCallbackERKSsmS2_@Base 1.6
 _ZN3pcl9PLYReader17endHeaderCallbackEv@Base 1.6
 _ZN3pcl9PLYReader17vertexEndCallbackEv@Base 1.6
 _ZN3pcl9PLYReader18cloudWidthCallbackERKi@Base 1.6
 _ZN3pcl9PLYReader19appendFloatPropertyERKSsRKm@Base 1.6
 _ZN3pcl9PLYReader19cloudHeightCallbackERKi@Base 1.6
 _ZN3pcl9PLYReader19vertexBeginCallbackEv@Base 1.6
 _ZN3pcl9PLYReader19vertexColorCallbackERKSsh@Base 1.6
 _ZN3pcl9PLYReader20rangeGridEndCallbackEv@Base 1.6
 _ZN3pcl9PLYReader22rangeGridBeginCallbackEv@Base 1.6
 _ZN3pcl9PLYReader23vertexIntensityCallbackEh@Base 1.6
 _ZN3pcl9PLYReader25elementDefinitionCallbackERKSsm@Base 1.6
 _ZN3pcl9PLYReader25orientationXaxisXCallbackERKf@Base 1.6
 _ZN3pcl9PLYReader25orientationXaxisYCallbackERKf@Base 1.6
 _ZN3pcl9PLYReader25orientationXaxisZCallbackERKf@Base 1.6
 _ZN3pcl9PLYReader25orientationYaxisXCallbackERKf@Base 1.6
 _ZN3pcl9PLYReader25orientationYaxisYCallbackERKf@Base 1.6
 _ZN3pcl9PLYReader25orientationYaxisZCallbackERKf@Base 1.6
 _ZN3pcl9PLYReader25orientationZaxisXCallbackERKf@Base 1.6
 _ZN3pcl9PLYReader25orientationZaxisYCallbackERKf@Base 1.6
 _ZN3pcl9PLYReader25orientationZaxisZCallbackERKf@Base 1.6
 _ZN3pcl9PLYReader27vertexFloatPropertyCallbackEf@Base 1.6
 (optional=templinst)_ZN3pcl9PLYReader30listPropertyDefinitionCallbackIhiEEN5boost6tuples5tupleINS2_8functionIFvT_EEENS5_IFvT0_EEENS5_IFvvEEENS3_9null_typeESE_SE_SE_SE_SE_SE_EERKSsSH_@Base 1.6
 (optional=templinst)_ZN3pcl9PLYReader32scalarPropertyDefinitionCallbackIfEEN5boost8functionIFvT_EEERKSsS8_@Base 1.6
 (optional=templinst)_ZN3pcl9PLYReader32scalarPropertyDefinitionCallbackIhEEN5boost8functionIFvT_EEERKSsS8_@Base 1.6
 (optional=templinst)_ZN3pcl9PLYReader32scalarPropertyDefinitionCallbackIiEEN5boost8functionIFvT_EEERKSsS8_@Base 1.6
 _ZN3pcl9PLYReader33rangeGridVertexIndicesEndCallbackEv@Base 1.6
 _ZN3pcl9PLYReader35rangeGridVertexIndicesBeginCallbackEh@Base 1.6
 _ZN3pcl9PLYReader37rangeGridVertexIndicesElementCallbackEi@Base 1.6
 _ZN3pcl9PLYReader4readERKSsRN11sensor_msgs11PointCloud2ERN5Eigen6MatrixIfLi4ELi1ELi0ELi4ELi1EEERNS6_10QuaternionIfLi0EEERii@Base 1.6
 _ZN3pcl9PLYReader5parseERKSs@Base 1.6
 _ZN3pcl9PLYReaderD0Ev@Base 1.6
 _ZN3pcl9PLYReaderD1Ev@Base 1.6
 _ZN3pcl9PLYReaderD2Ev@Base 1.6
 _ZN3pcl9PLYWriter10writeASCIIERKSsRKN11sensor_msgs11PointCloud2ERKN5Eigen6MatrixIfLi4ELi1ELi0ELi4ELi1EEERKNS7_10QuaternionIfLi0EEEib@Base 1.6
 _ZN3pcl9PLYWriter11writeBinaryERKSsRKN11sensor_msgs11PointCloud2ERKN5Eigen6MatrixIfLi4ELi1ELi0ELi4ELi1EEERKNS7_10QuaternionIfLi0EEE@Base 1.6
 _ZN3pcl9PLYWriter14generateHeaderERKN11sensor_msgs11PointCloud2ERKN5Eigen6MatrixIfLi4ELi1ELi0ELi4ELi1EEERKNS5_10QuaternionIfLi0EEEbbi@Base 1.6
 _ZN3pcl9PLYWriter27writeContentWithCameraASCIIEiiRKN11sensor_msgs11PointCloud2ERKN5Eigen6MatrixIfLi4ELi1ELi0ELi4ELi1EEERKNS5_10QuaternionIfLi0EEERSt14basic_ofstreamIcSt11char_traitsIcEE@Base 1.6
 _ZN3pcl9PLYWriter30writeContentWithRangeGridASCIIEiiRKN11sensor_msgs11PointCloud2ERSt19basic_ostringstreamIcSt11char_traitsIcESaIcEERi@Base 1.6
 (optional=templinst)_ZN5Eigen15PlainObjectBaseINS_6MatrixIfLin1ELin1ELi0ELin1ELin1EEEE10resizeLikeINS_9TransposeIKS2_EEEEvRKNS_9EigenBaseIT_EE@Base 1.6
 (optional=templinst)_ZN5Eigen15PlainObjectBaseINS_6MatrixIfLin1ELin1ELi0ELin1ELin1EEEE10resizeLikeINS_9TransposeINS1_IfLin1ELin1ELi1ELin1ELin1EEEEEEEvRKNS_9EigenBaseIT_EE@Base 1.6
 (optional=templinst)_ZN5Eigen15PlainObjectBaseINS_6MatrixIfLin1ELin1ELi0ELin1ELin1EEEE10resizeLikeIS2_EEvRKNS_9EigenBaseIT_EE@Base 1.6
 (optional=templinst)_ZN5Eigen15PlainObjectBaseINS_6MatrixIfLin1ELin1ELi0ELin1ELin1EEEE6resizeEll@Base 1.6
 (optional=templinst)_ZN5Eigen15PlainObjectBaseINS_6MatrixIfLin1ELin1ELi0ELin1ELin1EEEED1Ev@Base 1.6
 (optional=templinst)_ZN5Eigen15PlainObjectBaseINS_6MatrixIfLin1ELin1ELi0ELin1ELin1EEEED2Ev@Base 1.6
 (optional=templinst)_ZN5Eigen15PlainObjectBaseINS_6MatrixIfLin1ELin1ELi1ELin1ELin1EEEE10resizeLikeINS1_IfLin1ELin1ELi0ELin1ELin1EEEEEvRKNS_9EigenBaseIT_EE@Base 1.6
 (optional=templinst)_ZN5Eigen15PlainObjectBaseINS_6MatrixIfLin1ELin1ELi1ELin1ELin1EEEE6resizeEll@Base 1.6
 (optional=templinst)_ZN5Eigen15PlainObjectBaseINS_6MatrixIfLin1ELin1ELi1ELin1ELin1EEEED1Ev@Base 1.6
 (optional=templinst)_ZN5Eigen15PlainObjectBaseINS_6MatrixIfLin1ELin1ELi1ELin1ELin1EEEED2Ev@Base 1.6
 (optional=templinst)_ZN5Eigen6MatrixIfLin1ELin1ELi0ELin1ELin1EEC1INS_9TransposeINS0_IfLin1ELin1ELi1ELin1ELin1EEEEEEERKNS_10MatrixBaseIT_EE@Base 1.6
 (optional=templinst)_ZN5Eigen6MatrixIfLin1ELin1ELi0ELin1ELin1EEC2INS_9TransposeINS0_IfLin1ELin1ELi1ELin1ELin1EEEEEEERKNS_10MatrixBaseIT_EE@Base 1.6
 (optional=templinst)_ZN5Eigen6MatrixIfLin1ELin1ELi0ELin1ELin1EED1Ev@Base 1.6
 (optional=templinst)_ZN5Eigen6MatrixIfLin1ELin1ELi0ELin1ELin1EED2Ev@Base 1.6
 (optional=templinst)_ZN5Eigen6MatrixIfLin1ELin1ELi1ELin1ELin1EEC1IllEERKT_RKT0_@Base 1.6
 (optional=templinst)_ZN5Eigen6MatrixIfLin1ELin1ELi1ELin1ELin1EEC2IllEERKT_RKT0_@Base 1.6
 (optional=templinst)_ZN5Eigen6MatrixIfLin1ELin1ELi1ELin1ELin1EED1Ev@Base 1.6
 (optional=templinst)_ZN5Eigen6MatrixIfLin1ELin1ELi1ELin1ELin1EED2Ev@Base 1.6
 (optional=templinst)_ZN5Eigen8internal11assign_implINS_6MatrixIfLin1ELin1ELi0ELin1ELin1EEENS_9TransposeIKS3_EELi0ELi0ELi0EE3runERS3_RKS6_@Base 1.6
 (optional=templinst)_ZN5Eigen8internal11assign_implINS_6MatrixIfLin1ELin1ELi0ELin1ELin1EEENS_9TransposeINS2_IfLin1ELin1ELi1ELin1ELin1EEEEELi3ELi0ELi0EE3runERS3_RKS6_@Base 1.6
 (optional=templinst)_ZN5Eigen8internal11assign_implINS_6MatrixIfLin1ELin1ELi1ELin1ELin1EEENS2_IfLin1ELin1ELi0ELin1ELin1EEELi0ELi0ELi0EE3runERS3_RKS4_@Base 1.6
 _ZN5Eigen8internal14aligned_mallocEm@Base 1.6
 _ZN5Eigen8internal19throw_std_bad_allocEv@Base 1.6
 (optional=templinst)_ZN5Eigen8internal26inplace_transpose_selectorINS_6MatrixIfLin1ELin1ELi1ELin1ELin1EEELb0EE3runERS3_@Base 1.6
 (optional=templinst)_ZN5Eigen8internal26quaternionbase_assign_implINS_6MatrixIfLi3ELi3ELi0ELi3ELi3EEELi3ELi3EE3runINS_10QuaternionIfLi0EEEEEvRNS_14QuaternionBaseIT_EERKS3_@Base 1.6
 (optional=templinst)_ZN5Eigen8internal28conditional_aligned_new_autoIfLb1EEEPT_m@Base 1.6
 (optional=templinst)_ZN5Eigen8internal30triangular_assignment_selectorINS_11SwapWrapperINS_6MatrixIfLin1ELin1ELi1ELin1ELin1EEEEENS_9TransposeIS4_EELj10ELin1ELb0EE3runERS5_RKS7_@Base 1.6
 (optional=templinst)_ZN5boost10as_literalISsEENS_14iterator_rangeINS_14range_iteratorIKT_E4typeEEERS4_@Base 1.6
 (optional=templinst)_ZN5boost10as_literalISsEENS_14iterator_rangeINS_14range_iteratorIT_E4typeEEERS3_@Base 1.6
 _ZN5boost10lock_errorD0Ev@Base 1.6
 _ZN5boost10lock_errorD1Ev@Base 1.6
 _ZN5boost10lock_errorD2Ev@Base 1.6
 (optional=templinst)_ZN5boost10lock_guardINS_5mutexEED1Ev@Base 1.6
 (optional=templinst)_ZN5boost10lock_guardINS_5mutexEED2Ev@Base 1.6
 (optional=templinst)_ZN5boost10shared_ptrIKN3pcl10PointCloudINS1_11PointXYZRGBEEEED1Ev@Base 1.6
 (optional=templinst)_ZN5boost10shared_ptrIKN3pcl10PointCloudINS1_11PointXYZRGBEEEED2Ev@Base 1.6
 (optional=templinst)_ZN5boost10shared_ptrIKN3pcl10PointCloudINS1_12PointXYZRGBAEEEED1Ev@Base 1.6
 (optional=templinst)_ZN5boost10shared_ptrIKN3pcl10PointCloudINS1_12PointXYZRGBAEEEED2Ev@Base 1.6
 (optional=templinst)_ZN5boost10shared_ptrIKN3pcl10PointCloudINS1_8PointXYZEEEED1Ev@Base 1.6
 (optional=templinst)_ZN5boost10shared_ptrIKN3pcl10PointCloudINS1_8PointXYZEEEED2Ev@Base 1.6
 (optional=templinst)_ZN5boost10shared_ptrIKNS_16exception_detail10clone_baseEEC1INS1_10clone_implINS1_10bad_alloc_EEEEEPT_@Base 1.6
 (optional=templinst)_ZN5boost10shared_ptrIKNS_16exception_detail10clone_baseEEC1INS1_10clone_implINS1_14bad_exception_EEEEEPT_@Base 1.6
 (optional=templinst)_ZN5boost10shared_ptrIKNS_16exception_detail10clone_baseEEC2INS1_10clone_implINS1_10bad_alloc_EEEEEPT_@Base 1.6
 (optional=templinst)_ZN5boost10shared_ptrIKNS_16exception_detail10clone_baseEEC2INS1_10clone_implINS1_14bad_exception_EEEEEPT_@Base 1.6
 (optional=templinst)_ZN5boost10shared_ptrIKSt6vectorIiSaIiEEED1Ev@Base 1.6
 (optional=templinst)_ZN5boost10shared_ptrIKSt6vectorIiSaIiEEED2Ev@Base 1.6
 (optional=templinst)_ZN5boost10shared_ptrIN14openni_wrapper10DepthImageEED1Ev@Base 1.6
 (optional=templinst)_ZN5boost10shared_ptrIN14openni_wrapper10DepthImageEED2Ev@Base 1.6
 (optional=templinst)_ZN5boost10shared_ptrIN14openni_wrapper12OpenNIDeviceEE5resetINS1_12DeviceKinectEEEvPT_@Base 1.6
 (optional=templinst)_ZN5boost10shared_ptrIN14openni_wrapper12OpenNIDeviceEE5resetINS1_14DeviceXtionProEEEvPT_@Base 1.6
 (optional=templinst)_ZN5boost10shared_ptrIN14openni_wrapper12OpenNIDeviceEE5resetINS1_16DevicePrimesenseEEEvPT_@Base 1.6
 (optional=templinst)_ZN5boost10shared_ptrIN14openni_wrapper12OpenNIDeviceEED1Ev@Base 1.6
 (optional=templinst)_ZN5boost10shared_ptrIN14openni_wrapper12OpenNIDeviceEED2Ev@Base 1.6
 (optional=templinst)_ZN5boost10shared_ptrIN14openni_wrapper12OpenNIDeviceEEaSERKS3_@Base 1.6
 (optional=templinst)_ZN5boost10shared_ptrIN14openni_wrapper5ImageEED1Ev@Base 1.6
 (optional=templinst)_ZN5boost10shared_ptrIN14openni_wrapper5ImageEED2Ev@Base 1.6
 (optional=templinst)_ZN5boost10shared_ptrIN14openni_wrapper7IRImageEED1Ev@Base 1.6
 (optional=templinst)_ZN5boost10shared_ptrIN14openni_wrapper7IRImageEED2Ev@Base 1.6
 (optional=templinst)_ZN5boost10shared_ptrIN14openni_wrapper9DeviceONIEEC1INS1_12OpenNIDeviceEEERKNS0_IT_EENS_6detail16dynamic_cast_tagE@Base 1.6
 (optional=templinst)_ZN5boost10shared_ptrIN14openni_wrapper9DeviceONIEEC2INS1_12OpenNIDeviceEEERKNS0_IT_EENS_6detail16dynamic_cast_tagE@Base 1.6
 (optional=templinst)_ZN5boost10shared_ptrIN14openni_wrapper9DeviceONIEED1Ev@Base 1.6
 (optional=templinst)_ZN5boost10shared_ptrIN14openni_wrapper9DeviceONIEED2Ev@Base 1.6
 (optional=templinst)_ZN5boost10shared_ptrIN14openni_wrapper9DeviceONIEEaSERKS3_@Base 1.6
 (optional=templinst)_ZN5boost10shared_ptrIN2xn8NodeInfoEED1Ev@Base 1.6
 (optional=templinst)_ZN5boost10shared_ptrIN2xn8NodeInfoEED2Ev@Base 1.6
 (optional=templinst)_ZN5boost10shared_ptrIN2xn8NodeInfoEEaSERKS3_@Base 1.6
 (optional=templinst)_ZN5boost10shared_ptrIN3pcl10PointCloudIN5Eigen6MatrixIfLin1ELin1ELi0ELin1ELin1EEEEEED1Ev@Base 1.6
 (optional=templinst)_ZN5boost10shared_ptrIN3pcl10PointCloudIN5Eigen6MatrixIfLin1ELin1ELi0ELin1ELin1EEEEEED2Ev@Base 1.6
 (optional=templinst)_ZN5boost10shared_ptrIN3pcl10PointCloudINS1_11PointXYZRGBEEEED1Ev@Base 1.6
 (optional=templinst)_ZN5boost10shared_ptrIN3pcl10PointCloudINS1_11PointXYZRGBEEEED2Ev@Base 1.6
 (optional=templinst)_ZN5boost10shared_ptrIN3pcl10PointCloudINS1_11PointXYZRGBEEEEaSERKS5_@Base 1.6
 (optional=templinst)_ZN5boost10shared_ptrIN3pcl10PointCloudINS1_12PointXYZRGBAEEEED1Ev@Base 1.6
 (optional=templinst)_ZN5boost10shared_ptrIN3pcl10PointCloudINS1_12PointXYZRGBAEEEED2Ev@Base 1.6
 (optional=templinst)_ZN5boost10shared_ptrIN3pcl10PointCloudINS1_12PointXYZRGBAEEEEaSERKS5_@Base 1.6
 (optional=templinst)_ZN5boost10shared_ptrIN3pcl10PointCloudINS1_8PointXYZEEEED1Ev@Base 1.6
 (optional=templinst)_ZN5boost10shared_ptrIN3pcl10PointCloudINS1_8PointXYZEEEED2Ev@Base 1.6
 (optional=templinst)_ZN5boost10shared_ptrIN3pcl10PointCloudINS1_8PointXYZEEEEaSERKS5_@Base 1.6
 (optional=templinst)_ZN5boost10shared_ptrIN3pcl10PointCloudINS1_9PointXYZIEEEED1Ev@Base 1.6
 (optional=templinst)_ZN5boost10shared_ptrIN3pcl10PointCloudINS1_9PointXYZIEEEED2Ev@Base 1.6
 (optional=templinst)_ZN5boost10shared_ptrINS_6detail16thread_data_baseEEC1INS1_11thread_dataINS_3_bi6bind_tIvNS_4_mfi3mf0IvN14openni_wrapper12OpenNIDeviceEEENS6_5list1INS6_5valueIPSB_EEEEEEEEEEPT_@Base 1.6
 (optional=templinst)_ZN5boost10shared_ptrINS_6detail16thread_data_baseEEC2INS1_11thread_dataINS_3_bi6bind_tIvNS_4_mfi3mf0IvN14openni_wrapper12OpenNIDeviceEEENS6_5list1INS6_5valueIPSB_EEEEEEEEEEPT_@Base 1.6
 (optional=templinst)_ZN5boost10shared_ptrINS_6detail16thread_data_baseEED1Ev@Base 1.6
 (optional=templinst)_ZN5boost10shared_ptrINS_6detail16thread_data_baseEED2Ev@Base 1.6
 (optional=templinst)_ZN5boost10shared_ptrINS_6detail16thread_data_baseEEaSERKS3_@Base 1.6
 (optional=templinst)_ZN5boost10shared_ptrINS_8signals26detail12grouped_listIiSt4lessIiENS0_INS2_15connection_bodyISt4pairINS2_15slot_meta_groupENS_8optionalIiEEENS1_5slot1IvRKNS0_IKN3pcl10PointCloudIN5Eigen6MatrixIfLin1ELin1ELi0ELin1ELin1EEEEEEENS_8functionIFvSM_EEEEENS1_5mutexEEEEEEEED1Ev@Base 1.6
 (optional=templinst)_ZN5boost10shared_ptrINS_8signals26detail12grouped_listIiSt4lessIiENS0_INS2_15connection_bodyISt4pairINS2_15slot_meta_groupENS_8optionalIiEEENS1_5slot1IvRKNS0_IKN3pcl10PointCloudIN5Eigen6MatrixIfLin1ELin1ELi0ELin1ELin1EEEEEEENS_8functionIFvSM_EEEEENS1_5mutexEEEEEEEED2Ev@Base 1.6
 (optional=templinst)_ZN5boost10shared_ptrINS_8signals26detail12grouped_listIiSt4lessIiENS0_INS2_15connection_bodyISt4pairINS2_15slot_meta_groupENS_8optionalIiEEENS1_5slot1IvRKNS0_IKN3pcl10PointCloudINSD_11PointXYZRGBEEEEENS_8functionIFvSK_EEEEENS1_5mutexEEEEEEEED1Ev@Base 1.6
 (optional=templinst)_ZN5boost10shared_ptrINS_8signals26detail12grouped_listIiSt4lessIiENS0_INS2_15connection_bodyISt4pairINS2_15slot_meta_groupENS_8optionalIiEEENS1_5slot1IvRKNS0_IKN3pcl10PointCloudINSD_11PointXYZRGBEEEEENS_8functionIFvSK_EEEEENS1_5mutexEEEEEEEED2Ev@Base 1.6
 (optional=templinst)_ZN5boost10shared_ptrINS_8signals26detail12grouped_listIiSt4lessIiENS0_INS2_15connection_bodyISt4pairINS2_15slot_meta_groupENS_8optionalIiEEENS1_5slot1IvRKNS0_IKN3pcl10PointCloudINSD_12PointXYZRGBAEEEEENS_8functionIFvSK_EEEEENS1_5mutexEEEEEEEED1Ev@Base 1.6
 (optional=templinst)_ZN5boost10shared_ptrINS_8signals26detail12grouped_listIiSt4lessIiENS0_INS2_15connection_bodyISt4pairINS2_15slot_meta_groupENS_8optionalIiEEENS1_5slot1IvRKNS0_IKN3pcl10PointCloudINSD_12PointXYZRGBAEEEEENS_8functionIFvSK_EEEEENS1_5mutexEEEEEEEED2Ev@Base 1.6
 (optional=templinst)_ZN5boost10shared_ptrINS_8signals26detail12grouped_listIiSt4lessIiENS0_INS2_15connection_bodyISt4pairINS2_15slot_meta_groupENS_8optionalIiEEENS1_5slot1IvRKNS0_IKN3pcl10PointCloudINSD_8PointXYZEEEEENS_8functionIFvSK_EEEEENS1_5mutexEEEEEEEED1Ev@Base 1.6
 (optional=templinst)_ZN5boost10shared_ptrINS_8signals26detail12grouped_listIiSt4lessIiENS0_INS2_15connection_bodyISt4pairINS2_15slot_meta_groupENS_8optionalIiEEENS1_5slot1IvRKNS0_IKN3pcl10PointCloudINSD_8PointXYZEEEEENS_8functionIFvSK_EEEEENS1_5mutexEEEEEEEED2Ev@Base 1.6
 (optional=templinst)_ZN5boost10shared_ptrINS_8signals26detail12grouped_listIiSt4lessIiENS0_INS2_15connection_bodyISt4pairINS2_15slot_meta_groupENS_8optionalIiEEENS1_5slot1IvRKNS0_IKN3pcl10PointCloudINSD_9PointXYZIEEEEENS_8functionIFvSK_EEEEENS1_5mutexEEEEEEEED1Ev@Base 1.6
 (optional=templinst)_ZN5boost10shared_ptrINS_8signals26detail12grouped_listIiSt4lessIiENS0_INS2_15connection_bodyISt4pairINS2_15slot_meta_groupENS_8optionalIiEEENS1_5slot1IvRKNS0_IKN3pcl10PointCloudINSD_9PointXYZIEEEEENS_8functionIFvSK_EEEEENS1_5mutexEEEEEEEED2Ev@Base 1.6
 (optional=templinst)_ZN5boost10shared_ptrINS_8signals26detail12grouped_listIiSt4lessIiENS0_INS2_15connection_bodyISt4pairINS2_15slot_meta_groupENS_8optionalIiEEENS1_5slot1IvRKNS0_IN14openni_wrapper10DepthImageEEENS_8functionIFvSH_EEEEENS1_5mutexEEEEEEEED1Ev@Base 1.6
 (optional=templinst)_ZN5boost10shared_ptrINS_8signals26detail12grouped_listIiSt4lessIiENS0_INS2_15connection_bodyISt4pairINS2_15slot_meta_groupENS_8optionalIiEEENS1_5slot1IvRKNS0_IN14openni_wrapper10DepthImageEEENS_8functionIFvSH_EEEEENS1_5mutexEEEEEEEED2Ev@Base 1.6
 (optional=templinst)_ZN5boost10shared_ptrINS_8signals26detail12grouped_listIiSt4lessIiENS0_INS2_15connection_bodyISt4pairINS2_15slot_meta_groupENS_8optionalIiEEENS1_5slot1IvRKNS0_IN14openni_wrapper5ImageEEENS_8functionIFvSH_EEEEENS1_5mutexEEEEEEEED1Ev@Base 1.6
 (optional=templinst)_ZN5boost10shared_ptrINS_8signals26detail12grouped_listIiSt4lessIiENS0_INS2_15connection_bodyISt4pairINS2_15slot_meta_groupENS_8optionalIiEEENS1_5slot1IvRKNS0_IN14openni_wrapper5ImageEEENS_8functionIFvSH_EEEEENS1_5mutexEEEEEEEED2Ev@Base 1.6
 (optional=templinst)_ZN5boost10shared_ptrINS_8signals26detail12grouped_listIiSt4lessIiENS0_INS2_15connection_bodyISt4pairINS2_15slot_meta_groupENS_8optionalIiEEENS1_5slot1IvRKNS0_IN14openni_wrapper7IRImageEEENS_8functionIFvSH_EEEEENS1_5mutexEEEEEEEED1Ev@Base 1.6
 (optional=templinst)_ZN5boost10shared_ptrINS_8signals26detail12grouped_listIiSt4lessIiENS0_INS2_15connection_bodyISt4pairINS2_15slot_meta_groupENS_8optionalIiEEENS1_5slot1IvRKNS0_IN14openni_wrapper7IRImageEEENS_8functionIFvSH_EEEEENS1_5mutexEEEEEEEED2Ev@Base 1.6
 (optional=templinst)_ZN5boost10shared_ptrINS_8signals26detail12grouped_listIiSt4lessIiENS0_INS2_15connection_bodyISt4pairINS2_15slot_meta_groupENS_8optionalIiEEENS1_5slot3IvRKNS0_IN14openni_wrapper5ImageEEERKNS0_INSD_10DepthImageEEEfNS_8functionIFvSH_SL_fEEEEENS1_5mutexEEEEEEEED1Ev@Base 1.6
 (optional=templinst)_ZN5boost10shared_ptrINS_8signals26detail12grouped_listIiSt4lessIiENS0_INS2_15connection_bodyISt4pairINS2_15slot_meta_groupENS_8optionalIiEEENS1_5slot3IvRKNS0_IN14openni_wrapper5ImageEEERKNS0_INSD_10DepthImageEEEfNS_8functionIFvSH_SL_fEEEEENS1_5mutexEEEEEEEED2Ev@Base 1.6
 (optional=templinst)_ZN5boost10shared_ptrINS_8signals26detail12grouped_listIiSt4lessIiENS0_INS2_15connection_bodyISt4pairINS2_15slot_meta_groupENS_8optionalIiEEENS1_5slot3IvRKNS0_IN14openni_wrapper7IRImageEEERKNS0_INSD_10DepthImageEEEfNS_8functionIFvSH_SL_fEEEEENS1_5mutexEEEEEEEED1Ev@Base 1.6
 (optional=templinst)_ZN5boost10shared_ptrINS_8signals26detail12grouped_listIiSt4lessIiENS0_INS2_15connection_bodyISt4pairINS2_15slot_meta_groupENS_8optionalIiEEENS1_5slot3IvRKNS0_IN14openni_wrapper7IRImageEEERKNS0_INSD_10DepthImageEEEfNS_8functionIFvSH_SL_fEEEEENS1_5mutexEEEEEEEED2Ev@Base 1.6
 (optional=templinst)_ZN5boost10shared_ptrINS_8signals26detail12signal1_implIvRKNS0_IKN3pcl10PointCloudIN5Eigen6MatrixIfLin1ELin1ELi0ELin1ELin1EEEEEEENS1_19optional_last_valueIvEEiSt4lessIiENS_8functionIFvSD_EEENSI_IFvRKNS1_10connectionESD_EEENS1_5mutexEE16invocation_stateEE5resetISS_EEvPT_@Base 1.6
 (optional=templinst)_ZN5boost10shared_ptrINS_8signals26detail12signal1_implIvRKNS0_IKN3pcl10PointCloudIN5Eigen6MatrixIfLin1ELin1ELi0ELin1ELin1EEEEEEENS1_19optional_last_valueIvEEiSt4lessIiENS_8functionIFvSD_EEENSI_IFvRKNS1_10connectionESD_EEENS1_5mutexEE16invocation_stateEED1Ev@Base 1.6
 (optional=templinst)_ZN5boost10shared_ptrINS_8signals26detail12signal1_implIvRKNS0_IKN3pcl10PointCloudIN5Eigen6MatrixIfLin1ELin1ELi0ELin1ELin1EEEEEEENS1_19optional_last_valueIvEEiSt4lessIiENS_8functionIFvSD_EEENSI_IFvRKNS1_10connectionESD_EEENS1_5mutexEE16invocation_stateEED2Ev@Base 1.6
 (optional=templinst)_ZN5boost10shared_ptrINS_8signals26detail12signal1_implIvRKNS0_IKN3pcl10PointCloudIN5Eigen6MatrixIfLin1ELin1ELi0ELin1ELin1EEEEEEENS1_19optional_last_valueIvEEiSt4lessIiENS_8functionIFvSD_EEENSI_IFvRKNS1_10connectionESD_EEENS1_5mutexEE16invocation_stateEEaSERKST_@Base 1.6
 (optional=templinst)_ZN5boost10shared_ptrINS_8signals26detail12signal1_implIvRKNS0_IKN3pcl10PointCloudIN5Eigen6MatrixIfLin1ELin1ELi0ELin1ELin1EEEEEEENS1_19optional_last_valueIvEEiSt4lessIiENS_8functionIFvSD_EEENSI_IFvRKNS1_10connectionESD_EEENS1_5mutexEEEED1Ev@Base 1.6
 (optional=templinst)_ZN5boost10shared_ptrINS_8signals26detail12signal1_implIvRKNS0_IKN3pcl10PointCloudIN5Eigen6MatrixIfLin1ELin1ELi0ELin1ELin1EEEEEEENS1_19optional_last_valueIvEEiSt4lessIiENS_8functionIFvSD_EEENSI_IFvRKNS1_10connectionESD_EEENS1_5mutexEEEED2Ev@Base 1.6
 (optional=templinst)_ZN5boost10shared_ptrINS_8signals26detail12signal1_implIvRKNS0_IKN3pcl10PointCloudINS4_11PointXYZRGBEEEEENS1_19optional_last_valueIvEEiSt4lessIiENS_8functionIFvSB_EEENSG_IFvRKNS1_10connectionESB_EEENS1_5mutexEE16invocation_stateEE5resetISQ_EEvPT_@Base 1.6
 (optional=templinst)_ZN5boost10shared_ptrINS_8signals26detail12signal1_implIvRKNS0_IKN3pcl10PointCloudINS4_11PointXYZRGBEEEEENS1_19optional_last_valueIvEEiSt4lessIiENS_8functionIFvSB_EEENSG_IFvRKNS1_10connectionESB_EEENS1_5mutexEE16invocation_stateEED1Ev@Base 1.6
 (optional=templinst)_ZN5boost10shared_ptrINS_8signals26detail12signal1_implIvRKNS0_IKN3pcl10PointCloudINS4_11PointXYZRGBEEEEENS1_19optional_last_valueIvEEiSt4lessIiENS_8functionIFvSB_EEENSG_IFvRKNS1_10connectionESB_EEENS1_5mutexEE16invocation_stateEED2Ev@Base 1.6
 (optional=templinst)_ZN5boost10shared_ptrINS_8signals26detail12signal1_implIvRKNS0_IKN3pcl10PointCloudINS4_11PointXYZRGBEEEEENS1_19optional_last_valueIvEEiSt4lessIiENS_8functionIFvSB_EEENSG_IFvRKNS1_10connectionESB_EEENS1_5mutexEE16invocation_stateEEaSERKSR_@Base 1.6
 (optional=templinst)_ZN5boost10shared_ptrINS_8signals26detail12signal1_implIvRKNS0_IKN3pcl10PointCloudINS4_11PointXYZRGBEEEEENS1_19optional_last_valueIvEEiSt4lessIiENS_8functionIFvSB_EEENSG_IFvRKNS1_10connectionESB_EEENS1_5mutexEEEED1Ev@Base 1.6
 (optional=templinst)_ZN5boost10shared_ptrINS_8signals26detail12signal1_implIvRKNS0_IKN3pcl10PointCloudINS4_11PointXYZRGBEEEEENS1_19optional_last_valueIvEEiSt4lessIiENS_8functionIFvSB_EEENSG_IFvRKNS1_10connectionESB_EEENS1_5mutexEEEED2Ev@Base 1.6
 (optional=templinst)_ZN5boost10shared_ptrINS_8signals26detail12signal1_implIvRKNS0_IKN3pcl10PointCloudINS4_12PointXYZRGBAEEEEENS1_19optional_last_valueIvEEiSt4lessIiENS_8functionIFvSB_EEENSG_IFvRKNS1_10connectionESB_EEENS1_5mutexEE16invocation_stateEE5resetISQ_EEvPT_@Base 1.6
 (optional=templinst)_ZN5boost10shared_ptrINS_8signals26detail12signal1_implIvRKNS0_IKN3pcl10PointCloudINS4_12PointXYZRGBAEEEEENS1_19optional_last_valueIvEEiSt4lessIiENS_8functionIFvSB_EEENSG_IFvRKNS1_10connectionESB_EEENS1_5mutexEE16invocation_stateEED1Ev@Base 1.6
 (optional=templinst)_ZN5boost10shared_ptrINS_8signals26detail12signal1_implIvRKNS0_IKN3pcl10PointCloudINS4_12PointXYZRGBAEEEEENS1_19optional_last_valueIvEEiSt4lessIiENS_8functionIFvSB_EEENSG_IFvRKNS1_10connectionESB_EEENS1_5mutexEE16invocation_stateEED2Ev@Base 1.6
 (optional=templinst)_ZN5boost10shared_ptrINS_8signals26detail12signal1_implIvRKNS0_IKN3pcl10PointCloudINS4_12PointXYZRGBAEEEEENS1_19optional_last_valueIvEEiSt4lessIiENS_8functionIFvSB_EEENSG_IFvRKNS1_10connectionESB_EEENS1_5mutexEE16invocation_stateEEaSERKSR_@Base 1.6
 (optional=templinst)_ZN5boost10shared_ptrINS_8signals26detail12signal1_implIvRKNS0_IKN3pcl10PointCloudINS4_12PointXYZRGBAEEEEENS1_19optional_last_valueIvEEiSt4lessIiENS_8functionIFvSB_EEENSG_IFvRKNS1_10connectionESB_EEENS1_5mutexEEEED1Ev@Base 1.6
 (optional=templinst)_ZN5boost10shared_ptrINS_8signals26detail12signal1_implIvRKNS0_IKN3pcl10PointCloudINS4_12PointXYZRGBAEEEEENS1_19optional_last_valueIvEEiSt4lessIiENS_8functionIFvSB_EEENSG_IFvRKNS1_10connectionESB_EEENS1_5mutexEEEED2Ev@Base 1.6
 (optional=templinst)_ZN5boost10shared_ptrINS_8signals26detail12signal1_implIvRKNS0_IKN3pcl10PointCloudINS4_8PointXYZEEEEENS1_19optional_last_valueIvEEiSt4lessIiENS_8functionIFvSB_EEENSG_IFvRKNS1_10connectionESB_EEENS1_5mutexEE16invocation_stateEE5resetISQ_EEvPT_@Base 1.6
 (optional=templinst)_ZN5boost10shared_ptrINS_8signals26detail12signal1_implIvRKNS0_IKN3pcl10PointCloudINS4_8PointXYZEEEEENS1_19optional_last_valueIvEEiSt4lessIiENS_8functionIFvSB_EEENSG_IFvRKNS1_10connectionESB_EEENS1_5mutexEE16invocation_stateEED1Ev@Base 1.6
 (optional=templinst)_ZN5boost10shared_ptrINS_8signals26detail12signal1_implIvRKNS0_IKN3pcl10PointCloudINS4_8PointXYZEEEEENS1_19optional_last_valueIvEEiSt4lessIiENS_8functionIFvSB_EEENSG_IFvRKNS1_10connectionESB_EEENS1_5mutexEE16invocation_stateEED2Ev@Base 1.6
 (optional=templinst)_ZN5boost10shared_ptrINS_8signals26detail12signal1_implIvRKNS0_IKN3pcl10PointCloudINS4_8PointXYZEEEEENS1_19optional_last_valueIvEEiSt4lessIiENS_8functionIFvSB_EEENSG_IFvRKNS1_10connectionESB_EEENS1_5mutexEE16invocation_stateEEaSERKSR_@Base 1.6
 (optional=templinst)_ZN5boost10shared_ptrINS_8signals26detail12signal1_implIvRKNS0_IKN3pcl10PointCloudINS4_8PointXYZEEEEENS1_19optional_last_valueIvEEiSt4lessIiENS_8functionIFvSB_EEENSG_IFvRKNS1_10connectionESB_EEENS1_5mutexEEEED1Ev@Base 1.6
 (optional=templinst)_ZN5boost10shared_ptrINS_8signals26detail12signal1_implIvRKNS0_IKN3pcl10PointCloudINS4_8PointXYZEEEEENS1_19optional_last_valueIvEEiSt4lessIiENS_8functionIFvSB_EEENSG_IFvRKNS1_10connectionESB_EEENS1_5mutexEEEED2Ev@Base 1.6
 (optional=templinst)_ZN5boost10shared_ptrINS_8signals26detail12signal1_implIvRKNS0_IKN3pcl10PointCloudINS4_9PointXYZIEEEEENS1_19optional_last_valueIvEEiSt4lessIiENS_8functionIFvSB_EEENSG_IFvRKNS1_10connectionESB_EEENS1_5mutexEE16invocation_stateEE5resetISQ_EEvPT_@Base 1.6
 (optional=templinst)_ZN5boost10shared_ptrINS_8signals26detail12signal1_implIvRKNS0_IKN3pcl10PointCloudINS4_9PointXYZIEEEEENS1_19optional_last_valueIvEEiSt4lessIiENS_8functionIFvSB_EEENSG_IFvRKNS1_10connectionESB_EEENS1_5mutexEE16invocation_stateEED1Ev@Base 1.6
 (optional=templinst)_ZN5boost10shared_ptrINS_8signals26detail12signal1_implIvRKNS0_IKN3pcl10PointCloudINS4_9PointXYZIEEEEENS1_19optional_last_valueIvEEiSt4lessIiENS_8functionIFvSB_EEENSG_IFvRKNS1_10connectionESB_EEENS1_5mutexEE16invocation_stateEED2Ev@Base 1.6
 (optional=templinst)_ZN5boost10shared_ptrINS_8signals26detail12signal1_implIvRKNS0_IKN3pcl10PointCloudINS4_9PointXYZIEEEEENS1_19optional_last_valueIvEEiSt4lessIiENS_8functionIFvSB_EEENSG_IFvRKNS1_10connectionESB_EEENS1_5mutexEE16invocation_stateEEaSERKSR_@Base 1.6
 (optional=templinst)_ZN5boost10shared_ptrINS_8signals26detail12signal1_implIvRKNS0_IKN3pcl10PointCloudINS4_9PointXYZIEEEEENS1_19optional_last_valueIvEEiSt4lessIiENS_8functionIFvSB_EEENSG_IFvRKNS1_10connectionESB_EEENS1_5mutexEEEED1Ev@Base 1.6
 (optional=templinst)_ZN5boost10shared_ptrINS_8signals26detail12signal1_implIvRKNS0_IKN3pcl10PointCloudINS4_9PointXYZIEEEEENS1_19optional_last_valueIvEEiSt4lessIiENS_8functionIFvSB_EEENSG_IFvRKNS1_10connectionESB_EEENS1_5mutexEEEED2Ev@Base 1.6
 (optional=templinst)_ZN5boost10shared_ptrINS_8signals26detail12signal1_implIvRKNS0_IN14openni_wrapper10DepthImageEEENS1_19optional_last_valueIvEEiSt4lessIiENS_8functionIFvS8_EEENSD_IFvRKNS1_10connectionES8_EEENS1_5mutexEE16invocation_stateEE5resetISN_EEvPT_@Base 1.6
 (optional=templinst)_ZN5boost10shared_ptrINS_8signals26detail12signal1_implIvRKNS0_IN14openni_wrapper10DepthImageEEENS1_19optional_last_valueIvEEiSt4lessIiENS_8functionIFvS8_EEENSD_IFvRKNS1_10connectionES8_EEENS1_5mutexEE16invocation_stateEED1Ev@Base 1.6
 (optional=templinst)_ZN5boost10shared_ptrINS_8signals26detail12signal1_implIvRKNS0_IN14openni_wrapper10DepthImageEEENS1_19optional_last_valueIvEEiSt4lessIiENS_8functionIFvS8_EEENSD_IFvRKNS1_10connectionES8_EEENS1_5mutexEE16invocation_stateEED2Ev@Base 1.6
 (optional=templinst)_ZN5boost10shared_ptrINS_8signals26detail12signal1_implIvRKNS0_IN14openni_wrapper10DepthImageEEENS1_19optional_last_valueIvEEiSt4lessIiENS_8functionIFvS8_EEENSD_IFvRKNS1_10connectionES8_EEENS1_5mutexEE16invocation_stateEEaSERKSO_@Base 1.6
 (optional=templinst)_ZN5boost10shared_ptrINS_8signals26detail12signal1_implIvRKNS0_IN14openni_wrapper10DepthImageEEENS1_19optional_last_valueIvEEiSt4lessIiENS_8functionIFvS8_EEENSD_IFvRKNS1_10connectionES8_EEENS1_5mutexEEEED1Ev@Base 1.6
 (optional=templinst)_ZN5boost10shared_ptrINS_8signals26detail12signal1_implIvRKNS0_IN14openni_wrapper10DepthImageEEENS1_19optional_last_valueIvEEiSt4lessIiENS_8functionIFvS8_EEENSD_IFvRKNS1_10connectionES8_EEENS1_5mutexEEEED2Ev@Base 1.6
 (optional=templinst)_ZN5boost10shared_ptrINS_8signals26detail12signal1_implIvRKNS0_IN14openni_wrapper5ImageEEENS1_19optional_last_valueIvEEiSt4lessIiENS_8functionIFvS8_EEENSD_IFvRKNS1_10connectionES8_EEENS1_5mutexEE16invocation_stateEE5resetISN_EEvPT_@Base 1.6
 (optional=templinst)_ZN5boost10shared_ptrINS_8signals26detail12signal1_implIvRKNS0_IN14openni_wrapper5ImageEEENS1_19optional_last_valueIvEEiSt4lessIiENS_8functionIFvS8_EEENSD_IFvRKNS1_10connectionES8_EEENS1_5mutexEE16invocation_stateEED1Ev@Base 1.6
 (optional=templinst)_ZN5boost10shared_ptrINS_8signals26detail12signal1_implIvRKNS0_IN14openni_wrapper5ImageEEENS1_19optional_last_valueIvEEiSt4lessIiENS_8functionIFvS8_EEENSD_IFvRKNS1_10connectionES8_EEENS1_5mutexEE16invocation_stateEED2Ev@Base 1.6
 (optional=templinst)_ZN5boost10shared_ptrINS_8signals26detail12signal1_implIvRKNS0_IN14openni_wrapper5ImageEEENS1_19optional_last_valueIvEEiSt4lessIiENS_8functionIFvS8_EEENSD_IFvRKNS1_10connectionES8_EEENS1_5mutexEE16invocation_stateEEaSERKSO_@Base 1.6
 (optional=templinst)_ZN5boost10shared_ptrINS_8signals26detail12signal1_implIvRKNS0_IN14openni_wrapper5ImageEEENS1_19optional_last_valueIvEEiSt4lessIiENS_8functionIFvS8_EEENSD_IFvRKNS1_10connectionES8_EEENS1_5mutexEEEED1Ev@Base 1.6
 (optional=templinst)_ZN5boost10shared_ptrINS_8signals26detail12signal1_implIvRKNS0_IN14openni_wrapper5ImageEEENS1_19optional_last_valueIvEEiSt4lessIiENS_8functionIFvS8_EEENSD_IFvRKNS1_10connectionES8_EEENS1_5mutexEEEED2Ev@Base 1.6
 (optional=templinst)_ZN5boost10shared_ptrINS_8signals26detail12signal1_implIvRKNS0_IN14openni_wrapper7IRImageEEENS1_19optional_last_valueIvEEiSt4lessIiENS_8functionIFvS8_EEENSD_IFvRKNS1_10connectionES8_EEENS1_5mutexEE16invocation_stateEE5resetISN_EEvPT_@Base 1.6
 (optional=templinst)_ZN5boost10shared_ptrINS_8signals26detail12signal1_implIvRKNS0_IN14openni_wrapper7IRImageEEENS1_19optional_last_valueIvEEiSt4lessIiENS_8functionIFvS8_EEENSD_IFvRKNS1_10connectionES8_EEENS1_5mutexEE16invocation_stateEED1Ev@Base 1.6
 (optional=templinst)_ZN5boost10shared_ptrINS_8signals26detail12signal1_implIvRKNS0_IN14openni_wrapper7IRImageEEENS1_19optional_last_valueIvEEiSt4lessIiENS_8functionIFvS8_EEENSD_IFvRKNS1_10connectionES8_EEENS1_5mutexEE16invocation_stateEED2Ev@Base 1.6
 (optional=templinst)_ZN5boost10shared_ptrINS_8signals26detail12signal1_implIvRKNS0_IN14openni_wrapper7IRImageEEENS1_19optional_last_valueIvEEiSt4lessIiENS_8functionIFvS8_EEENSD_IFvRKNS1_10connectionES8_EEENS1_5mutexEE16invocation_stateEEaSERKSO_@Base 1.6
 (optional=templinst)_ZN5boost10shared_ptrINS_8signals26detail12signal1_implIvRKNS0_IN14openni_wrapper7IRImageEEENS1_19optional_last_valueIvEEiSt4lessIiENS_8functionIFvS8_EEENSD_IFvRKNS1_10connectionES8_EEENS1_5mutexEEEED1Ev@Base 1.6
 (optional=templinst)_ZN5boost10shared_ptrINS_8signals26detail12signal1_implIvRKNS0_IN14openni_wrapper7IRImageEEENS1_19optional_last_valueIvEEiSt4lessIiENS_8functionIFvS8_EEENSD_IFvRKNS1_10connectionES8_EEENS1_5mutexEEEED2Ev@Base 1.6
 (optional=templinst)_ZN5boost10shared_ptrINS_8signals26detail12signal3_implIvRKNS0_IN14openni_wrapper5ImageEEERKNS0_INS4_10DepthImageEEEfNS1_19optional_last_valueIvEEiSt4lessIiENS_8functionIFvS8_SC_fEEENSH_IFvRKNS1_10connectionES8_SC_fEEENS1_5mutexEE16invocation_stateEE5resetISR_EEvPT_@Base 1.6
 (optional=templinst)_ZN5boost10shared_ptrINS_8signals26detail12signal3_implIvRKNS0_IN14openni_wrapper5ImageEEERKNS0_INS4_10DepthImageEEEfNS1_19optional_last_valueIvEEiSt4lessIiENS_8functionIFvS8_SC_fEEENSH_IFvRKNS1_10connectionES8_SC_fEEENS1_5mutexEE16invocation_stateEED1Ev@Base 1.6
 (optional=templinst)_ZN5boost10shared_ptrINS_8signals26detail12signal3_implIvRKNS0_IN14openni_wrapper5ImageEEERKNS0_INS4_10DepthImageEEEfNS1_19optional_last_valueIvEEiSt4lessIiENS_8functionIFvS8_SC_fEEENSH_IFvRKNS1_10connectionES8_SC_fEEENS1_5mutexEE16invocation_stateEED2Ev@Base 1.6
 (optional=templinst)_ZN5boost10shared_ptrINS_8signals26detail12signal3_implIvRKNS0_IN14openni_wrapper5ImageEEERKNS0_INS4_10DepthImageEEEfNS1_19optional_last_valueIvEEiSt4lessIiENS_8functionIFvS8_SC_fEEENSH_IFvRKNS1_10connectionES8_SC_fEEENS1_5mutexEE16invocation_stateEEaSERKSS_@Base 1.6
 (optional=templinst)_ZN5boost10shared_ptrINS_8signals26detail12signal3_implIvRKNS0_IN14openni_wrapper5ImageEEERKNS0_INS4_10DepthImageEEEfNS1_19optional_last_valueIvEEiSt4lessIiENS_8functionIFvS8_SC_fEEENSH_IFvRKNS1_10connectionES8_SC_fEEENS1_5mutexEEEED1Ev@Base 1.6
 (optional=templinst)_ZN5boost10shared_ptrINS_8signals26detail12signal3_implIvRKNS0_IN14openni_wrapper5ImageEEERKNS0_INS4_10DepthImageEEEfNS1_19optional_last_valueIvEEiSt4lessIiENS_8functionIFvS8_SC_fEEENSH_IFvRKNS1_10connectionES8_SC_fEEENS1_5mutexEEEED2Ev@Base 1.6
 (optional=templinst)_ZN5boost10shared_ptrINS_8signals26detail12signal3_implIvRKNS0_IN14openni_wrapper7IRImageEEERKNS0_INS4_10DepthImageEEEfNS1_19optional_last_valueIvEEiSt4lessIiENS_8functionIFvS8_SC_fEEENSH_IFvRKNS1_10connectionES8_SC_fEEENS1_5mutexEE16invocation_stateEE5resetISR_EEvPT_@Base 1.6
 (optional=templinst)_ZN5boost10shared_ptrINS_8signals26detail12signal3_implIvRKNS0_IN14openni_wrapper7IRImageEEERKNS0_INS4_10DepthImageEEEfNS1_19optional_last_valueIvEEiSt4lessIiENS_8functionIFvS8_SC_fEEENSH_IFvRKNS1_10connectionES8_SC_fEEENS1_5mutexEE16invocation_stateEED1Ev@Base 1.6
 (optional=templinst)_ZN5boost10shared_ptrINS_8signals26detail12signal3_implIvRKNS0_IN14openni_wrapper7IRImageEEERKNS0_INS4_10DepthImageEEEfNS1_19optional_last_valueIvEEiSt4lessIiENS_8functionIFvS8_SC_fEEENSH_IFvRKNS1_10connectionES8_SC_fEEENS1_5mutexEE16invocation_stateEED2Ev@Base 1.6
 (optional=templinst)_ZN5boost10shared_ptrINS_8signals26detail12signal3_implIvRKNS0_IN14openni_wrapper7IRImageEEERKNS0_INS4_10DepthImageEEEfNS1_19optional_last_valueIvEEiSt4lessIiENS_8functionIFvS8_SC_fEEENSH_IFvRKNS1_10connectionES8_SC_fEEENS1_5mutexEE16invocation_stateEEaSERKSS_@Base 1.6
 (optional=templinst)_ZN5boost10shared_ptrINS_8signals26detail12signal3_implIvRKNS0_IN14openni_wrapper7IRImageEEERKNS0_INS4_10DepthImageEEEfNS1_19optional_last_valueIvEEiSt4lessIiENS_8functionIFvS8_SC_fEEENSH_IFvRKNS1_10connectionES8_SC_fEEENS1_5mutexEEEED1Ev@Base 1.6
 (optional=templinst)_ZN5boost10shared_ptrINS_8signals26detail12signal3_implIvRKNS0_IN14openni_wrapper7IRImageEEERKNS0_INS4_10DepthImageEEEfNS1_19optional_last_valueIvEEiSt4lessIiENS_8functionIFvS8_SC_fEEENSH_IFvRKNS1_10connectionES8_SC_fEEENS1_5mutexEEEED2Ev@Base 1.6
 (optional=templinst)_ZN5boost10shared_ptrINS_8signals26detail20connection_body_baseEED1Ev@Base 1.6
 (optional=templinst)_ZN5boost10shared_ptrINS_8signals26detail20connection_body_baseEED2Ev@Base 1.6
 (optional=templinst)_ZN5boost10shared_ptrIvED1Ev@Base 1.6
 (optional=templinst)_ZN5boost10shared_ptrIvED2Ev@Base 1.6
 _ZN5boost11filesystem34pathD1Ev@Base 1.6
 _ZN5boost11filesystem34pathD2Ev@Base 1.6
 _ZN5boost11filesystem36existsERKNS0_4pathE@Base 1.6
 _ZN5boost11filesystem39extensionERKNS0_4pathE@Base 1.6
 (optional=templinst)_ZN5boost11multi_index6detail21obj_scope_guard_impl2INS_8signals26detail11auto_bufferINS_7variantINS_10shared_ptrIvEENS4_23foreign_void_shared_ptrENS_6detail7variant5void_ESC_SC_SC_SC_SC_SC_SC_SC_SC_SC_SC_SC_SC_SC_SC_SC_SC_EENS4_15store_n_objectsILj10EEENS4_19default_grow_policyESaISD_EEEMSI_FvPSD_mESJ_mE7executeEv@Base 1.6
 (optional=templinst)_ZN5boost11multi_index6detail21scope_guard_impl_base12safe_executeINS1_21obj_scope_guard_impl2INS_8signals26detail11auto_bufferINS_7variantINS_10shared_ptrIvEENS6_23foreign_void_shared_ptrENS_6detail7variant5void_ESE_SE_SE_SE_SE_SE_SE_SE_SE_SE_SE_SE_SE_SE_SE_SE_SE_EENS6_15store_n_objectsILj10EEENS6_19default_grow_policyESaISF_EEEMSK_FvPSF_mESL_mEEEEvRT_@Base 1.6
 (optional=templinst)_ZN5boost11this_thread5sleepINS_10posix_time7secondsEEEvRKT_@Base 1.6
 (optional=templinst)_ZN5boost11unique_lockINS_5mutexEE4lockEv@Base 1.6
 (optional=templinst)_ZN5boost11unique_lockINS_5mutexEE6unlockEv@Base 1.6
 (optional=templinst)_ZN5boost11unique_lockINS_5mutexEED1Ev@Base 1.6
 (optional=templinst)_ZN5boost11unique_lockINS_5mutexEED2Ev@Base 1.6
 (optional=templinst)_ZN5boost12shared_arrayIhE5resetEPh@Base 1.6
 (optional=templinst)_ZN5boost12shared_arrayIhEC1EPh@Base 1.6
 (optional=templinst)_ZN5boost12shared_arrayIhEC2EPh@Base 1.6
 (optional=templinst)_ZN5boost12shared_arrayIhED1Ev@Base 1.6
 (optional=templinst)_ZN5boost12shared_arrayIhED2Ev@Base 1.6
 (optional=templinst)_ZN5boost12shared_arrayItE5resetEPt@Base 1.6
 (optional=templinst)_ZN5boost12shared_arrayItEC1EPt@Base 1.6
 (optional=templinst)_ZN5boost12shared_arrayItEC2EPt@Base 1.6
 (optional=templinst)_ZN5boost12shared_arrayItED1Ev@Base 1.6
 (optional=templinst)_ZN5boost12shared_arrayItED2Ev@Base 1.6
 _ZN5boost13exception_ptrD1Ev@Base 1.6
 _ZN5boost13exception_ptrD2Ev@Base 1.6
 (optional=templinst)_ZN5boost14checked_deleteIN2xn8NodeInfoEEEvPT_@Base 1.6
 (optional=templinst)_ZN5boost14checked_deleteINS_8signals26detail12grouped_listIiSt4lessIiENS_10shared_ptrINS2_15connection_bodyISt4pairINS2_15slot_meta_groupENS_8optionalIiEEENS1_5slot1IvRKNS6_IKN3pcl10PointCloudIN5Eigen6MatrixIfLin1ELin1ELi0ELin1ELin1EEEEEEENS_8functionIFvSN_EEEEENS1_5mutexEEEEEEEEEvPT_@Base 1.6
 (optional=templinst)_ZN5boost14checked_deleteINS_8signals26detail12grouped_listIiSt4lessIiENS_10shared_ptrINS2_15connection_bodyISt4pairINS2_15slot_meta_groupENS_8optionalIiEEENS1_5slot1IvRKNS6_IKN3pcl10PointCloudINSE_11PointXYZRGBEEEEENS_8functionIFvSL_EEEEENS1_5mutexEEEEEEEEEvPT_@Base 1.6
 (optional=templinst)_ZN5boost14checked_deleteINS_8signals26detail12grouped_listIiSt4lessIiENS_10shared_ptrINS2_15connection_bodyISt4pairINS2_15slot_meta_groupENS_8optionalIiEEENS1_5slot1IvRKNS6_IKN3pcl10PointCloudINSE_12PointXYZRGBAEEEEENS_8functionIFvSL_EEEEENS1_5mutexEEEEEEEEEvPT_@Base 1.6
 (optional=templinst)_ZN5boost14checked_deleteINS_8signals26detail12grouped_listIiSt4lessIiENS_10shared_ptrINS2_15connection_bodyISt4pairINS2_15slot_meta_groupENS_8optionalIiEEENS1_5slot1IvRKNS6_IKN3pcl10PointCloudINSE_8PointXYZEEEEENS_8functionIFvSL_EEEEENS1_5mutexEEEEEEEEEvPT_@Base 1.6
 (optional=templinst)_ZN5boost14checked_deleteINS_8signals26detail12grouped_listIiSt4lessIiENS_10shared_ptrINS2_15connection_bodyISt4pairINS2_15slot_meta_groupENS_8optionalIiEEENS1_5slot1IvRKNS6_IKN3pcl10PointCloudINSE_9PointXYZIEEEEENS_8functionIFvSL_EEEEENS1_5mutexEEEEEEEEEvPT_@Base 1.6
 (optional=templinst)_ZN5boost14checked_deleteINS_8signals26detail12grouped_listIiSt4lessIiENS_10shared_ptrINS2_15connection_bodyISt4pairINS2_15slot_meta_groupENS_8optionalIiEEENS1_5slot1IvRKNS6_IN14openni_wrapper10DepthImageEEENS_8functionIFvSI_EEEEENS1_5mutexEEEEEEEEEvPT_@Base 1.6
 (optional=templinst)_ZN5boost14checked_deleteINS_8signals26detail12grouped_listIiSt4lessIiENS_10shared_ptrINS2_15connection_bodyISt4pairINS2_15slot_meta_groupENS_8optionalIiEEENS1_5slot1IvRKNS6_IN14openni_wrapper5ImageEEENS_8functionIFvSI_EEEEENS1_5mutexEEEEEEEEEvPT_@Base 1.6
 (optional=templinst)_ZN5boost14checked_deleteINS_8signals26detail12grouped_listIiSt4lessIiENS_10shared_ptrINS2_15connection_bodyISt4pairINS2_15slot_meta_groupENS_8optionalIiEEENS1_5slot1IvRKNS6_IN14openni_wrapper7IRImageEEENS_8functionIFvSI_EEEEENS1_5mutexEEEEEEEEEvPT_@Base 1.6
 (optional=templinst)_ZN5boost14checked_deleteINS_8signals26detail12grouped_listIiSt4lessIiENS_10shared_ptrINS2_15connection_bodyISt4pairINS2_15slot_meta_groupENS_8optionalIiEEENS1_5slot3IvRKNS6_IN14openni_wrapper5ImageEEERKNS6_INSE_10DepthImageEEEfNS_8functionIFvSI_SM_fEEEEENS1_5mutexEEEEEEEEEvPT_@Base 1.6
 (optional=templinst)_ZN5boost14checked_deleteINS_8signals26detail12grouped_listIiSt4lessIiENS_10shared_ptrINS2_15connection_bodyISt4pairINS2_15slot_meta_groupENS_8optionalIiEEENS1_5slot3IvRKNS6_IN14openni_wrapper7IRImageEEERKNS6_INSE_10DepthImageEEEfNS_8functionIFvSI_SM_fEEEEENS1_5mutexEEEEEEEEEvPT_@Base 1.6
 (optional=templinst)_ZN5boost14checked_deleteINS_8signals26detail12signal1_implIvRKNS_10shared_ptrIKN3pcl10PointCloudIN5Eigen6MatrixIfLin1ELin1ELi0ELin1ELin1EEEEEEENS1_19optional_last_valueIvEEiSt4lessIiENS_8functionIFvSE_EEENSJ_IFvRKNS1_10connectionESE_EEENS1_5mutexEE16invocation_stateEEEvPT_@Base 1.6
 (optional=templinst)_ZN5boost14checked_deleteINS_8signals26detail12signal1_implIvRKNS_10shared_ptrIKN3pcl10PointCloudIN5Eigen6MatrixIfLin1ELin1ELi0ELin1ELin1EEEEEEENS1_19optional_last_valueIvEEiSt4lessIiENS_8functionIFvSE_EEENSJ_IFvRKNS1_10connectionESE_EEENS1_5mutexEEEEEvPT_@Base 1.6
 (optional=templinst)_ZN5boost14checked_deleteINS_8signals26detail12signal1_implIvRKNS_10shared_ptrIKN3pcl10PointCloudINS5_11PointXYZRGBEEEEENS1_19optional_last_valueIvEEiSt4lessIiENS_8functionIFvSC_EEENSH_IFvRKNS1_10connectionESC_EEENS1_5mutexEE16invocation_stateEEEvPT_@Base 1.6
 (optional=templinst)_ZN5boost14checked_deleteINS_8signals26detail12signal1_implIvRKNS_10shared_ptrIKN3pcl10PointCloudINS5_11PointXYZRGBEEEEENS1_19optional_last_valueIvEEiSt4lessIiENS_8functionIFvSC_EEENSH_IFvRKNS1_10connectionESC_EEENS1_5mutexEEEEEvPT_@Base 1.6
 (optional=templinst)_ZN5boost14checked_deleteINS_8signals26detail12signal1_implIvRKNS_10shared_ptrIKN3pcl10PointCloudINS5_12PointXYZRGBAEEEEENS1_19optional_last_valueIvEEiSt4lessIiENS_8functionIFvSC_EEENSH_IFvRKNS1_10connectionESC_EEENS1_5mutexEE16invocation_stateEEEvPT_@Base 1.6
 (optional=templinst)_ZN5boost14checked_deleteINS_8signals26detail12signal1_implIvRKNS_10shared_ptrIKN3pcl10PointCloudINS5_12PointXYZRGBAEEEEENS1_19optional_last_valueIvEEiSt4lessIiENS_8functionIFvSC_EEENSH_IFvRKNS1_10connectionESC_EEENS1_5mutexEEEEEvPT_@Base 1.6
 (optional=templinst)_ZN5boost14checked_deleteINS_8signals26detail12signal1_implIvRKNS_10shared_ptrIKN3pcl10PointCloudINS5_8PointXYZEEEEENS1_19optional_last_valueIvEEiSt4lessIiENS_8functionIFvSC_EEENSH_IFvRKNS1_10connectionESC_EEENS1_5mutexEE16invocation_stateEEEvPT_@Base 1.6
 (optional=templinst)_ZN5boost14checked_deleteINS_8signals26detail12signal1_implIvRKNS_10shared_ptrIKN3pcl10PointCloudINS5_8PointXYZEEEEENS1_19optional_last_valueIvEEiSt4lessIiENS_8functionIFvSC_EEENSH_IFvRKNS1_10connectionESC_EEENS1_5mutexEEEEEvPT_@Base 1.6
 (optional=templinst)_ZN5boost14checked_deleteINS_8signals26detail12signal1_implIvRKNS_10shared_ptrIKN3pcl10PointCloudINS5_9PointXYZIEEEEENS1_19optional_last_valueIvEEiSt4lessIiENS_8functionIFvSC_EEENSH_IFvRKNS1_10connectionESC_EEENS1_5mutexEE16invocation_stateEEEvPT_@Base 1.6
 (optional=templinst)_ZN5boost14checked_deleteINS_8signals26detail12signal1_implIvRKNS_10shared_ptrIKN3pcl10PointCloudINS5_9PointXYZIEEEEENS1_19optional_last_valueIvEEiSt4lessIiENS_8functionIFvSC_EEENSH_IFvRKNS1_10connectionESC_EEENS1_5mutexEEEEEvPT_@Base 1.6
 (optional=templinst)_ZN5boost14checked_deleteINS_8signals26detail12signal1_implIvRKNS_10shared_ptrIN14openni_wrapper10DepthImageEEENS1_19optional_last_valueIvEEiSt4lessIiENS_8functionIFvS9_EEENSE_IFvRKNS1_10connectionES9_EEENS1_5mutexEE16invocation_stateEEEvPT_@Base 1.6
 (optional=templinst)_ZN5boost14checked_deleteINS_8signals26detail12signal1_implIvRKNS_10shared_ptrIN14openni_wrapper10DepthImageEEENS1_19optional_last_valueIvEEiSt4lessIiENS_8functionIFvS9_EEENSE_IFvRKNS1_10connectionES9_EEENS1_5mutexEEEEEvPT_@Base 1.6
 (optional=templinst)_ZN5boost14checked_deleteINS_8signals26detail12signal1_implIvRKNS_10shared_ptrIN14openni_wrapper5ImageEEENS1_19optional_last_valueIvEEiSt4lessIiENS_8functionIFvS9_EEENSE_IFvRKNS1_10connectionES9_EEENS1_5mutexEE16invocation_stateEEEvPT_@Base 1.6
 (optional=templinst)_ZN5boost14checked_deleteINS_8signals26detail12signal1_implIvRKNS_10shared_ptrIN14openni_wrapper5ImageEEENS1_19optional_last_valueIvEEiSt4lessIiENS_8functionIFvS9_EEENSE_IFvRKNS1_10connectionES9_EEENS1_5mutexEEEEEvPT_@Base 1.6
 (optional=templinst)_ZN5boost14checked_deleteINS_8signals26detail12signal1_implIvRKNS_10shared_ptrIN14openni_wrapper7IRImageEEENS1_19optional_last_valueIvEEiSt4lessIiENS_8functionIFvS9_EEENSE_IFvRKNS1_10connectionES9_EEENS1_5mutexEE16invocation_stateEEEvPT_@Base 1.6
 (optional=templinst)_ZN5boost14checked_deleteINS_8signals26detail12signal1_implIvRKNS_10shared_ptrIN14openni_wrapper7IRImageEEENS1_19optional_last_valueIvEEiSt4lessIiENS_8functionIFvS9_EEENSE_IFvRKNS1_10connectionES9_EEENS1_5mutexEEEEEvPT_@Base 1.6
 (optional=templinst)_ZN5boost14checked_deleteINS_8signals26detail12signal3_implIvRKNS_10shared_ptrIN14openni_wrapper5ImageEEERKNS4_INS5_10DepthImageEEEfNS1_19optional_last_valueIvEEiSt4lessIiENS_8functionIFvS9_SD_fEEENSI_IFvRKNS1_10connectionES9_SD_fEEENS1_5mutexEE16invocation_stateEEEvPT_@Base 1.6
 (optional=templinst)_ZN5boost14checked_deleteINS_8signals26detail12signal3_implIvRKNS_10shared_ptrIN14openni_wrapper5ImageEEERKNS4_INS5_10DepthImageEEEfNS1_19optional_last_valueIvEEiSt4lessIiENS_8functionIFvS9_SD_fEEENSI_IFvRKNS1_10connectionES9_SD_fEEENS1_5mutexEEEEEvPT_@Base 1.6
 (optional=templinst)_ZN5boost14checked_deleteINS_8signals26detail12signal3_implIvRKNS_10shared_ptrIN14openni_wrapper7IRImageEEERKNS4_INS5_10DepthImageEEEfNS1_19optional_last_valueIvEEiSt4lessIiENS_8functionIFvS9_SD_fEEENSI_IFvRKNS1_10connectionES9_SD_fEEENS1_5mutexEE16invocation_stateEEEvPT_@Base 1.6
 (optional=templinst)_ZN5boost14checked_deleteINS_8signals26detail12signal3_implIvRKNS_10shared_ptrIN14openni_wrapper7IRImageEEERKNS4_INS5_10DepthImageEEEfNS1_19optional_last_valueIvEEiSt4lessIiENS_8functionIFvS9_SD_fEEENSI_IFvRKNS1_10connectionES9_SD_fEEENS1_5mutexEEEEEvPT_@Base 1.6
 (optional=templinst)_ZN5boost14iterator_rangeIN9__gnu_cxx17__normal_iteratorIPcSsEEEC1ISsEERT_NS_21iterator_range_detail9range_tagE@Base 1.6
 (optional=templinst)_ZN5boost14iterator_rangeIN9__gnu_cxx17__normal_iteratorIPcSsEEEC2ISsEERT_NS_21iterator_range_detail9range_tagE@Base 1.6
 _ZN5boost15condition_errorD0Ev@Base 1.6
 _ZN5boost15condition_errorD1Ev@Base 1.6
 _ZN5boost15condition_errorD2Ev@Base 1.6
 (optional=templinst)_ZN5boost15throw_exceptionINS_10lock_errorEEEvRKT_@Base 1.6
 (optional=templinst)_ZN5boost15throw_exceptionINS_17bad_function_callEEEvRKT_@Base 1.6
 (optional=templinst)_ZN5boost15throw_exceptionINS_21thread_resource_errorEEEvRKT_@Base 1.6
 (optional=templinst)_ZN5boost15throw_exceptionINS_9gregorian16bad_day_of_monthEEEvRKT_@Base 1.6
 (optional=templinst)_ZN5boost15throw_exceptionINS_9gregorian8bad_yearEEEvRKT_@Base 1.6
 (optional=templinst)_ZN5boost15throw_exceptionINS_9gregorian9bad_monthEEEvRKT_@Base 1.6
 (optional=templinst)_ZN5boost15throw_exceptionISt13runtime_errorEEvRKT_@Base 1.6
 _ZN5boost16exception_detail10bad_alloc_C1ERKS1_@Base 1.6
 _ZN5boost16exception_detail10bad_alloc_C2ERKS1_@Base 1.6
 _ZN5boost16exception_detail10bad_alloc_D0Ev@Base 1.6
 _ZN5boost16exception_detail10bad_alloc_D1Ev@Base 1.6
 _ZN5boost16exception_detail10bad_alloc_D2Ev@Base 1.6
 _ZN5boost16exception_detail10clone_baseD0Ev@Base 1.6
 _ZN5boost16exception_detail10clone_baseD1Ev@Base 1.6
 _ZN5boost16exception_detail10clone_baseD2Ev@Base 1.6
 (optional=templinst)_ZN5boost16exception_detail10clone_implINS0_10bad_alloc_EEC1ERKS2_@Base 1.6
 (optional=templinst)_ZN5boost16exception_detail10clone_implINS0_10bad_alloc_EEC1ERKS3_@Base 1.6
 (optional=templinst)_ZN5boost16exception_detail10clone_implINS0_10bad_alloc_EEC2ERKS2_@Base 1.6
 (optional=templinst)_ZN5boost16exception_detail10clone_implINS0_10bad_alloc_EEC2ERKS3_@Base 1.6
 (optional=templinst)_ZN5boost16exception_detail10clone_implINS0_10bad_alloc_EED0Ev@Base 1.6
 (optional=templinst)_ZN5boost16exception_detail10clone_implINS0_10bad_alloc_EED1Ev@Base 1.6
 (optional=templinst)_ZN5boost16exception_detail10clone_implINS0_10bad_alloc_EED2Ev@Base 1.6
 (optional=templinst)_ZN5boost16exception_detail10clone_implINS0_14bad_exception_EEC1ERKS2_@Base 1.6
 (optional=templinst)_ZN5boost16exception_detail10clone_implINS0_14bad_exception_EEC1ERKS3_@Base 1.6
 (optional=templinst)_ZN5boost16exception_detail10clone_implINS0_14bad_exception_EEC2ERKS2_@Base 1.6
 (optional=templinst)_ZN5boost16exception_detail10clone_implINS0_14bad_exception_EEC2ERKS3_@Base 1.6
 (optional=templinst)_ZN5boost16exception_detail10clone_implINS0_14bad_exception_EED0Ev@Base 1.6
 (optional=templinst)_ZN5boost16exception_detail10clone_implINS0_14bad_exception_EED1Ev@Base 1.6
 (optional=templinst)_ZN5boost16exception_detail10clone_implINS0_14bad_exception_EED2Ev@Base 1.6
 (optional=templinst)_ZN5boost16exception_detail10clone_implINS0_19error_info_injectorINS_10lock_errorEEEEC1ERKS4_@Base 1.6
 (optional=templinst)_ZN5boost16exception_detail10clone_implINS0_19error_info_injectorINS_10lock_errorEEEEC2ERKS4_@Base 1.6
 (optional=templinst)_ZN5boost16exception_detail10clone_implINS0_19error_info_injectorINS_10lock_errorEEEED0Ev@Base 1.6
 (optional=templinst)_ZN5boost16exception_detail10clone_implINS0_19error_info_injectorINS_10lock_errorEEEED1Ev@Base 1.6
 (optional=templinst)_ZN5boost16exception_detail10clone_implINS0_19error_info_injectorINS_10lock_errorEEEED2Ev@Base 1.6
 (optional=templinst)_ZN5boost16exception_detail10clone_implINS0_19error_info_injectorINS_15condition_errorEEEEC1ERKS4_@Base 1.6
 (optional=templinst)_ZN5boost16exception_detail10clone_implINS0_19error_info_injectorINS_15condition_errorEEEEC2ERKS4_@Base 1.6
 (optional=templinst)_ZN5boost16exception_detail10clone_implINS0_19error_info_injectorINS_15condition_errorEEEED0Ev@Base 1.6
 (optional=templinst)_ZN5boost16exception_detail10clone_implINS0_19error_info_injectorINS_15condition_errorEEEED1Ev@Base 1.6
 (optional=templinst)_ZN5boost16exception_detail10clone_implINS0_19error_info_injectorINS_15condition_errorEEEED2Ev@Base 1.6
 (optional=templinst)_ZN5boost16exception_detail10clone_implINS0_19error_info_injectorINS_17bad_function_callEEEEC1ERKS4_@Base 1.6
 (optional=templinst)_ZN5boost16exception_detail10clone_implINS0_19error_info_injectorINS_17bad_function_callEEEEC2ERKS4_@Base 1.6
 (optional=templinst)_ZN5boost16exception_detail10clone_implINS0_19error_info_injectorINS_17bad_function_callEEEED0Ev@Base 1.6
 (optional=templinst)_ZN5boost16exception_detail10clone_implINS0_19error_info_injectorINS_17bad_function_callEEEED1Ev@Base 1.6
 (optional=templinst)_ZN5boost16exception_detail10clone_implINS0_19error_info_injectorINS_17bad_function_callEEEED2Ev@Base 1.6
 (optional=templinst)_ZN5boost16exception_detail10clone_implINS0_19error_info_injectorINS_21thread_resource_errorEEEEC1ERKS4_@Base 1.6
 (optional=templinst)_ZN5boost16exception_detail10clone_implINS0_19error_info_injectorINS_21thread_resource_errorEEEEC2ERKS4_@Base 1.6
 (optional=templinst)_ZN5boost16exception_detail10clone_implINS0_19error_info_injectorINS_21thread_resource_errorEEEED0Ev@Base 1.6
 (optional=templinst)_ZN5boost16exception_detail10clone_implINS0_19error_info_injectorINS_21thread_resource_errorEEEED1Ev@Base 1.6
 (optional=templinst)_ZN5boost16exception_detail10clone_implINS0_19error_info_injectorINS_21thread_resource_errorEEEED2Ev@Base 1.6
 (optional=templinst)_ZN5boost16exception_detail10clone_implINS0_19error_info_injectorINS_9gregorian16bad_day_of_monthEEEEC1ERKS5_@Base 1.6
 (optional=templinst)_ZN5boost16exception_detail10clone_implINS0_19error_info_injectorINS_9gregorian16bad_day_of_monthEEEEC2ERKS5_@Base 1.6
 (optional=templinst)_ZN5boost16exception_detail10clone_implINS0_19error_info_injectorINS_9gregorian16bad_day_of_monthEEEED0Ev@Base 1.6
 (optional=templinst)_ZN5boost16exception_detail10clone_implINS0_19error_info_injectorINS_9gregorian16bad_day_of_monthEEEED1Ev@Base 1.6
 (optional=templinst)_ZN5boost16exception_detail10clone_implINS0_19error_info_injectorINS_9gregorian16bad_day_of_monthEEEED2Ev@Base 1.6
 (optional=templinst)_ZN5boost16exception_detail10clone_implINS0_19error_info_injectorINS_9gregorian8bad_yearEEEEC1ERKS5_@Base 1.6
 (optional=templinst)_ZN5boost16exception_detail10clone_implINS0_19error_info_injectorINS_9gregorian8bad_yearEEEEC2ERKS5_@Base 1.6
 (optional=templinst)_ZN5boost16exception_detail10clone_implINS0_19error_info_injectorINS_9gregorian8bad_yearEEEED0Ev@Base 1.6
 (optional=templinst)_ZN5boost16exception_detail10clone_implINS0_19error_info_injectorINS_9gregorian8bad_yearEEEED1Ev@Base 1.6
 (optional=templinst)_ZN5boost16exception_detail10clone_implINS0_19error_info_injectorINS_9gregorian8bad_yearEEEED2Ev@Base 1.6
 (optional=templinst)_ZN5boost16exception_detail10clone_implINS0_19error_info_injectorINS_9gregorian9bad_monthEEEEC1ERKS5_@Base 1.6
 (optional=templinst)_ZN5boost16exception_detail10clone_implINS0_19error_info_injectorINS_9gregorian9bad_monthEEEEC2ERKS5_@Base 1.6
 (optional=templinst)_ZN5boost16exception_detail10clone_implINS0_19error_info_injectorINS_9gregorian9bad_monthEEEED0Ev@Base 1.6
 (optional=templinst)_ZN5boost16exception_detail10clone_implINS0_19error_info_injectorINS_9gregorian9bad_monthEEEED1Ev@Base 1.6
 (optional=templinst)_ZN5boost16exception_detail10clone_implINS0_19error_info_injectorINS_9gregorian9bad_monthEEEED2Ev@Base 1.6
 (optional=templinst)_ZN5boost16exception_detail10clone_implINS0_19error_info_injectorISt13runtime_errorEEEC1ERKS4_@Base 1.6
 (optional=templinst)_ZN5boost16exception_detail10clone_implINS0_19error_info_injectorISt13runtime_errorEEEC2ERKS4_@Base 1.6
 (optional=templinst)_ZN5boost16exception_detail10clone_implINS0_19error_info_injectorISt13runtime_errorEEED0Ev@Base 1.6
 (optional=templinst)_ZN5boost16exception_detail10clone_implINS0_19error_info_injectorISt13runtime_errorEEED1Ev@Base 1.6
 (optional=templinst)_ZN5boost16exception_detail10clone_implINS0_19error_info_injectorISt13runtime_errorEEED2Ev@Base 1.6
 (optional=templinst)_ZN5boost16exception_detail12refcount_ptrINS0_20error_info_containerEE5adoptEPS2_@Base 1.6
 (optional=templinst)_ZN5boost16exception_detail12refcount_ptrINS0_20error_info_containerEE7releaseEv@Base 1.6
 _ZN5boost16exception_detail14bad_exception_C1ERKS1_@Base 1.6
 _ZN5boost16exception_detail14bad_exception_C2ERKS1_@Base 1.6
 _ZN5boost16exception_detail14bad_exception_D0Ev@Base 1.6
 _ZN5boost16exception_detail14bad_exception_D1Ev@Base 1.6
 _ZN5boost16exception_detail14bad_exception_D2Ev@Base 1.6
 (optional=templinst)_ZN5boost16exception_detail19error_info_injectorINS_10lock_errorEEC1ERKS3_@Base 1.6
 (optional=templinst)_ZN5boost16exception_detail19error_info_injectorINS_10lock_errorEEC2ERKS3_@Base 1.6
 (optional=templinst)_ZN5boost16exception_detail19error_info_injectorINS_10lock_errorEED0Ev@Base 1.6
 (optional=templinst)_ZN5boost16exception_detail19error_info_injectorINS_10lock_errorEED1Ev@Base 1.6
 (optional=templinst)_ZN5boost16exception_detail19error_info_injectorINS_10lock_errorEED2Ev@Base 1.6
 (optional=templinst)_ZN5boost16exception_detail19error_info_injectorINS_15condition_errorEEC1ERKS3_@Base 1.6
 (optional=templinst)_ZN5boost16exception_detail19error_info_injectorINS_15condition_errorEEC2ERKS3_@Base 1.6
 (optional=templinst)_ZN5boost16exception_detail19error_info_injectorINS_15condition_errorEED0Ev@Base 1.6
 (optional=templinst)_ZN5boost16exception_detail19error_info_injectorINS_15condition_errorEED1Ev@Base 1.6
 (optional=templinst)_ZN5boost16exception_detail19error_info_injectorINS_15condition_errorEED2Ev@Base 1.6
 (optional=templinst)_ZN5boost16exception_detail19error_info_injectorINS_17bad_function_callEEC1ERKS3_@Base 1.6
 (optional=templinst)_ZN5boost16exception_detail19error_info_injectorINS_17bad_function_callEEC2ERKS3_@Base 1.6
 (optional=templinst)_ZN5boost16exception_detail19error_info_injectorINS_17bad_function_callEED0Ev@Base 1.6
 (optional=templinst)_ZN5boost16exception_detail19error_info_injectorINS_17bad_function_callEED1Ev@Base 1.6
 (optional=templinst)_ZN5boost16exception_detail19error_info_injectorINS_17bad_function_callEED2Ev@Base 1.6
 (optional=templinst)_ZN5boost16exception_detail19error_info_injectorINS_21thread_resource_errorEEC1ERKS3_@Base 1.6
 (optional=templinst)_ZN5boost16exception_detail19error_info_injectorINS_21thread_resource_errorEEC2ERKS3_@Base 1.6
 (optional=templinst)_ZN5boost16exception_detail19error_info_injectorINS_21thread_resource_errorEED0Ev@Base 1.6
 (optional=templinst)_ZN5boost16exception_detail19error_info_injectorINS_21thread_resource_errorEED1Ev@Base 1.6
 (optional=templinst)_ZN5boost16exception_detail19error_info_injectorINS_21thread_resource_errorEED2Ev@Base 1.6
 (optional=templinst)_ZN5boost16exception_detail19error_info_injectorINS_9gregorian16bad_day_of_monthEEC1ERKS3_@Base 1.6
 (optional=templinst)_ZN5boost16exception_detail19error_info_injectorINS_9gregorian16bad_day_of_monthEEC1ERKS4_@Base 1.6
 (optional=templinst)_ZN5boost16exception_detail19error_info_injectorINS_9gregorian16bad_day_of_monthEEC2ERKS3_@Base 1.6
 (optional=templinst)_ZN5boost16exception_detail19error_info_injectorINS_9gregorian16bad_day_of_monthEEC2ERKS4_@Base 1.6
 (optional=templinst)_ZN5boost16exception_detail19error_info_injectorINS_9gregorian16bad_day_of_monthEED0Ev@Base 1.6
 (optional=templinst)_ZN5boost16exception_detail19error_info_injectorINS_9gregorian16bad_day_of_monthEED1Ev@Base 1.6
 (optional=templinst)_ZN5boost16exception_detail19error_info_injectorINS_9gregorian16bad_day_of_monthEED2Ev@Base 1.6
 (optional=templinst)_ZN5boost16exception_detail19error_info_injectorINS_9gregorian8bad_yearEEC1ERKS3_@Base 1.6
 (optional=templinst)_ZN5boost16exception_detail19error_info_injectorINS_9gregorian8bad_yearEEC1ERKS4_@Base 1.6
 (optional=templinst)_ZN5boost16exception_detail19error_info_injectorINS_9gregorian8bad_yearEEC2ERKS3_@Base 1.6
 (optional=templinst)_ZN5boost16exception_detail19error_info_injectorINS_9gregorian8bad_yearEEC2ERKS4_@Base 1.6
 (optional=templinst)_ZN5boost16exception_detail19error_info_injectorINS_9gregorian8bad_yearEED0Ev@Base 1.6
 (optional=templinst)_ZN5boost16exception_detail19error_info_injectorINS_9gregorian8bad_yearEED1Ev@Base 1.6
 (optional=templinst)_ZN5boost16exception_detail19error_info_injectorINS_9gregorian8bad_yearEED2Ev@Base 1.6
 (optional=templinst)_ZN5boost16exception_detail19error_info_injectorINS_9gregorian9bad_monthEEC1ERKS3_@Base 1.6
 (optional=templinst)_ZN5boost16exception_detail19error_info_injectorINS_9gregorian9bad_monthEEC1ERKS4_@Base 1.6
 (optional=templinst)_ZN5boost16exception_detail19error_info_injectorINS_9gregorian9bad_monthEEC2ERKS3_@Base 1.6
 (optional=templinst)_ZN5boost16exception_detail19error_info_injectorINS_9gregorian9bad_monthEEC2ERKS4_@Base 1.6
 (optional=templinst)_ZN5boost16exception_detail19error_info_injectorINS_9gregorian9bad_monthEED0Ev@Base 1.6
 (optional=templinst)_ZN5boost16exception_detail19error_info_injectorINS_9gregorian9bad_monthEED1Ev@Base 1.6
 (optional=templinst)_ZN5boost16exception_detail19error_info_injectorINS_9gregorian9bad_monthEED2Ev@Base 1.6
 (optional=templinst)_ZN5boost16exception_detail19error_info_injectorISt13runtime_errorEC1ERKS3_@Base 1.6
 (optional=templinst)_ZN5boost16exception_detail19error_info_injectorISt13runtime_errorEC2ERKS3_@Base 1.6
 (optional=templinst)_ZN5boost16exception_detail19error_info_injectorISt13runtime_errorED0Ev@Base 1.6
 (optional=templinst)_ZN5boost16exception_detail19error_info_injectorISt13runtime_errorED1Ev@Base 1.6
 (optional=templinst)_ZN5boost16exception_detail19error_info_injectorISt13runtime_errorED2Ev@Base 1.6
 _ZN5boost16exception_detail20copy_boost_exceptionEPNS_9exceptionEPKS1_@Base 1.6
 (optional=templinst)_ZN5boost16exception_detail27get_static_exception_objectINS0_10bad_alloc_EEENS_13exception_ptrEv@Base 1.6
 (optional=templinst)_ZN5boost16exception_detail27get_static_exception_objectINS0_14bad_exception_EEENS_13exception_ptrEv@Base 1.6
 _ZN5boost16exception_detail37exception_ptr_static_exception_objectINS0_10bad_alloc_EE1eE@Base 1.6
 _ZN5boost16exception_detail37exception_ptr_static_exception_objectINS0_14bad_exception_EE1eE@Base 1.6
 (optional=templinst)_ZN5boost16thread_cv_detail12lock_on_exitINS_11unique_lockINS_5mutexEEEED1Ev@Base 1.6
 (optional=templinst)_ZN5boost16thread_cv_detail12lock_on_exitINS_11unique_lockINS_5mutexEEEED2Ev@Base 1.6
 _ZN5boost16thread_exceptionD0Ev@Base 1.6
 _ZN5boost16thread_exceptionD1Ev@Base 1.6
 _ZN5boost16thread_exceptionD2Ev@Base 1.6
 _ZN5boost17bad_function_callC1Ev@Base 1.6
 _ZN5boost17bad_function_callC2Ev@Base 1.6
 _ZN5boost17bad_function_callD0Ev@Base 1.6
 _ZN5boost17bad_function_callD1Ev@Base 1.6
 _ZN5boost17bad_function_callD2Ev@Base 1.6
 _ZN5boost18condition_variable10notify_allEv@Base 1.6
 _ZN5boost18condition_variableC1Ev@Base 1.6
 _ZN5boost18condition_variableC2Ev@Base 1.6
 _ZN5boost18condition_variableD1Ev@Base 1.6
 _ZN5boost18condition_variableD2Ev@Base 1.6
 (optional=templinst)_ZN5boost18transform_iteratorINS_9algorithm6detail20copy_iterator_rangeFISsN9__gnu_cxx17__normal_iteratorIPKcSsEEEENS1_14split_iteratorIS8_EENS_11use_defaultESC_ED1Ev@Base 1.6
 (optional=templinst)_ZN5boost18transform_iteratorINS_9algorithm6detail20copy_iterator_rangeFISsN9__gnu_cxx17__normal_iteratorIPKcSsEEEENS1_14split_iteratorIS8_EENS_11use_defaultESC_ED2Ev@Base 1.6
 (optional=templinst)_ZN5boost18transform_iteratorINS_9algorithm6detail20copy_iterator_rangeFISsN9__gnu_cxx17__normal_iteratorIPcSsEEEENS1_14split_iteratorIS7_EENS_11use_defaultESB_ED1Ev@Base 1.6
 (optional=templinst)_ZN5boost18transform_iteratorINS_9algorithm6detail20copy_iterator_rangeFISsN9__gnu_cxx17__normal_iteratorIPcSsEEEENS1_14split_iteratorIS7_EENS_11use_defaultESB_ED2Ev@Base 1.6
 (optional=templinst)_ZN5boost20checked_array_deleteIhEEvPT_@Base 1.6
 (optional=templinst)_ZN5boost20checked_array_deleteItEEvPT_@Base 1.6
 _ZN5boost21thread_resource_errorD0Ev@Base 1.6
 _ZN5boost21thread_resource_errorD1Ev@Base 1.6
 _ZN5boost21thread_resource_errorD2Ev@Base 1.6
 (optional=templinst)_ZN5boost23enable_shared_from_thisINS_6detail16thread_data_baseEED1Ev@Base 1.6
 (optional=templinst)_ZN5boost23enable_shared_from_thisINS_6detail16thread_data_baseEED2Ev@Base 1.6
 (optional=templinst)_ZN5boost3_bi5list3INS0_5valueIPN3pcl9PLYReaderEEENS2_ISsEENS_3argILi1EEEEC1ES6_S7_S9_@Base 1.6
 (optional=templinst)_ZN5boost3_bi5list3INS0_5valueIPN3pcl9PLYReaderEEENS2_ISsEENS_3argILi1EEEEC2ES6_S7_S9_@Base 1.6
 (optional=templinst)_ZN5boost3_bi5list3INS0_5valueIPN3pcl9PLYReaderEEENS2_ISsEENS_3argILi1EEEED1Ev@Base 1.6
 (optional=templinst)_ZN5boost3_bi5list3INS0_5valueIPN3pcl9PLYReaderEEENS2_ISsEENS_3argILi1EEEED2Ev@Base 1.6
 (optional=templinst)_ZN5boost3_bi5valueISsED1Ev@Base 1.6
 (optional=templinst)_ZN5boost3_bi5valueISsED2Ev@Base 1.6
 (optional=templinst)_ZN5boost3_bi6bind_tINS0_11unspecifiedENS_8functionIFvNS_10shared_ptrIN14openni_wrapper10DepthImageEEEPvEEENS0_5list2INS_3argILi1EEENS0_5valueIS8_EEEEEC1ERKSH_@Base 1.6
 (optional=templinst)_ZN5boost3_bi6bind_tINS0_11unspecifiedENS_8functionIFvNS_10shared_ptrIN14openni_wrapper10DepthImageEEEPvEEENS0_5list2INS_3argILi1EEENS0_5valueIS8_EEEEEC2ERKSH_@Base 1.6
 (optional=templinst)_ZN5boost3_bi6bind_tINS0_11unspecifiedENS_8functionIFvNS_10shared_ptrIN14openni_wrapper10DepthImageEEEPvEEENS0_5list2INS_3argILi1EEENS0_5valueIS8_EEEEED1Ev@Base 1.6
 (optional=templinst)_ZN5boost3_bi6bind_tINS0_11unspecifiedENS_8functionIFvNS_10shared_ptrIN14openni_wrapper10DepthImageEEEPvEEENS0_5list2INS_3argILi1EEENS0_5valueIS8_EEEEED2Ev@Base 1.6
 (optional=templinst)_ZN5boost3_bi6bind_tINS0_11unspecifiedENS_8functionIFvNS_10shared_ptrIN14openni_wrapper5ImageEEEPvEEENS0_5list2INS_3argILi1EEENS0_5valueIS8_EEEEEC1ERKSH_@Base 1.6
 (optional=templinst)_ZN5boost3_bi6bind_tINS0_11unspecifiedENS_8functionIFvNS_10shared_ptrIN14openni_wrapper5ImageEEEPvEEENS0_5list2INS_3argILi1EEENS0_5valueIS8_EEEEEC2ERKSH_@Base 1.6
 (optional=templinst)_ZN5boost3_bi6bind_tINS0_11unspecifiedENS_8functionIFvNS_10shared_ptrIN14openni_wrapper5ImageEEEPvEEENS0_5list2INS_3argILi1EEENS0_5valueIS8_EEEEED1Ev@Base 1.6
 (optional=templinst)_ZN5boost3_bi6bind_tINS0_11unspecifiedENS_8functionIFvNS_10shared_ptrIN14openni_wrapper5ImageEEEPvEEENS0_5list2INS_3argILi1EEENS0_5valueIS8_EEEEED2Ev@Base 1.6
 (optional=templinst)_ZN5boost3_bi6bind_tINS0_11unspecifiedENS_8functionIFvNS_10shared_ptrIN14openni_wrapper7IRImageEEEPvEEENS0_5list2INS_3argILi1EEENS0_5valueIS8_EEEEEC1ERKSH_@Base 1.6
 (optional=templinst)_ZN5boost3_bi6bind_tINS0_11unspecifiedENS_8functionIFvNS_10shared_ptrIN14openni_wrapper7IRImageEEEPvEEENS0_5list2INS_3argILi1EEENS0_5valueIS8_EEEEEC2ERKSH_@Base 1.6
 (optional=templinst)_ZN5boost3_bi6bind_tINS0_11unspecifiedENS_8functionIFvNS_10shared_ptrIN14openni_wrapper7IRImageEEEPvEEENS0_5list2INS_3argILi1EEENS0_5valueIS8_EEEEED1Ev@Base 1.6
 (optional=templinst)_ZN5boost3_bi6bind_tINS0_11unspecifiedENS_8functionIFvNS_10shared_ptrIN14openni_wrapper7IRImageEEEPvEEENS0_5list2INS_3argILi1EEENS0_5valueIS8_EEEEED2Ev@Base 1.6
 (optional=templinst)_ZN5boost3_bi6bind_tIvNS_4_mfi3mf2IvN3pcl10ONIGrabberERKNS_10shared_ptrIN14openni_wrapper5ImageEEERKNS6_INS7_10DepthImageEEEEENS0_5list3INS0_5valueIPS5_EENS_3argILi1EEENSL_ILi2EEEEEEclIS9_SD_mmEEvRT_RT0_RT1_RT2_@Base 1.6
 (optional=templinst)_ZN5boost3_bi6bind_tIvNS_4_mfi3mf2IvN3pcl9PLYReaderERKSshEENS0_5list3INS0_5valueIPS5_EENSA_ISsEENS_3argILi1EEEEEEC1ERKSH_@Base 1.6
 (optional=templinst)_ZN5boost3_bi6bind_tIvNS_4_mfi3mf2IvN3pcl9PLYReaderERKSshEENS0_5list3INS0_5valueIPS5_EENSA_ISsEENS_3argILi1EEEEEEC2ERKSH_@Base 1.6
 (optional=templinst)_ZN5boost3_bi6bind_tIvNS_4_mfi3mf2IvN3pcl9PLYReaderERKSshEENS0_5list3INS0_5valueIPS5_EENSA_ISsEENS_3argILi1EEEEEED1Ev@Base 1.6
 (optional=templinst)_ZN5boost3_bi6bind_tIvNS_4_mfi3mf2IvN3pcl9PLYReaderERKSshEENS0_5list3INS0_5valueIPS5_EENSA_ISsEENS_3argILi1EEEEEED2Ev@Base 1.6
 (optional=templinst)_ZN5boost3_bi8storage3INS0_5valueIPN3pcl9PLYReaderEEENS2_ISsEENS_3argILi1EEEEC1ES6_S7_S9_@Base 1.6
 (optional=templinst)_ZN5boost3_bi8storage3INS0_5valueIPN3pcl9PLYReaderEEENS2_ISsEENS_3argILi1EEEEC2ES6_S7_S9_@Base 1.6
 (optional=templinst)_ZN5boost3mpl8inherit2IN3pcl2io3ply10ply_parser39list_property_definition_callbacks_type17callbacks_elementINS0_4pairIhaEEEENS7_INS8_IhsEEEEED1Ev@Base 1.6
 (optional=templinst)_ZN5boost3mpl8inherit2IN3pcl2io3ply10ply_parser39list_property_definition_callbacks_type17callbacks_elementINS0_4pairIhaEEEENS7_INS8_IhsEEEEED2Ev@Base 1.6
 (optional=templinst)_ZN5boost3mpl8inherit2IN3pcl2io3ply10ply_parser41scalar_property_definition_callbacks_type17callbacks_elementIaEENS7_IsEEED1Ev@Base 1.6
 (optional=templinst)_ZN5boost3mpl8inherit2IN3pcl2io3ply10ply_parser41scalar_property_definition_callbacks_type17callbacks_elementIaEENS7_IsEEED2Ev@Base 1.6
 (optional=templinst)_ZN5boost3mpl8inherit2INS1_IN3pcl2io3ply10ply_parser39list_property_definition_callbacks_type17callbacks_elementINS0_4pairIhaEEEENS7_INS8_IhsEEEEEENS7_INS8_IhiEEEEED1Ev@Base 1.6
 (optional=templinst)_ZN5boost3mpl8inherit2INS1_IN3pcl2io3ply10ply_parser39list_property_definition_callbacks_type17callbacks_elementINS0_4pairIhaEEEENS7_INS8_IhsEEEEEENS7_INS8_IhiEEEEED2Ev@Base 1.6
 (optional=templinst)_ZN5boost3mpl8inherit2INS1_IN3pcl2io3ply10ply_parser41scalar_property_definition_callbacks_type17callbacks_elementIaEENS7_IsEEEENS7_IiEEED1Ev@Base 1.6
 (optional=templinst)_ZN5boost3mpl8inherit2INS1_IN3pcl2io3ply10ply_parser41scalar_property_definition_callbacks_type17callbacks_elementIaEENS7_IsEEEENS7_IiEEED2Ev@Base 1.6
 (optional=templinst)_ZN5boost3mpl8inherit2INS1_INS1_IN3pcl2io3ply10ply_parser39list_property_definition_callbacks_type17callbacks_elementINS0_4pairIhaEEEENS7_INS8_IhsEEEEEENS7_INS8_IhiEEEEEENS7_INS8_IhhEEEEED1Ev@Base 1.6
 (optional=templinst)_ZN5boost3mpl8inherit2INS1_INS1_IN3pcl2io3ply10ply_parser39list_property_definition_callbacks_type17callbacks_elementINS0_4pairIhaEEEENS7_INS8_IhsEEEEEENS7_INS8_IhiEEEEEENS7_INS8_IhhEEEEED2Ev@Base 1.6
 (optional=templinst)_ZN5boost3mpl8inherit2INS1_INS1_IN3pcl2io3ply10ply_parser41scalar_property_definition_callbacks_type17callbacks_elementIaEENS7_IsEEEENS7_IiEEEENS7_IhEEED1Ev@Base 1.6
 (optional=templinst)_ZN5boost3mpl8inherit2INS1_INS1_IN3pcl2io3ply10ply_parser41scalar_property_definition_callbacks_type17callbacks_elementIaEENS7_IsEEEENS7_IiEEEENS7_IhEEED2Ev@Base 1.6
 (optional=templinst)_ZN5boost3mpl8inherit2INS1_INS1_INS1_IN3pcl2io3ply10ply_parser39list_property_definition_callbacks_type17callbacks_elementINS0_4pairIhaEEEENS7_INS8_IhsEEEEEENS7_INS8_IhiEEEEEENS7_INS8_IhhEEEEEENS7_INS8_IhtEEEEED1Ev@Base 1.6
 (optional=templinst)_ZN5boost3mpl8inherit2INS1_INS1_INS1_IN3pcl2io3ply10ply_parser39list_property_definition_callbacks_type17callbacks_elementINS0_4pairIhaEEEENS7_INS8_IhsEEEEEENS7_INS8_IhiEEEEEENS7_INS8_IhhEEEEEENS7_INS8_IhtEEEEED2Ev@Base 1.6
 (optional=templinst)_ZN5boost3mpl8inherit2INS1_INS1_INS1_IN3pcl2io3ply10ply_parser39list_property_definition_callbacks_type17callbacks_elementINS0_4pairIhaEEEENS7_INS8_IhsEEEEEENS7_INS8_IhiEEEEEENS7_INS8_IhhEEEEEENS7_INS8_IhtEEEEEaSERKSM_@Base 1.6
 (optional=templinst)_ZN5boost3mpl8inherit2INS1_INS1_INS1_IN3pcl2io3ply10ply_parser41scalar_property_definition_callbacks_type17callbacks_elementIaEENS7_IsEEEENS7_IiEEEENS7_IhEEEENS7_ItEEED1Ev@Base 1.6
 (optional=templinst)_ZN5boost3mpl8inherit2INS1_INS1_INS1_IN3pcl2io3ply10ply_parser41scalar_property_definition_callbacks_type17callbacks_elementIaEENS7_IsEEEENS7_IiEEEENS7_IhEEEENS7_ItEEED2Ev@Base 1.6
 (optional=templinst)_ZN5boost3mpl8inherit2INS1_INS1_INS1_IN3pcl2io3ply10ply_parser41scalar_property_definition_callbacks_type17callbacks_elementIaEENS7_IsEEEENS7_IiEEEENS7_IhEEEENS7_ItEEEaSERKSG_@Base 1.6
 (optional=templinst)_ZN5boost3mpl8inherit2INS1_INS1_INS1_INS1_IN3pcl2io3ply10ply_parser39list_property_definition_callbacks_type17callbacks_elementINS0_4pairIhaEEEENS7_INS8_IhsEEEEEENS7_INS8_IhiEEEEEENS7_INS8_IhhEEEEEENS7_INS8_IhtEEEEEENS7_INS8_IhjEEEEED1Ev@Base 1.6
 (optional=templinst)_ZN5boost3mpl8inherit2INS1_INS1_INS1_INS1_IN3pcl2io3ply10ply_parser39list_property_definition_callbacks_type17callbacks_elementINS0_4pairIhaEEEENS7_INS8_IhsEEEEEENS7_INS8_IhiEEEEEENS7_INS8_IhhEEEEEENS7_INS8_IhtEEEEEENS7_INS8_IhjEEEEED2Ev@Base 1.6
 (optional=templinst)_ZN5boost3mpl8inherit2INS1_INS1_INS1_INS1_IN3pcl2io3ply10ply_parser41scalar_property_definition_callbacks_type17callbacks_elementIaEENS7_IsEEEENS7_IiEEEENS7_IhEEEENS7_ItEEEENS7_IjEEED1Ev@Base 1.6
 (optional=templinst)_ZN5boost3mpl8inherit2INS1_INS1_INS1_INS1_IN3pcl2io3ply10ply_parser41scalar_property_definition_callbacks_type17callbacks_elementIaEENS7_IsEEEENS7_IiEEEENS7_IhEEEENS7_ItEEEENS7_IjEEED2Ev@Base 1.6
 (optional=templinst)_ZN5boost3mpl8inherit2INS1_INS1_INS1_INS1_INS1_IN3pcl2io3ply10ply_parser39list_property_definition_callbacks_type17callbacks_elementINS0_4pairIhaEEEENS7_INS8_IhsEEEEEENS7_INS8_IhiEEEEEENS7_INS8_IhhEEEEEENS7_INS8_IhtEEEEEENS7_INS8_IhjEEEEEENS7_INS8_IhfEEEEED1Ev@Base 1.6
 (optional=templinst)_ZN5boost3mpl8inherit2INS1_INS1_INS1_INS1_INS1_IN3pcl2io3ply10ply_parser39list_property_definition_callbacks_type17callbacks_elementINS0_4pairIhaEEEENS7_INS8_IhsEEEEEENS7_INS8_IhiEEEEEENS7_INS8_IhhEEEEEENS7_INS8_IhtEEEEEENS7_INS8_IhjEEEEEENS7_INS8_IhfEEEEED2Ev@Base 1.6
 (optional=templinst)_ZN5boost3mpl8inherit2INS1_INS1_INS1_INS1_INS1_IN3pcl2io3ply10ply_parser41scalar_property_definition_callbacks_type17callbacks_elementIaEENS7_IsEEEENS7_IiEEEENS7_IhEEEENS7_ItEEEENS7_IjEEEENS7_IfEEED1Ev@Base 1.6
 (optional=templinst)_ZN5boost3mpl8inherit2INS1_INS1_INS1_INS1_INS1_IN3pcl2io3ply10ply_parser41scalar_property_definition_callbacks_type17callbacks_elementIaEENS7_IsEEEENS7_IiEEEENS7_IhEEEENS7_ItEEEENS7_IjEEEENS7_IfEEED2Ev@Base 1.6
 (optional=templinst)_ZN5boost3mpl8inherit2INS1_INS1_INS1_INS1_INS1_INS1_IN3pcl2io3ply10ply_parser39list_property_definition_callbacks_type17callbacks_elementINS0_4pairIhaEEEENS7_INS8_IhsEEEEEENS7_INS8_IhiEEEEEENS7_INS8_IhhEEEEEENS7_INS8_IhtEEEEEENS7_INS8_IhjEEEEEENS7_INS8_IhfEEEEEENS7_INS8_IhdEEEEED1Ev@Base 1.6
 (optional=templinst)_ZN5boost3mpl8inherit2INS1_INS1_INS1_INS1_INS1_INS1_IN3pcl2io3ply10ply_parser39list_property_definition_callbacks_type17callbacks_elementINS0_4pairIhaEEEENS7_INS8_IhsEEEEEENS7_INS8_IhiEEEEEENS7_INS8_IhhEEEEEENS7_INS8_IhtEEEEEENS7_INS8_IhjEEEEEENS7_INS8_IhfEEEEEENS7_INS8_IhdEEEEED2Ev@Base 1.6
 (optional=templinst)_ZN5boost3mpl8inherit2INS1_INS1_INS1_INS1_INS1_INS1_IN3pcl2io3ply10ply_parser39list_property_definition_callbacks_type17callbacks_elementINS0_4pairIhaEEEENS7_INS8_IhsEEEEEENS7_INS8_IhiEEEEEENS7_INS8_IhhEEEEEENS7_INS8_IhtEEEEEENS7_INS8_IhjEEEEEENS7_INS8_IhfEEEEEENS7_INS8_IhdEEEEEaSERKSV_@Base 1.6
 (optional=templinst)_ZN5boost3mpl8inherit2INS1_INS1_INS1_INS1_INS1_INS1_IN3pcl2io3ply10ply_parser41scalar_property_definition_callbacks_type17callbacks_elementIaEENS7_IsEEEENS7_IiEEEENS7_IhEEEENS7_ItEEEENS7_IjEEEENS7_IfEEEENS7_IdEEED1Ev@Base 1.6
 (optional=templinst)_ZN5boost3mpl8inherit2INS1_INS1_INS1_INS1_INS1_INS1_IN3pcl2io3ply10ply_parser41scalar_property_definition_callbacks_type17callbacks_elementIaEENS7_IsEEEENS7_IiEEEENS7_IhEEEENS7_ItEEEENS7_IjEEEENS7_IfEEEENS7_IdEEED2Ev@Base 1.6
 (optional=templinst)_ZN5boost3mpl8inherit2INS1_INS1_INS1_INS1_INS1_INS1_IN3pcl2io3ply10ply_parser41scalar_property_definition_callbacks_type17callbacks_elementIaEENS7_IsEEEENS7_IiEEEENS7_IhEEEENS7_ItEEEENS7_IjEEEENS7_IfEEEENS7_IdEEEaSERKSM_@Base 1.6
 (optional=templinst)_ZN5boost3mpl8inherit2INS1_INS1_INS1_INS1_INS1_INS1_INS1_IN3pcl2io3ply10ply_parser39list_property_definition_callbacks_type17callbacks_elementINS0_4pairIhaEEEENS7_INS8_IhsEEEEEENS7_INS8_IhiEEEEEENS7_INS8_IhhEEEEEENS7_INS8_IhtEEEEEENS7_INS8_IhjEEEEEENS7_INS8_IhfEEEEEENS7_INS8_IhdEEEEEENS7_INS8_ItaEEEEED1Ev@Base 1.6
 (optional=templinst)_ZN5boost3mpl8inherit2INS1_INS1_INS1_INS1_INS1_INS1_INS1_IN3pcl2io3ply10ply_parser39list_property_definition_callbacks_type17callbacks_elementINS0_4pairIhaEEEENS7_INS8_IhsEEEEEENS7_INS8_IhiEEEEEENS7_INS8_IhhEEEEEENS7_INS8_IhtEEEEEENS7_INS8_IhjEEEEEENS7_INS8_IhfEEEEEENS7_INS8_IhdEEEEEENS7_INS8_ItaEEEEED2Ev@Base 1.6
 (optional=templinst)_ZN5boost3mpl8inherit2INS1_INS1_INS1_INS1_INS1_INS1_INS1_INS1_IN3pcl2io3ply10ply_parser39list_property_definition_callbacks_type17callbacks_elementINS0_4pairIhaEEEENS7_INS8_IhsEEEEEENS7_INS8_IhiEEEEEENS7_INS8_IhhEEEEEENS7_INS8_IhtEEEEEENS7_INS8_IhjEEEEEENS7_INS8_IhfEEEEEENS7_INS8_IhdEEEEEENS7_INS8_ItaEEEEEENS7_INS8_ItsEEEEED1Ev@Base 1.6
 (optional=templinst)_ZN5boost3mpl8inherit2INS1_INS1_INS1_INS1_INS1_INS1_INS1_INS1_IN3pcl2io3ply10ply_parser39list_property_definition_callbacks_type17callbacks_elementINS0_4pairIhaEEEENS7_INS8_IhsEEEEEENS7_INS8_IhiEEEEEENS7_INS8_IhhEEEEEENS7_INS8_IhtEEEEEENS7_INS8_IhjEEEEEENS7_INS8_IhfEEEEEENS7_INS8_IhdEEEEEENS7_INS8_ItaEEEEEENS7_INS8_ItsEEEEED2Ev@Base 1.6
 (optional=templinst)_ZN5boost3mpl8inherit2INS1_INS1_INS1_INS1_INS1_INS1_INS1_INS1_IN3pcl2io3ply10ply_parser39list_property_definition_callbacks_type17callbacks_elementINS0_4pairIhaEEEENS7_INS8_IhsEEEEEENS7_INS8_IhiEEEEEENS7_INS8_IhhEEEEEENS7_INS8_IhtEEEEEENS7_INS8_IhjEEEEEENS7_INS8_IhfEEEEEENS7_INS8_IhdEEEEEENS7_INS8_ItaEEEEEENS7_INS8_ItsEEEEEaSERKS11_@Base 1.6
 (optional=templinst)_ZN5boost3mpl8inherit2INS1_INS1_INS1_INS1_INS1_INS1_INS1_INS1_INS1_IN3pcl2io3ply10ply_parser39list_property_definition_callbacks_type17callbacks_elementINS0_4pairIhaEEEENS7_INS8_IhsEEEEEENS7_INS8_IhiEEEEEENS7_INS8_IhhEEEEEENS7_INS8_IhtEEEEEENS7_INS8_IhjEEEEEENS7_INS8_IhfEEEEEENS7_INS8_IhdEEEEEENS7_INS8_ItaEEEEEENS7_INS8_ItsEEEEEENS7_INS8_ItiEEEEED1Ev@Base 1.6
 (optional=templinst)_ZN5boost3mpl8inherit2INS1_INS1_INS1_INS1_INS1_INS1_INS1_INS1_INS1_IN3pcl2io3ply10ply_parser39list_property_definition_callbacks_type17callbacks_elementINS0_4pairIhaEEEENS7_INS8_IhsEEEEEENS7_INS8_IhiEEEEEENS7_INS8_IhhEEEEEENS7_INS8_IhtEEEEEENS7_INS8_IhjEEEEEENS7_INS8_IhfEEEEEENS7_INS8_IhdEEEEEENS7_INS8_ItaEEEEEENS7_INS8_ItsEEEEEENS7_INS8_ItiEEEEED2Ev@Base 1.6
 (optional=templinst)_ZN5boost3mpl8inherit2INS1_INS1_INS1_INS1_INS1_INS1_INS1_INS1_INS1_INS1_IN3pcl2io3ply10ply_parser39list_property_definition_callbacks_type17callbacks_elementINS0_4pairIhaEEEENS7_INS8_IhsEEEEEENS7_INS8_IhiEEEEEENS7_INS8_IhhEEEEEENS7_INS8_IhtEEEEEENS7_INS8_IhjEEEEEENS7_INS8_IhfEEEEEENS7_INS8_IhdEEEEEENS7_INS8_ItaEEEEEENS7_INS8_ItsEEEEEENS7_INS8_ItiEEEEEENS7_INS8_IthEEEEED1Ev@Base 1.6
 (optional=templinst)_ZN5boost3mpl8inherit2INS1_INS1_INS1_INS1_INS1_INS1_INS1_INS1_INS1_INS1_IN3pcl2io3ply10ply_parser39list_property_definition_callbacks_type17callbacks_elementINS0_4pairIhaEEEENS7_INS8_IhsEEEEEENS7_INS8_IhiEEEEEENS7_INS8_IhhEEEEEENS7_INS8_IhtEEEEEENS7_INS8_IhjEEEEEENS7_INS8_IhfEEEEEENS7_INS8_IhdEEEEEENS7_INS8_ItaEEEEEENS7_INS8_ItsEEEEEENS7_INS8_ItiEEEEEENS7_INS8_IthEEEEED2Ev@Base 1.6
 (optional=templinst)_ZN5boost3mpl8inherit2INS1_INS1_INS1_INS1_INS1_INS1_INS1_INS1_INS1_INS1_IN3pcl2io3ply10ply_parser39list_property_definition_callbacks_type17callbacks_elementINS0_4pairIhaEEEENS7_INS8_IhsEEEEEENS7_INS8_IhiEEEEEENS7_INS8_IhhEEEEEENS7_INS8_IhtEEEEEENS7_INS8_IhjEEEEEENS7_INS8_IhfEEEEEENS7_INS8_IhdEEEEEENS7_INS8_ItaEEEEEENS7_INS8_ItsEEEEEENS7_INS8_ItiEEEEEENS7_INS8_IthEEEEEaSERKS17_@Base 1.6
 (optional=templinst)_ZN5boost3mpl8inherit2INS1_INS1_INS1_INS1_INS1_INS1_INS1_INS1_INS1_INS1_INS1_IN3pcl2io3ply10ply_parser39list_property_definition_callbacks_type17callbacks_elementINS0_4pairIhaEEEENS7_INS8_IhsEEEEEENS7_INS8_IhiEEEEEENS7_INS8_IhhEEEEEENS7_INS8_IhtEEEEEENS7_INS8_IhjEEEEEENS7_INS8_IhfEEEEEENS7_INS8_IhdEEEEEENS7_INS8_ItaEEEEEENS7_INS8_ItsEEEEEENS7_INS8_ItiEEEEEENS7_INS8_IthEEEEEENS7_INS8_IttEEEEED1Ev@Base 1.6
 (optional=templinst)_ZN5boost3mpl8inherit2INS1_INS1_INS1_INS1_INS1_INS1_INS1_INS1_INS1_INS1_INS1_IN3pcl2io3ply10ply_parser39list_property_definition_callbacks_type17callbacks_elementINS0_4pairIhaEEEENS7_INS8_IhsEEEEEENS7_INS8_IhiEEEEEENS7_INS8_IhhEEEEEENS7_INS8_IhtEEEEEENS7_INS8_IhjEEEEEENS7_INS8_IhfEEEEEENS7_INS8_IhdEEEEEENS7_INS8_ItaEEEEEENS7_INS8_ItsEEEEEENS7_INS8_ItiEEEEEENS7_INS8_IthEEEEEENS7_INS8_IttEEEEED2Ev@Base 1.6
 (optional=templinst)_ZN5boost3mpl8inherit2INS1_INS1_INS1_INS1_INS1_INS1_INS1_INS1_INS1_INS1_INS1_INS1_IN3pcl2io3ply10ply_parser39list_property_definition_callbacks_type17callbacks_elementINS0_4pairIhaEEEENS7_INS8_IhsEEEEEENS7_INS8_IhiEEEEEENS7_INS8_IhhEEEEEENS7_INS8_IhtEEEEEENS7_INS8_IhjEEEEEENS7_INS8_IhfEEEEEENS7_INS8_IhdEEEEEENS7_INS8_ItaEEEEEENS7_INS8_ItsEEEEEENS7_INS8_ItiEEEEEENS7_INS8_IthEEEEEENS7_INS8_IttEEEEEENS7_INS8_ItjEEEEED1Ev@Base 1.6
 (optional=templinst)_ZN5boost3mpl8inherit2INS1_INS1_INS1_INS1_INS1_INS1_INS1_INS1_INS1_INS1_INS1_INS1_IN3pcl2io3ply10ply_parser39list_property_definition_callbacks_type17callbacks_elementINS0_4pairIhaEEEENS7_INS8_IhsEEEEEENS7_INS8_IhiEEEEEENS7_INS8_IhhEEEEEENS7_INS8_IhtEEEEEENS7_INS8_IhjEEEEEENS7_INS8_IhfEEEEEENS7_INS8_IhdEEEEEENS7_INS8_ItaEEEEEENS7_INS8_ItsEEEEEENS7_INS8_ItiEEEEEENS7_INS8_IthEEEEEENS7_INS8_IttEEEEEENS7_INS8_ItjEEEEED2Ev@Base 1.6
 (optional=templinst)_ZN5boost3mpl8inherit2INS1_INS1_INS1_INS1_INS1_INS1_INS1_INS1_INS1_INS1_INS1_INS1_IN3pcl2io3ply10ply_parser39list_property_definition_callbacks_type17callbacks_elementINS0_4pairIhaEEEENS7_INS8_IhsEEEEEENS7_INS8_IhiEEEEEENS7_INS8_IhhEEEEEENS7_INS8_IhtEEEEEENS7_INS8_IhjEEEEEENS7_INS8_IhfEEEEEENS7_INS8_IhdEEEEEENS7_INS8_ItaEEEEEENS7_INS8_ItsEEEEEENS7_INS8_ItiEEEEEENS7_INS8_IthEEEEEENS7_INS8_IttEEEEEENS7_INS8_ItjEEEEEaSERKS1D_@Base 1.6
 (optional=templinst)_ZN5boost3mpl8inherit2INS1_INS1_INS1_INS1_INS1_INS1_INS1_INS1_INS1_INS1_INS1_INS1_INS1_IN3pcl2io3ply10ply_parser39list_property_definition_callbacks_type17callbacks_elementINS0_4pairIhaEEEENS7_INS8_IhsEEEEEENS7_INS8_IhiEEEEEENS7_INS8_IhhEEEEEENS7_INS8_IhtEEEEEENS7_INS8_IhjEEEEEENS7_INS8_IhfEEEEEENS7_INS8_IhdEEEEEENS7_INS8_ItaEEEEEENS7_INS8_ItsEEEEEENS7_INS8_ItiEEEEEENS7_INS8_IthEEEEEENS7_INS8_IttEEEEEENS7_INS8_ItjEEEEEENS7_INS8_ItfEEEEED1Ev@Base 1.6
 (optional=templinst)_ZN5boost3mpl8inherit2INS1_INS1_INS1_INS1_INS1_INS1_INS1_INS1_INS1_INS1_INS1_INS1_INS1_IN3pcl2io3ply10ply_parser39list_property_definition_callbacks_type17callbacks_elementINS0_4pairIhaEEEENS7_INS8_IhsEEEEEENS7_INS8_IhiEEEEEENS7_INS8_IhhEEEEEENS7_INS8_IhtEEEEEENS7_INS8_IhjEEEEEENS7_INS8_IhfEEEEEENS7_INS8_IhdEEEEEENS7_INS8_ItaEEEEEENS7_INS8_ItsEEEEEENS7_INS8_ItiEEEEEENS7_INS8_IthEEEEEENS7_INS8_IttEEEEEENS7_INS8_ItjEEEEEENS7_INS8_ItfEEEEED2Ev@Base 1.6
 (optional=templinst)_ZN5boost3mpl8inherit2INS1_INS1_INS1_INS1_INS1_INS1_INS1_INS1_INS1_INS1_INS1_INS1_INS1_INS1_IN3pcl2io3ply10ply_parser39list_property_definition_callbacks_type17callbacks_elementINS0_4pairIhaEEEENS7_INS8_IhsEEEEEENS7_INS8_IhiEEEEEENS7_INS8_IhhEEEEEENS7_INS8_IhtEEEEEENS7_INS8_IhjEEEEEENS7_INS8_IhfEEEEEENS7_INS8_IhdEEEEEENS7_INS8_ItaEEEEEENS7_INS8_ItsEEEEEENS7_INS8_ItiEEEEEENS7_INS8_IthEEEEEENS7_INS8_IttEEEEEENS7_INS8_ItjEEEEEENS7_INS8_ItfEEEEEENS7_INS8_ItdEEEEED1Ev@Base 1.6
 (optional=templinst)_ZN5boost3mpl8inherit2INS1_INS1_INS1_INS1_INS1_INS1_INS1_INS1_INS1_INS1_INS1_INS1_INS1_INS1_IN3pcl2io3ply10ply_parser39list_property_definition_callbacks_type17callbacks_elementINS0_4pairIhaEEEENS7_INS8_IhsEEEEEENS7_INS8_IhiEEEEEENS7_INS8_IhhEEEEEENS7_INS8_IhtEEEEEENS7_INS8_IhjEEEEEENS7_INS8_IhfEEEEEENS7_INS8_IhdEEEEEENS7_INS8_ItaEEEEEENS7_INS8_ItsEEEEEENS7_INS8_ItiEEEEEENS7_INS8_IthEEEEEENS7_INS8_IttEEEEEENS7_INS8_ItjEEEEEENS7_INS8_ItfEEEEEENS7_INS8_ItdEEEEED2Ev@Base 1.6
 (optional=templinst)_ZN5boost3mpl8inherit2INS1_INS1_INS1_INS1_INS1_INS1_INS1_INS1_INS1_INS1_INS1_INS1_INS1_INS1_IN3pcl2io3ply10ply_parser39list_property_definition_callbacks_type17callbacks_elementINS0_4pairIhaEEEENS7_INS8_IhsEEEEEENS7_INS8_IhiEEEEEENS7_INS8_IhhEEEEEENS7_INS8_IhtEEEEEENS7_INS8_IhjEEEEEENS7_INS8_IhfEEEEEENS7_INS8_IhdEEEEEENS7_INS8_ItaEEEEEENS7_INS8_ItsEEEEEENS7_INS8_ItiEEEEEENS7_INS8_IthEEEEEENS7_INS8_IttEEEEEENS7_INS8_ItjEEEEEENS7_INS8_ItfEEEEEENS7_INS8_ItdEEEEEaSERKS1J_@Base 1.6
 (optional=templinst)_ZN5boost3mpl8inherit2INS1_INS1_INS1_INS1_INS1_INS1_INS1_INS1_INS1_INS1_INS1_INS1_INS1_INS1_INS1_IN3pcl2io3ply10ply_parser39list_property_definition_callbacks_type17callbacks_elementINS0_4pairIhaEEEENS7_INS8_IhsEEEEEENS7_INS8_IhiEEEEEENS7_INS8_IhhEEEEEENS7_INS8_IhtEEEEEENS7_INS8_IhjEEEEEENS7_INS8_IhfEEEEEENS7_INS8_IhdEEEEEENS7_INS8_ItaEEEEEENS7_INS8_ItsEEEEEENS7_INS8_ItiEEEEEENS7_INS8_IthEEEEEENS7_INS8_IttEEEEEENS7_INS8_ItjEEEEEENS7_INS8_ItfEEEEEENS7_INS8_ItdEEEEEENS7_INS8_IjaEEEEED1Ev@Base 1.6
 (optional=templinst)_ZN5boost3mpl8inherit2INS1_INS1_INS1_INS1_INS1_INS1_INS1_INS1_INS1_INS1_INS1_INS1_INS1_INS1_INS1_IN3pcl2io3ply10ply_parser39list_property_definition_callbacks_type17callbacks_elementINS0_4pairIhaEEEENS7_INS8_IhsEEEEEENS7_INS8_IhiEEEEEENS7_INS8_IhhEEEEEENS7_INS8_IhtEEEEEENS7_INS8_IhjEEEEEENS7_INS8_IhfEEEEEENS7_INS8_IhdEEEEEENS7_INS8_ItaEEEEEENS7_INS8_ItsEEEEEENS7_INS8_ItiEEEEEENS7_INS8_IthEEEEEENS7_INS8_IttEEEEEENS7_INS8_ItjEEEEEENS7_INS8_ItfEEEEEENS7_INS8_ItdEEEEEENS7_INS8_IjaEEEEED2Ev@Base 1.6
 (optional=templinst)_ZN5boost3mpl8inherit2INS1_INS1_INS1_INS1_INS1_INS1_INS1_INS1_INS1_INS1_INS1_INS1_INS1_INS1_INS1_INS1_IN3pcl2io3ply10ply_parser39list_property_definition_callbacks_type17callbacks_elementINS0_4pairIhaEEEENS7_INS8_IhsEEEEEENS7_INS8_IhiEEEEEENS7_INS8_IhhEEEEEENS7_INS8_IhtEEEEEENS7_INS8_IhjEEEEEENS7_INS8_IhfEEEEEENS7_INS8_IhdEEEEEENS7_INS8_ItaEEEEEENS7_INS8_ItsEEEEEENS7_INS8_ItiEEEEEENS7_INS8_IthEEEEEENS7_INS8_IttEEEEEENS7_INS8_ItjEEEEEENS7_INS8_ItfEEEEEENS7_INS8_ItdEEEEEENS7_INS8_IjaEEEEEENS7_INS8_IjsEEEEED1Ev@Base 1.6
 (optional=templinst)_ZN5boost3mpl8inherit2INS1_INS1_INS1_INS1_INS1_INS1_INS1_INS1_INS1_INS1_INS1_INS1_INS1_INS1_INS1_INS1_IN3pcl2io3ply10ply_parser39list_property_definition_callbacks_type17callbacks_elementINS0_4pairIhaEEEENS7_INS8_IhsEEEEEENS7_INS8_IhiEEEEEENS7_INS8_IhhEEEEEENS7_INS8_IhtEEEEEENS7_INS8_IhjEEEEEENS7_INS8_IhfEEEEEENS7_INS8_IhdEEEEEENS7_INS8_ItaEEEEEENS7_INS8_ItsEEEEEENS7_INS8_ItiEEEEEENS7_INS8_IthEEEEEENS7_INS8_IttEEEEEENS7_INS8_ItjEEEEEENS7_INS8_ItfEEEEEENS7_INS8_ItdEEEEEENS7_INS8_IjaEEEEEENS7_INS8_IjsEEEEED2Ev@Base 1.6
 (optional=templinst)_ZN5boost3mpl8inherit2INS1_INS1_INS1_INS1_INS1_INS1_INS1_INS1_INS1_INS1_INS1_INS1_INS1_INS1_INS1_INS1_IN3pcl2io3ply10ply_parser39list_property_definition_callbacks_type17callbacks_elementINS0_4pairIhaEEEENS7_INS8_IhsEEEEEENS7_INS8_IhiEEEEEENS7_INS8_IhhEEEEEENS7_INS8_IhtEEEEEENS7_INS8_IhjEEEEEENS7_INS8_IhfEEEEEENS7_INS8_IhdEEEEEENS7_INS8_ItaEEEEEENS7_INS8_ItsEEEEEENS7_INS8_ItiEEEEEENS7_INS8_IthEEEEEENS7_INS8_IttEEEEEENS7_INS8_ItjEEEEEENS7_INS8_ItfEEEEEENS7_INS8_ItdEEEEEENS7_INS8_IjaEEEEEENS7_INS8_IjsEEEEEaSERKS1P_@Base 1.6
 (optional=templinst)_ZN5boost3mpl8inherit2INS1_INS1_INS1_INS1_INS1_INS1_INS1_INS1_INS1_INS1_INS1_INS1_INS1_INS1_INS1_INS1_INS1_IN3pcl2io3ply10ply_parser39list_property_definition_callbacks_type17callbacks_elementINS0_4pairIhaEEEENS7_INS8_IhsEEEEEENS7_INS8_IhiEEEEEENS7_INS8_IhhEEEEEENS7_INS8_IhtEEEEEENS7_INS8_IhjEEEEEENS7_INS8_IhfEEEEEENS7_INS8_IhdEEEEEENS7_INS8_ItaEEEEEENS7_INS8_ItsEEEEEENS7_INS8_ItiEEEEEENS7_INS8_IthEEEEEENS7_INS8_IttEEEEEENS7_INS8_ItjEEEEEENS7_INS8_ItfEEEEEENS7_INS8_ItdEEEEEENS7_INS8_IjaEEEEEENS7_INS8_IjsEEEEEENS7_INS8_IjiEEEEED1Ev@Base 1.6
 (optional=templinst)_ZN5boost3mpl8inherit2INS1_INS1_INS1_INS1_INS1_INS1_INS1_INS1_INS1_INS1_INS1_INS1_INS1_INS1_INS1_INS1_INS1_IN3pcl2io3ply10ply_parser39list_property_definition_callbacks_type17callbacks_elementINS0_4pairIhaEEEENS7_INS8_IhsEEEEEENS7_INS8_IhiEEEEEENS7_INS8_IhhEEEEEENS7_INS8_IhtEEEEEENS7_INS8_IhjEEEEEENS7_INS8_IhfEEEEEENS7_INS8_IhdEEEEEENS7_INS8_ItaEEEEEENS7_INS8_ItsEEEEEENS7_INS8_ItiEEEEEENS7_INS8_IthEEEEEENS7_INS8_IttEEEEEENS7_INS8_ItjEEEEEENS7_INS8_ItfEEEEEENS7_INS8_ItdEEEEEENS7_INS8_IjaEEEEEENS7_INS8_IjsEEEEEENS7_INS8_IjiEEEEED2Ev@Base 1.6
 (optional=templinst)_ZN5boost3mpl8inherit2INS1_INS1_INS1_INS1_INS1_INS1_INS1_INS1_INS1_INS1_INS1_INS1_INS1_INS1_INS1_INS1_INS1_INS1_IN3pcl2io3ply10ply_parser39list_property_definition_callbacks_type17callbacks_elementINS0_4pairIhaEEEENS7_INS8_IhsEEEEEENS7_INS8_IhiEEEEEENS7_INS8_IhhEEEEEENS7_INS8_IhtEEEEEENS7_INS8_IhjEEEEEENS7_INS8_IhfEEEEEENS7_INS8_IhdEEEEEENS7_INS8_ItaEEEEEENS7_INS8_ItsEEEEEENS7_INS8_ItiEEEEEENS7_INS8_IthEEEEEENS7_INS8_IttEEEEEENS7_INS8_ItjEEEEEENS7_INS8_ItfEEEEEENS7_INS8_ItdEEEEEENS7_INS8_IjaEEEEEENS7_INS8_IjsEEEEEENS7_INS8_IjiEEEEEENS7_INS8_IjhEEEEED1Ev@Base 1.6
 (optional=templinst)_ZN5boost3mpl8inherit2INS1_INS1_INS1_INS1_INS1_INS1_INS1_INS1_INS1_INS1_INS1_INS1_INS1_INS1_INS1_INS1_INS1_INS1_IN3pcl2io3ply10ply_parser39list_property_definition_callbacks_type17callbacks_elementINS0_4pairIhaEEEENS7_INS8_IhsEEEEEENS7_INS8_IhiEEEEEENS7_INS8_IhhEEEEEENS7_INS8_IhtEEEEEENS7_INS8_IhjEEEEEENS7_INS8_IhfEEEEEENS7_INS8_IhdEEEEEENS7_INS8_ItaEEEEEENS7_INS8_ItsEEEEEENS7_INS8_ItiEEEEEENS7_INS8_IthEEEEEENS7_INS8_IttEEEEEENS7_INS8_ItjEEEEEENS7_INS8_ItfEEEEEENS7_INS8_ItdEEEEEENS7_INS8_IjaEEEEEENS7_INS8_IjsEEEEEENS7_INS8_IjiEEEEEENS7_INS8_IjhEEEEED2Ev@Base 1.6
 (optional=templinst)_ZN5boost3mpl8inherit2INS1_INS1_INS1_INS1_INS1_INS1_INS1_INS1_INS1_INS1_INS1_INS1_INS1_INS1_INS1_INS1_INS1_INS1_INS1_IN3pcl2io3ply10ply_parser39list_property_definition_callbacks_type17callbacks_elementINS0_4pairIhaEEEENS7_INS8_IhsEEEEEENS7_INS8_IhiEEEEEENS7_INS8_IhhEEEEEENS7_INS8_IhtEEEEEENS7_INS8_IhjEEEEEENS7_INS8_IhfEEEEEENS7_INS8_IhdEEEEEENS7_INS8_ItaEEEEEENS7_INS8_ItsEEEEEENS7_INS8_ItiEEEEEENS7_INS8_IthEEEEEENS7_INS8_IttEEEEEENS7_INS8_ItjEEEEEENS7_INS8_ItfEEEEEENS7_INS8_ItdEEEEEENS7_INS8_IjaEEEEEENS7_INS8_IjsEEEEEENS7_INS8_IjiEEEEEENS7_INS8_IjhEEEEEENS7_INS8_IjtEEEEED1Ev@Base 1.6
 (optional=templinst)_ZN5boost3mpl8inherit2INS1_INS1_INS1_INS1_INS1_INS1_INS1_INS1_INS1_INS1_INS1_INS1_INS1_INS1_INS1_INS1_INS1_INS1_INS1_IN3pcl2io3ply10ply_parser39list_property_definition_callbacks_type17callbacks_elementINS0_4pairIhaEEEENS7_INS8_IhsEEEEEENS7_INS8_IhiEEEEEENS7_INS8_IhhEEEEEENS7_INS8_IhtEEEEEENS7_INS8_IhjEEEEEENS7_INS8_IhfEEEEEENS7_INS8_IhdEEEEEENS7_INS8_ItaEEEEEENS7_INS8_ItsEEEEEENS7_INS8_ItiEEEEEENS7_INS8_IthEEEEEENS7_INS8_IttEEEEEENS7_INS8_ItjEEEEEENS7_INS8_ItfEEEEEENS7_INS8_ItdEEEEEENS7_INS8_IjaEEEEEENS7_INS8_IjsEEEEEENS7_INS8_IjiEEEEEENS7_INS8_IjhEEEEEENS7_INS8_IjtEEEEED2Ev@Base 1.6
 (optional=templinst)_ZN5boost3mpl8inherit2INS1_INS1_INS1_INS1_INS1_INS1_INS1_INS1_INS1_INS1_INS1_INS1_INS1_INS1_INS1_INS1_INS1_INS1_INS1_IN3pcl2io3ply10ply_parser39list_property_definition_callbacks_type17callbacks_elementINS0_4pairIhaEEEENS7_INS8_IhsEEEEEENS7_INS8_IhiEEEEEENS7_INS8_IhhEEEEEENS7_INS8_IhtEEEEEENS7_INS8_IhjEEEEEENS7_INS8_IhfEEEEEENS7_INS8_IhdEEEEEENS7_INS8_ItaEEEEEENS7_INS8_ItsEEEEEENS7_INS8_ItiEEEEEENS7_INS8_IthEEEEEENS7_INS8_IttEEEEEENS7_INS8_ItjEEEEEENS7_INS8_ItfEEEEEENS7_INS8_ItdEEEEEENS7_INS8_IjaEEEEEENS7_INS8_IjsEEEEEENS7_INS8_IjiEEEEEENS7_INS8_IjhEEEEEENS7_INS8_IjtEEEEEaSERKS1Y_@Base 1.6
 (optional=templinst)_ZN5boost3mpl8inherit2INS1_INS1_INS1_INS1_INS1_INS1_INS1_INS1_INS1_INS1_INS1_INS1_INS1_INS1_INS1_INS1_INS1_INS1_INS1_INS1_IN3pcl2io3ply10ply_parser39list_property_definition_callbacks_type17callbacks_elementINS0_4pairIhaEEEENS7_INS8_IhsEEEEEENS7_INS8_IhiEEEEEENS7_INS8_IhhEEEEEENS7_INS8_IhtEEEEEENS7_INS8_IhjEEEEEENS7_INS8_IhfEEEEEENS7_INS8_IhdEEEEEENS7_INS8_ItaEEEEEENS7_INS8_ItsEEEEEENS7_INS8_ItiEEEEEENS7_INS8_IthEEEEEENS7_INS8_IttEEEEEENS7_INS8_ItjEEEEEENS7_INS8_ItfEEEEEENS7_INS8_ItdEEEEEENS7_INS8_IjaEEEEEENS7_INS8_IjsEEEEEENS7_INS8_IjiEEEEEENS7_INS8_IjhEEEEEENS7_INS8_IjtEEEEEENS7_INS8_IjjEEEEED1Ev@Base 1.6
 (optional=templinst)_ZN5boost3mpl8inherit2INS1_INS1_INS1_INS1_INS1_INS1_INS1_INS1_INS1_INS1_INS1_INS1_INS1_INS1_INS1_INS1_INS1_INS1_INS1_INS1_IN3pcl2io3ply10ply_parser39list_property_definition_callbacks_type17callbacks_elementINS0_4pairIhaEEEENS7_INS8_IhsEEEEEENS7_INS8_IhiEEEEEENS7_INS8_IhhEEEEEENS7_INS8_IhtEEEEEENS7_INS8_IhjEEEEEENS7_INS8_IhfEEEEEENS7_INS8_IhdEEEEEENS7_INS8_ItaEEEEEENS7_INS8_ItsEEEEEENS7_INS8_ItiEEEEEENS7_INS8_IthEEEEEENS7_INS8_IttEEEEEENS7_INS8_ItjEEEEEENS7_INS8_ItfEEEEEENS7_INS8_ItdEEEEEENS7_INS8_IjaEEEEEENS7_INS8_IjsEEEEEENS7_INS8_IjiEEEEEENS7_INS8_IjhEEEEEENS7_INS8_IjtEEEEEENS7_INS8_IjjEEEEED2Ev@Base 1.6
 (optional=templinst)_ZN5boost3mpl8inherit2INS1_INS1_INS1_INS1_INS1_INS1_INS1_INS1_INS1_INS1_INS1_INS1_INS1_INS1_INS1_INS1_INS1_INS1_INS1_INS1_INS1_IN3pcl2io3ply10ply_parser39list_property_definition_callbacks_type17callbacks_elementINS0_4pairIhaEEEENS7_INS8_IhsEEEEEENS7_INS8_IhiEEEEEENS7_INS8_IhhEEEEEENS7_INS8_IhtEEEEEENS7_INS8_IhjEEEEEENS7_INS8_IhfEEEEEENS7_INS8_IhdEEEEEENS7_INS8_ItaEEEEEENS7_INS8_ItsEEEEEENS7_INS8_ItiEEEEEENS7_INS8_IthEEEEEENS7_INS8_IttEEEEEENS7_INS8_ItjEEEEEENS7_INS8_ItfEEEEEENS7_INS8_ItdEEEEEENS7_INS8_IjaEEEEEENS7_INS8_IjsEEEEEENS7_INS8_IjiEEEEEENS7_INS8_IjhEEEEEENS7_INS8_IjtEEEEEENS7_INS8_IjjEEEEEENS7_INS8_IjfEEEEED1Ev@Base 1.6
 (optional=templinst)_ZN5boost3mpl8inherit2INS1_INS1_INS1_INS1_INS1_INS1_INS1_INS1_INS1_INS1_INS1_INS1_INS1_INS1_INS1_INS1_INS1_INS1_INS1_INS1_INS1_IN3pcl2io3ply10ply_parser39list_property_definition_callbacks_type17callbacks_elementINS0_4pairIhaEEEENS7_INS8_IhsEEEEEENS7_INS8_IhiEEEEEENS7_INS8_IhhEEEEEENS7_INS8_IhtEEEEEENS7_INS8_IhjEEEEEENS7_INS8_IhfEEEEEENS7_INS8_IhdEEEEEENS7_INS8_ItaEEEEEENS7_INS8_ItsEEEEEENS7_INS8_ItiEEEEEENS7_INS8_IthEEEEEENS7_INS8_IttEEEEEENS7_INS8_ItjEEEEEENS7_INS8_ItfEEEEEENS7_INS8_ItdEEEEEENS7_INS8_IjaEEEEEENS7_INS8_IjsEEEEEENS7_INS8_IjiEEEEEENS7_INS8_IjhEEEEEENS7_INS8_IjtEEEEEENS7_INS8_IjjEEEEEENS7_INS8_IjfEEEEED2Ev@Base 1.6
 (optional=templinst)_ZN5boost3mpl8inherit2INS1_INS1_INS1_INS1_INS1_INS1_INS1_INS1_INS1_INS1_INS1_INS1_INS1_INS1_INS1_INS1_INS1_INS1_INS1_INS1_INS1_INS1_IN3pcl2io3ply10ply_parser39list_property_definition_callbacks_type17callbacks_elementINS0_4pairIhaEEEENS7_INS8_IhsEEEEEENS7_INS8_IhiEEEEEENS7_INS8_IhhEEEEEENS7_INS8_IhtEEEEEENS7_INS8_IhjEEEEEENS7_INS8_IhfEEEEEENS7_INS8_IhdEEEEEENS7_INS8_ItaEEEEEENS7_INS8_ItsEEEEEENS7_INS8_ItiEEEEEENS7_INS8_IthEEEEEENS7_INS8_IttEEEEEENS7_INS8_ItjEEEEEENS7_INS8_ItfEEEEEENS7_INS8_ItdEEEEEENS7_INS8_IjaEEEEEENS7_INS8_IjsEEEEEENS7_INS8_IjiEEEEEENS7_INS8_IjhEEEEEENS7_INS8_IjtEEEEEENS7_INS8_IjjEEEEEENS7_INS8_IjfEEEEEENS7_INS8_IjdEEEEED1Ev@Base 1.6
 (optional=templinst)_ZN5boost3mpl8inherit2INS1_INS1_INS1_INS1_INS1_INS1_INS1_INS1_INS1_INS1_INS1_INS1_INS1_INS1_INS1_INS1_INS1_INS1_INS1_INS1_INS1_INS1_IN3pcl2io3ply10ply_parser39list_property_definition_callbacks_type17callbacks_elementINS0_4pairIhaEEEENS7_INS8_IhsEEEEEENS7_INS8_IhiEEEEEENS7_INS8_IhhEEEEEENS7_INS8_IhtEEEEEENS7_INS8_IhjEEEEEENS7_INS8_IhfEEEEEENS7_INS8_IhdEEEEEENS7_INS8_ItaEEEEEENS7_INS8_ItsEEEEEENS7_INS8_ItiEEEEEENS7_INS8_IthEEEEEENS7_INS8_IttEEEEEENS7_INS8_ItjEEEEEENS7_INS8_ItfEEEEEENS7_INS8_ItdEEEEEENS7_INS8_IjaEEEEEENS7_INS8_IjsEEEEEENS7_INS8_IjiEEEEEENS7_INS8_IjhEEEEEENS7_INS8_IjtEEEEEENS7_INS8_IjjEEEEEENS7_INS8_IjfEEEEEENS7_INS8_IjdEEEEED2Ev@Base 1.6
 (optional=templinst)_ZN5boost4bindINS_8functionIFvNS_10shared_ptrIN14openni_wrapper10DepthImageEEEPvEEENS_3argILi1EEES6_EENS_3_bi6bind_tINSB_11unspecifiedET_NSB_9list_av_2IT0_T1_E4typeEEESE_SG_SH_@Base 1.6
 (optional=templinst)_ZN5boost4bindINS_8functionIFvNS_10shared_ptrIN14openni_wrapper5ImageEEEPvEEENS_3argILi1EEES6_EENS_3_bi6bind_tINSB_11unspecifiedET_NSB_9list_av_2IT0_T1_E4typeEEESE_SG_SH_@Base 1.6
 (optional=templinst)_ZN5boost4bindINS_8functionIFvNS_10shared_ptrIN14openni_wrapper7IRImageEEEPvEEENS_3argILi1EEES6_EENS_3_bi6bind_tINSB_11unspecifiedET_NSB_9list_av_2IT0_T1_E4typeEEESE_SG_SH_@Base 1.6
 (optional=templinst)_ZN5boost4bindIvN3pcl9PLYReaderERKSshPS2_SsNS_3argILi1EEEEENS_3_bi6bind_tIT_NS_4_mfi3mf2ISA_T0_T1_T2_EENS8_9list_av_3IT3_T4_T5_E4typeEEEMSD_FSA_SE_SF_ESI_SJ_SK_@Base 1.6
 _ZN5boost5mutex4lockEv@Base 1.6
 _ZN5boost5mutex6unlockEv@Base 1.6
 _ZN5boost5mutexC1Ev@Base 1.6
 _ZN5boost5mutexC2Ev@Base 1.6
 _ZN5boost5mutexD1Ev@Base 1.6
 _ZN5boost5mutexD2Ev@Base 1.6
 _ZN5boost6detail10weak_countaSERKNS0_12shared_countE@Base 1.6
 _ZN5boost6detail10weak_countaSERKS1_@Base 1.6
 (optional=templinst)_ZN5boost6detail11thread_dataINS_3_bi6bind_tIvNS_4_mfi3mf0IvN14openni_wrapper12OpenNIDeviceEEENS2_5list1INS2_5valueIPS7_EEEEEEE3runEv@Base 1.6
 (optional=templinst)_ZN5boost6detail11thread_dataINS_3_bi6bind_tIvNS_4_mfi3mf0IvN14openni_wrapper12OpenNIDeviceEEENS2_5list1INS2_5valueIPS7_EEEEEEED0Ev@Base 1.6
 (optional=templinst)_ZN5boost6detail11thread_dataINS_3_bi6bind_tIvNS_4_mfi3mf0IvN14openni_wrapper12OpenNIDeviceEEENS2_5list1INS2_5valueIPS7_EEEEEEED1Ev@Base 1.6
 (optional=templinst)_ZN5boost6detail11thread_dataINS_3_bi6bind_tIvNS_4_mfi3mf0IvN14openni_wrapper12OpenNIDeviceEEENS2_5list1INS2_5valueIPS7_EEEEEEED2Ev@Base 1.6
 (optional=templinst)_ZN5boost6detail11thread_dataINS_3_bi6bind_tIvNS_4_mfi3mf0IvN14openni_wrapper9DeviceONIEEENS2_5list1INS2_5valueIPS7_EEEEEEE3runEv@Base 1.6
 (optional=templinst)_ZN5boost6detail11thread_dataINS_3_bi6bind_tIvNS_4_mfi3mf0IvN14openni_wrapper9DeviceONIEEENS2_5list1INS2_5valueIPS7_EEEEEEED0Ev@Base 1.6
 (optional=templinst)_ZN5boost6detail11thread_dataINS_3_bi6bind_tIvNS_4_mfi3mf0IvN14openni_wrapper9DeviceONIEEENS2_5list1INS2_5valueIPS7_EEEEEEED1Ev@Base 1.6
 (optional=templinst)_ZN5boost6detail11thread_dataINS_3_bi6bind_tIvNS_4_mfi3mf0IvN14openni_wrapper9DeviceONIEEENS2_5list1INS2_5valueIPS7_EEEEEEED2Ev@Base 1.6
 _ZN5boost6detail12shared_countC1ERKNS0_10weak_countENS0_14sp_nothrow_tagE@Base 1.6
 (optional=templinst)_ZN5boost6detail12shared_countC1IN14openni_wrapper10DepthImageEEEPT_@Base 1.6
 (optional=templinst)_ZN5boost6detail12shared_countC1IN14openni_wrapper10ImageRGB24EEEPT_@Base 1.6
 (optional=templinst)_ZN5boost6detail12shared_countC1IN14openni_wrapper12DeviceKinectEEEPT_@Base 1.6
 (optional=templinst)_ZN5boost6detail12shared_countC1IN14openni_wrapper14DeviceXtionProEEEPT_@Base 1.6
 (optional=templinst)_ZN5boost6detail12shared_countC1IN14openni_wrapper16DevicePrimesenseEEEPT_@Base 1.6
 (optional=templinst)_ZN5boost6detail12shared_countC1IN14openni_wrapper7IRImageEEEPT_@Base 1.6
 (optional=templinst)_ZN5boost6detail12shared_countC1IN14openni_wrapper9DeviceONIEEEPT_@Base 1.6
 (optional=templinst)_ZN5boost6detail12shared_countC1IN2xn10IRMetaDataEEEPT_@Base 1.6
 (optional=templinst)_ZN5boost6detail12shared_countC1IN2xn13DepthMetaDataEEEPT_@Base 1.6
 (optional=templinst)_ZN5boost6detail12shared_countC1IN2xn13ImageMetaDataEEEPT_@Base 1.6
 (optional=templinst)_ZN5boost6detail12shared_countC1IN2xn8NodeInfoEEEPT_@Base 1.6
 (optional=templinst)_ZN5boost6detail12shared_countC1IN3pcl10PointCloudIN5Eigen6MatrixIfLin1ELin1ELi0ELin1ELin1EEEEEEEPT_@Base 1.6
 (optional=templinst)_ZN5boost6detail12shared_countC1IN3pcl10PointCloudINS3_11PointXYZRGBEEEEEPT_@Base 1.6
 (optional=templinst)_ZN5boost6detail12shared_countC1IN3pcl10PointCloudINS3_12PointXYZRGBAEEEEEPT_@Base 1.6
 (optional=templinst)_ZN5boost6detail12shared_countC1IN3pcl10PointCloudINS3_8PointXYZEEEEEPT_@Base 1.6
 (optional=templinst)_ZN5boost6detail12shared_countC1IN3pcl10PointCloudINS3_9PointXYZIEEEEEPT_@Base 1.6
 (optional=templinst)_ZN5boost6detail12shared_countC1INS0_11thread_dataINS_3_bi6bind_tIvNS_4_mfi3mf0IvN14openni_wrapper12OpenNIDeviceEEENS4_5list1INS4_5valueIPS9_EEEEEEEEEEPT_@Base 1.6
 (optional=templinst)_ZN5boost6detail12shared_countC1INS0_11thread_dataINS_3_bi6bind_tIvNS_4_mfi3mf0IvN14openni_wrapper9DeviceONIEEENS4_5list1INS4_5valueIPS9_EEEEEEEEEEPT_@Base 1.6
 (optional=templinst)_ZN5boost6detail12shared_countC1INS_16exception_detail10clone_implINS3_10bad_alloc_EEEEEPT_@Base 1.6
 (optional=templinst)_ZN5boost6detail12shared_countC1INS_16exception_detail10clone_implINS3_14bad_exception_EEEEEPT_@Base 1.6
 (optional=templinst)_ZN5boost6detail12shared_countC1INS_8signals219optional_last_valueIvEEEEPT_@Base 1.6
 (optional=templinst)_ZN5boost6detail12shared_countC1INS_8signals26detail12grouped_listIiSt4lessIiENS_10shared_ptrINS4_15connection_bodyISt4pairINS4_15slot_meta_groupENS_8optionalIiEEENS3_5slot1IvRKNS8_IKN3pcl10PointCloudIN5Eigen6MatrixIfLin1ELin1ELi0ELin1ELin1EEEEEEENS_8functionIFvSP_EEEEENS3_5mutexEEEEEEEEEPT_@Base 1.6
 (optional=templinst)_ZN5boost6detail12shared_countC1INS_8signals26detail12grouped_listIiSt4lessIiENS_10shared_ptrINS4_15connection_bodyISt4pairINS4_15slot_meta_groupENS_8optionalIiEEENS3_5slot1IvRKNS8_IKN3pcl10PointCloudINSG_11PointXYZRGBEEEEENS_8functionIFvSN_EEEEENS3_5mutexEEEEEEEEEPT_@Base 1.6
 (optional=templinst)_ZN5boost6detail12shared_countC1INS_8signals26detail12grouped_listIiSt4lessIiENS_10shared_ptrINS4_15connection_bodyISt4pairINS4_15slot_meta_groupENS_8optionalIiEEENS3_5slot1IvRKNS8_IKN3pcl10PointCloudINSG_12PointXYZRGBAEEEEENS_8functionIFvSN_EEEEENS3_5mutexEEEEEEEEEPT_@Base 1.6
 (optional=templinst)_ZN5boost6detail12shared_countC1INS_8signals26detail12grouped_listIiSt4lessIiENS_10shared_ptrINS4_15connection_bodyISt4pairINS4_15slot_meta_groupENS_8optionalIiEEENS3_5slot1IvRKNS8_IKN3pcl10PointCloudINSG_8PointXYZEEEEENS_8functionIFvSN_EEEEENS3_5mutexEEEEEEEEEPT_@Base 1.6
 (optional=templinst)_ZN5boost6detail12shared_countC1INS_8signals26detail12grouped_listIiSt4lessIiENS_10shared_ptrINS4_15connection_bodyISt4pairINS4_15slot_meta_groupENS_8optionalIiEEENS3_5slot1IvRKNS8_IKN3pcl10PointCloudINSG_9PointXYZIEEEEENS_8functionIFvSN_EEEEENS3_5mutexEEEEEEEEEPT_@Base 1.6
 (optional=templinst)_ZN5boost6detail12shared_countC1INS_8signals26detail12grouped_listIiSt4lessIiENS_10shared_ptrINS4_15connection_bodyISt4pairINS4_15slot_meta_groupENS_8optionalIiEEENS3_5slot1IvRKNS8_IN14openni_wrapper10DepthImageEEENS_8functionIFvSK_EEEEENS3_5mutexEEEEEEEEEPT_@Base 1.6
 (optional=templinst)_ZN5boost6detail12shared_countC1INS_8signals26detail12grouped_listIiSt4lessIiENS_10shared_ptrINS4_15connection_bodyISt4pairINS4_15slot_meta_groupENS_8optionalIiEEENS3_5slot1IvRKNS8_IN14openni_wrapper5ImageEEENS_8functionIFvSK_EEEEENS3_5mutexEEEEEEEEEPT_@Base 1.6
 (optional=templinst)_ZN5boost6detail12shared_countC1INS_8signals26detail12grouped_listIiSt4lessIiENS_10shared_ptrINS4_15connection_bodyISt4pairINS4_15slot_meta_groupENS_8optionalIiEEENS3_5slot1IvRKNS8_IN14openni_wrapper7IRImageEEENS_8functionIFvSK_EEEEENS3_5mutexEEEEEEEEEPT_@Base 1.6
 (optional=templinst)_ZN5boost6detail12shared_countC1INS_8signals26detail12grouped_listIiSt4lessIiENS_10shared_ptrINS4_15connection_bodyISt4pairINS4_15slot_meta_groupENS_8optionalIiEEENS3_5slot3IvRKNS8_IN14openni_wrapper5ImageEEERKNS8_INSG_10DepthImageEEEfNS_8functionIFvSK_SO_fEEEEENS3_5mutexEEEEEEEEEPT_@Base 1.6
 (optional=templinst)_ZN5boost6detail12shared_countC1INS_8signals26detail12grouped_listIiSt4lessIiENS_10shared_ptrINS4_15connection_bodyISt4pairINS4_15slot_meta_groupENS_8optionalIiEEENS3_5slot3IvRKNS8_IN14openni_wrapper7IRImageEEERKNS8_INSG_10DepthImageEEEfNS_8functionIFvSK_SO_fEEEEENS3_5mutexEEEEEEEEEPT_@Base 1.6
 (optional=templinst)_ZN5boost6detail12shared_countC1INS_8signals26detail12signal1_implIvRKNS_10shared_ptrIKN3pcl10PointCloudIN5Eigen6MatrixIfLin1ELin1ELi0ELin1ELin1EEEEEEENS3_19optional_last_valueIvEEiSt4lessIiENS_8functionIFvSG_EEENSL_IFvRKNS3_10connectionESG_EEENS3_5mutexEE16invocation_stateEEEPT_@Base 1.6
 (optional=templinst)_ZN5boost6detail12shared_countC1INS_8signals26detail12signal1_implIvRKNS_10shared_ptrIKN3pcl10PointCloudIN5Eigen6MatrixIfLin1ELin1ELi0ELin1ELin1EEEEEEENS3_19optional_last_valueIvEEiSt4lessIiENS_8functionIFvSG_EEENSL_IFvRKNS3_10connectionESG_EEENS3_5mutexEEEEEPT_@Base 1.6
 (optional=templinst)_ZN5boost6detail12shared_countC1INS_8signals26detail12signal1_implIvRKNS_10shared_ptrIKN3pcl10PointCloudINS7_11PointXYZRGBEEEEENS3_19optional_last_valueIvEEiSt4lessIiENS_8functionIFvSE_EEENSJ_IFvRKNS3_10connectionESE_EEENS3_5mutexEE16invocation_stateEEEPT_@Base 1.6
 (optional=templinst)_ZN5boost6detail12shared_countC1INS_8signals26detail12signal1_implIvRKNS_10shared_ptrIKN3pcl10PointCloudINS7_11PointXYZRGBEEEEENS3_19optional_last_valueIvEEiSt4lessIiENS_8functionIFvSE_EEENSJ_IFvRKNS3_10connectionESE_EEENS3_5mutexEEEEEPT_@Base 1.6
 (optional=templinst)_ZN5boost6detail12shared_countC1INS_8signals26detail12signal1_implIvRKNS_10shared_ptrIKN3pcl10PointCloudINS7_12PointXYZRGBAEEEEENS3_19optional_last_valueIvEEiSt4lessIiENS_8functionIFvSE_EEENSJ_IFvRKNS3_10connectionESE_EEENS3_5mutexEE16invocation_stateEEEPT_@Base 1.6
 (optional=templinst)_ZN5boost6detail12shared_countC1INS_8signals26detail12signal1_implIvRKNS_10shared_ptrIKN3pcl10PointCloudINS7_12PointXYZRGBAEEEEENS3_19optional_last_valueIvEEiSt4lessIiENS_8functionIFvSE_EEENSJ_IFvRKNS3_10connectionESE_EEENS3_5mutexEEEEEPT_@Base 1.6
 (optional=templinst)_ZN5boost6detail12shared_countC1INS_8signals26detail12signal1_implIvRKNS_10shared_ptrIKN3pcl10PointCloudINS7_8PointXYZEEEEENS3_19optional_last_valueIvEEiSt4lessIiENS_8functionIFvSE_EEENSJ_IFvRKNS3_10connectionESE_EEENS3_5mutexEE16invocation_stateEEEPT_@Base 1.6
 (optional=templinst)_ZN5boost6detail12shared_countC1INS_8signals26detail12signal1_implIvRKNS_10shared_ptrIKN3pcl10PointCloudINS7_8PointXYZEEEEENS3_19optional_last_valueIvEEiSt4lessIiENS_8functionIFvSE_EEENSJ_IFvRKNS3_10connectionESE_EEENS3_5mutexEEEEEPT_@Base 1.6
 (optional=templinst)_ZN5boost6detail12shared_countC1INS_8signals26detail12signal1_implIvRKNS_10shared_ptrIKN3pcl10PointCloudINS7_9PointXYZIEEEEENS3_19optional_last_valueIvEEiSt4lessIiENS_8functionIFvSE_EEENSJ_IFvRKNS3_10connectionESE_EEENS3_5mutexEE16invocation_stateEEEPT_@Base 1.6
 (optional=templinst)_ZN5boost6detail12shared_countC1INS_8signals26detail12signal1_implIvRKNS_10shared_ptrIKN3pcl10PointCloudINS7_9PointXYZIEEEEENS3_19optional_last_valueIvEEiSt4lessIiENS_8functionIFvSE_EEENSJ_IFvRKNS3_10connectionESE_EEENS3_5mutexEEEEEPT_@Base 1.6
 (optional=templinst)_ZN5boost6detail12shared_countC1INS_8signals26detail12signal1_implIvRKNS_10shared_ptrIN14openni_wrapper10DepthImageEEENS3_19optional_last_valueIvEEiSt4lessIiENS_8functionIFvSB_EEENSG_IFvRKNS3_10connectionESB_EEENS3_5mutexEE16invocation_stateEEEPT_@Base 1.6
 (optional=templinst)_ZN5boost6detail12shared_countC1INS_8signals26detail12signal1_implIvRKNS_10shared_ptrIN14openni_wrapper10DepthImageEEENS3_19optional_last_valueIvEEiSt4lessIiENS_8functionIFvSB_EEENSG_IFvRKNS3_10connectionESB_EEENS3_5mutexEEEEEPT_@Base 1.6
 (optional=templinst)_ZN5boost6detail12shared_countC1INS_8signals26detail12signal1_implIvRKNS_10shared_ptrIN14openni_wrapper5ImageEEENS3_19optional_last_valueIvEEiSt4lessIiENS_8functionIFvSB_EEENSG_IFvRKNS3_10connectionESB_EEENS3_5mutexEE16invocation_stateEEEPT_@Base 1.6
 (optional=templinst)_ZN5boost6detail12shared_countC1INS_8signals26detail12signal1_implIvRKNS_10shared_ptrIN14openni_wrapper5ImageEEENS3_19optional_last_valueIvEEiSt4lessIiENS_8functionIFvSB_EEENSG_IFvRKNS3_10connectionESB_EEENS3_5mutexEEEEEPT_@Base 1.6
 (optional=templinst)_ZN5boost6detail12shared_countC1INS_8signals26detail12signal1_implIvRKNS_10shared_ptrIN14openni_wrapper7IRImageEEENS3_19optional_last_valueIvEEiSt4lessIiENS_8functionIFvSB_EEENSG_IFvRKNS3_10connectionESB_EEENS3_5mutexEE16invocation_stateEEEPT_@Base 1.6
 (optional=templinst)_ZN5boost6detail12shared_countC1INS_8signals26detail12signal1_implIvRKNS_10shared_ptrIN14openni_wrapper7IRImageEEENS3_19optional_last_valueIvEEiSt4lessIiENS_8functionIFvSB_EEENSG_IFvRKNS3_10connectionESB_EEENS3_5mutexEEEEEPT_@Base 1.6
 (optional=templinst)_ZN5boost6detail12shared_countC1INS_8signals26detail12signal3_implIvRKNS_10shared_ptrIN14openni_wrapper5ImageEEERKNS6_INS7_10DepthImageEEEfNS3_19optional_last_valueIvEEiSt4lessIiENS_8functionIFvSB_SF_fEEENSK_IFvRKNS3_10connectionESB_SF_fEEENS3_5mutexEE16invocation_stateEEEPT_@Base 1.6
 (optional=templinst)_ZN5boost6detail12shared_countC1INS_8signals26detail12signal3_implIvRKNS_10shared_ptrIN14openni_wrapper5ImageEEERKNS6_INS7_10DepthImageEEEfNS3_19optional_last_valueIvEEiSt4lessIiENS_8functionIFvSB_SF_fEEENSK_IFvRKNS3_10connectionESB_SF_fEEENS3_5mutexEEEEEPT_@Base 1.6
 (optional=templinst)_ZN5boost6detail12shared_countC1INS_8signals26detail12signal3_implIvRKNS_10shared_ptrIN14openni_wrapper7IRImageEEERKNS6_INS7_10DepthImageEEEfNS3_19optional_last_valueIvEEiSt4lessIiENS_8functionIFvSB_SF_fEEENSK_IFvRKNS3_10connectionESB_SF_fEEENS3_5mutexEE16invocation_stateEEEPT_@Base 1.6
 (optional=templinst)_ZN5boost6detail12shared_countC1INS_8signals26detail12signal3_implIvRKNS_10shared_ptrIN14openni_wrapper7IRImageEEERKNS6_INS7_10DepthImageEEEfNS3_19optional_last_valueIvEEiSt4lessIiENS_8functionIFvSB_SF_fEEENSK_IFvRKNS3_10connectionESB_SF_fEEENS3_5mutexEEEEEPT_@Base 1.6
 (optional=templinst)_ZN5boost6detail12shared_countC1IPhNS_21checked_array_deleterIhEEEET_T0_@Base 1.6
 (optional=templinst)_ZN5boost6detail12shared_countC1IPtNS_21checked_array_deleterItEEEET_T0_@Base 1.6
 (optional=templinst)_ZN5boost6detail12shared_countC1IiEEPT_@Base 1.6
 _ZN5boost6detail12shared_countC2ERKNS0_10weak_countENS0_14sp_nothrow_tagE@Base 1.6
 (optional=templinst)_ZN5boost6detail12shared_countC2IN14openni_wrapper10DepthImageEEEPT_@Base 1.6
 (optional=templinst)_ZN5boost6detail12shared_countC2IN14openni_wrapper10ImageRGB24EEEPT_@Base 1.6
 (optional=templinst)_ZN5boost6detail12shared_countC2IN14openni_wrapper12DeviceKinectEEEPT_@Base 1.6
 (optional=templinst)_ZN5boost6detail12shared_countC2IN14openni_wrapper14DeviceXtionProEEEPT_@Base 1.6
 (optional=templinst)_ZN5boost6detail12shared_countC2IN14openni_wrapper16DevicePrimesenseEEEPT_@Base 1.6
 (optional=templinst)_ZN5boost6detail12shared_countC2IN14openni_wrapper7IRImageEEEPT_@Base 1.6
 (optional=templinst)_ZN5boost6detail12shared_countC2IN14openni_wrapper9DeviceONIEEEPT_@Base 1.6
 (optional=templinst)_ZN5boost6detail12shared_countC2IN2xn10IRMetaDataEEEPT_@Base 1.6
 (optional=templinst)_ZN5boost6detail12shared_countC2IN2xn13DepthMetaDataEEEPT_@Base 1.6
 (optional=templinst)_ZN5boost6detail12shared_countC2IN2xn13ImageMetaDataEEEPT_@Base 1.6
 (optional=templinst)_ZN5boost6detail12shared_countC2IN2xn8NodeInfoEEEPT_@Base 1.6
 (optional=templinst)_ZN5boost6detail12shared_countC2IN3pcl10PointCloudIN5Eigen6MatrixIfLin1ELin1ELi0ELin1ELin1EEEEEEEPT_@Base 1.6
 (optional=templinst)_ZN5boost6detail12shared_countC2IN3pcl10PointCloudINS3_11PointXYZRGBEEEEEPT_@Base 1.6
 (optional=templinst)_ZN5boost6detail12shared_countC2IN3pcl10PointCloudINS3_12PointXYZRGBAEEEEEPT_@Base 1.6
 (optional=templinst)_ZN5boost6detail12shared_countC2IN3pcl10PointCloudINS3_8PointXYZEEEEEPT_@Base 1.6
 (optional=templinst)_ZN5boost6detail12shared_countC2IN3pcl10PointCloudINS3_9PointXYZIEEEEEPT_@Base 1.6
 (optional=templinst)_ZN5boost6detail12shared_countC2INS0_11thread_dataINS_3_bi6bind_tIvNS_4_mfi3mf0IvN14openni_wrapper12OpenNIDeviceEEENS4_5list1INS4_5valueIPS9_EEEEEEEEEEPT_@Base 1.6
 (optional=templinst)_ZN5boost6detail12shared_countC2INS0_11thread_dataINS_3_bi6bind_tIvNS_4_mfi3mf0IvN14openni_wrapper9DeviceONIEEENS4_5list1INS4_5valueIPS9_EEEEEEEEEEPT_@Base 1.6
 (optional=templinst)_ZN5boost6detail12shared_countC2INS_16exception_detail10clone_implINS3_10bad_alloc_EEEEEPT_@Base 1.6
 (optional=templinst)_ZN5boost6detail12shared_countC2INS_16exception_detail10clone_implINS3_14bad_exception_EEEEEPT_@Base 1.6
 (optional=templinst)_ZN5boost6detail12shared_countC2INS_8signals219optional_last_valueIvEEEEPT_@Base 1.6
 (optional=templinst)_ZN5boost6detail12shared_countC2INS_8signals26detail12grouped_listIiSt4lessIiENS_10shared_ptrINS4_15connection_bodyISt4pairINS4_15slot_meta_groupENS_8optionalIiEEENS3_5slot1IvRKNS8_IKN3pcl10PointCloudIN5Eigen6MatrixIfLin1ELin1ELi0ELin1ELin1EEEEEEENS_8functionIFvSP_EEEEENS3_5mutexEEEEEEEEEPT_@Base 1.6
 (optional=templinst)_ZN5boost6detail12shared_countC2INS_8signals26detail12grouped_listIiSt4lessIiENS_10shared_ptrINS4_15connection_bodyISt4pairINS4_15slot_meta_groupENS_8optionalIiEEENS3_5slot1IvRKNS8_IKN3pcl10PointCloudINSG_11PointXYZRGBEEEEENS_8functionIFvSN_EEEEENS3_5mutexEEEEEEEEEPT_@Base 1.6
 (optional=templinst)_ZN5boost6detail12shared_countC2INS_8signals26detail12grouped_listIiSt4lessIiENS_10shared_ptrINS4_15connection_bodyISt4pairINS4_15slot_meta_groupENS_8optionalIiEEENS3_5slot1IvRKNS8_IKN3pcl10PointCloudINSG_12PointXYZRGBAEEEEENS_8functionIFvSN_EEEEENS3_5mutexEEEEEEEEEPT_@Base 1.6
 (optional=templinst)_ZN5boost6detail12shared_countC2INS_8signals26detail12grouped_listIiSt4lessIiENS_10shared_ptrINS4_15connection_bodyISt4pairINS4_15slot_meta_groupENS_8optionalIiEEENS3_5slot1IvRKNS8_IKN3pcl10PointCloudINSG_8PointXYZEEEEENS_8functionIFvSN_EEEEENS3_5mutexEEEEEEEEEPT_@Base 1.6
 (optional=templinst)_ZN5boost6detail12shared_countC2INS_8signals26detail12grouped_listIiSt4lessIiENS_10shared_ptrINS4_15connection_bodyISt4pairINS4_15slot_meta_groupENS_8optionalIiEEENS3_5slot1IvRKNS8_IKN3pcl10PointCloudINSG_9PointXYZIEEEEENS_8functionIFvSN_EEEEENS3_5mutexEEEEEEEEEPT_@Base 1.6
 (optional=templinst)_ZN5boost6detail12shared_countC2INS_8signals26detail12grouped_listIiSt4lessIiENS_10shared_ptrINS4_15connection_bodyISt4pairINS4_15slot_meta_groupENS_8optionalIiEEENS3_5slot1IvRKNS8_IN14openni_wrapper10DepthImageEEENS_8functionIFvSK_EEEEENS3_5mutexEEEEEEEEEPT_@Base 1.6
 (optional=templinst)_ZN5boost6detail12shared_countC2INS_8signals26detail12grouped_listIiSt4lessIiENS_10shared_ptrINS4_15connection_bodyISt4pairINS4_15slot_meta_groupENS_8optionalIiEEENS3_5slot1IvRKNS8_IN14openni_wrapper5ImageEEENS_8functionIFvSK_EEEEENS3_5mutexEEEEEEEEEPT_@Base 1.6
 (optional=templinst)_ZN5boost6detail12shared_countC2INS_8signals26detail12grouped_listIiSt4lessIiENS_10shared_ptrINS4_15connection_bodyISt4pairINS4_15slot_meta_groupENS_8optionalIiEEENS3_5slot1IvRKNS8_IN14openni_wrapper7IRImageEEENS_8functionIFvSK_EEEEENS3_5mutexEEEEEEEEEPT_@Base 1.6
 (optional=templinst)_ZN5boost6detail12shared_countC2INS_8signals26detail12grouped_listIiSt4lessIiENS_10shared_ptrINS4_15connection_bodyISt4pairINS4_15slot_meta_groupENS_8optionalIiEEENS3_5slot3IvRKNS8_IN14openni_wrapper5ImageEEERKNS8_INSG_10DepthImageEEEfNS_8functionIFvSK_SO_fEEEEENS3_5mutexEEEEEEEEEPT_@Base 1.6
 (optional=templinst)_ZN5boost6detail12shared_countC2INS_8signals26detail12grouped_listIiSt4lessIiENS_10shared_ptrINS4_15connection_bodyISt4pairINS4_15slot_meta_groupENS_8optionalIiEEENS3_5slot3IvRKNS8_IN14openni_wrapper7IRImageEEERKNS8_INSG_10DepthImageEEEfNS_8functionIFvSK_SO_fEEEEENS3_5mutexEEEEEEEEEPT_@Base 1.6
 (optional=templinst)_ZN5boost6detail12shared_countC2INS_8signals26detail12signal1_implIvRKNS_10shared_ptrIKN3pcl10PointCloudIN5Eigen6MatrixIfLin1ELin1ELi0ELin1ELin1EEEEEEENS3_19optional_last_valueIvEEiSt4lessIiENS_8functionIFvSG_EEENSL_IFvRKNS3_10connectionESG_EEENS3_5mutexEE16invocation_stateEEEPT_@Base 1.6
 (optional=templinst)_ZN5boost6detail12shared_countC2INS_8signals26detail12signal1_implIvRKNS_10shared_ptrIKN3pcl10PointCloudIN5Eigen6MatrixIfLin1ELin1ELi0ELin1ELin1EEEEEEENS3_19optional_last_valueIvEEiSt4lessIiENS_8functionIFvSG_EEENSL_IFvRKNS3_10connectionESG_EEENS3_5mutexEEEEEPT_@Base 1.6
 (optional=templinst)_ZN5boost6detail12shared_countC2INS_8signals26detail12signal1_implIvRKNS_10shared_ptrIKN3pcl10PointCloudINS7_11PointXYZRGBEEEEENS3_19optional_last_valueIvEEiSt4lessIiENS_8functionIFvSE_EEENSJ_IFvRKNS3_10connectionESE_EEENS3_5mutexEE16invocation_stateEEEPT_@Base 1.6
 (optional=templinst)_ZN5boost6detail12shared_countC2INS_8signals26detail12signal1_implIvRKNS_10shared_ptrIKN3pcl10PointCloudINS7_11PointXYZRGBEEEEENS3_19optional_last_valueIvEEiSt4lessIiENS_8functionIFvSE_EEENSJ_IFvRKNS3_10connectionESE_EEENS3_5mutexEEEEEPT_@Base 1.6
 (optional=templinst)_ZN5boost6detail12shared_countC2INS_8signals26detail12signal1_implIvRKNS_10shared_ptrIKN3pcl10PointCloudINS7_12PointXYZRGBAEEEEENS3_19optional_last_valueIvEEiSt4lessIiENS_8functionIFvSE_EEENSJ_IFvRKNS3_10connectionESE_EEENS3_5mutexEE16invocation_stateEEEPT_@Base 1.6
 (optional=templinst)_ZN5boost6detail12shared_countC2INS_8signals26detail12signal1_implIvRKNS_10shared_ptrIKN3pcl10PointCloudINS7_12PointXYZRGBAEEEEENS3_19optional_last_valueIvEEiSt4lessIiENS_8functionIFvSE_EEENSJ_IFvRKNS3_10connectionESE_EEENS3_5mutexEEEEEPT_@Base 1.6
 (optional=templinst)_ZN5boost6detail12shared_countC2INS_8signals26detail12signal1_implIvRKNS_10shared_ptrIKN3pcl10PointCloudINS7_8PointXYZEEEEENS3_19optional_last_valueIvEEiSt4lessIiENS_8functionIFvSE_EEENSJ_IFvRKNS3_10connectionESE_EEENS3_5mutexEE16invocation_stateEEEPT_@Base 1.6
 (optional=templinst)_ZN5boost6detail12shared_countC2INS_8signals26detail12signal1_implIvRKNS_10shared_ptrIKN3pcl10PointCloudINS7_8PointXYZEEEEENS3_19optional_last_valueIvEEiSt4lessIiENS_8functionIFvSE_EEENSJ_IFvRKNS3_10connectionESE_EEENS3_5mutexEEEEEPT_@Base 1.6
 (optional=templinst)_ZN5boost6detail12shared_countC2INS_8signals26detail12signal1_implIvRKNS_10shared_ptrIKN3pcl10PointCloudINS7_9PointXYZIEEEEENS3_19optional_last_valueIvEEiSt4lessIiENS_8functionIFvSE_EEENSJ_IFvRKNS3_10connectionESE_EEENS3_5mutexEE16invocation_stateEEEPT_@Base 1.6
 (optional=templinst)_ZN5boost6detail12shared_countC2INS_8signals26detail12signal1_implIvRKNS_10shared_ptrIKN3pcl10PointCloudINS7_9PointXYZIEEEEENS3_19optional_last_valueIvEEiSt4lessIiENS_8functionIFvSE_EEENSJ_IFvRKNS3_10connectionESE_EEENS3_5mutexEEEEEPT_@Base 1.6
 (optional=templinst)_ZN5boost6detail12shared_countC2INS_8signals26detail12signal1_implIvRKNS_10shared_ptrIN14openni_wrapper10DepthImageEEENS3_19optional_last_valueIvEEiSt4lessIiENS_8functionIFvSB_EEENSG_IFvRKNS3_10connectionESB_EEENS3_5mutexEE16invocation_stateEEEPT_@Base 1.6
 (optional=templinst)_ZN5boost6detail12shared_countC2INS_8signals26detail12signal1_implIvRKNS_10shared_ptrIN14openni_wrapper10DepthImageEEENS3_19optional_last_valueIvEEiSt4lessIiENS_8functionIFvSB_EEENSG_IFvRKNS3_10connectionESB_EEENS3_5mutexEEEEEPT_@Base 1.6
 (optional=templinst)_ZN5boost6detail12shared_countC2INS_8signals26detail12signal1_implIvRKNS_10shared_ptrIN14openni_wrapper5ImageEEENS3_19optional_last_valueIvEEiSt4lessIiENS_8functionIFvSB_EEENSG_IFvRKNS3_10connectionESB_EEENS3_5mutexEE16invocation_stateEEEPT_@Base 1.6
 (optional=templinst)_ZN5boost6detail12shared_countC2INS_8signals26detail12signal1_implIvRKNS_10shared_ptrIN14openni_wrapper5ImageEEENS3_19optional_last_valueIvEEiSt4lessIiENS_8functionIFvSB_EEENSG_IFvRKNS3_10connectionESB_EEENS3_5mutexEEEEEPT_@Base 1.6
 (optional=templinst)_ZN5boost6detail12shared_countC2INS_8signals26detail12signal1_implIvRKNS_10shared_ptrIN14openni_wrapper7IRImageEEENS3_19optional_last_valueIvEEiSt4lessIiENS_8functionIFvSB_EEENSG_IFvRKNS3_10connectionESB_EEENS3_5mutexEE16invocation_stateEEEPT_@Base 1.6
 (optional=templinst)_ZN5boost6detail12shared_countC2INS_8signals26detail12signal1_implIvRKNS_10shared_ptrIN14openni_wrapper7IRImageEEENS3_19optional_last_valueIvEEiSt4lessIiENS_8functionIFvSB_EEENSG_IFvRKNS3_10connectionESB_EEENS3_5mutexEEEEEPT_@Base 1.6
 (optional=templinst)_ZN5boost6detail12shared_countC2INS_8signals26detail12signal3_implIvRKNS_10shared_ptrIN14openni_wrapper5ImageEEERKNS6_INS7_10DepthImageEEEfNS3_19optional_last_valueIvEEiSt4lessIiENS_8functionIFvSB_SF_fEEENSK_IFvRKNS3_10connectionESB_SF_fEEENS3_5mutexEE16invocation_stateEEEPT_@Base 1.6
 (optional=templinst)_ZN5boost6detail12shared_countC2INS_8signals26detail12signal3_implIvRKNS_10shared_ptrIN14openni_wrapper5ImageEEERKNS6_INS7_10DepthImageEEEfNS3_19optional_last_valueIvEEiSt4lessIiENS_8functionIFvSB_SF_fEEENSK_IFvRKNS3_10connectionESB_SF_fEEENS3_5mutexEEEEEPT_@Base 1.6
 (optional=templinst)_ZN5boost6detail12shared_countC2INS_8signals26detail12signal3_implIvRKNS_10shared_ptrIN14openni_wrapper7IRImageEEERKNS6_INS7_10DepthImageEEEfNS3_19optional_last_valueIvEEiSt4lessIiENS_8functionIFvSB_SF_fEEENSK_IFvRKNS3_10connectionESB_SF_fEEENS3_5mutexEE16invocation_stateEEEPT_@Base 1.6
 (optional=templinst)_ZN5boost6detail12shared_countC2INS_8signals26detail12signal3_implIvRKNS_10shared_ptrIN14openni_wrapper7IRImageEEERKNS6_INS7_10DepthImageEEEfNS3_19optional_last_valueIvEEiSt4lessIiENS_8functionIFvSB_SF_fEEENSK_IFvRKNS3_10connectionESB_SF_fEEENS3_5mutexEEEEEPT_@Base 1.6
 (optional=templinst)_ZN5boost6detail12shared_countC2IPhNS_21checked_array_deleterIhEEEET_T0_@Base 1.6
 (optional=templinst)_ZN5boost6detail12shared_countC2IPtNS_21checked_array_deleterItEEEET_T0_@Base 1.6
 (optional=templinst)_ZN5boost6detail12shared_countC2IiEEPT_@Base 1.6
 _ZN5boost6detail12shared_countD1Ev@Base 1.6
 _ZN5boost6detail12shared_countD2Ev@Base 1.6
 _ZN5boost6detail12shared_countaSERKS1_@Base 1.6
 (optional=templinst)_ZN5boost6detail13heap_new_implINS0_11thread_dataINS_3_bi6bind_tIvNS_4_mfi3mf0IvN14openni_wrapper12OpenNIDeviceEEENS3_5list1INS3_5valueIPS8_EEEEEEEERSF_EEPT_T0_@Base 1.6
 _ZN5boost6detail15sp_counted_base12weak_releaseEv@Base 1.6
 _ZN5boost6detail15sp_counted_base7destroyEv@Base 1.6
 _ZN5boost6detail15sp_counted_base7releaseEv@Base 1.6
 _ZN5boost6detail15sp_counted_baseD0Ev@Base 1.6
 _ZN5boost6detail15sp_counted_baseD1Ev@Base 1.6
 _ZN5boost6detail15sp_counted_baseD2Ev@Base 1.6
 _ZN5boost6detail16thread_data_baseC1Ev@Base 1.6
 _ZN5boost6detail16thread_data_baseC2Ev@Base 1.6
 (optional=templinst)_ZN5boost6detail17sp_counted_impl_pIN14openni_wrapper10DepthImageEE11get_deleterERKSt9type_info@Base 1.6
 (optional=templinst)_ZN5boost6detail17sp_counted_impl_pIN14openni_wrapper10DepthImageEE7disposeEv@Base 1.6
 (optional=templinst)_ZN5boost6detail17sp_counted_impl_pIN14openni_wrapper10DepthImageEED0Ev@Base 1.6
 (optional=templinst)_ZN5boost6detail17sp_counted_impl_pIN14openni_wrapper10DepthImageEED1Ev@Base 1.6
 (optional=templinst)_ZN5boost6detail17sp_counted_impl_pIN14openni_wrapper10DepthImageEED2Ev@Base 1.6
 (optional=templinst)_ZN5boost6detail17sp_counted_impl_pIN14openni_wrapper10ImageRGB24EE11get_deleterERKSt9type_info@Base 1.6
 (optional=templinst)_ZN5boost6detail17sp_counted_impl_pIN14openni_wrapper10ImageRGB24EE7disposeEv@Base 1.6
 (optional=templinst)_ZN5boost6detail17sp_counted_impl_pIN14openni_wrapper10ImageRGB24EED0Ev@Base 1.6
 (optional=templinst)_ZN5boost6detail17sp_counted_impl_pIN14openni_wrapper10ImageRGB24EED1Ev@Base 1.6
 (optional=templinst)_ZN5boost6detail17sp_counted_impl_pIN14openni_wrapper10ImageRGB24EED2Ev@Base 1.6
 (optional=templinst)_ZN5boost6detail17sp_counted_impl_pIN14openni_wrapper11ImageYUV422EE11get_deleterERKSt9type_info@Base 1.6
 (optional=templinst)_ZN5boost6detail17sp_counted_impl_pIN14openni_wrapper11ImageYUV422EE7disposeEv@Base 1.6
 (optional=templinst)_ZN5boost6detail17sp_counted_impl_pIN14openni_wrapper11ImageYUV422EED0Ev@Base 1.6
 (optional=templinst)_ZN5boost6detail17sp_counted_impl_pIN14openni_wrapper11ImageYUV422EED1Ev@Base 1.6
 (optional=templinst)_ZN5boost6detail17sp_counted_impl_pIN14openni_wrapper11ImageYUV422EED2Ev@Base 1.6
 (optional=templinst)_ZN5boost6detail17sp_counted_impl_pIN14openni_wrapper12DeviceKinectEE11get_deleterERKSt9type_info@Base 1.6
 (optional=templinst)_ZN5boost6detail17sp_counted_impl_pIN14openni_wrapper12DeviceKinectEE7disposeEv@Base 1.6
 (optional=templinst)_ZN5boost6detail17sp_counted_impl_pIN14openni_wrapper12DeviceKinectEED0Ev@Base 1.6
 (optional=templinst)_ZN5boost6detail17sp_counted_impl_pIN14openni_wrapper12DeviceKinectEED1Ev@Base 1.6
 (optional=templinst)_ZN5boost6detail17sp_counted_impl_pIN14openni_wrapper12DeviceKinectEED2Ev@Base 1.6
 (optional=templinst)_ZN5boost6detail17sp_counted_impl_pIN14openni_wrapper14DeviceXtionProEE11get_deleterERKSt9type_info@Base 1.6
 (optional=templinst)_ZN5boost6detail17sp_counted_impl_pIN14openni_wrapper14DeviceXtionProEE7disposeEv@Base 1.6
 (optional=templinst)_ZN5boost6detail17sp_counted_impl_pIN14openni_wrapper14DeviceXtionProEED0Ev@Base 1.6
 (optional=templinst)_ZN5boost6detail17sp_counted_impl_pIN14openni_wrapper14DeviceXtionProEED1Ev@Base 1.6
 (optional=templinst)_ZN5boost6detail17sp_counted_impl_pIN14openni_wrapper14DeviceXtionProEED2Ev@Base 1.6
 (optional=templinst)_ZN5boost6detail17sp_counted_impl_pIN14openni_wrapper14ImageBayerGRBGEE11get_deleterERKSt9type_info@Base 1.6
 (optional=templinst)_ZN5boost6detail17sp_counted_impl_pIN14openni_wrapper14ImageBayerGRBGEE7disposeEv@Base 1.6
 (optional=templinst)_ZN5boost6detail17sp_counted_impl_pIN14openni_wrapper14ImageBayerGRBGEED0Ev@Base 1.6
 (optional=templinst)_ZN5boost6detail17sp_counted_impl_pIN14openni_wrapper14ImageBayerGRBGEED1Ev@Base 1.6
 (optional=templinst)_ZN5boost6detail17sp_counted_impl_pIN14openni_wrapper14ImageBayerGRBGEED2Ev@Base 1.6
 (optional=templinst)_ZN5boost6detail17sp_counted_impl_pIN14openni_wrapper16DevicePrimesenseEE11get_deleterERKSt9type_info@Base 1.6
 (optional=templinst)_ZN5boost6detail17sp_counted_impl_pIN14openni_wrapper16DevicePrimesenseEE7disposeEv@Base 1.6
 (optional=templinst)_ZN5boost6detail17sp_counted_impl_pIN14openni_wrapper16DevicePrimesenseEED0Ev@Base 1.6
 (optional=templinst)_ZN5boost6detail17sp_counted_impl_pIN14openni_wrapper16DevicePrimesenseEED1Ev@Base 1.6
 (optional=templinst)_ZN5boost6detail17sp_counted_impl_pIN14openni_wrapper16DevicePrimesenseEED2Ev@Base 1.6
 (optional=templinst)_ZN5boost6detail17sp_counted_impl_pIN14openni_wrapper5ImageEE11get_deleterERKSt9type_info@Base 1.6
 (optional=templinst)_ZN5boost6detail17sp_counted_impl_pIN14openni_wrapper5ImageEE7disposeEv@Base 1.6
 (optional=templinst)_ZN5boost6detail17sp_counted_impl_pIN14openni_wrapper5ImageEED0Ev@Base 1.6
 (optional=templinst)_ZN5boost6detail17sp_counted_impl_pIN14openni_wrapper5ImageEED1Ev@Base 1.6
 (optional=templinst)_ZN5boost6detail17sp_counted_impl_pIN14openni_wrapper5ImageEED2Ev@Base 1.6
 (optional=templinst)_ZN5boost6detail17sp_counted_impl_pIN14openni_wrapper7IRImageEE11get_deleterERKSt9type_info@Base 1.6
 (optional=templinst)_ZN5boost6detail17sp_counted_impl_pIN14openni_wrapper7IRImageEE7disposeEv@Base 1.6
 (optional=templinst)_ZN5boost6detail17sp_counted_impl_pIN14openni_wrapper7IRImageEED0Ev@Base 1.6
 (optional=templinst)_ZN5boost6detail17sp_counted_impl_pIN14openni_wrapper7IRImageEED1Ev@Base 1.6
 (optional=templinst)_ZN5boost6detail17sp_counted_impl_pIN14openni_wrapper7IRImageEED2Ev@Base 1.6
 (optional=templinst)_ZN5boost6detail17sp_counted_impl_pIN14openni_wrapper9DeviceONIEE11get_deleterERKSt9type_info@Base 1.6
 (optional=templinst)_ZN5boost6detail17sp_counted_impl_pIN14openni_wrapper9DeviceONIEE7disposeEv@Base 1.6
 (optional=templinst)_ZN5boost6detail17sp_counted_impl_pIN14openni_wrapper9DeviceONIEED0Ev@Base 1.6
 (optional=templinst)_ZN5boost6detail17sp_counted_impl_pIN14openni_wrapper9DeviceONIEED1Ev@Base 1.6
 (optional=templinst)_ZN5boost6detail17sp_counted_impl_pIN14openni_wrapper9DeviceONIEED2Ev@Base 1.6
 (optional=templinst)_ZN5boost6detail17sp_counted_impl_pIN2xn10IRMetaDataEE11get_deleterERKSt9type_info@Base 1.6
 (optional=templinst)_ZN5boost6detail17sp_counted_impl_pIN2xn10IRMetaDataEE7disposeEv@Base 1.6
 (optional=templinst)_ZN5boost6detail17sp_counted_impl_pIN2xn10IRMetaDataEED0Ev@Base 1.6
 (optional=templinst)_ZN5boost6detail17sp_counted_impl_pIN2xn10IRMetaDataEED1Ev@Base 1.6
 (optional=templinst)_ZN5boost6detail17sp_counted_impl_pIN2xn10IRMetaDataEED2Ev@Base 1.6
 (optional=templinst)_ZN5boost6detail17sp_counted_impl_pIN2xn13DepthMetaDataEE11get_deleterERKSt9type_info@Base 1.6
 (optional=templinst)_ZN5boost6detail17sp_counted_impl_pIN2xn13DepthMetaDataEE7disposeEv@Base 1.6
 (optional=templinst)_ZN5boost6detail17sp_counted_impl_pIN2xn13DepthMetaDataEED0Ev@Base 1.6
 (optional=templinst)_ZN5boost6detail17sp_counted_impl_pIN2xn13DepthMetaDataEED1Ev@Base 1.6
 (optional=templinst)_ZN5boost6detail17sp_counted_impl_pIN2xn13DepthMetaDataEED2Ev@Base 1.6
 (optional=templinst)_ZN5boost6detail17sp_counted_impl_pIN2xn13ImageMetaDataEE11get_deleterERKSt9type_info@Base 1.6
 (optional=templinst)_ZN5boost6detail17sp_counted_impl_pIN2xn13ImageMetaDataEE7disposeEv@Base 1.6
 (optional=templinst)_ZN5boost6detail17sp_counted_impl_pIN2xn13ImageMetaDataEED0Ev@Base 1.6
 (optional=templinst)_ZN5boost6detail17sp_counted_impl_pIN2xn13ImageMetaDataEED1Ev@Base 1.6
 (optional=templinst)_ZN5boost6detail17sp_counted_impl_pIN2xn13ImageMetaDataEED2Ev@Base 1.6
 (optional=templinst)_ZN5boost6detail17sp_counted_impl_pIN2xn8NodeInfoEE11get_deleterERKSt9type_info@Base 1.6
 (optional=templinst)_ZN5boost6detail17sp_counted_impl_pIN2xn8NodeInfoEE7disposeEv@Base 1.6
 (optional=templinst)_ZN5boost6detail17sp_counted_impl_pIN2xn8NodeInfoEED0Ev@Base 1.6
 (optional=templinst)_ZN5boost6detail17sp_counted_impl_pIN2xn8NodeInfoEED1Ev@Base 1.6
 (optional=templinst)_ZN5boost6detail17sp_counted_impl_pIN2xn8NodeInfoEED2Ev@Base 1.6
 (optional=templinst)_ZN5boost6detail17sp_counted_impl_pIN3pcl10PointCloudIN5Eigen6MatrixIfLin1ELin1ELi0ELin1ELin1EEEEEE11get_deleterERKSt9type_info@Base 1.6
 (optional=templinst)_ZN5boost6detail17sp_counted_impl_pIN3pcl10PointCloudIN5Eigen6MatrixIfLin1ELin1ELi0ELin1ELin1EEEEEE7disposeEv@Base 1.6
 (optional=templinst)_ZN5boost6detail17sp_counted_impl_pIN3pcl10PointCloudIN5Eigen6MatrixIfLin1ELin1ELi0ELin1ELin1EEEEEED0Ev@Base 1.6
 (optional=templinst)_ZN5boost6detail17sp_counted_impl_pIN3pcl10PointCloudIN5Eigen6MatrixIfLin1ELin1ELi0ELin1ELin1EEEEEED1Ev@Base 1.6
 (optional=templinst)_ZN5boost6detail17sp_counted_impl_pIN3pcl10PointCloudIN5Eigen6MatrixIfLin1ELin1ELi0ELin1ELin1EEEEEED2Ev@Base 1.6
 (optional=templinst)_ZN5boost6detail17sp_counted_impl_pIN3pcl10PointCloudINS2_11PointXYZRGBEEEE11get_deleterERKSt9type_info@Base 1.6
 (optional=templinst)_ZN5boost6detail17sp_counted_impl_pIN3pcl10PointCloudINS2_11PointXYZRGBEEEE7disposeEv@Base 1.6
 (optional=templinst)_ZN5boost6detail17sp_counted_impl_pIN3pcl10PointCloudINS2_11PointXYZRGBEEEED0Ev@Base 1.6
 (optional=templinst)_ZN5boost6detail17sp_counted_impl_pIN3pcl10PointCloudINS2_11PointXYZRGBEEEED1Ev@Base 1.6
 (optional=templinst)_ZN5boost6detail17sp_counted_impl_pIN3pcl10PointCloudINS2_11PointXYZRGBEEEED2Ev@Base 1.6
 (optional=templinst)_ZN5boost6detail17sp_counted_impl_pIN3pcl10PointCloudINS2_12PointXYZRGBAEEEE11get_deleterERKSt9type_info@Base 1.6
 (optional=templinst)_ZN5boost6detail17sp_counted_impl_pIN3pcl10PointCloudINS2_12PointXYZRGBAEEEE7disposeEv@Base 1.6
 (optional=templinst)_ZN5boost6detail17sp_counted_impl_pIN3pcl10PointCloudINS2_12PointXYZRGBAEEEED0Ev@Base 1.6
 (optional=templinst)_ZN5boost6detail17sp_counted_impl_pIN3pcl10PointCloudINS2_12PointXYZRGBAEEEED1Ev@Base 1.6
 (optional=templinst)_ZN5boost6detail17sp_counted_impl_pIN3pcl10PointCloudINS2_12PointXYZRGBAEEEED2Ev@Base 1.6
 (optional=templinst)_ZN5boost6detail17sp_counted_impl_pIN3pcl10PointCloudINS2_8PointXYZEEEE11get_deleterERKSt9type_info@Base 1.6
 (optional=templinst)_ZN5boost6detail17sp_counted_impl_pIN3pcl10PointCloudINS2_8PointXYZEEEE7disposeEv@Base 1.6
 (optional=templinst)_ZN5boost6detail17sp_counted_impl_pIN3pcl10PointCloudINS2_8PointXYZEEEED0Ev@Base 1.6
 (optional=templinst)_ZN5boost6detail17sp_counted_impl_pIN3pcl10PointCloudINS2_8PointXYZEEEED1Ev@Base 1.6
 (optional=templinst)_ZN5boost6detail17sp_counted_impl_pIN3pcl10PointCloudINS2_8PointXYZEEEED2Ev@Base 1.6
 (optional=templinst)_ZN5boost6detail17sp_counted_impl_pIN3pcl10PointCloudINS2_9PointXYZIEEEE11get_deleterERKSt9type_info@Base 1.6
 (optional=templinst)_ZN5boost6detail17sp_counted_impl_pIN3pcl10PointCloudINS2_9PointXYZIEEEE7disposeEv@Base 1.6
 (optional=templinst)_ZN5boost6detail17sp_counted_impl_pIN3pcl10PointCloudINS2_9PointXYZIEEEED0Ev@Base 1.6
 (optional=templinst)_ZN5boost6detail17sp_counted_impl_pIN3pcl10PointCloudINS2_9PointXYZIEEEED1Ev@Base 1.6
 (optional=templinst)_ZN5boost6detail17sp_counted_impl_pIN3pcl10PointCloudINS2_9PointXYZIEEEED2Ev@Base 1.6
 (optional=templinst)_ZN5boost6detail17sp_counted_impl_pINS0_11thread_dataINS_3_bi6bind_tIvNS_4_mfi3mf0IvN14openni_wrapper12OpenNIDeviceEEENS3_5list1INS3_5valueIPS8_EEEEEEEEE11get_deleterERKSt9type_info@Base 1.6
 (optional=templinst)_ZN5boost6detail17sp_counted_impl_pINS0_11thread_dataINS_3_bi6bind_tIvNS_4_mfi3mf0IvN14openni_wrapper12OpenNIDeviceEEENS3_5list1INS3_5valueIPS8_EEEEEEEEE7disposeEv@Base 1.6
 (optional=templinst)_ZN5boost6detail17sp_counted_impl_pINS0_11thread_dataINS_3_bi6bind_tIvNS_4_mfi3mf0IvN14openni_wrapper12OpenNIDeviceEEENS3_5list1INS3_5valueIPS8_EEEEEEEEED0Ev@Base 1.6
 (optional=templinst)_ZN5boost6detail17sp_counted_impl_pINS0_11thread_dataINS_3_bi6bind_tIvNS_4_mfi3mf0IvN14openni_wrapper12OpenNIDeviceEEENS3_5list1INS3_5valueIPS8_EEEEEEEEED1Ev@Base 1.6
 (optional=templinst)_ZN5boost6detail17sp_counted_impl_pINS0_11thread_dataINS_3_bi6bind_tIvNS_4_mfi3mf0IvN14openni_wrapper12OpenNIDeviceEEENS3_5list1INS3_5valueIPS8_EEEEEEEEED2Ev@Base 1.6
 (optional=templinst)_ZN5boost6detail17sp_counted_impl_pINS0_11thread_dataINS_3_bi6bind_tIvNS_4_mfi3mf0IvN14openni_wrapper9DeviceONIEEENS3_5list1INS3_5valueIPS8_EEEEEEEEE11get_deleterERKSt9type_info@Base 1.6
 (optional=templinst)_ZN5boost6detail17sp_counted_impl_pINS0_11thread_dataINS_3_bi6bind_tIvNS_4_mfi3mf0IvN14openni_wrapper9DeviceONIEEENS3_5list1INS3_5valueIPS8_EEEEEEEEE7disposeEv@Base 1.6
 (optional=templinst)_ZN5boost6detail17sp_counted_impl_pINS0_11thread_dataINS_3_bi6bind_tIvNS_4_mfi3mf0IvN14openni_wrapper9DeviceONIEEENS3_5list1INS3_5valueIPS8_EEEEEEEEED0Ev@Base 1.6
 (optional=templinst)_ZN5boost6detail17sp_counted_impl_pINS0_11thread_dataINS_3_bi6bind_tIvNS_4_mfi3mf0IvN14openni_wrapper9DeviceONIEEENS3_5list1INS3_5valueIPS8_EEEEEEEEED1Ev@Base 1.6
 (optional=templinst)_ZN5boost6detail17sp_counted_impl_pINS0_11thread_dataINS_3_bi6bind_tIvNS_4_mfi3mf0IvN14openni_wrapper9DeviceONIEEENS3_5list1INS3_5valueIPS8_EEEEEEEEED2Ev@Base 1.6
 (optional=templinst)_ZN5boost6detail17sp_counted_impl_pINS_16exception_detail10clone_implINS2_10bad_alloc_EEEE11get_deleterERKSt9type_info@Base 1.6
 (optional=templinst)_ZN5boost6detail17sp_counted_impl_pINS_16exception_detail10clone_implINS2_10bad_alloc_EEEE7disposeEv@Base 1.6
 (optional=templinst)_ZN5boost6detail17sp_counted_impl_pINS_16exception_detail10clone_implINS2_10bad_alloc_EEEED0Ev@Base 1.6
 (optional=templinst)_ZN5boost6detail17sp_counted_impl_pINS_16exception_detail10clone_implINS2_10bad_alloc_EEEED1Ev@Base 1.6
 (optional=templinst)_ZN5boost6detail17sp_counted_impl_pINS_16exception_detail10clone_implINS2_10bad_alloc_EEEED2Ev@Base 1.6
 (optional=templinst)_ZN5boost6detail17sp_counted_impl_pINS_16exception_detail10clone_implINS2_14bad_exception_EEEE11get_deleterERKSt9type_info@Base 1.6
 (optional=templinst)_ZN5boost6detail17sp_counted_impl_pINS_16exception_detail10clone_implINS2_14bad_exception_EEEE7disposeEv@Base 1.6
 (optional=templinst)_ZN5boost6detail17sp_counted_impl_pINS_16exception_detail10clone_implINS2_14bad_exception_EEEED0Ev@Base 1.6
 (optional=templinst)_ZN5boost6detail17sp_counted_impl_pINS_16exception_detail10clone_implINS2_14bad_exception_EEEED1Ev@Base 1.6
 (optional=templinst)_ZN5boost6detail17sp_counted_impl_pINS_16exception_detail10clone_implINS2_14bad_exception_EEEED2Ev@Base 1.6
 (optional=templinst)_ZN5boost6detail17sp_counted_impl_pINS_8signals219optional_last_valueIvEEE11get_deleterERKSt9type_info@Base 1.6
 (optional=templinst)_ZN5boost6detail17sp_counted_impl_pINS_8signals219optional_last_valueIvEEE7disposeEv@Base 1.6
 (optional=templinst)_ZN5boost6detail17sp_counted_impl_pINS_8signals219optional_last_valueIvEEED0Ev@Base 1.6
 (optional=templinst)_ZN5boost6detail17sp_counted_impl_pINS_8signals219optional_last_valueIvEEED1Ev@Base 1.6
 (optional=templinst)_ZN5boost6detail17sp_counted_impl_pINS_8signals219optional_last_valueIvEEED2Ev@Base 1.6
 (optional=templinst)_ZN5boost6detail17sp_counted_impl_pINS_8signals26detail12grouped_listIiSt4lessIiENS_10shared_ptrINS3_15connection_bodyISt4pairINS3_15slot_meta_groupENS_8optionalIiEEENS2_5slot1IvRKNS7_IKN3pcl10PointCloudIN5Eigen6MatrixIfLin1ELin1ELi0ELin1ELin1EEEEEEENS_8functionIFvSO_EEEEENS2_5mutexEEEEEEEE11get_deleterERKSt9type_info@Base 1.6
 (optional=templinst)_ZN5boost6detail17sp_counted_impl_pINS_8signals26detail12grouped_listIiSt4lessIiENS_10shared_ptrINS3_15connection_bodyISt4pairINS3_15slot_meta_groupENS_8optionalIiEEENS2_5slot1IvRKNS7_IKN3pcl10PointCloudIN5Eigen6MatrixIfLin1ELin1ELi0ELin1ELin1EEEEEEENS_8functionIFvSO_EEEEENS2_5mutexEEEEEEEE7disposeEv@Base 1.6
 (optional=templinst)_ZN5boost6detail17sp_counted_impl_pINS_8signals26detail12grouped_listIiSt4lessIiENS_10shared_ptrINS3_15connection_bodyISt4pairINS3_15slot_meta_groupENS_8optionalIiEEENS2_5slot1IvRKNS7_IKN3pcl10PointCloudIN5Eigen6MatrixIfLin1ELin1ELi0ELin1ELin1EEEEEEENS_8functionIFvSO_EEEEENS2_5mutexEEEEEEEED0Ev@Base 1.6
 (optional=templinst)_ZN5boost6detail17sp_counted_impl_pINS_8signals26detail12grouped_listIiSt4lessIiENS_10shared_ptrINS3_15connection_bodyISt4pairINS3_15slot_meta_groupENS_8optionalIiEEENS2_5slot1IvRKNS7_IKN3pcl10PointCloudIN5Eigen6MatrixIfLin1ELin1ELi0ELin1ELin1EEEEEEENS_8functionIFvSO_EEEEENS2_5mutexEEEEEEEED1Ev@Base 1.6
 (optional=templinst)_ZN5boost6detail17sp_counted_impl_pINS_8signals26detail12grouped_listIiSt4lessIiENS_10shared_ptrINS3_15connection_bodyISt4pairINS3_15slot_meta_groupENS_8optionalIiEEENS2_5slot1IvRKNS7_IKN3pcl10PointCloudIN5Eigen6MatrixIfLin1ELin1ELi0ELin1ELin1EEEEEEENS_8functionIFvSO_EEEEENS2_5mutexEEEEEEEED2Ev@Base 1.6
 (optional=templinst)_ZN5boost6detail17sp_counted_impl_pINS_8signals26detail12grouped_listIiSt4lessIiENS_10shared_ptrINS3_15connection_bodyISt4pairINS3_15slot_meta_groupENS_8optionalIiEEENS2_5slot1IvRKNS7_IKN3pcl10PointCloudINSF_11PointXYZRGBEEEEENS_8functionIFvSM_EEEEENS2_5mutexEEEEEEEE11get_deleterERKSt9type_info@Base 1.6
 (optional=templinst)_ZN5boost6detail17sp_counted_impl_pINS_8signals26detail12grouped_listIiSt4lessIiENS_10shared_ptrINS3_15connection_bodyISt4pairINS3_15slot_meta_groupENS_8optionalIiEEENS2_5slot1IvRKNS7_IKN3pcl10PointCloudINSF_11PointXYZRGBEEEEENS_8functionIFvSM_EEEEENS2_5mutexEEEEEEEE7disposeEv@Base 1.6
 (optional=templinst)_ZN5boost6detail17sp_counted_impl_pINS_8signals26detail12grouped_listIiSt4lessIiENS_10shared_ptrINS3_15connection_bodyISt4pairINS3_15slot_meta_groupENS_8optionalIiEEENS2_5slot1IvRKNS7_IKN3pcl10PointCloudINSF_11PointXYZRGBEEEEENS_8functionIFvSM_EEEEENS2_5mutexEEEEEEEED0Ev@Base 1.6
 (optional=templinst)_ZN5boost6detail17sp_counted_impl_pINS_8signals26detail12grouped_listIiSt4lessIiENS_10shared_ptrINS3_15connection_bodyISt4pairINS3_15slot_meta_groupENS_8optionalIiEEENS2_5slot1IvRKNS7_IKN3pcl10PointCloudINSF_11PointXYZRGBEEEEENS_8functionIFvSM_EEEEENS2_5mutexEEEEEEEED1Ev@Base 1.6
 (optional=templinst)_ZN5boost6detail17sp_counted_impl_pINS_8signals26detail12grouped_listIiSt4lessIiENS_10shared_ptrINS3_15connection_bodyISt4pairINS3_15slot_meta_groupENS_8optionalIiEEENS2_5slot1IvRKNS7_IKN3pcl10PointCloudINSF_11PointXYZRGBEEEEENS_8functionIFvSM_EEEEENS2_5mutexEEEEEEEED2Ev@Base 1.6
 (optional=templinst)_ZN5boost6detail17sp_counted_impl_pINS_8signals26detail12grouped_listIiSt4lessIiENS_10shared_ptrINS3_15connection_bodyISt4pairINS3_15slot_meta_groupENS_8optionalIiEEENS2_5slot1IvRKNS7_IKN3pcl10PointCloudINSF_12PointXYZRGBAEEEEENS_8functionIFvSM_EEEEENS2_5mutexEEEEEEEE11get_deleterERKSt9type_info@Base 1.6
 (optional=templinst)_ZN5boost6detail17sp_counted_impl_pINS_8signals26detail12grouped_listIiSt4lessIiENS_10shared_ptrINS3_15connection_bodyISt4pairINS3_15slot_meta_groupENS_8optionalIiEEENS2_5slot1IvRKNS7_IKN3pcl10PointCloudINSF_12PointXYZRGBAEEEEENS_8functionIFvSM_EEEEENS2_5mutexEEEEEEEE7disposeEv@Base 1.6
 (optional=templinst)_ZN5boost6detail17sp_counted_impl_pINS_8signals26detail12grouped_listIiSt4lessIiENS_10shared_ptrINS3_15connection_bodyISt4pairINS3_15slot_meta_groupENS_8optionalIiEEENS2_5slot1IvRKNS7_IKN3pcl10PointCloudINSF_12PointXYZRGBAEEEEENS_8functionIFvSM_EEEEENS2_5mutexEEEEEEEED0Ev@Base 1.6
 (optional=templinst)_ZN5boost6detail17sp_counted_impl_pINS_8signals26detail12grouped_listIiSt4lessIiENS_10shared_ptrINS3_15connection_bodyISt4pairINS3_15slot_meta_groupENS_8optionalIiEEENS2_5slot1IvRKNS7_IKN3pcl10PointCloudINSF_12PointXYZRGBAEEEEENS_8functionIFvSM_EEEEENS2_5mutexEEEEEEEED1Ev@Base 1.6
 (optional=templinst)_ZN5boost6detail17sp_counted_impl_pINS_8signals26detail12grouped_listIiSt4lessIiENS_10shared_ptrINS3_15connection_bodyISt4pairINS3_15slot_meta_groupENS_8optionalIiEEENS2_5slot1IvRKNS7_IKN3pcl10PointCloudINSF_12PointXYZRGBAEEEEENS_8functionIFvSM_EEEEENS2_5mutexEEEEEEEED2Ev@Base 1.6
 (optional=templinst)_ZN5boost6detail17sp_counted_impl_pINS_8signals26detail12grouped_listIiSt4lessIiENS_10shared_ptrINS3_15connection_bodyISt4pairINS3_15slot_meta_groupENS_8optionalIiEEENS2_5slot1IvRKNS7_IKN3pcl10PointCloudINSF_8PointXYZEEEEENS_8functionIFvSM_EEEEENS2_5mutexEEEEEEEE11get_deleterERKSt9type_info@Base 1.6
 (optional=templinst)_ZN5boost6detail17sp_counted_impl_pINS_8signals26detail12grouped_listIiSt4lessIiENS_10shared_ptrINS3_15connection_bodyISt4pairINS3_15slot_meta_groupENS_8optionalIiEEENS2_5slot1IvRKNS7_IKN3pcl10PointCloudINSF_8PointXYZEEEEENS_8functionIFvSM_EEEEENS2_5mutexEEEEEEEE7disposeEv@Base 1.6
 (optional=templinst)_ZN5boost6detail17sp_counted_impl_pINS_8signals26detail12grouped_listIiSt4lessIiENS_10shared_ptrINS3_15connection_bodyISt4pairINS3_15slot_meta_groupENS_8optionalIiEEENS2_5slot1IvRKNS7_IKN3pcl10PointCloudINSF_8PointXYZEEEEENS_8functionIFvSM_EEEEENS2_5mutexEEEEEEEED0Ev@Base 1.6
 (optional=templinst)_ZN5boost6detail17sp_counted_impl_pINS_8signals26detail12grouped_listIiSt4lessIiENS_10shared_ptrINS3_15connection_bodyISt4pairINS3_15slot_meta_groupENS_8optionalIiEEENS2_5slot1IvRKNS7_IKN3pcl10PointCloudINSF_8PointXYZEEEEENS_8functionIFvSM_EEEEENS2_5mutexEEEEEEEED1Ev@Base 1.6
 (optional=templinst)_ZN5boost6detail17sp_counted_impl_pINS_8signals26detail12grouped_listIiSt4lessIiENS_10shared_ptrINS3_15connection_bodyISt4pairINS3_15slot_meta_groupENS_8optionalIiEEENS2_5slot1IvRKNS7_IKN3pcl10PointCloudINSF_8PointXYZEEEEENS_8functionIFvSM_EEEEENS2_5mutexEEEEEEEED2Ev@Base 1.6
 (optional=templinst)_ZN5boost6detail17sp_counted_impl_pINS_8signals26detail12grouped_listIiSt4lessIiENS_10shared_ptrINS3_15connection_bodyISt4pairINS3_15slot_meta_groupENS_8optionalIiEEENS2_5slot1IvRKNS7_IKN3pcl10PointCloudINSF_9PointXYZIEEEEENS_8functionIFvSM_EEEEENS2_5mutexEEEEEEEE11get_deleterERKSt9type_info@Base 1.6
 (optional=templinst)_ZN5boost6detail17sp_counted_impl_pINS_8signals26detail12grouped_listIiSt4lessIiENS_10shared_ptrINS3_15connection_bodyISt4pairINS3_15slot_meta_groupENS_8optionalIiEEENS2_5slot1IvRKNS7_IKN3pcl10PointCloudINSF_9PointXYZIEEEEENS_8functionIFvSM_EEEEENS2_5mutexEEEEEEEE7disposeEv@Base 1.6
 (optional=templinst)_ZN5boost6detail17sp_counted_impl_pINS_8signals26detail12grouped_listIiSt4lessIiENS_10shared_ptrINS3_15connection_bodyISt4pairINS3_15slot_meta_groupENS_8optionalIiEEENS2_5slot1IvRKNS7_IKN3pcl10PointCloudINSF_9PointXYZIEEEEENS_8functionIFvSM_EEEEENS2_5mutexEEEEEEEED0Ev@Base 1.6
 (optional=templinst)_ZN5boost6detail17sp_counted_impl_pINS_8signals26detail12grouped_listIiSt4lessIiENS_10shared_ptrINS3_15connection_bodyISt4pairINS3_15slot_meta_groupENS_8optionalIiEEENS2_5slot1IvRKNS7_IKN3pcl10PointCloudINSF_9PointXYZIEEEEENS_8functionIFvSM_EEEEENS2_5mutexEEEEEEEED1Ev@Base 1.6
 (optional=templinst)_ZN5boost6detail17sp_counted_impl_pINS_8signals26detail12grouped_listIiSt4lessIiENS_10shared_ptrINS3_15connection_bodyISt4pairINS3_15slot_meta_groupENS_8optionalIiEEENS2_5slot1IvRKNS7_IKN3pcl10PointCloudINSF_9PointXYZIEEEEENS_8functionIFvSM_EEEEENS2_5mutexEEEEEEEED2Ev@Base 1.6
 (optional=templinst)_ZN5boost6detail17sp_counted_impl_pINS_8signals26detail12grouped_listIiSt4lessIiENS_10shared_ptrINS3_15connection_bodyISt4pairINS3_15slot_meta_groupENS_8optionalIiEEENS2_5slot1IvRKNS7_IN14openni_wrapper10DepthImageEEENS_8functionIFvSJ_EEEEENS2_5mutexEEEEEEEE11get_deleterERKSt9type_info@Base 1.6
 (optional=templinst)_ZN5boost6detail17sp_counted_impl_pINS_8signals26detail12grouped_listIiSt4lessIiENS_10shared_ptrINS3_15connection_bodyISt4pairINS3_15slot_meta_groupENS_8optionalIiEEENS2_5slot1IvRKNS7_IN14openni_wrapper10DepthImageEEENS_8functionIFvSJ_EEEEENS2_5mutexEEEEEEEE7disposeEv@Base 1.6
 (optional=templinst)_ZN5boost6detail17sp_counted_impl_pINS_8signals26detail12grouped_listIiSt4lessIiENS_10shared_ptrINS3_15connection_bodyISt4pairINS3_15slot_meta_groupENS_8optionalIiEEENS2_5slot1IvRKNS7_IN14openni_wrapper10DepthImageEEENS_8functionIFvSJ_EEEEENS2_5mutexEEEEEEEED0Ev@Base 1.6
 (optional=templinst)_ZN5boost6detail17sp_counted_impl_pINS_8signals26detail12grouped_listIiSt4lessIiENS_10shared_ptrINS3_15connection_bodyISt4pairINS3_15slot_meta_groupENS_8optionalIiEEENS2_5slot1IvRKNS7_IN14openni_wrapper10DepthImageEEENS_8functionIFvSJ_EEEEENS2_5mutexEEEEEEEED1Ev@Base 1.6
 (optional=templinst)_ZN5boost6detail17sp_counted_impl_pINS_8signals26detail12grouped_listIiSt4lessIiENS_10shared_ptrINS3_15connection_bodyISt4pairINS3_15slot_meta_groupENS_8optionalIiEEENS2_5slot1IvRKNS7_IN14openni_wrapper10DepthImageEEENS_8functionIFvSJ_EEEEENS2_5mutexEEEEEEEED2Ev@Base 1.6
 (optional=templinst)_ZN5boost6detail17sp_counted_impl_pINS_8signals26detail12grouped_listIiSt4lessIiENS_10shared_ptrINS3_15connection_bodyISt4pairINS3_15slot_meta_groupENS_8optionalIiEEENS2_5slot1IvRKNS7_IN14openni_wrapper5ImageEEENS_8functionIFvSJ_EEEEENS2_5mutexEEEEEEEE11get_deleterERKSt9type_info@Base 1.6
 (optional=templinst)_ZN5boost6detail17sp_counted_impl_pINS_8signals26detail12grouped_listIiSt4lessIiENS_10shared_ptrINS3_15connection_bodyISt4pairINS3_15slot_meta_groupENS_8optionalIiEEENS2_5slot1IvRKNS7_IN14openni_wrapper5ImageEEENS_8functionIFvSJ_EEEEENS2_5mutexEEEEEEEE7disposeEv@Base 1.6
 (optional=templinst)_ZN5boost6detail17sp_counted_impl_pINS_8signals26detail12grouped_listIiSt4lessIiENS_10shared_ptrINS3_15connection_bodyISt4pairINS3_15slot_meta_groupENS_8optionalIiEEENS2_5slot1IvRKNS7_IN14openni_wrapper5ImageEEENS_8functionIFvSJ_EEEEENS2_5mutexEEEEEEEED0Ev@Base 1.6
 (optional=templinst)_ZN5boost6detail17sp_counted_impl_pINS_8signals26detail12grouped_listIiSt4lessIiENS_10shared_ptrINS3_15connection_bodyISt4pairINS3_15slot_meta_groupENS_8optionalIiEEENS2_5slot1IvRKNS7_IN14openni_wrapper5ImageEEENS_8functionIFvSJ_EEEEENS2_5mutexEEEEEEEED1Ev@Base 1.6
 (optional=templinst)_ZN5boost6detail17sp_counted_impl_pINS_8signals26detail12grouped_listIiSt4lessIiENS_10shared_ptrINS3_15connection_bodyISt4pairINS3_15slot_meta_groupENS_8optionalIiEEENS2_5slot1IvRKNS7_IN14openni_wrapper5ImageEEENS_8functionIFvSJ_EEEEENS2_5mutexEEEEEEEED2Ev@Base 1.6
 (optional=templinst)_ZN5boost6detail17sp_counted_impl_pINS_8signals26detail12grouped_listIiSt4lessIiENS_10shared_ptrINS3_15connection_bodyISt4pairINS3_15slot_meta_groupENS_8optionalIiEEENS2_5slot1IvRKNS7_IN14openni_wrapper7IRImageEEENS_8functionIFvSJ_EEEEENS2_5mutexEEEEEEEE11get_deleterERKSt9type_info@Base 1.6
 (optional=templinst)_ZN5boost6detail17sp_counted_impl_pINS_8signals26detail12grouped_listIiSt4lessIiENS_10shared_ptrINS3_15connection_bodyISt4pairINS3_15slot_meta_groupENS_8optionalIiEEENS2_5slot1IvRKNS7_IN14openni_wrapper7IRImageEEENS_8functionIFvSJ_EEEEENS2_5mutexEEEEEEEE7disposeEv@Base 1.6
 (optional=templinst)_ZN5boost6detail17sp_counted_impl_pINS_8signals26detail12grouped_listIiSt4lessIiENS_10shared_ptrINS3_15connection_bodyISt4pairINS3_15slot_meta_groupENS_8optionalIiEEENS2_5slot1IvRKNS7_IN14openni_wrapper7IRImageEEENS_8functionIFvSJ_EEEEENS2_5mutexEEEEEEEED0Ev@Base 1.6
 (optional=templinst)_ZN5boost6detail17sp_counted_impl_pINS_8signals26detail12grouped_listIiSt4lessIiENS_10shared_ptrINS3_15connection_bodyISt4pairINS3_15slot_meta_groupENS_8optionalIiEEENS2_5slot1IvRKNS7_IN14openni_wrapper7IRImageEEENS_8functionIFvSJ_EEEEENS2_5mutexEEEEEEEED1Ev@Base 1.6
 (optional=templinst)_ZN5boost6detail17sp_counted_impl_pINS_8signals26detail12grouped_listIiSt4lessIiENS_10shared_ptrINS3_15connection_bodyISt4pairINS3_15slot_meta_groupENS_8optionalIiEEENS2_5slot1IvRKNS7_IN14openni_wrapper7IRImageEEENS_8functionIFvSJ_EEEEENS2_5mutexEEEEEEEED2Ev@Base 1.6
 (optional=templinst)_ZN5boost6detail17sp_counted_impl_pINS_8signals26detail12grouped_listIiSt4lessIiENS_10shared_ptrINS3_15connection_bodyISt4pairINS3_15slot_meta_groupENS_8optionalIiEEENS2_5slot3IvRKNS7_IN14openni_wrapper5ImageEEERKNS7_INSF_10DepthImageEEEfNS_8functionIFvSJ_SN_fEEEEENS2_5mutexEEEEEEEE11get_deleterERKSt9type_info@Base 1.6
 (optional=templinst)_ZN5boost6detail17sp_counted_impl_pINS_8signals26detail12grouped_listIiSt4lessIiENS_10shared_ptrINS3_15connection_bodyISt4pairINS3_15slot_meta_groupENS_8optionalIiEEENS2_5slot3IvRKNS7_IN14openni_wrapper5ImageEEERKNS7_INSF_10DepthImageEEEfNS_8functionIFvSJ_SN_fEEEEENS2_5mutexEEEEEEEE7disposeEv@Base 1.6
 (optional=templinst)_ZN5boost6detail17sp_counted_impl_pINS_8signals26detail12grouped_listIiSt4lessIiENS_10shared_ptrINS3_15connection_bodyISt4pairINS3_15slot_meta_groupENS_8optionalIiEEENS2_5slot3IvRKNS7_IN14openni_wrapper5ImageEEERKNS7_INSF_10DepthImageEEEfNS_8functionIFvSJ_SN_fEEEEENS2_5mutexEEEEEEEED0Ev@Base 1.6
 (optional=templinst)_ZN5boost6detail17sp_counted_impl_pINS_8signals26detail12grouped_listIiSt4lessIiENS_10shared_ptrINS3_15connection_bodyISt4pairINS3_15slot_meta_groupENS_8optionalIiEEENS2_5slot3IvRKNS7_IN14openni_wrapper5ImageEEERKNS7_INSF_10DepthImageEEEfNS_8functionIFvSJ_SN_fEEEEENS2_5mutexEEEEEEEED1Ev@Base 1.6
 (optional=templinst)_ZN5boost6detail17sp_counted_impl_pINS_8signals26detail12grouped_listIiSt4lessIiENS_10shared_ptrINS3_15connection_bodyISt4pairINS3_15slot_meta_groupENS_8optionalIiEEENS2_5slot3IvRKNS7_IN14openni_wrapper5ImageEEERKNS7_INSF_10DepthImageEEEfNS_8functionIFvSJ_SN_fEEEEENS2_5mutexEEEEEEEED2Ev@Base 1.6
 (optional=templinst)_ZN5boost6detail17sp_counted_impl_pINS_8signals26detail12grouped_listIiSt4lessIiENS_10shared_ptrINS3_15connection_bodyISt4pairINS3_15slot_meta_groupENS_8optionalIiEEENS2_5slot3IvRKNS7_IN14openni_wrapper7IRImageEEERKNS7_INSF_10DepthImageEEEfNS_8functionIFvSJ_SN_fEEEEENS2_5mutexEEEEEEEE11get_deleterERKSt9type_info@Base 1.6
 (optional=templinst)_ZN5boost6detail17sp_counted_impl_pINS_8signals26detail12grouped_listIiSt4lessIiENS_10shared_ptrINS3_15connection_bodyISt4pairINS3_15slot_meta_groupENS_8optionalIiEEENS2_5slot3IvRKNS7_IN14openni_wrapper7IRImageEEERKNS7_INSF_10DepthImageEEEfNS_8functionIFvSJ_SN_fEEEEENS2_5mutexEEEEEEEE7disposeEv@Base 1.6
 (optional=templinst)_ZN5boost6detail17sp_counted_impl_pINS_8signals26detail12grouped_listIiSt4lessIiENS_10shared_ptrINS3_15connection_bodyISt4pairINS3_15slot_meta_groupENS_8optionalIiEEENS2_5slot3IvRKNS7_IN14openni_wrapper7IRImageEEERKNS7_INSF_10DepthImageEEEfNS_8functionIFvSJ_SN_fEEEEENS2_5mutexEEEEEEEED0Ev@Base 1.6
 (optional=templinst)_ZN5boost6detail17sp_counted_impl_pINS_8signals26detail12grouped_listIiSt4lessIiENS_10shared_ptrINS3_15connection_bodyISt4pairINS3_15slot_meta_groupENS_8optionalIiEEENS2_5slot3IvRKNS7_IN14openni_wrapper7IRImageEEERKNS7_INSF_10DepthImageEEEfNS_8functionIFvSJ_SN_fEEEEENS2_5mutexEEEEEEEED1Ev@Base 1.6
 (optional=templinst)_ZN5boost6detail17sp_counted_impl_pINS_8signals26detail12grouped_listIiSt4lessIiENS_10shared_ptrINS3_15connection_bodyISt4pairINS3_15slot_meta_groupENS_8optionalIiEEENS2_5slot3IvRKNS7_IN14openni_wrapper7IRImageEEERKNS7_INSF_10DepthImageEEEfNS_8functionIFvSJ_SN_fEEEEENS2_5mutexEEEEEEEED2Ev@Base 1.6
 (optional=templinst)_ZN5boost6detail17sp_counted_impl_pINS_8signals26detail12signal1_implIvRKNS_10shared_ptrIKN3pcl10PointCloudIN5Eigen6MatrixIfLin1ELin1ELi0ELin1ELin1EEEEEEENS2_19optional_last_valueIvEEiSt4lessIiENS_8functionIFvSF_EEENSK_IFvRKNS2_10connectionESF_EEENS2_5mutexEE16invocation_stateEE11get_deleterERKSt9type_info@Base 1.6
 (optional=templinst)_ZN5boost6detail17sp_counted_impl_pINS_8signals26detail12signal1_implIvRKNS_10shared_ptrIKN3pcl10PointCloudIN5Eigen6MatrixIfLin1ELin1ELi0ELin1ELin1EEEEEEENS2_19optional_last_valueIvEEiSt4lessIiENS_8functionIFvSF_EEENSK_IFvRKNS2_10connectionESF_EEENS2_5mutexEE16invocation_stateEE7disposeEv@Base 1.6
 (optional=templinst)_ZN5boost6detail17sp_counted_impl_pINS_8signals26detail12signal1_implIvRKNS_10shared_ptrIKN3pcl10PointCloudIN5Eigen6MatrixIfLin1ELin1ELi0ELin1ELin1EEEEEEENS2_19optional_last_valueIvEEiSt4lessIiENS_8functionIFvSF_EEENSK_IFvRKNS2_10connectionESF_EEENS2_5mutexEE16invocation_stateEED0Ev@Base 1.6
 (optional=templinst)_ZN5boost6detail17sp_counted_impl_pINS_8signals26detail12signal1_implIvRKNS_10shared_ptrIKN3pcl10PointCloudIN5Eigen6MatrixIfLin1ELin1ELi0ELin1ELin1EEEEEEENS2_19optional_last_valueIvEEiSt4lessIiENS_8functionIFvSF_EEENSK_IFvRKNS2_10connectionESF_EEENS2_5mutexEE16invocation_stateEED1Ev@Base 1.6
 (optional=templinst)_ZN5boost6detail17sp_counted_impl_pINS_8signals26detail12signal1_implIvRKNS_10shared_ptrIKN3pcl10PointCloudIN5Eigen6MatrixIfLin1ELin1ELi0ELin1ELin1EEEEEEENS2_19optional_last_valueIvEEiSt4lessIiENS_8functionIFvSF_EEENSK_IFvRKNS2_10connectionESF_EEENS2_5mutexEE16invocation_stateEED2Ev@Base 1.6
 (optional=templinst)_ZN5boost6detail17sp_counted_impl_pINS_8signals26detail12signal1_implIvRKNS_10shared_ptrIKN3pcl10PointCloudIN5Eigen6MatrixIfLin1ELin1ELi0ELin1ELin1EEEEEEENS2_19optional_last_valueIvEEiSt4lessIiENS_8functionIFvSF_EEENSK_IFvRKNS2_10connectionESF_EEENS2_5mutexEEEE11get_deleterERKSt9type_info@Base 1.6
 (optional=templinst)_ZN5boost6detail17sp_counted_impl_pINS_8signals26detail12signal1_implIvRKNS_10shared_ptrIKN3pcl10PointCloudIN5Eigen6MatrixIfLin1ELin1ELi0ELin1ELin1EEEEEEENS2_19optional_last_valueIvEEiSt4lessIiENS_8functionIFvSF_EEENSK_IFvRKNS2_10connectionESF_EEENS2_5mutexEEEE7disposeEv@Base 1.6
 (optional=templinst)_ZN5boost6detail17sp_counted_impl_pINS_8signals26detail12signal1_implIvRKNS_10shared_ptrIKN3pcl10PointCloudIN5Eigen6MatrixIfLin1ELin1ELi0ELin1ELin1EEEEEEENS2_19optional_last_valueIvEEiSt4lessIiENS_8functionIFvSF_EEENSK_IFvRKNS2_10connectionESF_EEENS2_5mutexEEEED0Ev@Base 1.6
 (optional=templinst)_ZN5boost6detail17sp_counted_impl_pINS_8signals26detail12signal1_implIvRKNS_10shared_ptrIKN3pcl10PointCloudIN5Eigen6MatrixIfLin1ELin1ELi0ELin1ELin1EEEEEEENS2_19optional_last_valueIvEEiSt4lessIiENS_8functionIFvSF_EEENSK_IFvRKNS2_10connectionESF_EEENS2_5mutexEEEED1Ev@Base 1.6
 (optional=templinst)_ZN5boost6detail17sp_counted_impl_pINS_8signals26detail12signal1_implIvRKNS_10shared_ptrIKN3pcl10PointCloudIN5Eigen6MatrixIfLin1ELin1ELi0ELin1ELin1EEEEEEENS2_19optional_last_valueIvEEiSt4lessIiENS_8functionIFvSF_EEENSK_IFvRKNS2_10connectionESF_EEENS2_5mutexEEEED2Ev@Base 1.6
 (optional=templinst)_ZN5boost6detail17sp_counted_impl_pINS_8signals26detail12signal1_implIvRKNS_10shared_ptrIKN3pcl10PointCloudINS6_11PointXYZRGBEEEEENS2_19optional_last_valueIvEEiSt4lessIiENS_8functionIFvSD_EEENSI_IFvRKNS2_10connectionESD_EEENS2_5mutexEE16invocation_stateEE11get_deleterERKSt9type_info@Base 1.6
 (optional=templinst)_ZN5boost6detail17sp_counted_impl_pINS_8signals26detail12signal1_implIvRKNS_10shared_ptrIKN3pcl10PointCloudINS6_11PointXYZRGBEEEEENS2_19optional_last_valueIvEEiSt4lessIiENS_8functionIFvSD_EEENSI_IFvRKNS2_10connectionESD_EEENS2_5mutexEE16invocation_stateEE7disposeEv@Base 1.6
 (optional=templinst)_ZN5boost6detail17sp_counted_impl_pINS_8signals26detail12signal1_implIvRKNS_10shared_ptrIKN3pcl10PointCloudINS6_11PointXYZRGBEEEEENS2_19optional_last_valueIvEEiSt4lessIiENS_8functionIFvSD_EEENSI_IFvRKNS2_10connectionESD_EEENS2_5mutexEE16invocation_stateEED0Ev@Base 1.6
 (optional=templinst)_ZN5boost6detail17sp_counted_impl_pINS_8signals26detail12signal1_implIvRKNS_10shared_ptrIKN3pcl10PointCloudINS6_11PointXYZRGBEEEEENS2_19optional_last_valueIvEEiSt4lessIiENS_8functionIFvSD_EEENSI_IFvRKNS2_10connectionESD_EEENS2_5mutexEE16invocation_stateEED1Ev@Base 1.6
 (optional=templinst)_ZN5boost6detail17sp_counted_impl_pINS_8signals26detail12signal1_implIvRKNS_10shared_ptrIKN3pcl10PointCloudINS6_11PointXYZRGBEEEEENS2_19optional_last_valueIvEEiSt4lessIiENS_8functionIFvSD_EEENSI_IFvRKNS2_10connectionESD_EEENS2_5mutexEE16invocation_stateEED2Ev@Base 1.6
 (optional=templinst)_ZN5boost6detail17sp_counted_impl_pINS_8signals26detail12signal1_implIvRKNS_10shared_ptrIKN3pcl10PointCloudINS6_11PointXYZRGBEEEEENS2_19optional_last_valueIvEEiSt4lessIiENS_8functionIFvSD_EEENSI_IFvRKNS2_10connectionESD_EEENS2_5mutexEEEE11get_deleterERKSt9type_info@Base 1.6
 (optional=templinst)_ZN5boost6detail17sp_counted_impl_pINS_8signals26detail12signal1_implIvRKNS_10shared_ptrIKN3pcl10PointCloudINS6_11PointXYZRGBEEEEENS2_19optional_last_valueIvEEiSt4lessIiENS_8functionIFvSD_EEENSI_IFvRKNS2_10connectionESD_EEENS2_5mutexEEEE7disposeEv@Base 1.6
 (optional=templinst)_ZN5boost6detail17sp_counted_impl_pINS_8signals26detail12signal1_implIvRKNS_10shared_ptrIKN3pcl10PointCloudINS6_11PointXYZRGBEEEEENS2_19optional_last_valueIvEEiSt4lessIiENS_8functionIFvSD_EEENSI_IFvRKNS2_10connectionESD_EEENS2_5mutexEEEED0Ev@Base 1.6
 (optional=templinst)_ZN5boost6detail17sp_counted_impl_pINS_8signals26detail12signal1_implIvRKNS_10shared_ptrIKN3pcl10PointCloudINS6_11PointXYZRGBEEEEENS2_19optional_last_valueIvEEiSt4lessIiENS_8functionIFvSD_EEENSI_IFvRKNS2_10connectionESD_EEENS2_5mutexEEEED1Ev@Base 1.6
 (optional=templinst)_ZN5boost6detail17sp_counted_impl_pINS_8signals26detail12signal1_implIvRKNS_10shared_ptrIKN3pcl10PointCloudINS6_11PointXYZRGBEEEEENS2_19optional_last_valueIvEEiSt4lessIiENS_8functionIFvSD_EEENSI_IFvRKNS2_10connectionESD_EEENS2_5mutexEEEED2Ev@Base 1.6
 (optional=templinst)_ZN5boost6detail17sp_counted_impl_pINS_8signals26detail12signal1_implIvRKNS_10shared_ptrIKN3pcl10PointCloudINS6_12PointXYZRGBAEEEEENS2_19optional_last_valueIvEEiSt4lessIiENS_8functionIFvSD_EEENSI_IFvRKNS2_10connectionESD_EEENS2_5mutexEE16invocation_stateEE11get_deleterERKSt9type_info@Base 1.6
 (optional=templinst)_ZN5boost6detail17sp_counted_impl_pINS_8signals26detail12signal1_implIvRKNS_10shared_ptrIKN3pcl10PointCloudINS6_12PointXYZRGBAEEEEENS2_19optional_last_valueIvEEiSt4lessIiENS_8functionIFvSD_EEENSI_IFvRKNS2_10connectionESD_EEENS2_5mutexEE16invocation_stateEE7disposeEv@Base 1.6
 (optional=templinst)_ZN5boost6detail17sp_counted_impl_pINS_8signals26detail12signal1_implIvRKNS_10shared_ptrIKN3pcl10PointCloudINS6_12PointXYZRGBAEEEEENS2_19optional_last_valueIvEEiSt4lessIiENS_8functionIFvSD_EEENSI_IFvRKNS2_10connectionESD_EEENS2_5mutexEE16invocation_stateEED0Ev@Base 1.6
 (optional=templinst)_ZN5boost6detail17sp_counted_impl_pINS_8signals26detail12signal1_implIvRKNS_10shared_ptrIKN3pcl10PointCloudINS6_12PointXYZRGBAEEEEENS2_19optional_last_valueIvEEiSt4lessIiENS_8functionIFvSD_EEENSI_IFvRKNS2_10connectionESD_EEENS2_5mutexEE16invocation_stateEED1Ev@Base 1.6
 (optional=templinst)_ZN5boost6detail17sp_counted_impl_pINS_8signals26detail12signal1_implIvRKNS_10shared_ptrIKN3pcl10PointCloudINS6_12PointXYZRGBAEEEEENS2_19optional_last_valueIvEEiSt4lessIiENS_8functionIFvSD_EEENSI_IFvRKNS2_10connectionESD_EEENS2_5mutexEE16invocation_stateEED2Ev@Base 1.6
 (optional=templinst)_ZN5boost6detail17sp_counted_impl_pINS_8signals26detail12signal1_implIvRKNS_10shared_ptrIKN3pcl10PointCloudINS6_12PointXYZRGBAEEEEENS2_19optional_last_valueIvEEiSt4lessIiENS_8functionIFvSD_EEENSI_IFvRKNS2_10connectionESD_EEENS2_5mutexEEEE11get_deleterERKSt9type_info@Base 1.6
 (optional=templinst)_ZN5boost6detail17sp_counted_impl_pINS_8signals26detail12signal1_implIvRKNS_10shared_ptrIKN3pcl10PointCloudINS6_12PointXYZRGBAEEEEENS2_19optional_last_valueIvEEiSt4lessIiENS_8functionIFvSD_EEENSI_IFvRKNS2_10connectionESD_EEENS2_5mutexEEEE7disposeEv@Base 1.6
 (optional=templinst)_ZN5boost6detail17sp_counted_impl_pINS_8signals26detail12signal1_implIvRKNS_10shared_ptrIKN3pcl10PointCloudINS6_12PointXYZRGBAEEEEENS2_19optional_last_valueIvEEiSt4lessIiENS_8functionIFvSD_EEENSI_IFvRKNS2_10connectionESD_EEENS2_5mutexEEEED0Ev@Base 1.6
 (optional=templinst)_ZN5boost6detail17sp_counted_impl_pINS_8signals26detail12signal1_implIvRKNS_10shared_ptrIKN3pcl10PointCloudINS6_12PointXYZRGBAEEEEENS2_19optional_last_valueIvEEiSt4lessIiENS_8functionIFvSD_EEENSI_IFvRKNS2_10connectionESD_EEENS2_5mutexEEEED1Ev@Base 1.6
 (optional=templinst)_ZN5boost6detail17sp_counted_impl_pINS_8signals26detail12signal1_implIvRKNS_10shared_ptrIKN3pcl10PointCloudINS6_12PointXYZRGBAEEEEENS2_19optional_last_valueIvEEiSt4lessIiENS_8functionIFvSD_EEENSI_IFvRKNS2_10connectionESD_EEENS2_5mutexEEEED2Ev@Base 1.6
 (optional=templinst)_ZN5boost6detail17sp_counted_impl_pINS_8signals26detail12signal1_implIvRKNS_10shared_ptrIKN3pcl10PointCloudINS6_8PointXYZEEEEENS2_19optional_last_valueIvEEiSt4lessIiENS_8functionIFvSD_EEENSI_IFvRKNS2_10connectionESD_EEENS2_5mutexEE16invocation_stateEE11get_deleterERKSt9type_info@Base 1.6
 (optional=templinst)_ZN5boost6detail17sp_counted_impl_pINS_8signals26detail12signal1_implIvRKNS_10shared_ptrIKN3pcl10PointCloudINS6_8PointXYZEEEEENS2_19optional_last_valueIvEEiSt4lessIiENS_8functionIFvSD_EEENSI_IFvRKNS2_10connectionESD_EEENS2_5mutexEE16invocation_stateEE7disposeEv@Base 1.6
 (optional=templinst)_ZN5boost6detail17sp_counted_impl_pINS_8signals26detail12signal1_implIvRKNS_10shared_ptrIKN3pcl10PointCloudINS6_8PointXYZEEEEENS2_19optional_last_valueIvEEiSt4lessIiENS_8functionIFvSD_EEENSI_IFvRKNS2_10connectionESD_EEENS2_5mutexEE16invocation_stateEED0Ev@Base 1.6
 (optional=templinst)_ZN5boost6detail17sp_counted_impl_pINS_8signals26detail12signal1_implIvRKNS_10shared_ptrIKN3pcl10PointCloudINS6_8PointXYZEEEEENS2_19optional_last_valueIvEEiSt4lessIiENS_8functionIFvSD_EEENSI_IFvRKNS2_10connectionESD_EEENS2_5mutexEE16invocation_stateEED1Ev@Base 1.6
 (optional=templinst)_ZN5boost6detail17sp_counted_impl_pINS_8signals26detail12signal1_implIvRKNS_10shared_ptrIKN3pcl10PointCloudINS6_8PointXYZEEEEENS2_19optional_last_valueIvEEiSt4lessIiENS_8functionIFvSD_EEENSI_IFvRKNS2_10connectionESD_EEENS2_5mutexEE16invocation_stateEED2Ev@Base 1.6
 (optional=templinst)_ZN5boost6detail17sp_counted_impl_pINS_8signals26detail12signal1_implIvRKNS_10shared_ptrIKN3pcl10PointCloudINS6_8PointXYZEEEEENS2_19optional_last_valueIvEEiSt4lessIiENS_8functionIFvSD_EEENSI_IFvRKNS2_10connectionESD_EEENS2_5mutexEEEE11get_deleterERKSt9type_info@Base 1.6
 (optional=templinst)_ZN5boost6detail17sp_counted_impl_pINS_8signals26detail12signal1_implIvRKNS_10shared_ptrIKN3pcl10PointCloudINS6_8PointXYZEEEEENS2_19optional_last_valueIvEEiSt4lessIiENS_8functionIFvSD_EEENSI_IFvRKNS2_10connectionESD_EEENS2_5mutexEEEE7disposeEv@Base 1.6
 (optional=templinst)_ZN5boost6detail17sp_counted_impl_pINS_8signals26detail12signal1_implIvRKNS_10shared_ptrIKN3pcl10PointCloudINS6_8PointXYZEEEEENS2_19optional_last_valueIvEEiSt4lessIiENS_8functionIFvSD_EEENSI_IFvRKNS2_10connectionESD_EEENS2_5mutexEEEED0Ev@Base 1.6
 (optional=templinst)_ZN5boost6detail17sp_counted_impl_pINS_8signals26detail12signal1_implIvRKNS_10shared_ptrIKN3pcl10PointCloudINS6_8PointXYZEEEEENS2_19optional_last_valueIvEEiSt4lessIiENS_8functionIFvSD_EEENSI_IFvRKNS2_10connectionESD_EEENS2_5mutexEEEED1Ev@Base 1.6
 (optional=templinst)_ZN5boost6detail17sp_counted_impl_pINS_8signals26detail12signal1_implIvRKNS_10shared_ptrIKN3pcl10PointCloudINS6_8PointXYZEEEEENS2_19optional_last_valueIvEEiSt4lessIiENS_8functionIFvSD_EEENSI_IFvRKNS2_10connectionESD_EEENS2_5mutexEEEED2Ev@Base 1.6
 (optional=templinst)_ZN5boost6detail17sp_counted_impl_pINS_8signals26detail12signal1_implIvRKNS_10shared_ptrIKN3pcl10PointCloudINS6_9PointXYZIEEEEENS2_19optional_last_valueIvEEiSt4lessIiENS_8functionIFvSD_EEENSI_IFvRKNS2_10connectionESD_EEENS2_5mutexEE16invocation_stateEE11get_deleterERKSt9type_info@Base 1.6
 (optional=templinst)_ZN5boost6detail17sp_counted_impl_pINS_8signals26detail12signal1_implIvRKNS_10shared_ptrIKN3pcl10PointCloudINS6_9PointXYZIEEEEENS2_19optional_last_valueIvEEiSt4lessIiENS_8functionIFvSD_EEENSI_IFvRKNS2_10connectionESD_EEENS2_5mutexEE16invocation_stateEE7disposeEv@Base 1.6
 (optional=templinst)_ZN5boost6detail17sp_counted_impl_pINS_8signals26detail12signal1_implIvRKNS_10shared_ptrIKN3pcl10PointCloudINS6_9PointXYZIEEEEENS2_19optional_last_valueIvEEiSt4lessIiENS_8functionIFvSD_EEENSI_IFvRKNS2_10connectionESD_EEENS2_5mutexEE16invocation_stateEED0Ev@Base 1.6
 (optional=templinst)_ZN5boost6detail17sp_counted_impl_pINS_8signals26detail12signal1_implIvRKNS_10shared_ptrIKN3pcl10PointCloudINS6_9PointXYZIEEEEENS2_19optional_last_valueIvEEiSt4lessIiENS_8functionIFvSD_EEENSI_IFvRKNS2_10connectionESD_EEENS2_5mutexEE16invocation_stateEED1Ev@Base 1.6
 (optional=templinst)_ZN5boost6detail17sp_counted_impl_pINS_8signals26detail12signal1_implIvRKNS_10shared_ptrIKN3pcl10PointCloudINS6_9PointXYZIEEEEENS2_19optional_last_valueIvEEiSt4lessIiENS_8functionIFvSD_EEENSI_IFvRKNS2_10connectionESD_EEENS2_5mutexEE16invocation_stateEED2Ev@Base 1.6
 (optional=templinst)_ZN5boost6detail17sp_counted_impl_pINS_8signals26detail12signal1_implIvRKNS_10shared_ptrIKN3pcl10PointCloudINS6_9PointXYZIEEEEENS2_19optional_last_valueIvEEiSt4lessIiENS_8functionIFvSD_EEENSI_IFvRKNS2_10connectionESD_EEENS2_5mutexEEEE11get_deleterERKSt9type_info@Base 1.6
 (optional=templinst)_ZN5boost6detail17sp_counted_impl_pINS_8signals26detail12signal1_implIvRKNS_10shared_ptrIKN3pcl10PointCloudINS6_9PointXYZIEEEEENS2_19optional_last_valueIvEEiSt4lessIiENS_8functionIFvSD_EEENSI_IFvRKNS2_10connectionESD_EEENS2_5mutexEEEE7disposeEv@Base 1.6
 (optional=templinst)_ZN5boost6detail17sp_counted_impl_pINS_8signals26detail12signal1_implIvRKNS_10shared_ptrIKN3pcl10PointCloudINS6_9PointXYZIEEEEENS2_19optional_last_valueIvEEiSt4lessIiENS_8functionIFvSD_EEENSI_IFvRKNS2_10connectionESD_EEENS2_5mutexEEEED0Ev@Base 1.6
 (optional=templinst)_ZN5boost6detail17sp_counted_impl_pINS_8signals26detail12signal1_implIvRKNS_10shared_ptrIKN3pcl10PointCloudINS6_9PointXYZIEEEEENS2_19optional_last_valueIvEEiSt4lessIiENS_8functionIFvSD_EEENSI_IFvRKNS2_10connectionESD_EEENS2_5mutexEEEED1Ev@Base 1.6
 (optional=templinst)_ZN5boost6detail17sp_counted_impl_pINS_8signals26detail12signal1_implIvRKNS_10shared_ptrIKN3pcl10PointCloudINS6_9PointXYZIEEEEENS2_19optional_last_valueIvEEiSt4lessIiENS_8functionIFvSD_EEENSI_IFvRKNS2_10connectionESD_EEENS2_5mutexEEEED2Ev@Base 1.6
 (optional=templinst)_ZN5boost6detail17sp_counted_impl_pINS_8signals26detail12signal1_implIvRKNS_10shared_ptrIN14openni_wrapper10DepthImageEEENS2_19optional_last_valueIvEEiSt4lessIiENS_8functionIFvSA_EEENSF_IFvRKNS2_10connectionESA_EEENS2_5mutexEE16invocation_stateEE11get_deleterERKSt9type_info@Base 1.6
 (optional=templinst)_ZN5boost6detail17sp_counted_impl_pINS_8signals26detail12signal1_implIvRKNS_10shared_ptrIN14openni_wrapper10DepthImageEEENS2_19optional_last_valueIvEEiSt4lessIiENS_8functionIFvSA_EEENSF_IFvRKNS2_10connectionESA_EEENS2_5mutexEE16invocation_stateEE7disposeEv@Base 1.6
 (optional=templinst)_ZN5boost6detail17sp_counted_impl_pINS_8signals26detail12signal1_implIvRKNS_10shared_ptrIN14openni_wrapper10DepthImageEEENS2_19optional_last_valueIvEEiSt4lessIiENS_8functionIFvSA_EEENSF_IFvRKNS2_10connectionESA_EEENS2_5mutexEE16invocation_stateEED0Ev@Base 1.6
 (optional=templinst)_ZN5boost6detail17sp_counted_impl_pINS_8signals26detail12signal1_implIvRKNS_10shared_ptrIN14openni_wrapper10DepthImageEEENS2_19optional_last_valueIvEEiSt4lessIiENS_8functionIFvSA_EEENSF_IFvRKNS2_10connectionESA_EEENS2_5mutexEE16invocation_stateEED1Ev@Base 1.6
 (optional=templinst)_ZN5boost6detail17sp_counted_impl_pINS_8signals26detail12signal1_implIvRKNS_10shared_ptrIN14openni_wrapper10DepthImageEEENS2_19optional_last_valueIvEEiSt4lessIiENS_8functionIFvSA_EEENSF_IFvRKNS2_10connectionESA_EEENS2_5mutexEE16invocation_stateEED2Ev@Base 1.6
 (optional=templinst)_ZN5boost6detail17sp_counted_impl_pINS_8signals26detail12signal1_implIvRKNS_10shared_ptrIN14openni_wrapper10DepthImageEEENS2_19optional_last_valueIvEEiSt4lessIiENS_8functionIFvSA_EEENSF_IFvRKNS2_10connectionESA_EEENS2_5mutexEEEE11get_deleterERKSt9type_info@Base 1.6
 (optional=templinst)_ZN5boost6detail17sp_counted_impl_pINS_8signals26detail12signal1_implIvRKNS_10shared_ptrIN14openni_wrapper10DepthImageEEENS2_19optional_last_valueIvEEiSt4lessIiENS_8functionIFvSA_EEENSF_IFvRKNS2_10connectionESA_EEENS2_5mutexEEEE7disposeEv@Base 1.6
 (optional=templinst)_ZN5boost6detail17sp_counted_impl_pINS_8signals26detail12signal1_implIvRKNS_10shared_ptrIN14openni_wrapper10DepthImageEEENS2_19optional_last_valueIvEEiSt4lessIiENS_8functionIFvSA_EEENSF_IFvRKNS2_10connectionESA_EEENS2_5mutexEEEED0Ev@Base 1.6
 (optional=templinst)_ZN5boost6detail17sp_counted_impl_pINS_8signals26detail12signal1_implIvRKNS_10shared_ptrIN14openni_wrapper10DepthImageEEENS2_19optional_last_valueIvEEiSt4lessIiENS_8functionIFvSA_EEENSF_IFvRKNS2_10connectionESA_EEENS2_5mutexEEEED1Ev@Base 1.6
 (optional=templinst)_ZN5boost6detail17sp_counted_impl_pINS_8signals26detail12signal1_implIvRKNS_10shared_ptrIN14openni_wrapper10DepthImageEEENS2_19optional_last_valueIvEEiSt4lessIiENS_8functionIFvSA_EEENSF_IFvRKNS2_10connectionESA_EEENS2_5mutexEEEED2Ev@Base 1.6
 (optional=templinst)_ZN5boost6detail17sp_counted_impl_pINS_8signals26detail12signal1_implIvRKNS_10shared_ptrIN14openni_wrapper5ImageEEENS2_19optional_last_valueIvEEiSt4lessIiENS_8functionIFvSA_EEENSF_IFvRKNS2_10connectionESA_EEENS2_5mutexEE16invocation_stateEE11get_deleterERKSt9type_info@Base 1.6
 (optional=templinst)_ZN5boost6detail17sp_counted_impl_pINS_8signals26detail12signal1_implIvRKNS_10shared_ptrIN14openni_wrapper5ImageEEENS2_19optional_last_valueIvEEiSt4lessIiENS_8functionIFvSA_EEENSF_IFvRKNS2_10connectionESA_EEENS2_5mutexEE16invocation_stateEE7disposeEv@Base 1.6
 (optional=templinst)_ZN5boost6detail17sp_counted_impl_pINS_8signals26detail12signal1_implIvRKNS_10shared_ptrIN14openni_wrapper5ImageEEENS2_19optional_last_valueIvEEiSt4lessIiENS_8functionIFvSA_EEENSF_IFvRKNS2_10connectionESA_EEENS2_5mutexEE16invocation_stateEED0Ev@Base 1.6
 (optional=templinst)_ZN5boost6detail17sp_counted_impl_pINS_8signals26detail12signal1_implIvRKNS_10shared_ptrIN14openni_wrapper5ImageEEENS2_19optional_last_valueIvEEiSt4lessIiENS_8functionIFvSA_EEENSF_IFvRKNS2_10connectionESA_EEENS2_5mutexEE16invocation_stateEED1Ev@Base 1.6
 (optional=templinst)_ZN5boost6detail17sp_counted_impl_pINS_8signals26detail12signal1_implIvRKNS_10shared_ptrIN14openni_wrapper5ImageEEENS2_19optional_last_valueIvEEiSt4lessIiENS_8functionIFvSA_EEENSF_IFvRKNS2_10connectionESA_EEENS2_5mutexEE16invocation_stateEED2Ev@Base 1.6
 (optional=templinst)_ZN5boost6detail17sp_counted_impl_pINS_8signals26detail12signal1_implIvRKNS_10shared_ptrIN14openni_wrapper5ImageEEENS2_19optional_last_valueIvEEiSt4lessIiENS_8functionIFvSA_EEENSF_IFvRKNS2_10connectionESA_EEENS2_5mutexEEEE11get_deleterERKSt9type_info@Base 1.6
 (optional=templinst)_ZN5boost6detail17sp_counted_impl_pINS_8signals26detail12signal1_implIvRKNS_10shared_ptrIN14openni_wrapper5ImageEEENS2_19optional_last_valueIvEEiSt4lessIiENS_8functionIFvSA_EEENSF_IFvRKNS2_10connectionESA_EEENS2_5mutexEEEE7disposeEv@Base 1.6
 (optional=templinst)_ZN5boost6detail17sp_counted_impl_pINS_8signals26detail12signal1_implIvRKNS_10shared_ptrIN14openni_wrapper5ImageEEENS2_19optional_last_valueIvEEiSt4lessIiENS_8functionIFvSA_EEENSF_IFvRKNS2_10connectionESA_EEENS2_5mutexEEEED0Ev@Base 1.6
 (optional=templinst)_ZN5boost6detail17sp_counted_impl_pINS_8signals26detail12signal1_implIvRKNS_10shared_ptrIN14openni_wrapper5ImageEEENS2_19optional_last_valueIvEEiSt4lessIiENS_8functionIFvSA_EEENSF_IFvRKNS2_10connectionESA_EEENS2_5mutexEEEED1Ev@Base 1.6
 (optional=templinst)_ZN5boost6detail17sp_counted_impl_pINS_8signals26detail12signal1_implIvRKNS_10shared_ptrIN14openni_wrapper5ImageEEENS2_19optional_last_valueIvEEiSt4lessIiENS_8functionIFvSA_EEENSF_IFvRKNS2_10connectionESA_EEENS2_5mutexEEEED2Ev@Base 1.6
 (optional=templinst)_ZN5boost6detail17sp_counted_impl_pINS_8signals26detail12signal1_implIvRKNS_10shared_ptrIN14openni_wrapper7IRImageEEENS2_19optional_last_valueIvEEiSt4lessIiENS_8functionIFvSA_EEENSF_IFvRKNS2_10connectionESA_EEENS2_5mutexEE16invocation_stateEE11get_deleterERKSt9type_info@Base 1.6
 (optional=templinst)_ZN5boost6detail17sp_counted_impl_pINS_8signals26detail12signal1_implIvRKNS_10shared_ptrIN14openni_wrapper7IRImageEEENS2_19optional_last_valueIvEEiSt4lessIiENS_8functionIFvSA_EEENSF_IFvRKNS2_10connectionESA_EEENS2_5mutexEE16invocation_stateEE7disposeEv@Base 1.6
 (optional=templinst)_ZN5boost6detail17sp_counted_impl_pINS_8signals26detail12signal1_implIvRKNS_10shared_ptrIN14openni_wrapper7IRImageEEENS2_19optional_last_valueIvEEiSt4lessIiENS_8functionIFvSA_EEENSF_IFvRKNS2_10connectionESA_EEENS2_5mutexEE16invocation_stateEED0Ev@Base 1.6
 (optional=templinst)_ZN5boost6detail17sp_counted_impl_pINS_8signals26detail12signal1_implIvRKNS_10shared_ptrIN14openni_wrapper7IRImageEEENS2_19optional_last_valueIvEEiSt4lessIiENS_8functionIFvSA_EEENSF_IFvRKNS2_10connectionESA_EEENS2_5mutexEE16invocation_stateEED1Ev@Base 1.6
 (optional=templinst)_ZN5boost6detail17sp_counted_impl_pINS_8signals26detail12signal1_implIvRKNS_10shared_ptrIN14openni_wrapper7IRImageEEENS2_19optional_last_valueIvEEiSt4lessIiENS_8functionIFvSA_EEENSF_IFvRKNS2_10connectionESA_EEENS2_5mutexEE16invocation_stateEED2Ev@Base 1.6
 (optional=templinst)_ZN5boost6detail17sp_counted_impl_pINS_8signals26detail12signal1_implIvRKNS_10shared_ptrIN14openni_wrapper7IRImageEEENS2_19optional_last_valueIvEEiSt4lessIiENS_8functionIFvSA_EEENSF_IFvRKNS2_10connectionESA_EEENS2_5mutexEEEE11get_deleterERKSt9type_info@Base 1.6
 (optional=templinst)_ZN5boost6detail17sp_counted_impl_pINS_8signals26detail12signal1_implIvRKNS_10shared_ptrIN14openni_wrapper7IRImageEEENS2_19optional_last_valueIvEEiSt4lessIiENS_8functionIFvSA_EEENSF_IFvRKNS2_10connectionESA_EEENS2_5mutexEEEE7disposeEv@Base 1.6
 (optional=templinst)_ZN5boost6detail17sp_counted_impl_pINS_8signals26detail12signal1_implIvRKNS_10shared_ptrIN14openni_wrapper7IRImageEEENS2_19optional_last_valueIvEEiSt4lessIiENS_8functionIFvSA_EEENSF_IFvRKNS2_10connectionESA_EEENS2_5mutexEEEED0Ev@Base 1.6
 (optional=templinst)_ZN5boost6detail17sp_counted_impl_pINS_8signals26detail12signal1_implIvRKNS_10shared_ptrIN14openni_wrapper7IRImageEEENS2_19optional_last_valueIvEEiSt4lessIiENS_8functionIFvSA_EEENSF_IFvRKNS2_10connectionESA_EEENS2_5mutexEEEED1Ev@Base 1.6
 (optional=templinst)_ZN5boost6detail17sp_counted_impl_pINS_8signals26detail12signal1_implIvRKNS_10shared_ptrIN14openni_wrapper7IRImageEEENS2_19optional_last_valueIvEEiSt4lessIiENS_8functionIFvSA_EEENSF_IFvRKNS2_10connectionESA_EEENS2_5mutexEEEED2Ev@Base 1.6
 (optional=templinst)_ZN5boost6detail17sp_counted_impl_pINS_8signals26detail12signal3_implIvRKNS_10shared_ptrIN14openni_wrapper5ImageEEERKNS5_INS6_10DepthImageEEEfNS2_19optional_last_valueIvEEiSt4lessIiENS_8functionIFvSA_SE_fEEENSJ_IFvRKNS2_10connectionESA_SE_fEEENS2_5mutexEE16invocation_stateEE11get_deleterERKSt9type_info@Base 1.6
 (optional=templinst)_ZN5boost6detail17sp_counted_impl_pINS_8signals26detail12signal3_implIvRKNS_10shared_ptrIN14openni_wrapper5ImageEEERKNS5_INS6_10DepthImageEEEfNS2_19optional_last_valueIvEEiSt4lessIiENS_8functionIFvSA_SE_fEEENSJ_IFvRKNS2_10connectionESA_SE_fEEENS2_5mutexEE16invocation_stateEE7disposeEv@Base 1.6
 (optional=templinst)_ZN5boost6detail17sp_counted_impl_pINS_8signals26detail12signal3_implIvRKNS_10shared_ptrIN14openni_wrapper5ImageEEERKNS5_INS6_10DepthImageEEEfNS2_19optional_last_valueIvEEiSt4lessIiENS_8functionIFvSA_SE_fEEENSJ_IFvRKNS2_10connectionESA_SE_fEEENS2_5mutexEE16invocation_stateEED0Ev@Base 1.6
 (optional=templinst)_ZN5boost6detail17sp_counted_impl_pINS_8signals26detail12signal3_implIvRKNS_10shared_ptrIN14openni_wrapper5ImageEEERKNS5_INS6_10DepthImageEEEfNS2_19optional_last_valueIvEEiSt4lessIiENS_8functionIFvSA_SE_fEEENSJ_IFvRKNS2_10connectionESA_SE_fEEENS2_5mutexEE16invocation_stateEED1Ev@Base 1.6
 (optional=templinst)_ZN5boost6detail17sp_counted_impl_pINS_8signals26detail12signal3_implIvRKNS_10shared_ptrIN14openni_wrapper5ImageEEERKNS5_INS6_10DepthImageEEEfNS2_19optional_last_valueIvEEiSt4lessIiENS_8functionIFvSA_SE_fEEENSJ_IFvRKNS2_10connectionESA_SE_fEEENS2_5mutexEE16invocation_stateEED2Ev@Base 1.6
 (optional=templinst)_ZN5boost6detail17sp_counted_impl_pINS_8signals26detail12signal3_implIvRKNS_10shared_ptrIN14openni_wrapper5ImageEEERKNS5_INS6_10DepthImageEEEfNS2_19optional_last_valueIvEEiSt4lessIiENS_8functionIFvSA_SE_fEEENSJ_IFvRKNS2_10connectionESA_SE_fEEENS2_5mutexEEEE11get_deleterERKSt9type_info@Base 1.6
 (optional=templinst)_ZN5boost6detail17sp_counted_impl_pINS_8signals26detail12signal3_implIvRKNS_10shared_ptrIN14openni_wrapper5ImageEEERKNS5_INS6_10DepthImageEEEfNS2_19optional_last_valueIvEEiSt4lessIiENS_8functionIFvSA_SE_fEEENSJ_IFvRKNS2_10connectionESA_SE_fEEENS2_5mutexEEEE7disposeEv@Base 1.6
 (optional=templinst)_ZN5boost6detail17sp_counted_impl_pINS_8signals26detail12signal3_implIvRKNS_10shared_ptrIN14openni_wrapper5ImageEEERKNS5_INS6_10DepthImageEEEfNS2_19optional_last_valueIvEEiSt4lessIiENS_8functionIFvSA_SE_fEEENSJ_IFvRKNS2_10connectionESA_SE_fEEENS2_5mutexEEEED0Ev@Base 1.6
 (optional=templinst)_ZN5boost6detail17sp_counted_impl_pINS_8signals26detail12signal3_implIvRKNS_10shared_ptrIN14openni_wrapper5ImageEEERKNS5_INS6_10DepthImageEEEfNS2_19optional_last_valueIvEEiSt4lessIiENS_8functionIFvSA_SE_fEEENSJ_IFvRKNS2_10connectionESA_SE_fEEENS2_5mutexEEEED1Ev@Base 1.6
 (optional=templinst)_ZN5boost6detail17sp_counted_impl_pINS_8signals26detail12signal3_implIvRKNS_10shared_ptrIN14openni_wrapper5ImageEEERKNS5_INS6_10DepthImageEEEfNS2_19optional_last_valueIvEEiSt4lessIiENS_8functionIFvSA_SE_fEEENSJ_IFvRKNS2_10connectionESA_SE_fEEENS2_5mutexEEEED2Ev@Base 1.6
 (optional=templinst)_ZN5boost6detail17sp_counted_impl_pINS_8signals26detail12signal3_implIvRKNS_10shared_ptrIN14openni_wrapper7IRImageEEERKNS5_INS6_10DepthImageEEEfNS2_19optional_last_valueIvEEiSt4lessIiENS_8functionIFvSA_SE_fEEENSJ_IFvRKNS2_10connectionESA_SE_fEEENS2_5mutexEE16invocation_stateEE11get_deleterERKSt9type_info@Base 1.6
 (optional=templinst)_ZN5boost6detail17sp_counted_impl_pINS_8signals26detail12signal3_implIvRKNS_10shared_ptrIN14openni_wrapper7IRImageEEERKNS5_INS6_10DepthImageEEEfNS2_19optional_last_valueIvEEiSt4lessIiENS_8functionIFvSA_SE_fEEENSJ_IFvRKNS2_10connectionESA_SE_fEEENS2_5mutexEE16invocation_stateEE7disposeEv@Base 1.6
 (optional=templinst)_ZN5boost6detail17sp_counted_impl_pINS_8signals26detail12signal3_implIvRKNS_10shared_ptrIN14openni_wrapper7IRImageEEERKNS5_INS6_10DepthImageEEEfNS2_19optional_last_valueIvEEiSt4lessIiENS_8functionIFvSA_SE_fEEENSJ_IFvRKNS2_10connectionESA_SE_fEEENS2_5mutexEE16invocation_stateEED0Ev@Base 1.6
 (optional=templinst)_ZN5boost6detail17sp_counted_impl_pINS_8signals26detail12signal3_implIvRKNS_10shared_ptrIN14openni_wrapper7IRImageEEERKNS5_INS6_10DepthImageEEEfNS2_19optional_last_valueIvEEiSt4lessIiENS_8functionIFvSA_SE_fEEENSJ_IFvRKNS2_10connectionESA_SE_fEEENS2_5mutexEE16invocation_stateEED1Ev@Base 1.6
 (optional=templinst)_ZN5boost6detail17sp_counted_impl_pINS_8signals26detail12signal3_implIvRKNS_10shared_ptrIN14openni_wrapper7IRImageEEERKNS5_INS6_10DepthImageEEEfNS2_19optional_last_valueIvEEiSt4lessIiENS_8functionIFvSA_SE_fEEENSJ_IFvRKNS2_10connectionESA_SE_fEEENS2_5mutexEE16invocation_stateEED2Ev@Base 1.6
 (optional=templinst)_ZN5boost6detail17sp_counted_impl_pINS_8signals26detail12signal3_implIvRKNS_10shared_ptrIN14openni_wrapper7IRImageEEERKNS5_INS6_10DepthImageEEEfNS2_19optional_last_valueIvEEiSt4lessIiENS_8functionIFvSA_SE_fEEENSJ_IFvRKNS2_10connectionESA_SE_fEEENS2_5mutexEEEE11get_deleterERKSt9type_info@Base 1.6
 (optional=templinst)_ZN5boost6detail17sp_counted_impl_pINS_8signals26detail12signal3_implIvRKNS_10shared_ptrIN14openni_wrapper7IRImageEEERKNS5_INS6_10DepthImageEEEfNS2_19optional_last_valueIvEEiSt4lessIiENS_8functionIFvSA_SE_fEEENSJ_IFvRKNS2_10connectionESA_SE_fEEENS2_5mutexEEEE7disposeEv@Base 1.6
 (optional=templinst)_ZN5boost6detail17sp_counted_impl_pINS_8signals26detail12signal3_implIvRKNS_10shared_ptrIN14openni_wrapper7IRImageEEERKNS5_INS6_10DepthImageEEEfNS2_19optional_last_valueIvEEiSt4lessIiENS_8functionIFvSA_SE_fEEENSJ_IFvRKNS2_10connectionESA_SE_fEEENS2_5mutexEEEED0Ev@Base 1.6
 (optional=templinst)_ZN5boost6detail17sp_counted_impl_pINS_8signals26detail12signal3_implIvRKNS_10shared_ptrIN14openni_wrapper7IRImageEEERKNS5_INS6_10DepthImageEEEfNS2_19optional_last_valueIvEEiSt4lessIiENS_8functionIFvSA_SE_fEEENSJ_IFvRKNS2_10connectionESA_SE_fEEENS2_5mutexEEEED1Ev@Base 1.6
 (optional=templinst)_ZN5boost6detail17sp_counted_impl_pINS_8signals26detail12signal3_implIvRKNS_10shared_ptrIN14openni_wrapper7IRImageEEERKNS5_INS6_10DepthImageEEEfNS2_19optional_last_valueIvEEiSt4lessIiENS_8functionIFvSA_SE_fEEENSJ_IFvRKNS2_10connectionESA_SE_fEEENS2_5mutexEEEED2Ev@Base 1.6
 (optional=templinst)_ZN5boost6detail17sp_counted_impl_pIiE11get_deleterERKSt9type_info@Base 1.6
 (optional=templinst)_ZN5boost6detail17sp_counted_impl_pIiE7disposeEv@Base 1.6
 (optional=templinst)_ZN5boost6detail17sp_counted_impl_pIiED0Ev@Base 1.6
 (optional=templinst)_ZN5boost6detail17sp_counted_impl_pIiED1Ev@Base 1.6
 (optional=templinst)_ZN5boost6detail17sp_counted_impl_pIiED2Ev@Base 1.6
 (optional=templinst)_ZN5boost6detail18sp_counted_impl_pdIPNS_8signals26detail20connection_body_baseEPFvPKvEE11get_deleterERKSt9type_info@Base 1.6
 (optional=templinst)_ZN5boost6detail18sp_counted_impl_pdIPNS_8signals26detail20connection_body_baseEPFvPKvEE7disposeEv@Base 1.6
 (optional=templinst)_ZN5boost6detail18sp_counted_impl_pdIPNS_8signals26detail20connection_body_baseEPFvPKvEED0Ev@Base 1.6
 (optional=templinst)_ZN5boost6detail18sp_counted_impl_pdIPNS_8signals26detail20connection_body_baseEPFvPKvEED1Ev@Base 1.6
 (optional=templinst)_ZN5boost6detail18sp_counted_impl_pdIPNS_8signals26detail20connection_body_baseEPFvPKvEED2Ev@Base 1.6
 (optional=templinst)_ZN5boost6detail18sp_counted_impl_pdIPhNS_21checked_array_deleterIhEEE11get_deleterERKSt9type_info@Base 1.6
 (optional=templinst)_ZN5boost6detail18sp_counted_impl_pdIPhNS_21checked_array_deleterIhEEE7disposeEv@Base 1.6
 (optional=templinst)_ZN5boost6detail18sp_counted_impl_pdIPhNS_21checked_array_deleterIhEEED0Ev@Base 1.6
 (optional=templinst)_ZN5boost6detail18sp_counted_impl_pdIPhNS_21checked_array_deleterIhEEED1Ev@Base 1.6
 (optional=templinst)_ZN5boost6detail18sp_counted_impl_pdIPhNS_21checked_array_deleterIhEEED2Ev@Base 1.6
 (optional=templinst)_ZN5boost6detail18sp_counted_impl_pdIPtNS_21checked_array_deleterItEEE11get_deleterERKSt9type_info@Base 1.6
 (optional=templinst)_ZN5boost6detail18sp_counted_impl_pdIPtNS_21checked_array_deleterItEEE7disposeEv@Base 1.6
 (optional=templinst)_ZN5boost6detail18sp_counted_impl_pdIPtNS_21checked_array_deleterItEEED0Ev@Base 1.6
 (optional=templinst)_ZN5boost6detail18sp_counted_impl_pdIPtNS_21checked_array_deleterItEEED1Ev@Base 1.6
 (optional=templinst)_ZN5boost6detail18sp_counted_impl_pdIPtNS_21checked_array_deleterItEEED2Ev@Base 1.6
 _ZN5boost6detail20interruption_checkerD1Ev@Base 1.6
 _ZN5boost6detail20interruption_checkerD2Ev@Base 1.6
 (optional=templinst)_ZN5boost6detail7variant13backup_holderINS_10shared_ptrIvEEED1Ev@Base 1.6
 (optional=templinst)_ZN5boost6detail7variant13backup_holderINS_10shared_ptrIvEEED2Ev@Base 1.6
 (optional=templinst)_ZN5boost6detail7variant13backup_holderINS_8signals26detail23foreign_void_shared_ptrEED1Ev@Base 1.6
 (optional=templinst)_ZN5boost6detail7variant13backup_holderINS_8signals26detail23foreign_void_shared_ptrEED2Ev@Base 1.6
 (optional=templinst)_ZN5boost6detail7variant15visitation_implIN4mpl_4int_ILi0EEENS1_20visitation_impl_stepINS_3mpl6l_iterINS7_6l_itemINS3_5long_ILl2EEENS_10shared_ptrIvEENS9_INSA_ILl1EEENS_8signals26detail23foreign_void_shared_ptrENS7_5l_endEEEEEEENS8_ISI_EEEENS_7variantISD_SH_NS1_5void_ESP_SP_SP_SP_SP_SP_SP_SP_SP_SP_SP_SP_SP_SP_SP_SP_SP_E17convert_copy_intoEPvNSQ_18has_fallback_type_EEENT1_11result_typeEiiRSU_T2_NS3_5bool_ILb0EEET3_PT_PT0_@Base 1.6
 (optional=templinst)_ZN5boost6detail8function15functor_managerINS_3_bi6bind_tINS3_11unspecifiedENS_8functionIFvNS_10shared_ptrIN14openni_wrapper10DepthImageEEEPvEEENS3_5list2INS_3argILi1EEENS3_5valueISB_EEEEEEE6manageERKNS1_15function_bufferERSM_NS1_30functor_manager_operation_typeE@Base 1.6
 (optional=templinst)_ZN5boost6detail8function15functor_managerINS_3_bi6bind_tINS3_11unspecifiedENS_8functionIFvNS_10shared_ptrIN14openni_wrapper10DepthImageEEEPvEEENS3_5list2INS_3argILi1EEENS3_5valueISB_EEEEEEE7managerERKNS1_15function_bufferERSM_NS1_30functor_manager_operation_typeEN4mpl_5bool_ILb0EEE@Base 1.6
 (optional=templinst)_ZN5boost6detail8function15functor_managerINS_3_bi6bind_tINS3_11unspecifiedENS_8functionIFvNS_10shared_ptrIN14openni_wrapper5ImageEEEPvEEENS3_5list2INS_3argILi1EEENS3_5valueISB_EEEEEEE6manageERKNS1_15function_bufferERSM_NS1_30functor_manager_operation_typeE@Base 1.6
 (optional=templinst)_ZN5boost6detail8function15functor_managerINS_3_bi6bind_tINS3_11unspecifiedENS_8functionIFvNS_10shared_ptrIN14openni_wrapper5ImageEEEPvEEENS3_5list2INS_3argILi1EEENS3_5valueISB_EEEEEEE7managerERKNS1_15function_bufferERSM_NS1_30functor_manager_operation_typeEN4mpl_5bool_ILb0EEE@Base 1.6
 (optional=templinst)_ZN5boost6detail8function15functor_managerINS_3_bi6bind_tINS3_11unspecifiedENS_8functionIFvNS_10shared_ptrIN14openni_wrapper7IRImageEEEPvEEENS3_5list2INS_3argILi1EEENS3_5valueISB_EEEEEEE6manageERKNS1_15function_bufferERSM_NS1_30functor_manager_operation_typeE@Base 1.6
 (optional=templinst)_ZN5boost6detail8function15functor_managerINS_3_bi6bind_tINS3_11unspecifiedENS_8functionIFvNS_10shared_ptrIN14openni_wrapper7IRImageEEEPvEEENS3_5list2INS_3argILi1EEENS3_5valueISB_EEEEEEE7managerERKNS1_15function_bufferERSM_NS1_30functor_manager_operation_typeEN4mpl_5bool_ILb0EEE@Base 1.6
 (optional=templinst)_ZN5boost6detail8function15functor_managerINS_3_bi6bind_tINS_6tuples5tupleINS_8functionIFvhEEENS7_IFviEEENS7_IFvvEEENS5_9null_typeESE_SE_SE_SE_SE_SE_EENS_4_mfi3mf2ISF_N3pcl9PLYReaderERKSsSL_EENS3_5list3INS3_5valueIPSJ_EENS_3argILi1EEENSR_ILi2EEEEEEEE6manageERKNS1_15function_bufferERSX_NS1_30functor_manager_operation_typeE@Base 1.6
 (optional=templinst)_ZN5boost6detail8function15functor_managerINS_3_bi6bind_tINS_6tuples5tupleINS_8functionIFvvEEES9_NS5_9null_typeESA_SA_SA_SA_SA_SA_SA_EENS_4_mfi3mf2ISB_N3pcl9PLYReaderERKSsmEENS3_5list3INS3_5valueIPSF_EENS_3argILi1EEENSN_ILi2EEEEEEEE6manageERKNS1_15function_bufferERST_NS1_30functor_manager_operation_typeE@Base 1.6
 (optional=templinst)_ZN5boost6detail8function15functor_managerINS_3_bi6bind_tINS_8functionIFvfEEENS_4_mfi3mf2IS7_N3pcl9PLYReaderERKSsSD_EENS3_5list3INS3_5valueIPSB_EENS_3argILi1EEENSJ_ILi2EEEEEEEE6manageERKNS1_15function_bufferERSP_NS1_30functor_manager_operation_typeE@Base 1.6
 (optional=templinst)_ZN5boost6detail8function15functor_managerINS_3_bi6bind_tINS_8functionIFvhEEENS_4_mfi3mf2IS7_N3pcl9PLYReaderERKSsSD_EENS3_5list3INS3_5valueIPSB_EENS_3argILi1EEENSJ_ILi2EEEEEEEE6manageERKNS1_15function_bufferERSP_NS1_30functor_manager_operation_typeE@Base 1.6
 (optional=templinst)_ZN5boost6detail8function15functor_managerINS_3_bi6bind_tINS_8functionIFviEEENS_4_mfi3mf2IS7_N3pcl9PLYReaderERKSsSD_EENS3_5list3INS3_5valueIPSB_EENS_3argILi1EEENSJ_ILi2EEEEEEEE6manageERKNS1_15function_bufferERSP_NS1_30functor_manager_operation_typeE@Base 1.6
 (optional=templinst)_ZN5boost6detail8function15functor_managerINS_3_bi6bind_tIbNS_4_mfi3mf0IbN3pcl9PLYReaderEEENS3_5list1INS3_5valueIPS8_EEEEEEE6manageERKNS1_15function_bufferERSH_NS1_30functor_manager_operation_typeE@Base 1.6
 (optional=templinst)_ZN5boost6detail8function15functor_managerINS_3_bi6bind_tIvNS_4_mfi3mf0IvN3pcl14PCDGrabberBase14PCDGrabberImplEEENS3_5list1INS3_5valueIPS9_EEEEEEE6manageERKNS1_15function_bufferERSI_NS1_30functor_manager_operation_typeE@Base 1.6
 (optional=templinst)_ZN5boost6detail8function15functor_managerINS_3_bi6bind_tIvNS_4_mfi3mf0IvN3pcl9PLYReaderEEENS3_5list1INS3_5valueIPS8_EEEEEEE6manageERKNS1_15function_bufferERSH_NS1_30functor_manager_operation_typeE@Base 1.6
 (optional=templinst)_ZN5boost6detail8function15functor_managerINS_3_bi6bind_tIvNS_4_mfi3mf1IvN3pcl9PLYReaderERKfEENS3_5list2INS3_5valueIPS8_EENS_3argILi1EEEEEEEE6manageERKNS1_15function_bufferERSL_NS1_30functor_manager_operation_typeE@Base 1.6
 (optional=templinst)_ZN5boost6detail8function15functor_managerINS_3_bi6bind_tIvNS_4_mfi3mf1IvN3pcl9PLYReaderERKiEENS3_5list2INS3_5valueIPS8_EENS_3argILi1EEEEEEEE6manageERKNS1_15function_bufferERSL_NS1_30functor_manager_operation_typeE@Base 1.6
 (optional=templinst)_ZN5boost6detail8function15functor_managerINS_3_bi6bind_tIvNS_4_mfi3mf1IvN3pcl9PLYReaderEfEENS3_5list2INS3_5valueIPS8_EENS_3argILi1EEEEEEEE6manageERKNS1_15function_bufferERSJ_NS1_30functor_manager_operation_typeE@Base 1.6
 (optional=templinst)_ZN5boost6detail8function15functor_managerINS_3_bi6bind_tIvNS_4_mfi3mf1IvN3pcl9PLYReaderEhEENS3_5list2INS3_5valueIPS8_EENS_3argILi1EEEEEEEE6manageERKNS1_15function_bufferERSJ_NS1_30functor_manager_operation_typeE@Base 1.6
 (optional=templinst)_ZN5boost6detail8function15functor_managerINS_3_bi6bind_tIvNS_4_mfi3mf1IvN3pcl9PLYReaderEiEENS3_5list2INS3_5valueIPS8_EENS_3argILi1EEEEEEEE6manageERKNS1_15function_bufferERSJ_NS1_30functor_manager_operation_typeE@Base 1.6
 (optional=templinst)_ZN5boost6detail8function15functor_managerINS_3_bi6bind_tIvNS_4_mfi3mf2IvN3pcl10ONIGrabberENS_10shared_ptrIN14openni_wrapper10DepthImageEEEPvEENS3_5list3INS_17reference_wrapperIS8_EENS_3argILi1EEENS3_5valueISD_EEEEEEE6manageERKNS1_15function_bufferERSP_NS1_30functor_manager_operation_typeE@Base 1.6
 (optional=templinst)_ZN5boost6detail8function15functor_managerINS_3_bi6bind_tIvNS_4_mfi3mf2IvN3pcl10ONIGrabberENS_10shared_ptrIN14openni_wrapper10DepthImageEEEPvEENS3_5list3INS_17reference_wrapperIS8_EENS_3argILi1EEENS3_5valueISD_EEEEEEE7managerERKNS1_15function_bufferERSP_NS1_30functor_manager_operation_typeEN4mpl_5bool_ILb0EEE@Base 1.6
 (optional=templinst)_ZN5boost6detail8function15functor_managerINS_3_bi6bind_tIvNS_4_mfi3mf2IvN3pcl10ONIGrabberENS_10shared_ptrIN14openni_wrapper5ImageEEEPvEENS3_5list3INS_17reference_wrapperIS8_EENS_3argILi1EEENS3_5valueISD_EEEEEEE6manageERKNS1_15function_bufferERSP_NS1_30functor_manager_operation_typeE@Base 1.6
 (optional=templinst)_ZN5boost6detail8function15functor_managerINS_3_bi6bind_tIvNS_4_mfi3mf2IvN3pcl10ONIGrabberENS_10shared_ptrIN14openni_wrapper5ImageEEEPvEENS3_5list3INS_17reference_wrapperIS8_EENS_3argILi1EEENS3_5valueISD_EEEEEEE7managerERKNS1_15function_bufferERSP_NS1_30functor_manager_operation_typeEN4mpl_5bool_ILb0EEE@Base 1.6
 (optional=templinst)_ZN5boost6detail8function15functor_managerINS_3_bi6bind_tIvNS_4_mfi3mf2IvN3pcl10ONIGrabberENS_10shared_ptrIN14openni_wrapper7IRImageEEEPvEENS3_5list3INS_17reference_wrapperIS8_EENS_3argILi1EEENS3_5valueISD_EEEEEEE6manageERKNS1_15function_bufferERSP_NS1_30functor_manager_operation_typeE@Base 1.6
 (optional=templinst)_ZN5boost6detail8function15functor_managerINS_3_bi6bind_tIvNS_4_mfi3mf2IvN3pcl10ONIGrabberENS_10shared_ptrIN14openni_wrapper7IRImageEEEPvEENS3_5list3INS_17reference_wrapperIS8_EENS_3argILi1EEENS3_5valueISD_EEEEEEE7managerERKNS1_15function_bufferERSP_NS1_30functor_manager_operation_typeEN4mpl_5bool_ILb0EEE@Base 1.6
 (optional=templinst)_ZN5boost6detail8function15functor_managerINS_3_bi6bind_tIvNS_4_mfi3mf2IvN3pcl10ONIGrabberERKNS_10shared_ptrIN14openni_wrapper5ImageEEERKNS9_INSA_10DepthImageEEEEENS3_5list3INS3_5valueIPS8_EENS_3argILi1EEENSO_ILi2EEEEEEEE6manageERKNS1_15function_bufferERSU_NS1_30functor_manager_operation_typeE@Base 1.6
 (optional=templinst)_ZN5boost6detail8function15functor_managerINS_3_bi6bind_tIvNS_4_mfi3mf2IvN3pcl13OpenNIGrabberENS_10shared_ptrIN14openni_wrapper10DepthImageEEEPvEENS3_5list3INS_17reference_wrapperIS8_EENS_3argILi1EEENS3_5valueISD_EEEEEEE6manageERKNS1_15function_bufferERSP_NS1_30functor_manager_operation_typeE@Base 1.6
 (optional=templinst)_ZN5boost6detail8function15functor_managerINS_3_bi6bind_tIvNS_4_mfi3mf2IvN3pcl13OpenNIGrabberENS_10shared_ptrIN14openni_wrapper10DepthImageEEEPvEENS3_5list3INS_17reference_wrapperIS8_EENS_3argILi1EEENS3_5valueISD_EEEEEEE7managerERKNS1_15function_bufferERSP_NS1_30functor_manager_operation_typeEN4mpl_5bool_ILb0EEE@Base 1.6
 (optional=templinst)_ZN5boost6detail8function15functor_managerINS_3_bi6bind_tIvNS_4_mfi3mf2IvN3pcl13OpenNIGrabberENS_10shared_ptrIN14openni_wrapper5ImageEEEPvEENS3_5list3INS_17reference_wrapperIS8_EENS_3argILi1EEENS3_5valueISD_EEEEEEE6manageERKNS1_15function_bufferERSP_NS1_30functor_manager_operation_typeE@Base 1.6
 (optional=templinst)_ZN5boost6detail8function15functor_managerINS_3_bi6bind_tIvNS_4_mfi3mf2IvN3pcl13OpenNIGrabberENS_10shared_ptrIN14openni_wrapper5ImageEEEPvEENS3_5list3INS_17reference_wrapperIS8_EENS_3argILi1EEENS3_5valueISD_EEEEEEE7managerERKNS1_15function_bufferERSP_NS1_30functor_manager_operation_typeEN4mpl_5bool_ILb0EEE@Base 1.6
 (optional=templinst)_ZN5boost6detail8function15functor_managerINS_3_bi6bind_tIvNS_4_mfi3mf2IvN3pcl13OpenNIGrabberENS_10shared_ptrIN14openni_wrapper7IRImageEEEPvEENS3_5list3INS_17reference_wrapperIS8_EENS_3argILi1EEENS3_5valueISD_EEEEEEE6manageERKNS1_15function_bufferERSP_NS1_30functor_manager_operation_typeE@Base 1.6
 (optional=templinst)_ZN5boost6detail8function15functor_managerINS_3_bi6bind_tIvNS_4_mfi3mf2IvN3pcl13OpenNIGrabberENS_10shared_ptrIN14openni_wrapper7IRImageEEEPvEENS3_5list3INS_17reference_wrapperIS8_EENS_3argILi1EEENS3_5valueISD_EEEEEEE7managerERKNS1_15function_bufferERSP_NS1_30functor_manager_operation_typeEN4mpl_5bool_ILb0EEE@Base 1.6
 (optional=templinst)_ZN5boost6detail8function15functor_managerINS_3_bi6bind_tIvNS_4_mfi3mf2IvN3pcl13OpenNIGrabberERKNS_10shared_ptrIN14openni_wrapper5ImageEEERKNS9_INSA_10DepthImageEEEEENS3_5list3INS3_5valueIPS8_EENS_3argILi1EEENSO_ILi2EEEEEEEE6manageERKNS1_15function_bufferERSU_NS1_30functor_manager_operation_typeE@Base 1.6
 (optional=templinst)_ZN5boost6detail8function15functor_managerINS_3_bi6bind_tIvNS_4_mfi3mf2IvN3pcl13OpenNIGrabberERKNS_10shared_ptrIN14openni_wrapper7IRImageEEERKNS9_INSA_10DepthImageEEEEENS3_5list3INS3_5valueIPS8_EENS_3argILi1EEENSO_ILi2EEEEEEEE6manageERKNS1_15function_bufferERSU_NS1_30functor_manager_operation_typeE@Base 1.6
 (optional=templinst)_ZN5boost6detail8function15functor_managerINS_3_bi6bind_tIvNS_4_mfi3mf2IvN3pcl9PLYReaderERKSshEENS3_5list3INS3_5valueIPS8_EENSD_ISsEENS_3argILi1EEEEEEEE6manageERKNS1_15function_bufferERSM_NS1_30functor_manager_operation_typeE@Base 1.6
 (optional=templinst)_ZN5boost6detail8function15functor_managerINS_3_bi6bind_tIvNS_4_mfi3mf2IvN3pcl9PLYReaderERKSshEENS3_5list3INS3_5valueIPS8_EENSD_ISsEENS_3argILi1EEEEEEEE7managerERKNS1_15function_bufferERSM_NS1_30functor_manager_operation_typeEN4mpl_5bool_ILb0EEE@Base 1.6
 (optional=templinst)_ZN5boost6detail8function15functor_managerINS_3_bi6bind_tIvNS_4_mfi3mf3IvN3pcl9PLYReaderERKSsmSA_EENS3_5list4INS3_5valueIPS8_EENS_17reference_wrapperIS9_EENS_3argILi1EEENSI_ILi2EEEEEEEE6manageERKNS1_15function_bufferERSO_NS1_30functor_manager_operation_typeE@Base 1.6
 (optional=templinst)_ZN5boost6detail8function15functor_managerINS_3_bi6bind_tIvNS_4_mfi3mf3IvN3pcl9PLYReaderERKSsmSA_EENS3_5list4INS3_5valueIPS8_EENS_17reference_wrapperIS9_EENS_3argILi1EEENSI_ILi2EEEEEEEE7managerERKNS1_15function_bufferERSO_NS1_30functor_manager_operation_typeEN4mpl_5bool_ILb0EEE@Base 1.6
 (optional=templinst)_ZN5boost6detail8function15functor_managerINS_9algorithm6detail13token_finderFINS4_10is_any_ofFIcEEEEE6manageERKNS1_15function_bufferERSA_NS1_30functor_manager_operation_typeE@Base 1.6
 (optional=templinst)_ZN5boost6detail8function15functor_managerINS_9algorithm6detail13token_finderFINS4_10is_any_ofFIcEEEEE7managerERKNS1_15function_bufferERSA_NS1_30functor_manager_operation_typeEN4mpl_5bool_ILb0EEE@Base 1.6
 _ZN5boost6detail8function16has_empty_targetEz@Base 1.6
 (optional=templinst)_ZN5boost6detail8function21function_obj_invoker0INS_3_bi6bind_tIbNS_4_mfi3mf0IbN3pcl9PLYReaderEEENS3_5list1INS3_5valueIPS8_EEEEEEbE6invokeERNS1_15function_bufferE@Base 1.6
 (optional=templinst)_ZN5boost6detail8function21function_obj_invoker2INS_3_bi6bind_tINS_6tuples5tupleINS_8functionIFvhEEENS7_IFviEEENS7_IFvvEEENS5_9null_typeESE_SE_SE_SE_SE_SE_EENS_4_mfi3mf2ISF_N3pcl9PLYReaderERKSsSL_EENS3_5list3INS3_5valueIPSJ_EENS_3argILi1EEENSR_ILi2EEEEEEESF_SL_SL_E6invokeERNS1_15function_bufferESL_SL_@Base 1.6
 (optional=templinst)_ZN5boost6detail8function21function_obj_invoker2INS_3_bi6bind_tINS_6tuples5tupleINS_8functionIFvvEEES9_NS5_9null_typeESA_SA_SA_SA_SA_SA_SA_EENS_4_mfi3mf2ISB_N3pcl9PLYReaderERKSsmEENS3_5list3INS3_5valueIPSF_EENS_3argILi1EEENSN_ILi2EEEEEEESB_SH_mE6invokeERNS1_15function_bufferESH_m@Base 1.6
 (optional=templinst)_ZN5boost6detail8function21function_obj_invoker2INS_3_bi6bind_tINS_8functionIFvfEEENS_4_mfi3mf2IS7_N3pcl9PLYReaderERKSsSD_EENS3_5list3INS3_5valueIPSB_EENS_3argILi1EEENSJ_ILi2EEEEEEES7_SD_SD_E6invokeERNS1_15function_bufferESD_SD_@Base 1.6
 (optional=templinst)_ZN5boost6detail8function21function_obj_invoker2INS_3_bi6bind_tINS_8functionIFvhEEENS_4_mfi3mf2IS7_N3pcl9PLYReaderERKSsSD_EENS3_5list3INS3_5valueIPSB_EENS_3argILi1EEENSJ_ILi2EEEEEEES7_SD_SD_E6invokeERNS1_15function_bufferESD_SD_@Base 1.6
 (optional=templinst)_ZN5boost6detail8function21function_obj_invoker2INS_3_bi6bind_tINS_8functionIFviEEENS_4_mfi3mf2IS7_N3pcl9PLYReaderERKSsSD_EENS3_5list3INS3_5valueIPSB_EENS_3argILi1EEENSJ_ILi2EEEEEEES7_SD_SD_E6invokeERNS1_15function_bufferESD_SD_@Base 1.6
 (optional=templinst)_ZN5boost6detail8function21function_obj_invoker2INS_9algorithm6detail13token_finderFINS4_10is_any_ofFIcEEEENS_14iterator_rangeIN9__gnu_cxx17__normal_iteratorIPKcSsEEEESE_SE_E6invokeERNS1_15function_bufferESE_SE_@Base 1.6
 (optional=templinst)_ZN5boost6detail8function21function_obj_invoker2INS_9algorithm6detail13token_finderFINS4_10is_any_ofFIcEEEENS_14iterator_rangeIN9__gnu_cxx17__normal_iteratorIPcSsEEEESD_SD_E6invokeERNS1_15function_bufferESD_SD_@Base 1.6
 (optional=templinst)_ZN5boost6detail8function22functor_manager_commonINS_3_bi6bind_tINS_6tuples5tupleINS_8functionIFvhEEENS7_IFviEEENS7_IFvvEEENS5_9null_typeESE_SE_SE_SE_SE_SE_EENS_4_mfi3mf2ISF_N3pcl9PLYReaderERKSsSL_EENS3_5list3INS3_5valueIPSJ_EENS_3argILi1EEENSR_ILi2EEEEEEEE12manage_smallERKNS1_15function_bufferERSX_NS1_30functor_manager_operation_typeE@Base 1.6
 (optional=templinst)_ZN5boost6detail8function22functor_manager_commonINS_3_bi6bind_tINS_6tuples5tupleINS_8functionIFvvEEES9_NS5_9null_typeESA_SA_SA_SA_SA_SA_SA_EENS_4_mfi3mf2ISB_N3pcl9PLYReaderERKSsmEENS3_5list3INS3_5valueIPSF_EENS_3argILi1EEENSN_ILi2EEEEEEEE12manage_smallERKNS1_15function_bufferERST_NS1_30functor_manager_operation_typeE@Base 1.6
 (optional=templinst)_ZN5boost6detail8function22functor_manager_commonINS_3_bi6bind_tINS_8functionIFvfEEENS_4_mfi3mf2IS7_N3pcl9PLYReaderERKSsSD_EENS3_5list3INS3_5valueIPSB_EENS_3argILi1EEENSJ_ILi2EEEEEEEE12manage_smallERKNS1_15function_bufferERSP_NS1_30functor_manager_operation_typeE@Base 1.6
 (optional=templinst)_ZN5boost6detail8function22functor_manager_commonINS_3_bi6bind_tINS_8functionIFvhEEENS_4_mfi3mf2IS7_N3pcl9PLYReaderERKSsSD_EENS3_5list3INS3_5valueIPSB_EENS_3argILi1EEENSJ_ILi2EEEEEEEE12manage_smallERKNS1_15function_bufferERSP_NS1_30functor_manager_operation_typeE@Base 1.6
 (optional=templinst)_ZN5boost6detail8function22functor_manager_commonINS_3_bi6bind_tINS_8functionIFviEEENS_4_mfi3mf2IS7_N3pcl9PLYReaderERKSsSD_EENS3_5list3INS3_5valueIPSB_EENS_3argILi1EEENSJ_ILi2EEEEEEEE12manage_smallERKNS1_15function_bufferERSP_NS1_30functor_manager_operation_typeE@Base 1.6
 (optional=templinst)_ZN5boost6detail8function22functor_manager_commonINS_3_bi6bind_tIbNS_4_mfi3mf0IbN3pcl9PLYReaderEEENS3_5list1INS3_5valueIPS8_EEEEEEE12manage_smallERKNS1_15function_bufferERSH_NS1_30functor_manager_operation_typeE@Base 1.6
 (optional=templinst)_ZN5boost6detail8function22functor_manager_commonINS_3_bi6bind_tIvNS_4_mfi3mf0IvN3pcl14PCDGrabberBase14PCDGrabberImplEEENS3_5list1INS3_5valueIPS9_EEEEEEE12manage_smallERKNS1_15function_bufferERSI_NS1_30functor_manager_operation_typeE@Base 1.6
 (optional=templinst)_ZN5boost6detail8function22functor_manager_commonINS_3_bi6bind_tIvNS_4_mfi3mf0IvN3pcl9PLYReaderEEENS3_5list1INS3_5valueIPS8_EEEEEEE12manage_smallERKNS1_15function_bufferERSH_NS1_30functor_manager_operation_typeE@Base 1.6
 (optional=templinst)_ZN5boost6detail8function22functor_manager_commonINS_3_bi6bind_tIvNS_4_mfi3mf1IvN3pcl9PLYReaderERKfEENS3_5list2INS3_5valueIPS8_EENS_3argILi1EEEEEEEE12manage_smallERKNS1_15function_bufferERSL_NS1_30functor_manager_operation_typeE@Base 1.6
 (optional=templinst)_ZN5boost6detail8function22functor_manager_commonINS_3_bi6bind_tIvNS_4_mfi3mf1IvN3pcl9PLYReaderERKiEENS3_5list2INS3_5valueIPS8_EENS_3argILi1EEEEEEEE12manage_smallERKNS1_15function_bufferERSL_NS1_30functor_manager_operation_typeE@Base 1.6
 (optional=templinst)_ZN5boost6detail8function22functor_manager_commonINS_3_bi6bind_tIvNS_4_mfi3mf1IvN3pcl9PLYReaderEfEENS3_5list2INS3_5valueIPS8_EENS_3argILi1EEEEEEEE12manage_smallERKNS1_15function_bufferERSJ_NS1_30functor_manager_operation_typeE@Base 1.6
 (optional=templinst)_ZN5boost6detail8function22functor_manager_commonINS_3_bi6bind_tIvNS_4_mfi3mf1IvN3pcl9PLYReaderEhEENS3_5list2INS3_5valueIPS8_EENS_3argILi1EEEEEEEE12manage_smallERKNS1_15function_bufferERSJ_NS1_30functor_manager_operation_typeE@Base 1.6
 (optional=templinst)_ZN5boost6detail8function22functor_manager_commonINS_3_bi6bind_tIvNS_4_mfi3mf1IvN3pcl9PLYReaderEiEENS3_5list2INS3_5valueIPS8_EENS_3argILi1EEEEEEEE12manage_smallERKNS1_15function_bufferERSJ_NS1_30functor_manager_operation_typeE@Base 1.6
 (optional=templinst)_ZN5boost6detail8function22functor_manager_commonINS_3_bi6bind_tIvNS_4_mfi3mf2IvN3pcl10ONIGrabberERKNS_10shared_ptrIN14openni_wrapper5ImageEEERKNS9_INSA_10DepthImageEEEEENS3_5list3INS3_5valueIPS8_EENS_3argILi1EEENSO_ILi2EEEEEEEE12manage_smallERKNS1_15function_bufferERSU_NS1_30functor_manager_operation_typeE@Base 1.6
 (optional=templinst)_ZN5boost6detail8function22functor_manager_commonINS_3_bi6bind_tIvNS_4_mfi3mf2IvN3pcl13OpenNIGrabberERKNS_10shared_ptrIN14openni_wrapper5ImageEEERKNS9_INSA_10DepthImageEEEEENS3_5list3INS3_5valueIPS8_EENS_3argILi1EEENSO_ILi2EEEEEEEE12manage_smallERKNS1_15function_bufferERSU_NS1_30functor_manager_operation_typeE@Base 1.6
 (optional=templinst)_ZN5boost6detail8function22functor_manager_commonINS_3_bi6bind_tIvNS_4_mfi3mf2IvN3pcl13OpenNIGrabberERKNS_10shared_ptrIN14openni_wrapper7IRImageEEERKNS9_INSA_10DepthImageEEEEENS3_5list3INS3_5valueIPS8_EENS_3argILi1EEENSO_ILi2EEEEEEEE12manage_smallERKNS1_15function_bufferERSU_NS1_30functor_manager_operation_typeE@Base 1.6
 (optional=templinst)_ZN5boost6detail8function26void_function_obj_invoker0INS_3_bi6bind_tIvNS_4_mfi3mf0IvN3pcl14PCDGrabberBase14PCDGrabberImplEEENS3_5list1INS3_5valueIPS9_EEEEEEvE6invokeERNS1_15function_bufferE@Base 1.6
 (optional=templinst)_ZN5boost6detail8function26void_function_obj_invoker0INS_3_bi6bind_tIvNS_4_mfi3mf0IvN3pcl9PLYReaderEEENS3_5list1INS3_5valueIPS8_EEEEEEvE6invokeERNS1_15function_bufferE@Base 1.6
 (optional=templinst)_ZN5boost6detail8function26void_function_obj_invoker1INS_3_bi6bind_tINS3_11unspecifiedENS_8functionIFvNS_10shared_ptrIN14openni_wrapper10DepthImageEEEPvEEENS3_5list2INS_3argILi1EEENS3_5valueISB_EEEEEEvSA_E6invokeERNS1_15function_bufferESA_@Base 1.6
 (optional=templinst)_ZN5boost6detail8function26void_function_obj_invoker1INS_3_bi6bind_tINS3_11unspecifiedENS_8functionIFvNS_10shared_ptrIN14openni_wrapper5ImageEEEPvEEENS3_5list2INS_3argILi1EEENS3_5valueISB_EEEEEEvSA_E6invokeERNS1_15function_bufferESA_@Base 1.6
 (optional=templinst)_ZN5boost6detail8function26void_function_obj_invoker1INS_3_bi6bind_tINS3_11unspecifiedENS_8functionIFvNS_10shared_ptrIN14openni_wrapper7IRImageEEEPvEEENS3_5list2INS_3argILi1EEENS3_5valueISB_EEEEEEvSA_E6invokeERNS1_15function_bufferESA_@Base 1.6
 (optional=templinst)_ZN5boost6detail8function26void_function_obj_invoker1INS_3_bi6bind_tIvNS_4_mfi3mf1IvN3pcl9PLYReaderERKfEENS3_5list2INS3_5valueIPS8_EENS_3argILi1EEEEEEEvfE6invokeERNS1_15function_bufferEf@Base 1.6
 (optional=templinst)_ZN5boost6detail8function26void_function_obj_invoker1INS_3_bi6bind_tIvNS_4_mfi3mf1IvN3pcl9PLYReaderERKiEENS3_5list2INS3_5valueIPS8_EENS_3argILi1EEEEEEEviE6invokeERNS1_15function_bufferEi@Base 1.6
 (optional=templinst)_ZN5boost6detail8function26void_function_obj_invoker1INS_3_bi6bind_tIvNS_4_mfi3mf1IvN3pcl9PLYReaderEfEENS3_5list2INS3_5valueIPS8_EENS_3argILi1EEEEEEEvfE6invokeERNS1_15function_bufferEf@Base 1.6
 (optional=templinst)_ZN5boost6detail8function26void_function_obj_invoker1INS_3_bi6bind_tIvNS_4_mfi3mf1IvN3pcl9PLYReaderEhEENS3_5list2INS3_5valueIPS8_EENS_3argILi1EEEEEEEvhE6invokeERNS1_15function_bufferEh@Base 1.6
 (optional=templinst)_ZN5boost6detail8function26void_function_obj_invoker1INS_3_bi6bind_tIvNS_4_mfi3mf1IvN3pcl9PLYReaderEiEENS3_5list2INS3_5valueIPS8_EENS_3argILi1EEEEEEEviE6invokeERNS1_15function_bufferEi@Base 1.6
 (optional=templinst)_ZN5boost6detail8function26void_function_obj_invoker1INS_3_bi6bind_tIvNS_4_mfi3mf2IvN3pcl10ONIGrabberENS_10shared_ptrIN14openni_wrapper10DepthImageEEEPvEENS3_5list3INS_17reference_wrapperIS8_EENS_3argILi1EEENS3_5valueISD_EEEEEEvSC_E6invokeERNS1_15function_bufferESC_@Base 1.6
 (optional=templinst)_ZN5boost6detail8function26void_function_obj_invoker1INS_3_bi6bind_tIvNS_4_mfi3mf2IvN3pcl10ONIGrabberENS_10shared_ptrIN14openni_wrapper5ImageEEEPvEENS3_5list3INS_17reference_wrapperIS8_EENS_3argILi1EEENS3_5valueISD_EEEEEEvSC_E6invokeERNS1_15function_bufferESC_@Base 1.6
 (optional=templinst)_ZN5boost6detail8function26void_function_obj_invoker1INS_3_bi6bind_tIvNS_4_mfi3mf2IvN3pcl10ONIGrabberENS_10shared_ptrIN14openni_wrapper7IRImageEEEPvEENS3_5list3INS_17reference_wrapperIS8_EENS_3argILi1EEENS3_5valueISD_EEEEEEvSC_E6invokeERNS1_15function_bufferESC_@Base 1.6
 (optional=templinst)_ZN5boost6detail8function26void_function_obj_invoker1INS_3_bi6bind_tIvNS_4_mfi3mf2IvN3pcl13OpenNIGrabberENS_10shared_ptrIN14openni_wrapper10DepthImageEEEPvEENS3_5list3INS_17reference_wrapperIS8_EENS_3argILi1EEENS3_5valueISD_EEEEEEvSC_E6invokeERNS1_15function_bufferESC_@Base 1.6
 (optional=templinst)_ZN5boost6detail8function26void_function_obj_invoker1INS_3_bi6bind_tIvNS_4_mfi3mf2IvN3pcl13OpenNIGrabberENS_10shared_ptrIN14openni_wrapper5ImageEEEPvEENS3_5list3INS_17reference_wrapperIS8_EENS_3argILi1EEENS3_5valueISD_EEEEEEvSC_E6invokeERNS1_15function_bufferESC_@Base 1.6
 (optional=templinst)_ZN5boost6detail8function26void_function_obj_invoker1INS_3_bi6bind_tIvNS_4_mfi3mf2IvN3pcl13OpenNIGrabberENS_10shared_ptrIN14openni_wrapper7IRImageEEEPvEENS3_5list3INS_17reference_wrapperIS8_EENS_3argILi1EEENS3_5valueISD_EEEEEEvSC_E6invokeERNS1_15function_bufferESC_@Base 1.6
 (optional=templinst)_ZN5boost6detail8function26void_function_obj_invoker1INS_3_bi6bind_tIvNS_4_mfi3mf2IvN3pcl9PLYReaderERKSshEENS3_5list3INS3_5valueIPS8_EENSD_ISsEENS_3argILi1EEEEEEEvhE6invokeERNS1_15function_bufferEh@Base 1.6
 (optional=templinst)_ZN5boost6detail8function26void_function_obj_invoker2INS_3_bi6bind_tIvNS_4_mfi3mf3IvN3pcl9PLYReaderERKSsmSA_EENS3_5list4INS3_5valueIPS8_EENS_17reference_wrapperIS9_EENS_3argILi1EEENSI_ILi2EEEEEEEvmSA_E6invokeERNS1_15function_bufferEmSA_@Base 1.6
 (optional=templinst)_ZN5boost6detail8function26void_function_obj_invoker4INS_3_bi6bind_tIvNS_4_mfi3mf2IvN3pcl10ONIGrabberERKNS_10shared_ptrIN14openni_wrapper5ImageEEERKNS9_INSA_10DepthImageEEEEENS3_5list3INS3_5valueIPS8_EENS_3argILi1EEENSO_ILi2EEEEEEEvSC_SG_mmE6invokeERNS1_15function_bufferESC_SG_mm@Base 1.6
 (optional=templinst)_ZN5boost6detail8function26void_function_obj_invoker4INS_3_bi6bind_tIvNS_4_mfi3mf2IvN3pcl13OpenNIGrabberERKNS_10shared_ptrIN14openni_wrapper5ImageEEERKNS9_INSA_10DepthImageEEEEENS3_5list3INS3_5valueIPS8_EENS_3argILi1EEENSO_ILi2EEEEEEEvSC_SG_mmE6invokeERNS1_15function_bufferESC_SG_mm@Base 1.6
 (optional=templinst)_ZN5boost6detail8function26void_function_obj_invoker4INS_3_bi6bind_tIvNS_4_mfi3mf2IvN3pcl13OpenNIGrabberERKNS_10shared_ptrIN14openni_wrapper7IRImageEEERKNS9_INSA_10DepthImageEEEEENS3_5list3INS3_5valueIPS8_EENS_3argILi1EEENSO_ILi2EEEEEEEvSC_SG_mmE6invokeERNS1_15function_bufferESC_SG_mm@Base 1.6
 _ZN5boost6system12system_errorD0Ev@Base 1.6
 _ZN5boost6system12system_errorD1Ev@Base 1.6
 _ZN5boost6system12system_errorD2Ev@Base 1.6
 _ZN5boost6system14error_categoryD0Ev@Base 1.6
 _ZN5boost6system14error_categoryD1Ev@Base 1.6
 _ZN5boost6system14error_categoryD2Ev@Base 1.6
 _ZN5boost6threadC1ENS_6detail13thread_move_tIS0_EE@Base 1.6
 (optional=templinst)_ZN5boost6threadC1IMN14openni_wrapper12OpenNIDeviceEFvvEPS3_EET_T0_@Base 1.6
 (optional=templinst)_ZN5boost6threadC1IMN14openni_wrapper9DeviceONIEFvvEPS3_EET_T0_@Base 1.6
 _ZN5boost6threadC2ENS_6detail13thread_move_tIS0_EE@Base 1.6
 (optional=templinst)_ZN5boost6threadC2IMN14openni_wrapper12OpenNIDeviceEFvvEPS3_EET_T0_@Base 1.6
 (optional=templinst)_ZN5boost6threadC2IMN14openni_wrapper9DeviceONIEFvvEPS3_EET_T0_@Base 1.6
 _ZN5boost6threadaSENS_6detail13thread_move_tIS0_EE@Base 1.6
 (optional=templinst)_ZN5boost6tuples4consINS_8functionIFvhEEENS1_INS2_IFviEEENS1_INS2_IFvvEEENS0_9null_typeEEEEEEC1IKS4_KS6_KS8_KS9_SH_SH_SH_SH_SH_SH_EERT_RT0_RT1_RT2_RT3_RT4_RT5_RT6_RT7_RT8_@Base 1.6
 (optional=templinst)_ZN5boost6tuples4consINS_8functionIFvhEEENS1_INS2_IFviEEENS1_INS2_IFvvEEENS0_9null_typeEEEEEEC2IKS4_KS6_KS8_KS9_SH_SH_SH_SH_SH_SH_EERT_RT0_RT1_RT2_RT3_RT4_RT5_RT6_RT7_RT8_@Base 1.6
 (optional=templinst)_ZN5boost6tuples5tupleINS_8functionIFvvEEES4_NS0_9null_typeES5_S5_S5_S5_S5_S5_S5_EC1ERKS4_S8_@Base 1.6
 (optional=templinst)_ZN5boost6tuples5tupleINS_8functionIFvvEEES4_NS0_9null_typeES5_S5_S5_S5_S5_S5_S5_EC2ERKS4_S8_@Base 1.6
 _ZN5boost7numeric16bad_numeric_castD0Ev@Base 1.6
 _ZN5boost7numeric16bad_numeric_castD1Ev@Base 1.6
 _ZN5boost7numeric16bad_numeric_castD2Ev@Base 1.6
 _ZN5boost7numeric17negative_overflowD0Ev@Base 1.6
 _ZN5boost7numeric17negative_overflowD1Ev@Base 1.6
 _ZN5boost7numeric17negative_overflowD2Ev@Base 1.6
 _ZN5boost7numeric17positive_overflowD0Ev@Base 1.6
 _ZN5boost7numeric17positive_overflowD1Ev@Base 1.6
 _ZN5boost7numeric17positive_overflowD2Ev@Base 1.6
 (optional=templinst)_ZN5boost7variantINS_10shared_ptrIvEENS_8signals26detail23foreign_void_shared_ptrENS_6detail7variant5void_ES8_S8_S8_S8_S8_S8_S8_S8_S8_S8_S8_S8_S8_S8_S8_S8_S8_E15destroy_contentEv@Base 1.6
 (optional=templinst)_ZN5boost7variantINS_10shared_ptrIvEENS_8signals26detail23foreign_void_shared_ptrENS_6detail7variant5void_ES8_S8_S8_S8_S8_S8_S8_S8_S8_S8_S8_S8_S8_S8_S8_S8_S8_E22internal_apply_visitorINS7_9destroyerEEENT_11result_typeERSC_@Base 1.6
 (optional=templinst)_ZN5boost7variantINS_10shared_ptrIvEENS_8signals26detail23foreign_void_shared_ptrENS_6detail7variant5void_ES8_S8_S8_S8_S8_S8_S8_S8_S8_S8_S8_S8_S8_S8_S8_S8_S8_E22internal_apply_visitorINS9_17convert_copy_intoEEENT_11result_typeERSC_@Base 1.6
 (optional=templinst)_ZN5boost8functionIFNS0_IFvaEEERKSsS4_EEaSERKS6_@Base 1.6
 (optional=templinst)_ZN5boost8functionIFNS0_IFvdEEERKSsS4_EEaSERKS6_@Base 1.6
 (optional=templinst)_ZN5boost8functionIFNS0_IFvfEEERKSsS4_EEaSERKS6_@Base 1.6
 (optional=templinst)_ZN5boost8functionIFNS0_IFvfEEERKSsS4_EEaSINS_3_bi6bind_tIS2_NS_4_mfi3mf2IS2_N3pcl9PLYReaderES4_S4_EENS8_5list3INS8_5valueIPSD_EENS_3argILi1EEENSJ_ILi2EEEEEEEEENS_11enable_if_cIXsrNS_11type_traits7ice_notIXsrNS_11is_integralIT_EE5valueEEE5valueERS6_E4typeESS_@Base 1.6
 (optional=templinst)_ZN5boost8functionIFNS0_IFvhEEERKSsS4_EEaSERKS6_@Base 1.6
 (optional=templinst)_ZN5boost8functionIFNS0_IFvhEEERKSsS4_EEaSINS_3_bi6bind_tIS2_NS_4_mfi3mf2IS2_N3pcl9PLYReaderES4_S4_EENS8_5list3INS8_5valueIPSD_EENS_3argILi1EEENSJ_ILi2EEEEEEEEENS_11enable_if_cIXsrNS_11type_traits7ice_notIXsrNS_11is_integralIT_EE5valueEEE5valueERS6_E4typeESS_@Base 1.6
 (optional=templinst)_ZN5boost8functionIFNS0_IFviEEERKSsS4_EEaSERKS6_@Base 1.6
 (optional=templinst)_ZN5boost8functionIFNS0_IFviEEERKSsS4_EEaSINS_3_bi6bind_tIS2_NS_4_mfi3mf2IS2_N3pcl9PLYReaderES4_S4_EENS8_5list3INS8_5valueIPSD_EENS_3argILi1EEENSJ_ILi2EEEEEEEEENS_11enable_if_cIXsrNS_11type_traits7ice_notIXsrNS_11is_integralIT_EE5valueEEE5valueERS6_E4typeESS_@Base 1.6
 (optional=templinst)_ZN5boost8functionIFNS0_IFvjEEERKSsS4_EEaSERKS6_@Base 1.6
 (optional=templinst)_ZN5boost8functionIFNS0_IFvsEEERKSsS4_EEaSERKS6_@Base 1.6
 (optional=templinst)_ZN5boost8functionIFNS0_IFvtEEERKSsS4_EEaSERKS6_@Base 1.6
 (optional=templinst)_ZN5boost8functionIFNS_6tuples5tupleINS0_IFvhEEENS0_IFvaEEENS0_IFvvEEENS1_9null_typeES9_S9_S9_S9_S9_S9_EERKSsSC_EEaSERKSE_@Base 1.6
 (optional=templinst)_ZN5boost8functionIFNS_6tuples5tupleINS0_IFvhEEENS0_IFvdEEENS0_IFvvEEENS1_9null_typeES9_S9_S9_S9_S9_S9_EERKSsSC_EEaSERKSE_@Base 1.6
 (optional=templinst)_ZN5boost8functionIFNS_6tuples5tupleINS0_IFvhEEENS0_IFvfEEENS0_IFvvEEENS1_9null_typeES9_S9_S9_S9_S9_S9_EERKSsSC_EEaSERKSE_@Base 1.6
 (optional=templinst)_ZN5boost8functionIFNS_6tuples5tupleINS0_IFvhEEENS0_IFviEEENS0_IFvvEEENS1_9null_typeES9_S9_S9_S9_S9_S9_EERKSsSC_EEaSERKSE_@Base 1.6
 (optional=templinst)_ZN5boost8functionIFNS_6tuples5tupleINS0_IFvhEEENS0_IFviEEENS0_IFvvEEENS1_9null_typeES9_S9_S9_S9_S9_S9_EERKSsSC_EEaSINS_3_bi6bind_tISA_NS_4_mfi3mf2ISA_N3pcl9PLYReaderESC_SC_EENSG_5list3INSG_5valueIPSL_EENS_3argILi1EEENSR_ILi2EEEEEEEEENS_11enable_if_cIXsrNS_11type_traits7ice_notIXsrNS_11is_integralIT_EE5valueEEE5valueERSE_E4typeES10_@Base 1.6
 (optional=templinst)_ZN5boost8functionIFNS_6tuples5tupleINS0_IFvhEEENS0_IFvjEEENS0_IFvvEEENS1_9null_typeES9_S9_S9_S9_S9_S9_EERKSsSC_EEaSERKSE_@Base 1.6
 (optional=templinst)_ZN5boost8functionIFNS_6tuples5tupleINS0_IFvhEEENS0_IFvsEEENS0_IFvvEEENS1_9null_typeES9_S9_S9_S9_S9_S9_EERKSsSC_EEaSERKSE_@Base 1.6
 (optional=templinst)_ZN5boost8functionIFNS_6tuples5tupleINS0_IFvhEEENS0_IFvtEEENS0_IFvvEEENS1_9null_typeES9_S9_S9_S9_S9_S9_EERKSsSC_EEaSERKSE_@Base 1.6
 (optional=templinst)_ZN5boost8functionIFNS_6tuples5tupleINS0_IFvhEEES4_NS0_IFvvEEENS1_9null_typeES7_S7_S7_S7_S7_S7_EERKSsSA_EEaSERKSC_@Base 1.6
 (optional=templinst)_ZN5boost8functionIFNS_6tuples5tupleINS0_IFvjEEENS0_IFvaEEENS0_IFvvEEENS1_9null_typeES9_S9_S9_S9_S9_S9_EERKSsSC_EEaSERKSE_@Base 1.6
 (optional=templinst)_ZN5boost8functionIFNS_6tuples5tupleINS0_IFvjEEENS0_IFvdEEENS0_IFvvEEENS1_9null_typeES9_S9_S9_S9_S9_S9_EERKSsSC_EEaSERKSE_@Base 1.6
 (optional=templinst)_ZN5boost8functionIFNS_6tuples5tupleINS0_IFvjEEENS0_IFvfEEENS0_IFvvEEENS1_9null_typeES9_S9_S9_S9_S9_S9_EERKSsSC_EEaSERKSE_@Base 1.6
 (optional=templinst)_ZN5boost8functionIFNS_6tuples5tupleINS0_IFvjEEENS0_IFvhEEENS0_IFvvEEENS1_9null_typeES9_S9_S9_S9_S9_S9_EERKSsSC_EEaSERKSE_@Base 1.6
 (optional=templinst)_ZN5boost8functionIFNS_6tuples5tupleINS0_IFvjEEENS0_IFviEEENS0_IFvvEEENS1_9null_typeES9_S9_S9_S9_S9_S9_EERKSsSC_EEaSERKSE_@Base 1.6
 (optional=templinst)_ZN5boost8functionIFNS_6tuples5tupleINS0_IFvjEEENS0_IFvsEEENS0_IFvvEEENS1_9null_typeES9_S9_S9_S9_S9_S9_EERKSsSC_EEaSERKSE_@Base 1.6
 (optional=templinst)_ZN5boost8functionIFNS_6tuples5tupleINS0_IFvjEEENS0_IFvtEEENS0_IFvvEEENS1_9null_typeES9_S9_S9_S9_S9_S9_EERKSsSC_EEaSERKSE_@Base 1.6
 (optional=templinst)_ZN5boost8functionIFNS_6tuples5tupleINS0_IFvjEEES4_NS0_IFvvEEENS1_9null_typeES7_S7_S7_S7_S7_S7_EERKSsSA_EEaSERKSC_@Base 1.6
 (optional=templinst)_ZN5boost8functionIFNS_6tuples5tupleINS0_IFvtEEENS0_IFvaEEENS0_IFvvEEENS1_9null_typeES9_S9_S9_S9_S9_S9_EERKSsSC_EEaSERKSE_@Base 1.6
 (optional=templinst)_ZN5boost8functionIFNS_6tuples5tupleINS0_IFvtEEENS0_IFvdEEENS0_IFvvEEENS1_9null_typeES9_S9_S9_S9_S9_S9_EERKSsSC_EEaSERKSE_@Base 1.6
 (optional=templinst)_ZN5boost8functionIFNS_6tuples5tupleINS0_IFvtEEENS0_IFvfEEENS0_IFvvEEENS1_9null_typeES9_S9_S9_S9_S9_S9_EERKSsSC_EEaSERKSE_@Base 1.6
 (optional=templinst)_ZN5boost8functionIFNS_6tuples5tupleINS0_IFvtEEENS0_IFvhEEENS0_IFvvEEENS1_9null_typeES9_S9_S9_S9_S9_S9_EERKSsSC_EEaSERKSE_@Base 1.6
 (optional=templinst)_ZN5boost8functionIFNS_6tuples5tupleINS0_IFvtEEENS0_IFviEEENS0_IFvvEEENS1_9null_typeES9_S9_S9_S9_S9_S9_EERKSsSC_EEaSERKSE_@Base 1.6
 (optional=templinst)_ZN5boost8functionIFNS_6tuples5tupleINS0_IFvtEEENS0_IFvjEEENS0_IFvvEEENS1_9null_typeES9_S9_S9_S9_S9_S9_EERKSsSC_EEaSERKSE_@Base 1.6
 (optional=templinst)_ZN5boost8functionIFNS_6tuples5tupleINS0_IFvtEEENS0_IFvsEEENS0_IFvvEEENS1_9null_typeES9_S9_S9_S9_S9_S9_EERKSsSC_EEaSERKSE_@Base 1.6
 (optional=templinst)_ZN5boost8functionIFNS_6tuples5tupleINS0_IFvtEEES4_NS0_IFvvEEENS1_9null_typeES7_S7_S7_S7_S7_S7_EERKSsSA_EEaSERKSC_@Base 1.6
 (optional=templinst)_ZN5boost8functionIFNS_6tuples5tupleINS0_IFvvEEES4_NS1_9null_typeES5_S5_S5_S5_S5_S5_S5_EERKSsmEEaSERKSA_@Base 1.6
 (optional=templinst)_ZN5boost8functionIFbvEEaSERKS2_@Base 1.6
 (optional=templinst)_ZN5boost8functionIFvNS_10shared_ptrIN14openni_wrapper10DepthImageEEEEEC1ERKS6_@Base 1.6
 (optional=templinst)_ZN5boost8functionIFvNS_10shared_ptrIN14openni_wrapper10DepthImageEEEEEC1INS_3_bi6bind_tINS8_11unspecifiedENS0_IFvS4_PvEEENS8_5list2INS_3argILi1EEENS8_5valueISB_EEEEEEEET_NS_11enable_if_cIXsrNS_11type_traits7ice_notIXsrNS_11is_integralISL_EE5valueEEE5valueEiE4typeE@Base 1.6
 (optional=templinst)_ZN5boost8functionIFvNS_10shared_ptrIN14openni_wrapper10DepthImageEEEEEC1INS_3_bi6bind_tIvNS_4_mfi3mf2IvN3pcl10ONIGrabberES4_PvEENS8_5list3INS_17reference_wrapperISD_EENS_3argILi1EEENS8_5valueISE_EEEEEEEET_NS_11enable_if_cIXsrNS_11type_traits7ice_notIXsrNS_11is_integralISP_EE5valueEEE5valueEiE4typeE@Base 1.6
 (optional=templinst)_ZN5boost8functionIFvNS_10shared_ptrIN14openni_wrapper10DepthImageEEEEEC2ERKS6_@Base 1.6
 (optional=templinst)_ZN5boost8functionIFvNS_10shared_ptrIN14openni_wrapper10DepthImageEEEEEC2INS_3_bi6bind_tINS8_11unspecifiedENS0_IFvS4_PvEEENS8_5list2INS_3argILi1EEENS8_5valueISB_EEEEEEEET_NS_11enable_if_cIXsrNS_11type_traits7ice_notIXsrNS_11is_integralISL_EE5valueEEE5valueEiE4typeE@Base 1.6
 (optional=templinst)_ZN5boost8functionIFvNS_10shared_ptrIN14openni_wrapper10DepthImageEEEEEC2INS_3_bi6bind_tIvNS_4_mfi3mf2IvN3pcl10ONIGrabberES4_PvEENS8_5list3INS_17reference_wrapperISD_EENS_3argILi1EEENS8_5valueISE_EEEEEEEET_NS_11enable_if_cIXsrNS_11type_traits7ice_notIXsrNS_11is_integralISP_EE5valueEEE5valueEiE4typeE@Base 1.6
 (optional=templinst)_ZN5boost8functionIFvNS_10shared_ptrIN14openni_wrapper10DepthImageEEEEED1Ev@Base 1.6
 (optional=templinst)_ZN5boost8functionIFvNS_10shared_ptrIN14openni_wrapper10DepthImageEEEEED2Ev@Base 1.6
 (optional=templinst)_ZN5boost8functionIFvNS_10shared_ptrIN14openni_wrapper10DepthImageEEEEEaSINS_3_bi6bind_tINS8_11unspecifiedENS0_IFvS4_PvEEENS8_5list2INS_3argILi1EEENS8_5valueISB_EEEEEEEENS_11enable_if_cIXsrNS_11type_traits7ice_notIXsrNS_11is_integralIT_EE5valueEEE5valueERS6_E4typeESP_@Base 1.6
 (optional=templinst)_ZN5boost8functionIFvNS_10shared_ptrIN14openni_wrapper10DepthImageEEEEEaSINS_3_bi6bind_tIvNS_4_mfi3mf2IvN3pcl10ONIGrabberES4_PvEENS8_5list3INS_17reference_wrapperISD_EENS_3argILi1EEENS8_5valueISE_EEEEEEEENS_11enable_if_cIXsrNS_11type_traits7ice_notIXsrNS_11is_integralIT_EE5valueEEE5valueERS6_E4typeEST_@Base 1.6
 (optional=templinst)_ZN5boost8functionIFvNS_10shared_ptrIN14openni_wrapper10DepthImageEEEEEaSINS_3_bi6bind_tIvNS_4_mfi3mf2IvN3pcl13OpenNIGrabberES4_PvEENS8_5list3INS_17reference_wrapperISD_EENS_3argILi1EEENS8_5valueISE_EEEEEEEENS_11enable_if_cIXsrNS_11type_traits7ice_notIXsrNS_11is_integralIT_EE5valueEEE5valueERS6_E4typeEST_@Base 1.6
 (optional=templinst)_ZN5boost8functionIFvNS_10shared_ptrIN14openni_wrapper5ImageEEEEEC1ERKS6_@Base 1.6
 (optional=templinst)_ZN5boost8functionIFvNS_10shared_ptrIN14openni_wrapper5ImageEEEEEC1INS_3_bi6bind_tINS8_11unspecifiedENS0_IFvS4_PvEEENS8_5list2INS_3argILi1EEENS8_5valueISB_EEEEEEEET_NS_11enable_if_cIXsrNS_11type_traits7ice_notIXsrNS_11is_integralISL_EE5valueEEE5valueEiE4typeE@Base 1.6
 (optional=templinst)_ZN5boost8functionIFvNS_10shared_ptrIN14openni_wrapper5ImageEEEEEC1INS_3_bi6bind_tIvNS_4_mfi3mf2IvN3pcl10ONIGrabberES4_PvEENS8_5list3INS_17reference_wrapperISD_EENS_3argILi1EEENS8_5valueISE_EEEEEEEET_NS_11enable_if_cIXsrNS_11type_traits7ice_notIXsrNS_11is_integralISP_EE5valueEEE5valueEiE4typeE@Base 1.6
 (optional=templinst)_ZN5boost8functionIFvNS_10shared_ptrIN14openni_wrapper5ImageEEEEEC2ERKS6_@Base 1.6
 (optional=templinst)_ZN5boost8functionIFvNS_10shared_ptrIN14openni_wrapper5ImageEEEEEC2INS_3_bi6bind_tINS8_11unspecifiedENS0_IFvS4_PvEEENS8_5list2INS_3argILi1EEENS8_5valueISB_EEEEEEEET_NS_11enable_if_cIXsrNS_11type_traits7ice_notIXsrNS_11is_integralISL_EE5valueEEE5valueEiE4typeE@Base 1.6
 (optional=templinst)_ZN5boost8functionIFvNS_10shared_ptrIN14openni_wrapper5ImageEEEEEC2INS_3_bi6bind_tIvNS_4_mfi3mf2IvN3pcl10ONIGrabberES4_PvEENS8_5list3INS_17reference_wrapperISD_EENS_3argILi1EEENS8_5valueISE_EEEEEEEET_NS_11enable_if_cIXsrNS_11type_traits7ice_notIXsrNS_11is_integralISP_EE5valueEEE5valueEiE4typeE@Base 1.6
 (optional=templinst)_ZN5boost8functionIFvNS_10shared_ptrIN14openni_wrapper5ImageEEEEED1Ev@Base 1.6
 (optional=templinst)_ZN5boost8functionIFvNS_10shared_ptrIN14openni_wrapper5ImageEEEEED2Ev@Base 1.6
 (optional=templinst)_ZN5boost8functionIFvNS_10shared_ptrIN14openni_wrapper5ImageEEEEEaSINS_3_bi6bind_tINS8_11unspecifiedENS0_IFvS4_PvEEENS8_5list2INS_3argILi1EEENS8_5valueISB_EEEEEEEENS_11enable_if_cIXsrNS_11type_traits7ice_notIXsrNS_11is_integralIT_EE5valueEEE5valueERS6_E4typeESP_@Base 1.6
 (optional=templinst)_ZN5boost8functionIFvNS_10shared_ptrIN14openni_wrapper5ImageEEEEEaSINS_3_bi6bind_tIvNS_4_mfi3mf2IvN3pcl10ONIGrabberES4_PvEENS8_5list3INS_17reference_wrapperISD_EENS_3argILi1EEENS8_5valueISE_EEEEEEEENS_11enable_if_cIXsrNS_11type_traits7ice_notIXsrNS_11is_integralIT_EE5valueEEE5valueERS6_E4typeEST_@Base 1.6
 (optional=templinst)_ZN5boost8functionIFvNS_10shared_ptrIN14openni_wrapper5ImageEEEEEaSINS_3_bi6bind_tIvNS_4_mfi3mf2IvN3pcl13OpenNIGrabberES4_PvEENS8_5list3INS_17reference_wrapperISD_EENS_3argILi1EEENS8_5valueISE_EEEEEEEENS_11enable_if_cIXsrNS_11type_traits7ice_notIXsrNS_11is_integralIT_EE5valueEEE5valueERS6_E4typeEST_@Base 1.6
 (optional=templinst)_ZN5boost8functionIFvNS_10shared_ptrIN14openni_wrapper5ImageEEENS1_INS2_10DepthImageEEEmmEEC1ERKS8_@Base 1.6
 (optional=templinst)_ZN5boost8functionIFvNS_10shared_ptrIN14openni_wrapper5ImageEEENS1_INS2_10DepthImageEEEmmEEC1INS_3_bi6bind_tIvNS_4_mfi3mf2IvN3pcl10ONIGrabberERKS4_RKS6_EENSA_5list3INSA_5valueIPSF_EENS_3argILi1EEENSP_ILi2EEEEEEEEET_NS_11enable_if_cIXsrNS_11type_traits7ice_notIXsrNS_11is_integralISU_EE5valueEEE5valueEiE4typeE@Base 1.6
 (optional=templinst)_ZN5boost8functionIFvNS_10shared_ptrIN14openni_wrapper5ImageEEENS1_INS2_10DepthImageEEEmmEEC1INS_3_bi6bind_tIvNS_4_mfi3mf2IvN3pcl13OpenNIGrabberERKS4_RKS6_EENSA_5list3INSA_5valueIPSF_EENS_3argILi1EEENSP_ILi2EEEEEEEEET_NS_11enable_if_cIXsrNS_11type_traits7ice_notIXsrNS_11is_integralISU_EE5valueEEE5valueEiE4typeE@Base 1.6
 (optional=templinst)_ZN5boost8functionIFvNS_10shared_ptrIN14openni_wrapper5ImageEEENS1_INS2_10DepthImageEEEmmEEC2ERKS8_@Base 1.6
 (optional=templinst)_ZN5boost8functionIFvNS_10shared_ptrIN14openni_wrapper5ImageEEENS1_INS2_10DepthImageEEEmmEEC2INS_3_bi6bind_tIvNS_4_mfi3mf2IvN3pcl10ONIGrabberERKS4_RKS6_EENSA_5list3INSA_5valueIPSF_EENS_3argILi1EEENSP_ILi2EEEEEEEEET_NS_11enable_if_cIXsrNS_11type_traits7ice_notIXsrNS_11is_integralISU_EE5valueEEE5valueEiE4typeE@Base 1.6
 (optional=templinst)_ZN5boost8functionIFvNS_10shared_ptrIN14openni_wrapper5ImageEEENS1_INS2_10DepthImageEEEmmEEC2INS_3_bi6bind_tIvNS_4_mfi3mf2IvN3pcl13OpenNIGrabberERKS4_RKS6_EENSA_5list3INSA_5valueIPSF_EENS_3argILi1EEENSP_ILi2EEEEEEEEET_NS_11enable_if_cIXsrNS_11type_traits7ice_notIXsrNS_11is_integralISU_EE5valueEEE5valueEiE4typeE@Base 1.6
 (optional=templinst)_ZN5boost8functionIFvNS_10shared_ptrIN14openni_wrapper5ImageEEENS1_INS2_10DepthImageEEEmmEED1Ev@Base 1.6
 (optional=templinst)_ZN5boost8functionIFvNS_10shared_ptrIN14openni_wrapper5ImageEEENS1_INS2_10DepthImageEEEmmEED2Ev@Base 1.6
 (optional=templinst)_ZN5boost8functionIFvNS_10shared_ptrIN14openni_wrapper5ImageEEENS1_INS2_10DepthImageEEEmmEEaSERKS8_@Base 1.6
 (optional=templinst)_ZN5boost8functionIFvNS_10shared_ptrIN14openni_wrapper7IRImageEEEEEC1ERKS6_@Base 1.6
 (optional=templinst)_ZN5boost8functionIFvNS_10shared_ptrIN14openni_wrapper7IRImageEEEEEC1INS_3_bi6bind_tINS8_11unspecifiedENS0_IFvS4_PvEEENS8_5list2INS_3argILi1EEENS8_5valueISB_EEEEEEEET_NS_11enable_if_cIXsrNS_11type_traits7ice_notIXsrNS_11is_integralISL_EE5valueEEE5valueEiE4typeE@Base 1.6
 (optional=templinst)_ZN5boost8functionIFvNS_10shared_ptrIN14openni_wrapper7IRImageEEEEEC1INS_3_bi6bind_tIvNS_4_mfi3mf2IvN3pcl10ONIGrabberES4_PvEENS8_5list3INS_17reference_wrapperISD_EENS_3argILi1EEENS8_5valueISE_EEEEEEEET_NS_11enable_if_cIXsrNS_11type_traits7ice_notIXsrNS_11is_integralISP_EE5valueEEE5valueEiE4typeE@Base 1.6
 (optional=templinst)_ZN5boost8functionIFvNS_10shared_ptrIN14openni_wrapper7IRImageEEEEEC2ERKS6_@Base 1.6
 (optional=templinst)_ZN5boost8functionIFvNS_10shared_ptrIN14openni_wrapper7IRImageEEEEEC2INS_3_bi6bind_tINS8_11unspecifiedENS0_IFvS4_PvEEENS8_5list2INS_3argILi1EEENS8_5valueISB_EEEEEEEET_NS_11enable_if_cIXsrNS_11type_traits7ice_notIXsrNS_11is_integralISL_EE5valueEEE5valueEiE4typeE@Base 1.6
 (optional=templinst)_ZN5boost8functionIFvNS_10shared_ptrIN14openni_wrapper7IRImageEEEEEC2INS_3_bi6bind_tIvNS_4_mfi3mf2IvN3pcl10ONIGrabberES4_PvEENS8_5list3INS_17reference_wrapperISD_EENS_3argILi1EEENS8_5valueISE_EEEEEEEET_NS_11enable_if_cIXsrNS_11type_traits7ice_notIXsrNS_11is_integralISP_EE5valueEEE5valueEiE4typeE@Base 1.6
 (optional=templinst)_ZN5boost8functionIFvNS_10shared_ptrIN14openni_wrapper7IRImageEEEEED1Ev@Base 1.6
 (optional=templinst)_ZN5boost8functionIFvNS_10shared_ptrIN14openni_wrapper7IRImageEEEEED2Ev@Base 1.6
 (optional=templinst)_ZN5boost8functionIFvNS_10shared_ptrIN14openni_wrapper7IRImageEEEEEaSINS_3_bi6bind_tINS8_11unspecifiedENS0_IFvS4_PvEEENS8_5list2INS_3argILi1EEENS8_5valueISB_EEEEEEEENS_11enable_if_cIXsrNS_11type_traits7ice_notIXsrNS_11is_integralIT_EE5valueEEE5valueERS6_E4typeESP_@Base 1.6
 (optional=templinst)_ZN5boost8functionIFvNS_10shared_ptrIN14openni_wrapper7IRImageEEEEEaSINS_3_bi6bind_tIvNS_4_mfi3mf2IvN3pcl10ONIGrabberES4_PvEENS8_5list3INS_17reference_wrapperISD_EENS_3argILi1EEENS8_5valueISE_EEEEEEEENS_11enable_if_cIXsrNS_11type_traits7ice_notIXsrNS_11is_integralIT_EE5valueEEE5valueERS6_E4typeEST_@Base 1.6
 (optional=templinst)_ZN5boost8functionIFvNS_10shared_ptrIN14openni_wrapper7IRImageEEEEEaSINS_3_bi6bind_tIvNS_4_mfi3mf2IvN3pcl13OpenNIGrabberES4_PvEENS8_5list3INS_17reference_wrapperISD_EENS_3argILi1EEENS8_5valueISE_EEEEEEEENS_11enable_if_cIXsrNS_11type_traits7ice_notIXsrNS_11is_integralIT_EE5valueEEE5valueERS6_E4typeEST_@Base 1.6
 (optional=templinst)_ZN5boost8functionIFvNS_10shared_ptrIN14openni_wrapper7IRImageEEENS1_INS2_10DepthImageEEEmmEEaSERKS8_@Base 1.6
 (optional=templinst)_ZN5boost8functionIFvfEEC1INS_3_bi6bind_tIvNS_4_mfi3mf1IvN3pcl9PLYReaderERKfEENS4_5list2INS4_5valueIPS9_EENS_3argILi1EEEEEEEEET_NS_11enable_if_cIXsrNS_11type_traits7ice_notIXsrNS_11is_integralISL_EE5valueEEE5valueEiE4typeE@Base 1.6
 (optional=templinst)_ZN5boost8functionIFvfEEC1INS_3_bi6bind_tIvNS_4_mfi3mf1IvN3pcl9PLYReaderEfEENS4_5list2INS4_5valueIPS9_EENS_3argILi1EEEEEEEEET_NS_11enable_if_cIXsrNS_11type_traits7ice_notIXsrNS_11is_integralISJ_EE5valueEEE5valueEiE4typeE@Base 1.6
 (optional=templinst)_ZN5boost8functionIFvfEEC2INS_3_bi6bind_tIvNS_4_mfi3mf1IvN3pcl9PLYReaderERKfEENS4_5list2INS4_5valueIPS9_EENS_3argILi1EEEEEEEEET_NS_11enable_if_cIXsrNS_11type_traits7ice_notIXsrNS_11is_integralISL_EE5valueEEE5valueEiE4typeE@Base 1.6
 (optional=templinst)_ZN5boost8functionIFvfEEC2INS_3_bi6bind_tIvNS_4_mfi3mf1IvN3pcl9PLYReaderEfEENS4_5list2INS4_5valueIPS9_EENS_3argILi1EEEEEEEEET_NS_11enable_if_cIXsrNS_11type_traits7ice_notIXsrNS_11is_integralISJ_EE5valueEEE5valueEiE4typeE@Base 1.6
 (optional=templinst)_ZN5boost8functionIFvhEEC1INS_3_bi6bind_tIvNS_4_mfi3mf1IvN3pcl9PLYReaderEhEENS4_5list2INS4_5valueIPS9_EENS_3argILi1EEEEEEEEET_NS_11enable_if_cIXsrNS_11type_traits7ice_notIXsrNS_11is_integralISJ_EE5valueEEE5valueEiE4typeE@Base 1.6
 (optional=templinst)_ZN5boost8functionIFvhEEC1INS_3_bi6bind_tIvNS_4_mfi3mf2IvN3pcl9PLYReaderERKSshEENS4_5list3INS4_5valueIPS9_EENSE_ISsEENS_3argILi1EEEEEEEEET_NS_11enable_if_cIXsrNS_11type_traits7ice_notIXsrNS_11is_integralISM_EE5valueEEE5valueEiE4typeE@Base 1.6
 (optional=templinst)_ZN5boost8functionIFvhEEC2INS_3_bi6bind_tIvNS_4_mfi3mf1IvN3pcl9PLYReaderEhEENS4_5list2INS4_5valueIPS9_EENS_3argILi1EEEEEEEEET_NS_11enable_if_cIXsrNS_11type_traits7ice_notIXsrNS_11is_integralISJ_EE5valueEEE5valueEiE4typeE@Base 1.6
 (optional=templinst)_ZN5boost8functionIFvhEEC2INS_3_bi6bind_tIvNS_4_mfi3mf2IvN3pcl9PLYReaderERKSshEENS4_5list3INS4_5valueIPS9_EENSE_ISsEENS_3argILi1EEEEEEEEET_NS_11enable_if_cIXsrNS_11type_traits7ice_notIXsrNS_11is_integralISM_EE5valueEEE5valueEiE4typeE@Base 1.6
 (optional=templinst)_ZN5boost8functionIFviEEC1INS_3_bi6bind_tIvNS_4_mfi3mf1IvN3pcl9PLYReaderERKiEENS4_5list2INS4_5valueIPS9_EENS_3argILi1EEEEEEEEET_NS_11enable_if_cIXsrNS_11type_traits7ice_notIXsrNS_11is_integralISL_EE5valueEEE5valueEiE4typeE@Base 1.6
 (optional=templinst)_ZN5boost8functionIFviEEC2INS_3_bi6bind_tIvNS_4_mfi3mf1IvN3pcl9PLYReaderERKiEENS4_5list2INS4_5valueIPS9_EENS_3argILi1EEEEEEEEET_NS_11enable_if_cIXsrNS_11type_traits7ice_notIXsrNS_11is_integralISL_EE5valueEEE5valueEiE4typeE@Base 1.6
 (optional=templinst)_ZN5boost8functionIFvmRKSsEED1Ev@Base 1.6
 (optional=templinst)_ZN5boost8functionIFvmRKSsEED2Ev@Base 1.6
 (optional=templinst)_ZN5boost8functionIFvmRKSsEEaSERKS4_@Base 1.6
 (optional=templinst)_ZN5boost8functionIFvvEEC1INS_3_bi6bind_tIvNS_4_mfi3mf0IvN3pcl9PLYReaderEEENS4_5list1INS4_5valueIPS9_EEEEEEEET_NS_11enable_if_cIXsrNS_11type_traits7ice_notIXsrNS_11is_integralISH_EE5valueEEE5valueEiE4typeE@Base 1.6
 (optional=templinst)_ZN5boost8functionIFvvEEC2INS_3_bi6bind_tIvNS_4_mfi3mf0IvN3pcl9PLYReaderEEENS4_5list1INS4_5valueIPS9_EEEEEEEET_NS_11enable_if_cIXsrNS_11type_traits7ice_notIXsrNS_11is_integralISH_EE5valueEEE5valueEiE4typeE@Base 1.6
 (optional=templinst)_ZN5boost8functionIFvvEED1Ev@Base 1.6
 (optional=templinst)_ZN5boost8functionIFvvEED2Ev@Base 1.6
 _ZN5boost8signals211signal_baseD0Ev@Base 1.6
 _ZN5boost8signals211signal_baseD1Ev@Base 1.6
 _ZN5boost8signals211signal_baseD2Ev@Base 1.6
 _ZN5boost8signals212null_deleterEPKv@Base 1.6
 (optional=templinst)_ZN5boost8signals26detail11auto_bufferINS_7variantINS_10shared_ptrIvEENS1_23foreign_void_shared_ptrENS_6detail7variant5void_ES9_S9_S9_S9_S9_S9_S9_S9_S9_S9_S9_S9_S9_S9_S9_S9_S9_EENS1_15store_n_objectsILj10EEENS1_19default_grow_policyESaISA_EE10deallocateEPSA_m@Base 1.6
 (optional=templinst)_ZN5boost8signals26detail11unique_lockINS0_5mutexEED1Ev@Base 1.6
 (optional=templinst)_ZN5boost8signals26detail11unique_lockINS0_5mutexEED2Ev@Base 1.6
 (optional=templinst)_ZN5boost8signals26detail12grouped_listIiSt4lessIiENS_10shared_ptrINS1_15connection_bodyISt4pairINS1_15slot_meta_groupENS_8optionalIiEEENS0_5slot1IvRKNS5_IKN3pcl10PointCloudIN5Eigen6MatrixIfLin1ELin1ELi0ELin1ELin1EEEEEEENS_8functionIFvSM_EEEEENS0_5mutexEEEEEE11upper_boundERKSB_@Base 1.6
 (optional=templinst)_ZN5boost8signals26detail12grouped_listIiSt4lessIiENS_10shared_ptrINS1_15connection_bodyISt4pairINS1_15slot_meta_groupENS_8optionalIiEEENS0_5slot1IvRKNS5_IKN3pcl10PointCloudIN5Eigen6MatrixIfLin1ELin1ELi0ELin1ELin1EEEEEEENS_8functionIFvSM_EEEEENS0_5mutexEEEEEEC1ERKSU_@Base 1.6
 (optional=templinst)_ZN5boost8signals26detail12grouped_listIiSt4lessIiENS_10shared_ptrINS1_15connection_bodyISt4pairINS1_15slot_meta_groupENS_8optionalIiEEENS0_5slot1IvRKNS5_IKN3pcl10PointCloudIN5Eigen6MatrixIfLin1ELin1ELi0ELin1ELin1EEEEEEENS_8functionIFvSM_EEEEENS0_5mutexEEEEEEC2ERKSU_@Base 1.6
 (optional=templinst)_ZN5boost8signals26detail12grouped_listIiSt4lessIiENS_10shared_ptrINS1_15connection_bodyISt4pairINS1_15slot_meta_groupENS_8optionalIiEEENS0_5slot1IvRKNS5_IKN3pcl10PointCloudIN5Eigen6MatrixIfLin1ELin1ELi0ELin1ELin1EEEEEEENS_8functionIFvSM_EEEEENS0_5mutexEEEEEED1Ev@Base 1.6
 (optional=templinst)_ZN5boost8signals26detail12grouped_listIiSt4lessIiENS_10shared_ptrINS1_15connection_bodyISt4pairINS1_15slot_meta_groupENS_8optionalIiEEENS0_5slot1IvRKNS5_IKN3pcl10PointCloudIN5Eigen6MatrixIfLin1ELin1ELi0ELin1ELin1EEEEEEENS_8functionIFvSM_EEEEENS0_5mutexEEEEEED2Ev@Base 1.6
 (optional=templinst)_ZN5boost8signals26detail12grouped_listIiSt4lessIiENS_10shared_ptrINS1_15connection_bodyISt4pairINS1_15slot_meta_groupENS_8optionalIiEEENS0_5slot1IvRKNS5_IKN3pcl10PointCloudINSD_11PointXYZRGBEEEEENS_8functionIFvSK_EEEEENS0_5mutexEEEEEE11upper_boundERKSB_@Base 1.6
 (optional=templinst)_ZN5boost8signals26detail12grouped_listIiSt4lessIiENS_10shared_ptrINS1_15connection_bodyISt4pairINS1_15slot_meta_groupENS_8optionalIiEEENS0_5slot1IvRKNS5_IKN3pcl10PointCloudINSD_11PointXYZRGBEEEEENS_8functionIFvSK_EEEEENS0_5mutexEEEEEEC1ERKSS_@Base 1.6
 (optional=templinst)_ZN5boost8signals26detail12grouped_listIiSt4lessIiENS_10shared_ptrINS1_15connection_bodyISt4pairINS1_15slot_meta_groupENS_8optionalIiEEENS0_5slot1IvRKNS5_IKN3pcl10PointCloudINSD_11PointXYZRGBEEEEENS_8functionIFvSK_EEEEENS0_5mutexEEEEEEC2ERKSS_@Base 1.6
 (optional=templinst)_ZN5boost8signals26detail12grouped_listIiSt4lessIiENS_10shared_ptrINS1_15connection_bodyISt4pairINS1_15slot_meta_groupENS_8optionalIiEEENS0_5slot1IvRKNS5_IKN3pcl10PointCloudINSD_11PointXYZRGBEEEEENS_8functionIFvSK_EEEEENS0_5mutexEEEEEED1Ev@Base 1.6
 (optional=templinst)_ZN5boost8signals26detail12grouped_listIiSt4lessIiENS_10shared_ptrINS1_15connection_bodyISt4pairINS1_15slot_meta_groupENS_8optionalIiEEENS0_5slot1IvRKNS5_IKN3pcl10PointCloudINSD_11PointXYZRGBEEEEENS_8functionIFvSK_EEEEENS0_5mutexEEEEEED2Ev@Base 1.6
 (optional=templinst)_ZN5boost8signals26detail12grouped_listIiSt4lessIiENS_10shared_ptrINS1_15connection_bodyISt4pairINS1_15slot_meta_groupENS_8optionalIiEEENS0_5slot1IvRKNS5_IKN3pcl10PointCloudINSD_12PointXYZRGBAEEEEENS_8functionIFvSK_EEEEENS0_5mutexEEEEEE11upper_boundERKSB_@Base 1.6
 (optional=templinst)_ZN5boost8signals26detail12grouped_listIiSt4lessIiENS_10shared_ptrINS1_15connection_bodyISt4pairINS1_15slot_meta_groupENS_8optionalIiEEENS0_5slot1IvRKNS5_IKN3pcl10PointCloudINSD_12PointXYZRGBAEEEEENS_8functionIFvSK_EEEEENS0_5mutexEEEEEEC1ERKSS_@Base 1.6
 (optional=templinst)_ZN5boost8signals26detail12grouped_listIiSt4lessIiENS_10shared_ptrINS1_15connection_bodyISt4pairINS1_15slot_meta_groupENS_8optionalIiEEENS0_5slot1IvRKNS5_IKN3pcl10PointCloudINSD_12PointXYZRGBAEEEEENS_8functionIFvSK_EEEEENS0_5mutexEEEEEEC2ERKSS_@Base 1.6
 (optional=templinst)_ZN5boost8signals26detail12grouped_listIiSt4lessIiENS_10shared_ptrINS1_15connection_bodyISt4pairINS1_15slot_meta_groupENS_8optionalIiEEENS0_5slot1IvRKNS5_IKN3pcl10PointCloudINSD_12PointXYZRGBAEEEEENS_8functionIFvSK_EEEEENS0_5mutexEEEEEED1Ev@Base 1.6
 (optional=templinst)_ZN5boost8signals26detail12grouped_listIiSt4lessIiENS_10shared_ptrINS1_15connection_bodyISt4pairINS1_15slot_meta_groupENS_8optionalIiEEENS0_5slot1IvRKNS5_IKN3pcl10PointCloudINSD_12PointXYZRGBAEEEEENS_8functionIFvSK_EEEEENS0_5mutexEEEEEED2Ev@Base 1.6
 (optional=templinst)_ZN5boost8signals26detail12grouped_listIiSt4lessIiENS_10shared_ptrINS1_15connection_bodyISt4pairINS1_15slot_meta_groupENS_8optionalIiEEENS0_5slot1IvRKNS5_IKN3pcl10PointCloudINSD_8PointXYZEEEEENS_8functionIFvSK_EEEEENS0_5mutexEEEEEE11upper_boundERKSB_@Base 1.6
 (optional=templinst)_ZN5boost8signals26detail12grouped_listIiSt4lessIiENS_10shared_ptrINS1_15connection_bodyISt4pairINS1_15slot_meta_groupENS_8optionalIiEEENS0_5slot1IvRKNS5_IKN3pcl10PointCloudINSD_8PointXYZEEEEENS_8functionIFvSK_EEEEENS0_5mutexEEEEEEC1ERKSS_@Base 1.6
 (optional=templinst)_ZN5boost8signals26detail12grouped_listIiSt4lessIiENS_10shared_ptrINS1_15connection_bodyISt4pairINS1_15slot_meta_groupENS_8optionalIiEEENS0_5slot1IvRKNS5_IKN3pcl10PointCloudINSD_8PointXYZEEEEENS_8functionIFvSK_EEEEENS0_5mutexEEEEEEC2ERKSS_@Base 1.6
 (optional=templinst)_ZN5boost8signals26detail12grouped_listIiSt4lessIiENS_10shared_ptrINS1_15connection_bodyISt4pairINS1_15slot_meta_groupENS_8optionalIiEEENS0_5slot1IvRKNS5_IKN3pcl10PointCloudINSD_8PointXYZEEEEENS_8functionIFvSK_EEEEENS0_5mutexEEEEEED1Ev@Base 1.6
 (optional=templinst)_ZN5boost8signals26detail12grouped_listIiSt4lessIiENS_10shared_ptrINS1_15connection_bodyISt4pairINS1_15slot_meta_groupENS_8optionalIiEEENS0_5slot1IvRKNS5_IKN3pcl10PointCloudINSD_8PointXYZEEEEENS_8functionIFvSK_EEEEENS0_5mutexEEEEEED2Ev@Base 1.6
 (optional=templinst)_ZN5boost8signals26detail12grouped_listIiSt4lessIiENS_10shared_ptrINS1_15connection_bodyISt4pairINS1_15slot_meta_groupENS_8optionalIiEEENS0_5slot1IvRKNS5_IKN3pcl10PointCloudINSD_9PointXYZIEEEEENS_8functionIFvSK_EEEEENS0_5mutexEEEEEE11upper_boundERKSB_@Base 1.6
 (optional=templinst)_ZN5boost8signals26detail12grouped_listIiSt4lessIiENS_10shared_ptrINS1_15connection_bodyISt4pairINS1_15slot_meta_groupENS_8optionalIiEEENS0_5slot1IvRKNS5_IKN3pcl10PointCloudINSD_9PointXYZIEEEEENS_8functionIFvSK_EEEEENS0_5mutexEEEEEEC1ERKSS_@Base 1.6
 (optional=templinst)_ZN5boost8signals26detail12grouped_listIiSt4lessIiENS_10shared_ptrINS1_15connection_bodyISt4pairINS1_15slot_meta_groupENS_8optionalIiEEENS0_5slot1IvRKNS5_IKN3pcl10PointCloudINSD_9PointXYZIEEEEENS_8functionIFvSK_EEEEENS0_5mutexEEEEEEC2ERKSS_@Base 1.6
 (optional=templinst)_ZN5boost8signals26detail12grouped_listIiSt4lessIiENS_10shared_ptrINS1_15connection_bodyISt4pairINS1_15slot_meta_groupENS_8optionalIiEEENS0_5slot1IvRKNS5_IKN3pcl10PointCloudINSD_9PointXYZIEEEEENS_8functionIFvSK_EEEEENS0_5mutexEEEEEED1Ev@Base 1.6
 (optional=templinst)_ZN5boost8signals26detail12grouped_listIiSt4lessIiENS_10shared_ptrINS1_15connection_bodyISt4pairINS1_15slot_meta_groupENS_8optionalIiEEENS0_5slot1IvRKNS5_IKN3pcl10PointCloudINSD_9PointXYZIEEEEENS_8functionIFvSK_EEEEENS0_5mutexEEEEEED2Ev@Base 1.6
 (optional=templinst)_ZN5boost8signals26detail12grouped_listIiSt4lessIiENS_10shared_ptrINS1_15connection_bodyISt4pairINS1_15slot_meta_groupENS_8optionalIiEEENS0_5slot1IvRKNS5_IN14openni_wrapper10DepthImageEEENS_8functionIFvSH_EEEEENS0_5mutexEEEEEE11upper_boundERKSB_@Base 1.6
 (optional=templinst)_ZN5boost8signals26detail12grouped_listIiSt4lessIiENS_10shared_ptrINS1_15connection_bodyISt4pairINS1_15slot_meta_groupENS_8optionalIiEEENS0_5slot1IvRKNS5_IN14openni_wrapper10DepthImageEEENS_8functionIFvSH_EEEEENS0_5mutexEEEEEEC1ERKSP_@Base 1.6
 (optional=templinst)_ZN5boost8signals26detail12grouped_listIiSt4lessIiENS_10shared_ptrINS1_15connection_bodyISt4pairINS1_15slot_meta_groupENS_8optionalIiEEENS0_5slot1IvRKNS5_IN14openni_wrapper10DepthImageEEENS_8functionIFvSH_EEEEENS0_5mutexEEEEEEC2ERKSP_@Base 1.6
 (optional=templinst)_ZN5boost8signals26detail12grouped_listIiSt4lessIiENS_10shared_ptrINS1_15connection_bodyISt4pairINS1_15slot_meta_groupENS_8optionalIiEEENS0_5slot1IvRKNS5_IN14openni_wrapper10DepthImageEEENS_8functionIFvSH_EEEEENS0_5mutexEEEEEED1Ev@Base 1.6
 (optional=templinst)_ZN5boost8signals26detail12grouped_listIiSt4lessIiENS_10shared_ptrINS1_15connection_bodyISt4pairINS1_15slot_meta_groupENS_8optionalIiEEENS0_5slot1IvRKNS5_IN14openni_wrapper10DepthImageEEENS_8functionIFvSH_EEEEENS0_5mutexEEEEEED2Ev@Base 1.6
 (optional=templinst)_ZN5boost8signals26detail12grouped_listIiSt4lessIiENS_10shared_ptrINS1_15connection_bodyISt4pairINS1_15slot_meta_groupENS_8optionalIiEEENS0_5slot1IvRKNS5_IN14openni_wrapper5ImageEEENS_8functionIFvSH_EEEEENS0_5mutexEEEEEE11upper_boundERKSB_@Base 1.6
 (optional=templinst)_ZN5boost8signals26detail12grouped_listIiSt4lessIiENS_10shared_ptrINS1_15connection_bodyISt4pairINS1_15slot_meta_groupENS_8optionalIiEEENS0_5slot1IvRKNS5_IN14openni_wrapper5ImageEEENS_8functionIFvSH_EEEEENS0_5mutexEEEEEEC1ERKSP_@Base 1.6
 (optional=templinst)_ZN5boost8signals26detail12grouped_listIiSt4lessIiENS_10shared_ptrINS1_15connection_bodyISt4pairINS1_15slot_meta_groupENS_8optionalIiEEENS0_5slot1IvRKNS5_IN14openni_wrapper5ImageEEENS_8functionIFvSH_EEEEENS0_5mutexEEEEEEC2ERKSP_@Base 1.6
 (optional=templinst)_ZN5boost8signals26detail12grouped_listIiSt4lessIiENS_10shared_ptrINS1_15connection_bodyISt4pairINS1_15slot_meta_groupENS_8optionalIiEEENS0_5slot1IvRKNS5_IN14openni_wrapper5ImageEEENS_8functionIFvSH_EEEEENS0_5mutexEEEEEED1Ev@Base 1.6
 (optional=templinst)_ZN5boost8signals26detail12grouped_listIiSt4lessIiENS_10shared_ptrINS1_15connection_bodyISt4pairINS1_15slot_meta_groupENS_8optionalIiEEENS0_5slot1IvRKNS5_IN14openni_wrapper5ImageEEENS_8functionIFvSH_EEEEENS0_5mutexEEEEEED2Ev@Base 1.6
 (optional=templinst)_ZN5boost8signals26detail12grouped_listIiSt4lessIiENS_10shared_ptrINS1_15connection_bodyISt4pairINS1_15slot_meta_groupENS_8optionalIiEEENS0_5slot1IvRKNS5_IN14openni_wrapper7IRImageEEENS_8functionIFvSH_EEEEENS0_5mutexEEEEEE11upper_boundERKSB_@Base 1.6
 (optional=templinst)_ZN5boost8signals26detail12grouped_listIiSt4lessIiENS_10shared_ptrINS1_15connection_bodyISt4pairINS1_15slot_meta_groupENS_8optionalIiEEENS0_5slot1IvRKNS5_IN14openni_wrapper7IRImageEEENS_8functionIFvSH_EEEEENS0_5mutexEEEEEEC1ERKSP_@Base 1.6
 (optional=templinst)_ZN5boost8signals26detail12grouped_listIiSt4lessIiENS_10shared_ptrINS1_15connection_bodyISt4pairINS1_15slot_meta_groupENS_8optionalIiEEENS0_5slot1IvRKNS5_IN14openni_wrapper7IRImageEEENS_8functionIFvSH_EEEEENS0_5mutexEEEEEEC2ERKSP_@Base 1.6
 (optional=templinst)_ZN5boost8signals26detail12grouped_listIiSt4lessIiENS_10shared_ptrINS1_15connection_bodyISt4pairINS1_15slot_meta_groupENS_8optionalIiEEENS0_5slot1IvRKNS5_IN14openni_wrapper7IRImageEEENS_8functionIFvSH_EEEEENS0_5mutexEEEEEED1Ev@Base 1.6
 (optional=templinst)_ZN5boost8signals26detail12grouped_listIiSt4lessIiENS_10shared_ptrINS1_15connection_bodyISt4pairINS1_15slot_meta_groupENS_8optionalIiEEENS0_5slot1IvRKNS5_IN14openni_wrapper7IRImageEEENS_8functionIFvSH_EEEEENS0_5mutexEEEEEED2Ev@Base 1.6
 (optional=templinst)_ZN5boost8signals26detail12grouped_listIiSt4lessIiENS_10shared_ptrINS1_15connection_bodyISt4pairINS1_15slot_meta_groupENS_8optionalIiEEENS0_5slot3IvRKNS5_IN14openni_wrapper5ImageEEERKNS5_INSD_10DepthImageEEEfNS_8functionIFvSH_SL_fEEEEENS0_5mutexEEEEEE11upper_boundERKSB_@Base 1.6
 (optional=templinst)_ZN5boost8signals26detail12grouped_listIiSt4lessIiENS_10shared_ptrINS1_15connection_bodyISt4pairINS1_15slot_meta_groupENS_8optionalIiEEENS0_5slot3IvRKNS5_IN14openni_wrapper5ImageEEERKNS5_INSD_10DepthImageEEEfNS_8functionIFvSH_SL_fEEEEENS0_5mutexEEEEEEC1ERKST_@Base 1.6
 (optional=templinst)_ZN5boost8signals26detail12grouped_listIiSt4lessIiENS_10shared_ptrINS1_15connection_bodyISt4pairINS1_15slot_meta_groupENS_8optionalIiEEENS0_5slot3IvRKNS5_IN14openni_wrapper5ImageEEERKNS5_INSD_10DepthImageEEEfNS_8functionIFvSH_SL_fEEEEENS0_5mutexEEEEEEC2ERKST_@Base 1.6
 (optional=templinst)_ZN5boost8signals26detail12grouped_listIiSt4lessIiENS_10shared_ptrINS1_15connection_bodyISt4pairINS1_15slot_meta_groupENS_8optionalIiEEENS0_5slot3IvRKNS5_IN14openni_wrapper5ImageEEERKNS5_INSD_10DepthImageEEEfNS_8functionIFvSH_SL_fEEEEENS0_5mutexEEEEEED1Ev@Base 1.6
 (optional=templinst)_ZN5boost8signals26detail12grouped_listIiSt4lessIiENS_10shared_ptrINS1_15connection_bodyISt4pairINS1_15slot_meta_groupENS_8optionalIiEEENS0_5slot3IvRKNS5_IN14openni_wrapper5ImageEEERKNS5_INSD_10DepthImageEEEfNS_8functionIFvSH_SL_fEEEEENS0_5mutexEEEEEED2Ev@Base 1.6
 (optional=templinst)_ZN5boost8signals26detail12grouped_listIiSt4lessIiENS_10shared_ptrINS1_15connection_bodyISt4pairINS1_15slot_meta_groupENS_8optionalIiEEENS0_5slot3IvRKNS5_IN14openni_wrapper7IRImageEEERKNS5_INSD_10DepthImageEEEfNS_8functionIFvSH_SL_fEEEEENS0_5mutexEEEEEE11upper_boundERKSB_@Base 1.6
 (optional=templinst)_ZN5boost8signals26detail12grouped_listIiSt4lessIiENS_10shared_ptrINS1_15connection_bodyISt4pairINS1_15slot_meta_groupENS_8optionalIiEEENS0_5slot3IvRKNS5_IN14openni_wrapper7IRImageEEERKNS5_INSD_10DepthImageEEEfNS_8functionIFvSH_SL_fEEEEENS0_5mutexEEEEEEC1ERKST_@Base 1.6
 (optional=templinst)_ZN5boost8signals26detail12grouped_listIiSt4lessIiENS_10shared_ptrINS1_15connection_bodyISt4pairINS1_15slot_meta_groupENS_8optionalIiEEENS0_5slot3IvRKNS5_IN14openni_wrapper7IRImageEEERKNS5_INSD_10DepthImageEEEfNS_8functionIFvSH_SL_fEEEEENS0_5mutexEEEEEEC2ERKST_@Base 1.6
 (optional=templinst)_ZN5boost8signals26detail12grouped_listIiSt4lessIiENS_10shared_ptrINS1_15connection_bodyISt4pairINS1_15slot_meta_groupENS_8optionalIiEEENS0_5slot3IvRKNS5_IN14openni_wrapper7IRImageEEERKNS5_INSD_10DepthImageEEEfNS_8functionIFvSH_SL_fEEEEENS0_5mutexEEEEEED1Ev@Base 1.6
 (optional=templinst)_ZN5boost8signals26detail12grouped_listIiSt4lessIiENS_10shared_ptrINS1_15connection_bodyISt4pairINS1_15slot_meta_groupENS_8optionalIiEEENS0_5slot3IvRKNS5_IN14openni_wrapper7IRImageEEERKNS5_INSD_10DepthImageEEEfNS_8functionIFvSH_SL_fEEEEENS0_5mutexEEEEEED2Ev@Base 1.6
 (optional=templinst)_ZN5boost8signals26detail12signal1_implIvRKNS_10shared_ptrIKN3pcl10PointCloudIN5Eigen6MatrixIfLin1ELin1ELi0ELin1ELin1EEEEEEENS0_19optional_last_valueIvEEiSt4lessIiENS_8functionIFvSD_EEENSI_IFvRKNS0_10connectionESD_EEENS0_5mutexEE16invocation_stateC1ERKNS1_12grouped_listIiSH_NS3_INS1_15connection_bodyISt4pairINS1_15slot_meta_groupENS_8optionalIiEEENS0_5slot1IvSD_SK_EESQ_EEEEEERKSF_@Base 1.6
 (optional=templinst)_ZN5boost8signals26detail12signal1_implIvRKNS_10shared_ptrIKN3pcl10PointCloudIN5Eigen6MatrixIfLin1ELin1ELi0ELin1ELin1EEEEEEENS0_19optional_last_valueIvEEiSt4lessIiENS_8functionIFvSD_EEENSI_IFvRKNS0_10connectionESD_EEENS0_5mutexEE16invocation_stateC1ERKSS_RKNS1_12grouped_listIiSH_NS3_INS1_15connection_bodyISt4pairINS1_15slot_meta_groupENS_8optionalIiEEENS0_5slot1IvSD_SK_EESQ_EEEEEE@Base 1.6
 (optional=templinst)_ZN5boost8signals26detail12signal1_implIvRKNS_10shared_ptrIKN3pcl10PointCloudIN5Eigen6MatrixIfLin1ELin1ELi0ELin1ELin1EEEEEEENS0_19optional_last_valueIvEEiSt4lessIiENS_8functionIFvSD_EEENSI_IFvRKNS0_10connectionESD_EEENS0_5mutexEE16invocation_stateC2ERKNS1_12grouped_listIiSH_NS3_INS1_15connection_bodyISt4pairINS1_15slot_meta_groupENS_8optionalIiEEENS0_5slot1IvSD_SK_EESQ_EEEEEERKSF_@Base 1.6
 (optional=templinst)_ZN5boost8signals26detail12signal1_implIvRKNS_10shared_ptrIKN3pcl10PointCloudIN5Eigen6MatrixIfLin1ELin1ELi0ELin1ELin1EEEEEEENS0_19optional_last_valueIvEEiSt4lessIiENS_8functionIFvSD_EEENSI_IFvRKNS0_10connectionESD_EEENS0_5mutexEE16invocation_stateC2ERKSS_RKNS1_12grouped_listIiSH_NS3_INS1_15connection_bodyISt4pairINS1_15slot_meta_groupENS_8optionalIiEEENS0_5slot1IvSD_SK_EESQ_EEEEEE@Base 1.6
 (optional=templinst)_ZN5boost8signals26detail12signal1_implIvRKNS_10shared_ptrIKN3pcl10PointCloudIN5Eigen6MatrixIfLin1ELin1ELi0ELin1ELin1EEEEEEENS0_19optional_last_valueIvEEiSt4lessIiENS_8functionIFvSD_EEENSI_IFvRKNS0_10connectionESD_EEENS0_5mutexEE16invocation_stateD1Ev@Base 1.6
 (optional=templinst)_ZN5boost8signals26detail12signal1_implIvRKNS_10shared_ptrIKN3pcl10PointCloudIN5Eigen6MatrixIfLin1ELin1ELi0ELin1ELin1EEEEEEENS0_19optional_last_valueIvEEiSt4lessIiENS_8functionIFvSD_EEENSI_IFvRKNS0_10connectionESD_EEENS0_5mutexEE16invocation_stateD2Ev@Base 1.6
 (optional=templinst)_ZN5boost8signals26detail12signal1_implIvRKNS_10shared_ptrIKN3pcl10PointCloudIN5Eigen6MatrixIfLin1ELin1ELi0ELin1ELin1EEEEEEENS0_19optional_last_valueIvEEiSt4lessIiENS_8functionIFvSD_EEENSI_IFvRKNS0_10connectionESD_EEENS0_5mutexEE18invocation_janitorD1Ev@Base 1.6
 (optional=templinst)_ZN5boost8signals26detail12signal1_implIvRKNS_10shared_ptrIKN3pcl10PointCloudIN5Eigen6MatrixIfLin1ELin1ELi0ELin1ELin1EEEEEEENS0_19optional_last_valueIvEEiSt4lessIiENS_8functionIFvSD_EEENSI_IFvRKNS0_10connectionESD_EEENS0_5mutexEE18invocation_janitorD2Ev@Base 1.6
 (optional=templinst)_ZN5boost8signals26detail12signal1_implIvRKNS_10shared_ptrIKN3pcl10PointCloudIN5Eigen6MatrixIfLin1ELin1ELi0ELin1ELin1EEEEEEENS0_19optional_last_valueIvEEiSt4lessIiENS_8functionIFvSD_EEENSI_IFvRKNS0_10connectionESD_EEENS0_5mutexEE20disconnect_all_slotsEv@Base 1.6
 (optional=templinst)_ZN5boost8signals26detail12signal1_implIvRKNS_10shared_ptrIKN3pcl10PointCloudIN5Eigen6MatrixIfLin1ELin1ELi0ELin1ELin1EEEEEEENS0_19optional_last_valueIvEEiSt4lessIiENS_8functionIFvSD_EEENSI_IFvRKNS0_10connectionESD_EEENS0_5mutexEEC1ERKSF_RKSH_@Base 1.6
 (optional=templinst)_ZN5boost8signals26detail12signal1_implIvRKNS_10shared_ptrIKN3pcl10PointCloudIN5Eigen6MatrixIfLin1ELin1ELi0ELin1ELin1EEEEEEENS0_19optional_last_valueIvEEiSt4lessIiENS_8functionIFvSD_EEENSI_IFvRKNS0_10connectionESD_EEENS0_5mutexEEC2ERKSF_RKSH_@Base 1.6
 (optional=templinst)_ZN5boost8signals26detail12signal1_implIvRKNS_10shared_ptrIKN3pcl10PointCloudIN5Eigen6MatrixIfLin1ELin1ELi0ELin1ELin1EEEEEEENS0_19optional_last_valueIvEEiSt4lessIiENS_8functionIFvSD_EEENSI_IFvRKNS0_10connectionESD_EEENS0_5mutexEED1Ev@Base 1.6
 (optional=templinst)_ZN5boost8signals26detail12signal1_implIvRKNS_10shared_ptrIKN3pcl10PointCloudIN5Eigen6MatrixIfLin1ELin1ELi0ELin1ELin1EEEEEEENS0_19optional_last_valueIvEEiSt4lessIiENS_8functionIFvSD_EEENSI_IFvRKNS0_10connectionESD_EEENS0_5mutexEED2Ev@Base 1.6
 (optional=templinst)_ZN5boost8signals26detail12signal1_implIvRKNS_10shared_ptrIKN3pcl10PointCloudIN5Eigen6MatrixIfLin1ELin1ELi0ELin1ELin1EEEEEEENS0_19optional_last_valueIvEEiSt4lessIiENS_8functionIFvSD_EEENSI_IFvRKNS0_10connectionESD_EEENS0_5mutexEEclESD_@Base 1.6
 (optional=templinst)_ZN5boost8signals26detail12signal1_implIvRKNS_10shared_ptrIKN3pcl10PointCloudINS4_11PointXYZRGBEEEEENS0_19optional_last_valueIvEEiSt4lessIiENS_8functionIFvSB_EEENSG_IFvRKNS0_10connectionESB_EEENS0_5mutexEE16invocation_stateC1ERKNS1_12grouped_listIiSF_NS3_INS1_15connection_bodyISt4pairINS1_15slot_meta_groupENS_8optionalIiEEENS0_5slot1IvSB_SI_EESO_EEEEEERKSD_@Base 1.6
 (optional=templinst)_ZN5boost8signals26detail12signal1_implIvRKNS_10shared_ptrIKN3pcl10PointCloudINS4_11PointXYZRGBEEEEENS0_19optional_last_valueIvEEiSt4lessIiENS_8functionIFvSB_EEENSG_IFvRKNS0_10connectionESB_EEENS0_5mutexEE16invocation_stateC1ERKSQ_RKNS1_12grouped_listIiSF_NS3_INS1_15connection_bodyISt4pairINS1_15slot_meta_groupENS_8optionalIiEEENS0_5slot1IvSB_SI_EESO_EEEEEE@Base 1.6
 (optional=templinst)_ZN5boost8signals26detail12signal1_implIvRKNS_10shared_ptrIKN3pcl10PointCloudINS4_11PointXYZRGBEEEEENS0_19optional_last_valueIvEEiSt4lessIiENS_8functionIFvSB_EEENSG_IFvRKNS0_10connectionESB_EEENS0_5mutexEE16invocation_stateC2ERKNS1_12grouped_listIiSF_NS3_INS1_15connection_bodyISt4pairINS1_15slot_meta_groupENS_8optionalIiEEENS0_5slot1IvSB_SI_EESO_EEEEEERKSD_@Base 1.6
 (optional=templinst)_ZN5boost8signals26detail12signal1_implIvRKNS_10shared_ptrIKN3pcl10PointCloudINS4_11PointXYZRGBEEEEENS0_19optional_last_valueIvEEiSt4lessIiENS_8functionIFvSB_EEENSG_IFvRKNS0_10connectionESB_EEENS0_5mutexEE16invocation_stateC2ERKSQ_RKNS1_12grouped_listIiSF_NS3_INS1_15connection_bodyISt4pairINS1_15slot_meta_groupENS_8optionalIiEEENS0_5slot1IvSB_SI_EESO_EEEEEE@Base 1.6
 (optional=templinst)_ZN5boost8signals26detail12signal1_implIvRKNS_10shared_ptrIKN3pcl10PointCloudINS4_11PointXYZRGBEEEEENS0_19optional_last_valueIvEEiSt4lessIiENS_8functionIFvSB_EEENSG_IFvRKNS0_10connectionESB_EEENS0_5mutexEE16invocation_stateD1Ev@Base 1.6
 (optional=templinst)_ZN5boost8signals26detail12signal1_implIvRKNS_10shared_ptrIKN3pcl10PointCloudINS4_11PointXYZRGBEEEEENS0_19optional_last_valueIvEEiSt4lessIiENS_8functionIFvSB_EEENSG_IFvRKNS0_10connectionESB_EEENS0_5mutexEE16invocation_stateD2Ev@Base 1.6
 (optional=templinst)_ZN5boost8signals26detail12signal1_implIvRKNS_10shared_ptrIKN3pcl10PointCloudINS4_11PointXYZRGBEEEEENS0_19optional_last_valueIvEEiSt4lessIiENS_8functionIFvSB_EEENSG_IFvRKNS0_10connectionESB_EEENS0_5mutexEE18invocation_janitorD1Ev@Base 1.6
 (optional=templinst)_ZN5boost8signals26detail12signal1_implIvRKNS_10shared_ptrIKN3pcl10PointCloudINS4_11PointXYZRGBEEEEENS0_19optional_last_valueIvEEiSt4lessIiENS_8functionIFvSB_EEENSG_IFvRKNS0_10connectionESB_EEENS0_5mutexEE18invocation_janitorD2Ev@Base 1.6
 (optional=templinst)_ZN5boost8signals26detail12signal1_implIvRKNS_10shared_ptrIKN3pcl10PointCloudINS4_11PointXYZRGBEEEEENS0_19optional_last_valueIvEEiSt4lessIiENS_8functionIFvSB_EEENSG_IFvRKNS0_10connectionESB_EEENS0_5mutexEE20disconnect_all_slotsEv@Base 1.6
 (optional=templinst)_ZN5boost8signals26detail12signal1_implIvRKNS_10shared_ptrIKN3pcl10PointCloudINS4_11PointXYZRGBEEEEENS0_19optional_last_valueIvEEiSt4lessIiENS_8functionIFvSB_EEENSG_IFvRKNS0_10connectionESB_EEENS0_5mutexEEC1ERKSD_RKSF_@Base 1.6
 (optional=templinst)_ZN5boost8signals26detail12signal1_implIvRKNS_10shared_ptrIKN3pcl10PointCloudINS4_11PointXYZRGBEEEEENS0_19optional_last_valueIvEEiSt4lessIiENS_8functionIFvSB_EEENSG_IFvRKNS0_10connectionESB_EEENS0_5mutexEEC2ERKSD_RKSF_@Base 1.6
 (optional=templinst)_ZN5boost8signals26detail12signal1_implIvRKNS_10shared_ptrIKN3pcl10PointCloudINS4_11PointXYZRGBEEEEENS0_19optional_last_valueIvEEiSt4lessIiENS_8functionIFvSB_EEENSG_IFvRKNS0_10connectionESB_EEENS0_5mutexEED1Ev@Base 1.6
 (optional=templinst)_ZN5boost8signals26detail12signal1_implIvRKNS_10shared_ptrIKN3pcl10PointCloudINS4_11PointXYZRGBEEEEENS0_19optional_last_valueIvEEiSt4lessIiENS_8functionIFvSB_EEENSG_IFvRKNS0_10connectionESB_EEENS0_5mutexEED2Ev@Base 1.6
 (optional=templinst)_ZN5boost8signals26detail12signal1_implIvRKNS_10shared_ptrIKN3pcl10PointCloudINS4_11PointXYZRGBEEEEENS0_19optional_last_valueIvEEiSt4lessIiENS_8functionIFvSB_EEENSG_IFvRKNS0_10connectionESB_EEENS0_5mutexEEclESB_@Base 1.6
 (optional=templinst)_ZN5boost8signals26detail12signal1_implIvRKNS_10shared_ptrIKN3pcl10PointCloudINS4_12PointXYZRGBAEEEEENS0_19optional_last_valueIvEEiSt4lessIiENS_8functionIFvSB_EEENSG_IFvRKNS0_10connectionESB_EEENS0_5mutexEE16invocation_stateC1ERKNS1_12grouped_listIiSF_NS3_INS1_15connection_bodyISt4pairINS1_15slot_meta_groupENS_8optionalIiEEENS0_5slot1IvSB_SI_EESO_EEEEEERKSD_@Base 1.6
 (optional=templinst)_ZN5boost8signals26detail12signal1_implIvRKNS_10shared_ptrIKN3pcl10PointCloudINS4_12PointXYZRGBAEEEEENS0_19optional_last_valueIvEEiSt4lessIiENS_8functionIFvSB_EEENSG_IFvRKNS0_10connectionESB_EEENS0_5mutexEE16invocation_stateC1ERKSQ_RKNS1_12grouped_listIiSF_NS3_INS1_15connection_bodyISt4pairINS1_15slot_meta_groupENS_8optionalIiEEENS0_5slot1IvSB_SI_EESO_EEEEEE@Base 1.6
 (optional=templinst)_ZN5boost8signals26detail12signal1_implIvRKNS_10shared_ptrIKN3pcl10PointCloudINS4_12PointXYZRGBAEEEEENS0_19optional_last_valueIvEEiSt4lessIiENS_8functionIFvSB_EEENSG_IFvRKNS0_10connectionESB_EEENS0_5mutexEE16invocation_stateC2ERKNS1_12grouped_listIiSF_NS3_INS1_15connection_bodyISt4pairINS1_15slot_meta_groupENS_8optionalIiEEENS0_5slot1IvSB_SI_EESO_EEEEEERKSD_@Base 1.6
 (optional=templinst)_ZN5boost8signals26detail12signal1_implIvRKNS_10shared_ptrIKN3pcl10PointCloudINS4_12PointXYZRGBAEEEEENS0_19optional_last_valueIvEEiSt4lessIiENS_8functionIFvSB_EEENSG_IFvRKNS0_10connectionESB_EEENS0_5mutexEE16invocation_stateC2ERKSQ_RKNS1_12grouped_listIiSF_NS3_INS1_15connection_bodyISt4pairINS1_15slot_meta_groupENS_8optionalIiEEENS0_5slot1IvSB_SI_EESO_EEEEEE@Base 1.6
 (optional=templinst)_ZN5boost8signals26detail12signal1_implIvRKNS_10shared_ptrIKN3pcl10PointCloudINS4_12PointXYZRGBAEEEEENS0_19optional_last_valueIvEEiSt4lessIiENS_8functionIFvSB_EEENSG_IFvRKNS0_10connectionESB_EEENS0_5mutexEE16invocation_stateD1Ev@Base 1.6
 (optional=templinst)_ZN5boost8signals26detail12signal1_implIvRKNS_10shared_ptrIKN3pcl10PointCloudINS4_12PointXYZRGBAEEEEENS0_19optional_last_valueIvEEiSt4lessIiENS_8functionIFvSB_EEENSG_IFvRKNS0_10connectionESB_EEENS0_5mutexEE16invocation_stateD2Ev@Base 1.6
 (optional=templinst)_ZN5boost8signals26detail12signal1_implIvRKNS_10shared_ptrIKN3pcl10PointCloudINS4_12PointXYZRGBAEEEEENS0_19optional_last_valueIvEEiSt4lessIiENS_8functionIFvSB_EEENSG_IFvRKNS0_10connectionESB_EEENS0_5mutexEE18invocation_janitorD1Ev@Base 1.6
 (optional=templinst)_ZN5boost8signals26detail12signal1_implIvRKNS_10shared_ptrIKN3pcl10PointCloudINS4_12PointXYZRGBAEEEEENS0_19optional_last_valueIvEEiSt4lessIiENS_8functionIFvSB_EEENSG_IFvRKNS0_10connectionESB_EEENS0_5mutexEE18invocation_janitorD2Ev@Base 1.6
 (optional=templinst)_ZN5boost8signals26detail12signal1_implIvRKNS_10shared_ptrIKN3pcl10PointCloudINS4_12PointXYZRGBAEEEEENS0_19optional_last_valueIvEEiSt4lessIiENS_8functionIFvSB_EEENSG_IFvRKNS0_10connectionESB_EEENS0_5mutexEE20disconnect_all_slotsEv@Base 1.6
 (optional=templinst)_ZN5boost8signals26detail12signal1_implIvRKNS_10shared_ptrIKN3pcl10PointCloudINS4_12PointXYZRGBAEEEEENS0_19optional_last_valueIvEEiSt4lessIiENS_8functionIFvSB_EEENSG_IFvRKNS0_10connectionESB_EEENS0_5mutexEEC1ERKSD_RKSF_@Base 1.6
 (optional=templinst)_ZN5boost8signals26detail12signal1_implIvRKNS_10shared_ptrIKN3pcl10PointCloudINS4_12PointXYZRGBAEEEEENS0_19optional_last_valueIvEEiSt4lessIiENS_8functionIFvSB_EEENSG_IFvRKNS0_10connectionESB_EEENS0_5mutexEEC2ERKSD_RKSF_@Base 1.6
 (optional=templinst)_ZN5boost8signals26detail12signal1_implIvRKNS_10shared_ptrIKN3pcl10PointCloudINS4_12PointXYZRGBAEEEEENS0_19optional_last_valueIvEEiSt4lessIiENS_8functionIFvSB_EEENSG_IFvRKNS0_10connectionESB_EEENS0_5mutexEED1Ev@Base 1.6
 (optional=templinst)_ZN5boost8signals26detail12signal1_implIvRKNS_10shared_ptrIKN3pcl10PointCloudINS4_12PointXYZRGBAEEEEENS0_19optional_last_valueIvEEiSt4lessIiENS_8functionIFvSB_EEENSG_IFvRKNS0_10connectionESB_EEENS0_5mutexEED2Ev@Base 1.6
 (optional=templinst)_ZN5boost8signals26detail12signal1_implIvRKNS_10shared_ptrIKN3pcl10PointCloudINS4_12PointXYZRGBAEEEEENS0_19optional_last_valueIvEEiSt4lessIiENS_8functionIFvSB_EEENSG_IFvRKNS0_10connectionESB_EEENS0_5mutexEEclESB_@Base 1.6
 (optional=templinst)_ZN5boost8signals26detail12signal1_implIvRKNS_10shared_ptrIKN3pcl10PointCloudINS4_8PointXYZEEEEENS0_19optional_last_valueIvEEiSt4lessIiENS_8functionIFvSB_EEENSG_IFvRKNS0_10connectionESB_EEENS0_5mutexEE16invocation_stateC1ERKNS1_12grouped_listIiSF_NS3_INS1_15connection_bodyISt4pairINS1_15slot_meta_groupENS_8optionalIiEEENS0_5slot1IvSB_SI_EESO_EEEEEERKSD_@Base 1.6
 (optional=templinst)_ZN5boost8signals26detail12signal1_implIvRKNS_10shared_ptrIKN3pcl10PointCloudINS4_8PointXYZEEEEENS0_19optional_last_valueIvEEiSt4lessIiENS_8functionIFvSB_EEENSG_IFvRKNS0_10connectionESB_EEENS0_5mutexEE16invocation_stateC1ERKSQ_RKNS1_12grouped_listIiSF_NS3_INS1_15connection_bodyISt4pairINS1_15slot_meta_groupENS_8optionalIiEEENS0_5slot1IvSB_SI_EESO_EEEEEE@Base 1.6
 (optional=templinst)_ZN5boost8signals26detail12signal1_implIvRKNS_10shared_ptrIKN3pcl10PointCloudINS4_8PointXYZEEEEENS0_19optional_last_valueIvEEiSt4lessIiENS_8functionIFvSB_EEENSG_IFvRKNS0_10connectionESB_EEENS0_5mutexEE16invocation_stateC2ERKNS1_12grouped_listIiSF_NS3_INS1_15connection_bodyISt4pairINS1_15slot_meta_groupENS_8optionalIiEEENS0_5slot1IvSB_SI_EESO_EEEEEERKSD_@Base 1.6
 (optional=templinst)_ZN5boost8signals26detail12signal1_implIvRKNS_10shared_ptrIKN3pcl10PointCloudINS4_8PointXYZEEEEENS0_19optional_last_valueIvEEiSt4lessIiENS_8functionIFvSB_EEENSG_IFvRKNS0_10connectionESB_EEENS0_5mutexEE16invocation_stateC2ERKSQ_RKNS1_12grouped_listIiSF_NS3_INS1_15connection_bodyISt4pairINS1_15slot_meta_groupENS_8optionalIiEEENS0_5slot1IvSB_SI_EESO_EEEEEE@Base 1.6
 (optional=templinst)_ZN5boost8signals26detail12signal1_implIvRKNS_10shared_ptrIKN3pcl10PointCloudINS4_8PointXYZEEEEENS0_19optional_last_valueIvEEiSt4lessIiENS_8functionIFvSB_EEENSG_IFvRKNS0_10connectionESB_EEENS0_5mutexEE16invocation_stateD1Ev@Base 1.6
 (optional=templinst)_ZN5boost8signals26detail12signal1_implIvRKNS_10shared_ptrIKN3pcl10PointCloudINS4_8PointXYZEEEEENS0_19optional_last_valueIvEEiSt4lessIiENS_8functionIFvSB_EEENSG_IFvRKNS0_10connectionESB_EEENS0_5mutexEE16invocation_stateD2Ev@Base 1.6
 (optional=templinst)_ZN5boost8signals26detail12signal1_implIvRKNS_10shared_ptrIKN3pcl10PointCloudINS4_8PointXYZEEEEENS0_19optional_last_valueIvEEiSt4lessIiENS_8functionIFvSB_EEENSG_IFvRKNS0_10connectionESB_EEENS0_5mutexEE18invocation_janitorD1Ev@Base 1.6
 (optional=templinst)_ZN5boost8signals26detail12signal1_implIvRKNS_10shared_ptrIKN3pcl10PointCloudINS4_8PointXYZEEEEENS0_19optional_last_valueIvEEiSt4lessIiENS_8functionIFvSB_EEENSG_IFvRKNS0_10connectionESB_EEENS0_5mutexEE18invocation_janitorD2Ev@Base 1.6
 (optional=templinst)_ZN5boost8signals26detail12signal1_implIvRKNS_10shared_ptrIKN3pcl10PointCloudINS4_8PointXYZEEEEENS0_19optional_last_valueIvEEiSt4lessIiENS_8functionIFvSB_EEENSG_IFvRKNS0_10connectionESB_EEENS0_5mutexEE20disconnect_all_slotsEv@Base 1.6
 (optional=templinst)_ZN5boost8signals26detail12signal1_implIvRKNS_10shared_ptrIKN3pcl10PointCloudINS4_8PointXYZEEEEENS0_19optional_last_valueIvEEiSt4lessIiENS_8functionIFvSB_EEENSG_IFvRKNS0_10connectionESB_EEENS0_5mutexEEC1ERKSD_RKSF_@Base 1.6
 (optional=templinst)_ZN5boost8signals26detail12signal1_implIvRKNS_10shared_ptrIKN3pcl10PointCloudINS4_8PointXYZEEEEENS0_19optional_last_valueIvEEiSt4lessIiENS_8functionIFvSB_EEENSG_IFvRKNS0_10connectionESB_EEENS0_5mutexEEC2ERKSD_RKSF_@Base 1.6
 (optional=templinst)_ZN5boost8signals26detail12signal1_implIvRKNS_10shared_ptrIKN3pcl10PointCloudINS4_8PointXYZEEEEENS0_19optional_last_valueIvEEiSt4lessIiENS_8functionIFvSB_EEENSG_IFvRKNS0_10connectionESB_EEENS0_5mutexEED1Ev@Base 1.6
 (optional=templinst)_ZN5boost8signals26detail12signal1_implIvRKNS_10shared_ptrIKN3pcl10PointCloudINS4_8PointXYZEEEEENS0_19optional_last_valueIvEEiSt4lessIiENS_8functionIFvSB_EEENSG_IFvRKNS0_10connectionESB_EEENS0_5mutexEED2Ev@Base 1.6
 (optional=templinst)_ZN5boost8signals26detail12signal1_implIvRKNS_10shared_ptrIKN3pcl10PointCloudINS4_8PointXYZEEEEENS0_19optional_last_valueIvEEiSt4lessIiENS_8functionIFvSB_EEENSG_IFvRKNS0_10connectionESB_EEENS0_5mutexEEclESB_@Base 1.6
 (optional=templinst)_ZN5boost8signals26detail12signal1_implIvRKNS_10shared_ptrIKN3pcl10PointCloudINS4_9PointXYZIEEEEENS0_19optional_last_valueIvEEiSt4lessIiENS_8functionIFvSB_EEENSG_IFvRKNS0_10connectionESB_EEENS0_5mutexEE16invocation_stateC1ERKNS1_12grouped_listIiSF_NS3_INS1_15connection_bodyISt4pairINS1_15slot_meta_groupENS_8optionalIiEEENS0_5slot1IvSB_SI_EESO_EEEEEERKSD_@Base 1.6
 (optional=templinst)_ZN5boost8signals26detail12signal1_implIvRKNS_10shared_ptrIKN3pcl10PointCloudINS4_9PointXYZIEEEEENS0_19optional_last_valueIvEEiSt4lessIiENS_8functionIFvSB_EEENSG_IFvRKNS0_10connectionESB_EEENS0_5mutexEE16invocation_stateC1ERKSQ_RKNS1_12grouped_listIiSF_NS3_INS1_15connection_bodyISt4pairINS1_15slot_meta_groupENS_8optionalIiEEENS0_5slot1IvSB_SI_EESO_EEEEEE@Base 1.6
 (optional=templinst)_ZN5boost8signals26detail12signal1_implIvRKNS_10shared_ptrIKN3pcl10PointCloudINS4_9PointXYZIEEEEENS0_19optional_last_valueIvEEiSt4lessIiENS_8functionIFvSB_EEENSG_IFvRKNS0_10connectionESB_EEENS0_5mutexEE16invocation_stateC2ERKNS1_12grouped_listIiSF_NS3_INS1_15connection_bodyISt4pairINS1_15slot_meta_groupENS_8optionalIiEEENS0_5slot1IvSB_SI_EESO_EEEEEERKSD_@Base 1.6
 (optional=templinst)_ZN5boost8signals26detail12signal1_implIvRKNS_10shared_ptrIKN3pcl10PointCloudINS4_9PointXYZIEEEEENS0_19optional_last_valueIvEEiSt4lessIiENS_8functionIFvSB_EEENSG_IFvRKNS0_10connectionESB_EEENS0_5mutexEE16invocation_stateC2ERKSQ_RKNS1_12grouped_listIiSF_NS3_INS1_15connection_bodyISt4pairINS1_15slot_meta_groupENS_8optionalIiEEENS0_5slot1IvSB_SI_EESO_EEEEEE@Base 1.6
 (optional=templinst)_ZN5boost8signals26detail12signal1_implIvRKNS_10shared_ptrIKN3pcl10PointCloudINS4_9PointXYZIEEEEENS0_19optional_last_valueIvEEiSt4lessIiENS_8functionIFvSB_EEENSG_IFvRKNS0_10connectionESB_EEENS0_5mutexEE16invocation_stateD1Ev@Base 1.6
 (optional=templinst)_ZN5boost8signals26detail12signal1_implIvRKNS_10shared_ptrIKN3pcl10PointCloudINS4_9PointXYZIEEEEENS0_19optional_last_valueIvEEiSt4lessIiENS_8functionIFvSB_EEENSG_IFvRKNS0_10connectionESB_EEENS0_5mutexEE16invocation_stateD2Ev@Base 1.6
 (optional=templinst)_ZN5boost8signals26detail12signal1_implIvRKNS_10shared_ptrIKN3pcl10PointCloudINS4_9PointXYZIEEEEENS0_19optional_last_valueIvEEiSt4lessIiENS_8functionIFvSB_EEENSG_IFvRKNS0_10connectionESB_EEENS0_5mutexEE18invocation_janitorD1Ev@Base 1.6
 (optional=templinst)_ZN5boost8signals26detail12signal1_implIvRKNS_10shared_ptrIKN3pcl10PointCloudINS4_9PointXYZIEEEEENS0_19optional_last_valueIvEEiSt4lessIiENS_8functionIFvSB_EEENSG_IFvRKNS0_10connectionESB_EEENS0_5mutexEE18invocation_janitorD2Ev@Base 1.6
 (optional=templinst)_ZN5boost8signals26detail12signal1_implIvRKNS_10shared_ptrIKN3pcl10PointCloudINS4_9PointXYZIEEEEENS0_19optional_last_valueIvEEiSt4lessIiENS_8functionIFvSB_EEENSG_IFvRKNS0_10connectionESB_EEENS0_5mutexEE20disconnect_all_slotsEv@Base 1.6
 (optional=templinst)_ZN5boost8signals26detail12signal1_implIvRKNS_10shared_ptrIKN3pcl10PointCloudINS4_9PointXYZIEEEEENS0_19optional_last_valueIvEEiSt4lessIiENS_8functionIFvSB_EEENSG_IFvRKNS0_10connectionESB_EEENS0_5mutexEEC1ERKSD_RKSF_@Base 1.6
 (optional=templinst)_ZN5boost8signals26detail12signal1_implIvRKNS_10shared_ptrIKN3pcl10PointCloudINS4_9PointXYZIEEEEENS0_19optional_last_valueIvEEiSt4lessIiENS_8functionIFvSB_EEENSG_IFvRKNS0_10connectionESB_EEENS0_5mutexEEC2ERKSD_RKSF_@Base 1.6
 (optional=templinst)_ZN5boost8signals26detail12signal1_implIvRKNS_10shared_ptrIKN3pcl10PointCloudINS4_9PointXYZIEEEEENS0_19optional_last_valueIvEEiSt4lessIiENS_8functionIFvSB_EEENSG_IFvRKNS0_10connectionESB_EEENS0_5mutexEED1Ev@Base 1.6
 (optional=templinst)_ZN5boost8signals26detail12signal1_implIvRKNS_10shared_ptrIKN3pcl10PointCloudINS4_9PointXYZIEEEEENS0_19optional_last_valueIvEEiSt4lessIiENS_8functionIFvSB_EEENSG_IFvRKNS0_10connectionESB_EEENS0_5mutexEED2Ev@Base 1.6
 (optional=templinst)_ZN5boost8signals26detail12signal1_implIvRKNS_10shared_ptrIKN3pcl10PointCloudINS4_9PointXYZIEEEEENS0_19optional_last_valueIvEEiSt4lessIiENS_8functionIFvSB_EEENSG_IFvRKNS0_10connectionESB_EEENS0_5mutexEEclESB_@Base 1.6
 (optional=templinst)_ZN5boost8signals26detail12signal1_implIvRKNS_10shared_ptrIN14openni_wrapper10DepthImageEEENS0_19optional_last_valueIvEEiSt4lessIiENS_8functionIFvS8_EEENSD_IFvRKNS0_10connectionES8_EEENS0_5mutexEE16invocation_stateC1ERKNS1_12grouped_listIiSC_NS3_INS1_15connection_bodyISt4pairINS1_15slot_meta_groupENS_8optionalIiEEENS0_5slot1IvS8_SF_EESL_EEEEEERKSA_@Base 1.6
 (optional=templinst)_ZN5boost8signals26detail12signal1_implIvRKNS_10shared_ptrIN14openni_wrapper10DepthImageEEENS0_19optional_last_valueIvEEiSt4lessIiENS_8functionIFvS8_EEENSD_IFvRKNS0_10connectionES8_EEENS0_5mutexEE16invocation_stateC1ERKSN_RKNS1_12grouped_listIiSC_NS3_INS1_15connection_bodyISt4pairINS1_15slot_meta_groupENS_8optionalIiEEENS0_5slot1IvS8_SF_EESL_EEEEEE@Base 1.6
 (optional=templinst)_ZN5boost8signals26detail12signal1_implIvRKNS_10shared_ptrIN14openni_wrapper10DepthImageEEENS0_19optional_last_valueIvEEiSt4lessIiENS_8functionIFvS8_EEENSD_IFvRKNS0_10connectionES8_EEENS0_5mutexEE16invocation_stateC2ERKNS1_12grouped_listIiSC_NS3_INS1_15connection_bodyISt4pairINS1_15slot_meta_groupENS_8optionalIiEEENS0_5slot1IvS8_SF_EESL_EEEEEERKSA_@Base 1.6
 (optional=templinst)_ZN5boost8signals26detail12signal1_implIvRKNS_10shared_ptrIN14openni_wrapper10DepthImageEEENS0_19optional_last_valueIvEEiSt4lessIiENS_8functionIFvS8_EEENSD_IFvRKNS0_10connectionES8_EEENS0_5mutexEE16invocation_stateC2ERKSN_RKNS1_12grouped_listIiSC_NS3_INS1_15connection_bodyISt4pairINS1_15slot_meta_groupENS_8optionalIiEEENS0_5slot1IvS8_SF_EESL_EEEEEE@Base 1.6
 (optional=templinst)_ZN5boost8signals26detail12signal1_implIvRKNS_10shared_ptrIN14openni_wrapper10DepthImageEEENS0_19optional_last_valueIvEEiSt4lessIiENS_8functionIFvS8_EEENSD_IFvRKNS0_10connectionES8_EEENS0_5mutexEE16invocation_stateD1Ev@Base 1.6
 (optional=templinst)_ZN5boost8signals26detail12signal1_implIvRKNS_10shared_ptrIN14openni_wrapper10DepthImageEEENS0_19optional_last_valueIvEEiSt4lessIiENS_8functionIFvS8_EEENSD_IFvRKNS0_10connectionES8_EEENS0_5mutexEE16invocation_stateD2Ev@Base 1.6
 (optional=templinst)_ZN5boost8signals26detail12signal1_implIvRKNS_10shared_ptrIN14openni_wrapper10DepthImageEEENS0_19optional_last_valueIvEEiSt4lessIiENS_8functionIFvS8_EEENSD_IFvRKNS0_10connectionES8_EEENS0_5mutexEE18invocation_janitorD1Ev@Base 1.6
 (optional=templinst)_ZN5boost8signals26detail12signal1_implIvRKNS_10shared_ptrIN14openni_wrapper10DepthImageEEENS0_19optional_last_valueIvEEiSt4lessIiENS_8functionIFvS8_EEENSD_IFvRKNS0_10connectionES8_EEENS0_5mutexEE18invocation_janitorD2Ev@Base 1.6
 (optional=templinst)_ZN5boost8signals26detail12signal1_implIvRKNS_10shared_ptrIN14openni_wrapper10DepthImageEEENS0_19optional_last_valueIvEEiSt4lessIiENS_8functionIFvS8_EEENSD_IFvRKNS0_10connectionES8_EEENS0_5mutexEE20disconnect_all_slotsEv@Base 1.6
 (optional=templinst)_ZN5boost8signals26detail12signal1_implIvRKNS_10shared_ptrIN14openni_wrapper10DepthImageEEENS0_19optional_last_valueIvEEiSt4lessIiENS_8functionIFvS8_EEENSD_IFvRKNS0_10connectionES8_EEENS0_5mutexEEC1ERKSA_RKSC_@Base 1.6
 (optional=templinst)_ZN5boost8signals26detail12signal1_implIvRKNS_10shared_ptrIN14openni_wrapper10DepthImageEEENS0_19optional_last_valueIvEEiSt4lessIiENS_8functionIFvS8_EEENSD_IFvRKNS0_10connectionES8_EEENS0_5mutexEEC2ERKSA_RKSC_@Base 1.6
 (optional=templinst)_ZN5boost8signals26detail12signal1_implIvRKNS_10shared_ptrIN14openni_wrapper10DepthImageEEENS0_19optional_last_valueIvEEiSt4lessIiENS_8functionIFvS8_EEENSD_IFvRKNS0_10connectionES8_EEENS0_5mutexEED1Ev@Base 1.6
 (optional=templinst)_ZN5boost8signals26detail12signal1_implIvRKNS_10shared_ptrIN14openni_wrapper10DepthImageEEENS0_19optional_last_valueIvEEiSt4lessIiENS_8functionIFvS8_EEENSD_IFvRKNS0_10connectionES8_EEENS0_5mutexEED2Ev@Base 1.6
 (optional=templinst)_ZN5boost8signals26detail12signal1_implIvRKNS_10shared_ptrIN14openni_wrapper10DepthImageEEENS0_19optional_last_valueIvEEiSt4lessIiENS_8functionIFvS8_EEENSD_IFvRKNS0_10connectionES8_EEENS0_5mutexEEclES8_@Base 1.6
 (optional=templinst)_ZN5boost8signals26detail12signal1_implIvRKNS_10shared_ptrIN14openni_wrapper5ImageEEENS0_19optional_last_valueIvEEiSt4lessIiENS_8functionIFvS8_EEENSD_IFvRKNS0_10connectionES8_EEENS0_5mutexEE16invocation_stateC1ERKNS1_12grouped_listIiSC_NS3_INS1_15connection_bodyISt4pairINS1_15slot_meta_groupENS_8optionalIiEEENS0_5slot1IvS8_SF_EESL_EEEEEERKSA_@Base 1.6
 (optional=templinst)_ZN5boost8signals26detail12signal1_implIvRKNS_10shared_ptrIN14openni_wrapper5ImageEEENS0_19optional_last_valueIvEEiSt4lessIiENS_8functionIFvS8_EEENSD_IFvRKNS0_10connectionES8_EEENS0_5mutexEE16invocation_stateC1ERKSN_RKNS1_12grouped_listIiSC_NS3_INS1_15connection_bodyISt4pairINS1_15slot_meta_groupENS_8optionalIiEEENS0_5slot1IvS8_SF_EESL_EEEEEE@Base 1.6
 (optional=templinst)_ZN5boost8signals26detail12signal1_implIvRKNS_10shared_ptrIN14openni_wrapper5ImageEEENS0_19optional_last_valueIvEEiSt4lessIiENS_8functionIFvS8_EEENSD_IFvRKNS0_10connectionES8_EEENS0_5mutexEE16invocation_stateC2ERKNS1_12grouped_listIiSC_NS3_INS1_15connection_bodyISt4pairINS1_15slot_meta_groupENS_8optionalIiEEENS0_5slot1IvS8_SF_EESL_EEEEEERKSA_@Base 1.6
 (optional=templinst)_ZN5boost8signals26detail12signal1_implIvRKNS_10shared_ptrIN14openni_wrapper5ImageEEENS0_19optional_last_valueIvEEiSt4lessIiENS_8functionIFvS8_EEENSD_IFvRKNS0_10connectionES8_EEENS0_5mutexEE16invocation_stateC2ERKSN_RKNS1_12grouped_listIiSC_NS3_INS1_15connection_bodyISt4pairINS1_15slot_meta_groupENS_8optionalIiEEENS0_5slot1IvS8_SF_EESL_EEEEEE@Base 1.6
 (optional=templinst)_ZN5boost8signals26detail12signal1_implIvRKNS_10shared_ptrIN14openni_wrapper5ImageEEENS0_19optional_last_valueIvEEiSt4lessIiENS_8functionIFvS8_EEENSD_IFvRKNS0_10connectionES8_EEENS0_5mutexEE16invocation_stateD1Ev@Base 1.6
 (optional=templinst)_ZN5boost8signals26detail12signal1_implIvRKNS_10shared_ptrIN14openni_wrapper5ImageEEENS0_19optional_last_valueIvEEiSt4lessIiENS_8functionIFvS8_EEENSD_IFvRKNS0_10connectionES8_EEENS0_5mutexEE16invocation_stateD2Ev@Base 1.6
 (optional=templinst)_ZN5boost8signals26detail12signal1_implIvRKNS_10shared_ptrIN14openni_wrapper5ImageEEENS0_19optional_last_valueIvEEiSt4lessIiENS_8functionIFvS8_EEENSD_IFvRKNS0_10connectionES8_EEENS0_5mutexEE18invocation_janitorD1Ev@Base 1.6
 (optional=templinst)_ZN5boost8signals26detail12signal1_implIvRKNS_10shared_ptrIN14openni_wrapper5ImageEEENS0_19optional_last_valueIvEEiSt4lessIiENS_8functionIFvS8_EEENSD_IFvRKNS0_10connectionES8_EEENS0_5mutexEE18invocation_janitorD2Ev@Base 1.6
 (optional=templinst)_ZN5boost8signals26detail12signal1_implIvRKNS_10shared_ptrIN14openni_wrapper5ImageEEENS0_19optional_last_valueIvEEiSt4lessIiENS_8functionIFvS8_EEENSD_IFvRKNS0_10connectionES8_EEENS0_5mutexEE20disconnect_all_slotsEv@Base 1.6
 (optional=templinst)_ZN5boost8signals26detail12signal1_implIvRKNS_10shared_ptrIN14openni_wrapper5ImageEEENS0_19optional_last_valueIvEEiSt4lessIiENS_8functionIFvS8_EEENSD_IFvRKNS0_10connectionES8_EEENS0_5mutexEEC1ERKSA_RKSC_@Base 1.6
 (optional=templinst)_ZN5boost8signals26detail12signal1_implIvRKNS_10shared_ptrIN14openni_wrapper5ImageEEENS0_19optional_last_valueIvEEiSt4lessIiENS_8functionIFvS8_EEENSD_IFvRKNS0_10connectionES8_EEENS0_5mutexEEC2ERKSA_RKSC_@Base 1.6
 (optional=templinst)_ZN5boost8signals26detail12signal1_implIvRKNS_10shared_ptrIN14openni_wrapper5ImageEEENS0_19optional_last_valueIvEEiSt4lessIiENS_8functionIFvS8_EEENSD_IFvRKNS0_10connectionES8_EEENS0_5mutexEED1Ev@Base 1.6
 (optional=templinst)_ZN5boost8signals26detail12signal1_implIvRKNS_10shared_ptrIN14openni_wrapper5ImageEEENS0_19optional_last_valueIvEEiSt4lessIiENS_8functionIFvS8_EEENSD_IFvRKNS0_10connectionES8_EEENS0_5mutexEED2Ev@Base 1.6
 (optional=templinst)_ZN5boost8signals26detail12signal1_implIvRKNS_10shared_ptrIN14openni_wrapper5ImageEEENS0_19optional_last_valueIvEEiSt4lessIiENS_8functionIFvS8_EEENSD_IFvRKNS0_10connectionES8_EEENS0_5mutexEEclES8_@Base 1.6
 (optional=templinst)_ZN5boost8signals26detail12signal1_implIvRKNS_10shared_ptrIN14openni_wrapper7IRImageEEENS0_19optional_last_valueIvEEiSt4lessIiENS_8functionIFvS8_EEENSD_IFvRKNS0_10connectionES8_EEENS0_5mutexEE16invocation_stateC1ERKNS1_12grouped_listIiSC_NS3_INS1_15connection_bodyISt4pairINS1_15slot_meta_groupENS_8optionalIiEEENS0_5slot1IvS8_SF_EESL_EEEEEERKSA_@Base 1.6
 (optional=templinst)_ZN5boost8signals26detail12signal1_implIvRKNS_10shared_ptrIN14openni_wrapper7IRImageEEENS0_19optional_last_valueIvEEiSt4lessIiENS_8functionIFvS8_EEENSD_IFvRKNS0_10connectionES8_EEENS0_5mutexEE16invocation_stateC1ERKSN_RKNS1_12grouped_listIiSC_NS3_INS1_15connection_bodyISt4pairINS1_15slot_meta_groupENS_8optionalIiEEENS0_5slot1IvS8_SF_EESL_EEEEEE@Base 1.6
 (optional=templinst)_ZN5boost8signals26detail12signal1_implIvRKNS_10shared_ptrIN14openni_wrapper7IRImageEEENS0_19optional_last_valueIvEEiSt4lessIiENS_8functionIFvS8_EEENSD_IFvRKNS0_10connectionES8_EEENS0_5mutexEE16invocation_stateC2ERKNS1_12grouped_listIiSC_NS3_INS1_15connection_bodyISt4pairINS1_15slot_meta_groupENS_8optionalIiEEENS0_5slot1IvS8_SF_EESL_EEEEEERKSA_@Base 1.6
 (optional=templinst)_ZN5boost8signals26detail12signal1_implIvRKNS_10shared_ptrIN14openni_wrapper7IRImageEEENS0_19optional_last_valueIvEEiSt4lessIiENS_8functionIFvS8_EEENSD_IFvRKNS0_10connectionES8_EEENS0_5mutexEE16invocation_stateC2ERKSN_RKNS1_12grouped_listIiSC_NS3_INS1_15connection_bodyISt4pairINS1_15slot_meta_groupENS_8optionalIiEEENS0_5slot1IvS8_SF_EESL_EEEEEE@Base 1.6
 (optional=templinst)_ZN5boost8signals26detail12signal1_implIvRKNS_10shared_ptrIN14openni_wrapper7IRImageEEENS0_19optional_last_valueIvEEiSt4lessIiENS_8functionIFvS8_EEENSD_IFvRKNS0_10connectionES8_EEENS0_5mutexEE16invocation_stateD1Ev@Base 1.6
 (optional=templinst)_ZN5boost8signals26detail12signal1_implIvRKNS_10shared_ptrIN14openni_wrapper7IRImageEEENS0_19optional_last_valueIvEEiSt4lessIiENS_8functionIFvS8_EEENSD_IFvRKNS0_10connectionES8_EEENS0_5mutexEE16invocation_stateD2Ev@Base 1.6
 (optional=templinst)_ZN5boost8signals26detail12signal1_implIvRKNS_10shared_ptrIN14openni_wrapper7IRImageEEENS0_19optional_last_valueIvEEiSt4lessIiENS_8functionIFvS8_EEENSD_IFvRKNS0_10connectionES8_EEENS0_5mutexEE18invocation_janitorD1Ev@Base 1.6
 (optional=templinst)_ZN5boost8signals26detail12signal1_implIvRKNS_10shared_ptrIN14openni_wrapper7IRImageEEENS0_19optional_last_valueIvEEiSt4lessIiENS_8functionIFvS8_EEENSD_IFvRKNS0_10connectionES8_EEENS0_5mutexEE18invocation_janitorD2Ev@Base 1.6
 (optional=templinst)_ZN5boost8signals26detail12signal1_implIvRKNS_10shared_ptrIN14openni_wrapper7IRImageEEENS0_19optional_last_valueIvEEiSt4lessIiENS_8functionIFvS8_EEENSD_IFvRKNS0_10connectionES8_EEENS0_5mutexEE20disconnect_all_slotsEv@Base 1.6
 (optional=templinst)_ZN5boost8signals26detail12signal1_implIvRKNS_10shared_ptrIN14openni_wrapper7IRImageEEENS0_19optional_last_valueIvEEiSt4lessIiENS_8functionIFvS8_EEENSD_IFvRKNS0_10connectionES8_EEENS0_5mutexEEC1ERKSA_RKSC_@Base 1.6
 (optional=templinst)_ZN5boost8signals26detail12signal1_implIvRKNS_10shared_ptrIN14openni_wrapper7IRImageEEENS0_19optional_last_valueIvEEiSt4lessIiENS_8functionIFvS8_EEENSD_IFvRKNS0_10connectionES8_EEENS0_5mutexEEC2ERKSA_RKSC_@Base 1.6
 (optional=templinst)_ZN5boost8signals26detail12signal1_implIvRKNS_10shared_ptrIN14openni_wrapper7IRImageEEENS0_19optional_last_valueIvEEiSt4lessIiENS_8functionIFvS8_EEENSD_IFvRKNS0_10connectionES8_EEENS0_5mutexEED1Ev@Base 1.6
 (optional=templinst)_ZN5boost8signals26detail12signal1_implIvRKNS_10shared_ptrIN14openni_wrapper7IRImageEEENS0_19optional_last_valueIvEEiSt4lessIiENS_8functionIFvS8_EEENSD_IFvRKNS0_10connectionES8_EEENS0_5mutexEED2Ev@Base 1.6
 (optional=templinst)_ZN5boost8signals26detail12signal1_implIvRKNS_10shared_ptrIN14openni_wrapper7IRImageEEENS0_19optional_last_valueIvEEiSt4lessIiENS_8functionIFvS8_EEENSD_IFvRKNS0_10connectionES8_EEENS0_5mutexEEclES8_@Base 1.6
 (optional=templinst)_ZN5boost8signals26detail12signal3_implIvRKNS_10shared_ptrIN14openni_wrapper5ImageEEERKNS3_INS4_10DepthImageEEEfNS0_19optional_last_valueIvEEiSt4lessIiENS_8functionIFvS8_SC_fEEENSH_IFvRKNS0_10connectionES8_SC_fEEENS0_5mutexEE16invocation_stateC1ERKNS1_12grouped_listIiSG_NS3_INS1_15connection_bodyISt4pairINS1_15slot_meta_groupENS_8optionalIiEEENS0_5slot3IvS8_SC_fSJ_EESP_EEEEEERKSE_@Base 1.6
 (optional=templinst)_ZN5boost8signals26detail12signal3_implIvRKNS_10shared_ptrIN14openni_wrapper5ImageEEERKNS3_INS4_10DepthImageEEEfNS0_19optional_last_valueIvEEiSt4lessIiENS_8functionIFvS8_SC_fEEENSH_IFvRKNS0_10connectionES8_SC_fEEENS0_5mutexEE16invocation_stateC1ERKSR_RKNS1_12grouped_listIiSG_NS3_INS1_15connection_bodyISt4pairINS1_15slot_meta_groupENS_8optionalIiEEENS0_5slot3IvS8_SC_fSJ_EESP_EEEEEE@Base 1.6
 (optional=templinst)_ZN5boost8signals26detail12signal3_implIvRKNS_10shared_ptrIN14openni_wrapper5ImageEEERKNS3_INS4_10DepthImageEEEfNS0_19optional_last_valueIvEEiSt4lessIiENS_8functionIFvS8_SC_fEEENSH_IFvRKNS0_10connectionES8_SC_fEEENS0_5mutexEE16invocation_stateC2ERKNS1_12grouped_listIiSG_NS3_INS1_15connection_bodyISt4pairINS1_15slot_meta_groupENS_8optionalIiEEENS0_5slot3IvS8_SC_fSJ_EESP_EEEEEERKSE_@Base 1.6
 (optional=templinst)_ZN5boost8signals26detail12signal3_implIvRKNS_10shared_ptrIN14openni_wrapper5ImageEEERKNS3_INS4_10DepthImageEEEfNS0_19optional_last_valueIvEEiSt4lessIiENS_8functionIFvS8_SC_fEEENSH_IFvRKNS0_10connectionES8_SC_fEEENS0_5mutexEE16invocation_stateC2ERKSR_RKNS1_12grouped_listIiSG_NS3_INS1_15connection_bodyISt4pairINS1_15slot_meta_groupENS_8optionalIiEEENS0_5slot3IvS8_SC_fSJ_EESP_EEEEEE@Base 1.6
 (optional=templinst)_ZN5boost8signals26detail12signal3_implIvRKNS_10shared_ptrIN14openni_wrapper5ImageEEERKNS3_INS4_10DepthImageEEEfNS0_19optional_last_valueIvEEiSt4lessIiENS_8functionIFvS8_SC_fEEENSH_IFvRKNS0_10connectionES8_SC_fEEENS0_5mutexEE16invocation_stateD1Ev@Base 1.6
 (optional=templinst)_ZN5boost8signals26detail12signal3_implIvRKNS_10shared_ptrIN14openni_wrapper5ImageEEERKNS3_INS4_10DepthImageEEEfNS0_19optional_last_valueIvEEiSt4lessIiENS_8functionIFvS8_SC_fEEENSH_IFvRKNS0_10connectionES8_SC_fEEENS0_5mutexEE16invocation_stateD2Ev@Base 1.6
 (optional=templinst)_ZN5boost8signals26detail12signal3_implIvRKNS_10shared_ptrIN14openni_wrapper5ImageEEERKNS3_INS4_10DepthImageEEEfNS0_19optional_last_valueIvEEiSt4lessIiENS_8functionIFvS8_SC_fEEENSH_IFvRKNS0_10connectionES8_SC_fEEENS0_5mutexEE18invocation_janitorD1Ev@Base 1.6
 (optional=templinst)_ZN5boost8signals26detail12signal3_implIvRKNS_10shared_ptrIN14openni_wrapper5ImageEEERKNS3_INS4_10DepthImageEEEfNS0_19optional_last_valueIvEEiSt4lessIiENS_8functionIFvS8_SC_fEEENSH_IFvRKNS0_10connectionES8_SC_fEEENS0_5mutexEE18invocation_janitorD2Ev@Base 1.6
 (optional=templinst)_ZN5boost8signals26detail12signal3_implIvRKNS_10shared_ptrIN14openni_wrapper5ImageEEERKNS3_INS4_10DepthImageEEEfNS0_19optional_last_valueIvEEiSt4lessIiENS_8functionIFvS8_SC_fEEENSH_IFvRKNS0_10connectionES8_SC_fEEENS0_5mutexEE20disconnect_all_slotsEv@Base 1.6
 (optional=templinst)_ZN5boost8signals26detail12signal3_implIvRKNS_10shared_ptrIN14openni_wrapper5ImageEEERKNS3_INS4_10DepthImageEEEfNS0_19optional_last_valueIvEEiSt4lessIiENS_8functionIFvS8_SC_fEEENSH_IFvRKNS0_10connectionES8_SC_fEEENS0_5mutexEEC1ERKSE_RKSG_@Base 1.6
 (optional=templinst)_ZN5boost8signals26detail12signal3_implIvRKNS_10shared_ptrIN14openni_wrapper5ImageEEERKNS3_INS4_10DepthImageEEEfNS0_19optional_last_valueIvEEiSt4lessIiENS_8functionIFvS8_SC_fEEENSH_IFvRKNS0_10connectionES8_SC_fEEENS0_5mutexEEC2ERKSE_RKSG_@Base 1.6
 (optional=templinst)_ZN5boost8signals26detail12signal3_implIvRKNS_10shared_ptrIN14openni_wrapper5ImageEEERKNS3_INS4_10DepthImageEEEfNS0_19optional_last_valueIvEEiSt4lessIiENS_8functionIFvS8_SC_fEEENSH_IFvRKNS0_10connectionES8_SC_fEEENS0_5mutexEED1Ev@Base 1.6
 (optional=templinst)_ZN5boost8signals26detail12signal3_implIvRKNS_10shared_ptrIN14openni_wrapper5ImageEEERKNS3_INS4_10DepthImageEEEfNS0_19optional_last_valueIvEEiSt4lessIiENS_8functionIFvS8_SC_fEEENSH_IFvRKNS0_10connectionES8_SC_fEEENS0_5mutexEED2Ev@Base 1.6
 (optional=templinst)_ZN5boost8signals26detail12signal3_implIvRKNS_10shared_ptrIN14openni_wrapper5ImageEEERKNS3_INS4_10DepthImageEEEfNS0_19optional_last_valueIvEEiSt4lessIiENS_8functionIFvS8_SC_fEEENSH_IFvRKNS0_10connectionES8_SC_fEEENS0_5mutexEEclES8_SC_f@Base 1.6
 (optional=templinst)_ZN5boost8signals26detail12signal3_implIvRKNS_10shared_ptrIN14openni_wrapper7IRImageEEERKNS3_INS4_10DepthImageEEEfNS0_19optional_last_valueIvEEiSt4lessIiENS_8functionIFvS8_SC_fEEENSH_IFvRKNS0_10connectionES8_SC_fEEENS0_5mutexEE16invocation_stateC1ERKNS1_12grouped_listIiSG_NS3_INS1_15connection_bodyISt4pairINS1_15slot_meta_groupENS_8optionalIiEEENS0_5slot3IvS8_SC_fSJ_EESP_EEEEEERKSE_@Base 1.6
 (optional=templinst)_ZN5boost8signals26detail12signal3_implIvRKNS_10shared_ptrIN14openni_wrapper7IRImageEEERKNS3_INS4_10DepthImageEEEfNS0_19optional_last_valueIvEEiSt4lessIiENS_8functionIFvS8_SC_fEEENSH_IFvRKNS0_10connectionES8_SC_fEEENS0_5mutexEE16invocation_stateC1ERKSR_RKNS1_12grouped_listIiSG_NS3_INS1_15connection_bodyISt4pairINS1_15slot_meta_groupENS_8optionalIiEEENS0_5slot3IvS8_SC_fSJ_EESP_EEEEEE@Base 1.6
 (optional=templinst)_ZN5boost8signals26detail12signal3_implIvRKNS_10shared_ptrIN14openni_wrapper7IRImageEEERKNS3_INS4_10DepthImageEEEfNS0_19optional_last_valueIvEEiSt4lessIiENS_8functionIFvS8_SC_fEEENSH_IFvRKNS0_10connectionES8_SC_fEEENS0_5mutexEE16invocation_stateC2ERKNS1_12grouped_listIiSG_NS3_INS1_15connection_bodyISt4pairINS1_15slot_meta_groupENS_8optionalIiEEENS0_5slot3IvS8_SC_fSJ_EESP_EEEEEERKSE_@Base 1.6
 (optional=templinst)_ZN5boost8signals26detail12signal3_implIvRKNS_10shared_ptrIN14openni_wrapper7IRImageEEERKNS3_INS4_10DepthImageEEEfNS0_19optional_last_valueIvEEiSt4lessIiENS_8functionIFvS8_SC_fEEENSH_IFvRKNS0_10connectionES8_SC_fEEENS0_5mutexEE16invocation_stateC2ERKSR_RKNS1_12grouped_listIiSG_NS3_INS1_15connection_bodyISt4pairINS1_15slot_meta_groupENS_8optionalIiEEENS0_5slot3IvS8_SC_fSJ_EESP_EEEEEE@Base 1.6
 (optional=templinst)_ZN5boost8signals26detail12signal3_implIvRKNS_10shared_ptrIN14openni_wrapper7IRImageEEERKNS3_INS4_10DepthImageEEEfNS0_19optional_last_valueIvEEiSt4lessIiENS_8functionIFvS8_SC_fEEENSH_IFvRKNS0_10connectionES8_SC_fEEENS0_5mutexEE16invocation_stateD1Ev@Base 1.6
 (optional=templinst)_ZN5boost8signals26detail12signal3_implIvRKNS_10shared_ptrIN14openni_wrapper7IRImageEEERKNS3_INS4_10DepthImageEEEfNS0_19optional_last_valueIvEEiSt4lessIiENS_8functionIFvS8_SC_fEEENSH_IFvRKNS0_10connectionES8_SC_fEEENS0_5mutexEE16invocation_stateD2Ev@Base 1.6
 (optional=templinst)_ZN5boost8signals26detail12signal3_implIvRKNS_10shared_ptrIN14openni_wrapper7IRImageEEERKNS3_INS4_10DepthImageEEEfNS0_19optional_last_valueIvEEiSt4lessIiENS_8functionIFvS8_SC_fEEENSH_IFvRKNS0_10connectionES8_SC_fEEENS0_5mutexEE18invocation_janitorD1Ev@Base 1.6
 (optional=templinst)_ZN5boost8signals26detail12signal3_implIvRKNS_10shared_ptrIN14openni_wrapper7IRImageEEERKNS3_INS4_10DepthImageEEEfNS0_19optional_last_valueIvEEiSt4lessIiENS_8functionIFvS8_SC_fEEENSH_IFvRKNS0_10connectionES8_SC_fEEENS0_5mutexEE18invocation_janitorD2Ev@Base 1.6
 (optional=templinst)_ZN5boost8signals26detail12signal3_implIvRKNS_10shared_ptrIN14openni_wrapper7IRImageEEERKNS3_INS4_10DepthImageEEEfNS0_19optional_last_valueIvEEiSt4lessIiENS_8functionIFvS8_SC_fEEENSH_IFvRKNS0_10connectionES8_SC_fEEENS0_5mutexEE20disconnect_all_slotsEv@Base 1.6
 (optional=templinst)_ZN5boost8signals26detail12signal3_implIvRKNS_10shared_ptrIN14openni_wrapper7IRImageEEERKNS3_INS4_10DepthImageEEEfNS0_19optional_last_valueIvEEiSt4lessIiENS_8functionIFvS8_SC_fEEENSH_IFvRKNS0_10connectionES8_SC_fEEENS0_5mutexEEC1ERKSE_RKSG_@Base 1.6
 (optional=templinst)_ZN5boost8signals26detail12signal3_implIvRKNS_10shared_ptrIN14openni_wrapper7IRImageEEERKNS3_INS4_10DepthImageEEEfNS0_19optional_last_valueIvEEiSt4lessIiENS_8functionIFvS8_SC_fEEENSH_IFvRKNS0_10connectionES8_SC_fEEENS0_5mutexEEC2ERKSE_RKSG_@Base 1.6
 (optional=templinst)_ZN5boost8signals26detail12signal3_implIvRKNS_10shared_ptrIN14openni_wrapper7IRImageEEERKNS3_INS4_10DepthImageEEEfNS0_19optional_last_valueIvEEiSt4lessIiENS_8functionIFvS8_SC_fEEENSH_IFvRKNS0_10connectionES8_SC_fEEENS0_5mutexEED1Ev@Base 1.6
 (optional=templinst)_ZN5boost8signals26detail12signal3_implIvRKNS_10shared_ptrIN14openni_wrapper7IRImageEEERKNS3_INS4_10DepthImageEEEfNS0_19optional_last_valueIvEEiSt4lessIiENS_8functionIFvS8_SC_fEEENSH_IFvRKNS0_10connectionES8_SC_fEEENS0_5mutexEED2Ev@Base 1.6
 (optional=templinst)_ZN5boost8signals26detail12signal3_implIvRKNS_10shared_ptrIN14openni_wrapper7IRImageEEERKNS3_INS4_10DepthImageEEEfNS0_19optional_last_valueIvEEiSt4lessIiENS_8functionIFvS8_SC_fEEENSH_IFvRKNS0_10connectionES8_SC_fEEENS0_5mutexEEclES8_SC_f@Base 1.6
 (optional=templinst)_ZN5boost8signals26detail24slot_call_iterator_cacheINS1_9void_typeENS1_12signal1_implIvRKNS_10shared_ptrIKN3pcl10PointCloudIN5Eigen6MatrixIfLin1ELin1ELi0ELin1ELin1EEEEEEENS0_19optional_last_valueIvEEiSt4lessIiENS_8functionIFvSF_EEENSK_IFvRKNS0_10connectionESF_EEENS0_5mutexEE12slot_invokerEED1Ev@Base 1.6
 (optional=templinst)_ZN5boost8signals26detail24slot_call_iterator_cacheINS1_9void_typeENS1_12signal1_implIvRKNS_10shared_ptrIKN3pcl10PointCloudIN5Eigen6MatrixIfLin1ELin1ELi0ELin1ELin1EEEEEEENS0_19optional_last_valueIvEEiSt4lessIiENS_8functionIFvSF_EEENSK_IFvRKNS0_10connectionESF_EEENS0_5mutexEE12slot_invokerEED2Ev@Base 1.6
 (optional=templinst)_ZN5boost8signals26detail24slot_call_iterator_cacheINS1_9void_typeENS1_12signal1_implIvRKNS_10shared_ptrIKN3pcl10PointCloudINS6_11PointXYZRGBEEEEENS0_19optional_last_valueIvEEiSt4lessIiENS_8functionIFvSD_EEENSI_IFvRKNS0_10connectionESD_EEENS0_5mutexEE12slot_invokerEED1Ev@Base 1.6
 (optional=templinst)_ZN5boost8signals26detail24slot_call_iterator_cacheINS1_9void_typeENS1_12signal1_implIvRKNS_10shared_ptrIKN3pcl10PointCloudINS6_11PointXYZRGBEEEEENS0_19optional_last_valueIvEEiSt4lessIiENS_8functionIFvSD_EEENSI_IFvRKNS0_10connectionESD_EEENS0_5mutexEE12slot_invokerEED2Ev@Base 1.6
 (optional=templinst)_ZN5boost8signals26detail24slot_call_iterator_cacheINS1_9void_typeENS1_12signal1_implIvRKNS_10shared_ptrIKN3pcl10PointCloudINS6_12PointXYZRGBAEEEEENS0_19optional_last_valueIvEEiSt4lessIiENS_8functionIFvSD_EEENSI_IFvRKNS0_10connectionESD_EEENS0_5mutexEE12slot_invokerEED1Ev@Base 1.6
 (optional=templinst)_ZN5boost8signals26detail24slot_call_iterator_cacheINS1_9void_typeENS1_12signal1_implIvRKNS_10shared_ptrIKN3pcl10PointCloudINS6_12PointXYZRGBAEEEEENS0_19optional_last_valueIvEEiSt4lessIiENS_8functionIFvSD_EEENSI_IFvRKNS0_10connectionESD_EEENS0_5mutexEE12slot_invokerEED2Ev@Base 1.6
 (optional=templinst)_ZN5boost8signals26detail24slot_call_iterator_cacheINS1_9void_typeENS1_12signal1_implIvRKNS_10shared_ptrIKN3pcl10PointCloudINS6_8PointXYZEEEEENS0_19optional_last_valueIvEEiSt4lessIiENS_8functionIFvSD_EEENSI_IFvRKNS0_10connectionESD_EEENS0_5mutexEE12slot_invokerEED1Ev@Base 1.6
 (optional=templinst)_ZN5boost8signals26detail24slot_call_iterator_cacheINS1_9void_typeENS1_12signal1_implIvRKNS_10shared_ptrIKN3pcl10PointCloudINS6_8PointXYZEEEEENS0_19optional_last_valueIvEEiSt4lessIiENS_8functionIFvSD_EEENSI_IFvRKNS0_10connectionESD_EEENS0_5mutexEE12slot_invokerEED2Ev@Base 1.6
 (optional=templinst)_ZN5boost8signals26detail24slot_call_iterator_cacheINS1_9void_typeENS1_12signal1_implIvRKNS_10shared_ptrIKN3pcl10PointCloudINS6_9PointXYZIEEEEENS0_19optional_last_valueIvEEiSt4lessIiENS_8functionIFvSD_EEENSI_IFvRKNS0_10connectionESD_EEENS0_5mutexEE12slot_invokerEED1Ev@Base 1.6
 (optional=templinst)_ZN5boost8signals26detail24slot_call_iterator_cacheINS1_9void_typeENS1_12signal1_implIvRKNS_10shared_ptrIKN3pcl10PointCloudINS6_9PointXYZIEEEEENS0_19optional_last_valueIvEEiSt4lessIiENS_8functionIFvSD_EEENSI_IFvRKNS0_10connectionESD_EEENS0_5mutexEE12slot_invokerEED2Ev@Base 1.6
 (optional=templinst)_ZN5boost8signals26detail24slot_call_iterator_cacheINS1_9void_typeENS1_12signal1_implIvRKNS_10shared_ptrIN14openni_wrapper10DepthImageEEENS0_19optional_last_valueIvEEiSt4lessIiENS_8functionIFvSA_EEENSF_IFvRKNS0_10connectionESA_EEENS0_5mutexEE12slot_invokerEED1Ev@Base 1.6
 (optional=templinst)_ZN5boost8signals26detail24slot_call_iterator_cacheINS1_9void_typeENS1_12signal1_implIvRKNS_10shared_ptrIN14openni_wrapper10DepthImageEEENS0_19optional_last_valueIvEEiSt4lessIiENS_8functionIFvSA_EEENSF_IFvRKNS0_10connectionESA_EEENS0_5mutexEE12slot_invokerEED2Ev@Base 1.6
 (optional=templinst)_ZN5boost8signals26detail24slot_call_iterator_cacheINS1_9void_typeENS1_12signal1_implIvRKNS_10shared_ptrIN14openni_wrapper5ImageEEENS0_19optional_last_valueIvEEiSt4lessIiENS_8functionIFvSA_EEENSF_IFvRKNS0_10connectionESA_EEENS0_5mutexEE12slot_invokerEED1Ev@Base 1.6
 (optional=templinst)_ZN5boost8signals26detail24slot_call_iterator_cacheINS1_9void_typeENS1_12signal1_implIvRKNS_10shared_ptrIN14openni_wrapper5ImageEEENS0_19optional_last_valueIvEEiSt4lessIiENS_8functionIFvSA_EEENSF_IFvRKNS0_10connectionESA_EEENS0_5mutexEE12slot_invokerEED2Ev@Base 1.6
 (optional=templinst)_ZN5boost8signals26detail24slot_call_iterator_cacheINS1_9void_typeENS1_12signal1_implIvRKNS_10shared_ptrIN14openni_wrapper7IRImageEEENS0_19optional_last_valueIvEEiSt4lessIiENS_8functionIFvSA_EEENSF_IFvRKNS0_10connectionESA_EEENS0_5mutexEE12slot_invokerEED1Ev@Base 1.6
 (optional=templinst)_ZN5boost8signals26detail24slot_call_iterator_cacheINS1_9void_typeENS1_12signal1_implIvRKNS_10shared_ptrIN14openni_wrapper7IRImageEEENS0_19optional_last_valueIvEEiSt4lessIiENS_8functionIFvSA_EEENSF_IFvRKNS0_10connectionESA_EEENS0_5mutexEE12slot_invokerEED2Ev@Base 1.6
 (optional=templinst)_ZN5boost8signals26detail24slot_call_iterator_cacheINS1_9void_typeENS1_12signal3_implIvRKNS_10shared_ptrIN14openni_wrapper5ImageEEERKNS5_INS6_10DepthImageEEEfNS0_19optional_last_valueIvEEiSt4lessIiENS_8functionIFvSA_SE_fEEENSJ_IFvRKNS0_10connectionESA_SE_fEEENS0_5mutexEE12slot_invokerEED1Ev@Base 1.6
 (optional=templinst)_ZN5boost8signals26detail24slot_call_iterator_cacheINS1_9void_typeENS1_12signal3_implIvRKNS_10shared_ptrIN14openni_wrapper5ImageEEERKNS5_INS6_10DepthImageEEEfNS0_19optional_last_valueIvEEiSt4lessIiENS_8functionIFvSA_SE_fEEENSJ_IFvRKNS0_10connectionESA_SE_fEEENS0_5mutexEE12slot_invokerEED2Ev@Base 1.6
 (optional=templinst)_ZN5boost8signals26detail24slot_call_iterator_cacheINS1_9void_typeENS1_12signal3_implIvRKNS_10shared_ptrIN14openni_wrapper7IRImageEEERKNS5_INS6_10DepthImageEEEfNS0_19optional_last_valueIvEEiSt4lessIiENS_8functionIFvSA_SE_fEEENSJ_IFvRKNS0_10connectionESA_SE_fEEENS0_5mutexEE12slot_invokerEED1Ev@Base 1.6
 (optional=templinst)_ZN5boost8signals26detail24slot_call_iterator_cacheINS1_9void_typeENS1_12signal3_implIvRKNS_10shared_ptrIN14openni_wrapper7IRImageEEERKNS5_INS6_10DepthImageEEEfNS0_19optional_last_valueIvEEiSt4lessIiENS_8functionIFvSA_SE_fEEENSJ_IFvRKNS0_10connectionESA_SE_fEEENS0_5mutexEE12slot_invokerEED2Ev@Base 1.6
 (optional=templinst)_ZN5boost8signals26signalIFvRKNS_10shared_ptrIKN3pcl10PointCloudIN5Eigen6MatrixIfLin1ELin1ELi0ELin1ELin1EEEEEEEENS0_19optional_last_valueIvEEiSt4lessIiENS_8functionISD_EENSI_IFvRKNS0_10connectionESC_EEENS0_5mutexEED0Ev@Base 1.6
 (optional=templinst)_ZN5boost8signals26signalIFvRKNS_10shared_ptrIKN3pcl10PointCloudIN5Eigen6MatrixIfLin1ELin1ELi0ELin1ELin1EEEEEEEENS0_19optional_last_valueIvEEiSt4lessIiENS_8functionISD_EENSI_IFvRKNS0_10connectionESC_EEENS0_5mutexEED1Ev@Base 1.6
 (optional=templinst)_ZN5boost8signals26signalIFvRKNS_10shared_ptrIKN3pcl10PointCloudIN5Eigen6MatrixIfLin1ELin1ELi0ELin1ELin1EEEEEEEENS0_19optional_last_valueIvEEiSt4lessIiENS_8functionISD_EENSI_IFvRKNS0_10connectionESC_EEENS0_5mutexEED2Ev@Base 1.6
 (optional=templinst)_ZN5boost8signals26signalIFvRKNS_10shared_ptrIKN3pcl10PointCloudINS3_11PointXYZRGBEEEEEENS0_19optional_last_valueIvEEiSt4lessIiENS_8functionISB_EENSG_IFvRKNS0_10connectionESA_EEENS0_5mutexEED0Ev@Base 1.6
 (optional=templinst)_ZN5boost8signals26signalIFvRKNS_10shared_ptrIKN3pcl10PointCloudINS3_11PointXYZRGBEEEEEENS0_19optional_last_valueIvEEiSt4lessIiENS_8functionISB_EENSG_IFvRKNS0_10connectionESA_EEENS0_5mutexEED1Ev@Base 1.6
 (optional=templinst)_ZN5boost8signals26signalIFvRKNS_10shared_ptrIKN3pcl10PointCloudINS3_11PointXYZRGBEEEEEENS0_19optional_last_valueIvEEiSt4lessIiENS_8functionISB_EENSG_IFvRKNS0_10connectionESA_EEENS0_5mutexEED2Ev@Base 1.6
 (optional=templinst)_ZN5boost8signals26signalIFvRKNS_10shared_ptrIKN3pcl10PointCloudINS3_12PointXYZRGBAEEEEEENS0_19optional_last_valueIvEEiSt4lessIiENS_8functionISB_EENSG_IFvRKNS0_10connectionESA_EEENS0_5mutexEED0Ev@Base 1.6
 (optional=templinst)_ZN5boost8signals26signalIFvRKNS_10shared_ptrIKN3pcl10PointCloudINS3_12PointXYZRGBAEEEEEENS0_19optional_last_valueIvEEiSt4lessIiENS_8functionISB_EENSG_IFvRKNS0_10connectionESA_EEENS0_5mutexEED1Ev@Base 1.6
 (optional=templinst)_ZN5boost8signals26signalIFvRKNS_10shared_ptrIKN3pcl10PointCloudINS3_12PointXYZRGBAEEEEEENS0_19optional_last_valueIvEEiSt4lessIiENS_8functionISB_EENSG_IFvRKNS0_10connectionESA_EEENS0_5mutexEED2Ev@Base 1.6
 (optional=templinst)_ZN5boost8signals26signalIFvRKNS_10shared_ptrIKN3pcl10PointCloudINS3_8PointXYZEEEEEENS0_19optional_last_valueIvEEiSt4lessIiENS_8functionISB_EENSG_IFvRKNS0_10connectionESA_EEENS0_5mutexEED0Ev@Base 1.6
 (optional=templinst)_ZN5boost8signals26signalIFvRKNS_10shared_ptrIKN3pcl10PointCloudINS3_8PointXYZEEEEEENS0_19optional_last_valueIvEEiSt4lessIiENS_8functionISB_EENSG_IFvRKNS0_10connectionESA_EEENS0_5mutexEED1Ev@Base 1.6
 (optional=templinst)_ZN5boost8signals26signalIFvRKNS_10shared_ptrIKN3pcl10PointCloudINS3_8PointXYZEEEEEENS0_19optional_last_valueIvEEiSt4lessIiENS_8functionISB_EENSG_IFvRKNS0_10connectionESA_EEENS0_5mutexEED2Ev@Base 1.6
 (optional=templinst)_ZN5boost8signals26signalIFvRKNS_10shared_ptrIKN3pcl10PointCloudINS3_9PointXYZIEEEEEENS0_19optional_last_valueIvEEiSt4lessIiENS_8functionISB_EENSG_IFvRKNS0_10connectionESA_EEENS0_5mutexEED0Ev@Base 1.6
 (optional=templinst)_ZN5boost8signals26signalIFvRKNS_10shared_ptrIKN3pcl10PointCloudINS3_9PointXYZIEEEEEENS0_19optional_last_valueIvEEiSt4lessIiENS_8functionISB_EENSG_IFvRKNS0_10connectionESA_EEENS0_5mutexEED1Ev@Base 1.6
 (optional=templinst)_ZN5boost8signals26signalIFvRKNS_10shared_ptrIKN3pcl10PointCloudINS3_9PointXYZIEEEEEENS0_19optional_last_valueIvEEiSt4lessIiENS_8functionISB_EENSG_IFvRKNS0_10connectionESA_EEENS0_5mutexEED2Ev@Base 1.6
 (optional=templinst)_ZN5boost8signals26signalIFvRKNS_10shared_ptrIN14openni_wrapper10DepthImageEEEENS0_19optional_last_valueIvEEiSt4lessIiENS_8functionIS8_EENSD_IFvRKNS0_10connectionES7_EEENS0_5mutexEED0Ev@Base 1.6
 (optional=templinst)_ZN5boost8signals26signalIFvRKNS_10shared_ptrIN14openni_wrapper10DepthImageEEEENS0_19optional_last_valueIvEEiSt4lessIiENS_8functionIS8_EENSD_IFvRKNS0_10connectionES7_EEENS0_5mutexEED1Ev@Base 1.6
 (optional=templinst)_ZN5boost8signals26signalIFvRKNS_10shared_ptrIN14openni_wrapper10DepthImageEEEENS0_19optional_last_valueIvEEiSt4lessIiENS_8functionIS8_EENSD_IFvRKNS0_10connectionES7_EEENS0_5mutexEED2Ev@Base 1.6
 (optional=templinst)_ZN5boost8signals26signalIFvRKNS_10shared_ptrIN14openni_wrapper5ImageEEEENS0_19optional_last_valueIvEEiSt4lessIiENS_8functionIS8_EENSD_IFvRKNS0_10connectionES7_EEENS0_5mutexEED0Ev@Base 1.6
 (optional=templinst)_ZN5boost8signals26signalIFvRKNS_10shared_ptrIN14openni_wrapper5ImageEEEENS0_19optional_last_valueIvEEiSt4lessIiENS_8functionIS8_EENSD_IFvRKNS0_10connectionES7_EEENS0_5mutexEED1Ev@Base 1.6
 (optional=templinst)_ZN5boost8signals26signalIFvRKNS_10shared_ptrIN14openni_wrapper5ImageEEEENS0_19optional_last_valueIvEEiSt4lessIiENS_8functionIS8_EENSD_IFvRKNS0_10connectionES7_EEENS0_5mutexEED2Ev@Base 1.6
 (optional=templinst)_ZN5boost8signals26signalIFvRKNS_10shared_ptrIN14openni_wrapper5ImageEEERKNS2_INS3_10DepthImageEEEfENS0_19optional_last_valueIvEEiSt4lessIiENS_8functionISC_EENSH_IFvRKNS0_10connectionES7_SB_fEEENS0_5mutexEED0Ev@Base 1.6
 (optional=templinst)_ZN5boost8signals26signalIFvRKNS_10shared_ptrIN14openni_wrapper5ImageEEERKNS2_INS3_10DepthImageEEEfENS0_19optional_last_valueIvEEiSt4lessIiENS_8functionISC_EENSH_IFvRKNS0_10connectionES7_SB_fEEENS0_5mutexEED1Ev@Base 1.6
 (optional=templinst)_ZN5boost8signals26signalIFvRKNS_10shared_ptrIN14openni_wrapper5ImageEEERKNS2_INS3_10DepthImageEEEfENS0_19optional_last_valueIvEEiSt4lessIiENS_8functionISC_EENSH_IFvRKNS0_10connectionES7_SB_fEEENS0_5mutexEED2Ev@Base 1.6
 (optional=templinst)_ZN5boost8signals26signalIFvRKNS_10shared_ptrIN14openni_wrapper7IRImageEEEENS0_19optional_last_valueIvEEiSt4lessIiENS_8functionIS8_EENSD_IFvRKNS0_10connectionES7_EEENS0_5mutexEED0Ev@Base 1.6
 (optional=templinst)_ZN5boost8signals26signalIFvRKNS_10shared_ptrIN14openni_wrapper7IRImageEEEENS0_19optional_last_valueIvEEiSt4lessIiENS_8functionIS8_EENSD_IFvRKNS0_10connectionES7_EEENS0_5mutexEED1Ev@Base 1.6
 (optional=templinst)_ZN5boost8signals26signalIFvRKNS_10shared_ptrIN14openni_wrapper7IRImageEEEENS0_19optional_last_valueIvEEiSt4lessIiENS_8functionIS8_EENSD_IFvRKNS0_10connectionES7_EEENS0_5mutexEED2Ev@Base 1.6
 (optional=templinst)_ZN5boost8signals26signalIFvRKNS_10shared_ptrIN14openni_wrapper7IRImageEEERKNS2_INS3_10DepthImageEEEfENS0_19optional_last_valueIvEEiSt4lessIiENS_8functionISC_EENSH_IFvRKNS0_10connectionES7_SB_fEEENS0_5mutexEED0Ev@Base 1.6
 (optional=templinst)_ZN5boost8signals26signalIFvRKNS_10shared_ptrIN14openni_wrapper7IRImageEEERKNS2_INS3_10DepthImageEEEfENS0_19optional_last_valueIvEEiSt4lessIiENS_8functionISC_EENSH_IFvRKNS0_10connectionES7_SB_fEEENS0_5mutexEED1Ev@Base 1.6
 (optional=templinst)_ZN5boost8signals26signalIFvRKNS_10shared_ptrIN14openni_wrapper7IRImageEEERKNS2_INS3_10DepthImageEEEfENS0_19optional_last_valueIvEEiSt4lessIiENS_8functionISC_EENSH_IFvRKNS0_10connectionES7_SB_fEEENS0_5mutexEED2Ev@Base 1.6
 (optional=templinst)_ZN5boost8signals27signal1IvRKNS_10shared_ptrIKN3pcl10PointCloudIN5Eigen6MatrixIfLin1ELin1ELi0ELin1ELin1EEEEEEENS0_19optional_last_valueIvEEiSt4lessIiENS_8functionIFvSC_EEENSH_IFvRKNS0_10connectionESC_EEENS0_5mutexEEC1ERKSE_RKSG_@Base 1.6
 (optional=templinst)_ZN5boost8signals27signal1IvRKNS_10shared_ptrIKN3pcl10PointCloudIN5Eigen6MatrixIfLin1ELin1ELi0ELin1ELin1EEEEEEENS0_19optional_last_valueIvEEiSt4lessIiENS_8functionIFvSC_EEENSH_IFvRKNS0_10connectionESC_EEENS0_5mutexEEC2ERKSE_RKSG_@Base 1.6
 (optional=templinst)_ZN5boost8signals27signal1IvRKNS_10shared_ptrIKN3pcl10PointCloudIN5Eigen6MatrixIfLin1ELin1ELi0ELin1ELin1EEEEEEENS0_19optional_last_valueIvEEiSt4lessIiENS_8functionIFvSC_EEENSH_IFvRKNS0_10connectionESC_EEENS0_5mutexEED0Ev@Base 1.6
 (optional=templinst)_ZN5boost8signals27signal1IvRKNS_10shared_ptrIKN3pcl10PointCloudIN5Eigen6MatrixIfLin1ELin1ELi0ELin1ELin1EEEEEEENS0_19optional_last_valueIvEEiSt4lessIiENS_8functionIFvSC_EEENSH_IFvRKNS0_10connectionESC_EEENS0_5mutexEED1Ev@Base 1.6
 (optional=templinst)_ZN5boost8signals27signal1IvRKNS_10shared_ptrIKN3pcl10PointCloudIN5Eigen6MatrixIfLin1ELin1ELi0ELin1ELin1EEEEEEENS0_19optional_last_valueIvEEiSt4lessIiENS_8functionIFvSC_EEENSH_IFvRKNS0_10connectionESC_EEENS0_5mutexEED2Ev@Base 1.6
 (optional=templinst)_ZN5boost8signals27signal1IvRKNS_10shared_ptrIKN3pcl10PointCloudINS3_11PointXYZRGBEEEEENS0_19optional_last_valueIvEEiSt4lessIiENS_8functionIFvSA_EEENSF_IFvRKNS0_10connectionESA_EEENS0_5mutexEEC1ERKSC_RKSE_@Base 1.6
 (optional=templinst)_ZN5boost8signals27signal1IvRKNS_10shared_ptrIKN3pcl10PointCloudINS3_11PointXYZRGBEEEEENS0_19optional_last_valueIvEEiSt4lessIiENS_8functionIFvSA_EEENSF_IFvRKNS0_10connectionESA_EEENS0_5mutexEEC2ERKSC_RKSE_@Base 1.6
 (optional=templinst)_ZN5boost8signals27signal1IvRKNS_10shared_ptrIKN3pcl10PointCloudINS3_11PointXYZRGBEEEEENS0_19optional_last_valueIvEEiSt4lessIiENS_8functionIFvSA_EEENSF_IFvRKNS0_10connectionESA_EEENS0_5mutexEED0Ev@Base 1.6
 (optional=templinst)_ZN5boost8signals27signal1IvRKNS_10shared_ptrIKN3pcl10PointCloudINS3_11PointXYZRGBEEEEENS0_19optional_last_valueIvEEiSt4lessIiENS_8functionIFvSA_EEENSF_IFvRKNS0_10connectionESA_EEENS0_5mutexEED1Ev@Base 1.6
 (optional=templinst)_ZN5boost8signals27signal1IvRKNS_10shared_ptrIKN3pcl10PointCloudINS3_11PointXYZRGBEEEEENS0_19optional_last_valueIvEEiSt4lessIiENS_8functionIFvSA_EEENSF_IFvRKNS0_10connectionESA_EEENS0_5mutexEED2Ev@Base 1.6
 (optional=templinst)_ZN5boost8signals27signal1IvRKNS_10shared_ptrIKN3pcl10PointCloudINS3_12PointXYZRGBAEEEEENS0_19optional_last_valueIvEEiSt4lessIiENS_8functionIFvSA_EEENSF_IFvRKNS0_10connectionESA_EEENS0_5mutexEEC1ERKSC_RKSE_@Base 1.6
 (optional=templinst)_ZN5boost8signals27signal1IvRKNS_10shared_ptrIKN3pcl10PointCloudINS3_12PointXYZRGBAEEEEENS0_19optional_last_valueIvEEiSt4lessIiENS_8functionIFvSA_EEENSF_IFvRKNS0_10connectionESA_EEENS0_5mutexEEC2ERKSC_RKSE_@Base 1.6
 (optional=templinst)_ZN5boost8signals27signal1IvRKNS_10shared_ptrIKN3pcl10PointCloudINS3_12PointXYZRGBAEEEEENS0_19optional_last_valueIvEEiSt4lessIiENS_8functionIFvSA_EEENSF_IFvRKNS0_10connectionESA_EEENS0_5mutexEED0Ev@Base 1.6
 (optional=templinst)_ZN5boost8signals27signal1IvRKNS_10shared_ptrIKN3pcl10PointCloudINS3_12PointXYZRGBAEEEEENS0_19optional_last_valueIvEEiSt4lessIiENS_8functionIFvSA_EEENSF_IFvRKNS0_10connectionESA_EEENS0_5mutexEED1Ev@Base 1.6
 (optional=templinst)_ZN5boost8signals27signal1IvRKNS_10shared_ptrIKN3pcl10PointCloudINS3_12PointXYZRGBAEEEEENS0_19optional_last_valueIvEEiSt4lessIiENS_8functionIFvSA_EEENSF_IFvRKNS0_10connectionESA_EEENS0_5mutexEED2Ev@Base 1.6
 (optional=templinst)_ZN5boost8signals27signal1IvRKNS_10shared_ptrIKN3pcl10PointCloudINS3_8PointXYZEEEEENS0_19optional_last_valueIvEEiSt4lessIiENS_8functionIFvSA_EEENSF_IFvRKNS0_10connectionESA_EEENS0_5mutexEEC1ERKSC_RKSE_@Base 1.6
 (optional=templinst)_ZN5boost8signals27signal1IvRKNS_10shared_ptrIKN3pcl10PointCloudINS3_8PointXYZEEEEENS0_19optional_last_valueIvEEiSt4lessIiENS_8functionIFvSA_EEENSF_IFvRKNS0_10connectionESA_EEENS0_5mutexEEC2ERKSC_RKSE_@Base 1.6
 (optional=templinst)_ZN5boost8signals27signal1IvRKNS_10shared_ptrIKN3pcl10PointCloudINS3_8PointXYZEEEEENS0_19optional_last_valueIvEEiSt4lessIiENS_8functionIFvSA_EEENSF_IFvRKNS0_10connectionESA_EEENS0_5mutexEED0Ev@Base 1.6
 (optional=templinst)_ZN5boost8signals27signal1IvRKNS_10shared_ptrIKN3pcl10PointCloudINS3_8PointXYZEEEEENS0_19optional_last_valueIvEEiSt4lessIiENS_8functionIFvSA_EEENSF_IFvRKNS0_10connectionESA_EEENS0_5mutexEED1Ev@Base 1.6
 (optional=templinst)_ZN5boost8signals27signal1IvRKNS_10shared_ptrIKN3pcl10PointCloudINS3_8PointXYZEEEEENS0_19optional_last_valueIvEEiSt4lessIiENS_8functionIFvSA_EEENSF_IFvRKNS0_10connectionESA_EEENS0_5mutexEED2Ev@Base 1.6
 (optional=templinst)_ZN5boost8signals27signal1IvRKNS_10shared_ptrIKN3pcl10PointCloudINS3_9PointXYZIEEEEENS0_19optional_last_valueIvEEiSt4lessIiENS_8functionIFvSA_EEENSF_IFvRKNS0_10connectionESA_EEENS0_5mutexEEC1ERKSC_RKSE_@Base 1.6
 (optional=templinst)_ZN5boost8signals27signal1IvRKNS_10shared_ptrIKN3pcl10PointCloudINS3_9PointXYZIEEEEENS0_19optional_last_valueIvEEiSt4lessIiENS_8functionIFvSA_EEENSF_IFvRKNS0_10connectionESA_EEENS0_5mutexEEC2ERKSC_RKSE_@Base 1.6
 (optional=templinst)_ZN5boost8signals27signal1IvRKNS_10shared_ptrIKN3pcl10PointCloudINS3_9PointXYZIEEEEENS0_19optional_last_valueIvEEiSt4lessIiENS_8functionIFvSA_EEENSF_IFvRKNS0_10connectionESA_EEENS0_5mutexEED0Ev@Base 1.6
 (optional=templinst)_ZN5boost8signals27signal1IvRKNS_10shared_ptrIKN3pcl10PointCloudINS3_9PointXYZIEEEEENS0_19optional_last_valueIvEEiSt4lessIiENS_8functionIFvSA_EEENSF_IFvRKNS0_10connectionESA_EEENS0_5mutexEED1Ev@Base 1.6
 (optional=templinst)_ZN5boost8signals27signal1IvRKNS_10shared_ptrIKN3pcl10PointCloudINS3_9PointXYZIEEEEENS0_19optional_last_valueIvEEiSt4lessIiENS_8functionIFvSA_EEENSF_IFvRKNS0_10connectionESA_EEENS0_5mutexEED2Ev@Base 1.6
 (optional=templinst)_ZN5boost8signals27signal1IvRKNS_10shared_ptrIN14openni_wrapper10DepthImageEEENS0_19optional_last_valueIvEEiSt4lessIiENS_8functionIFvS7_EEENSC_IFvRKNS0_10connectionES7_EEENS0_5mutexEEC1ERKS9_RKSB_@Base 1.6
 (optional=templinst)_ZN5boost8signals27signal1IvRKNS_10shared_ptrIN14openni_wrapper10DepthImageEEENS0_19optional_last_valueIvEEiSt4lessIiENS_8functionIFvS7_EEENSC_IFvRKNS0_10connectionES7_EEENS0_5mutexEEC2ERKS9_RKSB_@Base 1.6
 (optional=templinst)_ZN5boost8signals27signal1IvRKNS_10shared_ptrIN14openni_wrapper10DepthImageEEENS0_19optional_last_valueIvEEiSt4lessIiENS_8functionIFvS7_EEENSC_IFvRKNS0_10connectionES7_EEENS0_5mutexEED0Ev@Base 1.6
 (optional=templinst)_ZN5boost8signals27signal1IvRKNS_10shared_ptrIN14openni_wrapper10DepthImageEEENS0_19optional_last_valueIvEEiSt4lessIiENS_8functionIFvS7_EEENSC_IFvRKNS0_10connectionES7_EEENS0_5mutexEED1Ev@Base 1.6
 (optional=templinst)_ZN5boost8signals27signal1IvRKNS_10shared_ptrIN14openni_wrapper10DepthImageEEENS0_19optional_last_valueIvEEiSt4lessIiENS_8functionIFvS7_EEENSC_IFvRKNS0_10connectionES7_EEENS0_5mutexEED2Ev@Base 1.6
 (optional=templinst)_ZN5boost8signals27signal1IvRKNS_10shared_ptrIN14openni_wrapper5ImageEEENS0_19optional_last_valueIvEEiSt4lessIiENS_8functionIFvS7_EEENSC_IFvRKNS0_10connectionES7_EEENS0_5mutexEEC1ERKS9_RKSB_@Base 1.6
 (optional=templinst)_ZN5boost8signals27signal1IvRKNS_10shared_ptrIN14openni_wrapper5ImageEEENS0_19optional_last_valueIvEEiSt4lessIiENS_8functionIFvS7_EEENSC_IFvRKNS0_10connectionES7_EEENS0_5mutexEEC2ERKS9_RKSB_@Base 1.6
 (optional=templinst)_ZN5boost8signals27signal1IvRKNS_10shared_ptrIN14openni_wrapper5ImageEEENS0_19optional_last_valueIvEEiSt4lessIiENS_8functionIFvS7_EEENSC_IFvRKNS0_10connectionES7_EEENS0_5mutexEED0Ev@Base 1.6
 (optional=templinst)_ZN5boost8signals27signal1IvRKNS_10shared_ptrIN14openni_wrapper5ImageEEENS0_19optional_last_valueIvEEiSt4lessIiENS_8functionIFvS7_EEENSC_IFvRKNS0_10connectionES7_EEENS0_5mutexEED1Ev@Base 1.6
 (optional=templinst)_ZN5boost8signals27signal1IvRKNS_10shared_ptrIN14openni_wrapper5ImageEEENS0_19optional_last_valueIvEEiSt4lessIiENS_8functionIFvS7_EEENSC_IFvRKNS0_10connectionES7_EEENS0_5mutexEED2Ev@Base 1.6
 (optional=templinst)_ZN5boost8signals27signal1IvRKNS_10shared_ptrIN14openni_wrapper7IRImageEEENS0_19optional_last_valueIvEEiSt4lessIiENS_8functionIFvS7_EEENSC_IFvRKNS0_10connectionES7_EEENS0_5mutexEEC1ERKS9_RKSB_@Base 1.6
 (optional=templinst)_ZN5boost8signals27signal1IvRKNS_10shared_ptrIN14openni_wrapper7IRImageEEENS0_19optional_last_valueIvEEiSt4lessIiENS_8functionIFvS7_EEENSC_IFvRKNS0_10connectionES7_EEENS0_5mutexEEC2ERKS9_RKSB_@Base 1.6
 (optional=templinst)_ZN5boost8signals27signal1IvRKNS_10shared_ptrIN14openni_wrapper7IRImageEEENS0_19optional_last_valueIvEEiSt4lessIiENS_8functionIFvS7_EEENSC_IFvRKNS0_10connectionES7_EEENS0_5mutexEED0Ev@Base 1.6
 (optional=templinst)_ZN5boost8signals27signal1IvRKNS_10shared_ptrIN14openni_wrapper7IRImageEEENS0_19optional_last_valueIvEEiSt4lessIiENS_8functionIFvS7_EEENSC_IFvRKNS0_10connectionES7_EEENS0_5mutexEED1Ev@Base 1.6
 (optional=templinst)_ZN5boost8signals27signal1IvRKNS_10shared_ptrIN14openni_wrapper7IRImageEEENS0_19optional_last_valueIvEEiSt4lessIiENS_8functionIFvS7_EEENSC_IFvRKNS0_10connectionES7_EEENS0_5mutexEED2Ev@Base 1.6
 (optional=templinst)_ZN5boost8signals27signal3IvRKNS_10shared_ptrIN14openni_wrapper5ImageEEERKNS2_INS3_10DepthImageEEEfNS0_19optional_last_valueIvEEiSt4lessIiENS_8functionIFvS7_SB_fEEENSG_IFvRKNS0_10connectionES7_SB_fEEENS0_5mutexEEC1ERKSD_RKSF_@Base 1.6
 (optional=templinst)_ZN5boost8signals27signal3IvRKNS_10shared_ptrIN14openni_wrapper5ImageEEERKNS2_INS3_10DepthImageEEEfNS0_19optional_last_valueIvEEiSt4lessIiENS_8functionIFvS7_SB_fEEENSG_IFvRKNS0_10connectionES7_SB_fEEENS0_5mutexEEC2ERKSD_RKSF_@Base 1.6
 (optional=templinst)_ZN5boost8signals27signal3IvRKNS_10shared_ptrIN14openni_wrapper5ImageEEERKNS2_INS3_10DepthImageEEEfNS0_19optional_last_valueIvEEiSt4lessIiENS_8functionIFvS7_SB_fEEENSG_IFvRKNS0_10connectionES7_SB_fEEENS0_5mutexEED0Ev@Base 1.6
 (optional=templinst)_ZN5boost8signals27signal3IvRKNS_10shared_ptrIN14openni_wrapper5ImageEEERKNS2_INS3_10DepthImageEEEfNS0_19optional_last_valueIvEEiSt4lessIiENS_8functionIFvS7_SB_fEEENSG_IFvRKNS0_10connectionES7_SB_fEEENS0_5mutexEED1Ev@Base 1.6
 (optional=templinst)_ZN5boost8signals27signal3IvRKNS_10shared_ptrIN14openni_wrapper5ImageEEERKNS2_INS3_10DepthImageEEEfNS0_19optional_last_valueIvEEiSt4lessIiENS_8functionIFvS7_SB_fEEENSG_IFvRKNS0_10connectionES7_SB_fEEENS0_5mutexEED2Ev@Base 1.6
 (optional=templinst)_ZN5boost8signals27signal3IvRKNS_10shared_ptrIN14openni_wrapper7IRImageEEERKNS2_INS3_10DepthImageEEEfNS0_19optional_last_valueIvEEiSt4lessIiENS_8functionIFvS7_SB_fEEENSG_IFvRKNS0_10connectionES7_SB_fEEENS0_5mutexEEC1ERKSD_RKSF_@Base 1.6
 (optional=templinst)_ZN5boost8signals27signal3IvRKNS_10shared_ptrIN14openni_wrapper7IRImageEEERKNS2_INS3_10DepthImageEEEfNS0_19optional_last_valueIvEEiSt4lessIiENS_8functionIFvS7_SB_fEEENSG_IFvRKNS0_10connectionES7_SB_fEEENS0_5mutexEEC2ERKSD_RKSF_@Base 1.6
 (optional=templinst)_ZN5boost8signals27signal3IvRKNS_10shared_ptrIN14openni_wrapper7IRImageEEERKNS2_INS3_10DepthImageEEEfNS0_19optional_last_valueIvEEiSt4lessIiENS_8functionIFvS7_SB_fEEENSG_IFvRKNS0_10connectionES7_SB_fEEENS0_5mutexEED0Ev@Base 1.6
 (optional=templinst)_ZN5boost8signals27signal3IvRKNS_10shared_ptrIN14openni_wrapper7IRImageEEERKNS2_INS3_10DepthImageEEEfNS0_19optional_last_valueIvEEiSt4lessIiENS_8functionIFvS7_SB_fEEENSG_IFvRKNS0_10connectionES7_SB_fEEENS0_5mutexEED1Ev@Base 1.6
 (optional=templinst)_ZN5boost8signals27signal3IvRKNS_10shared_ptrIN14openni_wrapper7IRImageEEERKNS2_INS3_10DepthImageEEEfNS0_19optional_last_valueIvEEiSt4lessIiENS_8functionIFvS7_SB_fEEENSG_IFvRKNS0_10connectionES7_SB_fEEENS0_5mutexEED2Ev@Base 1.6
 (optional=templinst)_ZN5boost8weak_ptrIN14openni_wrapper12OpenNIDeviceEEaSIS2_EERS3_RKNS_10shared_ptrIT_EE@Base 1.6
 (optional=templinst)_ZN5boost8weak_ptrINS_8signals26detail20connection_body_baseEED1Ev@Base 1.6
 (optional=templinst)_ZN5boost8weak_ptrINS_8signals26detail20connection_body_baseEED2Ev@Base 1.6
 (optional=templinst)_ZN5boost9algorithm10iter_splitISt6vectorISsSaISsEEKSsNS0_6detail13token_finderFINS6_10is_any_ofFIcEEEEEERT_SC_RT0_T1_@Base 1.6
 (optional=templinst)_ZN5boost9algorithm10iter_splitISt6vectorISsSaISsEESsNS0_6detail13token_finderFINS5_10is_any_ofFIcEEEEEERT_SB_RT0_T1_@Base 1.6
 (optional=templinst)_ZN5boost9algorithm12token_finderINS0_6detail10is_any_ofFIcEEEENS2_13token_finderFIT_EES6_NS0_24token_compress_mode_typeE@Base 1.6
 (optional=templinst)_ZN5boost9algorithm12trim_left_ifISsNS0_6detail14is_classifiedFEEEvRT_T0_@Base 1.6
 (optional=templinst)_ZN5boost9algorithm13trim_right_ifISsNS0_6detail14is_classifiedFEEEvRT_T0_@Base 1.6
 (optional=templinst)_ZN5boost9algorithm14split_iteratorIN9__gnu_cxx17__normal_iteratorIPKcSsEEE9incrementEv@Base 1.6
 (optional=templinst)_ZN5boost9algorithm14split_iteratorIN9__gnu_cxx17__normal_iteratorIPKcSsEEEC1INS0_6detail13token_finderFINS9_10is_any_ofFIcEEEEEES6_S6_T_@Base 1.6
 (optional=templinst)_ZN5boost9algorithm14split_iteratorIN9__gnu_cxx17__normal_iteratorIPKcSsEEEC2INS0_6detail13token_finderFINS9_10is_any_ofFIcEEEEEES6_S6_T_@Base 1.6
 (optional=templinst)_ZN5boost9algorithm14split_iteratorIN9__gnu_cxx17__normal_iteratorIPKcSsEEED1Ev@Base 1.6
 (optional=templinst)_ZN5boost9algorithm14split_iteratorIN9__gnu_cxx17__normal_iteratorIPKcSsEEED2Ev@Base 1.6
 (optional=templinst)_ZN5boost9algorithm14split_iteratorIN9__gnu_cxx17__normal_iteratorIPcSsEEE9incrementEv@Base 1.6
 (optional=templinst)_ZN5boost9algorithm14split_iteratorIN9__gnu_cxx17__normal_iteratorIPcSsEEEC1INS0_6detail13token_finderFINS8_10is_any_ofFIcEEEEEES5_S5_T_@Base 1.6
 (optional=templinst)_ZN5boost9algorithm14split_iteratorIN9__gnu_cxx17__normal_iteratorIPcSsEEEC2INS0_6detail13token_finderFINS8_10is_any_ofFIcEEEEEES5_S5_T_@Base 1.6
 (optional=templinst)_ZN5boost9algorithm14split_iteratorIN9__gnu_cxx17__normal_iteratorIPcSsEEED1Ev@Base 1.6
 (optional=templinst)_ZN5boost9algorithm14split_iteratorIN9__gnu_cxx17__normal_iteratorIPcSsEEED2Ev@Base 1.6
 (optional=templinst)_ZN5boost9algorithm4trimISsEEvRT_RKSt6locale@Base 1.6
 (optional=templinst)_ZN5boost9algorithm5splitISt6vectorISsSaISsEEKSsNS0_6detail10is_any_ofFIcEEEERT_SA_RT0_T1_NS0_24token_compress_mode_typeE@Base 1.6
 (optional=templinst)_ZN5boost9algorithm5splitISt6vectorISsSaISsEESsNS0_6detail10is_any_ofFIcEEEERT_S9_RT0_T1_NS0_24token_compress_mode_typeE@Base 1.6
 (optional=templinst)_ZN5boost9algorithm6detail10is_any_ofFIcEC1ERKS3_@Base 1.6
 (optional=templinst)_ZN5boost9algorithm6detail10is_any_ofFIcEC1INS_14iterator_rangeIN9__gnu_cxx17__normal_iteratorIPKcSsEEEEEERKT_@Base 1.6
 (optional=templinst)_ZN5boost9algorithm6detail10is_any_ofFIcEC1INS_14iterator_rangeIPKcEEEERKT_@Base 1.6
 (optional=templinst)_ZN5boost9algorithm6detail10is_any_ofFIcEC2ERKS3_@Base 1.6
 (optional=templinst)_ZN5boost9algorithm6detail10is_any_ofFIcEC2INS_14iterator_rangeIN9__gnu_cxx17__normal_iteratorIPKcSsEEEEEERKT_@Base 1.6
 (optional=templinst)_ZN5boost9algorithm6detail10is_any_ofFIcEC2INS_14iterator_rangeIPKcEEEERKT_@Base 1.6
 (optional=templinst)_ZN5boost9algorithm6detail10is_any_ofFIcED1Ev@Base 1.6
 (optional=templinst)_ZN5boost9algorithm6detail10is_any_ofFIcED2Ev@Base 1.6
 (optional=templinst)_ZN5boost9algorithm6detail13token_finderFINS1_10is_any_ofFIcEEED1Ev@Base 1.6
 (optional=templinst)_ZN5boost9algorithm6detail13token_finderFINS1_10is_any_ofFIcEEED2Ev@Base 1.6
 _ZN5boost9algorithm6detail14is_classifiedFD1Ev@Base 1.6
 _ZN5boost9algorithm6detail14is_classifiedFD2Ev@Base 1.6
 (optional=templinst)_ZN5boost9algorithm6detail18find_iterator_baseIN9__gnu_cxx17__normal_iteratorIPKcSsEEEC1INS1_13token_finderFINS1_10is_any_ofFIcEEEEEET_i@Base 1.6
 (optional=templinst)_ZN5boost9algorithm6detail18find_iterator_baseIN9__gnu_cxx17__normal_iteratorIPKcSsEEEC2INS1_13token_finderFINS1_10is_any_ofFIcEEEEEET_i@Base 1.6
 (optional=templinst)_ZN5boost9algorithm6detail18find_iterator_baseIN9__gnu_cxx17__normal_iteratorIPcSsEEEC1INS1_13token_finderFINS1_10is_any_ofFIcEEEEEET_i@Base 1.6
 (optional=templinst)_ZN5boost9algorithm6detail18find_iterator_baseIN9__gnu_cxx17__normal_iteratorIPcSsEEEC2INS1_13token_finderFINS1_10is_any_ofFIcEEEEEET_i@Base 1.6
 (optional=templinst)_ZN5boost9algorithm6detail8trim_endIN9__gnu_cxx17__normal_iteratorIPcSsEENS1_14is_classifiedFEEET_S8_S8_T0_@Base 1.6
 (optional=templinst)_ZN5boost9algorithm7trim_ifISsNS0_6detail14is_classifiedFEEEvRT_T0_@Base 1.6
 (optional=templinst)_ZN5boost9date_time14microsec_clockINS_10posix_time5ptimeEE11create_timeEPFP2tmPKlS6_E@Base 1.6
 (optional=templinst)_ZN5boost9date_time16counted_time_repINS_10posix_time33millisec_posix_time_system_configEEC1ERKNS_9gregorian4dateERKNS2_13time_durationE@Base 1.6
 (optional=templinst)_ZN5boost9date_time16counted_time_repINS_10posix_time33millisec_posix_time_system_configEEC2ERKNS_9gregorian4dateERKNS2_13time_durationE@Base 1.6
 (optional=templinst)_ZN5boost9date_time19counted_time_systemINS0_16counted_time_repINS_10posix_time33millisec_posix_time_system_configEEEE17add_time_durationERKS5_NS3_13time_durationE@Base 1.6
 (optional=templinst)_ZN5boost9date_time22time_resolution_traitsINS0_37time_resolution_traits_adapted64_implELNS0_16time_resolutionsE5ELl1000000ELt6EiE13to_tick_countEiiil@Base 1.6
 (optional=templinst)_ZN5boost9date_time23gregorian_calendar_baseINS0_19year_month_day_baseINS_9gregorian9greg_yearENS3_10greg_monthENS3_8greg_dayEEEjE10day_numberERKS7_@Base 1.6
 (optional=templinst)_ZN5boost9date_time23gregorian_calendar_baseINS0_19year_month_day_baseINS_9gregorian9greg_yearENS3_10greg_monthENS3_8greg_dayEEEjE16end_of_month_dayES4_S5_@Base 1.6
 _ZN5boost9date_time6c_time6gmtimeEPKlP2tm@Base 1.6
 _ZN5boost9exceptionD0Ev@Base 1.6
 _ZN5boost9exceptionD1Ev@Base 1.6
 _ZN5boost9exceptionD2Ev@Base 1.6
 (optional=templinst)_ZN5boost9function0IbE11move_assignERS1_@Base 1.6
 (optional=templinst)_ZN5boost9function0IbE4swapERS1_@Base 1.6
 (optional=templinst)_ZN5boost9function0IbE5clearEv@Base 1.6
 (optional=templinst)_ZN5boost9function0IvE5clearEv@Base 1.6
 (optional=templinst)_ZN5boost9function0IvE9assign_toINS_3_bi6bind_tIvNS_4_mfi3mf0IvN3pcl9PLYReaderEEENS3_5list1INS3_5valueIPS8_EEEEEEEEvT_@Base 1.6
 (optional=templinst)_ZN5boost9function1IvNS_10shared_ptrIN14openni_wrapper10DepthImageEEEE11move_assignERS5_@Base 1.6
 (optional=templinst)_ZN5boost9function1IvNS_10shared_ptrIN14openni_wrapper10DepthImageEEEE13assign_to_ownERKS5_@Base 1.6
 (optional=templinst)_ZN5boost9function1IvNS_10shared_ptrIN14openni_wrapper10DepthImageEEEE4swapERS5_@Base 1.6
 (optional=templinst)_ZN5boost9function1IvNS_10shared_ptrIN14openni_wrapper10DepthImageEEEE5clearEv@Base 1.6
 (optional=templinst)_ZN5boost9function1IvNS_10shared_ptrIN14openni_wrapper10DepthImageEEEE9assign_toINS_3_bi6bind_tINS7_11unspecifiedENS_8functionIFvS4_PvEEENS7_5list2INS_3argILi1EEENS7_5valueISB_EEEEEEEEvT_@Base 1.6
 (optional=templinst)_ZN5boost9function1IvNS_10shared_ptrIN14openni_wrapper10DepthImageEEEE9assign_toINS_3_bi6bind_tIvNS_4_mfi3mf2IvN3pcl10ONIGrabberES4_PvEENS7_5list3INS_17reference_wrapperISC_EENS_3argILi1EEENS7_5valueISD_EEEEEEEEvT_@Base 1.6
 (optional=templinst)_ZN5boost9function1IvNS_10shared_ptrIN14openni_wrapper10DepthImageEEEE9assign_toINS_3_bi6bind_tIvNS_4_mfi3mf2IvN3pcl13OpenNIGrabberES4_PvEENS7_5list3INS_17reference_wrapperISC_EENS_3argILi1EEENS7_5valueISD_EEEEEEEEvT_@Base 1.6
 (optional=templinst)_ZN5boost9function1IvNS_10shared_ptrIN14openni_wrapper10DepthImageEEEEC1INS_3_bi6bind_tINS7_11unspecifiedENS_8functionIFvS4_PvEEENS7_5list2INS_3argILi1EEENS7_5valueISB_EEEEEEEET_NS_11enable_if_cIXsrNS_11type_traits7ice_notIXsrNS_11is_integralISL_EE5valueEEE5valueEiE4typeE@Base 1.6
 (optional=templinst)_ZN5boost9function1IvNS_10shared_ptrIN14openni_wrapper10DepthImageEEEEC2INS_3_bi6bind_tINS7_11unspecifiedENS_8functionIFvS4_PvEEENS7_5list2INS_3argILi1EEENS7_5valueISB_EEEEEEEET_NS_11enable_if_cIXsrNS_11type_traits7ice_notIXsrNS_11is_integralISL_EE5valueEEE5valueEiE4typeE@Base 1.6
 (optional=templinst)_ZN5boost9function1IvNS_10shared_ptrIN14openni_wrapper5ImageEEEE11move_assignERS5_@Base 1.6
 (optional=templinst)_ZN5boost9function1IvNS_10shared_ptrIN14openni_wrapper5ImageEEEE13assign_to_ownERKS5_@Base 1.6
 (optional=templinst)_ZN5boost9function1IvNS_10shared_ptrIN14openni_wrapper5ImageEEEE4swapERS5_@Base 1.6
 (optional=templinst)_ZN5boost9function1IvNS_10shared_ptrIN14openni_wrapper5ImageEEEE5clearEv@Base 1.6
 (optional=templinst)_ZN5boost9function1IvNS_10shared_ptrIN14openni_wrapper5ImageEEEE9assign_toINS_3_bi6bind_tINS7_11unspecifiedENS_8functionIFvS4_PvEEENS7_5list2INS_3argILi1EEENS7_5valueISB_EEEEEEEEvT_@Base 1.6
 (optional=templinst)_ZN5boost9function1IvNS_10shared_ptrIN14openni_wrapper5ImageEEEE9assign_toINS_3_bi6bind_tIvNS_4_mfi3mf2IvN3pcl10ONIGrabberES4_PvEENS7_5list3INS_17reference_wrapperISC_EENS_3argILi1EEENS7_5valueISD_EEEEEEEEvT_@Base 1.6
 (optional=templinst)_ZN5boost9function1IvNS_10shared_ptrIN14openni_wrapper5ImageEEEE9assign_toINS_3_bi6bind_tIvNS_4_mfi3mf2IvN3pcl13OpenNIGrabberES4_PvEENS7_5list3INS_17reference_wrapperISC_EENS_3argILi1EEENS7_5valueISD_EEEEEEEEvT_@Base 1.6
 (optional=templinst)_ZN5boost9function1IvNS_10shared_ptrIN14openni_wrapper5ImageEEEEC1INS_3_bi6bind_tINS7_11unspecifiedENS_8functionIFvS4_PvEEENS7_5list2INS_3argILi1EEENS7_5valueISB_EEEEEEEET_NS_11enable_if_cIXsrNS_11type_traits7ice_notIXsrNS_11is_integralISL_EE5valueEEE5valueEiE4typeE@Base 1.6
 (optional=templinst)_ZN5boost9function1IvNS_10shared_ptrIN14openni_wrapper5ImageEEEEC2INS_3_bi6bind_tINS7_11unspecifiedENS_8functionIFvS4_PvEEENS7_5list2INS_3argILi1EEENS7_5valueISB_EEEEEEEET_NS_11enable_if_cIXsrNS_11type_traits7ice_notIXsrNS_11is_integralISL_EE5valueEEE5valueEiE4typeE@Base 1.6
 (optional=templinst)_ZN5boost9function1IvNS_10shared_ptrIN14openni_wrapper7IRImageEEEE11move_assignERS5_@Base 1.6
 (optional=templinst)_ZN5boost9function1IvNS_10shared_ptrIN14openni_wrapper7IRImageEEEE13assign_to_ownERKS5_@Base 1.6
 (optional=templinst)_ZN5boost9function1IvNS_10shared_ptrIN14openni_wrapper7IRImageEEEE4swapERS5_@Base 1.6
 (optional=templinst)_ZN5boost9function1IvNS_10shared_ptrIN14openni_wrapper7IRImageEEEE5clearEv@Base 1.6
 (optional=templinst)_ZN5boost9function1IvNS_10shared_ptrIN14openni_wrapper7IRImageEEEE9assign_toINS_3_bi6bind_tINS7_11unspecifiedENS_8functionIFvS4_PvEEENS7_5list2INS_3argILi1EEENS7_5valueISB_EEEEEEEEvT_@Base 1.6
 (optional=templinst)_ZN5boost9function1IvNS_10shared_ptrIN14openni_wrapper7IRImageEEEE9assign_toINS_3_bi6bind_tIvNS_4_mfi3mf2IvN3pcl10ONIGrabberES4_PvEENS7_5list3INS_17reference_wrapperISC_EENS_3argILi1EEENS7_5valueISD_EEEEEEEEvT_@Base 1.6
 (optional=templinst)_ZN5boost9function1IvNS_10shared_ptrIN14openni_wrapper7IRImageEEEE9assign_toINS_3_bi6bind_tIvNS_4_mfi3mf2IvN3pcl13OpenNIGrabberES4_PvEENS7_5list3INS_17reference_wrapperISC_EENS_3argILi1EEENS7_5valueISD_EEEEEEEEvT_@Base 1.6
 (optional=templinst)_ZN5boost9function1IvNS_10shared_ptrIN14openni_wrapper7IRImageEEEEC1INS_3_bi6bind_tINS7_11unspecifiedENS_8functionIFvS4_PvEEENS7_5list2INS_3argILi1EEENS7_5valueISB_EEEEEEEET_NS_11enable_if_cIXsrNS_11type_traits7ice_notIXsrNS_11is_integralISL_EE5valueEEE5valueEiE4typeE@Base 1.6
 (optional=templinst)_ZN5boost9function1IvNS_10shared_ptrIN14openni_wrapper7IRImageEEEEC2INS_3_bi6bind_tINS7_11unspecifiedENS_8functionIFvS4_PvEEENS7_5list2INS_3argILi1EEENS7_5valueISB_EEEEEEEET_NS_11enable_if_cIXsrNS_11type_traits7ice_notIXsrNS_11is_integralISL_EE5valueEEE5valueEiE4typeE@Base 1.6
 (optional=templinst)_ZN5boost9function1IvRKSsE5clearEv@Base 1.6
 (optional=templinst)_ZN5boost9function1IvhE5clearEv@Base 1.6
 (optional=templinst)_ZN5boost9function1IvhE9assign_toINS_3_bi6bind_tIvNS_4_mfi3mf1IvN3pcl9PLYReaderEhEENS3_5list2INS3_5valueIPS8_EENS_3argILi1EEEEEEEEEvT_@Base 1.6
 (optional=templinst)_ZN5boost9function1IvhE9assign_toINS_3_bi6bind_tIvNS_4_mfi3mf2IvN3pcl9PLYReaderERKSshEENS3_5list3INS3_5valueIPS8_EENSD_ISsEENS_3argILi1EEEEEEEEEvT_@Base 1.6
 (optional=templinst)_ZN5boost9function1IvhEC1INS_3_bi6bind_tIvNS_4_mfi3mf2IvN3pcl9PLYReaderERKSshEENS3_5list3INS3_5valueIPS8_EENSD_ISsEENS_3argILi1EEEEEEEEET_NS_11enable_if_cIXsrNS_11type_traits7ice_notIXsrNS_11is_integralISL_EE5valueEEE5valueEiE4typeE@Base 1.6
 (optional=templinst)_ZN5boost9function1IvhEC2INS_3_bi6bind_tIvNS_4_mfi3mf2IvN3pcl9PLYReaderERKSshEENS3_5list3INS3_5valueIPS8_EENSD_ISsEENS_3argILi1EEEEEEEEET_NS_11enable_if_cIXsrNS_11type_traits7ice_notIXsrNS_11is_integralISL_EE5valueEEE5valueEiE4typeE@Base 1.6
 (optional=templinst)_ZN5boost9function1IviE5clearEv@Base 1.6
 (optional=templinst)_ZN5boost9function1IviE9assign_toINS_3_bi6bind_tIvNS_4_mfi3mf1IvN3pcl9PLYReaderEiEENS3_5list2INS3_5valueIPS8_EENS_3argILi1EEEEEEEEEvT_@Base 1.6
 (optional=templinst)_ZN5boost9function2INS_14iterator_rangeIN9__gnu_cxx17__normal_iteratorIPKcSsEEEES6_S6_E5clearEv@Base 1.6
 (optional=templinst)_ZN5boost9function2INS_14iterator_rangeIN9__gnu_cxx17__normal_iteratorIPKcSsEEEES6_S6_E9assign_toINS_9algorithm6detail13token_finderFINSB_10is_any_ofFIcEEEEEEvT_@Base 1.6
 (optional=templinst)_ZN5boost9function2INS_14iterator_rangeIN9__gnu_cxx17__normal_iteratorIPKcSsEEEES6_S6_EC1INS_9algorithm6detail13token_finderFINSB_10is_any_ofFIcEEEEEET_NS_11enable_if_cIXsrNS_11type_traits7ice_notIXsrNS_11is_integralISG_EE5valueEEE5valueEiE4typeE@Base 1.6
 (optional=templinst)_ZN5boost9function2INS_14iterator_rangeIN9__gnu_cxx17__normal_iteratorIPKcSsEEEES6_S6_EC2INS_9algorithm6detail13token_finderFINSB_10is_any_ofFIcEEEEEET_NS_11enable_if_cIXsrNS_11type_traits7ice_notIXsrNS_11is_integralISG_EE5valueEEE5valueEiE4typeE@Base 1.6
 (optional=templinst)_ZN5boost9function2INS_14iterator_rangeIN9__gnu_cxx17__normal_iteratorIPcSsEEEES5_S5_E13assign_to_ownERKS7_@Base 1.6
 (optional=templinst)_ZN5boost9function2INS_14iterator_rangeIN9__gnu_cxx17__normal_iteratorIPcSsEEEES5_S5_E5clearEv@Base 1.6
 (optional=templinst)_ZN5boost9function2INS_14iterator_rangeIN9__gnu_cxx17__normal_iteratorIPcSsEEEES5_S5_E9assign_toINS_9algorithm6detail13token_finderFINSA_10is_any_ofFIcEEEEEEvT_@Base 1.6
 (optional=templinst)_ZN5boost9function2INS_14iterator_rangeIN9__gnu_cxx17__normal_iteratorIPcSsEEEES5_S5_EC1INS_9algorithm6detail13token_finderFINSA_10is_any_ofFIcEEEEEET_NS_11enable_if_cIXsrNS_11type_traits7ice_notIXsrNS_11is_integralISF_EE5valueEEE5valueEiE4typeE@Base 1.6
 (optional=templinst)_ZN5boost9function2INS_14iterator_rangeIN9__gnu_cxx17__normal_iteratorIPcSsEEEES5_S5_EC2INS_9algorithm6detail13token_finderFINSA_10is_any_ofFIcEEEEEET_NS_11enable_if_cIXsrNS_11type_traits7ice_notIXsrNS_11is_integralISF_EE5valueEEE5valueEiE4typeE@Base 1.6
 (optional=templinst)_ZN5boost9function2INS_6tuples5tupleINS_8functionIFvhEEENS3_IFvaEEENS3_IFvvEEENS1_9null_typeESA_SA_SA_SA_SA_SA_EERKSsSD_E11move_assignERSE_@Base 1.6
 (optional=templinst)_ZN5boost9function2INS_6tuples5tupleINS_8functionIFvhEEENS3_IFvaEEENS3_IFvvEEENS1_9null_typeESA_SA_SA_SA_SA_SA_EERKSsSD_E4swapERSE_@Base 1.6
 (optional=templinst)_ZN5boost9function2INS_6tuples5tupleINS_8functionIFvhEEENS3_IFvaEEENS3_IFvvEEENS1_9null_typeESA_SA_SA_SA_SA_SA_EERKSsSD_E5clearEv@Base 1.6
 (optional=templinst)_ZN5boost9function2INS_6tuples5tupleINS_8functionIFvhEEENS3_IFvdEEENS3_IFvvEEENS1_9null_typeESA_SA_SA_SA_SA_SA_EERKSsSD_E11move_assignERSE_@Base 1.6
 (optional=templinst)_ZN5boost9function2INS_6tuples5tupleINS_8functionIFvhEEENS3_IFvdEEENS3_IFvvEEENS1_9null_typeESA_SA_SA_SA_SA_SA_EERKSsSD_E4swapERSE_@Base 1.6
 (optional=templinst)_ZN5boost9function2INS_6tuples5tupleINS_8functionIFvhEEENS3_IFvdEEENS3_IFvvEEENS1_9null_typeESA_SA_SA_SA_SA_SA_EERKSsSD_E5clearEv@Base 1.6
 (optional=templinst)_ZN5boost9function2INS_6tuples5tupleINS_8functionIFvhEEENS3_IFvfEEENS3_IFvvEEENS1_9null_typeESA_SA_SA_SA_SA_SA_EERKSsSD_E11move_assignERSE_@Base 1.6
 (optional=templinst)_ZN5boost9function2INS_6tuples5tupleINS_8functionIFvhEEENS3_IFvfEEENS3_IFvvEEENS1_9null_typeESA_SA_SA_SA_SA_SA_EERKSsSD_E4swapERSE_@Base 1.6
 (optional=templinst)_ZN5boost9function2INS_6tuples5tupleINS_8functionIFvhEEENS3_IFvfEEENS3_IFvvEEENS1_9null_typeESA_SA_SA_SA_SA_SA_EERKSsSD_E5clearEv@Base 1.6
 (optional=templinst)_ZN5boost9function2INS_6tuples5tupleINS_8functionIFvhEEENS3_IFviEEENS3_IFvvEEENS1_9null_typeESA_SA_SA_SA_SA_SA_EERKSsSD_E11move_assignERSE_@Base 1.6
 (optional=templinst)_ZN5boost9function2INS_6tuples5tupleINS_8functionIFvhEEENS3_IFviEEENS3_IFvvEEENS1_9null_typeESA_SA_SA_SA_SA_SA_EERKSsSD_E4swapERSE_@Base 1.6
 (optional=templinst)_ZN5boost9function2INS_6tuples5tupleINS_8functionIFvhEEENS3_IFviEEENS3_IFvvEEENS1_9null_typeESA_SA_SA_SA_SA_SA_EERKSsSD_E5clearEv@Base 1.6
 (optional=templinst)_ZN5boost9function2INS_6tuples5tupleINS_8functionIFvhEEENS3_IFvjEEENS3_IFvvEEENS1_9null_typeESA_SA_SA_SA_SA_SA_EERKSsSD_E11move_assignERSE_@Base 1.6
 (optional=templinst)_ZN5boost9function2INS_6tuples5tupleINS_8functionIFvhEEENS3_IFvjEEENS3_IFvvEEENS1_9null_typeESA_SA_SA_SA_SA_SA_EERKSsSD_E4swapERSE_@Base 1.6
 (optional=templinst)_ZN5boost9function2INS_6tuples5tupleINS_8functionIFvhEEENS3_IFvjEEENS3_IFvvEEENS1_9null_typeESA_SA_SA_SA_SA_SA_EERKSsSD_E5clearEv@Base 1.6
 (optional=templinst)_ZN5boost9function2INS_6tuples5tupleINS_8functionIFvhEEENS3_IFvsEEENS3_IFvvEEENS1_9null_typeESA_SA_SA_SA_SA_SA_EERKSsSD_E11move_assignERSE_@Base 1.6
 (optional=templinst)_ZN5boost9function2INS_6tuples5tupleINS_8functionIFvhEEENS3_IFvsEEENS3_IFvvEEENS1_9null_typeESA_SA_SA_SA_SA_SA_EERKSsSD_E4swapERSE_@Base 1.6
 (optional=templinst)_ZN5boost9function2INS_6tuples5tupleINS_8functionIFvhEEENS3_IFvsEEENS3_IFvvEEENS1_9null_typeESA_SA_SA_SA_SA_SA_EERKSsSD_E5clearEv@Base 1.6
 (optional=templinst)_ZN5boost9function2INS_6tuples5tupleINS_8functionIFvhEEENS3_IFvtEEENS3_IFvvEEENS1_9null_typeESA_SA_SA_SA_SA_SA_EERKSsSD_E11move_assignERSE_@Base 1.6
 (optional=templinst)_ZN5boost9function2INS_6tuples5tupleINS_8functionIFvhEEENS3_IFvtEEENS3_IFvvEEENS1_9null_typeESA_SA_SA_SA_SA_SA_EERKSsSD_E4swapERSE_@Base 1.6
 (optional=templinst)_ZN5boost9function2INS_6tuples5tupleINS_8functionIFvhEEENS3_IFvtEEENS3_IFvvEEENS1_9null_typeESA_SA_SA_SA_SA_SA_EERKSsSD_E5clearEv@Base 1.6
 (optional=templinst)_ZN5boost9function2INS_6tuples5tupleINS_8functionIFvhEEES5_NS3_IFvvEEENS1_9null_typeES8_S8_S8_S8_S8_S8_EERKSsSB_E11move_assignERSC_@Base 1.6
 (optional=templinst)_ZN5boost9function2INS_6tuples5tupleINS_8functionIFvhEEES5_NS3_IFvvEEENS1_9null_typeES8_S8_S8_S8_S8_S8_EERKSsSB_E4swapERSC_@Base 1.6
 (optional=templinst)_ZN5boost9function2INS_6tuples5tupleINS_8functionIFvhEEES5_NS3_IFvvEEENS1_9null_typeES8_S8_S8_S8_S8_S8_EERKSsSB_E5clearEv@Base 1.6
 (optional=templinst)_ZN5boost9function2INS_6tuples5tupleINS_8functionIFvjEEENS3_IFvaEEENS3_IFvvEEENS1_9null_typeESA_SA_SA_SA_SA_SA_EERKSsSD_E11move_assignERSE_@Base 1.6
 (optional=templinst)_ZN5boost9function2INS_6tuples5tupleINS_8functionIFvjEEENS3_IFvaEEENS3_IFvvEEENS1_9null_typeESA_SA_SA_SA_SA_SA_EERKSsSD_E4swapERSE_@Base 1.6
 (optional=templinst)_ZN5boost9function2INS_6tuples5tupleINS_8functionIFvjEEENS3_IFvaEEENS3_IFvvEEENS1_9null_typeESA_SA_SA_SA_SA_SA_EERKSsSD_E5clearEv@Base 1.6
 (optional=templinst)_ZN5boost9function2INS_6tuples5tupleINS_8functionIFvjEEENS3_IFvdEEENS3_IFvvEEENS1_9null_typeESA_SA_SA_SA_SA_SA_EERKSsSD_E11move_assignERSE_@Base 1.6
 (optional=templinst)_ZN5boost9function2INS_6tuples5tupleINS_8functionIFvjEEENS3_IFvdEEENS3_IFvvEEENS1_9null_typeESA_SA_SA_SA_SA_SA_EERKSsSD_E4swapERSE_@Base 1.6
 (optional=templinst)_ZN5boost9function2INS_6tuples5tupleINS_8functionIFvjEEENS3_IFvdEEENS3_IFvvEEENS1_9null_typeESA_SA_SA_SA_SA_SA_EERKSsSD_E5clearEv@Base 1.6
 (optional=templinst)_ZN5boost9function2INS_6tuples5tupleINS_8functionIFvjEEENS3_IFvfEEENS3_IFvvEEENS1_9null_typeESA_SA_SA_SA_SA_SA_EERKSsSD_E11move_assignERSE_@Base 1.6
 (optional=templinst)_ZN5boost9function2INS_6tuples5tupleINS_8functionIFvjEEENS3_IFvfEEENS3_IFvvEEENS1_9null_typeESA_SA_SA_SA_SA_SA_EERKSsSD_E4swapERSE_@Base 1.6
 (optional=templinst)_ZN5boost9function2INS_6tuples5tupleINS_8functionIFvjEEENS3_IFvfEEENS3_IFvvEEENS1_9null_typeESA_SA_SA_SA_SA_SA_EERKSsSD_E5clearEv@Base 1.6
 (optional=templinst)_ZN5boost9function2INS_6tuples5tupleINS_8functionIFvjEEENS3_IFvhEEENS3_IFvvEEENS1_9null_typeESA_SA_SA_SA_SA_SA_EERKSsSD_E11move_assignERSE_@Base 1.6
 (optional=templinst)_ZN5boost9function2INS_6tuples5tupleINS_8functionIFvjEEENS3_IFvhEEENS3_IFvvEEENS1_9null_typeESA_SA_SA_SA_SA_SA_EERKSsSD_E4swapERSE_@Base 1.6
 (optional=templinst)_ZN5boost9function2INS_6tuples5tupleINS_8functionIFvjEEENS3_IFvhEEENS3_IFvvEEENS1_9null_typeESA_SA_SA_SA_SA_SA_EERKSsSD_E5clearEv@Base 1.6
 (optional=templinst)_ZN5boost9function2INS_6tuples5tupleINS_8functionIFvjEEENS3_IFviEEENS3_IFvvEEENS1_9null_typeESA_SA_SA_SA_SA_SA_EERKSsSD_E11move_assignERSE_@Base 1.6
 (optional=templinst)_ZN5boost9function2INS_6tuples5tupleINS_8functionIFvjEEENS3_IFviEEENS3_IFvvEEENS1_9null_typeESA_SA_SA_SA_SA_SA_EERKSsSD_E4swapERSE_@Base 1.6
 (optional=templinst)_ZN5boost9function2INS_6tuples5tupleINS_8functionIFvjEEENS3_IFviEEENS3_IFvvEEENS1_9null_typeESA_SA_SA_SA_SA_SA_EERKSsSD_E5clearEv@Base 1.6
 (optional=templinst)_ZN5boost9function2INS_6tuples5tupleINS_8functionIFvjEEENS3_IFvsEEENS3_IFvvEEENS1_9null_typeESA_SA_SA_SA_SA_SA_EERKSsSD_E11move_assignERSE_@Base 1.6
 (optional=templinst)_ZN5boost9function2INS_6tuples5tupleINS_8functionIFvjEEENS3_IFvsEEENS3_IFvvEEENS1_9null_typeESA_SA_SA_SA_SA_SA_EERKSsSD_E4swapERSE_@Base 1.6
 (optional=templinst)_ZN5boost9function2INS_6tuples5tupleINS_8functionIFvjEEENS3_IFvsEEENS3_IFvvEEENS1_9null_typeESA_SA_SA_SA_SA_SA_EERKSsSD_E5clearEv@Base 1.6
 (optional=templinst)_ZN5boost9function2INS_6tuples5tupleINS_8functionIFvjEEENS3_IFvtEEENS3_IFvvEEENS1_9null_typeESA_SA_SA_SA_SA_SA_EERKSsSD_E11move_assignERSE_@Base 1.6
 (optional=templinst)_ZN5boost9function2INS_6tuples5tupleINS_8functionIFvjEEENS3_IFvtEEENS3_IFvvEEENS1_9null_typeESA_SA_SA_SA_SA_SA_EERKSsSD_E4swapERSE_@Base 1.6
 (optional=templinst)_ZN5boost9function2INS_6tuples5tupleINS_8functionIFvjEEENS3_IFvtEEENS3_IFvvEEENS1_9null_typeESA_SA_SA_SA_SA_SA_EERKSsSD_E5clearEv@Base 1.6
 (optional=templinst)_ZN5boost9function2INS_6tuples5tupleINS_8functionIFvjEEES5_NS3_IFvvEEENS1_9null_typeES8_S8_S8_S8_S8_S8_EERKSsSB_E11move_assignERSC_@Base 1.6
 (optional=templinst)_ZN5boost9function2INS_6tuples5tupleINS_8functionIFvjEEES5_NS3_IFvvEEENS1_9null_typeES8_S8_S8_S8_S8_S8_EERKSsSB_E4swapERSC_@Base 1.6
 (optional=templinst)_ZN5boost9function2INS_6tuples5tupleINS_8functionIFvjEEES5_NS3_IFvvEEENS1_9null_typeES8_S8_S8_S8_S8_S8_EERKSsSB_E5clearEv@Base 1.6
 (optional=templinst)_ZN5boost9function2INS_6tuples5tupleINS_8functionIFvtEEENS3_IFvaEEENS3_IFvvEEENS1_9null_typeESA_SA_SA_SA_SA_SA_EERKSsSD_E11move_assignERSE_@Base 1.6
 (optional=templinst)_ZN5boost9function2INS_6tuples5tupleINS_8functionIFvtEEENS3_IFvaEEENS3_IFvvEEENS1_9null_typeESA_SA_SA_SA_SA_SA_EERKSsSD_E4swapERSE_@Base 1.6
 (optional=templinst)_ZN5boost9function2INS_6tuples5tupleINS_8functionIFvtEEENS3_IFvaEEENS3_IFvvEEENS1_9null_typeESA_SA_SA_SA_SA_SA_EERKSsSD_E5clearEv@Base 1.6
 (optional=templinst)_ZN5boost9function2INS_6tuples5tupleINS_8functionIFvtEEENS3_IFvdEEENS3_IFvvEEENS1_9null_typeESA_SA_SA_SA_SA_SA_EERKSsSD_E11move_assignERSE_@Base 1.6
 (optional=templinst)_ZN5boost9function2INS_6tuples5tupleINS_8functionIFvtEEENS3_IFvdEEENS3_IFvvEEENS1_9null_typeESA_SA_SA_SA_SA_SA_EERKSsSD_E4swapERSE_@Base 1.6
 (optional=templinst)_ZN5boost9function2INS_6tuples5tupleINS_8functionIFvtEEENS3_IFvdEEENS3_IFvvEEENS1_9null_typeESA_SA_SA_SA_SA_SA_EERKSsSD_E5clearEv@Base 1.6
 (optional=templinst)_ZN5boost9function2INS_6tuples5tupleINS_8functionIFvtEEENS3_IFvfEEENS3_IFvvEEENS1_9null_typeESA_SA_SA_SA_SA_SA_EERKSsSD_E11move_assignERSE_@Base 1.6
 (optional=templinst)_ZN5boost9function2INS_6tuples5tupleINS_8functionIFvtEEENS3_IFvfEEENS3_IFvvEEENS1_9null_typeESA_SA_SA_SA_SA_SA_EERKSsSD_E4swapERSE_@Base 1.6
 (optional=templinst)_ZN5boost9function2INS_6tuples5tupleINS_8functionIFvtEEENS3_IFvfEEENS3_IFvvEEENS1_9null_typeESA_SA_SA_SA_SA_SA_EERKSsSD_E5clearEv@Base 1.6
 (optional=templinst)_ZN5boost9function2INS_6tuples5tupleINS_8functionIFvtEEENS3_IFvhEEENS3_IFvvEEENS1_9null_typeESA_SA_SA_SA_SA_SA_EERKSsSD_E11move_assignERSE_@Base 1.6
 (optional=templinst)_ZN5boost9function2INS_6tuples5tupleINS_8functionIFvtEEENS3_IFvhEEENS3_IFvvEEENS1_9null_typeESA_SA_SA_SA_SA_SA_EERKSsSD_E4swapERSE_@Base 1.6
 (optional=templinst)_ZN5boost9function2INS_6tuples5tupleINS_8functionIFvtEEENS3_IFvhEEENS3_IFvvEEENS1_9null_typeESA_SA_SA_SA_SA_SA_EERKSsSD_E5clearEv@Base 1.6
 (optional=templinst)_ZN5boost9function2INS_6tuples5tupleINS_8functionIFvtEEENS3_IFviEEENS3_IFvvEEENS1_9null_typeESA_SA_SA_SA_SA_SA_EERKSsSD_E11move_assignERSE_@Base 1.6
 (optional=templinst)_ZN5boost9function2INS_6tuples5tupleINS_8functionIFvtEEENS3_IFviEEENS3_IFvvEEENS1_9null_typeESA_SA_SA_SA_SA_SA_EERKSsSD_E4swapERSE_@Base 1.6
 (optional=templinst)_ZN5boost9function2INS_6tuples5tupleINS_8functionIFvtEEENS3_IFviEEENS3_IFvvEEENS1_9null_typeESA_SA_SA_SA_SA_SA_EERKSsSD_E5clearEv@Base 1.6
 (optional=templinst)_ZN5boost9function2INS_6tuples5tupleINS_8functionIFvtEEENS3_IFvjEEENS3_IFvvEEENS1_9null_typeESA_SA_SA_SA_SA_SA_EERKSsSD_E11move_assignERSE_@Base 1.6
 (optional=templinst)_ZN5boost9function2INS_6tuples5tupleINS_8functionIFvtEEENS3_IFvjEEENS3_IFvvEEENS1_9null_typeESA_SA_SA_SA_SA_SA_EERKSsSD_E4swapERSE_@Base 1.6
 (optional=templinst)_ZN5boost9function2INS_6tuples5tupleINS_8functionIFvtEEENS3_IFvjEEENS3_IFvvEEENS1_9null_typeESA_SA_SA_SA_SA_SA_EERKSsSD_E5clearEv@Base 1.6
 (optional=templinst)_ZN5boost9function2INS_6tuples5tupleINS_8functionIFvtEEENS3_IFvsEEENS3_IFvvEEENS1_9null_typeESA_SA_SA_SA_SA_SA_EERKSsSD_E11move_assignERSE_@Base 1.6
 (optional=templinst)_ZN5boost9function2INS_6tuples5tupleINS_8functionIFvtEEENS3_IFvsEEENS3_IFvvEEENS1_9null_typeESA_SA_SA_SA_SA_SA_EERKSsSD_E4swapERSE_@Base 1.6
 (optional=templinst)_ZN5boost9function2INS_6tuples5tupleINS_8functionIFvtEEENS3_IFvsEEENS3_IFvvEEENS1_9null_typeESA_SA_SA_SA_SA_SA_EERKSsSD_E5clearEv@Base 1.6
 (optional=templinst)_ZN5boost9function2INS_6tuples5tupleINS_8functionIFvtEEES5_NS3_IFvvEEENS1_9null_typeES8_S8_S8_S8_S8_S8_EERKSsSB_E11move_assignERSC_@Base 1.6
 (optional=templinst)_ZN5boost9function2INS_6tuples5tupleINS_8functionIFvtEEES5_NS3_IFvvEEENS1_9null_typeES8_S8_S8_S8_S8_S8_EERKSsSB_E4swapERSC_@Base 1.6
 (optional=templinst)_ZN5boost9function2INS_6tuples5tupleINS_8functionIFvtEEES5_NS3_IFvvEEENS1_9null_typeES8_S8_S8_S8_S8_S8_EERKSsSB_E5clearEv@Base 1.6
 (optional=templinst)_ZN5boost9function2INS_6tuples5tupleINS_8functionIFvvEEES5_NS1_9null_typeES6_S6_S6_S6_S6_S6_S6_EERKSsmE11move_assignERSA_@Base 1.6
 (optional=templinst)_ZN5boost9function2INS_6tuples5tupleINS_8functionIFvvEEES5_NS1_9null_typeES6_S6_S6_S6_S6_S6_S6_EERKSsmE4swapERSA_@Base 1.6
 (optional=templinst)_ZN5boost9function2INS_6tuples5tupleINS_8functionIFvvEEES5_NS1_9null_typeES6_S6_S6_S6_S6_S6_S6_EERKSsmE5clearEv@Base 1.6
 (optional=templinst)_ZN5boost9function2INS_8functionIFvaEEERKSsS5_E11move_assignERS6_@Base 1.6
 (optional=templinst)_ZN5boost9function2INS_8functionIFvaEEERKSsS5_E4swapERS6_@Base 1.6
 (optional=templinst)_ZN5boost9function2INS_8functionIFvaEEERKSsS5_E5clearEv@Base 1.6
 (optional=templinst)_ZN5boost9function2INS_8functionIFvdEEERKSsS5_E11move_assignERS6_@Base 1.6
 (optional=templinst)_ZN5boost9function2INS_8functionIFvdEEERKSsS5_E4swapERS6_@Base 1.6
 (optional=templinst)_ZN5boost9function2INS_8functionIFvdEEERKSsS5_E5clearEv@Base 1.6
 (optional=templinst)_ZN5boost9function2INS_8functionIFvfEEERKSsS5_E11move_assignERS6_@Base 1.6
 (optional=templinst)_ZN5boost9function2INS_8functionIFvfEEERKSsS5_E4swapERS6_@Base 1.6
 (optional=templinst)_ZN5boost9function2INS_8functionIFvfEEERKSsS5_E5clearEv@Base 1.6
 (optional=templinst)_ZN5boost9function2INS_8functionIFvhEEERKSsS5_E11move_assignERS6_@Base 1.6
 (optional=templinst)_ZN5boost9function2INS_8functionIFvhEEERKSsS5_E4swapERS6_@Base 1.6
 (optional=templinst)_ZN5boost9function2INS_8functionIFvhEEERKSsS5_E5clearEv@Base 1.6
 (optional=templinst)_ZN5boost9function2INS_8functionIFviEEERKSsS5_E11move_assignERS6_@Base 1.6
 (optional=templinst)_ZN5boost9function2INS_8functionIFviEEERKSsS5_E4swapERS6_@Base 1.6
 (optional=templinst)_ZN5boost9function2INS_8functionIFviEEERKSsS5_E5clearEv@Base 1.6
 (optional=templinst)_ZN5boost9function2INS_8functionIFvjEEERKSsS5_E11move_assignERS6_@Base 1.6
 (optional=templinst)_ZN5boost9function2INS_8functionIFvjEEERKSsS5_E4swapERS6_@Base 1.6
 (optional=templinst)_ZN5boost9function2INS_8functionIFvjEEERKSsS5_E5clearEv@Base 1.6
 (optional=templinst)_ZN5boost9function2INS_8functionIFvsEEERKSsS5_E11move_assignERS6_@Base 1.6
 (optional=templinst)_ZN5boost9function2INS_8functionIFvsEEERKSsS5_E4swapERS6_@Base 1.6
 (optional=templinst)_ZN5boost9function2INS_8functionIFvsEEERKSsS5_E5clearEv@Base 1.6
 (optional=templinst)_ZN5boost9function2INS_8functionIFvtEEERKSsS5_E11move_assignERS6_@Base 1.6
 (optional=templinst)_ZN5boost9function2INS_8functionIFvtEEERKSsS5_E4swapERS6_@Base 1.6
 (optional=templinst)_ZN5boost9function2INS_8functionIFvtEEERKSsS5_E5clearEv@Base 1.6
 (optional=templinst)_ZN5boost9function2IvNS_10shared_ptrIN14openni_wrapper10DepthImageEEEPvE5clearEv@Base 1.6
 (optional=templinst)_ZN5boost9function2IvNS_10shared_ptrIN14openni_wrapper5ImageEEEPvE5clearEv@Base 1.6
 (optional=templinst)_ZN5boost9function2IvNS_10shared_ptrIN14openni_wrapper7IRImageEEEPvE5clearEv@Base 1.6
 (optional=templinst)_ZN5boost9function2IviRKSsE5clearEv@Base 1.6
 (optional=templinst)_ZN5boost9function2IvmRKSsE11move_assignERS3_@Base 1.6
 (optional=templinst)_ZN5boost9function2IvmRKSsE4swapERS3_@Base 1.6
 (optional=templinst)_ZN5boost9function2IvmRKSsE5clearEv@Base 1.6
 (optional=templinst)_ZN5boost9function2IvmRKSsE9assign_toINS_3_bi6bind_tIvNS_4_mfi3mf3IvN3pcl9PLYReaderES2_mS2_EENS5_5list4INS5_5valueIPSA_EENS_17reference_wrapperIS1_EENS_3argILi1EEENSI_ILi2EEEEEEEEEvT_@Base 1.6
 (optional=templinst)_ZN5boost9function4IvNS_10shared_ptrIN14openni_wrapper5ImageEEENS1_INS2_10DepthImageEEEmmE11move_assignERS7_@Base 1.6
 (optional=templinst)_ZN5boost9function4IvNS_10shared_ptrIN14openni_wrapper5ImageEEENS1_INS2_10DepthImageEEEmmE13assign_to_ownERKS7_@Base 1.6
 (optional=templinst)_ZN5boost9function4IvNS_10shared_ptrIN14openni_wrapper5ImageEEENS1_INS2_10DepthImageEEEmmE4swapERS7_@Base 1.6
 (optional=templinst)_ZN5boost9function4IvNS_10shared_ptrIN14openni_wrapper5ImageEEENS1_INS2_10DepthImageEEEmmE5clearEv@Base 1.6
 (optional=templinst)_ZN5boost9function4IvNS_10shared_ptrIN14openni_wrapper5ImageEEENS1_INS2_10DepthImageEEEmmE9assign_toINS_3_bi6bind_tIvNS_4_mfi3mf2IvN3pcl10ONIGrabberERKS4_RKS6_EENS9_5list3INS9_5valueIPSE_EENS_3argILi1EEENSO_ILi2EEEEEEEEEvT_@Base 1.6
 (optional=templinst)_ZN5boost9function4IvNS_10shared_ptrIN14openni_wrapper5ImageEEENS1_INS2_10DepthImageEEEmmE9assign_toINS_3_bi6bind_tIvNS_4_mfi3mf2IvN3pcl13OpenNIGrabberERKS4_RKS6_EENS9_5list3INS9_5valueIPSE_EENS_3argILi1EEENSO_ILi2EEEEEEEEEvT_@Base 1.6
 (optional=templinst)_ZN5boost9function4IvNS_10shared_ptrIN14openni_wrapper7IRImageEEENS1_INS2_10DepthImageEEEmmE11move_assignERS7_@Base 1.6
 (optional=templinst)_ZN5boost9function4IvNS_10shared_ptrIN14openni_wrapper7IRImageEEENS1_INS2_10DepthImageEEEmmE13assign_to_ownERKS7_@Base 1.6
 (optional=templinst)_ZN5boost9function4IvNS_10shared_ptrIN14openni_wrapper7IRImageEEENS1_INS2_10DepthImageEEEmmE4swapERS7_@Base 1.6
 (optional=templinst)_ZN5boost9function4IvNS_10shared_ptrIN14openni_wrapper7IRImageEEENS1_INS2_10DepthImageEEEmmE5clearEv@Base 1.6
 (optional=templinst)_ZN5boost9function4IvNS_10shared_ptrIN14openni_wrapper7IRImageEEENS1_INS2_10DepthImageEEEmmE9assign_toINS_3_bi6bind_tIvNS_4_mfi3mf2IvN3pcl13OpenNIGrabberERKS4_RKS6_EENS9_5list3INS9_5valueIPSE_EENS_3argILi1EEENSO_ILi2EEEEEEEEEvT_@Base 1.6
 _ZN5boost9gregorian16bad_day_of_monthC1ERKSs@Base 1.6
 _ZN5boost9gregorian16bad_day_of_monthC1Ev@Base 1.6
 _ZN5boost9gregorian16bad_day_of_monthC2ERKSs@Base 1.6
 _ZN5boost9gregorian16bad_day_of_monthC2Ev@Base 1.6
 _ZN5boost9gregorian16bad_day_of_monthD0Ev@Base 1.6
 _ZN5boost9gregorian16bad_day_of_monthD1Ev@Base 1.6
 _ZN5boost9gregorian16bad_day_of_monthD2Ev@Base 1.6
 _ZN5boost9gregorian4dateC1ENS0_9greg_yearENS0_10greg_monthENS0_8greg_dayE@Base 1.6
 _ZN5boost9gregorian4dateC2ENS0_9greg_yearENS0_10greg_monthENS0_8greg_dayE@Base 1.6
 _ZN5boost9gregorian8bad_yearC1Ev@Base 1.6
 _ZN5boost9gregorian8bad_yearC2Ev@Base 1.6
 _ZN5boost9gregorian8bad_yearD0Ev@Base 1.6
 _ZN5boost9gregorian8bad_yearD1Ev@Base 1.6
 _ZN5boost9gregorian8bad_yearD2Ev@Base 1.6
 _ZN5boost9gregorian9bad_monthC1Ev@Base 1.6
 _ZN5boost9gregorian9bad_monthC2Ev@Base 1.6
 _ZN5boost9gregorian9bad_monthD0Ev@Base 1.6
 _ZN5boost9gregorian9bad_monthD1Ev@Base 1.6
 _ZN5boost9gregorian9bad_monthD2Ev@Base 1.6
 _ZN8std_msgs6HeaderD1Ev@Base 1.6
 _ZN8std_msgs6HeaderD2Ev@Base 1.6
 _ZNK14openni_wrapper10DepthImage14fillDepthImageEjjPfj@Base 1.6
 _ZNK14openni_wrapper10DepthImage17fillDepthImageRawEjjPtj@Base 1.6
 _ZNK14openni_wrapper10DepthImage18fillDisparityImageEjjPfj@Base 1.6
 _ZNK14openni_wrapper10ImageRGB2411getEncodingEv@Base 1.6
 _ZNK14openni_wrapper10ImageRGB2413fillGrayscaleEjjPhj@Base 1.6
 _ZNK14openni_wrapper10ImageRGB2419isResizingSupportedEjjjj@Base 1.6
 _ZNK14openni_wrapper10ImageRGB247fillRGBEjjPhj@Base 1.6
 _ZNK14openni_wrapper11ImageYUV42211getEncodingEv@Base 1.6
 _ZNK14openni_wrapper11ImageYUV42213fillGrayscaleEjjPhj@Base 1.6
 _ZNK14openni_wrapper11ImageYUV42219isResizingSupportedEjjjj@Base 1.6
 _ZNK14openni_wrapper11ImageYUV4227fillRGBEjjPhj@Base 1.6
 _ZNK14openni_wrapper12DeviceKinect15getCurrentImageEN5boost10shared_ptrIN2xn13ImageMetaDataEEE@Base 1.6
 _ZNK14openni_wrapper12DeviceKinect22isImageResizeSupportedEjjjj@Base 1.6
 _ZNK14openni_wrapper12OpenNIDevice10getAddressEv@Base 1.6
 _ZNK14openni_wrapper12OpenNIDevice11getVendorIDEv@Base 1.6
 _ZNK14openni_wrapper12OpenNIDevice11hasIRStreamEv@Base 1.6
 _ZNK14openni_wrapper12OpenNIDevice12getProductIDEv@Base 1.6
 _ZNK14openni_wrapper12OpenNIDevice13getVendorNameEv@Base 1.6
 _ZNK14openni_wrapper12OpenNIDevice14getProductNameEv@Base 1.6
 _ZNK14openni_wrapper12OpenNIDevice14hasDepthStreamEv@Base 1.6
 _ZNK14openni_wrapper12OpenNIDevice14hasImageStreamEv@Base 1.6
 _ZNK14openni_wrapper12OpenNIDevice14isDepthCroppedEv@Base 1.6
 _ZNK14openni_wrapper12OpenNIDevice14isSynchronizedEv@Base 1.6
 _ZNK14openni_wrapper12OpenNIDevice15getIROutputModeEv@Base 1.6
 _ZNK14openni_wrapper12OpenNIDevice15getSerialNumberEv@Base 1.6
 _ZNK14openni_wrapper12OpenNIDevice16getDefaultIRModeEv@Base 1.6
 _ZNK14openni_wrapper12OpenNIDevice17isDepthRegisteredEv@Base 1.6
 _ZNK14openni_wrapper12OpenNIDevice17isIRStreamRunningEv@Base 1.6
 _ZNK14openni_wrapper12OpenNIDevice18getDepthOutputModeEv@Base 1.6
 _ZNK14openni_wrapper12OpenNIDevice18getImageOutputModeEv@Base 1.6
 _ZNK14openni_wrapper12OpenNIDevice19getConnectionStringEv@Base 1.6
 _ZNK14openni_wrapper12OpenNIDevice19getDefaultDepthModeEv@Base 1.6
 _ZNK14openni_wrapper12OpenNIDevice19getDefaultImageModeEv@Base 1.6
 _ZNK14openni_wrapper12OpenNIDevice19getDepthFocalLengthEi@Base 1.6
 _ZNK14openni_wrapper12OpenNIDevice19getImageFocalLengthEi@Base 1.6
 _ZNK14openni_wrapper12OpenNIDevice20isDepthModeSupportedERK15XnMapOutputMode@Base 1.6
 _ZNK14openni_wrapper12OpenNIDevice20isDepthStreamRunningEv@Base 1.6
 _ZNK14openni_wrapper12OpenNIDevice20isImageModeSupportedERK15XnMapOutputMode@Base 1.6
 _ZNK14openni_wrapper12OpenNIDevice20isImageStreamRunningEv@Base 1.6
 _ZNK14openni_wrapper12OpenNIDevice23findCompatibleDepthModeERK15XnMapOutputModeRS1_@Base 1.6
 _ZNK14openni_wrapper12OpenNIDevice23findCompatibleImageModeERK15XnMapOutputModeRS1_@Base 1.6
 _ZNK14openni_wrapper12OpenNIDevice24isDepthCroppingSupportedEv@Base 1.6
 _ZNK14openni_wrapper12OpenNIDevice26isSynchronizationSupportedEv@Base 1.6
 _ZNK14openni_wrapper12OpenNIDevice28isDepthRegistrationSupportedEv@Base 1.6
 _ZNK14openni_wrapper12OpenNIDevice6getBusEv@Base 1.6
 _ZNK14openni_wrapper12OpenNIDriver10getAddressEj@Base 1.6
 _ZNK14openni_wrapper12OpenNIDriver11getVendorIDEj@Base 1.6
 _ZNK14openni_wrapper12OpenNIDriver12getProductIDEj@Base 1.6
 _ZNK14openni_wrapper12OpenNIDriver13getVendorNameEj@Base 1.6
 _ZNK14openni_wrapper12OpenNIDriver14getProductNameEj@Base 1.6
 _ZNK14openni_wrapper12OpenNIDriver15getSerialNumberEj@Base 1.6
 _ZNK14openni_wrapper12OpenNIDriver16getDeviceByIndexEj@Base 1.6
 _ZNK14openni_wrapper12OpenNIDriver18getDeviceByAddressEhh@Base 1.6
 _ZNK14openni_wrapper12OpenNIDriver19createVirtualDeviceERKSsbb@Base 1.6
 _ZNK14openni_wrapper12OpenNIDriver19getConnectionStringEj@Base 1.6
 _ZNK14openni_wrapper12OpenNIDriver23getDeviceBySerialNumberERKSs@Base 1.6
 _ZNK14openni_wrapper12OpenNIDriver6getBusEj@Base 1.6
 _ZNK14openni_wrapper14DeviceXtionPro15getCurrentImageEN5boost10shared_ptrIN2xn13ImageMetaDataEEE@Base 1.6
 _ZNK14openni_wrapper14DeviceXtionPro22isImageResizeSupportedEjjjj@Base 1.6
 _ZNK14openni_wrapper14ImageBayerGRBG11getEncodingEv@Base 1.6
 _ZNK14openni_wrapper14ImageBayerGRBG13fillGrayscaleEjjPhj@Base 1.6
 _ZNK14openni_wrapper14ImageBayerGRBG19isResizingSupportedEjjjj@Base 1.6
 _ZNK14openni_wrapper14ImageBayerGRBG7fillRGBEjjPhj@Base 1.6
 _ZNK14openni_wrapper15OpenNIException11getFileNameEv@Base 1.6
 _ZNK14openni_wrapper15OpenNIException13getLineNumberEv@Base 1.6
 _ZNK14openni_wrapper15OpenNIException15getFunctionNameEv@Base 1.6
 _ZNK14openni_wrapper15OpenNIException4whatEv@Base 1.6
 _ZNK14openni_wrapper16DevicePrimesense15getCurrentImageEN5boost10shared_ptrIN2xn13ImageMetaDataEEE@Base 1.6
 _ZNK14openni_wrapper16DevicePrimesense22isImageResizeSupportedEjjjj@Base 1.6
 _ZNK14openni_wrapper7IRImage7fillRawEjjPtj@Base 1.6
 _ZNK14openni_wrapper9DeviceONI11isStreamingEv@Base 1.6
 _ZNK14openni_wrapper9DeviceONI15getCurrentImageEN5boost10shared_ptrIN2xn13ImageMetaDataEEE@Base 1.6
 _ZNK14openni_wrapper9DeviceONI17isIRStreamRunningEv@Base 1.6
 _ZNK14openni_wrapper9DeviceONI20isDepthStreamRunningEv@Base 1.6
 _ZNK14openni_wrapper9DeviceONI20isImageStreamRunningEv@Base 1.6
 _ZNK14openni_wrapper9DeviceONI22isImageResizeSupportedEjjjj@Base 1.6
 _ZNK3pcl10ONIGrabber18getFramesPerSecondEv@Base 1.6
 _ZNK3pcl10ONIGrabber22convertToXYZPointCloudERKN5boost10shared_ptrIN14openni_wrapper10DepthImageEEE@Base 1.6
 _ZNK3pcl10ONIGrabber23convertToXYZIPointCloudERKN5boost10shared_ptrIN14openni_wrapper7IRImageEEERKNS2_INS3_10DepthImageEEE@Base 1.6
 _ZNK3pcl10ONIGrabber25convertToXYZRGBPointCloudERKN5boost10shared_ptrIN14openni_wrapper5ImageEEERKNS2_INS3_10DepthImageEEE@Base 1.6
 _ZNK3pcl10ONIGrabber26convertToXYZRGBAPointCloudERKN5boost10shared_ptrIN14openni_wrapper5ImageEEERKNS2_INS3_10DepthImageEEE@Base 1.6
 _ZNK3pcl10ONIGrabber7getNameEv@Base 1.6
 _ZNK3pcl10ONIGrabber9isRunningEv@Base 1.6
 _ZNK3pcl13OpenNIGrabber18getFramesPerSecondEv@Base 1.6
 _ZNK3pcl13OpenNIGrabber20mapConfigMode2XnModeEiR15XnMapOutputMode@Base 1.6
 _ZNK3pcl13OpenNIGrabber22convertToXYZPointCloudERKN5boost10shared_ptrIN14openni_wrapper10DepthImageEEE@Base 1.6
 _ZNK3pcl13OpenNIGrabber22getAvailableDepthModesEv@Base 1.6
 _ZNK3pcl13OpenNIGrabber22getAvailableImageModesEv@Base 1.6
 _ZNK3pcl13OpenNIGrabber23convertToXYZIPointCloudERKN5boost10shared_ptrIN14openni_wrapper7IRImageEEERKNS2_INS3_10DepthImageEEE@Base 1.6
 _ZNK3pcl13OpenNIGrabber24convertToEigenPointCloudERKN5boost10shared_ptrIN14openni_wrapper5ImageEEERKNS2_INS3_10DepthImageEEE@Base 1.6
 (optional=templinst)_ZNK3pcl13OpenNIGrabber25convertToXYZRGBPointCloudINS_11PointXYZRGBEEENS_10PointCloudIT_E3PtrERKN5boost10shared_ptrIN14openni_wrapper5ImageEEERKNS8_INS9_10DepthImageEEE@Base 1.6
 (optional=templinst)_ZNK3pcl13OpenNIGrabber25convertToXYZRGBPointCloudINS_12PointXYZRGBAEEENS_10PointCloudIT_E3PtrERKN5boost10shared_ptrIN14openni_wrapper5ImageEEERKNS8_INS9_10DepthImageEEE@Base 1.6
 _ZNK3pcl13OpenNIGrabber7getNameEv@Base 1.6
 _ZNK3pcl13OpenNIGrabber9isRunningEv@Base 1.6
 _ZNK3pcl14PCDGrabberBase10isRepeatOnEv@Base 1.6
 _ZNK3pcl14PCDGrabberBase18getFramesPerSecondEv@Base 1.6
 _ZNK3pcl14PCDGrabberBase7getNameEv@Base 1.6
 _ZNK3pcl14PCDGrabberBase9isRunningEv@Base 1.6
 (optional=templinst)_ZNK3pcl6octree14Octree2BufBaseIiNS0_26OctreeContainerDataTVectorIiEENS0_20OctreeContainerEmptyIiEEE19genDataTByOctreeKeyERKNS0_9OctreeKeyERi@Base 1.6
 (optional=templinst)_ZNK3pcl6octree14Octree2BufBaseIiNS0_26OctreeContainerDataTVectorIiEENS0_20OctreeContainerEmptyIiEEE20genOctreeKeyForDataTERKiRNS0_9OctreeKeyE@Base 1.6
 (optional=templinst)_ZNK3pcl6octree14OctreeLeafNodeINS0_26OctreeContainerDataTVectorIiEEE11getNodeTypeEv@Base 1.6
 (optional=templinst)_ZNK3pcl6octree14OctreeLeafNodeINS0_26OctreeContainerDataTVectorIiEEE8deepCopyEv@Base 1.6
 (optional=templinst)_ZNK3pcl6octree16OctreePointCloudINS_11PointXYZRGBENS0_26OctreeContainerDataTVectorIiEENS0_20OctreeContainerEmptyIiEENS0_14Octree2BufBaseIiS4_S6_EEE20genOctreeKeyForDataTERKiRNS0_9OctreeKeyE@Base 1.6
 (optional=templinst)_ZNK3pcl6octree16OctreePointCloudINS_12PointXYZRGBAENS0_26OctreeContainerDataTVectorIiEENS0_20OctreeContainerEmptyIiEENS0_14Octree2BufBaseIiS4_S6_EEE20genOctreeKeyForDataTERKiRNS0_9OctreeKeyE@Base 1.6
 (optional=templinst)_ZNK3pcl6octree16OctreePointCloudINS_8PointXYZENS0_26OctreeContainerDataTVectorIiEENS0_20OctreeContainerEmptyIiEENS0_14Octree2BufBaseIiS4_S6_EEE20genOctreeKeyForDataTERKiRNS0_9OctreeKeyE@Base 1.6
 (optional=templinst)_ZNK3pcl6octree18BufferedBranchNodeINS0_20OctreeContainerEmptyIiEEE11getNodeTypeEv@Base 1.6
 (optional=templinst)_ZNK3pcl6octree18BufferedBranchNodeINS0_20OctreeContainerEmptyIiEEE8deepCopyEv@Base 1.6
 (optional=templinst)_ZNK3pcl6octree20OctreeContainerEmptyIiE8deepCopyEv@Base 1.6
 (optional=templinst)_ZNK3pcl6octree21PointCloudCompressionINS_11PointXYZRGBENS0_26OctreeContainerDataTVectorIiEENS0_20OctreeContainerEmptyIiEENS0_14Octree2BufBaseIiS4_S6_EEE14getOutputCloudEv@Base 1.6
 (optional=templinst)_ZNK3pcl6octree21PointCloudCompressionINS_12PointXYZRGBAENS0_26OctreeContainerDataTVectorIiEENS0_20OctreeContainerEmptyIiEENS0_14Octree2BufBaseIiS4_S6_EEE14getOutputCloudEv@Base 1.6
 (optional=templinst)_ZNK3pcl6octree21PointCloudCompressionINS_8PointXYZENS0_26OctreeContainerDataTVectorIiEENS0_20OctreeContainerEmptyIiEENS0_14Octree2BufBaseIiS4_S6_EEE14getOutputCloudEv@Base 1.6
 (optional=templinst)_ZNK3pcl6octree26OctreeContainerDataTVectorIiE7getDataERSt6vectorIiSaIiEE@Base 1.6
 (optional=templinst)_ZNK3pcl6octree26OctreeContainerDataTVectorIiE8deepCopyEv@Base 1.6
 (optional=templinst)_ZNK3pcl7Grabber9num_slotsIFvRKN5boost10shared_ptrIKNS_10PointCloudIN5Eigen6MatrixIfLin1ELin1ELi0ELin1ELin1EEEEEEEEEEiv@Base 1.6
 (optional=templinst)_ZNK3pcl7Grabber9num_slotsIFvRKN5boost10shared_ptrIKNS_10PointCloudINS_11PointXYZRGBEEEEEEEEiv@Base 1.6
 (optional=templinst)_ZNK3pcl7Grabber9num_slotsIFvRKN5boost10shared_ptrIKNS_10PointCloudINS_12PointXYZRGBAEEEEEEEEiv@Base 1.6
 (optional=templinst)_ZNK3pcl7Grabber9num_slotsIFvRKN5boost10shared_ptrIKNS_10PointCloudINS_8PointXYZEEEEEEEEiv@Base 1.6
 (optional=templinst)_ZNK3pcl7Grabber9num_slotsIFvRKN5boost10shared_ptrIKNS_10PointCloudINS_9PointXYZIEEEEEEEEiv@Base 1.6
 (optional=templinst)_ZNK3pcl7Grabber9num_slotsIFvRKN5boost10shared_ptrIN14openni_wrapper10DepthImageEEEEEEiv@Base 1.6
 (optional=templinst)_ZNK3pcl7Grabber9num_slotsIFvRKN5boost10shared_ptrIN14openni_wrapper5ImageEEEEEEiv@Base 1.6
 (optional=templinst)_ZNK3pcl7Grabber9num_slotsIFvRKN5boost10shared_ptrIN14openni_wrapper5ImageEEERKNS3_INS4_10DepthImageEEEfEEEiv@Base 1.6
 (optional=templinst)_ZNK3pcl7Grabber9num_slotsIFvRKN5boost10shared_ptrIN14openni_wrapper7IRImageEEEEEEiv@Base 1.6
 (optional=templinst)_ZNK3pcl7Grabber9num_slotsIFvRKN5boost10shared_ptrIN14openni_wrapper7IRImageEEERKNS3_INS4_10DepthImageEEEfEEEiv@Base 1.6
 (optional=templinst)_ZNK5Eigen14QuaternionBaseINS_10QuaternionIfLi0EEEE16toRotationMatrixEv@Base 1.6
 _ZNK5boost10lock_error4whatEv@Base 1.6
 _ZNK5boost15condition_error4whatEv@Base 1.6
 (optional=templinst)_ZNK5boost16exception_detail10clone_implINS0_10bad_alloc_EE5cloneEv@Base 1.6
 (optional=templinst)_ZNK5boost16exception_detail10clone_implINS0_10bad_alloc_EE7rethrowEv@Base 1.6
 (optional=templinst)_ZNK5boost16exception_detail10clone_implINS0_14bad_exception_EE5cloneEv@Base 1.6
 (optional=templinst)_ZNK5boost16exception_detail10clone_implINS0_14bad_exception_EE7rethrowEv@Base 1.6
 (optional=templinst)_ZNK5boost16exception_detail10clone_implINS0_19error_info_injectorINS_10lock_errorEEEE5cloneEv@Base 1.6
 (optional=templinst)_ZNK5boost16exception_detail10clone_implINS0_19error_info_injectorINS_10lock_errorEEEE7rethrowEv@Base 1.6
 (optional=templinst)_ZNK5boost16exception_detail10clone_implINS0_19error_info_injectorINS_15condition_errorEEEE5cloneEv@Base 1.6
 (optional=templinst)_ZNK5boost16exception_detail10clone_implINS0_19error_info_injectorINS_15condition_errorEEEE7rethrowEv@Base 1.6
 (optional=templinst)_ZNK5boost16exception_detail10clone_implINS0_19error_info_injectorINS_17bad_function_callEEEE5cloneEv@Base 1.6
 (optional=templinst)_ZNK5boost16exception_detail10clone_implINS0_19error_info_injectorINS_17bad_function_callEEEE7rethrowEv@Base 1.6
 (optional=templinst)_ZNK5boost16exception_detail10clone_implINS0_19error_info_injectorINS_21thread_resource_errorEEEE5cloneEv@Base 1.6
 (optional=templinst)_ZNK5boost16exception_detail10clone_implINS0_19error_info_injectorINS_21thread_resource_errorEEEE7rethrowEv@Base 1.6
 (optional=templinst)_ZNK5boost16exception_detail10clone_implINS0_19error_info_injectorINS_9gregorian16bad_day_of_monthEEEE5cloneEv@Base 1.6
 (optional=templinst)_ZNK5boost16exception_detail10clone_implINS0_19error_info_injectorINS_9gregorian16bad_day_of_monthEEEE7rethrowEv@Base 1.6
 (optional=templinst)_ZNK5boost16exception_detail10clone_implINS0_19error_info_injectorINS_9gregorian8bad_yearEEEE5cloneEv@Base 1.6
 (optional=templinst)_ZNK5boost16exception_detail10clone_implINS0_19error_info_injectorINS_9gregorian8bad_yearEEEE7rethrowEv@Base 1.6
 (optional=templinst)_ZNK5boost16exception_detail10clone_implINS0_19error_info_injectorINS_9gregorian9bad_monthEEEE5cloneEv@Base 1.6
 (optional=templinst)_ZNK5boost16exception_detail10clone_implINS0_19error_info_injectorINS_9gregorian9bad_monthEEEE7rethrowEv@Base 1.6
 (optional=templinst)_ZNK5boost16exception_detail10clone_implINS0_19error_info_injectorISt13runtime_errorEEE5cloneEv@Base 1.6
 (optional=templinst)_ZNK5boost16exception_detail10clone_implINS0_19error_info_injectorISt13runtime_errorEEE7rethrowEv@Base 1.6
 _ZNK5boost21thread_resource_error4whatEv@Base 1.6
 (optional=templinst)_ZNK5boost23enable_shared_from_thisINS_6detail16thread_data_baseEE22_internal_accept_ownerIS2_NS1_11thread_dataINS_3_bi6bind_tIvNS_4_mfi3mf0IvN14openni_wrapper12OpenNIDeviceEEENS6_5list1INS6_5valueIPSB_EEEEEEEEEEvPKNS_10shared_ptrIT_EEPT0_@Base 1.6
 (optional=templinst)_ZNK5boost23enable_shared_from_thisINS_6detail16thread_data_baseEE22_internal_accept_ownerIS2_NS1_11thread_dataINS_3_bi6bind_tIvNS_4_mfi3mf0IvN14openni_wrapper9DeviceONIEEENS6_5list1INS6_5valueIPSB_EEEEEEEEEEvPKNS_10shared_ptrIT_EEPT0_@Base 1.6
 (optional=templinst)_ZNK5boost4_mfi3mf2IvN3pcl10ONIGrabberENS_10shared_ptrIN14openni_wrapper10DepthImageEEEPvEclERS3_S7_S8_@Base 1.6
 (optional=templinst)_ZNK5boost4_mfi3mf2IvN3pcl10ONIGrabberENS_10shared_ptrIN14openni_wrapper5ImageEEEPvEclERS3_S7_S8_@Base 1.6
 (optional=templinst)_ZNK5boost4_mfi3mf2IvN3pcl10ONIGrabberENS_10shared_ptrIN14openni_wrapper7IRImageEEEPvEclERS3_S7_S8_@Base 1.6
 (optional=templinst)_ZNK5boost4_mfi3mf2IvN3pcl10ONIGrabberERKNS_10shared_ptrIN14openni_wrapper5ImageEEERKNS4_INS5_10DepthImageEEEEclEPS3_S9_SD_@Base 1.6
 (optional=templinst)_ZNK5boost4_mfi3mf2IvN3pcl13OpenNIGrabberENS_10shared_ptrIN14openni_wrapper10DepthImageEEEPvEclERS3_S7_S8_@Base 1.6
 (optional=templinst)_ZNK5boost4_mfi3mf2IvN3pcl13OpenNIGrabberENS_10shared_ptrIN14openni_wrapper5ImageEEEPvEclERS3_S7_S8_@Base 1.6
 (optional=templinst)_ZNK5boost4_mfi3mf2IvN3pcl13OpenNIGrabberENS_10shared_ptrIN14openni_wrapper7IRImageEEEPvEclERS3_S7_S8_@Base 1.6
 (optional=templinst)_ZNK5boost4_mfi3mf2IvN3pcl13OpenNIGrabberERKNS_10shared_ptrIN14openni_wrapper5ImageEEERKNS4_INS5_10DepthImageEEEEclEPS3_S9_SD_@Base 1.6
 (optional=templinst)_ZNK5boost4_mfi3mf2IvN3pcl13OpenNIGrabberERKNS_10shared_ptrIN14openni_wrapper7IRImageEEERKNS4_INS5_10DepthImageEEEEclEPS3_S9_SD_@Base 1.6
 _ZNK5boost6system12system_error4whatEv@Base 1.6
 _ZNK5boost6system14error_category10equivalentERKNS0_10error_codeEi@Base 1.6
 _ZNK5boost6system14error_category10equivalentEiRKNS0_15error_conditionE@Base 1.6
 _ZNK5boost6system14error_category23default_error_conditionEi@Base 1.6
 _ZNK5boost7numeric16bad_numeric_cast4whatEv@Base 1.6
 _ZNK5boost7numeric17negative_overflow4whatEv@Base 1.6
 _ZNK5boost7numeric17positive_overflow4whatEv@Base 1.6
 (optional=templinst)_ZNK5boost8signals26detail12signal1_implIvRKNS_10shared_ptrIKN3pcl10PointCloudIN5Eigen6MatrixIfLin1ELin1ELi0ELin1ELin1EEEEEEENS0_19optional_last_valueIvEEiSt4lessIiENS_8functionIFvSD_EEENSI_IFvRKNS0_10connectionESD_EEENS0_5mutexEE18get_readable_stateEv@Base 1.6
 (optional=templinst)_ZNK5boost8signals26detail12signal1_implIvRKNS_10shared_ptrIKN3pcl10PointCloudIN5Eigen6MatrixIfLin1ELin1ELi0ELin1ELin1EEEEEEENS0_19optional_last_valueIvEEiSt4lessIiENS_8functionIFvSD_EEENSI_IFvRKNS0_10connectionESD_EEENS0_5mutexEE25force_cleanup_connectionsEPKNS1_12grouped_listIiSH_NS3_INS1_15connection_bodyISt4pairINS1_15slot_meta_groupENS_8optionalIiEEENS0_5slot1IvSD_SK_EESQ_EEEEEE@Base 1.6
 (optional=templinst)_ZNK5boost8signals26detail12signal1_implIvRKNS_10shared_ptrIKN3pcl10PointCloudIN5Eigen6MatrixIfLin1ELin1ELi0ELin1ELin1EEEEEEENS0_19optional_last_valueIvEEiSt4lessIiENS_8functionIFvSD_EEENSI_IFvRKNS0_10connectionESD_EEENS0_5mutexEE26nolock_cleanup_connectionsEbj@Base 1.6
 (optional=templinst)_ZNK5boost8signals26detail12signal1_implIvRKNS_10shared_ptrIKN3pcl10PointCloudIN5Eigen6MatrixIfLin1ELin1ELi0ELin1ELin1EEEEEEENS0_19optional_last_valueIvEEiSt4lessIiENS_8functionIFvSD_EEENSI_IFvRKNS0_10connectionESD_EEENS0_5mutexEE31nolock_cleanup_connections_fromEbRKSt14_List_iteratorINS3_INS1_15connection_bodyISt4pairINS1_15slot_meta_groupENS_8optionalIiEEENS0_5slot1IvSD_SK_EESQ_EEEEEj@Base 1.6
 (optional=templinst)_ZNK5boost8signals26detail12signal1_implIvRKNS_10shared_ptrIKN3pcl10PointCloudIN5Eigen6MatrixIfLin1ELin1ELi0ELin1ELin1EEEEEEENS0_19optional_last_valueIvEEiSt4lessIiENS_8functionIFvSD_EEENSI_IFvRKNS0_10connectionESD_EEENS0_5mutexEE9num_slotsEv@Base 1.6
 (optional=templinst)_ZNK5boost8signals26detail12signal1_implIvRKNS_10shared_ptrIKN3pcl10PointCloudINS4_11PointXYZRGBEEEEENS0_19optional_last_valueIvEEiSt4lessIiENS_8functionIFvSB_EEENSG_IFvRKNS0_10connectionESB_EEENS0_5mutexEE18get_readable_stateEv@Base 1.6
 (optional=templinst)_ZNK5boost8signals26detail12signal1_implIvRKNS_10shared_ptrIKN3pcl10PointCloudINS4_11PointXYZRGBEEEEENS0_19optional_last_valueIvEEiSt4lessIiENS_8functionIFvSB_EEENSG_IFvRKNS0_10connectionESB_EEENS0_5mutexEE25force_cleanup_connectionsEPKNS1_12grouped_listIiSF_NS3_INS1_15connection_bodyISt4pairINS1_15slot_meta_groupENS_8optionalIiEEENS0_5slot1IvSB_SI_EESO_EEEEEE@Base 1.6
 (optional=templinst)_ZNK5boost8signals26detail12signal1_implIvRKNS_10shared_ptrIKN3pcl10PointCloudINS4_11PointXYZRGBEEEEENS0_19optional_last_valueIvEEiSt4lessIiENS_8functionIFvSB_EEENSG_IFvRKNS0_10connectionESB_EEENS0_5mutexEE26nolock_cleanup_connectionsEbj@Base 1.6
 (optional=templinst)_ZNK5boost8signals26detail12signal1_implIvRKNS_10shared_ptrIKN3pcl10PointCloudINS4_11PointXYZRGBEEEEENS0_19optional_last_valueIvEEiSt4lessIiENS_8functionIFvSB_EEENSG_IFvRKNS0_10connectionESB_EEENS0_5mutexEE31nolock_cleanup_connections_fromEbRKSt14_List_iteratorINS3_INS1_15connection_bodyISt4pairINS1_15slot_meta_groupENS_8optionalIiEEENS0_5slot1IvSB_SI_EESO_EEEEEj@Base 1.6
 (optional=templinst)_ZNK5boost8signals26detail12signal1_implIvRKNS_10shared_ptrIKN3pcl10PointCloudINS4_11PointXYZRGBEEEEENS0_19optional_last_valueIvEEiSt4lessIiENS_8functionIFvSB_EEENSG_IFvRKNS0_10connectionESB_EEENS0_5mutexEE9num_slotsEv@Base 1.6
 (optional=templinst)_ZNK5boost8signals26detail12signal1_implIvRKNS_10shared_ptrIKN3pcl10PointCloudINS4_12PointXYZRGBAEEEEENS0_19optional_last_valueIvEEiSt4lessIiENS_8functionIFvSB_EEENSG_IFvRKNS0_10connectionESB_EEENS0_5mutexEE18get_readable_stateEv@Base 1.6
 (optional=templinst)_ZNK5boost8signals26detail12signal1_implIvRKNS_10shared_ptrIKN3pcl10PointCloudINS4_12PointXYZRGBAEEEEENS0_19optional_last_valueIvEEiSt4lessIiENS_8functionIFvSB_EEENSG_IFvRKNS0_10connectionESB_EEENS0_5mutexEE25force_cleanup_connectionsEPKNS1_12grouped_listIiSF_NS3_INS1_15connection_bodyISt4pairINS1_15slot_meta_groupENS_8optionalIiEEENS0_5slot1IvSB_SI_EESO_EEEEEE@Base 1.6
 (optional=templinst)_ZNK5boost8signals26detail12signal1_implIvRKNS_10shared_ptrIKN3pcl10PointCloudINS4_12PointXYZRGBAEEEEENS0_19optional_last_valueIvEEiSt4lessIiENS_8functionIFvSB_EEENSG_IFvRKNS0_10connectionESB_EEENS0_5mutexEE26nolock_cleanup_connectionsEbj@Base 1.6
 (optional=templinst)_ZNK5boost8signals26detail12signal1_implIvRKNS_10shared_ptrIKN3pcl10PointCloudINS4_12PointXYZRGBAEEEEENS0_19optional_last_valueIvEEiSt4lessIiENS_8functionIFvSB_EEENSG_IFvRKNS0_10connectionESB_EEENS0_5mutexEE31nolock_cleanup_connections_fromEbRKSt14_List_iteratorINS3_INS1_15connection_bodyISt4pairINS1_15slot_meta_groupENS_8optionalIiEEENS0_5slot1IvSB_SI_EESO_EEEEEj@Base 1.6
 (optional=templinst)_ZNK5boost8signals26detail12signal1_implIvRKNS_10shared_ptrIKN3pcl10PointCloudINS4_12PointXYZRGBAEEEEENS0_19optional_last_valueIvEEiSt4lessIiENS_8functionIFvSB_EEENSG_IFvRKNS0_10connectionESB_EEENS0_5mutexEE9num_slotsEv@Base 1.6
 (optional=templinst)_ZNK5boost8signals26detail12signal1_implIvRKNS_10shared_ptrIKN3pcl10PointCloudINS4_8PointXYZEEEEENS0_19optional_last_valueIvEEiSt4lessIiENS_8functionIFvSB_EEENSG_IFvRKNS0_10connectionESB_EEENS0_5mutexEE18get_readable_stateEv@Base 1.6
 (optional=templinst)_ZNK5boost8signals26detail12signal1_implIvRKNS_10shared_ptrIKN3pcl10PointCloudINS4_8PointXYZEEEEENS0_19optional_last_valueIvEEiSt4lessIiENS_8functionIFvSB_EEENSG_IFvRKNS0_10connectionESB_EEENS0_5mutexEE25force_cleanup_connectionsEPKNS1_12grouped_listIiSF_NS3_INS1_15connection_bodyISt4pairINS1_15slot_meta_groupENS_8optionalIiEEENS0_5slot1IvSB_SI_EESO_EEEEEE@Base 1.6
 (optional=templinst)_ZNK5boost8signals26detail12signal1_implIvRKNS_10shared_ptrIKN3pcl10PointCloudINS4_8PointXYZEEEEENS0_19optional_last_valueIvEEiSt4lessIiENS_8functionIFvSB_EEENSG_IFvRKNS0_10connectionESB_EEENS0_5mutexEE26nolock_cleanup_connectionsEbj@Base 1.6
 (optional=templinst)_ZNK5boost8signals26detail12signal1_implIvRKNS_10shared_ptrIKN3pcl10PointCloudINS4_8PointXYZEEEEENS0_19optional_last_valueIvEEiSt4lessIiENS_8functionIFvSB_EEENSG_IFvRKNS0_10connectionESB_EEENS0_5mutexEE31nolock_cleanup_connections_fromEbRKSt14_List_iteratorINS3_INS1_15connection_bodyISt4pairINS1_15slot_meta_groupENS_8optionalIiEEENS0_5slot1IvSB_SI_EESO_EEEEEj@Base 1.6
 (optional=templinst)_ZNK5boost8signals26detail12signal1_implIvRKNS_10shared_ptrIKN3pcl10PointCloudINS4_8PointXYZEEEEENS0_19optional_last_valueIvEEiSt4lessIiENS_8functionIFvSB_EEENSG_IFvRKNS0_10connectionESB_EEENS0_5mutexEE9num_slotsEv@Base 1.6
 (optional=templinst)_ZNK5boost8signals26detail12signal1_implIvRKNS_10shared_ptrIKN3pcl10PointCloudINS4_9PointXYZIEEEEENS0_19optional_last_valueIvEEiSt4lessIiENS_8functionIFvSB_EEENSG_IFvRKNS0_10connectionESB_EEENS0_5mutexEE18get_readable_stateEv@Base 1.6
 (optional=templinst)_ZNK5boost8signals26detail12signal1_implIvRKNS_10shared_ptrIKN3pcl10PointCloudINS4_9PointXYZIEEEEENS0_19optional_last_valueIvEEiSt4lessIiENS_8functionIFvSB_EEENSG_IFvRKNS0_10connectionESB_EEENS0_5mutexEE25force_cleanup_connectionsEPKNS1_12grouped_listIiSF_NS3_INS1_15connection_bodyISt4pairINS1_15slot_meta_groupENS_8optionalIiEEENS0_5slot1IvSB_SI_EESO_EEEEEE@Base 1.6
 (optional=templinst)_ZNK5boost8signals26detail12signal1_implIvRKNS_10shared_ptrIKN3pcl10PointCloudINS4_9PointXYZIEEEEENS0_19optional_last_valueIvEEiSt4lessIiENS_8functionIFvSB_EEENSG_IFvRKNS0_10connectionESB_EEENS0_5mutexEE26nolock_cleanup_connectionsEbj@Base 1.6
 (optional=templinst)_ZNK5boost8signals26detail12signal1_implIvRKNS_10shared_ptrIKN3pcl10PointCloudINS4_9PointXYZIEEEEENS0_19optional_last_valueIvEEiSt4lessIiENS_8functionIFvSB_EEENSG_IFvRKNS0_10connectionESB_EEENS0_5mutexEE31nolock_cleanup_connections_fromEbRKSt14_List_iteratorINS3_INS1_15connection_bodyISt4pairINS1_15slot_meta_groupENS_8optionalIiEEENS0_5slot1IvSB_SI_EESO_EEEEEj@Base 1.6
 (optional=templinst)_ZNK5boost8signals26detail12signal1_implIvRKNS_10shared_ptrIKN3pcl10PointCloudINS4_9PointXYZIEEEEENS0_19optional_last_valueIvEEiSt4lessIiENS_8functionIFvSB_EEENSG_IFvRKNS0_10connectionESB_EEENS0_5mutexEE9num_slotsEv@Base 1.6
 (optional=templinst)_ZNK5boost8signals26detail12signal1_implIvRKNS_10shared_ptrIN14openni_wrapper10DepthImageEEENS0_19optional_last_valueIvEEiSt4lessIiENS_8functionIFvS8_EEENSD_IFvRKNS0_10connectionES8_EEENS0_5mutexEE18get_readable_stateEv@Base 1.6
 (optional=templinst)_ZNK5boost8signals26detail12signal1_implIvRKNS_10shared_ptrIN14openni_wrapper10DepthImageEEENS0_19optional_last_valueIvEEiSt4lessIiENS_8functionIFvS8_EEENSD_IFvRKNS0_10connectionES8_EEENS0_5mutexEE25force_cleanup_connectionsEPKNS1_12grouped_listIiSC_NS3_INS1_15connection_bodyISt4pairINS1_15slot_meta_groupENS_8optionalIiEEENS0_5slot1IvS8_SF_EESL_EEEEEE@Base 1.6
 (optional=templinst)_ZNK5boost8signals26detail12signal1_implIvRKNS_10shared_ptrIN14openni_wrapper10DepthImageEEENS0_19optional_last_valueIvEEiSt4lessIiENS_8functionIFvS8_EEENSD_IFvRKNS0_10connectionES8_EEENS0_5mutexEE26nolock_cleanup_connectionsEbj@Base 1.6
 (optional=templinst)_ZNK5boost8signals26detail12signal1_implIvRKNS_10shared_ptrIN14openni_wrapper10DepthImageEEENS0_19optional_last_valueIvEEiSt4lessIiENS_8functionIFvS8_EEENSD_IFvRKNS0_10connectionES8_EEENS0_5mutexEE31nolock_cleanup_connections_fromEbRKSt14_List_iteratorINS3_INS1_15connection_bodyISt4pairINS1_15slot_meta_groupENS_8optionalIiEEENS0_5slot1IvS8_SF_EESL_EEEEEj@Base 1.6
 (optional=templinst)_ZNK5boost8signals26detail12signal1_implIvRKNS_10shared_ptrIN14openni_wrapper10DepthImageEEENS0_19optional_last_valueIvEEiSt4lessIiENS_8functionIFvS8_EEENSD_IFvRKNS0_10connectionES8_EEENS0_5mutexEE9num_slotsEv@Base 1.6
 (optional=templinst)_ZNK5boost8signals26detail12signal1_implIvRKNS_10shared_ptrIN14openni_wrapper5ImageEEENS0_19optional_last_valueIvEEiSt4lessIiENS_8functionIFvS8_EEENSD_IFvRKNS0_10connectionES8_EEENS0_5mutexEE18get_readable_stateEv@Base 1.6
 (optional=templinst)_ZNK5boost8signals26detail12signal1_implIvRKNS_10shared_ptrIN14openni_wrapper5ImageEEENS0_19optional_last_valueIvEEiSt4lessIiENS_8functionIFvS8_EEENSD_IFvRKNS0_10connectionES8_EEENS0_5mutexEE25force_cleanup_connectionsEPKNS1_12grouped_listIiSC_NS3_INS1_15connection_bodyISt4pairINS1_15slot_meta_groupENS_8optionalIiEEENS0_5slot1IvS8_SF_EESL_EEEEEE@Base 1.6
 (optional=templinst)_ZNK5boost8signals26detail12signal1_implIvRKNS_10shared_ptrIN14openni_wrapper5ImageEEENS0_19optional_last_valueIvEEiSt4lessIiENS_8functionIFvS8_EEENSD_IFvRKNS0_10connectionES8_EEENS0_5mutexEE26nolock_cleanup_connectionsEbj@Base 1.6
 (optional=templinst)_ZNK5boost8signals26detail12signal1_implIvRKNS_10shared_ptrIN14openni_wrapper5ImageEEENS0_19optional_last_valueIvEEiSt4lessIiENS_8functionIFvS8_EEENSD_IFvRKNS0_10connectionES8_EEENS0_5mutexEE31nolock_cleanup_connections_fromEbRKSt14_List_iteratorINS3_INS1_15connection_bodyISt4pairINS1_15slot_meta_groupENS_8optionalIiEEENS0_5slot1IvS8_SF_EESL_EEEEEj@Base 1.6
 (optional=templinst)_ZNK5boost8signals26detail12signal1_implIvRKNS_10shared_ptrIN14openni_wrapper5ImageEEENS0_19optional_last_valueIvEEiSt4lessIiENS_8functionIFvS8_EEENSD_IFvRKNS0_10connectionES8_EEENS0_5mutexEE9num_slotsEv@Base 1.6
 (optional=templinst)_ZNK5boost8signals26detail12signal1_implIvRKNS_10shared_ptrIN14openni_wrapper7IRImageEEENS0_19optional_last_valueIvEEiSt4lessIiENS_8functionIFvS8_EEENSD_IFvRKNS0_10connectionES8_EEENS0_5mutexEE18get_readable_stateEv@Base 1.6
 (optional=templinst)_ZNK5boost8signals26detail12signal1_implIvRKNS_10shared_ptrIN14openni_wrapper7IRImageEEENS0_19optional_last_valueIvEEiSt4lessIiENS_8functionIFvS8_EEENSD_IFvRKNS0_10connectionES8_EEENS0_5mutexEE25force_cleanup_connectionsEPKNS1_12grouped_listIiSC_NS3_INS1_15connection_bodyISt4pairINS1_15slot_meta_groupENS_8optionalIiEEENS0_5slot1IvS8_SF_EESL_EEEEEE@Base 1.6
 (optional=templinst)_ZNK5boost8signals26detail12signal1_implIvRKNS_10shared_ptrIN14openni_wrapper7IRImageEEENS0_19optional_last_valueIvEEiSt4lessIiENS_8functionIFvS8_EEENSD_IFvRKNS0_10connectionES8_EEENS0_5mutexEE26nolock_cleanup_connectionsEbj@Base 1.6
 (optional=templinst)_ZNK5boost8signals26detail12signal1_implIvRKNS_10shared_ptrIN14openni_wrapper7IRImageEEENS0_19optional_last_valueIvEEiSt4lessIiENS_8functionIFvS8_EEENSD_IFvRKNS0_10connectionES8_EEENS0_5mutexEE31nolock_cleanup_connections_fromEbRKSt14_List_iteratorINS3_INS1_15connection_bodyISt4pairINS1_15slot_meta_groupENS_8optionalIiEEENS0_5slot1IvS8_SF_EESL_EEEEEj@Base 1.6
 (optional=templinst)_ZNK5boost8signals26detail12signal1_implIvRKNS_10shared_ptrIN14openni_wrapper7IRImageEEENS0_19optional_last_valueIvEEiSt4lessIiENS_8functionIFvS8_EEENSD_IFvRKNS0_10connectionES8_EEENS0_5mutexEE9num_slotsEv@Base 1.6
 (optional=templinst)_ZNK5boost8signals26detail12signal3_implIvRKNS_10shared_ptrIN14openni_wrapper5ImageEEERKNS3_INS4_10DepthImageEEEfNS0_19optional_last_valueIvEEiSt4lessIiENS_8functionIFvS8_SC_fEEENSH_IFvRKNS0_10connectionES8_SC_fEEENS0_5mutexEE18get_readable_stateEv@Base 1.6
 (optional=templinst)_ZNK5boost8signals26detail12signal3_implIvRKNS_10shared_ptrIN14openni_wrapper5ImageEEERKNS3_INS4_10DepthImageEEEfNS0_19optional_last_valueIvEEiSt4lessIiENS_8functionIFvS8_SC_fEEENSH_IFvRKNS0_10connectionES8_SC_fEEENS0_5mutexEE25force_cleanup_connectionsEPKNS1_12grouped_listIiSG_NS3_INS1_15connection_bodyISt4pairINS1_15slot_meta_groupENS_8optionalIiEEENS0_5slot3IvS8_SC_fSJ_EESP_EEEEEE@Base 1.6
 (optional=templinst)_ZNK5boost8signals26detail12signal3_implIvRKNS_10shared_ptrIN14openni_wrapper5ImageEEERKNS3_INS4_10DepthImageEEEfNS0_19optional_last_valueIvEEiSt4lessIiENS_8functionIFvS8_SC_fEEENSH_IFvRKNS0_10connectionES8_SC_fEEENS0_5mutexEE26nolock_cleanup_connectionsEbj@Base 1.6
 (optional=templinst)_ZNK5boost8signals26detail12signal3_implIvRKNS_10shared_ptrIN14openni_wrapper5ImageEEERKNS3_INS4_10DepthImageEEEfNS0_19optional_last_valueIvEEiSt4lessIiENS_8functionIFvS8_SC_fEEENSH_IFvRKNS0_10connectionES8_SC_fEEENS0_5mutexEE31nolock_cleanup_connections_fromEbRKSt14_List_iteratorINS3_INS1_15connection_bodyISt4pairINS1_15slot_meta_groupENS_8optionalIiEEENS0_5slot3IvS8_SC_fSJ_EESP_EEEEEj@Base 1.6
 (optional=templinst)_ZNK5boost8signals26detail12signal3_implIvRKNS_10shared_ptrIN14openni_wrapper5ImageEEERKNS3_INS4_10DepthImageEEEfNS0_19optional_last_valueIvEEiSt4lessIiENS_8functionIFvS8_SC_fEEENSH_IFvRKNS0_10connectionES8_SC_fEEENS0_5mutexEE9num_slotsEv@Base 1.6
 (optional=templinst)_ZNK5boost8signals26detail12signal3_implIvRKNS_10shared_ptrIN14openni_wrapper7IRImageEEERKNS3_INS4_10DepthImageEEEfNS0_19optional_last_valueIvEEiSt4lessIiENS_8functionIFvS8_SC_fEEENSH_IFvRKNS0_10connectionES8_SC_fEEENS0_5mutexEE18get_readable_stateEv@Base 1.6
 (optional=templinst)_ZNK5boost8signals26detail12signal3_implIvRKNS_10shared_ptrIN14openni_wrapper7IRImageEEERKNS3_INS4_10DepthImageEEEfNS0_19optional_last_valueIvEEiSt4lessIiENS_8functionIFvS8_SC_fEEENSH_IFvRKNS0_10connectionES8_SC_fEEENS0_5mutexEE25force_cleanup_connectionsEPKNS1_12grouped_listIiSG_NS3_INS1_15connection_bodyISt4pairINS1_15slot_meta_groupENS_8optionalIiEEENS0_5slot3IvS8_SC_fSJ_EESP_EEEEEE@Base 1.6
 (optional=templinst)_ZNK5boost8signals26detail12signal3_implIvRKNS_10shared_ptrIN14openni_wrapper7IRImageEEERKNS3_INS4_10DepthImageEEEfNS0_19optional_last_valueIvEEiSt4lessIiENS_8functionIFvS8_SC_fEEENSH_IFvRKNS0_10connectionES8_SC_fEEENS0_5mutexEE26nolock_cleanup_connectionsEbj@Base 1.6
 (optional=templinst)_ZNK5boost8signals26detail12signal3_implIvRKNS_10shared_ptrIN14openni_wrapper7IRImageEEERKNS3_INS4_10DepthImageEEEfNS0_19optional_last_valueIvEEiSt4lessIiENS_8functionIFvS8_SC_fEEENSH_IFvRKNS0_10connectionES8_SC_fEEENS0_5mutexEE31nolock_cleanup_connections_fromEbRKSt14_List_iteratorINS3_INS1_15connection_bodyISt4pairINS1_15slot_meta_groupENS_8optionalIiEEENS0_5slot3IvS8_SC_fSJ_EESP_EEEEEj@Base 1.6
 (optional=templinst)_ZNK5boost8signals26detail12signal3_implIvRKNS_10shared_ptrIN14openni_wrapper7IRImageEEERKNS3_INS4_10DepthImageEEEfNS0_19optional_last_valueIvEEiSt4lessIiENS_8functionIFvS8_SC_fEEENSH_IFvRKNS0_10connectionES8_SC_fEEENS0_5mutexEE9num_slotsEv@Base 1.6
 (optional=templinst)_ZNK5boost8signals26detail15connection_bodyISt4pairINS1_15slot_meta_groupENS_8optionalIiEEENS0_5slot1IvRKNS_10shared_ptrIKN3pcl10PointCloudIN5Eigen6MatrixIfLin1ELin1ELi0ELin1ELin1EEEEEEENS_8functionIFvSJ_EEEEENS0_5mutexEE27nolock_grab_tracked_objectsISt20back_insert_iteratorINS1_11auto_bufferINS_7variantINS9_IvEENS1_23foreign_void_shared_ptrENS_6detail7variant5void_ESY_SY_SY_SY_SY_SY_SY_SY_SY_SY_SY_SY_SY_SY_SY_SY_SY_EENS1_15store_n_objectsILj10EEENS1_19default_grow_policyESaISZ_EEEEEEvT_@Base 1.6
 (optional=templinst)_ZNK5boost8signals26detail15connection_bodyISt4pairINS1_15slot_meta_groupENS_8optionalIiEEENS0_5slot1IvRKNS_10shared_ptrIKN3pcl10PointCloudINSA_11PointXYZRGBEEEEENS_8functionIFvSH_EEEEENS0_5mutexEE27nolock_grab_tracked_objectsISt20back_insert_iteratorINS1_11auto_bufferINS_7variantINS9_IvEENS1_23foreign_void_shared_ptrENS_6detail7variant5void_ESW_SW_SW_SW_SW_SW_SW_SW_SW_SW_SW_SW_SW_SW_SW_SW_SW_EENS1_15store_n_objectsILj10EEENS1_19default_grow_policyESaISX_EEEEEEvT_@Base 1.6
 (optional=templinst)_ZNK5boost8signals26detail15connection_bodyISt4pairINS1_15slot_meta_groupENS_8optionalIiEEENS0_5slot1IvRKNS_10shared_ptrIKN3pcl10PointCloudINSA_12PointXYZRGBAEEEEENS_8functionIFvSH_EEEEENS0_5mutexEE27nolock_grab_tracked_objectsISt20back_insert_iteratorINS1_11auto_bufferINS_7variantINS9_IvEENS1_23foreign_void_shared_ptrENS_6detail7variant5void_ESW_SW_SW_SW_SW_SW_SW_SW_SW_SW_SW_SW_SW_SW_SW_SW_SW_EENS1_15store_n_objectsILj10EEENS1_19default_grow_policyESaISX_EEEEEEvT_@Base 1.6
 (optional=templinst)_ZNK5boost8signals26detail15connection_bodyISt4pairINS1_15slot_meta_groupENS_8optionalIiEEENS0_5slot1IvRKNS_10shared_ptrIKN3pcl10PointCloudINSA_8PointXYZEEEEENS_8functionIFvSH_EEEEENS0_5mutexEE27nolock_grab_tracked_objectsISt20back_insert_iteratorINS1_11auto_bufferINS_7variantINS9_IvEENS1_23foreign_void_shared_ptrENS_6detail7variant5void_ESW_SW_SW_SW_SW_SW_SW_SW_SW_SW_SW_SW_SW_SW_SW_SW_SW_EENS1_15store_n_objectsILj10EEENS1_19default_grow_policyESaISX_EEEEEEvT_@Base 1.6
 (optional=templinst)_ZNK5boost8signals26detail15connection_bodyISt4pairINS1_15slot_meta_groupENS_8optionalIiEEENS0_5slot1IvRKNS_10shared_ptrIKN3pcl10PointCloudINSA_9PointXYZIEEEEENS_8functionIFvSH_EEEEENS0_5mutexEE27nolock_grab_tracked_objectsISt20back_insert_iteratorINS1_11auto_bufferINS_7variantINS9_IvEENS1_23foreign_void_shared_ptrENS_6detail7variant5void_ESW_SW_SW_SW_SW_SW_SW_SW_SW_SW_SW_SW_SW_SW_SW_SW_SW_EENS1_15store_n_objectsILj10EEENS1_19default_grow_policyESaISX_EEEEEEvT_@Base 1.6
 (optional=templinst)_ZNK5boost8signals26detail15connection_bodyISt4pairINS1_15slot_meta_groupENS_8optionalIiEEENS0_5slot1IvRKNS_10shared_ptrIN14openni_wrapper10DepthImageEEENS_8functionIFvSE_EEEEENS0_5mutexEE27nolock_grab_tracked_objectsISt20back_insert_iteratorINS1_11auto_bufferINS_7variantINS9_IvEENS1_23foreign_void_shared_ptrENS_6detail7variant5void_EST_ST_ST_ST_ST_ST_ST_ST_ST_ST_ST_ST_ST_ST_ST_ST_ST_EENS1_15store_n_objectsILj10EEENS1_19default_grow_policyESaISU_EEEEEEvT_@Base 1.6
 (optional=templinst)_ZNK5boost8signals26detail15connection_bodyISt4pairINS1_15slot_meta_groupENS_8optionalIiEEENS0_5slot1IvRKNS_10shared_ptrIN14openni_wrapper5ImageEEENS_8functionIFvSE_EEEEENS0_5mutexEE27nolock_grab_tracked_objectsISt20back_insert_iteratorINS1_11auto_bufferINS_7variantINS9_IvEENS1_23foreign_void_shared_ptrENS_6detail7variant5void_EST_ST_ST_ST_ST_ST_ST_ST_ST_ST_ST_ST_ST_ST_ST_ST_ST_EENS1_15store_n_objectsILj10EEENS1_19default_grow_policyESaISU_EEEEEEvT_@Base 1.6
 (optional=templinst)_ZNK5boost8signals26detail15connection_bodyISt4pairINS1_15slot_meta_groupENS_8optionalIiEEENS0_5slot1IvRKNS_10shared_ptrIN14openni_wrapper7IRImageEEENS_8functionIFvSE_EEEEENS0_5mutexEE27nolock_grab_tracked_objectsISt20back_insert_iteratorINS1_11auto_bufferINS_7variantINS9_IvEENS1_23foreign_void_shared_ptrENS_6detail7variant5void_EST_ST_ST_ST_ST_ST_ST_ST_ST_ST_ST_ST_ST_ST_ST_ST_ST_EENS1_15store_n_objectsILj10EEENS1_19default_grow_policyESaISU_EEEEEEvT_@Base 1.6
 (optional=templinst)_ZNK5boost8signals26detail15connection_bodyISt4pairINS1_15slot_meta_groupENS_8optionalIiEEENS0_5slot3IvRKNS_10shared_ptrIN14openni_wrapper5ImageEEERKNS9_INSA_10DepthImageEEEfNS_8functionIFvSE_SI_fEEEEENS0_5mutexEE27nolock_grab_tracked_objectsISt20back_insert_iteratorINS1_11auto_bufferINS_7variantINS9_IvEENS1_23foreign_void_shared_ptrENS_6detail7variant5void_ESX_SX_SX_SX_SX_SX_SX_SX_SX_SX_SX_SX_SX_SX_SX_SX_SX_EENS1_15store_n_objectsILj10EEENS1_19default_grow_policyESaISY_EEEEEEvT_@Base 1.6
 (optional=templinst)_ZNK5boost8signals26detail15connection_bodyISt4pairINS1_15slot_meta_groupENS_8optionalIiEEENS0_5slot3IvRKNS_10shared_ptrIN14openni_wrapper7IRImageEEERKNS9_INSA_10DepthImageEEEfNS_8functionIFvSE_SI_fEEEEENS0_5mutexEE27nolock_grab_tracked_objectsISt20back_insert_iteratorINS1_11auto_bufferINS_7variantINS9_IvEENS1_23foreign_void_shared_ptrENS_6detail7variant5void_ESX_SX_SX_SX_SX_SX_SX_SX_SX_SX_SX_SX_SX_SX_SX_SX_SX_EENS1_15store_n_objectsILj10EEENS1_19default_grow_policyESaISY_EEEEEEvT_@Base 1.6
 (optional=templinst)_ZNK5boost8signals26detail20slot_call_iterator_tINS1_12signal1_implIvRKNS_10shared_ptrIKN3pcl10PointCloudIN5Eigen6MatrixIfLin1ELin1ELi0ELin1ELin1EEEEEEENS0_19optional_last_valueIvEEiSt4lessIiENS_8functionIFvSE_EEENSJ_IFvRKNS0_10connectionESE_EEENS0_5mutexEE12slot_invokerESt14_List_iteratorINS4_INS1_15connection_bodyISt4pairINS1_15slot_meta_groupENS_8optionalIiEEENS0_5slot1IvSE_SL_EESR_EEEEES13_E18lock_next_callableEv@Base 1.6
 (optional=templinst)_ZNK5boost8signals26detail20slot_call_iterator_tINS1_12signal1_implIvRKNS_10shared_ptrIKN3pcl10PointCloudINS5_11PointXYZRGBEEEEENS0_19optional_last_valueIvEEiSt4lessIiENS_8functionIFvSC_EEENSH_IFvRKNS0_10connectionESC_EEENS0_5mutexEE12slot_invokerESt14_List_iteratorINS4_INS1_15connection_bodyISt4pairINS1_15slot_meta_groupENS_8optionalIiEEENS0_5slot1IvSC_SJ_EESP_EEEEES11_E18lock_next_callableEv@Base 1.6
 (optional=templinst)_ZNK5boost8signals26detail20slot_call_iterator_tINS1_12signal1_implIvRKNS_10shared_ptrIKN3pcl10PointCloudINS5_12PointXYZRGBAEEEEENS0_19optional_last_valueIvEEiSt4lessIiENS_8functionIFvSC_EEENSH_IFvRKNS0_10connectionESC_EEENS0_5mutexEE12slot_invokerESt14_List_iteratorINS4_INS1_15connection_bodyISt4pairINS1_15slot_meta_groupENS_8optionalIiEEENS0_5slot1IvSC_SJ_EESP_EEEEES11_E18lock_next_callableEv@Base 1.6
 (optional=templinst)_ZNK5boost8signals26detail20slot_call_iterator_tINS1_12signal1_implIvRKNS_10shared_ptrIKN3pcl10PointCloudINS5_8PointXYZEEEEENS0_19optional_last_valueIvEEiSt4lessIiENS_8functionIFvSC_EEENSH_IFvRKNS0_10connectionESC_EEENS0_5mutexEE12slot_invokerESt14_List_iteratorINS4_INS1_15connection_bodyISt4pairINS1_15slot_meta_groupENS_8optionalIiEEENS0_5slot1IvSC_SJ_EESP_EEEEES11_E18lock_next_callableEv@Base 1.6
 (optional=templinst)_ZNK5boost8signals26detail20slot_call_iterator_tINS1_12signal1_implIvRKNS_10shared_ptrIKN3pcl10PointCloudINS5_9PointXYZIEEEEENS0_19optional_last_valueIvEEiSt4lessIiENS_8functionIFvSC_EEENSH_IFvRKNS0_10connectionESC_EEENS0_5mutexEE12slot_invokerESt14_List_iteratorINS4_INS1_15connection_bodyISt4pairINS1_15slot_meta_groupENS_8optionalIiEEENS0_5slot1IvSC_SJ_EESP_EEEEES11_E18lock_next_callableEv@Base 1.6
 (optional=templinst)_ZNK5boost8signals26detail20slot_call_iterator_tINS1_12signal1_implIvRKNS_10shared_ptrIN14openni_wrapper10DepthImageEEENS0_19optional_last_valueIvEEiSt4lessIiENS_8functionIFvS9_EEENSE_IFvRKNS0_10connectionES9_EEENS0_5mutexEE12slot_invokerESt14_List_iteratorINS4_INS1_15connection_bodyISt4pairINS1_15slot_meta_groupENS_8optionalIiEEENS0_5slot1IvS9_SG_EESM_EEEEESY_E18lock_next_callableEv@Base 1.6
 (optional=templinst)_ZNK5boost8signals26detail20slot_call_iterator_tINS1_12signal1_implIvRKNS_10shared_ptrIN14openni_wrapper5ImageEEENS0_19optional_last_valueIvEEiSt4lessIiENS_8functionIFvS9_EEENSE_IFvRKNS0_10connectionES9_EEENS0_5mutexEE12slot_invokerESt14_List_iteratorINS4_INS1_15connection_bodyISt4pairINS1_15slot_meta_groupENS_8optionalIiEEENS0_5slot1IvS9_SG_EESM_EEEEESY_E18lock_next_callableEv@Base 1.6
 (optional=templinst)_ZNK5boost8signals26detail20slot_call_iterator_tINS1_12signal1_implIvRKNS_10shared_ptrIN14openni_wrapper7IRImageEEENS0_19optional_last_valueIvEEiSt4lessIiENS_8functionIFvS9_EEENSE_IFvRKNS0_10connectionES9_EEENS0_5mutexEE12slot_invokerESt14_List_iteratorINS4_INS1_15connection_bodyISt4pairINS1_15slot_meta_groupENS_8optionalIiEEENS0_5slot1IvS9_SG_EESM_EEEEESY_E18lock_next_callableEv@Base 1.6
 (optional=templinst)_ZNK5boost8signals26detail20slot_call_iterator_tINS1_12signal3_implIvRKNS_10shared_ptrIN14openni_wrapper5ImageEEERKNS4_INS5_10DepthImageEEEfNS0_19optional_last_valueIvEEiSt4lessIiENS_8functionIFvS9_SD_fEEENSI_IFvRKNS0_10connectionES9_SD_fEEENS0_5mutexEE12slot_invokerESt14_List_iteratorINS4_INS1_15connection_bodyISt4pairINS1_15slot_meta_groupENS_8optionalIiEEENS0_5slot3IvS9_SD_fSK_EESQ_EEEEES12_E18lock_next_callableEv@Base 1.6
 (optional=templinst)_ZNK5boost8signals26detail20slot_call_iterator_tINS1_12signal3_implIvRKNS_10shared_ptrIN14openni_wrapper7IRImageEEERKNS4_INS5_10DepthImageEEEfNS0_19optional_last_valueIvEEiSt4lessIiENS_8functionIFvS9_SD_fEEENSI_IFvRKNS0_10connectionES9_SD_fEEENS0_5mutexEE12slot_invokerESt14_List_iteratorINS4_INS1_15connection_bodyISt4pairINS1_15slot_meta_groupENS_8optionalIiEEENS0_5slot3IvS9_SD_fSK_EESQ_EEEEES12_E18lock_next_callableEv@Base 1.6
 (optional=templinst)_ZNK5boost8signals26detail21lock_weak_ptr_visitorclINS1_21foreign_void_weak_ptrEEENS_7variantINS_10shared_ptrIvEENS1_23foreign_void_shared_ptrENS_6detail7variant5void_ESB_SB_SB_SB_SB_SB_SB_SB_SB_SB_SB_SB_SB_SB_SB_SB_SB_EERKT_@Base 1.6
 (optional=templinst)_ZNK5boost8signals27signal1IvRKNS_10shared_ptrIKN3pcl10PointCloudIN5Eigen6MatrixIfLin1ELin1ELi0ELin1ELin1EEEEEEENS0_19optional_last_valueIvEEiSt4lessIiENS_8functionIFvSC_EEENSH_IFvRKNS0_10connectionESC_EEENS0_5mutexEE10lock_pimplEv@Base 1.6
 (optional=templinst)_ZNK5boost8signals27signal1IvRKNS_10shared_ptrIKN3pcl10PointCloudINS3_11PointXYZRGBEEEEENS0_19optional_last_valueIvEEiSt4lessIiENS_8functionIFvSA_EEENSF_IFvRKNS0_10connectionESA_EEENS0_5mutexEE10lock_pimplEv@Base 1.6
 (optional=templinst)_ZNK5boost8signals27signal1IvRKNS_10shared_ptrIKN3pcl10PointCloudINS3_12PointXYZRGBAEEEEENS0_19optional_last_valueIvEEiSt4lessIiENS_8functionIFvSA_EEENSF_IFvRKNS0_10connectionESA_EEENS0_5mutexEE10lock_pimplEv@Base 1.6
 (optional=templinst)_ZNK5boost8signals27signal1IvRKNS_10shared_ptrIKN3pcl10PointCloudINS3_8PointXYZEEEEENS0_19optional_last_valueIvEEiSt4lessIiENS_8functionIFvSA_EEENSF_IFvRKNS0_10connectionESA_EEENS0_5mutexEE10lock_pimplEv@Base 1.6
 (optional=templinst)_ZNK5boost8signals27signal1IvRKNS_10shared_ptrIKN3pcl10PointCloudINS3_9PointXYZIEEEEENS0_19optional_last_valueIvEEiSt4lessIiENS_8functionIFvSA_EEENSF_IFvRKNS0_10connectionESA_EEENS0_5mutexEE10lock_pimplEv@Base 1.6
 (optional=templinst)_ZNK5boost8signals27signal1IvRKNS_10shared_ptrIN14openni_wrapper10DepthImageEEENS0_19optional_last_valueIvEEiSt4lessIiENS_8functionIFvS7_EEENSC_IFvRKNS0_10connectionES7_EEENS0_5mutexEE10lock_pimplEv@Base 1.6
 (optional=templinst)_ZNK5boost8signals27signal1IvRKNS_10shared_ptrIN14openni_wrapper5ImageEEENS0_19optional_last_valueIvEEiSt4lessIiENS_8functionIFvS7_EEENSC_IFvRKNS0_10connectionES7_EEENS0_5mutexEE10lock_pimplEv@Base 1.6
 (optional=templinst)_ZNK5boost8signals27signal1IvRKNS_10shared_ptrIN14openni_wrapper7IRImageEEENS0_19optional_last_valueIvEEiSt4lessIiENS_8functionIFvS7_EEENSC_IFvRKNS0_10connectionES7_EEENS0_5mutexEE10lock_pimplEv@Base 1.6
 (optional=templinst)_ZNK5boost8signals27signal3IvRKNS_10shared_ptrIN14openni_wrapper5ImageEEERKNS2_INS3_10DepthImageEEEfNS0_19optional_last_valueIvEEiSt4lessIiENS_8functionIFvS7_SB_fEEENSG_IFvRKNS0_10connectionES7_SB_fEEENS0_5mutexEE10lock_pimplEv@Base 1.6
 (optional=templinst)_ZNK5boost8signals27signal3IvRKNS_10shared_ptrIN14openni_wrapper7IRImageEEERKNS2_INS3_10DepthImageEEEfNS0_19optional_last_valueIvEEiSt4lessIiENS_8functionIFvS7_SB_fEEENSG_IFvRKNS0_10connectionES7_SB_fEEENS0_5mutexEE10lock_pimplEv@Base 1.6
 (optional=templinst)_ZNK5boost9algorithm6detail10is_any_ofFIcEclIcEEbT_@Base 1.6
 (optional=templinst)_ZNK5boost9algorithm6detail13token_finderFINS1_10is_any_ofFIcEEEclIN9__gnu_cxx17__normal_iteratorIPKcSsEEEENS_14iterator_rangeIT_EESD_SD_@Base 1.6
 (optional=templinst)_ZNK5boost9algorithm6detail13token_finderFINS1_10is_any_ofFIcEEEclIN9__gnu_cxx17__normal_iteratorIPcSsEEEENS_14iterator_rangeIT_EESC_SC_@Base 1.6
 (optional=templinst)_ZNK5boost9date_time11int_adapterIlEplIjEES2_RKNS1_IT_EE@Base 1.6
 (optional=templinst)_ZNK5boost9date_time11int_adapterIlEplIlEES2_RKNS1_IT_EE@Base 1.6
 (optional=templinst)_ZNK5boost9function2INS_14iterator_rangeIN9__gnu_cxx17__normal_iteratorIPKcSsEEEES6_S6_EclES6_S6_@Base 1.6
 (optional=templinst)_ZNK5boost9function2INS_14iterator_rangeIN9__gnu_cxx17__normal_iteratorIPcSsEEEES5_S5_EclES5_S5_@Base 1.6
 (optional=templinst)_ZNK5boost9function2IvNS_10shared_ptrIN14openni_wrapper10DepthImageEEEPvEclES4_S5_@Base 1.6
 (optional=templinst)_ZNK5boost9function2IvNS_10shared_ptrIN14openni_wrapper5ImageEEEPvEclES4_S5_@Base 1.6
 (optional=templinst)_ZNK5boost9function2IvNS_10shared_ptrIN14openni_wrapper7IRImageEEEPvEclES4_S5_@Base 1.6
 (optional=templinst)_ZNKSt15_Deque_iteratorISt4pairImN5boost10shared_ptrIN14openni_wrapper10DepthImageEEEERS6_PS6_EixEl@Base 1.6
 (optional=templinst)_ZNKSt15_Deque_iteratorISt4pairImN5boost10shared_ptrIN14openni_wrapper10DepthImageEEEERS6_PS6_EplEl@Base 1.6
 (optional=templinst)_ZNKSt15_Deque_iteratorISt4pairImN5boost10shared_ptrIN14openni_wrapper5ImageEEEERS6_PS6_EixEl@Base 1.6
 (optional=templinst)_ZNKSt15_Deque_iteratorISt4pairImN5boost10shared_ptrIN14openni_wrapper5ImageEEEERS6_PS6_EplEl@Base 1.6
 (optional=templinst)_ZNKSt15_Deque_iteratorISt4pairImN5boost10shared_ptrIN14openni_wrapper7IRImageEEEERS6_PS6_EixEl@Base 1.6
 (optional=templinst)_ZNKSt15_Deque_iteratorISt4pairImN5boost10shared_ptrIN14openni_wrapper7IRImageEEEERS6_PS6_EplEl@Base 1.6
 (optional=templinst)_ZNKSt6vectorI15XnMapOutputModeSaIS0_EE12_M_check_lenEmPKc@Base 1.6
 (optional=templinst)_ZNKSt6vectorIN11sensor_msgs10PointFieldESaIS1_EE12_M_check_lenEmPKc@Base 1.6
 (optional=templinst)_ZNKSt6vectorIN14openni_wrapper12OpenNIDriver13DeviceContextESaIS2_EE12_M_check_lenEmPKc@Base 1.6
 (optional=templinst)_ZNKSt6vectorIN3pcl11PointXYZRGBEN5Eigen29aligned_allocator_indirectionIS1_EEE12_M_check_lenEmPKc@Base 1.6
 (optional=templinst)_ZNKSt6vectorIN3pcl12PointXYZRGBAEN5Eigen29aligned_allocator_indirectionIS1_EEE12_M_check_lenEmPKc@Base 1.6
 (optional=templinst)_ZNKSt6vectorIN3pcl17ChannelPropertiesESaIS1_EE12_M_check_lenEmPKc@Base 1.6
 (optional=templinst)_ZNKSt6vectorIN3pcl8PointXYZEN5Eigen29aligned_allocator_indirectionIS1_EEE12_M_check_lenEmPKc@Base 1.6
 (optional=templinst)_ZNKSt6vectorIN3pcl9PointXYZIEN5Eigen29aligned_allocator_indirectionIS1_EEE12_M_check_lenEmPKc@Base 1.6
 (optional=templinst)_ZNKSt6vectorIPN3pcl6octree14OctreeLeafNodeINS1_26OctreeContainerDataTVectorIiEEEESaIS6_EE12_M_check_lenEmPKc@Base 1.6
 (optional=templinst)_ZNKSt6vectorIPN3pcl6octree18BufferedBranchNodeINS1_20OctreeContainerEmptyIiEEEESaIS6_EE12_M_check_lenEmPKc@Base 1.6
 (optional=templinst)_ZNKSt6vectorIS_IiSaIiEESaIS1_EE12_M_check_lenEmPKc@Base 1.6
 (optional=templinst)_ZNKSt6vectorISsSaISsEE12_M_check_lenEmPKc@Base 1.6
 (optional=templinst)_ZNKSt6vectorISt4pairIi15XnMapOutputModeESaIS2_EE12_M_check_lenEmPKc@Base 1.6
 (optional=templinst)_ZNKSt6vectorIcSaIcEE12_M_check_lenEmPKc@Base 1.6
 (optional=templinst)_ZNKSt6vectorIhSaIhEE12_M_check_lenEmPKc@Base 1.6
 (optional=templinst)_ZNKSt6vectorIiSaIiEE12_M_check_lenEmPKc@Base 1.6
 (optional=templinst)_ZNKSt6vectorIjSaIjEE12_M_check_lenEmPKc@Base 1.6
 (optional=templinst)_ZNKSt6vectorImSaImEE12_M_check_lenEmPKc@Base 1.6
 (optional=templinst)_ZNKSt8_Rb_treeISsSt4pairIKSsPN5boost8signals211signal_baseEESt10_Select1stIS6_ESt4lessISsESaIS6_EE4findERS1_@Base 1.6
 (optional=templinst)_ZNKSt8_Rb_treeISsSt4pairIKSsjESt10_Select1stIS2_ESt4lessISsESaIS2_EE4findERS1_@Base 1.6
 (optional=templinst)_ZNKSt8_Rb_treeIhSt4pairIKhSt3mapIhjSt4lessIhESaIS0_IS1_jEEEESt10_Select1stIS8_ES4_SaIS8_EE4findERS1_@Base 1.6
 (optional=templinst)_ZNKSt8_Rb_treeIhSt4pairIKhjESt10_Select1stIS2_ESt4lessIhESaIS2_EE4findERS1_@Base 1.6
 (optional=templinst)_ZNKSt8_Rb_treeIiSt4pairIKi15XnMapOutputModeESt10_Select1stIS3_ESt4lessIiESaIS3_EE4findERS1_@Base 1.6
 (optional=templinst)_ZNSs12_S_constructIPcEES0_T_S1_RKSaIcESt20forward_iterator_tag@Base 1.6
 (optional=templinst)_ZNSt10_List_baseIN5boost10shared_ptrINS0_8signals26detail15connection_bodyISt4pairINS3_15slot_meta_groupENS0_8optionalIiEEENS2_5slot1IvRKNS1_IKN3pcl10PointCloudIN5Eigen6MatrixIfLin1ELin1ELi0ELin1ELin1EEEEEEENS0_8functionIFvSK_EEEEENS2_5mutexEEEEESaISR_EE8_M_clearEv@Base 1.6
 (optional=templinst)_ZNSt10_List_baseIN5boost10shared_ptrINS0_8signals26detail15connection_bodyISt4pairINS3_15slot_meta_groupENS0_8optionalIiEEENS2_5slot1IvRKNS1_IKN3pcl10PointCloudINSB_11PointXYZRGBEEEEENS0_8functionIFvSI_EEEEENS2_5mutexEEEEESaISP_EE8_M_clearEv@Base 1.6
 (optional=templinst)_ZNSt10_List_baseIN5boost10shared_ptrINS0_8signals26detail15connection_bodyISt4pairINS3_15slot_meta_groupENS0_8optionalIiEEENS2_5slot1IvRKNS1_IKN3pcl10PointCloudINSB_12PointXYZRGBAEEEEENS0_8functionIFvSI_EEEEENS2_5mutexEEEEESaISP_EE8_M_clearEv@Base 1.6
 (optional=templinst)_ZNSt10_List_baseIN5boost10shared_ptrINS0_8signals26detail15connection_bodyISt4pairINS3_15slot_meta_groupENS0_8optionalIiEEENS2_5slot1IvRKNS1_IKN3pcl10PointCloudINSB_8PointXYZEEEEENS0_8functionIFvSI_EEEEENS2_5mutexEEEEESaISP_EE8_M_clearEv@Base 1.6
 (optional=templinst)_ZNSt10_List_baseIN5boost10shared_ptrINS0_8signals26detail15connection_bodyISt4pairINS3_15slot_meta_groupENS0_8optionalIiEEENS2_5slot1IvRKNS1_IKN3pcl10PointCloudINSB_9PointXYZIEEEEENS0_8functionIFvSI_EEEEENS2_5mutexEEEEESaISP_EE8_M_clearEv@Base 1.6
 (optional=templinst)_ZNSt10_List_baseIN5boost10shared_ptrINS0_8signals26detail15connection_bodyISt4pairINS3_15slot_meta_groupENS0_8optionalIiEEENS2_5slot1IvRKNS1_IN14openni_wrapper10DepthImageEEENS0_8functionIFvSF_EEEEENS2_5mutexEEEEESaISM_EE8_M_clearEv@Base 1.6
 (optional=templinst)_ZNSt10_List_baseIN5boost10shared_ptrINS0_8signals26detail15connection_bodyISt4pairINS3_15slot_meta_groupENS0_8optionalIiEEENS2_5slot1IvRKNS1_IN14openni_wrapper5ImageEEENS0_8functionIFvSF_EEEEENS2_5mutexEEEEESaISM_EE8_M_clearEv@Base 1.6
 (optional=templinst)_ZNSt10_List_baseIN5boost10shared_ptrINS0_8signals26detail15connection_bodyISt4pairINS3_15slot_meta_groupENS0_8optionalIiEEENS2_5slot1IvRKNS1_IN14openni_wrapper7IRImageEEENS0_8functionIFvSF_EEEEENS2_5mutexEEEEESaISM_EE8_M_clearEv@Base 1.6
 (optional=templinst)_ZNSt10_List_baseIN5boost10shared_ptrINS0_8signals26detail15connection_bodyISt4pairINS3_15slot_meta_groupENS0_8optionalIiEEENS2_5slot3IvRKNS1_IN14openni_wrapper5ImageEEERKNS1_INSB_10DepthImageEEEfNS0_8functionIFvSF_SJ_fEEEEENS2_5mutexEEEEESaISQ_EE8_M_clearEv@Base 1.6
 (optional=templinst)_ZNSt10_List_baseIN5boost10shared_ptrINS0_8signals26detail15connection_bodyISt4pairINS3_15slot_meta_groupENS0_8optionalIiEEENS2_5slot3IvRKNS1_IN14openni_wrapper7IRImageEEERKNS1_INSB_10DepthImageEEEfNS0_8functionIFvSF_SJ_fEEEEENS2_5mutexEEEEESaISQ_EE8_M_clearEv@Base 1.6
 (optional=templinst)_ZNSt11_Deque_baseISt4pairImN5boost10shared_ptrIN14openni_wrapper10DepthImageEEEESaIS6_EE17_M_initialize_mapEm@Base 1.6
 (optional=templinst)_ZNSt11_Deque_baseISt4pairImN5boost10shared_ptrIN14openni_wrapper10DepthImageEEEESaIS6_EED1Ev@Base 1.6
 (optional=templinst)_ZNSt11_Deque_baseISt4pairImN5boost10shared_ptrIN14openni_wrapper10DepthImageEEEESaIS6_EED2Ev@Base 1.6
 (optional=templinst)_ZNSt11_Deque_baseISt4pairImN5boost10shared_ptrIN14openni_wrapper5ImageEEEESaIS6_EE17_M_initialize_mapEm@Base 1.6
 (optional=templinst)_ZNSt11_Deque_baseISt4pairImN5boost10shared_ptrIN14openni_wrapper5ImageEEEESaIS6_EED1Ev@Base 1.6
 (optional=templinst)_ZNSt11_Deque_baseISt4pairImN5boost10shared_ptrIN14openni_wrapper5ImageEEEESaIS6_EED2Ev@Base 1.6
 (optional=templinst)_ZNSt11_Deque_baseISt4pairImN5boost10shared_ptrIN14openni_wrapper7IRImageEEEESaIS6_EE17_M_initialize_mapEm@Base 1.6
 (optional=templinst)_ZNSt11_Deque_baseISt4pairImN5boost10shared_ptrIN14openni_wrapper7IRImageEEEESaIS6_EED1Ev@Base 1.6
 (optional=templinst)_ZNSt11_Deque_baseISt4pairImN5boost10shared_ptrIN14openni_wrapper7IRImageEEEESaIS6_EED2Ev@Base 1.6
 (optional=templinst)_ZNSt11__copy_moveILb0ELb0ESt26random_access_iterator_tagE8__copy_mIPKSsPSsEET0_T_S7_S6_@Base 1.6
 (optional=templinst)_ZNSt11__copy_moveILb0ELb0ESt26random_access_iterator_tagE8__copy_mIPSsS3_EET0_T_S5_S4_@Base 1.6
 (optional=templinst)_ZNSt11__copy_moveILb0ELb1ESt26random_access_iterator_tagE8__copy_mI15XnMapOutputModeEEPT_PKS4_S7_S5_@Base 1.6
 (optional=templinst)_ZNSt11__copy_moveILb0ELb1ESt26random_access_iterator_tagE8__copy_mIPN3pcl6octree14OctreeLeafNodeINS4_26OctreeContainerDataTVectorIiEEEEEEPT_PKSA_SD_SB_@Base 1.6
 (optional=templinst)_ZNSt11__copy_moveILb0ELb1ESt26random_access_iterator_tagE8__copy_mIPN3pcl6octree18BufferedBranchNodeINS4_20OctreeContainerEmptyIiEEEEEEPT_PKSA_SD_SB_@Base 1.6
 (optional=templinst)_ZNSt11__copy_moveILb0ELb1ESt26random_access_iterator_tagE8__copy_mIPSt4pairImN5boost10shared_ptrIN14openni_wrapper10DepthImageEEEEEEPT_PKSB_SE_SC_@Base 1.6
 (optional=templinst)_ZNSt11__copy_moveILb0ELb1ESt26random_access_iterator_tagE8__copy_mIPSt4pairImN5boost10shared_ptrIN14openni_wrapper5ImageEEEEEEPT_PKSB_SE_SC_@Base 1.6
 (optional=templinst)_ZNSt11__copy_moveILb0ELb1ESt26random_access_iterator_tagE8__copy_mIPSt4pairImN5boost10shared_ptrIN14openni_wrapper7IRImageEEEEEEPT_PKSB_SE_SC_@Base 1.6
 (optional=templinst)_ZNSt11__copy_moveILb0ELb1ESt26random_access_iterator_tagE8__copy_mIcEEPT_PKS3_S6_S4_@Base 1.6
 (optional=templinst)_ZNSt11__copy_moveILb0ELb1ESt26random_access_iterator_tagE8__copy_mIhEEPT_PKS3_S6_S4_@Base 1.6
 (optional=templinst)_ZNSt11__copy_moveILb0ELb1ESt26random_access_iterator_tagE8__copy_mIiEEPT_PKS3_S6_S4_@Base 1.6
 (optional=templinst)_ZNSt11__copy_moveILb0ELb1ESt26random_access_iterator_tagE8__copy_mIjEEPT_PKS3_S6_S4_@Base 1.6
 (optional=templinst)_ZNSt11__copy_moveILb0ELb1ESt26random_access_iterator_tagE8__copy_mImEEPT_PKS3_S6_S4_@Base 1.6
 (optional=templinst)_ZNSt12_Destroy_auxILb0EE9__destroyIN9__gnu_cxx17__normal_iteratorIPSsSt6vectorISsSaISsEEEEEEvT_S9_@Base 1.6
 (optional=templinst)_ZNSt12_Destroy_auxILb0EE9__destroyIPN11sensor_msgs10PointFieldEEEvT_S5_@Base 1.6
 (optional=templinst)_ZNSt12_Destroy_auxILb0EE9__destroyIPN14openni_wrapper12OpenNIDriver13DeviceContextEEEvT_S6_@Base 1.6
 (optional=templinst)_ZNSt12_Destroy_auxILb0EE9__destroyIPN3pcl17ChannelPropertiesEEEvT_S5_@Base 1.6
 (optional=templinst)_ZNSt12_Destroy_auxILb0EE9__destroyIPN3pcl8VerticesEEEvT_S5_@Base 1.6
 (optional=templinst)_ZNSt12_Destroy_auxILb0EE9__destroyIPN5boost7variantINS2_10shared_ptrIvEENS2_8signals26detail23foreign_void_shared_ptrENS2_6detail7variant5void_ESB_SB_SB_SB_SB_SB_SB_SB_SB_SB_SB_SB_SB_SB_SB_SB_SB_EEEEvT_SE_@Base 1.6
 (optional=templinst)_ZNSt12_Destroy_auxILb0EE9__destroyIPN5boost8signals223shared_connection_blockEEEvT_S6_@Base 1.6
 (optional=templinst)_ZNSt12_Destroy_auxILb0EE9__destroyIPSsEEvT_S3_@Base 1.6
 (optional=templinst)_ZNSt12_Destroy_auxILb0EE9__destroyIPSt4pairISsN3pcl17ChannelPropertiesEEEEvT_S7_@Base 1.6
 (optional=templinst)_ZNSt12_Destroy_auxILb0EE9__destroyIPSt4pairImN5boost10shared_ptrIN14openni_wrapper10DepthImageEEEEEEvT_SA_@Base 1.6
 (optional=templinst)_ZNSt12_Destroy_auxILb0EE9__destroyIPSt4pairImN5boost10shared_ptrIN14openni_wrapper5ImageEEEEEEvT_SA_@Base 1.6
 (optional=templinst)_ZNSt12_Destroy_auxILb0EE9__destroyIPSt4pairImN5boost10shared_ptrIN14openni_wrapper7IRImageEEEEEEvT_SA_@Base 1.6
 (optional=templinst)_ZNSt12_Destroy_auxILb0EE9__destroyIPSt6vectorIiSaIiEEEEvT_S6_@Base 1.6
 (optional=templinst)_ZNSt12_Vector_baseIN11sensor_msgs10PointFieldESaIS1_EED1Ev@Base 1.6
 (optional=templinst)_ZNSt12_Vector_baseIN11sensor_msgs10PointFieldESaIS1_EED2Ev@Base 1.6
 (optional=templinst)_ZNSt12_Vector_baseIN14openni_wrapper12OpenNIDriver13DeviceContextESaIS2_EED1Ev@Base 1.6
 (optional=templinst)_ZNSt12_Vector_baseIN14openni_wrapper12OpenNIDriver13DeviceContextESaIS2_EED2Ev@Base 1.6
 (optional=templinst)_ZNSt12_Vector_baseIN3pcl11PointXYZRGBEN5Eigen29aligned_allocator_indirectionIS1_EEE17_M_create_storageEm@Base 1.6
 (optional=templinst)_ZNSt12_Vector_baseIN3pcl11PointXYZRGBEN5Eigen29aligned_allocator_indirectionIS1_EEED1Ev@Base 1.6
 (optional=templinst)_ZNSt12_Vector_baseIN3pcl11PointXYZRGBEN5Eigen29aligned_allocator_indirectionIS1_EEED2Ev@Base 1.6
 (optional=templinst)_ZNSt12_Vector_baseIN3pcl12PointXYZRGBAEN5Eigen29aligned_allocator_indirectionIS1_EEE17_M_create_storageEm@Base 1.6
 (optional=templinst)_ZNSt12_Vector_baseIN3pcl12PointXYZRGBAEN5Eigen29aligned_allocator_indirectionIS1_EEED1Ev@Base 1.6
 (optional=templinst)_ZNSt12_Vector_baseIN3pcl12PointXYZRGBAEN5Eigen29aligned_allocator_indirectionIS1_EEED2Ev@Base 1.6
 (optional=templinst)_ZNSt12_Vector_baseIN5boost8signals210connectionESaIS2_EED1Ev@Base 1.6
 (optional=templinst)_ZNSt12_Vector_baseIN5boost8signals210connectionESaIS2_EED2Ev@Base 1.6
 (optional=templinst)_ZNSt12_Vector_baseIN5boost8signals223shared_connection_blockESaIS2_EE17_M_create_storageEm@Base 1.6
 (optional=templinst)_ZNSt12_Vector_baseIN5boost8signals223shared_connection_blockESaIS2_EED1Ev@Base 1.6
 (optional=templinst)_ZNSt12_Vector_baseIN5boost8signals223shared_connection_blockESaIS2_EED2Ev@Base 1.6
 (optional=templinst)_ZNSt12_Vector_baseIPcSaIS0_EED1Ev@Base 1.6
 (optional=templinst)_ZNSt12_Vector_baseIPcSaIS0_EED2Ev@Base 1.6
 (optional=templinst)_ZNSt12_Vector_baseISsSaISsEED1Ev@Base 1.6
 (optional=templinst)_ZNSt12_Vector_baseISsSaISsEED2Ev@Base 1.6
 (optional=templinst)_ZNSt12_Vector_baseISt4pairISsN3pcl17ChannelPropertiesEESaIS3_EED1Ev@Base 1.6
 (optional=templinst)_ZNSt12_Vector_baseISt4pairISsN3pcl17ChannelPropertiesEESaIS3_EED2Ev@Base 1.6
 (optional=templinst)_ZNSt12_Vector_baseISt6vectorIiSaIiEESaIS2_EED1Ev@Base 1.6
 (optional=templinst)_ZNSt12_Vector_baseISt6vectorIiSaIiEESaIS2_EED2Ev@Base 1.6
 (optional=templinst)_ZNSt12_Vector_baseIcSaIcEED1Ev@Base 1.6
 (optional=templinst)_ZNSt12_Vector_baseIcSaIcEED2Ev@Base 1.6
 (optional=templinst)_ZNSt12_Vector_baseIiSaIiEED1Ev@Base 1.6
 (optional=templinst)_ZNSt12_Vector_baseIiSaIiEED2Ev@Base 1.6
 _ZNSt13runtime_errorC1ERKS_@Base 1.6
 _ZNSt13runtime_errorC2ERKS_@Base 1.6
 (optional=templinst)_ZNSt15_Deque_iteratorISt4pairImN5boost10shared_ptrIN14openni_wrapper10DepthImageEEEERS6_PS6_EpLEl@Base 1.6
 (optional=templinst)_ZNSt15_Deque_iteratorISt4pairImN5boost10shared_ptrIN14openni_wrapper5ImageEEEERS6_PS6_EpLEl@Base 1.6
 (optional=templinst)_ZNSt15_Deque_iteratorISt4pairImN5boost10shared_ptrIN14openni_wrapper7IRImageEEEERS6_PS6_EpLEl@Base 1.6
 (optional=templinst)_ZNSt15basic_stringbufIcSt11char_traitsIcESaIcEED0Ev@Base 1.6
 (optional=templinst)_ZNSt15basic_stringbufIcSt11char_traitsIcESaIcEED1Ev@Base 1.6
 (optional=templinst)_ZNSt15basic_stringbufIcSt11char_traitsIcESaIcEED2Ev@Base 1.6
 (optional=templinst)_ZNSt20__copy_move_backwardILb0ELb0ESt26random_access_iterator_tagE13__copy_move_bIPN11sensor_msgs10PointFieldES5_EET0_T_S7_S6_@Base 1.6
 (optional=templinst)_ZNSt20__copy_move_backwardILb0ELb0ESt26random_access_iterator_tagE13__copy_move_bIPN14openni_wrapper12OpenNIDriver13DeviceContextES6_EET0_T_S8_S7_@Base 1.6
 (optional=templinst)_ZNSt20__copy_move_backwardILb0ELb0ESt26random_access_iterator_tagE13__copy_move_bIPN3pcl17ChannelPropertiesES5_EET0_T_S7_S6_@Base 1.6
 (optional=templinst)_ZNSt20__copy_move_backwardILb0ELb0ESt26random_access_iterator_tagE13__copy_move_bIPN3pcl8VerticesES5_EET0_T_S7_S6_@Base 1.6
 (optional=templinst)_ZNSt20__copy_move_backwardILb0ELb0ESt26random_access_iterator_tagE13__copy_move_bIPSsS3_EET0_T_S5_S4_@Base 1.6
 (optional=templinst)_ZNSt20__copy_move_backwardILb0ELb0ESt26random_access_iterator_tagE13__copy_move_bIPSt6vectorIiSaIiEES6_EET0_T_S8_S7_@Base 1.6
 (optional=templinst)_ZNSt20__copy_move_backwardILb0ELb1ESt26random_access_iterator_tagE13__copy_move_bIPSt4pairImN5boost10shared_ptrIN14openni_wrapper10DepthImageEEEEEEPT_PKSB_SE_SC_@Base 1.6
 (optional=templinst)_ZNSt20__copy_move_backwardILb0ELb1ESt26random_access_iterator_tagE13__copy_move_bIPSt4pairImN5boost10shared_ptrIN14openni_wrapper5ImageEEEEEEPT_PKSB_SE_SC_@Base 1.6
 (optional=templinst)_ZNSt20__copy_move_backwardILb0ELb1ESt26random_access_iterator_tagE13__copy_move_bIPSt4pairImN5boost10shared_ptrIN14openni_wrapper7IRImageEEEEEEPT_PKSB_SE_SC_@Base 1.6
 (optional=templinst)_ZNSt20__copy_move_backwardILb0ELb1ESt26random_access_iterator_tagE13__copy_move_bIcEEPT_PKS3_S6_S4_@Base 1.6
 (optional=templinst)_ZNSt20__copy_move_backwardILb0ELb1ESt26random_access_iterator_tagE13__copy_move_bIhEEPT_PKS3_S6_S4_@Base 1.6
 (optional=templinst)_ZNSt20__uninitialized_copyILb0EE13__uninit_copyIN9__gnu_cxx17__normal_iteratorIPKN5boost8signals223shared_connection_blockESt6vectorIS6_SaIS6_EEEEPS6_EET0_T_SF_SE_@Base 1.6
 (optional=templinst)_ZNSt20__uninitialized_copyILb0EE13__uninit_copyIN9__gnu_cxx17__normal_iteratorIPKSsSt6vectorISsSaISsEEEEPSsEET0_T_SC_SB_@Base 1.6
 (optional=templinst)_ZNSt20__uninitialized_copyILb0EE13__uninit_copyIPN11sensor_msgs10PointFieldES4_EET0_T_S6_S5_@Base 1.6
 (optional=templinst)_ZNSt20__uninitialized_copyILb0EE13__uninit_copyIPN14openni_wrapper12OpenNIDriver13DeviceContextES5_EET0_T_S7_S6_@Base 1.6
 (optional=templinst)_ZNSt20__uninitialized_copyILb0EE13__uninit_copyIPN3pcl17ChannelPropertiesES4_EET0_T_S6_S5_@Base 1.6
 (optional=templinst)_ZNSt20__uninitialized_copyILb0EE13__uninit_copyIPN3pcl8VerticesES4_EET0_T_S6_S5_@Base 1.6
 (optional=templinst)_ZNSt20__uninitialized_copyILb0EE13__uninit_copyIPN5boost7variantINS2_10shared_ptrIvEENS2_8signals26detail23foreign_void_shared_ptrENS2_6detail7variant5void_ESB_SB_SB_SB_SB_SB_SB_SB_SB_SB_SB_SB_SB_SB_SB_SB_SB_EESD_EET0_T_SF_SE_@Base 1.6
 (optional=templinst)_ZNSt20__uninitialized_copyILb0EE13__uninit_copyIPSsS2_EET0_T_S4_S3_@Base 1.6
 (optional=templinst)_ZNSt20__uninitialized_copyILb0EE13__uninit_copyIPSt6vectorIiSaIiEES5_EET0_T_S7_S6_@Base 1.6
 (optional=templinst)_ZNSt20__uninitialized_copyILb0EE13__uninit_copyISt23_Rb_tree_const_iteratorISt4pairIKSsN3pcl17ChannelPropertiesEEEPS3_ISsS6_EEET0_T_SC_SB_@Base 1.6
 (optional=templinst)_ZNSt22__uninitialized_fill_nILb0EE15__uninit_fill_nIPN11sensor_msgs10PointFieldEmS3_EEvT_T0_RKT1_@Base 1.6
 (optional=templinst)_ZNSt22__uninitialized_fill_nILb0EE15__uninit_fill_nIPN3pcl17ChannelPropertiesEmS3_EEvT_T0_RKT1_@Base 1.6
 (optional=templinst)_ZNSt22__uninitialized_fill_nILb0EE15__uninit_fill_nIPN3pcl8VerticesEmS3_EEvT_T0_RKT1_@Base 1.6
 (optional=templinst)_ZNSt22__uninitialized_fill_nILb0EE15__uninit_fill_nIPSt6vectorIiSaIiEEmS4_EEvT_T0_RKT1_@Base 1.6
 (optional=templinst)_ZNSt23_Rb_tree_const_iteratorISt4pairIKS0_IN5boost8signals26detail15slot_meta_groupENS1_8optionalIiEEESt14_List_iteratorINS1_10shared_ptrINS3_15connection_bodyIS7_NS2_5slot1IvRKNSA_IKN3pcl10PointCloudINSD_11PointXYZRGBEEEEENS1_8functionIFvSK_EEEEENS2_5mutexEEEEEEEEppEv@Base 1.6
 (optional=templinst)_ZNSt23_Rb_tree_const_iteratorISt4pairIKS0_IN5boost8signals26detail15slot_meta_groupENS1_8optionalIiEEESt14_List_iteratorINS1_10shared_ptrINS3_15connection_bodyIS7_NS2_5slot1IvRKNSA_IKN3pcl10PointCloudINSD_12PointXYZRGBAEEEEENS1_8functionIFvSK_EEEEENS2_5mutexEEEEEEEEppEv@Base 1.6
 (optional=templinst)_ZNSt23_Rb_tree_const_iteratorISt4pairIKS0_IN5boost8signals26detail15slot_meta_groupENS1_8optionalIiEEESt14_List_iteratorINS1_10shared_ptrINS3_15connection_bodyIS7_NS2_5slot1IvRKNSA_IKN3pcl10PointCloudINSD_8PointXYZEEEEENS1_8functionIFvSK_EEEEENS2_5mutexEEEEEEEEppEv@Base 1.6
 (optional=templinst)_ZNSt23_Rb_tree_const_iteratorISt4pairIKS0_IN5boost8signals26detail15slot_meta_groupENS1_8optionalIiEEESt14_List_iteratorINS1_10shared_ptrINS3_15connection_bodyIS7_NS2_5slot1IvRKNSA_IKN3pcl10PointCloudINSD_9PointXYZIEEEEENS1_8functionIFvSK_EEEEENS2_5mutexEEEEEEEEppEv@Base 1.6
 (optional=templinst)_ZNSt23_Rb_tree_const_iteratorISt4pairIKS0_IN5boost8signals26detail15slot_meta_groupENS1_8optionalIiEEESt14_List_iteratorINS1_10shared_ptrINS3_15connection_bodyIS7_NS2_5slot1IvRKNSA_IN14openni_wrapper10DepthImageEEENS1_8functionIFvSH_EEEEENS2_5mutexEEEEEEEEppEv@Base 1.6
 (optional=templinst)_ZNSt23_Rb_tree_const_iteratorISt4pairIKS0_IN5boost8signals26detail15slot_meta_groupENS1_8optionalIiEEESt14_List_iteratorINS1_10shared_ptrINS3_15connection_bodyIS7_NS2_5slot1IvRKNSA_IN14openni_wrapper5ImageEEENS1_8functionIFvSH_EEEEENS2_5mutexEEEEEEEEppEv@Base 1.6
 (optional=templinst)_ZNSt23_Rb_tree_const_iteratorISt4pairIKS0_IN5boost8signals26detail15slot_meta_groupENS1_8optionalIiEEESt14_List_iteratorINS1_10shared_ptrINS3_15connection_bodyIS7_NS2_5slot1IvRKNSA_IN14openni_wrapper7IRImageEEENS1_8functionIFvSH_EEEEENS2_5mutexEEEEEEEEppEv@Base 1.6
 (optional=templinst)_ZNSt23_Rb_tree_const_iteratorISt4pairIKS0_IN5boost8signals26detail15slot_meta_groupENS1_8optionalIiEEESt14_List_iteratorINS1_10shared_ptrINS3_15connection_bodyIS7_NS2_5slot3IvRKNSA_IN14openni_wrapper5ImageEEERKNSA_INSD_10DepthImageEEEfNS1_8functionIFvSH_SL_fEEEEENS2_5mutexEEEEEEEEppEv@Base 1.6
 (optional=templinst)_ZNSt23_Rb_tree_const_iteratorISt4pairIKS0_IN5boost8signals26detail15slot_meta_groupENS1_8optionalIiEEESt14_List_iteratorINS1_10shared_ptrINS3_15connection_bodyIS7_NS2_5slot3IvRKNSA_IN14openni_wrapper7IRImageEEERKNSA_INSD_10DepthImageEEEfNS1_8functionIFvSH_SL_fEEEEENS2_5mutexEEEEEEEEppEv@Base 1.6
 (optional=templinst)_ZNSt23_Rb_tree_const_iteratorISt4pairIKSsN3pcl17ChannelPropertiesEEEppEv@Base 1.6
 (optional=templinst)_ZNSt23_Rb_tree_const_iteratorISt4pairIKSsPN5boost8signals211signal_baseEEEppEv@Base 1.6
 (optional=templinst)_ZNSt23_Rb_tree_const_iteratorISt4pairIKiN5boost8functionIFvNS2_10shared_ptrIN14openni_wrapper5ImageEEENS4_INS5_10DepthImageEEEmmEEEEEppEv@Base 1.6
 (optional=templinst)_ZNSt23_Rb_tree_const_iteratorISt4pairIKjN5boost8functionIFvNS2_10shared_ptrIN14openni_wrapper10DepthImageEEEEEEEEppEv@Base 1.6
 (optional=templinst)_ZNSt23_Rb_tree_const_iteratorISt4pairIKjN5boost8functionIFvNS2_10shared_ptrIN14openni_wrapper5ImageEEEEEEEEppEv@Base 1.6
 (optional=templinst)_ZNSt23_Rb_tree_const_iteratorISt4pairIKjN5boost8functionIFvNS2_10shared_ptrIN14openni_wrapper7IRImageEEEEEEEEppEv@Base 1.6
 (optional=templinst)_ZNSt3mapISsN3pcl17ChannelPropertiesESt4lessISsESaISt4pairIKSsS1_EEEixERS5_@Base 1.6
 (optional=templinst)_ZNSt3mapISsPN5boost8signals211signal_baseESt4lessISsESaISt4pairIKSsS3_EEED1Ev@Base 1.6
 (optional=templinst)_ZNSt3mapISsPN5boost8signals211signal_baseESt4lessISsESaISt4pairIKSsS3_EEED2Ev@Base 1.6
 (optional=templinst)_ZNSt3mapISsPN5boost8signals211signal_baseESt4lessISsESaISt4pairIKSsS3_EEEixERS7_@Base 1.6
 (optional=templinst)_ZNSt3mapISsSt6vectorIN5boost8signals210connectionESaIS3_EESt4lessISsESaISt4pairIKSsS5_EEED1Ev@Base 1.6
 (optional=templinst)_ZNSt3mapISsSt6vectorIN5boost8signals210connectionESaIS3_EESt4lessISsESaISt4pairIKSsS5_EEED2Ev@Base 1.6
 (optional=templinst)_ZNSt3mapISsSt6vectorIN5boost8signals223shared_connection_blockESaIS3_EESt4lessISsESaISt4pairIKSsS5_EEED1Ev@Base 1.6
 (optional=templinst)_ZNSt3mapISsSt6vectorIN5boost8signals223shared_connection_blockESaIS3_EESt4lessISsESaISt4pairIKSsS5_EEED2Ev@Base 1.6
 (optional=templinst)_ZNSt3mapISsSt6vectorIN5boost8signals223shared_connection_blockESaIS3_EESt4lessISsESaISt4pairIKSsS5_EEEixERS9_@Base 1.6
 (optional=templinst)_ZNSt3mapISsjSt4lessISsESaISt4pairIKSsjEEE6insertESt17_Rb_tree_iteratorIS4_ERKS4_@Base 1.6
 (optional=templinst)_ZNSt3mapISsjSt4lessISsESaISt4pairIKSsjEEED1Ev@Base 1.6
 (optional=templinst)_ZNSt3mapISsjSt4lessISsESaISt4pairIKSsjEEED2Ev@Base 1.6
 (optional=templinst)_ZNSt3mapISsjSt4lessISsESaISt4pairIKSsjEEEixERS3_@Base 1.6
 (optional=templinst)_ZNSt3mapISt4pairIN5boost8signals26detail15slot_meta_groupENS1_8optionalIiEEESt14_List_iteratorINS1_10shared_ptrINS3_15connection_bodyIS7_NS2_5slot1IvRKNS9_IKN3pcl10PointCloudIN5Eigen6MatrixIfLin1ELin1ELi0ELin1ELin1EEEEEEENS1_8functionIFvSL_EEEEENS2_5mutexEEEEEENS3_14group_key_lessIiSt4lessIiEEESaIS0_IKS7_ST_EEE5eraseESt17_Rb_tree_iteratorISZ_E@Base 1.6
 (optional=templinst)_ZNSt3mapISt4pairIN5boost8signals26detail15slot_meta_groupENS1_8optionalIiEEESt14_List_iteratorINS1_10shared_ptrINS3_15connection_bodyIS7_NS2_5slot1IvRKNS9_IKN3pcl10PointCloudIN5Eigen6MatrixIfLin1ELin1ELi0ELin1ELin1EEEEEEENS1_8functionIFvSL_EEEEENS2_5mutexEEEEEENS3_14group_key_lessIiSt4lessIiEEESaIS0_IKS7_ST_EEEixERSY_@Base 1.6
 (optional=templinst)_ZNSt3mapISt4pairIN5boost8signals26detail15slot_meta_groupENS1_8optionalIiEEESt14_List_iteratorINS1_10shared_ptrINS3_15connection_bodyIS7_NS2_5slot1IvRKNS9_IKN3pcl10PointCloudINSC_11PointXYZRGBEEEEENS1_8functionIFvSJ_EEEEENS2_5mutexEEEEEENS3_14group_key_lessIiSt4lessIiEEESaIS0_IKS7_SR_EEE5eraseESt17_Rb_tree_iteratorISX_E@Base 1.6
 (optional=templinst)_ZNSt3mapISt4pairIN5boost8signals26detail15slot_meta_groupENS1_8optionalIiEEESt14_List_iteratorINS1_10shared_ptrINS3_15connection_bodyIS7_NS2_5slot1IvRKNS9_IKN3pcl10PointCloudINSC_11PointXYZRGBEEEEENS1_8functionIFvSJ_EEEEENS2_5mutexEEEEEENS3_14group_key_lessIiSt4lessIiEEESaIS0_IKS7_SR_EEEixERSW_@Base 1.6
 (optional=templinst)_ZNSt3mapISt4pairIN5boost8signals26detail15slot_meta_groupENS1_8optionalIiEEESt14_List_iteratorINS1_10shared_ptrINS3_15connection_bodyIS7_NS2_5slot1IvRKNS9_IKN3pcl10PointCloudINSC_12PointXYZRGBAEEEEENS1_8functionIFvSJ_EEEEENS2_5mutexEEEEEENS3_14group_key_lessIiSt4lessIiEEESaIS0_IKS7_SR_EEE5eraseESt17_Rb_tree_iteratorISX_E@Base 1.6
 (optional=templinst)_ZNSt3mapISt4pairIN5boost8signals26detail15slot_meta_groupENS1_8optionalIiEEESt14_List_iteratorINS1_10shared_ptrINS3_15connection_bodyIS7_NS2_5slot1IvRKNS9_IKN3pcl10PointCloudINSC_12PointXYZRGBAEEEEENS1_8functionIFvSJ_EEEEENS2_5mutexEEEEEENS3_14group_key_lessIiSt4lessIiEEESaIS0_IKS7_SR_EEEixERSW_@Base 1.6
 (optional=templinst)_ZNSt3mapISt4pairIN5boost8signals26detail15slot_meta_groupENS1_8optionalIiEEESt14_List_iteratorINS1_10shared_ptrINS3_15connection_bodyIS7_NS2_5slot1IvRKNS9_IKN3pcl10PointCloudINSC_8PointXYZEEEEENS1_8functionIFvSJ_EEEEENS2_5mutexEEEEEENS3_14group_key_lessIiSt4lessIiEEESaIS0_IKS7_SR_EEE5eraseESt17_Rb_tree_iteratorISX_E@Base 1.6
 (optional=templinst)_ZNSt3mapISt4pairIN5boost8signals26detail15slot_meta_groupENS1_8optionalIiEEESt14_List_iteratorINS1_10shared_ptrINS3_15connection_bodyIS7_NS2_5slot1IvRKNS9_IKN3pcl10PointCloudINSC_8PointXYZEEEEENS1_8functionIFvSJ_EEEEENS2_5mutexEEEEEENS3_14group_key_lessIiSt4lessIiEEESaIS0_IKS7_SR_EEEixERSW_@Base 1.6
 (optional=templinst)_ZNSt3mapISt4pairIN5boost8signals26detail15slot_meta_groupENS1_8optionalIiEEESt14_List_iteratorINS1_10shared_ptrINS3_15connection_bodyIS7_NS2_5slot1IvRKNS9_IKN3pcl10PointCloudINSC_9PointXYZIEEEEENS1_8functionIFvSJ_EEEEENS2_5mutexEEEEEENS3_14group_key_lessIiSt4lessIiEEESaIS0_IKS7_SR_EEE5eraseESt17_Rb_tree_iteratorISX_E@Base 1.6
 (optional=templinst)_ZNSt3mapISt4pairIN5boost8signals26detail15slot_meta_groupENS1_8optionalIiEEESt14_List_iteratorINS1_10shared_ptrINS3_15connection_bodyIS7_NS2_5slot1IvRKNS9_IKN3pcl10PointCloudINSC_9PointXYZIEEEEENS1_8functionIFvSJ_EEEEENS2_5mutexEEEEEENS3_14group_key_lessIiSt4lessIiEEESaIS0_IKS7_SR_EEEixERSW_@Base 1.6
 (optional=templinst)_ZNSt3mapISt4pairIN5boost8signals26detail15slot_meta_groupENS1_8optionalIiEEESt14_List_iteratorINS1_10shared_ptrINS3_15connection_bodyIS7_NS2_5slot1IvRKNS9_IN14openni_wrapper10DepthImageEEENS1_8functionIFvSG_EEEEENS2_5mutexEEEEEENS3_14group_key_lessIiSt4lessIiEEESaIS0_IKS7_SO_EEE5eraseESt17_Rb_tree_iteratorISU_E@Base 1.6
 (optional=templinst)_ZNSt3mapISt4pairIN5boost8signals26detail15slot_meta_groupENS1_8optionalIiEEESt14_List_iteratorINS1_10shared_ptrINS3_15connection_bodyIS7_NS2_5slot1IvRKNS9_IN14openni_wrapper10DepthImageEEENS1_8functionIFvSG_EEEEENS2_5mutexEEEEEENS3_14group_key_lessIiSt4lessIiEEESaIS0_IKS7_SO_EEEixERST_@Base 1.6
 (optional=templinst)_ZNSt3mapISt4pairIN5boost8signals26detail15slot_meta_groupENS1_8optionalIiEEESt14_List_iteratorINS1_10shared_ptrINS3_15connection_bodyIS7_NS2_5slot1IvRKNS9_IN14openni_wrapper5ImageEEENS1_8functionIFvSG_EEEEENS2_5mutexEEEEEENS3_14group_key_lessIiSt4lessIiEEESaIS0_IKS7_SO_EEE5eraseESt17_Rb_tree_iteratorISU_E@Base 1.6
 (optional=templinst)_ZNSt3mapISt4pairIN5boost8signals26detail15slot_meta_groupENS1_8optionalIiEEESt14_List_iteratorINS1_10shared_ptrINS3_15connection_bodyIS7_NS2_5slot1IvRKNS9_IN14openni_wrapper5ImageEEENS1_8functionIFvSG_EEEEENS2_5mutexEEEEEENS3_14group_key_lessIiSt4lessIiEEESaIS0_IKS7_SO_EEEixERST_@Base 1.6
 (optional=templinst)_ZNSt3mapISt4pairIN5boost8signals26detail15slot_meta_groupENS1_8optionalIiEEESt14_List_iteratorINS1_10shared_ptrINS3_15connection_bodyIS7_NS2_5slot1IvRKNS9_IN14openni_wrapper7IRImageEEENS1_8functionIFvSG_EEEEENS2_5mutexEEEEEENS3_14group_key_lessIiSt4lessIiEEESaIS0_IKS7_SO_EEE5eraseESt17_Rb_tree_iteratorISU_E@Base 1.6
 (optional=templinst)_ZNSt3mapISt4pairIN5boost8signals26detail15slot_meta_groupENS1_8optionalIiEEESt14_List_iteratorINS1_10shared_ptrINS3_15connection_bodyIS7_NS2_5slot1IvRKNS9_IN14openni_wrapper7IRImageEEENS1_8functionIFvSG_EEEEENS2_5mutexEEEEEENS3_14group_key_lessIiSt4lessIiEEESaIS0_IKS7_SO_EEEixERST_@Base 1.6
 (optional=templinst)_ZNSt3mapISt4pairIN5boost8signals26detail15slot_meta_groupENS1_8optionalIiEEESt14_List_iteratorINS1_10shared_ptrINS3_15connection_bodyIS7_NS2_5slot3IvRKNS9_IN14openni_wrapper5ImageEEERKNS9_INSC_10DepthImageEEEfNS1_8functionIFvSG_SK_fEEEEENS2_5mutexEEEEEENS3_14group_key_lessIiSt4lessIiEEESaIS0_IKS7_SS_EEE5eraseESt17_Rb_tree_iteratorISY_E@Base 1.6
 (optional=templinst)_ZNSt3mapISt4pairIN5boost8signals26detail15slot_meta_groupENS1_8optionalIiEEESt14_List_iteratorINS1_10shared_ptrINS3_15connection_bodyIS7_NS2_5slot3IvRKNS9_IN14openni_wrapper5ImageEEERKNS9_INSC_10DepthImageEEEfNS1_8functionIFvSG_SK_fEEEEENS2_5mutexEEEEEENS3_14group_key_lessIiSt4lessIiEEESaIS0_IKS7_SS_EEEixERSX_@Base 1.6
 (optional=templinst)_ZNSt3mapISt4pairIN5boost8signals26detail15slot_meta_groupENS1_8optionalIiEEESt14_List_iteratorINS1_10shared_ptrINS3_15connection_bodyIS7_NS2_5slot3IvRKNS9_IN14openni_wrapper7IRImageEEERKNS9_INSC_10DepthImageEEEfNS1_8functionIFvSG_SK_fEEEEENS2_5mutexEEEEEENS3_14group_key_lessIiSt4lessIiEEESaIS0_IKS7_SS_EEE5eraseESt17_Rb_tree_iteratorISY_E@Base 1.6
 (optional=templinst)_ZNSt3mapISt4pairIN5boost8signals26detail15slot_meta_groupENS1_8optionalIiEEESt14_List_iteratorINS1_10shared_ptrINS3_15connection_bodyIS7_NS2_5slot3IvRKNS9_IN14openni_wrapper7IRImageEEERKNS9_INSC_10DepthImageEEEfNS1_8functionIFvSG_SK_fEEEEENS2_5mutexEEEEEENS3_14group_key_lessIiSt4lessIiEEESaIS0_IKS7_SS_EEEixERSX_@Base 1.6
 (optional=templinst)_ZNSt3mapIhS_IhjSt4lessIhESaISt4pairIKhjEEES1_SaIS2_IS3_S6_EEED1Ev@Base 1.6
 (optional=templinst)_ZNSt3mapIhS_IhjSt4lessIhESaISt4pairIKhjEEES1_SaIS2_IS3_S6_EEED2Ev@Base 1.6
 (optional=templinst)_ZNSt3mapIhS_IhjSt4lessIhESaISt4pairIKhjEEES1_SaIS2_IS3_S6_EEEixERS3_@Base 1.6
 (optional=templinst)_ZNSt3mapIhjSt4lessIhESaISt4pairIKhjEEED1Ev@Base 1.6
 (optional=templinst)_ZNSt3mapIhjSt4lessIhESaISt4pairIKhjEEED2Ev@Base 1.6
 (optional=templinst)_ZNSt3mapIhjSt4lessIhESaISt4pairIKhjEEEixERS3_@Base 1.6
 (optional=templinst)_ZNSt3mapIi15XnMapOutputModeSt4lessIiESaISt4pairIKiS0_EEED1Ev@Base 1.6
 (optional=templinst)_ZNSt3mapIi15XnMapOutputModeSt4lessIiESaISt4pairIKiS0_EEED2Ev@Base 1.6
 (optional=templinst)_ZNSt3mapIi15XnMapOutputModeSt4lessIiESaISt4pairIKiS0_EEEixERS4_@Base 1.6
 (optional=templinst)_ZNSt3mapIiN5boost8functionIFvNS0_10shared_ptrIN14openni_wrapper5ImageEEENS2_INS3_10DepthImageEEEmmEEESt4lessIiESaISt4pairIKiS9_EEEixERSD_@Base 1.6
 (optional=templinst)_ZNSt3mapIiN5boost8functionIFvNS0_10shared_ptrIN14openni_wrapper7IRImageEEENS2_INS3_10DepthImageEEEmmEEESt4lessIiESaISt4pairIKiS9_EEEixERSD_@Base 1.6
 (optional=templinst)_ZNSt3mapIjN5boost8functionIFvNS0_10shared_ptrIN14openni_wrapper10DepthImageEEEEEESt4lessIjESaISt4pairIKjS7_EEED1Ev@Base 1.6
 (optional=templinst)_ZNSt3mapIjN5boost8functionIFvNS0_10shared_ptrIN14openni_wrapper10DepthImageEEEEEESt4lessIjESaISt4pairIKjS7_EEED2Ev@Base 1.6
 (optional=templinst)_ZNSt3mapIjN5boost8functionIFvNS0_10shared_ptrIN14openni_wrapper10DepthImageEEEEEESt4lessIjESaISt4pairIKjS7_EEEixERSB_@Base 1.6
 (optional=templinst)_ZNSt3mapIjN5boost8functionIFvNS0_10shared_ptrIN14openni_wrapper5ImageEEEEEESt4lessIjESaISt4pairIKjS7_EEED1Ev@Base 1.6
 (optional=templinst)_ZNSt3mapIjN5boost8functionIFvNS0_10shared_ptrIN14openni_wrapper5ImageEEEEEESt4lessIjESaISt4pairIKjS7_EEED2Ev@Base 1.6
 (optional=templinst)_ZNSt3mapIjN5boost8functionIFvNS0_10shared_ptrIN14openni_wrapper5ImageEEEEEESt4lessIjESaISt4pairIKjS7_EEEixERSB_@Base 1.6
 (optional=templinst)_ZNSt3mapIjN5boost8functionIFvNS0_10shared_ptrIN14openni_wrapper7IRImageEEEEEESt4lessIjESaISt4pairIKjS7_EEED1Ev@Base 1.6
 (optional=templinst)_ZNSt3mapIjN5boost8functionIFvNS0_10shared_ptrIN14openni_wrapper7IRImageEEEEEESt4lessIjESaISt4pairIKjS7_EEED2Ev@Base 1.6
 (optional=templinst)_ZNSt3mapIjN5boost8functionIFvNS0_10shared_ptrIN14openni_wrapper7IRImageEEEEEESt4lessIjESaISt4pairIKjS7_EEEixERSB_@Base 1.6
 (optional=templinst)_ZNSt4listIN5boost10shared_ptrINS0_8signals26detail15connection_bodyISt4pairINS3_15slot_meta_groupENS0_8optionalIiEEENS2_5slot1IvRKNS1_IKN3pcl10PointCloudIN5Eigen6MatrixIfLin1ELin1ELi0ELin1ELin1EEEEEEENS0_8functionIFvSK_EEEEENS2_5mutexEEEEESaISR_EEC1ERKST_@Base 1.6
 (optional=templinst)_ZNSt4listIN5boost10shared_ptrINS0_8signals26detail15connection_bodyISt4pairINS3_15slot_meta_groupENS0_8optionalIiEEENS2_5slot1IvRKNS1_IKN3pcl10PointCloudIN5Eigen6MatrixIfLin1ELin1ELi0ELin1ELin1EEEEEEENS0_8functionIFvSK_EEEEENS2_5mutexEEEEESaISR_EEC2ERKST_@Base 1.6
 (optional=templinst)_ZNSt4listIN5boost10shared_ptrINS0_8signals26detail15connection_bodyISt4pairINS3_15slot_meta_groupENS0_8optionalIiEEENS2_5slot1IvRKNS1_IKN3pcl10PointCloudINSB_11PointXYZRGBEEEEENS0_8functionIFvSI_EEEEENS2_5mutexEEEEESaISP_EEC1ERKSR_@Base 1.6
 (optional=templinst)_ZNSt4listIN5boost10shared_ptrINS0_8signals26detail15connection_bodyISt4pairINS3_15slot_meta_groupENS0_8optionalIiEEENS2_5slot1IvRKNS1_IKN3pcl10PointCloudINSB_11PointXYZRGBEEEEENS0_8functionIFvSI_EEEEENS2_5mutexEEEEESaISP_EEC2ERKSR_@Base 1.6
 (optional=templinst)_ZNSt4listIN5boost10shared_ptrINS0_8signals26detail15connection_bodyISt4pairINS3_15slot_meta_groupENS0_8optionalIiEEENS2_5slot1IvRKNS1_IKN3pcl10PointCloudINSB_11PointXYZRGBEEEEENS0_8functionIFvSI_EEEEENS2_5mutexEEEEESaISP_EED1Ev@Base 1.6
 (optional=templinst)_ZNSt4listIN5boost10shared_ptrINS0_8signals26detail15connection_bodyISt4pairINS3_15slot_meta_groupENS0_8optionalIiEEENS2_5slot1IvRKNS1_IKN3pcl10PointCloudINSB_11PointXYZRGBEEEEENS0_8functionIFvSI_EEEEENS2_5mutexEEEEESaISP_EED2Ev@Base 1.6
 (optional=templinst)_ZNSt4listIN5boost10shared_ptrINS0_8signals26detail15connection_bodyISt4pairINS3_15slot_meta_groupENS0_8optionalIiEEENS2_5slot1IvRKNS1_IKN3pcl10PointCloudINSB_12PointXYZRGBAEEEEENS0_8functionIFvSI_EEEEENS2_5mutexEEEEESaISP_EEC1ERKSR_@Base 1.6
 (optional=templinst)_ZNSt4listIN5boost10shared_ptrINS0_8signals26detail15connection_bodyISt4pairINS3_15slot_meta_groupENS0_8optionalIiEEENS2_5slot1IvRKNS1_IKN3pcl10PointCloudINSB_12PointXYZRGBAEEEEENS0_8functionIFvSI_EEEEENS2_5mutexEEEEESaISP_EEC2ERKSR_@Base 1.6
 (optional=templinst)_ZNSt4listIN5boost10shared_ptrINS0_8signals26detail15connection_bodyISt4pairINS3_15slot_meta_groupENS0_8optionalIiEEENS2_5slot1IvRKNS1_IKN3pcl10PointCloudINSB_12PointXYZRGBAEEEEENS0_8functionIFvSI_EEEEENS2_5mutexEEEEESaISP_EED1Ev@Base 1.6
 (optional=templinst)_ZNSt4listIN5boost10shared_ptrINS0_8signals26detail15connection_bodyISt4pairINS3_15slot_meta_groupENS0_8optionalIiEEENS2_5slot1IvRKNS1_IKN3pcl10PointCloudINSB_12PointXYZRGBAEEEEENS0_8functionIFvSI_EEEEENS2_5mutexEEEEESaISP_EED2Ev@Base 1.6
 (optional=templinst)_ZNSt4listIN5boost10shared_ptrINS0_8signals26detail15connection_bodyISt4pairINS3_15slot_meta_groupENS0_8optionalIiEEENS2_5slot1IvRKNS1_IKN3pcl10PointCloudINSB_8PointXYZEEEEENS0_8functionIFvSI_EEEEENS2_5mutexEEEEESaISP_EEC1ERKSR_@Base 1.6
 (optional=templinst)_ZNSt4listIN5boost10shared_ptrINS0_8signals26detail15connection_bodyISt4pairINS3_15slot_meta_groupENS0_8optionalIiEEENS2_5slot1IvRKNS1_IKN3pcl10PointCloudINSB_8PointXYZEEEEENS0_8functionIFvSI_EEEEENS2_5mutexEEEEESaISP_EEC2ERKSR_@Base 1.6
 (optional=templinst)_ZNSt4listIN5boost10shared_ptrINS0_8signals26detail15connection_bodyISt4pairINS3_15slot_meta_groupENS0_8optionalIiEEENS2_5slot1IvRKNS1_IKN3pcl10PointCloudINSB_8PointXYZEEEEENS0_8functionIFvSI_EEEEENS2_5mutexEEEEESaISP_EED1Ev@Base 1.6
 (optional=templinst)_ZNSt4listIN5boost10shared_ptrINS0_8signals26detail15connection_bodyISt4pairINS3_15slot_meta_groupENS0_8optionalIiEEENS2_5slot1IvRKNS1_IKN3pcl10PointCloudINSB_8PointXYZEEEEENS0_8functionIFvSI_EEEEENS2_5mutexEEEEESaISP_EED2Ev@Base 1.6
 (optional=templinst)_ZNSt4listIN5boost10shared_ptrINS0_8signals26detail15connection_bodyISt4pairINS3_15slot_meta_groupENS0_8optionalIiEEENS2_5slot1IvRKNS1_IKN3pcl10PointCloudINSB_9PointXYZIEEEEENS0_8functionIFvSI_EEEEENS2_5mutexEEEEESaISP_EEC1ERKSR_@Base 1.6
 (optional=templinst)_ZNSt4listIN5boost10shared_ptrINS0_8signals26detail15connection_bodyISt4pairINS3_15slot_meta_groupENS0_8optionalIiEEENS2_5slot1IvRKNS1_IKN3pcl10PointCloudINSB_9PointXYZIEEEEENS0_8functionIFvSI_EEEEENS2_5mutexEEEEESaISP_EEC2ERKSR_@Base 1.6
 (optional=templinst)_ZNSt4listIN5boost10shared_ptrINS0_8signals26detail15connection_bodyISt4pairINS3_15slot_meta_groupENS0_8optionalIiEEENS2_5slot1IvRKNS1_IKN3pcl10PointCloudINSB_9PointXYZIEEEEENS0_8functionIFvSI_EEEEENS2_5mutexEEEEESaISP_EED1Ev@Base 1.6
 (optional=templinst)_ZNSt4listIN5boost10shared_ptrINS0_8signals26detail15connection_bodyISt4pairINS3_15slot_meta_groupENS0_8optionalIiEEENS2_5slot1IvRKNS1_IKN3pcl10PointCloudINSB_9PointXYZIEEEEENS0_8functionIFvSI_EEEEENS2_5mutexEEEEESaISP_EED2Ev@Base 1.6
 (optional=templinst)_ZNSt4listIN5boost10shared_ptrINS0_8signals26detail15connection_bodyISt4pairINS3_15slot_meta_groupENS0_8optionalIiEEENS2_5slot1IvRKNS1_IN14openni_wrapper10DepthImageEEENS0_8functionIFvSF_EEEEENS2_5mutexEEEEESaISM_EEC1ERKSO_@Base 1.6
 (optional=templinst)_ZNSt4listIN5boost10shared_ptrINS0_8signals26detail15connection_bodyISt4pairINS3_15slot_meta_groupENS0_8optionalIiEEENS2_5slot1IvRKNS1_IN14openni_wrapper10DepthImageEEENS0_8functionIFvSF_EEEEENS2_5mutexEEEEESaISM_EEC2ERKSO_@Base 1.6
 (optional=templinst)_ZNSt4listIN5boost10shared_ptrINS0_8signals26detail15connection_bodyISt4pairINS3_15slot_meta_groupENS0_8optionalIiEEENS2_5slot1IvRKNS1_IN14openni_wrapper10DepthImageEEENS0_8functionIFvSF_EEEEENS2_5mutexEEEEESaISM_EED1Ev@Base 1.6
 (optional=templinst)_ZNSt4listIN5boost10shared_ptrINS0_8signals26detail15connection_bodyISt4pairINS3_15slot_meta_groupENS0_8optionalIiEEENS2_5slot1IvRKNS1_IN14openni_wrapper10DepthImageEEENS0_8functionIFvSF_EEEEENS2_5mutexEEEEESaISM_EED2Ev@Base 1.6
 (optional=templinst)_ZNSt4listIN5boost10shared_ptrINS0_8signals26detail15connection_bodyISt4pairINS3_15slot_meta_groupENS0_8optionalIiEEENS2_5slot1IvRKNS1_IN14openni_wrapper5ImageEEENS0_8functionIFvSF_EEEEENS2_5mutexEEEEESaISM_EEC1ERKSO_@Base 1.6
 (optional=templinst)_ZNSt4listIN5boost10shared_ptrINS0_8signals26detail15connection_bodyISt4pairINS3_15slot_meta_groupENS0_8optionalIiEEENS2_5slot1IvRKNS1_IN14openni_wrapper5ImageEEENS0_8functionIFvSF_EEEEENS2_5mutexEEEEESaISM_EEC2ERKSO_@Base 1.6
 (optional=templinst)_ZNSt4listIN5boost10shared_ptrINS0_8signals26detail15connection_bodyISt4pairINS3_15slot_meta_groupENS0_8optionalIiEEENS2_5slot1IvRKNS1_IN14openni_wrapper5ImageEEENS0_8functionIFvSF_EEEEENS2_5mutexEEEEESaISM_EED1Ev@Base 1.6
 (optional=templinst)_ZNSt4listIN5boost10shared_ptrINS0_8signals26detail15connection_bodyISt4pairINS3_15slot_meta_groupENS0_8optionalIiEEENS2_5slot1IvRKNS1_IN14openni_wrapper5ImageEEENS0_8functionIFvSF_EEEEENS2_5mutexEEEEESaISM_EED2Ev@Base 1.6
 (optional=templinst)_ZNSt4listIN5boost10shared_ptrINS0_8signals26detail15connection_bodyISt4pairINS3_15slot_meta_groupENS0_8optionalIiEEENS2_5slot1IvRKNS1_IN14openni_wrapper7IRImageEEENS0_8functionIFvSF_EEEEENS2_5mutexEEEEESaISM_EEC1ERKSO_@Base 1.6
 (optional=templinst)_ZNSt4listIN5boost10shared_ptrINS0_8signals26detail15connection_bodyISt4pairINS3_15slot_meta_groupENS0_8optionalIiEEENS2_5slot1IvRKNS1_IN14openni_wrapper7IRImageEEENS0_8functionIFvSF_EEEEENS2_5mutexEEEEESaISM_EEC2ERKSO_@Base 1.6
 (optional=templinst)_ZNSt4listIN5boost10shared_ptrINS0_8signals26detail15connection_bodyISt4pairINS3_15slot_meta_groupENS0_8optionalIiEEENS2_5slot1IvRKNS1_IN14openni_wrapper7IRImageEEENS0_8functionIFvSF_EEEEENS2_5mutexEEEEESaISM_EED1Ev@Base 1.6
 (optional=templinst)_ZNSt4listIN5boost10shared_ptrINS0_8signals26detail15connection_bodyISt4pairINS3_15slot_meta_groupENS0_8optionalIiEEENS2_5slot1IvRKNS1_IN14openni_wrapper7IRImageEEENS0_8functionIFvSF_EEEEENS2_5mutexEEEEESaISM_EED2Ev@Base 1.6
 (optional=templinst)_ZNSt4listIN5boost10shared_ptrINS0_8signals26detail15connection_bodyISt4pairINS3_15slot_meta_groupENS0_8optionalIiEEENS2_5slot3IvRKNS1_IN14openni_wrapper5ImageEEERKNS1_INSB_10DepthImageEEEfNS0_8functionIFvSF_SJ_fEEEEENS2_5mutexEEEEESaISQ_EEC1ERKSS_@Base 1.6
 (optional=templinst)_ZNSt4listIN5boost10shared_ptrINS0_8signals26detail15connection_bodyISt4pairINS3_15slot_meta_groupENS0_8optionalIiEEENS2_5slot3IvRKNS1_IN14openni_wrapper5ImageEEERKNS1_INSB_10DepthImageEEEfNS0_8functionIFvSF_SJ_fEEEEENS2_5mutexEEEEESaISQ_EEC2ERKSS_@Base 1.6
 (optional=templinst)_ZNSt4listIN5boost10shared_ptrINS0_8signals26detail15connection_bodyISt4pairINS3_15slot_meta_groupENS0_8optionalIiEEENS2_5slot3IvRKNS1_IN14openni_wrapper5ImageEEERKNS1_INSB_10DepthImageEEEfNS0_8functionIFvSF_SJ_fEEEEENS2_5mutexEEEEESaISQ_EED1Ev@Base 1.6
 (optional=templinst)_ZNSt4listIN5boost10shared_ptrINS0_8signals26detail15connection_bodyISt4pairINS3_15slot_meta_groupENS0_8optionalIiEEENS2_5slot3IvRKNS1_IN14openni_wrapper5ImageEEERKNS1_INSB_10DepthImageEEEfNS0_8functionIFvSF_SJ_fEEEEENS2_5mutexEEEEESaISQ_EED2Ev@Base 1.6
 (optional=templinst)_ZNSt4listIN5boost10shared_ptrINS0_8signals26detail15connection_bodyISt4pairINS3_15slot_meta_groupENS0_8optionalIiEEENS2_5slot3IvRKNS1_IN14openni_wrapper7IRImageEEERKNS1_INSB_10DepthImageEEEfNS0_8functionIFvSF_SJ_fEEEEENS2_5mutexEEEEESaISQ_EEC1ERKSS_@Base 1.6
 (optional=templinst)_ZNSt4listIN5boost10shared_ptrINS0_8signals26detail15connection_bodyISt4pairINS3_15slot_meta_groupENS0_8optionalIiEEENS2_5slot3IvRKNS1_IN14openni_wrapper7IRImageEEERKNS1_INSB_10DepthImageEEEfNS0_8functionIFvSF_SJ_fEEEEENS2_5mutexEEEEESaISQ_EEC2ERKSS_@Base 1.6
 (optional=templinst)_ZNSt4listIN5boost10shared_ptrINS0_8signals26detail15connection_bodyISt4pairINS3_15slot_meta_groupENS0_8optionalIiEEENS2_5slot3IvRKNS1_IN14openni_wrapper7IRImageEEERKNS1_INSB_10DepthImageEEEfNS0_8functionIFvSF_SJ_fEEEEENS2_5mutexEEEEESaISQ_EED1Ev@Base 1.6
 (optional=templinst)_ZNSt4listIN5boost10shared_ptrINS0_8signals26detail15connection_bodyISt4pairINS3_15slot_meta_groupENS0_8optionalIiEEENS2_5slot3IvRKNS1_IN14openni_wrapper7IRImageEEERKNS1_INSB_10DepthImageEEEfNS0_8functionIFvSF_SJ_fEEEEENS2_5mutexEEEEESaISQ_EED2Ev@Base 1.6
 (optional=templinst)_ZNSt4pairIKSsN3pcl17ChannelPropertiesEEC1ERKS3_@Base 1.6
 (optional=templinst)_ZNSt4pairIKSsN3pcl17ChannelPropertiesEEC1ERS0_RKS2_@Base 1.6
 (optional=templinst)_ZNSt4pairIKSsN3pcl17ChannelPropertiesEEC2ERKS3_@Base 1.6
 (optional=templinst)_ZNSt4pairIKSsN3pcl17ChannelPropertiesEEC2ERS0_RKS2_@Base 1.6
 (optional=templinst)_ZNSt4pairIKSsN3pcl17ChannelPropertiesEED1Ev@Base 1.6
 (optional=templinst)_ZNSt4pairIKSsN3pcl17ChannelPropertiesEED2Ev@Base 1.6
 (optional=templinst)_ZNSt4pairIKSsPN5boost8signals211signal_baseEED1Ev@Base 1.6
 (optional=templinst)_ZNSt4pairIKSsPN5boost8signals211signal_baseEED2Ev@Base 1.6
 (optional=templinst)_ZNSt4pairIKSsSt6vectorIN5boost8signals223shared_connection_blockESaIS4_EEEC1ERKS7_@Base 1.6
 (optional=templinst)_ZNSt4pairIKSsSt6vectorIN5boost8signals223shared_connection_blockESaIS4_EEEC1ERS0_RKS6_@Base 1.6
 (optional=templinst)_ZNSt4pairIKSsSt6vectorIN5boost8signals223shared_connection_blockESaIS4_EEEC2ERKS7_@Base 1.6
 (optional=templinst)_ZNSt4pairIKSsSt6vectorIN5boost8signals223shared_connection_blockESaIS4_EEEC2ERS0_RKS6_@Base 1.6
 (optional=templinst)_ZNSt4pairIKSsSt6vectorIN5boost8signals223shared_connection_blockESaIS4_EEED1Ev@Base 1.6
 (optional=templinst)_ZNSt4pairIKSsSt6vectorIN5boost8signals223shared_connection_blockESaIS4_EEED2Ev@Base 1.6
 (optional=templinst)_ZNSt4pairIKSsjED1Ev@Base 1.6
 (optional=templinst)_ZNSt4pairIKSsjED2Ev@Base 1.6
 (optional=templinst)_ZNSt4pairIKhSt3mapIhjSt4lessIhESaIS_IS0_jEEEED1Ev@Base 1.6
 (optional=templinst)_ZNSt4pairIKhSt3mapIhjSt4lessIhESaIS_IS0_jEEEED2Ev@Base 1.6
 (optional=templinst)_ZNSt4pairIKiN5boost8functionIFvNS1_10shared_ptrIN14openni_wrapper5ImageEEENS3_INS4_10DepthImageEEEmmEEEEC1ERKSB_@Base 1.6
 (optional=templinst)_ZNSt4pairIKiN5boost8functionIFvNS1_10shared_ptrIN14openni_wrapper5ImageEEENS3_INS4_10DepthImageEEEmmEEEEC2ERKSB_@Base 1.6
 (optional=templinst)_ZNSt4pairIKiN5boost8functionIFvNS1_10shared_ptrIN14openni_wrapper5ImageEEENS3_INS4_10DepthImageEEEmmEEEED1Ev@Base 1.6
 (optional=templinst)_ZNSt4pairIKiN5boost8functionIFvNS1_10shared_ptrIN14openni_wrapper5ImageEEENS3_INS4_10DepthImageEEEmmEEEED2Ev@Base 1.6
 (optional=templinst)_ZNSt4pairIKiN5boost8functionIFvNS1_10shared_ptrIN14openni_wrapper7IRImageEEENS3_INS4_10DepthImageEEEmmEEEED1Ev@Base 1.6
 (optional=templinst)_ZNSt4pairIKiN5boost8functionIFvNS1_10shared_ptrIN14openni_wrapper7IRImageEEENS3_INS4_10DepthImageEEEmmEEEED2Ev@Base 1.6
 (optional=templinst)_ZNSt4pairIKjN5boost8functionIFvNS1_10shared_ptrIN14openni_wrapper10DepthImageEEEEEEEC1ERKS9_@Base 1.6
 (optional=templinst)_ZNSt4pairIKjN5boost8functionIFvNS1_10shared_ptrIN14openni_wrapper10DepthImageEEEEEEEC2ERKS9_@Base 1.6
 (optional=templinst)_ZNSt4pairIKjN5boost8functionIFvNS1_10shared_ptrIN14openni_wrapper10DepthImageEEEEEEED1Ev@Base 1.6
 (optional=templinst)_ZNSt4pairIKjN5boost8functionIFvNS1_10shared_ptrIN14openni_wrapper10DepthImageEEEEEEED2Ev@Base 1.6
 (optional=templinst)_ZNSt4pairIKjN5boost8functionIFvNS1_10shared_ptrIN14openni_wrapper5ImageEEEEEEEC1ERKS9_@Base 1.6
 (optional=templinst)_ZNSt4pairIKjN5boost8functionIFvNS1_10shared_ptrIN14openni_wrapper5ImageEEEEEEEC2ERKS9_@Base 1.6
 (optional=templinst)_ZNSt4pairIKjN5boost8functionIFvNS1_10shared_ptrIN14openni_wrapper5ImageEEEEEEED1Ev@Base 1.6
 (optional=templinst)_ZNSt4pairIKjN5boost8functionIFvNS1_10shared_ptrIN14openni_wrapper5ImageEEEEEEED2Ev@Base 1.6
 (optional=templinst)_ZNSt4pairIKjN5boost8functionIFvNS1_10shared_ptrIN14openni_wrapper7IRImageEEEEEEEC1ERKS9_@Base 1.6
 (optional=templinst)_ZNSt4pairIKjN5boost8functionIFvNS1_10shared_ptrIN14openni_wrapper7IRImageEEEEEEEC2ERKS9_@Base 1.6
 (optional=templinst)_ZNSt4pairIKjN5boost8functionIFvNS1_10shared_ptrIN14openni_wrapper7IRImageEEEEEEED1Ev@Base 1.6
 (optional=templinst)_ZNSt4pairIKjN5boost8functionIFvNS1_10shared_ptrIN14openni_wrapper7IRImageEEEEEEED2Ev@Base 1.6
 (optional=templinst)_ZNSt4pairISsN3pcl17ChannelPropertiesEEC1ERKS2_@Base 1.6
 (optional=templinst)_ZNSt4pairISsN3pcl17ChannelPropertiesEEC2ERKS2_@Base 1.6
 (optional=templinst)_ZNSt4pairISsN3pcl17ChannelPropertiesEED1Ev@Base 1.6
 (optional=templinst)_ZNSt4pairISsN3pcl17ChannelPropertiesEED2Ev@Base 1.6
 (optional=templinst)_ZNSt4pairISsN3pcl17ChannelPropertiesEEaSERKS2_@Base 1.6
 (optional=templinst)_ZNSt5dequeISt4pairImN5boost10shared_ptrIN14openni_wrapper10DepthImageEEEESaIS6_EE16_M_pop_front_auxEv@Base 1.6
 (optional=templinst)_ZNSt5dequeISt4pairImN5boost10shared_ptrIN14openni_wrapper10DepthImageEEEESaIS6_EE16_M_push_back_auxERKS6_@Base 1.6
 (optional=templinst)_ZNSt5dequeISt4pairImN5boost10shared_ptrIN14openni_wrapper10DepthImageEEEESaIS6_EE17_M_reallocate_mapEmb@Base 1.6
 (optional=templinst)_ZNSt5dequeISt4pairImN5boost10shared_ptrIN14openni_wrapper10DepthImageEEEESaIS6_EE19_M_destroy_data_auxESt15_Deque_iteratorIS6_RS6_PS6_ESC_@Base 1.6
 (optional=templinst)_ZNSt5dequeISt4pairImN5boost10shared_ptrIN14openni_wrapper10DepthImageEEEESaIS6_EE9pop_frontEv@Base 1.6
 (optional=templinst)_ZNSt5dequeISt4pairImN5boost10shared_ptrIN14openni_wrapper10DepthImageEEEESaIS6_EE9push_backERKS6_@Base 1.6
 (optional=templinst)_ZNSt5dequeISt4pairImN5boost10shared_ptrIN14openni_wrapper10DepthImageEEEESaIS6_EED1Ev@Base 1.6
 (optional=templinst)_ZNSt5dequeISt4pairImN5boost10shared_ptrIN14openni_wrapper10DepthImageEEEESaIS6_EED2Ev@Base 1.6
 (optional=templinst)_ZNSt5dequeISt4pairImN5boost10shared_ptrIN14openni_wrapper5ImageEEEESaIS6_EE16_M_pop_front_auxEv@Base 1.6
 (optional=templinst)_ZNSt5dequeISt4pairImN5boost10shared_ptrIN14openni_wrapper5ImageEEEESaIS6_EE16_M_push_back_auxERKS6_@Base 1.6
 (optional=templinst)_ZNSt5dequeISt4pairImN5boost10shared_ptrIN14openni_wrapper5ImageEEEESaIS6_EE17_M_reallocate_mapEmb@Base 1.6
 (optional=templinst)_ZNSt5dequeISt4pairImN5boost10shared_ptrIN14openni_wrapper5ImageEEEESaIS6_EE19_M_destroy_data_auxESt15_Deque_iteratorIS6_RS6_PS6_ESC_@Base 1.6
 (optional=templinst)_ZNSt5dequeISt4pairImN5boost10shared_ptrIN14openni_wrapper5ImageEEEESaIS6_EE9pop_frontEv@Base 1.6
 (optional=templinst)_ZNSt5dequeISt4pairImN5boost10shared_ptrIN14openni_wrapper5ImageEEEESaIS6_EE9push_backERKS6_@Base 1.6
 (optional=templinst)_ZNSt5dequeISt4pairImN5boost10shared_ptrIN14openni_wrapper5ImageEEEESaIS6_EED1Ev@Base 1.6
 (optional=templinst)_ZNSt5dequeISt4pairImN5boost10shared_ptrIN14openni_wrapper5ImageEEEESaIS6_EED2Ev@Base 1.6
 (optional=templinst)_ZNSt5dequeISt4pairImN5boost10shared_ptrIN14openni_wrapper7IRImageEEEESaIS6_EE16_M_pop_front_auxEv@Base 1.6
 (optional=templinst)_ZNSt5dequeISt4pairImN5boost10shared_ptrIN14openni_wrapper7IRImageEEEESaIS6_EE16_M_push_back_auxERKS6_@Base 1.6
 (optional=templinst)_ZNSt5dequeISt4pairImN5boost10shared_ptrIN14openni_wrapper7IRImageEEEESaIS6_EE17_M_reallocate_mapEmb@Base 1.6
 (optional=templinst)_ZNSt5dequeISt4pairImN5boost10shared_ptrIN14openni_wrapper7IRImageEEEESaIS6_EE19_M_destroy_data_auxESt15_Deque_iteratorIS6_RS6_PS6_ESC_@Base 1.6
 (optional=templinst)_ZNSt5dequeISt4pairImN5boost10shared_ptrIN14openni_wrapper7IRImageEEEESaIS6_EE9pop_frontEv@Base 1.6
 (optional=templinst)_ZNSt5dequeISt4pairImN5boost10shared_ptrIN14openni_wrapper7IRImageEEEESaIS6_EE9push_backERKS6_@Base 1.6
 (optional=templinst)_ZNSt5dequeISt4pairImN5boost10shared_ptrIN14openni_wrapper7IRImageEEEESaIS6_EED1Ev@Base 1.6
 (optional=templinst)_ZNSt5dequeISt4pairImN5boost10shared_ptrIN14openni_wrapper7IRImageEEEESaIS6_EED2Ev@Base 1.6
 (optional=templinst)_ZNSt6vectorI15XnMapOutputModeSaIS0_EE13_M_insert_auxEN9__gnu_cxx17__normal_iteratorIPS0_S2_EERKS0_@Base 1.6
 (optional=templinst)_ZNSt6vectorI15XnMapOutputModeSaIS0_EED1Ev@Base 1.6
 (optional=templinst)_ZNSt6vectorI15XnMapOutputModeSaIS0_EED2Ev@Base 1.6
 (optional=templinst)_ZNSt6vectorIN11sensor_msgs10PointFieldESaIS1_EE13_M_insert_auxEN9__gnu_cxx17__normal_iteratorIPS1_S3_EERKS1_@Base 1.6
 (optional=templinst)_ZNSt6vectorIN11sensor_msgs10PointFieldESaIS1_EE14_M_fill_insertEN9__gnu_cxx17__normal_iteratorIPS1_S3_EEmRKS1_@Base 1.6
 (optional=templinst)_ZNSt6vectorIN11sensor_msgs10PointFieldESaIS1_EE6resizeEmS1_@Base 1.6
 (optional=templinst)_ZNSt6vectorIN11sensor_msgs10PointFieldESaIS1_EEC1EmRKS1_RKS2_@Base 1.6
 (optional=templinst)_ZNSt6vectorIN11sensor_msgs10PointFieldESaIS1_EEC2EmRKS1_RKS2_@Base 1.6
 (optional=templinst)_ZNSt6vectorIN11sensor_msgs10PointFieldESaIS1_EED1Ev@Base 1.6
 (optional=templinst)_ZNSt6vectorIN11sensor_msgs10PointFieldESaIS1_EED2Ev@Base 1.6
 (optional=templinst)_ZNSt6vectorIN14openni_wrapper12OpenNIDriver13DeviceContextESaIS2_EE13_M_insert_auxEN9__gnu_cxx17__normal_iteratorIPS2_S4_EERKS2_@Base 1.6
 (optional=templinst)_ZNSt6vectorIN14openni_wrapper12OpenNIDriver13DeviceContextESaIS2_EE5clearEv@Base 1.6
 (optional=templinst)_ZNSt6vectorIN14openni_wrapper12OpenNIDriver13DeviceContextESaIS2_EED1Ev@Base 1.6
 (optional=templinst)_ZNSt6vectorIN14openni_wrapper12OpenNIDriver13DeviceContextESaIS2_EED2Ev@Base 1.6
 (optional=templinst)_ZNSt6vectorIN3pcl11PointXYZRGBEN5Eigen17aligned_allocatorIS1_EEE6resizeEm@Base 1.6
 (optional=templinst)_ZNSt6vectorIN3pcl11PointXYZRGBEN5Eigen17aligned_allocatorIS1_EEE6resizeEmRKS1_@Base 1.6
 (optional=templinst)_ZNSt6vectorIN3pcl11PointXYZRGBEN5Eigen17aligned_allocatorIS1_EEED1Ev@Base 1.6
 (optional=templinst)_ZNSt6vectorIN3pcl11PointXYZRGBEN5Eigen17aligned_allocatorIS1_EEED2Ev@Base 1.6
 (optional=templinst)_ZNSt6vectorIN3pcl11PointXYZRGBEN5Eigen29aligned_allocator_indirectionIS1_EEE13_M_insert_auxEN9__gnu_cxx17__normal_iteratorIPS1_S5_EERKS1_@Base 1.6
 (optional=templinst)_ZNSt6vectorIN3pcl11PointXYZRGBEN5Eigen29aligned_allocator_indirectionIS1_EEE14_M_fill_assignEmRKS1_@Base 1.6
 (optional=templinst)_ZNSt6vectorIN3pcl11PointXYZRGBEN5Eigen29aligned_allocator_indirectionIS1_EEE14_M_fill_insertEN9__gnu_cxx17__normal_iteratorIPS1_S5_EEmRKS1_@Base 1.6
 (optional=templinst)_ZNSt6vectorIN3pcl11PointXYZRGBEN5Eigen29aligned_allocator_indirectionIS1_EEE9push_backERKS1_@Base 1.6
 (optional=templinst)_ZNSt6vectorIN3pcl11PointXYZRGBEN5Eigen29aligned_allocator_indirectionIS1_EEEC1EmRKS1_RKS4_@Base 1.6
 (optional=templinst)_ZNSt6vectorIN3pcl11PointXYZRGBEN5Eigen29aligned_allocator_indirectionIS1_EEEC2EmRKS1_RKS4_@Base 1.6
 (optional=templinst)_ZNSt6vectorIN3pcl12PointXYZRGBAEN5Eigen17aligned_allocatorIS1_EEE6resizeEm@Base 1.6
 (optional=templinst)_ZNSt6vectorIN3pcl12PointXYZRGBAEN5Eigen17aligned_allocatorIS1_EEE6resizeEmRKS1_@Base 1.6
 (optional=templinst)_ZNSt6vectorIN3pcl12PointXYZRGBAEN5Eigen17aligned_allocatorIS1_EEED1Ev@Base 1.6
 (optional=templinst)_ZNSt6vectorIN3pcl12PointXYZRGBAEN5Eigen17aligned_allocatorIS1_EEED2Ev@Base 1.6
 (optional=templinst)_ZNSt6vectorIN3pcl12PointXYZRGBAEN5Eigen29aligned_allocator_indirectionIS1_EEE13_M_insert_auxEN9__gnu_cxx17__normal_iteratorIPS1_S5_EERKS1_@Base 1.6
 (optional=templinst)_ZNSt6vectorIN3pcl12PointXYZRGBAEN5Eigen29aligned_allocator_indirectionIS1_EEE14_M_fill_assignEmRKS1_@Base 1.6
 (optional=templinst)_ZNSt6vectorIN3pcl12PointXYZRGBAEN5Eigen29aligned_allocator_indirectionIS1_EEE14_M_fill_insertEN9__gnu_cxx17__normal_iteratorIPS1_S5_EEmRKS1_@Base 1.6
 (optional=templinst)_ZNSt6vectorIN3pcl12PointXYZRGBAEN5Eigen29aligned_allocator_indirectionIS1_EEE9push_backERKS1_@Base 1.6
 (optional=templinst)_ZNSt6vectorIN3pcl12PointXYZRGBAEN5Eigen29aligned_allocator_indirectionIS1_EEEC1EmRKS1_RKS4_@Base 1.6
 (optional=templinst)_ZNSt6vectorIN3pcl12PointXYZRGBAEN5Eigen29aligned_allocator_indirectionIS1_EEEC2EmRKS1_RKS4_@Base 1.6
 (optional=templinst)_ZNSt6vectorIN3pcl17ChannelPropertiesESaIS1_EE14_M_fill_insertEN9__gnu_cxx17__normal_iteratorIPS1_S3_EEmRKS1_@Base 1.6
 (optional=templinst)_ZNSt6vectorIN3pcl17ChannelPropertiesESaIS1_EE6resizeEmS1_@Base 1.6
 (optional=templinst)_ZNSt6vectorIN3pcl17ChannelPropertiesESaIS1_EED1Ev@Base 1.6
 (optional=templinst)_ZNSt6vectorIN3pcl17ChannelPropertiesESaIS1_EED2Ev@Base 1.6
 (optional=templinst)_ZNSt6vectorIN3pcl8PointXYZEN5Eigen17aligned_allocatorIS1_EEE6resizeEm@Base 1.6
 (optional=templinst)_ZNSt6vectorIN3pcl8PointXYZEN5Eigen17aligned_allocatorIS1_EEE6resizeEmRKS1_@Base 1.6
 (optional=templinst)_ZNSt6vectorIN3pcl8PointXYZEN5Eigen17aligned_allocatorIS1_EEED1Ev@Base 1.6
 (optional=templinst)_ZNSt6vectorIN3pcl8PointXYZEN5Eigen17aligned_allocatorIS1_EEED2Ev@Base 1.6
 (optional=templinst)_ZNSt6vectorIN3pcl8PointXYZEN5Eigen29aligned_allocator_indirectionIS1_EEE13_M_insert_auxEN9__gnu_cxx17__normal_iteratorIPS1_S5_EERKS1_@Base 1.6
 (optional=templinst)_ZNSt6vectorIN3pcl8PointXYZEN5Eigen29aligned_allocator_indirectionIS1_EEE14_M_fill_insertEN9__gnu_cxx17__normal_iteratorIPS1_S5_EEmRKS1_@Base 1.6
 (optional=templinst)_ZNSt6vectorIN3pcl8PointXYZEN5Eigen29aligned_allocator_indirectionIS1_EEE9push_backERKS1_@Base 1.6
 (optional=templinst)_ZNSt6vectorIN3pcl8VerticesESaIS1_EE14_M_fill_insertEN9__gnu_cxx17__normal_iteratorIPS1_S3_EEmRKS1_@Base 1.6
 (optional=templinst)_ZNSt6vectorIN3pcl8VerticesESaIS1_EE6resizeEmS1_@Base 1.6
 (optional=templinst)_ZNSt6vectorIN3pcl9PointXYZIEN5Eigen17aligned_allocatorIS1_EEE6resizeEmRKS1_@Base 1.6
 (optional=templinst)_ZNSt6vectorIN3pcl9PointXYZIEN5Eigen17aligned_allocatorIS1_EEED1Ev@Base 1.6
 (optional=templinst)_ZNSt6vectorIN3pcl9PointXYZIEN5Eigen17aligned_allocatorIS1_EEED2Ev@Base 1.6
 (optional=templinst)_ZNSt6vectorIN3pcl9PointXYZIEN5Eigen29aligned_allocator_indirectionIS1_EEE14_M_fill_insertEN9__gnu_cxx17__normal_iteratorIPS1_S5_EEmRKS1_@Base 1.6
 (optional=templinst)_ZNSt6vectorIN5boost8signals223shared_connection_blockESaIS2_EEC1ERKS4_@Base 1.6
 (optional=templinst)_ZNSt6vectorIN5boost8signals223shared_connection_blockESaIS2_EEC2ERKS4_@Base 1.6
 (optional=templinst)_ZNSt6vectorIN5boost8signals223shared_connection_blockESaIS2_EED1Ev@Base 1.6
 (optional=templinst)_ZNSt6vectorIN5boost8signals223shared_connection_blockESaIS2_EED2Ev@Base 1.6
 (optional=templinst)_ZNSt6vectorIPN3pcl6octree14OctreeLeafNodeINS1_26OctreeContainerDataTVectorIiEEEESaIS6_EE13_M_insert_auxEN9__gnu_cxx17__normal_iteratorIPS6_S8_EERKS6_@Base 1.6
 (optional=templinst)_ZNSt6vectorIPN3pcl6octree14OctreeLeafNodeINS1_26OctreeContainerDataTVectorIiEEEESaIS6_EE9push_backERKS6_@Base 1.6
 (optional=templinst)_ZNSt6vectorIPN3pcl6octree14OctreeLeafNodeINS1_26OctreeContainerDataTVectorIiEEEESaIS6_EED1Ev@Base 1.6
 (optional=templinst)_ZNSt6vectorIPN3pcl6octree14OctreeLeafNodeINS1_26OctreeContainerDataTVectorIiEEEESaIS6_EED2Ev@Base 1.6
 (optional=templinst)_ZNSt6vectorIPN3pcl6octree18BufferedBranchNodeINS1_20OctreeContainerEmptyIiEEEESaIS6_EE13_M_insert_auxEN9__gnu_cxx17__normal_iteratorIPS6_S8_EERKS6_@Base 1.6
 (optional=templinst)_ZNSt6vectorIPN3pcl6octree18BufferedBranchNodeINS1_20OctreeContainerEmptyIiEEEESaIS6_EE9push_backERKS6_@Base 1.6
 (optional=templinst)_ZNSt6vectorIPN3pcl6octree18BufferedBranchNodeINS1_20OctreeContainerEmptyIiEEEESaIS6_EED1Ev@Base 1.6
 (optional=templinst)_ZNSt6vectorIPN3pcl6octree18BufferedBranchNodeINS1_20OctreeContainerEmptyIiEEEESaIS6_EED2Ev@Base 1.6
 (optional=templinst)_ZNSt6vectorIPcSaIS0_EEC1EmRKS0_RKS1_@Base 1.6
 (optional=templinst)_ZNSt6vectorIPcSaIS0_EEC2EmRKS0_RKS1_@Base 1.6
 (optional=templinst)_ZNSt6vectorIS_IiSaIiEESaIS1_EE14_M_fill_insertEN9__gnu_cxx17__normal_iteratorIPS1_S3_EEmRKS1_@Base 1.6
 (optional=templinst)_ZNSt6vectorIS_IiSaIiEESaIS1_EE6resizeEmS1_@Base 1.6
 (optional=templinst)_ZNSt6vectorIS_IiSaIiEESaIS1_EEC1EmRKS1_RKS2_@Base 1.6
 (optional=templinst)_ZNSt6vectorIS_IiSaIiEESaIS1_EEC2EmRKS1_RKS2_@Base 1.6
 (optional=templinst)_ZNSt6vectorIS_IiSaIiEESaIS1_EED1Ev@Base 1.6
 (optional=templinst)_ZNSt6vectorIS_IiSaIiEESaIS1_EED2Ev@Base 1.6
 (optional=templinst)_ZNSt6vectorISsSaISsEE13_M_insert_auxEN9__gnu_cxx17__normal_iteratorIPSsS1_EERKSs@Base 1.6
 (optional=templinst)_ZNSt6vectorISsSaISsEE2atEm@Base 1.6
 (optional=templinst)_ZNSt6vectorISsSaISsEEC1IN5boost18transform_iteratorINS3_9algorithm6detail20copy_iterator_rangeFISsN9__gnu_cxx17__normal_iteratorIPKcSsEEEENS5_14split_iteratorISC_EENS3_11use_defaultESG_EEEET_SI_RKS0_@Base 1.6
 (optional=templinst)_ZNSt6vectorISsSaISsEEC1IN5boost18transform_iteratorINS3_9algorithm6detail20copy_iterator_rangeFISsN9__gnu_cxx17__normal_iteratorIPcSsEEEENS5_14split_iteratorISB_EENS3_11use_defaultESF_EEEET_SH_RKS0_@Base 1.6
 (optional=templinst)_ZNSt6vectorISsSaISsEEC2IN5boost18transform_iteratorINS3_9algorithm6detail20copy_iterator_rangeFISsN9__gnu_cxx17__normal_iteratorIPKcSsEEEENS5_14split_iteratorISC_EENS3_11use_defaultESG_EEEET_SI_RKS0_@Base 1.6
 (optional=templinst)_ZNSt6vectorISsSaISsEEC2IN5boost18transform_iteratorINS3_9algorithm6detail20copy_iterator_rangeFISsN9__gnu_cxx17__normal_iteratorIPcSsEEEENS5_14split_iteratorISB_EENS3_11use_defaultESF_EEEET_SH_RKS0_@Base 1.6
 (optional=templinst)_ZNSt6vectorISsSaISsEED1Ev@Base 1.6
 (optional=templinst)_ZNSt6vectorISsSaISsEED2Ev@Base 1.6
 (optional=templinst)_ZNSt6vectorISsSaISsEEaSERKS1_@Base 1.6
 (optional=templinst)_ZNSt6vectorISt4pairISsN3pcl17ChannelPropertiesEESaIS3_EED1Ev@Base 1.6
 (optional=templinst)_ZNSt6vectorISt4pairISsN3pcl17ChannelPropertiesEESaIS3_EED2Ev@Base 1.6
 (optional=templinst)_ZNSt6vectorISt4pairIi15XnMapOutputModeESaIS2_EE13_M_insert_auxEN9__gnu_cxx17__normal_iteratorIPS2_S4_EERKS2_@Base 1.6
 (optional=templinst)_ZNSt6vectorISt4pairIi15XnMapOutputModeESaIS2_EED1Ev@Base 1.6
 (optional=templinst)_ZNSt6vectorISt4pairIi15XnMapOutputModeESaIS2_EED2Ev@Base 1.6
 (optional=templinst)_ZNSt6vectorIcSaIcEE13_M_insert_auxEN9__gnu_cxx17__normal_iteratorIPcS1_EERKc@Base 1.6
 (optional=templinst)_ZNSt6vectorIcSaIcEE14_M_fill_insertEN9__gnu_cxx17__normal_iteratorIPcS1_EEmRKc@Base 1.6
 (optional=templinst)_ZNSt6vectorIcSaIcEE6resizeEmc@Base 1.6
 (optional=templinst)_ZNSt6vectorIcSaIcEE7reserveEm@Base 1.6
 (optional=templinst)_ZNSt6vectorIcSaIcEED1Ev@Base 1.6
 (optional=templinst)_ZNSt6vectorIcSaIcEED2Ev@Base 1.6
 (optional=templinst)_ZNSt6vectorIhSaIhEE14_M_fill_insertEN9__gnu_cxx17__normal_iteratorIPhS1_EEmRKh@Base 1.6
 (optional=templinst)_ZNSt6vectorIhSaIhEE6resizeEmh@Base 1.6
 (optional=templinst)_ZNSt6vectorIhSaIhEEC1EmRKhRKS0_@Base 1.6
 (optional=templinst)_ZNSt6vectorIhSaIhEEC2EmRKhRKS0_@Base 1.6
 (optional=templinst)_ZNSt6vectorIiSaIiEE13_M_insert_auxEN9__gnu_cxx17__normal_iteratorIPiS1_EERKi@Base 1.6
 (optional=templinst)_ZNSt6vectorIiSaIiEE14_M_fill_insertEN9__gnu_cxx17__normal_iteratorIPiS1_EEmRKi@Base 1.6
 (optional=templinst)_ZNSt6vectorIiSaIiEE15_M_range_insertIN9__gnu_cxx17__normal_iteratorIPKiS1_EEEEvNS4_IPiS1_EET_SA_St20forward_iterator_tag@Base 1.6
 (optional=templinst)_ZNSt6vectorIiSaIiEE6resizeEmi@Base 1.6
