# SymbolsHelper-Confirmed: 1.6 amd64
libpcl_registration.so.1.6 libpcl-registration1.6 #MINVER#
 _ZN3pcl12registration22CorrespondenceRejector23setInputCorrespondencesERKN5boost10shared_ptrIKSt6vectorINS_14CorrespondenceEN5Eigen17aligned_allocatorIS5_EEEEE@Base 1.6
 _ZN3pcl12registration22CorrespondenceRejectorD0Ev@Base 1.6
 _ZN3pcl12registration22CorrespondenceRejectorD1Ev@Base 1.6
 _ZN3pcl12registration22CorrespondenceRejectorD2Ev@Base 1.6
 _ZN3pcl12registration30CorrespondenceRejectorFeatures14applyRejectionERSt6vectorINS_14CorrespondenceEN5Eigen17aligned_allocatorIS3_EEE@Base 1.6
 _ZN3pcl12registration30CorrespondenceRejectorFeatures27getRemainingCorrespondencesERKSt6vectorINS_14CorrespondenceEN5Eigen17aligned_allocatorIS3_EEERS7_@Base 1.6
 _ZN3pcl12registration30CorrespondenceRejectorFeaturesD0Ev@Base 1.6
 _ZN3pcl12registration30CorrespondenceRejectorFeaturesD1Ev@Base 1.6
 _ZN3pcl12registration30CorrespondenceRejectorFeaturesD2Ev@Base 1.6
 _ZN3pcl12registration32CorrespondenceRejectorVarTrimmed19optimizeInlierRatioERSt6vectorIdSaIdEE@Base 1.6
 _ZN3pcl14CorrespondenceD0Ev@Base 1.6
 _ZN3pcl14CorrespondenceD1Ev@Base 1.6
 _ZN3pcl14CorrespondenceD2Ev@Base 1.6
 (optional=templinst)_ZN3pcl19PointRepresentationINS_12PPFSignatureEED0Ev@Base 1.6
 (optional=templinst)_ZN3pcl19PointRepresentationINS_12PPFSignatureEED1Ev@Base 1.6
 (optional=templinst)_ZN3pcl19PointRepresentationINS_12PPFSignatureEED2Ev@Base 1.6
 (optional=templinst)_ZN3pcl19PointRepresentationINS_15ESFSignature640EED0Ev@Base 1.6
 (optional=templinst)_ZN3pcl19PointRepresentationINS_15ESFSignature640EED1Ev@Base 1.6
 (optional=templinst)_ZN3pcl19PointRepresentationINS_15ESFSignature640EED2Ev@Base 1.6
 (optional=templinst)_ZN3pcl19PointRepresentationINS_15FPFHSignature33EED0Ev@Base 1.6
 (optional=templinst)_ZN3pcl19PointRepresentationINS_15FPFHSignature33EED1Ev@Base 1.6
 (optional=templinst)_ZN3pcl19PointRepresentationINS_15FPFHSignature33EED2Ev@Base 1.6
 (optional=templinst)_ZN3pcl19PointRepresentationINS_15PFHSignature125EED0Ev@Base 1.6
 (optional=templinst)_ZN3pcl19PointRepresentationINS_15PFHSignature125EED1Ev@Base 1.6
 (optional=templinst)_ZN3pcl19PointRepresentationINS_15PFHSignature125EED2Ev@Base 1.6
 (optional=templinst)_ZN3pcl19PointRepresentationINS_15PPFRGBSignatureEED0Ev@Base 1.6
 (optional=templinst)_ZN3pcl19PointRepresentationINS_15PPFRGBSignatureEED1Ev@Base 1.6
 (optional=templinst)_ZN3pcl19PointRepresentationINS_15PPFRGBSignatureEED2Ev@Base 1.6
 (optional=templinst)_ZN3pcl19PointRepresentationINS_15VFHSignature308EED0Ev@Base 1.6
 (optional=templinst)_ZN3pcl19PointRepresentationINS_15VFHSignature308EED1Ev@Base 1.6
 (optional=templinst)_ZN3pcl19PointRepresentationINS_15VFHSignature308EED2Ev@Base 1.6
 (optional=templinst)_ZN3pcl19PointRepresentationINS_18PFHRGBSignature250EED0Ev@Base 1.6
 (optional=templinst)_ZN3pcl19PointRepresentationINS_18PFHRGBSignature250EED1Ev@Base 1.6
 (optional=templinst)_ZN3pcl19PointRepresentationINS_18PFHRGBSignature250EED2Ev@Base 1.6
 (optional=templinst)_ZN3pcl19PointRepresentationINS_22NormalBasedSignature12EED0Ev@Base 1.6
 (optional=templinst)_ZN3pcl19PointRepresentationINS_22NormalBasedSignature12EED1Ev@Base 1.6
 (optional=templinst)_ZN3pcl19PointRepresentationINS_22NormalBasedSignature12EED2Ev@Base 1.6
 (optional=templinst)_ZN3pcl19PointRepresentationINS_6Narf36EED0Ev@Base 1.6
 (optional=templinst)_ZN3pcl19PointRepresentationINS_6Narf36EED1Ev@Base 1.6
 (optional=templinst)_ZN3pcl19PointRepresentationINS_6Narf36EED2Ev@Base 1.6
 (optional=templinst)_ZN3pcl23PyramidFeatureHistogramINS_12PPFSignatureEE10addFeatureERSt6vectorIfSaIfEE@Base 1.6
 (optional=templinst)_ZN3pcl23PyramidFeatureHistogramINS_12PPFSignatureEE10isComputedEv@Base 1.6
 (optional=templinst)_ZN3pcl23PyramidFeatureHistogramINS_12PPFSignatureEE19initializeHistogramEv@Base 1.6
 (optional=templinst)_ZN3pcl23PyramidFeatureHistogramINS_12PPFSignatureEE22convertFeatureToVectorERKS1_RSt6vectorIfSaIfEE@Base 1.6
 (optional=templinst)_ZN3pcl23PyramidFeatureHistogramINS_12PPFSignatureEE22getInputDimensionRangeEv@Base 1.6
 (optional=templinst)_ZN3pcl23PyramidFeatureHistogramINS_12PPFSignatureEE22getPointRepresentationEv@Base 1.6
 (optional=templinst)_ZN3pcl23PyramidFeatureHistogramINS_12PPFSignatureEE22setInputDimensionRangeERSt6vectorISt4pairIffESaIS5_EE@Base 1.6
 (optional=templinst)_ZN3pcl23PyramidFeatureHistogramINS_12PPFSignatureEE22setPointRepresentationERKN5boost10shared_ptrIKNS_19PointRepresentationIS1_EEEE@Base 1.6
 (optional=templinst)_ZN3pcl23PyramidFeatureHistogramINS_12PPFSignatureEE23getTargetDimensionRangeEv@Base 1.6
 (optional=templinst)_ZN3pcl23PyramidFeatureHistogramINS_12PPFSignatureEE23setTargetDimensionRangeERSt6vectorISt4pairIffESaIS5_EE@Base 1.6
 (optional=templinst)_ZN3pcl23PyramidFeatureHistogramINS_12PPFSignatureEE28PyramidFeatureHistogramLevel24initializeHistogramLevelEv@Base 1.6
 (optional=templinst)_ZN3pcl23PyramidFeatureHistogramINS_12PPFSignatureEE28PyramidFeatureHistogramLevelC1ERKS3_@Base 1.6
 (optional=templinst)_ZN3pcl23PyramidFeatureHistogramINS_12PPFSignatureEE28PyramidFeatureHistogramLevelC1ERSt6vectorImSaImEERS4_IfSaIfEE@Base 1.6
 (optional=templinst)_ZN3pcl23PyramidFeatureHistogramINS_12PPFSignatureEE28PyramidFeatureHistogramLevelC1Ev@Base 1.6
 (optional=templinst)_ZN3pcl23PyramidFeatureHistogramINS_12PPFSignatureEE28PyramidFeatureHistogramLevelC2ERKS3_@Base 1.6
 (optional=templinst)_ZN3pcl23PyramidFeatureHistogramINS_12PPFSignatureEE28PyramidFeatureHistogramLevelC2ERSt6vectorImSaImEERS4_IfSaIfEE@Base 1.6
 (optional=templinst)_ZN3pcl23PyramidFeatureHistogramINS_12PPFSignatureEE28PyramidFeatureHistogramLevelC2Ev@Base 1.6
 (optional=templinst)_ZN3pcl23PyramidFeatureHistogramINS_12PPFSignatureEE28PyramidFeatureHistogramLevelD1Ev@Base 1.6
 (optional=templinst)_ZN3pcl23PyramidFeatureHistogramINS_12PPFSignatureEE28PyramidFeatureHistogramLevelD2Ev@Base 1.6
 (optional=templinst)_ZN3pcl23PyramidFeatureHistogramINS_12PPFSignatureEE2atERSt6vectorIfSaIfEERm@Base 1.6
 (optional=templinst)_ZN3pcl23PyramidFeatureHistogramINS_12PPFSignatureEE2atERSt6vectorImSaImEERm@Base 1.6
 (optional=templinst)_ZN3pcl23PyramidFeatureHistogramINS_12PPFSignatureEE31comparePyramidFeatureHistogramsERKN5boost10shared_ptrIS2_EES7_@Base 1.6
 (optional=templinst)_ZN3pcl23PyramidFeatureHistogramINS_12PPFSignatureEE7computeEv@Base 1.6
 (optional=templinst)_ZN3pcl23PyramidFeatureHistogramINS_12PPFSignatureEEC1Ev@Base 1.6
 (optional=templinst)_ZN3pcl23PyramidFeatureHistogramINS_12PPFSignatureEEC2Ev@Base 1.6
 (optional=templinst)_ZN3pcl23PyramidFeatureHistogramINS_12PPFSignatureEED0Ev@Base 1.6
 (optional=templinst)_ZN3pcl23PyramidFeatureHistogramINS_12PPFSignatureEED1Ev@Base 1.6
 (optional=templinst)_ZN3pcl23PyramidFeatureHistogramINS_12PPFSignatureEED2Ev@Base 1.6
 (optional=templinst)_ZN3pcl23PyramidFeatureHistogramINS_15ESFSignature640EE10addFeatureERSt6vectorIfSaIfEE@Base 1.6
 (optional=templinst)_ZN3pcl23PyramidFeatureHistogramINS_15ESFSignature640EE10isComputedEv@Base 1.6
 (optional=templinst)_ZN3pcl23PyramidFeatureHistogramINS_15ESFSignature640EE19initializeHistogramEv@Base 1.6
 (optional=templinst)_ZN3pcl23PyramidFeatureHistogramINS_15ESFSignature640EE22convertFeatureToVectorERKS1_RSt6vectorIfSaIfEE@Base 1.6
 (optional=templinst)_ZN3pcl23PyramidFeatureHistogramINS_15ESFSignature640EE22getInputDimensionRangeEv@Base 1.6
 (optional=templinst)_ZN3pcl23PyramidFeatureHistogramINS_15ESFSignature640EE22getPointRepresentationEv@Base 1.6
 (optional=templinst)_ZN3pcl23PyramidFeatureHistogramINS_15ESFSignature640EE22setInputDimensionRangeERSt6vectorISt4pairIffESaIS5_EE@Base 1.6
 (optional=templinst)_ZN3pcl23PyramidFeatureHistogramINS_15ESFSignature640EE22setPointRepresentationERKN5boost10shared_ptrIKNS_19PointRepresentationIS1_EEEE@Base 1.6
 (optional=templinst)_ZN3pcl23PyramidFeatureHistogramINS_15ESFSignature640EE23getTargetDimensionRangeEv@Base 1.6
 (optional=templinst)_ZN3pcl23PyramidFeatureHistogramINS_15ESFSignature640EE23setTargetDimensionRangeERSt6vectorISt4pairIffESaIS5_EE@Base 1.6
 (optional=templinst)_ZN3pcl23PyramidFeatureHistogramINS_15ESFSignature640EE28PyramidFeatureHistogramLevel24initializeHistogramLevelEv@Base 1.6
 (optional=templinst)_ZN3pcl23PyramidFeatureHistogramINS_15ESFSignature640EE28PyramidFeatureHistogramLevelC1ERKS3_@Base 1.6
 (optional=templinst)_ZN3pcl23PyramidFeatureHistogramINS_15ESFSignature640EE28PyramidFeatureHistogramLevelC1ERSt6vectorImSaImEERS4_IfSaIfEE@Base 1.6
 (optional=templinst)_ZN3pcl23PyramidFeatureHistogramINS_15ESFSignature640EE28PyramidFeatureHistogramLevelC1Ev@Base 1.6
 (optional=templinst)_ZN3pcl23PyramidFeatureHistogramINS_15ESFSignature640EE28PyramidFeatureHistogramLevelC2ERKS3_@Base 1.6
 (optional=templinst)_ZN3pcl23PyramidFeatureHistogramINS_15ESFSignature640EE28PyramidFeatureHistogramLevelC2ERSt6vectorImSaImEERS4_IfSaIfEE@Base 1.6
 (optional=templinst)_ZN3pcl23PyramidFeatureHistogramINS_15ESFSignature640EE28PyramidFeatureHistogramLevelC2Ev@Base 1.6
 (optional=templinst)_ZN3pcl23PyramidFeatureHistogramINS_15ESFSignature640EE28PyramidFeatureHistogramLevelD1Ev@Base 1.6
 (optional=templinst)_ZN3pcl23PyramidFeatureHistogramINS_15ESFSignature640EE28PyramidFeatureHistogramLevelD2Ev@Base 1.6
 (optional=templinst)_ZN3pcl23PyramidFeatureHistogramINS_15ESFSignature640EE2atERSt6vectorIfSaIfEERm@Base 1.6
 (optional=templinst)_ZN3pcl23PyramidFeatureHistogramINS_15ESFSignature640EE2atERSt6vectorImSaImEERm@Base 1.6
 (optional=templinst)_ZN3pcl23PyramidFeatureHistogramINS_15ESFSignature640EE31comparePyramidFeatureHistogramsERKN5boost10shared_ptrIS2_EES7_@Base 1.6
 (optional=templinst)_ZN3pcl23PyramidFeatureHistogramINS_15ESFSignature640EE7computeEv@Base 1.6
 (optional=templinst)_ZN3pcl23PyramidFeatureHistogramINS_15ESFSignature640EEC1Ev@Base 1.6
 (optional=templinst)_ZN3pcl23PyramidFeatureHistogramINS_15ESFSignature640EEC2Ev@Base 1.6
 (optional=templinst)_ZN3pcl23PyramidFeatureHistogramINS_15ESFSignature640EED0Ev@Base 1.6
 (optional=templinst)_ZN3pcl23PyramidFeatureHistogramINS_15ESFSignature640EED1Ev@Base 1.6
 (optional=templinst)_ZN3pcl23PyramidFeatureHistogramINS_15ESFSignature640EED2Ev@Base 1.6
 (optional=templinst)_ZN3pcl23PyramidFeatureHistogramINS_15FPFHSignature33EE10addFeatureERSt6vectorIfSaIfEE@Base 1.6
 (optional=templinst)_ZN3pcl23PyramidFeatureHistogramINS_15FPFHSignature33EE10isComputedEv@Base 1.6
 (optional=templinst)_ZN3pcl23PyramidFeatureHistogramINS_15FPFHSignature33EE19initializeHistogramEv@Base 1.6
 (optional=templinst)_ZN3pcl23PyramidFeatureHistogramINS_15FPFHSignature33EE22convertFeatureToVectorERKS1_RSt6vectorIfSaIfEE@Base 1.6
 (optional=templinst)_ZN3pcl23PyramidFeatureHistogramINS_15FPFHSignature33EE22getInputDimensionRangeEv@Base 1.6
 (optional=templinst)_ZN3pcl23PyramidFeatureHistogramINS_15FPFHSignature33EE22getPointRepresentationEv@Base 1.6
 (optional=templinst)_ZN3pcl23PyramidFeatureHistogramINS_15FPFHSignature33EE22setInputDimensionRangeERSt6vectorISt4pairIffESaIS5_EE@Base 1.6
 (optional=templinst)_ZN3pcl23PyramidFeatureHistogramINS_15FPFHSignature33EE22setPointRepresentationERKN5boost10shared_ptrIKNS_19PointRepresentationIS1_EEEE@Base 1.6
 (optional=templinst)_ZN3pcl23PyramidFeatureHistogramINS_15FPFHSignature33EE23getTargetDimensionRangeEv@Base 1.6
 (optional=templinst)_ZN3pcl23PyramidFeatureHistogramINS_15FPFHSignature33EE23setTargetDimensionRangeERSt6vectorISt4pairIffESaIS5_EE@Base 1.6
 (optional=templinst)_ZN3pcl23PyramidFeatureHistogramINS_15FPFHSignature33EE28PyramidFeatureHistogramLevel24initializeHistogramLevelEv@Base 1.6
 (optional=templinst)_ZN3pcl23PyramidFeatureHistogramINS_15FPFHSignature33EE28PyramidFeatureHistogramLevelC1ERKS3_@Base 1.6
 (optional=templinst)_ZN3pcl23PyramidFeatureHistogramINS_15FPFHSignature33EE28PyramidFeatureHistogramLevelC1ERSt6vectorImSaImEERS4_IfSaIfEE@Base 1.6
 (optional=templinst)_ZN3pcl23PyramidFeatureHistogramINS_15FPFHSignature33EE28PyramidFeatureHistogramLevelC1Ev@Base 1.6
 (optional=templinst)_ZN3pcl23PyramidFeatureHistogramINS_15FPFHSignature33EE28PyramidFeatureHistogramLevelC2ERKS3_@Base 1.6
 (optional=templinst)_ZN3pcl23PyramidFeatureHistogramINS_15FPFHSignature33EE28PyramidFeatureHistogramLevelC2ERSt6vectorImSaImEERS4_IfSaIfEE@Base 1.6
 (optional=templinst)_ZN3pcl23PyramidFeatureHistogramINS_15FPFHSignature33EE28PyramidFeatureHistogramLevelC2Ev@Base 1.6
 (optional=templinst)_ZN3pcl23PyramidFeatureHistogramINS_15FPFHSignature33EE28PyramidFeatureHistogramLevelD1Ev@Base 1.6
 (optional=templinst)_ZN3pcl23PyramidFeatureHistogramINS_15FPFHSignature33EE28PyramidFeatureHistogramLevelD2Ev@Base 1.6
 (optional=templinst)_ZN3pcl23PyramidFeatureHistogramINS_15FPFHSignature33EE2atERSt6vectorIfSaIfEERm@Base 1.6
 (optional=templinst)_ZN3pcl23PyramidFeatureHistogramINS_15FPFHSignature33EE2atERSt6vectorImSaImEERm@Base 1.6
 (optional=templinst)_ZN3pcl23PyramidFeatureHistogramINS_15FPFHSignature33EE31comparePyramidFeatureHistogramsERKN5boost10shared_ptrIS2_EES7_@Base 1.6
 (optional=templinst)_ZN3pcl23PyramidFeatureHistogramINS_15FPFHSignature33EE7computeEv@Base 1.6
 (optional=templinst)_ZN3pcl23PyramidFeatureHistogramINS_15FPFHSignature33EEC1Ev@Base 1.6
 (optional=templinst)_ZN3pcl23PyramidFeatureHistogramINS_15FPFHSignature33EEC2Ev@Base 1.6
 (optional=templinst)_ZN3pcl23PyramidFeatureHistogramINS_15FPFHSignature33EED0Ev@Base 1.6
 (optional=templinst)_ZN3pcl23PyramidFeatureHistogramINS_15FPFHSignature33EED1Ev@Base 1.6
 (optional=templinst)_ZN3pcl23PyramidFeatureHistogramINS_15FPFHSignature33EED2Ev@Base 1.6
 (optional=templinst)_ZN3pcl23PyramidFeatureHistogramINS_15PFHSignature125EE10addFeatureERSt6vectorIfSaIfEE@Base 1.6
 (optional=templinst)_ZN3pcl23PyramidFeatureHistogramINS_15PFHSignature125EE10isComputedEv@Base 1.6
 (optional=templinst)_ZN3pcl23PyramidFeatureHistogramINS_15PFHSignature125EE19initializeHistogramEv@Base 1.6
 (optional=templinst)_ZN3pcl23PyramidFeatureHistogramINS_15PFHSignature125EE22convertFeatureToVectorERKS1_RSt6vectorIfSaIfEE@Base 1.6
 (optional=templinst)_ZN3pcl23PyramidFeatureHistogramINS_15PFHSignature125EE22getInputDimensionRangeEv@Base 1.6
 (optional=templinst)_ZN3pcl23PyramidFeatureHistogramINS_15PFHSignature125EE22getPointRepresentationEv@Base 1.6
 (optional=templinst)_ZN3pcl23PyramidFeatureHistogramINS_15PFHSignature125EE22setInputDimensionRangeERSt6vectorISt4pairIffESaIS5_EE@Base 1.6
 (optional=templinst)_ZN3pcl23PyramidFeatureHistogramINS_15PFHSignature125EE22setPointRepresentationERKN5boost10shared_ptrIKNS_19PointRepresentationIS1_EEEE@Base 1.6
 (optional=templinst)_ZN3pcl23PyramidFeatureHistogramINS_15PFHSignature125EE23getTargetDimensionRangeEv@Base 1.6
 (optional=templinst)_ZN3pcl23PyramidFeatureHistogramINS_15PFHSignature125EE23setTargetDimensionRangeERSt6vectorISt4pairIffESaIS5_EE@Base 1.6
 (optional=templinst)_ZN3pcl23PyramidFeatureHistogramINS_15PFHSignature125EE28PyramidFeatureHistogramLevel24initializeHistogramLevelEv@Base 1.6
 (optional=templinst)_ZN3pcl23PyramidFeatureHistogramINS_15PFHSignature125EE28PyramidFeatureHistogramLevelC1ERKS3_@Base 1.6
 (optional=templinst)_ZN3pcl23PyramidFeatureHistogramINS_15PFHSignature125EE28PyramidFeatureHistogramLevelC1ERSt6vectorImSaImEERS4_IfSaIfEE@Base 1.6
 (optional=templinst)_ZN3pcl23PyramidFeatureHistogramINS_15PFHSignature125EE28PyramidFeatureHistogramLevelC1Ev@Base 1.6
 (optional=templinst)_ZN3pcl23PyramidFeatureHistogramINS_15PFHSignature125EE28PyramidFeatureHistogramLevelC2ERKS3_@Base 1.6
 (optional=templinst)_ZN3pcl23PyramidFeatureHistogramINS_15PFHSignature125EE28PyramidFeatureHistogramLevelC2ERSt6vectorImSaImEERS4_IfSaIfEE@Base 1.6
 (optional=templinst)_ZN3pcl23PyramidFeatureHistogramINS_15PFHSignature125EE28PyramidFeatureHistogramLevelC2Ev@Base 1.6
 (optional=templinst)_ZN3pcl23PyramidFeatureHistogramINS_15PFHSignature125EE28PyramidFeatureHistogramLevelD1Ev@Base 1.6
 (optional=templinst)_ZN3pcl23PyramidFeatureHistogramINS_15PFHSignature125EE28PyramidFeatureHistogramLevelD2Ev@Base 1.6
 (optional=templinst)_ZN3pcl23PyramidFeatureHistogramINS_15PFHSignature125EE2atERSt6vectorIfSaIfEERm@Base 1.6
 (optional=templinst)_ZN3pcl23PyramidFeatureHistogramINS_15PFHSignature125EE2atERSt6vectorImSaImEERm@Base 1.6
 (optional=templinst)_ZN3pcl23PyramidFeatureHistogramINS_15PFHSignature125EE31comparePyramidFeatureHistogramsERKN5boost10shared_ptrIS2_EES7_@Base 1.6
 (optional=templinst)_ZN3pcl23PyramidFeatureHistogramINS_15PFHSignature125EE7computeEv@Base 1.6
 (optional=templinst)_ZN3pcl23PyramidFeatureHistogramINS_15PFHSignature125EEC1Ev@Base 1.6
 (optional=templinst)_ZN3pcl23PyramidFeatureHistogramINS_15PFHSignature125EEC2Ev@Base 1.6
 (optional=templinst)_ZN3pcl23PyramidFeatureHistogramINS_15PFHSignature125EED0Ev@Base 1.6
 (optional=templinst)_ZN3pcl23PyramidFeatureHistogramINS_15PFHSignature125EED1Ev@Base 1.6
 (optional=templinst)_ZN3pcl23PyramidFeatureHistogramINS_15PFHSignature125EED2Ev@Base 1.6
 (optional=templinst)_ZN3pcl23PyramidFeatureHistogramINS_15PPFRGBSignatureEE10addFeatureERSt6vectorIfSaIfEE@Base 1.6
 (optional=templinst)_ZN3pcl23PyramidFeatureHistogramINS_15PPFRGBSignatureEE10isComputedEv@Base 1.6
 (optional=templinst)_ZN3pcl23PyramidFeatureHistogramINS_15PPFRGBSignatureEE19initializeHistogramEv@Base 1.6
 (optional=templinst)_ZN3pcl23PyramidFeatureHistogramINS_15PPFRGBSignatureEE22convertFeatureToVectorERKS1_RSt6vectorIfSaIfEE@Base 1.6
 (optional=templinst)_ZN3pcl23PyramidFeatureHistogramINS_15PPFRGBSignatureEE22getInputDimensionRangeEv@Base 1.6
 (optional=templinst)_ZN3pcl23PyramidFeatureHistogramINS_15PPFRGBSignatureEE22getPointRepresentationEv@Base 1.6
 (optional=templinst)_ZN3pcl23PyramidFeatureHistogramINS_15PPFRGBSignatureEE22setInputDimensionRangeERSt6vectorISt4pairIffESaIS5_EE@Base 1.6
 (optional=templinst)_ZN3pcl23PyramidFeatureHistogramINS_15PPFRGBSignatureEE22setPointRepresentationERKN5boost10shared_ptrIKNS_19PointRepresentationIS1_EEEE@Base 1.6
 (optional=templinst)_ZN3pcl23PyramidFeatureHistogramINS_15PPFRGBSignatureEE23getTargetDimensionRangeEv@Base 1.6
 (optional=templinst)_ZN3pcl23PyramidFeatureHistogramINS_15PPFRGBSignatureEE23setTargetDimensionRangeERSt6vectorISt4pairIffESaIS5_EE@Base 1.6
 (optional=templinst)_ZN3pcl23PyramidFeatureHistogramINS_15PPFRGBSignatureEE28PyramidFeatureHistogramLevel24initializeHistogramLevelEv@Base 1.6
 (optional=templinst)_ZN3pcl23PyramidFeatureHistogramINS_15PPFRGBSignatureEE28PyramidFeatureHistogramLevelC1ERKS3_@Base 1.6
 (optional=templinst)_ZN3pcl23PyramidFeatureHistogramINS_15PPFRGBSignatureEE28PyramidFeatureHistogramLevelC1ERSt6vectorImSaImEERS4_IfSaIfEE@Base 1.6
 (optional=templinst)_ZN3pcl23PyramidFeatureHistogramINS_15PPFRGBSignatureEE28PyramidFeatureHistogramLevelC1Ev@Base 1.6
 (optional=templinst)_ZN3pcl23PyramidFeatureHistogramINS_15PPFRGBSignatureEE28PyramidFeatureHistogramLevelC2ERKS3_@Base 1.6
 (optional=templinst)_ZN3pcl23PyramidFeatureHistogramINS_15PPFRGBSignatureEE28PyramidFeatureHistogramLevelC2ERSt6vectorImSaImEERS4_IfSaIfEE@Base 1.6
 (optional=templinst)_ZN3pcl23PyramidFeatureHistogramINS_15PPFRGBSignatureEE28PyramidFeatureHistogramLevelC2Ev@Base 1.6
 (optional=templinst)_ZN3pcl23PyramidFeatureHistogramINS_15PPFRGBSignatureEE28PyramidFeatureHistogramLevelD1Ev@Base 1.6
 (optional=templinst)_ZN3pcl23PyramidFeatureHistogramINS_15PPFRGBSignatureEE28PyramidFeatureHistogramLevelD2Ev@Base 1.6
 (optional=templinst)_ZN3pcl23PyramidFeatureHistogramINS_15PPFRGBSignatureEE2atERSt6vectorIfSaIfEERm@Base 1.6
 (optional=templinst)_ZN3pcl23PyramidFeatureHistogramINS_15PPFRGBSignatureEE2atERSt6vectorImSaImEERm@Base 1.6
 (optional=templinst)_ZN3pcl23PyramidFeatureHistogramINS_15PPFRGBSignatureEE31comparePyramidFeatureHistogramsERKN5boost10shared_ptrIS2_EES7_@Base 1.6
 (optional=templinst)_ZN3pcl23PyramidFeatureHistogramINS_15PPFRGBSignatureEE7computeEv@Base 1.6
 (optional=templinst)_ZN3pcl23PyramidFeatureHistogramINS_15PPFRGBSignatureEEC1Ev@Base 1.6
 (optional=templinst)_ZN3pcl23PyramidFeatureHistogramINS_15PPFRGBSignatureEEC2Ev@Base 1.6
 (optional=templinst)_ZN3pcl23PyramidFeatureHistogramINS_15PPFRGBSignatureEED0Ev@Base 1.6
 (optional=templinst)_ZN3pcl23PyramidFeatureHistogramINS_15PPFRGBSignatureEED1Ev@Base 1.6
 (optional=templinst)_ZN3pcl23PyramidFeatureHistogramINS_15PPFRGBSignatureEED2Ev@Base 1.6
 (optional=templinst)_ZN3pcl23PyramidFeatureHistogramINS_15VFHSignature308EE10addFeatureERSt6vectorIfSaIfEE@Base 1.6
 (optional=templinst)_ZN3pcl23PyramidFeatureHistogramINS_15VFHSignature308EE10isComputedEv@Base 1.6
 (optional=templinst)_ZN3pcl23PyramidFeatureHistogramINS_15VFHSignature308EE19initializeHistogramEv@Base 1.6
 (optional=templinst)_ZN3pcl23PyramidFeatureHistogramINS_15VFHSignature308EE22convertFeatureToVectorERKS1_RSt6vectorIfSaIfEE@Base 1.6
 (optional=templinst)_ZN3pcl23PyramidFeatureHistogramINS_15VFHSignature308EE22getInputDimensionRangeEv@Base 1.6
 (optional=templinst)_ZN3pcl23PyramidFeatureHistogramINS_15VFHSignature308EE22getPointRepresentationEv@Base 1.6
 (optional=templinst)_ZN3pcl23PyramidFeatureHistogramINS_15VFHSignature308EE22setInputDimensionRangeERSt6vectorISt4pairIffESaIS5_EE@Base 1.6
 (optional=templinst)_ZN3pcl23PyramidFeatureHistogramINS_15VFHSignature308EE22setPointRepresentationERKN5boost10shared_ptrIKNS_19PointRepresentationIS1_EEEE@Base 1.6
 (optional=templinst)_ZN3pcl23PyramidFeatureHistogramINS_15VFHSignature308EE23getTargetDimensionRangeEv@Base 1.6
 (optional=templinst)_ZN3pcl23PyramidFeatureHistogramINS_15VFHSignature308EE23setTargetDimensionRangeERSt6vectorISt4pairIffESaIS5_EE@Base 1.6
 (optional=templinst)_ZN3pcl23PyramidFeatureHistogramINS_15VFHSignature308EE28PyramidFeatureHistogramLevel24initializeHistogramLevelEv@Base 1.6
 (optional=templinst)_ZN3pcl23PyramidFeatureHistogramINS_15VFHSignature308EE28PyramidFeatureHistogramLevelC1ERKS3_@Base 1.6
 (optional=templinst)_ZN3pcl23PyramidFeatureHistogramINS_15VFHSignature308EE28PyramidFeatureHistogramLevelC1ERSt6vectorImSaImEERS4_IfSaIfEE@Base 1.6
 (optional=templinst)_ZN3pcl23PyramidFeatureHistogramINS_15VFHSignature308EE28PyramidFeatureHistogramLevelC1Ev@Base 1.6
 (optional=templinst)_ZN3pcl23PyramidFeatureHistogramINS_15VFHSignature308EE28PyramidFeatureHistogramLevelC2ERKS3_@Base 1.6
 (optional=templinst)_ZN3pcl23PyramidFeatureHistogramINS_15VFHSignature308EE28PyramidFeatureHistogramLevelC2ERSt6vectorImSaImEERS4_IfSaIfEE@Base 1.6
 (optional=templinst)_ZN3pcl23PyramidFeatureHistogramINS_15VFHSignature308EE28PyramidFeatureHistogramLevelC2Ev@Base 1.6
 (optional=templinst)_ZN3pcl23PyramidFeatureHistogramINS_15VFHSignature308EE28PyramidFeatureHistogramLevelD1Ev@Base 1.6
 (optional=templinst)_ZN3pcl23PyramidFeatureHistogramINS_15VFHSignature308EE28PyramidFeatureHistogramLevelD2Ev@Base 1.6
 (optional=templinst)_ZN3pcl23PyramidFeatureHistogramINS_15VFHSignature308EE2atERSt6vectorIfSaIfEERm@Base 1.6
 (optional=templinst)_ZN3pcl23PyramidFeatureHistogramINS_15VFHSignature308EE2atERSt6vectorImSaImEERm@Base 1.6
 (optional=templinst)_ZN3pcl23PyramidFeatureHistogramINS_15VFHSignature308EE31comparePyramidFeatureHistogramsERKN5boost10shared_ptrIS2_EES7_@Base 1.6
 (optional=templinst)_ZN3pcl23PyramidFeatureHistogramINS_15VFHSignature308EE7computeEv@Base 1.6
 (optional=templinst)_ZN3pcl23PyramidFeatureHistogramINS_15VFHSignature308EEC1Ev@Base 1.6
 (optional=templinst)_ZN3pcl23PyramidFeatureHistogramINS_15VFHSignature308EEC2Ev@Base 1.6
 (optional=templinst)_ZN3pcl23PyramidFeatureHistogramINS_15VFHSignature308EED0Ev@Base 1.6
 (optional=templinst)_ZN3pcl23PyramidFeatureHistogramINS_15VFHSignature308EED1Ev@Base 1.6
 (optional=templinst)_ZN3pcl23PyramidFeatureHistogramINS_15VFHSignature308EED2Ev@Base 1.6
 (optional=templinst)_ZN3pcl23PyramidFeatureHistogramINS_18PFHRGBSignature250EE10addFeatureERSt6vectorIfSaIfEE@Base 1.6
 (optional=templinst)_ZN3pcl23PyramidFeatureHistogramINS_18PFHRGBSignature250EE10isComputedEv@Base 1.6
 (optional=templinst)_ZN3pcl23PyramidFeatureHistogramINS_18PFHRGBSignature250EE19initializeHistogramEv@Base 1.6
 (optional=templinst)_ZN3pcl23PyramidFeatureHistogramINS_18PFHRGBSignature250EE22convertFeatureToVectorERKS1_RSt6vectorIfSaIfEE@Base 1.6
 (optional=templinst)_ZN3pcl23PyramidFeatureHistogramINS_18PFHRGBSignature250EE22getInputDimensionRangeEv@Base 1.6
 (optional=templinst)_ZN3pcl23PyramidFeatureHistogramINS_18PFHRGBSignature250EE22getPointRepresentationEv@Base 1.6
 (optional=templinst)_ZN3pcl23PyramidFeatureHistogramINS_18PFHRGBSignature250EE22setInputDimensionRangeERSt6vectorISt4pairIffESaIS5_EE@Base 1.6
 (optional=templinst)_ZN3pcl23PyramidFeatureHistogramINS_18PFHRGBSignature250EE22setPointRepresentationERKN5boost10shared_ptrIKNS_19PointRepresentationIS1_EEEE@Base 1.6
 (optional=templinst)_ZN3pcl23PyramidFeatureHistogramINS_18PFHRGBSignature250EE23getTargetDimensionRangeEv@Base 1.6
 (optional=templinst)_ZN3pcl23PyramidFeatureHistogramINS_18PFHRGBSignature250EE23setTargetDimensionRangeERSt6vectorISt4pairIffESaIS5_EE@Base 1.6
 (optional=templinst)_ZN3pcl23PyramidFeatureHistogramINS_18PFHRGBSignature250EE28PyramidFeatureHistogramLevel24initializeHistogramLevelEv@Base 1.6
 (optional=templinst)_ZN3pcl23PyramidFeatureHistogramINS_18PFHRGBSignature250EE28PyramidFeatureHistogramLevelC1ERKS3_@Base 1.6
 (optional=templinst)_ZN3pcl23PyramidFeatureHistogramINS_18PFHRGBSignature250EE28PyramidFeatureHistogramLevelC1ERSt6vectorImSaImEERS4_IfSaIfEE@Base 1.6
 (optional=templinst)_ZN3pcl23PyramidFeatureHistogramINS_18PFHRGBSignature250EE28PyramidFeatureHistogramLevelC1Ev@Base 1.6
 (optional=templinst)_ZN3pcl23PyramidFeatureHistogramINS_18PFHRGBSignature250EE28PyramidFeatureHistogramLevelC2ERKS3_@Base 1.6
 (optional=templinst)_ZN3pcl23PyramidFeatureHistogramINS_18PFHRGBSignature250EE28PyramidFeatureHistogramLevelC2ERSt6vectorImSaImEERS4_IfSaIfEE@Base 1.6
 (optional=templinst)_ZN3pcl23PyramidFeatureHistogramINS_18PFHRGBSignature250EE28PyramidFeatureHistogramLevelC2Ev@Base 1.6
 (optional=templinst)_ZN3pcl23PyramidFeatureHistogramINS_18PFHRGBSignature250EE28PyramidFeatureHistogramLevelD1Ev@Base 1.6
 (optional=templinst)_ZN3pcl23PyramidFeatureHistogramINS_18PFHRGBSignature250EE28PyramidFeatureHistogramLevelD2Ev@Base 1.6
 (optional=templinst)_ZN3pcl23PyramidFeatureHistogramINS_18PFHRGBSignature250EE2atERSt6vectorIfSaIfEERm@Base 1.6
 (optional=templinst)_ZN3pcl23PyramidFeatureHistogramINS_18PFHRGBSignature250EE2atERSt6vectorImSaImEERm@Base 1.6
 (optional=templinst)_ZN3pcl23PyramidFeatureHistogramINS_18PFHRGBSignature250EE31comparePyramidFeatureHistogramsERKN5boost10shared_ptrIS2_EES7_@Base 1.6
 (optional=templinst)_ZN3pcl23PyramidFeatureHistogramINS_18PFHRGBSignature250EE7computeEv@Base 1.6
 (optional=templinst)_ZN3pcl23PyramidFeatureHistogramINS_18PFHRGBSignature250EEC1Ev@Base 1.6
 (optional=templinst)_ZN3pcl23PyramidFeatureHistogramINS_18PFHRGBSignature250EEC2Ev@Base 1.6
 (optional=templinst)_ZN3pcl23PyramidFeatureHistogramINS_18PFHRGBSignature250EED0Ev@Base 1.6
 (optional=templinst)_ZN3pcl23PyramidFeatureHistogramINS_18PFHRGBSignature250EED1Ev@Base 1.6
 (optional=templinst)_ZN3pcl23PyramidFeatureHistogramINS_18PFHRGBSignature250EED2Ev@Base 1.6
 (optional=templinst)_ZN3pcl23PyramidFeatureHistogramINS_22NormalBasedSignature12EE10addFeatureERSt6vectorIfSaIfEE@Base 1.6
 (optional=templinst)_ZN3pcl23PyramidFeatureHistogramINS_22NormalBasedSignature12EE10isComputedEv@Base 1.6
 (optional=templinst)_ZN3pcl23PyramidFeatureHistogramINS_22NormalBasedSignature12EE19initializeHistogramEv@Base 1.6
 (optional=templinst)_ZN3pcl23PyramidFeatureHistogramINS_22NormalBasedSignature12EE22convertFeatureToVectorERKS1_RSt6vectorIfSaIfEE@Base 1.6
 (optional=templinst)_ZN3pcl23PyramidFeatureHistogramINS_22NormalBasedSignature12EE22getInputDimensionRangeEv@Base 1.6
 (optional=templinst)_ZN3pcl23PyramidFeatureHistogramINS_22NormalBasedSignature12EE22getPointRepresentationEv@Base 1.6
 (optional=templinst)_ZN3pcl23PyramidFeatureHistogramINS_22NormalBasedSignature12EE22setInputDimensionRangeERSt6vectorISt4pairIffESaIS5_EE@Base 1.6
 (optional=templinst)_ZN3pcl23PyramidFeatureHistogramINS_22NormalBasedSignature12EE22setPointRepresentationERKN5boost10shared_ptrIKNS_19PointRepresentationIS1_EEEE@Base 1.6
 (optional=templinst)_ZN3pcl23PyramidFeatureHistogramINS_22NormalBasedSignature12EE23getTargetDimensionRangeEv@Base 1.6
 (optional=templinst)_ZN3pcl23PyramidFeatureHistogramINS_22NormalBasedSignature12EE23setTargetDimensionRangeERSt6vectorISt4pairIffESaIS5_EE@Base 1.6
 (optional=templinst)_ZN3pcl23PyramidFeatureHistogramINS_22NormalBasedSignature12EE28PyramidFeatureHistogramLevel24initializeHistogramLevelEv@Base 1.6
 (optional=templinst)_ZN3pcl23PyramidFeatureHistogramINS_22NormalBasedSignature12EE28PyramidFeatureHistogramLevelC1ERKS3_@Base 1.6
 (optional=templinst)_ZN3pcl23PyramidFeatureHistogramINS_22NormalBasedSignature12EE28PyramidFeatureHistogramLevelC1ERSt6vectorImSaImEERS4_IfSaIfEE@Base 1.6
 (optional=templinst)_ZN3pcl23PyramidFeatureHistogramINS_22NormalBasedSignature12EE28PyramidFeatureHistogramLevelC1Ev@Base 1.6
 (optional=templinst)_ZN3pcl23PyramidFeatureHistogramINS_22NormalBasedSignature12EE28PyramidFeatureHistogramLevelC2ERKS3_@Base 1.6
 (optional=templinst)_ZN3pcl23PyramidFeatureHistogramINS_22NormalBasedSignature12EE28PyramidFeatureHistogramLevelC2ERSt6vectorImSaImEERS4_IfSaIfEE@Base 1.6
 (optional=templinst)_ZN3pcl23PyramidFeatureHistogramINS_22NormalBasedSignature12EE28PyramidFeatureHistogramLevelC2Ev@Base 1.6
 (optional=templinst)_ZN3pcl23PyramidFeatureHistogramINS_22NormalBasedSignature12EE28PyramidFeatureHistogramLevelD1Ev@Base 1.6
 (optional=templinst)_ZN3pcl23PyramidFeatureHistogramINS_22NormalBasedSignature12EE28PyramidFeatureHistogramLevelD2Ev@Base 1.6
 (optional=templinst)_ZN3pcl23PyramidFeatureHistogramINS_22NormalBasedSignature12EE2atERSt6vectorIfSaIfEERm@Base 1.6
 (optional=templinst)_ZN3pcl23PyramidFeatureHistogramINS_22NormalBasedSignature12EE2atERSt6vectorImSaImEERm@Base 1.6
 (optional=templinst)_ZN3pcl23PyramidFeatureHistogramINS_22NormalBasedSignature12EE31comparePyramidFeatureHistogramsERKN5boost10shared_ptrIS2_EES7_@Base 1.6
 (optional=templinst)_ZN3pcl23PyramidFeatureHistogramINS_22NormalBasedSignature12EE7computeEv@Base 1.6
 (optional=templinst)_ZN3pcl23PyramidFeatureHistogramINS_22NormalBasedSignature12EEC1Ev@Base 1.6
 (optional=templinst)_ZN3pcl23PyramidFeatureHistogramINS_22NormalBasedSignature12EEC2Ev@Base 1.6
 (optional=templinst)_ZN3pcl23PyramidFeatureHistogramINS_22NormalBasedSignature12EED0Ev@Base 1.6
 (optional=templinst)_ZN3pcl23PyramidFeatureHistogramINS_22NormalBasedSignature12EED1Ev@Base 1.6
 (optional=templinst)_ZN3pcl23PyramidFeatureHistogramINS_22NormalBasedSignature12EED2Ev@Base 1.6
 (optional=templinst)_ZN3pcl23PyramidFeatureHistogramINS_6Narf36EE10addFeatureERSt6vectorIfSaIfEE@Base 1.6
 (optional=templinst)_ZN3pcl23PyramidFeatureHistogramINS_6Narf36EE10isComputedEv@Base 1.6
 (optional=templinst)_ZN3pcl23PyramidFeatureHistogramINS_6Narf36EE19initializeHistogramEv@Base 1.6
 (optional=templinst)_ZN3pcl23PyramidFeatureHistogramINS_6Narf36EE22convertFeatureToVectorERKS1_RSt6vectorIfSaIfEE@Base 1.6
 (optional=templinst)_ZN3pcl23PyramidFeatureHistogramINS_6Narf36EE22getInputDimensionRangeEv@Base 1.6
 (optional=templinst)_ZN3pcl23PyramidFeatureHistogramINS_6Narf36EE22getPointRepresentationEv@Base 1.6
 (optional=templinst)_ZN3pcl23PyramidFeatureHistogramINS_6Narf36EE22setInputDimensionRangeERSt6vectorISt4pairIffESaIS5_EE@Base 1.6
 (optional=templinst)_ZN3pcl23PyramidFeatureHistogramINS_6Narf36EE22setPointRepresentationERKN5boost10shared_ptrIKNS_19PointRepresentationIS1_EEEE@Base 1.6
 (optional=templinst)_ZN3pcl23PyramidFeatureHistogramINS_6Narf36EE23getTargetDimensionRangeEv@Base 1.6
 (optional=templinst)_ZN3pcl23PyramidFeatureHistogramINS_6Narf36EE23setTargetDimensionRangeERSt6vectorISt4pairIffESaIS5_EE@Base 1.6
 (optional=templinst)_ZN3pcl23PyramidFeatureHistogramINS_6Narf36EE28PyramidFeatureHistogramLevel24initializeHistogramLevelEv@Base 1.6
 (optional=templinst)_ZN3pcl23PyramidFeatureHistogramINS_6Narf36EE28PyramidFeatureHistogramLevelC1ERKS3_@Base 1.6
 (optional=templinst)_ZN3pcl23PyramidFeatureHistogramINS_6Narf36EE28PyramidFeatureHistogramLevelC1ERSt6vectorImSaImEERS4_IfSaIfEE@Base 1.6
 (optional=templinst)_ZN3pcl23PyramidFeatureHistogramINS_6Narf36EE28PyramidFeatureHistogramLevelC1Ev@Base 1.6
 (optional=templinst)_ZN3pcl23PyramidFeatureHistogramINS_6Narf36EE28PyramidFeatureHistogramLevelC2ERKS3_@Base 1.6
 (optional=templinst)_ZN3pcl23PyramidFeatureHistogramINS_6Narf36EE28PyramidFeatureHistogramLevelC2ERSt6vectorImSaImEERS4_IfSaIfEE@Base 1.6
 (optional=templinst)_ZN3pcl23PyramidFeatureHistogramINS_6Narf36EE28PyramidFeatureHistogramLevelC2Ev@Base 1.6
 (optional=templinst)_ZN3pcl23PyramidFeatureHistogramINS_6Narf36EE28PyramidFeatureHistogramLevelD1Ev@Base 1.6
 (optional=templinst)_ZN3pcl23PyramidFeatureHistogramINS_6Narf36EE28PyramidFeatureHistogramLevelD2Ev@Base 1.6
 (optional=templinst)_ZN3pcl23PyramidFeatureHistogramINS_6Narf36EE2atERSt6vectorIfSaIfEERm@Base 1.6
 (optional=templinst)_ZN3pcl23PyramidFeatureHistogramINS_6Narf36EE2atERSt6vectorImSaImEERm@Base 1.6
 (optional=templinst)_ZN3pcl23PyramidFeatureHistogramINS_6Narf36EE31comparePyramidFeatureHistogramsERKN5boost10shared_ptrIS2_EES7_@Base 1.6
 (optional=templinst)_ZN3pcl23PyramidFeatureHistogramINS_6Narf36EE7computeEv@Base 1.6
 (optional=templinst)_ZN3pcl23PyramidFeatureHistogramINS_6Narf36EEC1Ev@Base 1.6
 (optional=templinst)_ZN3pcl23PyramidFeatureHistogramINS_6Narf36EEC2Ev@Base 1.6
 (optional=templinst)_ZN3pcl23PyramidFeatureHistogramINS_6Narf36EED0Ev@Base 1.6
 (optional=templinst)_ZN3pcl23PyramidFeatureHistogramINS_6Narf36EED1Ev@Base 1.6
 (optional=templinst)_ZN3pcl23PyramidFeatureHistogramINS_6Narf36EED2Ev@Base 1.6
 (optional=templinst)_ZN3pcl26DefaultPointRepresentationINS_12PPFSignatureEED0Ev@Base 1.6
 (optional=templinst)_ZN3pcl26DefaultPointRepresentationINS_12PPFSignatureEED1Ev@Base 1.6
 (optional=templinst)_ZN3pcl26DefaultPointRepresentationINS_12PPFSignatureEED2Ev@Base 1.6
 (optional=templinst)_ZN3pcl26DefaultPointRepresentationINS_15ESFSignature640EED0Ev@Base 1.6
 (optional=templinst)_ZN3pcl26DefaultPointRepresentationINS_15ESFSignature640EED1Ev@Base 1.6
 (optional=templinst)_ZN3pcl26DefaultPointRepresentationINS_15ESFSignature640EED2Ev@Base 1.6
 (optional=templinst)_ZN3pcl26DefaultPointRepresentationINS_15FPFHSignature33EED0Ev@Base 1.6
 (optional=templinst)_ZN3pcl26DefaultPointRepresentationINS_15FPFHSignature33EED1Ev@Base 1.6
 (optional=templinst)_ZN3pcl26DefaultPointRepresentationINS_15FPFHSignature33EED2Ev@Base 1.6
 (optional=templinst)_ZN3pcl26DefaultPointRepresentationINS_15PFHSignature125EED0Ev@Base 1.6
 (optional=templinst)_ZN3pcl26DefaultPointRepresentationINS_15PFHSignature125EED1Ev@Base 1.6
 (optional=templinst)_ZN3pcl26DefaultPointRepresentationINS_15PFHSignature125EED2Ev@Base 1.6
 (optional=templinst)_ZN3pcl26DefaultPointRepresentationINS_15PPFRGBSignatureEED0Ev@Base 1.6
 (optional=templinst)_ZN3pcl26DefaultPointRepresentationINS_15PPFRGBSignatureEED1Ev@Base 1.6
 (optional=templinst)_ZN3pcl26DefaultPointRepresentationINS_15PPFRGBSignatureEED2Ev@Base 1.6
 (optional=templinst)_ZN3pcl26DefaultPointRepresentationINS_15VFHSignature308EED0Ev@Base 1.6
 (optional=templinst)_ZN3pcl26DefaultPointRepresentationINS_15VFHSignature308EED1Ev@Base 1.6
 (optional=templinst)_ZN3pcl26DefaultPointRepresentationINS_15VFHSignature308EED2Ev@Base 1.6
 (optional=templinst)_ZN3pcl26DefaultPointRepresentationINS_18PFHRGBSignature250EED0Ev@Base 1.6
 (optional=templinst)_ZN3pcl26DefaultPointRepresentationINS_18PFHRGBSignature250EED1Ev@Base 1.6
 (optional=templinst)_ZN3pcl26DefaultPointRepresentationINS_18PFHRGBSignature250EED2Ev@Base 1.6
 (optional=templinst)_ZN3pcl26DefaultPointRepresentationINS_22NormalBasedSignature12EED0Ev@Base 1.6
 (optional=templinst)_ZN3pcl26DefaultPointRepresentationINS_22NormalBasedSignature12EED1Ev@Base 1.6
 (optional=templinst)_ZN3pcl26DefaultPointRepresentationINS_22NormalBasedSignature12EED2Ev@Base 1.6
 (optional=templinst)_ZN3pcl26DefaultPointRepresentationINS_6Narf36EED0Ev@Base 1.6
 (optional=templinst)_ZN3pcl26DefaultPointRepresentationINS_6Narf36EED1Ev@Base 1.6
 (optional=templinst)_ZN3pcl26DefaultPointRepresentationINS_6Narf36EED2Ev@Base 1.6
 (optional=templinst)_ZN3pcl28DefaultFeatureRepresentationINS_12PPFSignatureEEC1Ev@Base 1.6
 (optional=templinst)_ZN3pcl28DefaultFeatureRepresentationINS_12PPFSignatureEEC2Ev@Base 1.6
 (optional=templinst)_ZN3pcl28DefaultFeatureRepresentationINS_12PPFSignatureEED0Ev@Base 1.6
 (optional=templinst)_ZN3pcl28DefaultFeatureRepresentationINS_12PPFSignatureEED1Ev@Base 1.6
 (optional=templinst)_ZN3pcl28DefaultFeatureRepresentationINS_12PPFSignatureEED2Ev@Base 1.6
 (optional=templinst)_ZN3pcl28DefaultFeatureRepresentationINS_15FPFHSignature33EED0Ev@Base 1.6
 (optional=templinst)_ZN3pcl28DefaultFeatureRepresentationINS_15FPFHSignature33EED1Ev@Base 1.6
 (optional=templinst)_ZN3pcl28DefaultFeatureRepresentationINS_15FPFHSignature33EED2Ev@Base 1.6
 (optional=templinst)_ZN3pcl28DefaultFeatureRepresentationINS_15PFHSignature125EED0Ev@Base 1.6
 (optional=templinst)_ZN3pcl28DefaultFeatureRepresentationINS_15PFHSignature125EED1Ev@Base 1.6
 (optional=templinst)_ZN3pcl28DefaultFeatureRepresentationINS_15PFHSignature125EED2Ev@Base 1.6
 (optional=templinst)_ZN3pcl28DefaultFeatureRepresentationINS_15VFHSignature308EED0Ev@Base 1.6
 (optional=templinst)_ZN3pcl28DefaultFeatureRepresentationINS_15VFHSignature308EED1Ev@Base 1.6
 (optional=templinst)_ZN3pcl28DefaultFeatureRepresentationINS_15VFHSignature308EED2Ev@Base 1.6
 (optional=templinst)_ZN3pcl28DefaultFeatureRepresentationINS_18PFHRGBSignature250EED0Ev@Base 1.6
 (optional=templinst)_ZN3pcl28DefaultFeatureRepresentationINS_18PFHRGBSignature250EED1Ev@Base 1.6
 (optional=templinst)_ZN3pcl28DefaultFeatureRepresentationINS_18PFHRGBSignature250EED2Ev@Base 1.6
 (optional=templinst)_ZN3pcl28DefaultFeatureRepresentationINS_22NormalBasedSignature12EED0Ev@Base 1.6
 (optional=templinst)_ZN3pcl28DefaultFeatureRepresentationINS_22NormalBasedSignature12EED1Ev@Base 1.6
 (optional=templinst)_ZN3pcl28DefaultFeatureRepresentationINS_22NormalBasedSignature12EED2Ev@Base 1.6
 (optional=templinst)_ZN3pcl7PCLBaseINS_12PPFSignatureEE11initComputeEv@Base 1.6
 (optional=templinst)_ZN3pcl7PCLBaseINS_12PPFSignatureEE13setInputCloudERKN5boost10shared_ptrIKNS_10PointCloudIS1_EEEE@Base 1.6
 (optional=templinst)_ZN3pcl7PCLBaseINS_12PPFSignatureEED0Ev@Base 1.6
 (optional=templinst)_ZN3pcl7PCLBaseINS_12PPFSignatureEED1Ev@Base 1.6
 (optional=templinst)_ZN3pcl7PCLBaseINS_12PPFSignatureEED2Ev@Base 1.6
 (optional=templinst)_ZN3pcl7PCLBaseINS_15ESFSignature640EE11initComputeEv@Base 1.6
 (optional=templinst)_ZN3pcl7PCLBaseINS_15ESFSignature640EE13setInputCloudERKN5boost10shared_ptrIKNS_10PointCloudIS1_EEEE@Base 1.6
 (optional=templinst)_ZN3pcl7PCLBaseINS_15ESFSignature640EED0Ev@Base 1.6
 (optional=templinst)_ZN3pcl7PCLBaseINS_15ESFSignature640EED1Ev@Base 1.6
 (optional=templinst)_ZN3pcl7PCLBaseINS_15ESFSignature640EED2Ev@Base 1.6
 (optional=templinst)_ZN3pcl7PCLBaseINS_15FPFHSignature33EE11initComputeEv@Base 1.6
 (optional=templinst)_ZN3pcl7PCLBaseINS_15FPFHSignature33EE13setInputCloudERKN5boost10shared_ptrIKNS_10PointCloudIS1_EEEE@Base 1.6
 (optional=templinst)_ZN3pcl7PCLBaseINS_15FPFHSignature33EED0Ev@Base 1.6
 (optional=templinst)_ZN3pcl7PCLBaseINS_15FPFHSignature33EED1Ev@Base 1.6
 (optional=templinst)_ZN3pcl7PCLBaseINS_15FPFHSignature33EED2Ev@Base 1.6
 (optional=templinst)_ZN3pcl7PCLBaseINS_15PFHSignature125EE11initComputeEv@Base 1.6
 (optional=templinst)_ZN3pcl7PCLBaseINS_15PFHSignature125EE13setInputCloudERKN5boost10shared_ptrIKNS_10PointCloudIS1_EEEE@Base 1.6
 (optional=templinst)_ZN3pcl7PCLBaseINS_15PFHSignature125EED0Ev@Base 1.6
 (optional=templinst)_ZN3pcl7PCLBaseINS_15PFHSignature125EED1Ev@Base 1.6
 (optional=templinst)_ZN3pcl7PCLBaseINS_15PFHSignature125EED2Ev@Base 1.6
 (optional=templinst)_ZN3pcl7PCLBaseINS_15PPFRGBSignatureEE11initComputeEv@Base 1.6
 (optional=templinst)_ZN3pcl7PCLBaseINS_15PPFRGBSignatureEE13setInputCloudERKN5boost10shared_ptrIKNS_10PointCloudIS1_EEEE@Base 1.6
 (optional=templinst)_ZN3pcl7PCLBaseINS_15PPFRGBSignatureEED0Ev@Base 1.6
 (optional=templinst)_ZN3pcl7PCLBaseINS_15PPFRGBSignatureEED1Ev@Base 1.6
 (optional=templinst)_ZN3pcl7PCLBaseINS_15PPFRGBSignatureEED2Ev@Base 1.6
 (optional=templinst)_ZN3pcl7PCLBaseINS_15VFHSignature308EE11initComputeEv@Base 1.6
 (optional=templinst)_ZN3pcl7PCLBaseINS_15VFHSignature308EE13setInputCloudERKN5boost10shared_ptrIKNS_10PointCloudIS1_EEEE@Base 1.6
 (optional=templinst)_ZN3pcl7PCLBaseINS_15VFHSignature308EED0Ev@Base 1.6
 (optional=templinst)_ZN3pcl7PCLBaseINS_15VFHSignature308EED1Ev@Base 1.6
 (optional=templinst)_ZN3pcl7PCLBaseINS_15VFHSignature308EED2Ev@Base 1.6
 (optional=templinst)_ZN3pcl7PCLBaseINS_18PFHRGBSignature250EE11initComputeEv@Base 1.6
 (optional=templinst)_ZN3pcl7PCLBaseINS_18PFHRGBSignature250EE13setInputCloudERKN5boost10shared_ptrIKNS_10PointCloudIS1_EEEE@Base 1.6
 (optional=templinst)_ZN3pcl7PCLBaseINS_18PFHRGBSignature250EED0Ev@Base 1.6
 (optional=templinst)_ZN3pcl7PCLBaseINS_18PFHRGBSignature250EED1Ev@Base 1.6
 (optional=templinst)_ZN3pcl7PCLBaseINS_18PFHRGBSignature250EED2Ev@Base 1.6
 (optional=templinst)_ZN3pcl7PCLBaseINS_22NormalBasedSignature12EE11initComputeEv@Base 1.6
 (optional=templinst)_ZN3pcl7PCLBaseINS_22NormalBasedSignature12EE13setInputCloudERKN5boost10shared_ptrIKNS_10PointCloudIS1_EEEE@Base 1.6
 (optional=templinst)_ZN3pcl7PCLBaseINS_22NormalBasedSignature12EED0Ev@Base 1.6
 (optional=templinst)_ZN3pcl7PCLBaseINS_22NormalBasedSignature12EED1Ev@Base 1.6
 (optional=templinst)_ZN3pcl7PCLBaseINS_22NormalBasedSignature12EED2Ev@Base 1.6
 (optional=templinst)_ZN3pcl7PCLBaseINS_6Narf36EE11initComputeEv@Base 1.6
 (optional=templinst)_ZN3pcl7PCLBaseINS_6Narf36EE13setInputCloudERKN5boost10shared_ptrIKNS_10PointCloudIS1_EEEE@Base 1.6
 (optional=templinst)_ZN3pcl7PCLBaseINS_6Narf36EED0Ev@Base 1.6
 (optional=templinst)_ZN3pcl7PCLBaseINS_6Narf36EED1Ev@Base 1.6
 (optional=templinst)_ZN3pcl7PCLBaseINS_6Narf36EED2Ev@Base 1.6
 (optional=templinst)_ZN5Eigen15PlainObjectBaseINS_5ArrayIdLin1ELi1ELi0ELin1ELi1EEEE6resizeEll@Base 1.6
 (optional=templinst)_ZN5Eigen15PlainObjectBaseINS_5ArrayIdLin1ELi1ELi0ELin1ELi1EEEED1Ev@Base 1.6
 (optional=templinst)_ZN5Eigen15PlainObjectBaseINS_5ArrayIdLin1ELi1ELi0ELin1ELi1EEEED2Ev@Base 1.6
 (optional=templinst)_ZN5Eigen5ArrayIdLin1ELi1ELi0ELin1ELi1EEC1INS_12CwiseUnaryOpINS_8internal13scalar_pow_opIdEEKS1_EEEERKNS_9ArrayBaseIT_EE@Base 1.6
 (optional=templinst)_ZN5Eigen5ArrayIdLin1ELi1ELi0ELin1ELi1EEC1INS_12CwiseUnaryOpINS_8internal19scalar_quotient1_opIdEEKS1_EEEERKNS_9ArrayBaseIT_EE@Base 1.6
 (optional=templinst)_ZN5Eigen5ArrayIdLin1ELi1ELi0ELin1ELi1EEC1INS_13CwiseBinaryOpINS_8internal17scalar_product_opIddEEKNS3_IS6_KNS_12CwiseUnaryOpINS4_16scalar_square_opIdEEKNS7_INS4_17scalar_inverse_opIdEEKS1_EEEESE_EEKNS7_INS4_13scalar_add_opIdEESC_EEEEEERKNS_9ArrayBaseIT_EE@Base 1.6
 (optional=templinst)_ZN5Eigen5ArrayIdLin1ELi1ELi0ELin1ELi1EEC1INS_14CwiseNullaryOpINS_8internal12linspaced_opIdLb1EEES1_EEEERKNS_9ArrayBaseIT_EE@Base 1.6
 (optional=templinst)_ZN5Eigen5ArrayIdLin1ELi1ELi0ELin1ELi1EEC1INS_5BlockINS_3MapIS1_Li0ENS_6StrideILi0ELi0EEEEELin1ELi1ELb0ELb1EEEEERKNS_9ArrayBaseIT_EE@Base 1.6
 (optional=templinst)_ZN5Eigen5ArrayIdLin1ELi1ELi0ELin1ELi1EEC2INS_12CwiseUnaryOpINS_8internal13scalar_pow_opIdEEKS1_EEEERKNS_9ArrayBaseIT_EE@Base 1.6
 (optional=templinst)_ZN5Eigen5ArrayIdLin1ELi1ELi0ELin1ELi1EEC2INS_12CwiseUnaryOpINS_8internal19scalar_quotient1_opIdEEKS1_EEEERKNS_9ArrayBaseIT_EE@Base 1.6
 (optional=templinst)_ZN5Eigen5ArrayIdLin1ELi1ELi0ELin1ELi1EEC2INS_13CwiseBinaryOpINS_8internal17scalar_product_opIddEEKNS3_IS6_KNS_12CwiseUnaryOpINS4_16scalar_square_opIdEEKNS7_INS4_17scalar_inverse_opIdEEKS1_EEEESE_EEKNS7_INS4_13scalar_add_opIdEESC_EEEEEERKNS_9ArrayBaseIT_EE@Base 1.6
 (optional=templinst)_ZN5Eigen5ArrayIdLin1ELi1ELi0ELin1ELi1EEC2INS_14CwiseNullaryOpINS_8internal12linspaced_opIdLb1EEES1_EEEERKNS_9ArrayBaseIT_EE@Base 1.6
 (optional=templinst)_ZN5Eigen5ArrayIdLin1ELi1ELi0ELin1ELi1EEC2INS_5BlockINS_3MapIS1_Li0ENS_6StrideILi0ELi0EEEEELin1ELi1ELb0ELb1EEEEERKNS_9ArrayBaseIT_EE@Base 1.6
 (optional=templinst)_ZN5Eigen5ArrayIdLin1ELi1ELi0ELin1ELi1EED1Ev@Base 1.6
 (optional=templinst)_ZN5Eigen5ArrayIdLin1ELi1ELi0ELin1ELi1EED2Ev@Base 1.6
 (optional=templinst)_ZN5Eigen8internal10redux_implINS0_13scalar_sum_opIdEENS_5BlockINS_3MapINS_5ArrayIdLin1ELi1ELi0ELin1ELi1EEELi0ENS_6StrideILi0ELi0EEEEELin1ELi1ELb0ELb1EEELi3ELi0EE3runERKSB_RKS3_@Base 1.6
 (optional=templinst)_ZN5Eigen8internal11assign_implINS_5ArrayIdLin1ELi1ELi0ELin1ELi1EEENS_12CwiseUnaryOpINS0_19scalar_quotient1_opIdEEKS3_EELi3ELi0ELi0EE3runERS3_RKS8_@Base 1.6
 (optional=templinst)_ZN5Eigen8internal11assign_implINS_5ArrayIdLin1ELi1ELi0ELin1ELi1EEENS_13CwiseBinaryOpINS0_17scalar_product_opIddEEKNS4_IS6_KNS_12CwiseUnaryOpINS0_16scalar_square_opIdEEKNS7_INS0_17scalar_inverse_opIdEEKS3_EEEESE_EEKNS7_INS0_13scalar_add_opIdEESC_EEEELi3ELi0ELi0EE3runERS3_RKSN_@Base 1.6
 (optional=templinst)_ZN5Eigen8internal11assign_implINS_5ArrayIdLin1ELi1ELi0ELin1ELi1EEENS_14CwiseNullaryOpINS0_12linspaced_opIdLb1EEES3_EELi3ELi0ELi0EE3runERS3_RKS7_@Base 1.6
 (optional=templinst)_ZN5Eigen8internal11assign_implINS_5ArrayIdLin1ELi1ELi0ELin1ELi1EEENS_5BlockINS_3MapIS3_Li0ENS_6StrideILi0ELi0EEEEELin1ELi1ELb0ELb1EEELi3ELi0ELi0EE3runERS3_RKS9_@Base 1.6
 _ZN5Eigen8internal19throw_std_bad_allocEv@Base 1.6
 (optional=templinst)_ZN5Eigen8internal21unaligned_assign_implILb0EE3runINS_13CwiseBinaryOpINS0_17scalar_product_opIddEEKNS4_IS6_KNS_12CwiseUnaryOpINS0_16scalar_square_opIdEEKNS7_INS0_17scalar_inverse_opIdEEKNS_5ArrayIdLin1ELi1ELi0ELin1ELi1EEEEEEESG_EEKNS7_INS0_13scalar_add_opIdEESE_EEEESD_EEvRKT_RT0_NSQ_5IndexESV_@Base 1.6
 (optional=templinst)_ZN5Eigen8internal28conditional_aligned_new_autoIdLb1EEEPT_m@Base 1.6
 (optional=templinst)_ZN5boost10shared_ptrIKN3pcl10PointCloudINS1_12PPFSignatureEEEED1Ev@Base 1.6
 (optional=templinst)_ZN5boost10shared_ptrIKN3pcl10PointCloudINS1_12PPFSignatureEEEED2Ev@Base 1.6
 (optional=templinst)_ZN5boost10shared_ptrIKN3pcl10PointCloudINS1_15ESFSignature640EEEED1Ev@Base 1.6
 (optional=templinst)_ZN5boost10shared_ptrIKN3pcl10PointCloudINS1_15ESFSignature640EEEED2Ev@Base 1.6
 (optional=templinst)_ZN5boost10shared_ptrIKN3pcl10PointCloudINS1_15ESFSignature640EEEEaSERKS6_@Base 1.6
 (optional=templinst)_ZN5boost10shared_ptrIKN3pcl10PointCloudINS1_15FPFHSignature33EEEED1Ev@Base 1.6
 (optional=templinst)_ZN5boost10shared_ptrIKN3pcl10PointCloudINS1_15FPFHSignature33EEEED2Ev@Base 1.6
 (optional=templinst)_ZN5boost10shared_ptrIKN3pcl10PointCloudINS1_15FPFHSignature33EEEEaSERKS6_@Base 1.6
 (optional=templinst)_ZN5boost10shared_ptrIKN3pcl10PointCloudINS1_15PFHSignature125EEEED1Ev@Base 1.6
 (optional=templinst)_ZN5boost10shared_ptrIKN3pcl10PointCloudINS1_15PFHSignature125EEEED2Ev@Base 1.6
 (optional=templinst)_ZN5boost10shared_ptrIKN3pcl10PointCloudINS1_15PFHSignature125EEEEaSERKS6_@Base 1.6
 (optional=templinst)_ZN5boost10shared_ptrIKN3pcl10PointCloudINS1_15PPFRGBSignatureEEEED1Ev@Base 1.6
 (optional=templinst)_ZN5boost10shared_ptrIKN3pcl10PointCloudINS1_15PPFRGBSignatureEEEED2Ev@Base 1.6
 (optional=templinst)_ZN5boost10shared_ptrIKN3pcl10PointCloudINS1_15PPFRGBSignatureEEEEaSERKS6_@Base 1.6
 (optional=templinst)_ZN5boost10shared_ptrIKN3pcl10PointCloudINS1_15VFHSignature308EEEED1Ev@Base 1.6
 (optional=templinst)_ZN5boost10shared_ptrIKN3pcl10PointCloudINS1_15VFHSignature308EEEED2Ev@Base 1.6
 (optional=templinst)_ZN5boost10shared_ptrIKN3pcl10PointCloudINS1_15VFHSignature308EEEEaSERKS6_@Base 1.6
 (optional=templinst)_ZN5boost10shared_ptrIKN3pcl10PointCloudINS1_18PFHRGBSignature250EEEED1Ev@Base 1.6
 (optional=templinst)_ZN5boost10shared_ptrIKN3pcl10PointCloudINS1_18PFHRGBSignature250EEEED2Ev@Base 1.6
 (optional=templinst)_ZN5boost10shared_ptrIKN3pcl10PointCloudINS1_18PFHRGBSignature250EEEEaSERKS6_@Base 1.6
 (optional=templinst)_ZN5boost10shared_ptrIKN3pcl10PointCloudINS1_22NormalBasedSignature12EEEED1Ev@Base 1.6
 (optional=templinst)_ZN5boost10shared_ptrIKN3pcl10PointCloudINS1_22NormalBasedSignature12EEEED2Ev@Base 1.6
 (optional=templinst)_ZN5boost10shared_ptrIKN3pcl10PointCloudINS1_22NormalBasedSignature12EEEEaSERKS6_@Base 1.6
 (optional=templinst)_ZN5boost10shared_ptrIKN3pcl10PointCloudINS1_6Narf36EEEED1Ev@Base 1.6
 (optional=templinst)_ZN5boost10shared_ptrIKN3pcl10PointCloudINS1_6Narf36EEEED2Ev@Base 1.6
 (optional=templinst)_ZN5boost10shared_ptrIKN3pcl10PointCloudINS1_6Narf36EEEEaSERKS6_@Base 1.6
 (optional=templinst)_ZN5boost10shared_ptrIKN3pcl19PointRepresentationINS1_12PPFSignatureEEEEaSERKS6_@Base 1.6
 (optional=templinst)_ZN5boost10shared_ptrIKN3pcl19PointRepresentationINS1_15ESFSignature640EEEEaSERKS6_@Base 1.6
 (optional=templinst)_ZN5boost10shared_ptrIKN3pcl19PointRepresentationINS1_15PFHSignature125EEEEaSERKS6_@Base 1.6
 (optional=templinst)_ZN5boost10shared_ptrIKN3pcl19PointRepresentationINS1_15PPFRGBSignatureEEEEaSERKS6_@Base 1.6
 (optional=templinst)_ZN5boost10shared_ptrIKN3pcl19PointRepresentationINS1_15VFHSignature308EEEEaSERKS6_@Base 1.6
 (optional=templinst)_ZN5boost10shared_ptrIKN3pcl19PointRepresentationINS1_18PFHRGBSignature250EEEEaSERKS6_@Base 1.6
 (optional=templinst)_ZN5boost10shared_ptrIKN3pcl19PointRepresentationINS1_22NormalBasedSignature12EEEEaSERKS6_@Base 1.6
 (optional=templinst)_ZN5boost10shared_ptrIKN3pcl19PointRepresentationINS1_6Narf36EEEEaSERKS6_@Base 1.6
 (optional=templinst)_ZN5boost10shared_ptrIKSt6vectorIN3pcl14CorrespondenceEN5Eigen17aligned_allocatorIS3_EEEEaSERKS9_@Base 1.6
 (optional=templinst)_ZN5boost10shared_ptrISt6vectorIiSaIiEEE5resetIS3_EEvPT_@Base 1.6
 (optional=templinst)_ZN5boost10shared_ptrISt6vectorIiSaIiEEED1Ev@Base 1.6
 (optional=templinst)_ZN5boost10shared_ptrISt6vectorIiSaIiEEED2Ev@Base 1.6
 (optional=templinst)_ZN5boost14checked_deleteISt6vectorIiSaIiEEEEvPT_@Base 1.6
 (optional=templinst)_ZN5boost6detail12shared_countC1IN3pcl26DefaultPointRepresentationINS3_12PPFSignatureEEEEEPT_@Base 1.6
 (optional=templinst)_ZN5boost6detail12shared_countC1IN3pcl26DefaultPointRepresentationINS3_15ESFSignature640EEEEEPT_@Base 1.6
 (optional=templinst)_ZN5boost6detail12shared_countC1IN3pcl26DefaultPointRepresentationINS3_15FPFHSignature33EEEEEPT_@Base 1.6
 (optional=templinst)_ZN5boost6detail12shared_countC1IN3pcl26DefaultPointRepresentationINS3_15PFHSignature125EEEEEPT_@Base 1.6
 (optional=templinst)_ZN5boost6detail12shared_countC1IN3pcl26DefaultPointRepresentationINS3_15PPFRGBSignatureEEEEEPT_@Base 1.6
 (optional=templinst)_ZN5boost6detail12shared_countC1IN3pcl26DefaultPointRepresentationINS3_15VFHSignature308EEEEEPT_@Base 1.6
 (optional=templinst)_ZN5boost6detail12shared_countC1IN3pcl26DefaultPointRepresentationINS3_18PFHRGBSignature250EEEEEPT_@Base 1.6
 (optional=templinst)_ZN5boost6detail12shared_countC1IN3pcl26DefaultPointRepresentationINS3_22NormalBasedSignature12EEEEEPT_@Base 1.6
 (optional=templinst)_ZN5boost6detail12shared_countC1IN3pcl26DefaultPointRepresentationINS3_6Narf36EEEEEPT_@Base 1.6
 (optional=templinst)_ZN5boost6detail12shared_countC1ISt6vectorIiSaIiEEEEPT_@Base 1.6
 (optional=templinst)_ZN5boost6detail12shared_countC2IN3pcl26DefaultPointRepresentationINS3_12PPFSignatureEEEEEPT_@Base 1.6
 (optional=templinst)_ZN5boost6detail12shared_countC2IN3pcl26DefaultPointRepresentationINS3_15ESFSignature640EEEEEPT_@Base 1.6
 (optional=templinst)_ZN5boost6detail12shared_countC2IN3pcl26DefaultPointRepresentationINS3_15FPFHSignature33EEEEEPT_@Base 1.6
 (optional=templinst)_ZN5boost6detail12shared_countC2IN3pcl26DefaultPointRepresentationINS3_15PFHSignature125EEEEEPT_@Base 1.6
 (optional=templinst)_ZN5boost6detail12shared_countC2IN3pcl26DefaultPointRepresentationINS3_15PPFRGBSignatureEEEEEPT_@Base 1.6
 (optional=templinst)_ZN5boost6detail12shared_countC2IN3pcl26DefaultPointRepresentationINS3_15VFHSignature308EEEEEPT_@Base 1.6
 (optional=templinst)_ZN5boost6detail12shared_countC2IN3pcl26DefaultPointRepresentationINS3_18PFHRGBSignature250EEEEEPT_@Base 1.6
 (optional=templinst)_ZN5boost6detail12shared_countC2IN3pcl26DefaultPointRepresentationINS3_22NormalBasedSignature12EEEEEPT_@Base 1.6
 (optional=templinst)_ZN5boost6detail12shared_countC2IN3pcl26DefaultPointRepresentationINS3_6Narf36EEEEEPT_@Base 1.6
 (optional=templinst)_ZN5boost6detail12shared_countC2ISt6vectorIiSaIiEEEEPT_@Base 1.6
 _ZN5boost6detail15sp_counted_base7destroyEv@Base 1.6
 _ZN5boost6detail15sp_counted_base7releaseEv@Base 1.6
 _ZN5boost6detail15sp_counted_baseD0Ev@Base 1.6
 _ZN5boost6detail15sp_counted_baseD1Ev@Base 1.6
 _ZN5boost6detail15sp_counted_baseD2Ev@Base 1.6
 (optional=templinst)_ZN5boost6detail17sp_counted_impl_pIN3pcl26DefaultPointRepresentationINS2_12PPFSignatureEEEE11get_deleterERKSt9type_info@Base 1.6
 (optional=templinst)_ZN5boost6detail17sp_counted_impl_pIN3pcl26DefaultPointRepresentationINS2_12PPFSignatureEEEE7disposeEv@Base 1.6
 (optional=templinst)_ZN5boost6detail17sp_counted_impl_pIN3pcl26DefaultPointRepresentationINS2_12PPFSignatureEEEED0Ev@Base 1.6
 (optional=templinst)_ZN5boost6detail17sp_counted_impl_pIN3pcl26DefaultPointRepresentationINS2_12PPFSignatureEEEED1Ev@Base 1.6
 (optional=templinst)_ZN5boost6detail17sp_counted_impl_pIN3pcl26DefaultPointRepresentationINS2_12PPFSignatureEEEED2Ev@Base 1.6
 (optional=templinst)_ZN5boost6detail17sp_counted_impl_pIN3pcl26DefaultPointRepresentationINS2_15ESFSignature640EEEE11get_deleterERKSt9type_info@Base 1.6
 (optional=templinst)_ZN5boost6detail17sp_counted_impl_pIN3pcl26DefaultPointRepresentationINS2_15ESFSignature640EEEE7disposeEv@Base 1.6
 (optional=templinst)_ZN5boost6detail17sp_counted_impl_pIN3pcl26DefaultPointRepresentationINS2_15ESFSignature640EEEED0Ev@Base 1.6
 (optional=templinst)_ZN5boost6detail17sp_counted_impl_pIN3pcl26DefaultPointRepresentationINS2_15ESFSignature640EEEED1Ev@Base 1.6
 (optional=templinst)_ZN5boost6detail17sp_counted_impl_pIN3pcl26DefaultPointRepresentationINS2_15ESFSignature640EEEED2Ev@Base 1.6
 (optional=templinst)_ZN5boost6detail17sp_counted_impl_pIN3pcl26DefaultPointRepresentationINS2_15FPFHSignature33EEEE11get_deleterERKSt9type_info@Base 1.6
 (optional=templinst)_ZN5boost6detail17sp_counted_impl_pIN3pcl26DefaultPointRepresentationINS2_15FPFHSignature33EEEE7disposeEv@Base 1.6
 (optional=templinst)_ZN5boost6detail17sp_counted_impl_pIN3pcl26DefaultPointRepresentationINS2_15FPFHSignature33EEEED0Ev@Base 1.6
 (optional=templinst)_ZN5boost6detail17sp_counted_impl_pIN3pcl26DefaultPointRepresentationINS2_15FPFHSignature33EEEED1Ev@Base 1.6
 (optional=templinst)_ZN5boost6detail17sp_counted_impl_pIN3pcl26DefaultPointRepresentationINS2_15FPFHSignature33EEEED2Ev@Base 1.6
 (optional=templinst)_ZN5boost6detail17sp_counted_impl_pIN3pcl26DefaultPointRepresentationINS2_15PFHSignature125EEEE11get_deleterERKSt9type_info@Base 1.6
 (optional=templinst)_ZN5boost6detail17sp_counted_impl_pIN3pcl26DefaultPointRepresentationINS2_15PFHSignature125EEEE7disposeEv@Base 1.6
 (optional=templinst)_ZN5boost6detail17sp_counted_impl_pIN3pcl26DefaultPointRepresentationINS2_15PFHSignature125EEEED0Ev@Base 1.6
 (optional=templinst)_ZN5boost6detail17sp_counted_impl_pIN3pcl26DefaultPointRepresentationINS2_15PFHSignature125EEEED1Ev@Base 1.6
 (optional=templinst)_ZN5boost6detail17sp_counted_impl_pIN3pcl26DefaultPointRepresentationINS2_15PFHSignature125EEEED2Ev@Base 1.6
 (optional=templinst)_ZN5boost6detail17sp_counted_impl_pIN3pcl26DefaultPointRepresentationINS2_15PPFRGBSignatureEEEE11get_deleterERKSt9type_info@Base 1.6
 (optional=templinst)_ZN5boost6detail17sp_counted_impl_pIN3pcl26DefaultPointRepresentationINS2_15PPFRGBSignatureEEEE7disposeEv@Base 1.6
 (optional=templinst)_ZN5boost6detail17sp_counted_impl_pIN3pcl26DefaultPointRepresentationINS2_15PPFRGBSignatureEEEED0Ev@Base 1.6
 (optional=templinst)_ZN5boost6detail17sp_counted_impl_pIN3pcl26DefaultPointRepresentationINS2_15PPFRGBSignatureEEEED1Ev@Base 1.6
 (optional=templinst)_ZN5boost6detail17sp_counted_impl_pIN3pcl26DefaultPointRepresentationINS2_15PPFRGBSignatureEEEED2Ev@Base 1.6
 (optional=templinst)_ZN5boost6detail17sp_counted_impl_pIN3pcl26DefaultPointRepresentationINS2_15VFHSignature308EEEE11get_deleterERKSt9type_info@Base 1.6
 (optional=templinst)_ZN5boost6detail17sp_counted_impl_pIN3pcl26DefaultPointRepresentationINS2_15VFHSignature308EEEE7disposeEv@Base 1.6
 (optional=templinst)_ZN5boost6detail17sp_counted_impl_pIN3pcl26DefaultPointRepresentationINS2_15VFHSignature308EEEED0Ev@Base 1.6
 (optional=templinst)_ZN5boost6detail17sp_counted_impl_pIN3pcl26DefaultPointRepresentationINS2_15VFHSignature308EEEED1Ev@Base 1.6
 (optional=templinst)_ZN5boost6detail17sp_counted_impl_pIN3pcl26DefaultPointRepresentationINS2_15VFHSignature308EEEED2Ev@Base 1.6
 (optional=templinst)_ZN5boost6detail17sp_counted_impl_pIN3pcl26DefaultPointRepresentationINS2_18PFHRGBSignature250EEEE11get_deleterERKSt9type_info@Base 1.6
 (optional=templinst)_ZN5boost6detail17sp_counted_impl_pIN3pcl26DefaultPointRepresentationINS2_18PFHRGBSignature250EEEE7disposeEv@Base 1.6
 (optional=templinst)_ZN5boost6detail17sp_counted_impl_pIN3pcl26DefaultPointRepresentationINS2_18PFHRGBSignature250EEEED0Ev@Base 1.6
 (optional=templinst)_ZN5boost6detail17sp_counted_impl_pIN3pcl26DefaultPointRepresentationINS2_18PFHRGBSignature250EEEED1Ev@Base 1.6
 (optional=templinst)_ZN5boost6detail17sp_counted_impl_pIN3pcl26DefaultPointRepresentationINS2_18PFHRGBSignature250EEEED2Ev@Base 1.6
 (optional=templinst)_ZN5boost6detail17sp_counted_impl_pIN3pcl26DefaultPointRepresentationINS2_22NormalBasedSignature12EEEE11get_deleterERKSt9type_info@Base 1.6
 (optional=templinst)_ZN5boost6detail17sp_counted_impl_pIN3pcl26DefaultPointRepresentationINS2_22NormalBasedSignature12EEEE7disposeEv@Base 1.6
 (optional=templinst)_ZN5boost6detail17sp_counted_impl_pIN3pcl26DefaultPointRepresentationINS2_22NormalBasedSignature12EEEED0Ev@Base 1.6
 (optional=templinst)_ZN5boost6detail17sp_counted_impl_pIN3pcl26DefaultPointRepresentationINS2_22NormalBasedSignature12EEEED1Ev@Base 1.6
 (optional=templinst)_ZN5boost6detail17sp_counted_impl_pIN3pcl26DefaultPointRepresentationINS2_22NormalBasedSignature12EEEED2Ev@Base 1.6
 (optional=templinst)_ZN5boost6detail17sp_counted_impl_pIN3pcl26DefaultPointRepresentationINS2_6Narf36EEEE11get_deleterERKSt9type_info@Base 1.6
 (optional=templinst)_ZN5boost6detail17sp_counted_impl_pIN3pcl26DefaultPointRepresentationINS2_6Narf36EEEE7disposeEv@Base 1.6
 (optional=templinst)_ZN5boost6detail17sp_counted_impl_pIN3pcl26DefaultPointRepresentationINS2_6Narf36EEEED0Ev@Base 1.6
 (optional=templinst)_ZN5boost6detail17sp_counted_impl_pIN3pcl26DefaultPointRepresentationINS2_6Narf36EEEED1Ev@Base 1.6
 (optional=templinst)_ZN5boost6detail17sp_counted_impl_pIN3pcl26DefaultPointRepresentationINS2_6Narf36EEEED2Ev@Base 1.6
 (optional=templinst)_ZN5boost6detail17sp_counted_impl_pISt6vectorIiSaIiEEE11get_deleterERKSt9type_info@Base 1.6
 (optional=templinst)_ZN5boost6detail17sp_counted_impl_pISt6vectorIiSaIiEEE7disposeEv@Base 1.6
 (optional=templinst)_ZN5boost6detail17sp_counted_impl_pISt6vectorIiSaIiEEED0Ev@Base 1.6
 (optional=templinst)_ZN5boost6detail17sp_counted_impl_pISt6vectorIiSaIiEEED1Ev@Base 1.6
 (optional=templinst)_ZN5boost6detail17sp_counted_impl_pISt6vectorIiSaIiEEED2Ev@Base 1.6
 (optional=templinst)_ZN5boost9unordered6detail7bucketsISaISt4pairIKSsNS_10shared_ptrIN3pcl12registration30CorrespondenceRejectorFeatures25FeatureContainerInterfaceEEEEENS1_10ptr_bucketENS1_8ptr_nodeISB_EEE14delete_bucketsEv@Base 1.6
 (optional=templinst)_ZN5flann12KNNResultSetIfE8addPointEfm@Base 1.6
 (optional=templinst)_ZN5flann12KNNResultSetIfEC1Ei@Base 1.6
 (optional=templinst)_ZN5flann12KNNResultSetIfEC2Ei@Base 1.6
 (optional=templinst)_ZN5flann12KNNResultSetIfED0Ev@Base 1.6
 (optional=templinst)_ZN5flann12KNNResultSetIfED1Ev@Base 1.6
 (optional=templinst)_ZN5flann12KNNResultSetIfED2Ev@Base 1.6
 (optional=templinst)_ZN5flann13KNNResultSet2IfE8addPointEfm@Base 1.6
 (optional=templinst)_ZN5flann13KNNResultSet2IfEC1Em@Base 1.6
 (optional=templinst)_ZN5flann13KNNResultSet2IfEC2Em@Base 1.6
 (optional=templinst)_ZN5flann13KNNResultSet2IfED0Ev@Base 1.6
 (optional=templinst)_ZN5flann13KNNResultSet2IfED1Ev@Base 1.6
 (optional=templinst)_ZN5flann13KNNResultSet2IfED2Ev@Base 1.6
 (optional=templinst)_ZN5flann15UniqueResultSetIfED0Ev@Base 1.6
 (optional=templinst)_ZN5flann15UniqueResultSetIfED1Ev@Base 1.6
 (optional=templinst)_ZN5flann15UniqueResultSetIfED2Ev@Base 1.6
 (optional=templinst)_ZN5flann18KNNSimpleResultSetIfE8addPointEfm@Base 1.6
 (optional=templinst)_ZN5flann18KNNSimpleResultSetIfEC1Em@Base 1.6
 (optional=templinst)_ZN5flann18KNNSimpleResultSetIfEC2Em@Base 1.6
 (optional=templinst)_ZN5flann18KNNSimpleResultSetIfED0Ev@Base 1.6
 (optional=templinst)_ZN5flann18KNNSimpleResultSetIfED1Ev@Base 1.6
 (optional=templinst)_ZN5flann18KNNSimpleResultSetIfED2Ev@Base 1.6
 (optional=templinst)_ZN5flann18KNNUniqueResultSetIfE8addPointEfm@Base 1.6
 (optional=templinst)_ZN5flann18KNNUniqueResultSetIfEC1Ej@Base 1.6
 (optional=templinst)_ZN5flann18KNNUniqueResultSetIfEC2Ej@Base 1.6
 (optional=templinst)_ZN5flann18KNNUniqueResultSetIfED0Ev@Base 1.6
 (optional=templinst)_ZN5flann18KNNUniqueResultSetIfED1Ev@Base 1.6
 (optional=templinst)_ZN5flann18KNNUniqueResultSetIfED2Ev@Base 1.6
 (optional=templinst)_ZN5flann9ResultSetIfED0Ev@Base 1.6
 (optional=templinst)_ZN5flann9ResultSetIfED1Ev@Base 1.6
 (optional=templinst)_ZN5flann9ResultSetIfED2Ev@Base 1.6
 (optional=templinst)_ZNK3pcl19PointRepresentationINS_12PPFSignatureEE7isValidERKS1_@Base 1.6
 (optional=templinst)_ZNK3pcl19PointRepresentationINS_12PPFSignatureEE9vectorizeISt6vectorIfSaIfEEEEvRKS1_RT_@Base 1.6
 (optional=templinst)_ZNK3pcl19PointRepresentationINS_15ESFSignature640EE7isValidERKS1_@Base 1.6
 (optional=templinst)_ZNK3pcl19PointRepresentationINS_15ESFSignature640EE9vectorizeISt6vectorIfSaIfEEEEvRKS1_RT_@Base 1.6
 (optional=templinst)_ZNK3pcl19PointRepresentationINS_15FPFHSignature33EE7isValidERKS1_@Base 1.6
 (optional=templinst)_ZNK3pcl19PointRepresentationINS_15FPFHSignature33EE9vectorizeISt6vectorIfSaIfEEEEvRKS1_RT_@Base 1.6
 (optional=templinst)_ZNK3pcl19PointRepresentationINS_15PFHSignature125EE7isValidERKS1_@Base 1.6
 (optional=templinst)_ZNK3pcl19PointRepresentationINS_15PFHSignature125EE9vectorizeISt6vectorIfSaIfEEEEvRKS1_RT_@Base 1.6
 (optional=templinst)_ZNK3pcl19PointRepresentationINS_15PPFRGBSignatureEE7isValidERKS1_@Base 1.6
 (optional=templinst)_ZNK3pcl19PointRepresentationINS_15PPFRGBSignatureEE9vectorizeISt6vectorIfSaIfEEEEvRKS1_RT_@Base 1.6
 (optional=templinst)_ZNK3pcl19PointRepresentationINS_15VFHSignature308EE7isValidERKS1_@Base 1.6
 (optional=templinst)_ZNK3pcl19PointRepresentationINS_15VFHSignature308EE9vectorizeISt6vectorIfSaIfEEEEvRKS1_RT_@Base 1.6
 (optional=templinst)_ZNK3pcl19PointRepresentationINS_18PFHRGBSignature250EE7isValidERKS1_@Base 1.6
 (optional=templinst)_ZNK3pcl19PointRepresentationINS_18PFHRGBSignature250EE9vectorizeISt6vectorIfSaIfEEEEvRKS1_RT_@Base 1.6
 (optional=templinst)_ZNK3pcl19PointRepresentationINS_22NormalBasedSignature12EE7isValidERKS1_@Base 1.6
 (optional=templinst)_ZNK3pcl19PointRepresentationINS_22NormalBasedSignature12EE9vectorizeISt6vectorIfSaIfEEEEvRKS1_RT_@Base 1.6
 (optional=templinst)_ZNK3pcl19PointRepresentationINS_6Narf36EE7isValidERKS1_@Base 1.6
 (optional=templinst)_ZNK3pcl19PointRepresentationINS_6Narf36EE9vectorizeISt6vectorIfSaIfEEEEvRKS1_RT_@Base 1.6
 (optional=templinst)_ZNK3pcl26DefaultPointRepresentationINS_12PPFSignatureEE16copyToFloatArrayERKS1_Pf@Base 1.6
 (optional=templinst)_ZNK3pcl26DefaultPointRepresentationINS_15ESFSignature640EE16copyToFloatArrayERKS1_Pf@Base 1.6
 (optional=templinst)_ZNK3pcl26DefaultPointRepresentationINS_15PPFRGBSignatureEE16copyToFloatArrayERKS1_Pf@Base 1.6
 (optional=templinst)_ZNK3pcl26DefaultPointRepresentationINS_6Narf36EE16copyToFloatArrayERKS1_Pf@Base 1.6
 (optional=templinst)_ZNK3pcl28DefaultFeatureRepresentationINS_12PPFSignatureEE16copyToFloatArrayERKS1_Pf@Base 1.6
 (optional=templinst)_ZNK3pcl28DefaultFeatureRepresentationINS_15FPFHSignature33EE16copyToFloatArrayERKS1_Pf@Base 1.6
 (optional=templinst)_ZNK3pcl28DefaultFeatureRepresentationINS_15PFHSignature125EE16copyToFloatArrayERKS1_Pf@Base 1.6
 (optional=templinst)_ZNK3pcl28DefaultFeatureRepresentationINS_15VFHSignature308EE16copyToFloatArrayERKS1_Pf@Base 1.6
 (optional=templinst)_ZNK3pcl28DefaultFeatureRepresentationINS_18PFHRGBSignature250EE16copyToFloatArrayERKS1_Pf@Base 1.6
 (optional=templinst)_ZNK3pcl28DefaultFeatureRepresentationINS_22NormalBasedSignature12EE16copyToFloatArrayERKS1_Pf@Base 1.6
 (optional=templinst)_ZNK5flann12KNNResultSetIfE4fullEv@Base 1.6
 (optional=templinst)_ZNK5flann12KNNResultSetIfE9worstDistEv@Base 1.6
 (optional=templinst)_ZNK5flann13KNNResultSet2IfE4fullEv@Base 1.6
 (optional=templinst)_ZNK5flann13KNNResultSet2IfE9worstDistEv@Base 1.6
 (optional=templinst)_ZNK5flann15UniqueResultSetIfE4fullEv@Base 1.6
 (optional=templinst)_ZNK5flann15UniqueResultSetIfE9worstDistEv@Base 1.6
 (optional=templinst)_ZNK5flann18KNNSimpleResultSetIfE4fullEv@Base 1.6
 (optional=templinst)_ZNK5flann18KNNSimpleResultSetIfE9worstDistEv@Base 1.6
 (optional=templinst)_ZNKSt16reverse_iteratorISt23_Rb_tree_const_iteratorIN5flann15UniqueResultSetIfE9DistIndexEEEdeEv@Base 1.6
 (optional=templinst)_ZNKSt6vectorIN3pcl14CorrespondenceEN5Eigen29aligned_allocator_indirectionIS1_EEE12_M_check_lenEmPKc@Base 1.6
 (optional=templinst)_ZNKSt6vectorIN3pcl23PyramidFeatureHistogramINS0_12PPFSignatureEE28PyramidFeatureHistogramLevelESaIS4_EE12_M_check_lenEmPKc@Base 1.6
 (optional=templinst)_ZNKSt6vectorIN3pcl23PyramidFeatureHistogramINS0_15ESFSignature640EE28PyramidFeatureHistogramLevelESaIS4_EE12_M_check_lenEmPKc@Base 1.6
 (optional=templinst)_ZNKSt6vectorIN3pcl23PyramidFeatureHistogramINS0_15FPFHSignature33EE28PyramidFeatureHistogramLevelESaIS4_EE12_M_check_lenEmPKc@Base 1.6
 (optional=templinst)_ZNKSt6vectorIN3pcl23PyramidFeatureHistogramINS0_15PFHSignature125EE28PyramidFeatureHistogramLevelESaIS4_EE12_M_check_lenEmPKc@Base 1.6
 (optional=templinst)_ZNKSt6vectorIN3pcl23PyramidFeatureHistogramINS0_15PPFRGBSignatureEE28PyramidFeatureHistogramLevelESaIS4_EE12_M_check_lenEmPKc@Base 1.6
 (optional=templinst)_ZNKSt6vectorIN3pcl23PyramidFeatureHistogramINS0_15VFHSignature308EE28PyramidFeatureHistogramLevelESaIS4_EE12_M_check_lenEmPKc@Base 1.6
 (optional=templinst)_ZNKSt6vectorIN3pcl23PyramidFeatureHistogramINS0_18PFHRGBSignature250EE28PyramidFeatureHistogramLevelESaIS4_EE12_M_check_lenEmPKc@Base 1.6
 (optional=templinst)_ZNKSt6vectorIN3pcl23PyramidFeatureHistogramINS0_22NormalBasedSignature12EE28PyramidFeatureHistogramLevelESaIS4_EE12_M_check_lenEmPKc@Base 1.6
 (optional=templinst)_ZNKSt6vectorIN3pcl23PyramidFeatureHistogramINS0_6Narf36EE28PyramidFeatureHistogramLevelESaIS4_EE12_M_check_lenEmPKc@Base 1.6
 (optional=templinst)_ZNKSt6vectorIN5flann13DistanceIndexIfEESaIS2_EE12_M_check_lenEmPKc@Base 1.6
 (optional=templinst)_ZNKSt6vectorIfSaIfEE12_M_check_lenEmPKc@Base 1.6
 (optional=templinst)_ZNKSt6vectorIiSaIiEE12_M_check_lenEmPKc@Base 1.6
 (optional=templinst)_ZNKSt6vectorIjSaIjEE12_M_check_lenEmPKc@Base 1.6
 (optional=templinst)_ZNKSt6vectorImSaImEE12_M_check_lenEmPKc@Base 1.6
 (optional=templinst)_ZNSt11__copy_moveILb0ELb1ESt26random_access_iterator_tagE8__copy_mIfEEPT_PKS3_S6_S4_@Base 1.6
 (optional=templinst)_ZNSt11__copy_moveILb0ELb1ESt26random_access_iterator_tagE8__copy_mIiEEPT_PKS3_S6_S4_@Base 1.6
 (optional=templinst)_ZNSt11__copy_moveILb0ELb1ESt26random_access_iterator_tagE8__copy_mIjEEPT_PKS3_S6_S4_@Base 1.6
 (optional=templinst)_ZNSt11__copy_moveILb0ELb1ESt26random_access_iterator_tagE8__copy_mImEEPT_PKS3_S6_S4_@Base 1.6
 (optional=templinst)_ZNSt12_Destroy_auxILb0EE9__destroyIPN3pcl23PyramidFeatureHistogramINS2_12PPFSignatureEE28PyramidFeatureHistogramLevelEEEvT_S8_@Base 1.6
 (optional=templinst)_ZNSt12_Destroy_auxILb0EE9__destroyIPN3pcl23PyramidFeatureHistogramINS2_15ESFSignature640EE28PyramidFeatureHistogramLevelEEEvT_S8_@Base 1.6
 (optional=templinst)_ZNSt12_Destroy_auxILb0EE9__destroyIPN3pcl23PyramidFeatureHistogramINS2_15FPFHSignature33EE28PyramidFeatureHistogramLevelEEEvT_S8_@Base 1.6
 (optional=templinst)_ZNSt12_Destroy_auxILb0EE9__destroyIPN3pcl23PyramidFeatureHistogramINS2_15PFHSignature125EE28PyramidFeatureHistogramLevelEEEvT_S8_@Base 1.6
 (optional=templinst)_ZNSt12_Destroy_auxILb0EE9__destroyIPN3pcl23PyramidFeatureHistogramINS2_15PPFRGBSignatureEE28PyramidFeatureHistogramLevelEEEvT_S8_@Base 1.6
 (optional=templinst)_ZNSt12_Destroy_auxILb0EE9__destroyIPN3pcl23PyramidFeatureHistogramINS2_15VFHSignature308EE28PyramidFeatureHistogramLevelEEEvT_S8_@Base 1.6
 (optional=templinst)_ZNSt12_Destroy_auxILb0EE9__destroyIPN3pcl23PyramidFeatureHistogramINS2_18PFHRGBSignature250EE28PyramidFeatureHistogramLevelEEEvT_S8_@Base 1.6
 (optional=templinst)_ZNSt12_Destroy_auxILb0EE9__destroyIPN3pcl23PyramidFeatureHistogramINS2_22NormalBasedSignature12EE28PyramidFeatureHistogramLevelEEEvT_S8_@Base 1.6
 (optional=templinst)_ZNSt12_Destroy_auxILb0EE9__destroyIPN3pcl23PyramidFeatureHistogramINS2_6Narf36EE28PyramidFeatureHistogramLevelEEEvT_S8_@Base 1.6
 (optional=templinst)_ZNSt12_Vector_baseISt4pairIffESaIS1_EE17_M_create_storageEm@Base 1.6
 (optional=templinst)_ZNSt12_Vector_baseIfSaIfEE17_M_create_storageEm@Base 1.6
 (optional=templinst)_ZNSt12_Vector_baseIfSaIfEED1Ev@Base 1.6
 (optional=templinst)_ZNSt12_Vector_baseIfSaIfEED2Ev@Base 1.6
 (optional=templinst)_ZNSt12_Vector_baseIjSaIjEE17_M_create_storageEm@Base 1.6
 (optional=templinst)_ZNSt12_Vector_baseImSaImEED1Ev@Base 1.6
 (optional=templinst)_ZNSt12_Vector_baseImSaImEED2Ev@Base 1.6
 (optional=templinst)_ZNSt20__copy_move_backwardILb0ELb0ESt26random_access_iterator_tagE13__copy_move_bIPN3pcl23PyramidFeatureHistogramINS3_12PPFSignatureEE28PyramidFeatureHistogramLevelES8_EET0_T_SA_S9_@Base 1.6
 (optional=templinst)_ZNSt20__copy_move_backwardILb0ELb0ESt26random_access_iterator_tagE13__copy_move_bIPN3pcl23PyramidFeatureHistogramINS3_15ESFSignature640EE28PyramidFeatureHistogramLevelES8_EET0_T_SA_S9_@Base 1.6
 (optional=templinst)_ZNSt20__copy_move_backwardILb0ELb0ESt26random_access_iterator_tagE13__copy_move_bIPN3pcl23PyramidFeatureHistogramINS3_15FPFHSignature33EE28PyramidFeatureHistogramLevelES8_EET0_T_SA_S9_@Base 1.6
 (optional=templinst)_ZNSt20__copy_move_backwardILb0ELb0ESt26random_access_iterator_tagE13__copy_move_bIPN3pcl23PyramidFeatureHistogramINS3_15PFHSignature125EE28PyramidFeatureHistogramLevelES8_EET0_T_SA_S9_@Base 1.6
 (optional=templinst)_ZNSt20__copy_move_backwardILb0ELb0ESt26random_access_iterator_tagE13__copy_move_bIPN3pcl23PyramidFeatureHistogramINS3_15PPFRGBSignatureEE28PyramidFeatureHistogramLevelES8_EET0_T_SA_S9_@Base 1.6
 (optional=templinst)_ZNSt20__copy_move_backwardILb0ELb0ESt26random_access_iterator_tagE13__copy_move_bIPN3pcl23PyramidFeatureHistogramINS3_15VFHSignature308EE28PyramidFeatureHistogramLevelES8_EET0_T_SA_S9_@Base 1.6
 (optional=templinst)_ZNSt20__copy_move_backwardILb0ELb0ESt26random_access_iterator_tagE13__copy_move_bIPN3pcl23PyramidFeatureHistogramINS3_18PFHRGBSignature250EE28PyramidFeatureHistogramLevelES8_EET0_T_SA_S9_@Base 1.6
 (optional=templinst)_ZNSt20__copy_move_backwardILb0ELb0ESt26random_access_iterator_tagE13__copy_move_bIPN3pcl23PyramidFeatureHistogramINS3_22NormalBasedSignature12EE28PyramidFeatureHistogramLevelES8_EET0_T_SA_S9_@Base 1.6
 (optional=templinst)_ZNSt20__copy_move_backwardILb0ELb0ESt26random_access_iterator_tagE13__copy_move_bIPN3pcl23PyramidFeatureHistogramINS3_6Narf36EE28PyramidFeatureHistogramLevelES8_EET0_T_SA_S9_@Base 1.6
 (optional=templinst)_ZNSt20__uninitialized_copyILb0EE13__uninit_copyIPN3pcl23PyramidFeatureHistogramINS2_12PPFSignatureEE28PyramidFeatureHistogramLevelES7_EET0_T_S9_S8_@Base 1.6
 (optional=templinst)_ZNSt20__uninitialized_copyILb0EE13__uninit_copyIPN3pcl23PyramidFeatureHistogramINS2_15ESFSignature640EE28PyramidFeatureHistogramLevelES7_EET0_T_S9_S8_@Base 1.6
 (optional=templinst)_ZNSt20__uninitialized_copyILb0EE13__uninit_copyIPN3pcl23PyramidFeatureHistogramINS2_15FPFHSignature33EE28PyramidFeatureHistogramLevelES7_EET0_T_S9_S8_@Base 1.6
 (optional=templinst)_ZNSt20__uninitialized_copyILb0EE13__uninit_copyIPN3pcl23PyramidFeatureHistogramINS2_15PFHSignature125EE28PyramidFeatureHistogramLevelES7_EET0_T_S9_S8_@Base 1.6
 (optional=templinst)_ZNSt20__uninitialized_copyILb0EE13__uninit_copyIPN3pcl23PyramidFeatureHistogramINS2_15PPFRGBSignatureEE28PyramidFeatureHistogramLevelES7_EET0_T_S9_S8_@Base 1.6
 (optional=templinst)_ZNSt20__uninitialized_copyILb0EE13__uninit_copyIPN3pcl23PyramidFeatureHistogramINS2_15VFHSignature308EE28PyramidFeatureHistogramLevelES7_EET0_T_S9_S8_@Base 1.6
 (optional=templinst)_ZNSt20__uninitialized_copyILb0EE13__uninit_copyIPN3pcl23PyramidFeatureHistogramINS2_18PFHRGBSignature250EE28PyramidFeatureHistogramLevelES7_EET0_T_S9_S8_@Base 1.6
 (optional=templinst)_ZNSt20__uninitialized_copyILb0EE13__uninit_copyIPN3pcl23PyramidFeatureHistogramINS2_22NormalBasedSignature12EE28PyramidFeatureHistogramLevelES7_EET0_T_S9_S8_@Base 1.6
 (optional=templinst)_ZNSt20__uninitialized_copyILb0EE13__uninit_copyIPN3pcl23PyramidFeatureHistogramINS2_6Narf36EE28PyramidFeatureHistogramLevelES7_EET0_T_S9_S8_@Base 1.6
 (optional=templinst)_ZNSt22__uninitialized_fill_nILb0EE15__uninit_fill_nIPN3pcl23PyramidFeatureHistogramINS2_12PPFSignatureEE28PyramidFeatureHistogramLevelEmS6_EEvT_T0_RKT1_@Base 1.6
 (optional=templinst)_ZNSt22__uninitialized_fill_nILb0EE15__uninit_fill_nIPN3pcl23PyramidFeatureHistogramINS2_15ESFSignature640EE28PyramidFeatureHistogramLevelEmS6_EEvT_T0_RKT1_@Base 1.6
 (optional=templinst)_ZNSt22__uninitialized_fill_nILb0EE15__uninit_fill_nIPN3pcl23PyramidFeatureHistogramINS2_15FPFHSignature33EE28PyramidFeatureHistogramLevelEmS6_EEvT_T0_RKT1_@Base 1.6
 (optional=templinst)_ZNSt22__uninitialized_fill_nILb0EE15__uninit_fill_nIPN3pcl23PyramidFeatureHistogramINS2_15PFHSignature125EE28PyramidFeatureHistogramLevelEmS6_EEvT_T0_RKT1_@Base 1.6
 (optional=templinst)_ZNSt22__uninitialized_fill_nILb0EE15__uninit_fill_nIPN3pcl23PyramidFeatureHistogramINS2_15PPFRGBSignatureEE28PyramidFeatureHistogramLevelEmS6_EEvT_T0_RKT1_@Base 1.6
 (optional=templinst)_ZNSt22__uninitialized_fill_nILb0EE15__uninit_fill_nIPN3pcl23PyramidFeatureHistogramINS2_15VFHSignature308EE28PyramidFeatureHistogramLevelEmS6_EEvT_T0_RKT1_@Base 1.6
 (optional=templinst)_ZNSt22__uninitialized_fill_nILb0EE15__uninit_fill_nIPN3pcl23PyramidFeatureHistogramINS2_18PFHRGBSignature250EE28PyramidFeatureHistogramLevelEmS6_EEvT_T0_RKT1_@Base 1.6
 (optional=templinst)_ZNSt22__uninitialized_fill_nILb0EE15__uninit_fill_nIPN3pcl23PyramidFeatureHistogramINS2_22NormalBasedSignature12EE28PyramidFeatureHistogramLevelEmS6_EEvT_T0_RKT1_@Base 1.6
 (optional=templinst)_ZNSt22__uninitialized_fill_nILb0EE15__uninit_fill_nIPN3pcl23PyramidFeatureHistogramINS2_6Narf36EE28PyramidFeatureHistogramLevelEmS6_EEvT_T0_RKT1_@Base 1.6
 (optional=templinst)_ZNSt3mapIN3pcl8SacModelEjSt4lessIS1_ESaISt4pairIKS1_jEEEC1IPKS6_EET_SC_@Base 1.6
 (optional=templinst)_ZNSt3mapIN3pcl8SacModelEjSt4lessIS1_ESaISt4pairIKS1_jEEEC2IPKS6_EET_SC_@Base 1.6
 (optional=templinst)_ZNSt3mapIN3pcl8SacModelEjSt4lessIS1_ESaISt4pairIKS1_jEEED1Ev@Base 1.6
 (optional=templinst)_ZNSt3mapIN3pcl8SacModelEjSt4lessIS1_ESaISt4pairIKS1_jEEED2Ev@Base 1.6
 (optional=templinst)_ZNSt3setIN5flann15UniqueResultSetIfE9DistIndexESt4lessIS3_ESaIS3_EE5eraseERKS3_@Base 1.6
 (optional=templinst)_ZNSt3setIN5flann15UniqueResultSetIfE9DistIndexESt4lessIS3_ESaIS3_EE6insertERKS3_@Base 1.6
 (optional=templinst)_ZNSt6vectorIN3pcl14CorrespondenceEN5Eigen17aligned_allocatorIS1_EEE6resizeEmRKS1_@Base 1.6
 (optional=templinst)_ZNSt6vectorIN3pcl14CorrespondenceEN5Eigen29aligned_allocator_indirectionIS1_EEE14_M_fill_insertEN9__gnu_cxx17__normal_iteratorIPS1_S5_EEmRKS1_@Base 1.6
 (optional=templinst)_ZNSt6vectorIN3pcl23PyramidFeatureHistogramINS0_12PPFSignatureEE28PyramidFeatureHistogramLevelESaIS4_EE14_M_fill_insertEN9__gnu_cxx17__normal_iteratorIPS4_S6_EEmRKS4_@Base 1.6
 (optional=templinst)_ZNSt6vectorIN3pcl23PyramidFeatureHistogramINS0_12PPFSignatureEE28PyramidFeatureHistogramLevelESaIS4_EE6resizeEmS4_@Base 1.6
 (optional=templinst)_ZNSt6vectorIN3pcl23PyramidFeatureHistogramINS0_12PPFSignatureEE28PyramidFeatureHistogramLevelESaIS4_EED1Ev@Base 1.6
 (optional=templinst)_ZNSt6vectorIN3pcl23PyramidFeatureHistogramINS0_12PPFSignatureEE28PyramidFeatureHistogramLevelESaIS4_EED2Ev@Base 1.6
 (optional=templinst)_ZNSt6vectorIN3pcl23PyramidFeatureHistogramINS0_15ESFSignature640EE28PyramidFeatureHistogramLevelESaIS4_EE14_M_fill_insertEN9__gnu_cxx17__normal_iteratorIPS4_S6_EEmRKS4_@Base 1.6
 (optional=templinst)_ZNSt6vectorIN3pcl23PyramidFeatureHistogramINS0_15ESFSignature640EE28PyramidFeatureHistogramLevelESaIS4_EE6resizeEmS4_@Base 1.6
 (optional=templinst)_ZNSt6vectorIN3pcl23PyramidFeatureHistogramINS0_15ESFSignature640EE28PyramidFeatureHistogramLevelESaIS4_EED1Ev@Base 1.6
 (optional=templinst)_ZNSt6vectorIN3pcl23PyramidFeatureHistogramINS0_15ESFSignature640EE28PyramidFeatureHistogramLevelESaIS4_EED2Ev@Base 1.6
 (optional=templinst)_ZNSt6vectorIN3pcl23PyramidFeatureHistogramINS0_15FPFHSignature33EE28PyramidFeatureHistogramLevelESaIS4_EE14_M_fill_insertEN9__gnu_cxx17__normal_iteratorIPS4_S6_EEmRKS4_@Base 1.6
 (optional=templinst)_ZNSt6vectorIN3pcl23PyramidFeatureHistogramINS0_15FPFHSignature33EE28PyramidFeatureHistogramLevelESaIS4_EE6resizeEmS4_@Base 1.6
 (optional=templinst)_ZNSt6vectorIN3pcl23PyramidFeatureHistogramINS0_15FPFHSignature33EE28PyramidFeatureHistogramLevelESaIS4_EED1Ev@Base 1.6
 (optional=templinst)_ZNSt6vectorIN3pcl23PyramidFeatureHistogramINS0_15FPFHSignature33EE28PyramidFeatureHistogramLevelESaIS4_EED2Ev@Base 1.6
 (optional=templinst)_ZNSt6vectorIN3pcl23PyramidFeatureHistogramINS0_15PFHSignature125EE28PyramidFeatureHistogramLevelESaIS4_EE14_M_fill_insertEN9__gnu_cxx17__normal_iteratorIPS4_S6_EEmRKS4_@Base 1.6
 (optional=templinst)_ZNSt6vectorIN3pcl23PyramidFeatureHistogramINS0_15PFHSignature125EE28PyramidFeatureHistogramLevelESaIS4_EE6resizeEmS4_@Base 1.6
 (optional=templinst)_ZNSt6vectorIN3pcl23PyramidFeatureHistogramINS0_15PPFRGBSignatureEE28PyramidFeatureHistogramLevelESaIS4_EE14_M_fill_insertEN9__gnu_cxx17__normal_iteratorIPS4_S6_EEmRKS4_@Base 1.6
 (optional=templinst)_ZNSt6vectorIN3pcl23PyramidFeatureHistogramINS0_15PPFRGBSignatureEE28PyramidFeatureHistogramLevelESaIS4_EE6resizeEmS4_@Base 1.6
 (optional=templinst)_ZNSt6vectorIN3pcl23PyramidFeatureHistogramINS0_15PPFRGBSignatureEE28PyramidFeatureHistogramLevelESaIS4_EED1Ev@Base 1.6
 (optional=templinst)_ZNSt6vectorIN3pcl23PyramidFeatureHistogramINS0_15PPFRGBSignatureEE28PyramidFeatureHistogramLevelESaIS4_EED2Ev@Base 1.6
 (optional=templinst)_ZNSt6vectorIN3pcl23PyramidFeatureHistogramINS0_15VFHSignature308EE28PyramidFeatureHistogramLevelESaIS4_EE14_M_fill_insertEN9__gnu_cxx17__normal_iteratorIPS4_S6_EEmRKS4_@Base 1.6
 (optional=templinst)_ZNSt6vectorIN3pcl23PyramidFeatureHistogramINS0_15VFHSignature308EE28PyramidFeatureHistogramLevelESaIS4_EE6resizeEmS4_@Base 1.6
 (optional=templinst)_ZNSt6vectorIN3pcl23PyramidFeatureHistogramINS0_15VFHSignature308EE28PyramidFeatureHistogramLevelESaIS4_EED1Ev@Base 1.6
 (optional=templinst)_ZNSt6vectorIN3pcl23PyramidFeatureHistogramINS0_15VFHSignature308EE28PyramidFeatureHistogramLevelESaIS4_EED2Ev@Base 1.6
 (optional=templinst)_ZNSt6vectorIN3pcl23PyramidFeatureHistogramINS0_18PFHRGBSignature250EE28PyramidFeatureHistogramLevelESaIS4_EE14_M_fill_insertEN9__gnu_cxx17__normal_iteratorIPS4_S6_EEmRKS4_@Base 1.6
 (optional=templinst)_ZNSt6vectorIN3pcl23PyramidFeatureHistogramINS0_18PFHRGBSignature250EE28PyramidFeatureHistogramLevelESaIS4_EE6resizeEmS4_@Base 1.6
 (optional=templinst)_ZNSt6vectorIN3pcl23PyramidFeatureHistogramINS0_18PFHRGBSignature250EE28PyramidFeatureHistogramLevelESaIS4_EED1Ev@Base 1.6
 (optional=templinst)_ZNSt6vectorIN3pcl23PyramidFeatureHistogramINS0_18PFHRGBSignature250EE28PyramidFeatureHistogramLevelESaIS4_EED2Ev@Base 1.6
 (optional=templinst)_ZNSt6vectorIN3pcl23PyramidFeatureHistogramINS0_22NormalBasedSignature12EE28PyramidFeatureHistogramLevelESaIS4_EE14_M_fill_insertEN9__gnu_cxx17__normal_iteratorIPS4_S6_EEmRKS4_@Base 1.6
 (optional=templinst)_ZNSt6vectorIN3pcl23PyramidFeatureHistogramINS0_22NormalBasedSignature12EE28PyramidFeatureHistogramLevelESaIS4_EE6resizeEmS4_@Base 1.6
 (optional=templinst)_ZNSt6vectorIN3pcl23PyramidFeatureHistogramINS0_22NormalBasedSignature12EE28PyramidFeatureHistogramLevelESaIS4_EED1Ev@Base 1.6
 (optional=templinst)_ZNSt6vectorIN3pcl23PyramidFeatureHistogramINS0_22NormalBasedSignature12EE28PyramidFeatureHistogramLevelESaIS4_EED2Ev@Base 1.6
 (optional=templinst)_ZNSt6vectorIN3pcl23PyramidFeatureHistogramINS0_6Narf36EE28PyramidFeatureHistogramLevelESaIS4_EE14_M_fill_insertEN9__gnu_cxx17__normal_iteratorIPS4_S6_EEmRKS4_@Base 1.6
 (optional=templinst)_ZNSt6vectorIN3pcl23PyramidFeatureHistogramINS0_6Narf36EE28PyramidFeatureHistogramLevelESaIS4_EE6resizeEmS4_@Base 1.6
 (optional=templinst)_ZNSt6vectorIN3pcl23PyramidFeatureHistogramINS0_6Narf36EE28PyramidFeatureHistogramLevelESaIS4_EED1Ev@Base 1.6
 (optional=templinst)_ZNSt6vectorIN3pcl23PyramidFeatureHistogramINS0_6Narf36EE28PyramidFeatureHistogramLevelESaIS4_EED2Ev@Base 1.6
 (optional=templinst)_ZNSt6vectorIN5flann13DistanceIndexIfEESaIS2_EE13_M_insert_auxEN9__gnu_cxx17__normal_iteratorIPS2_S4_EERKS2_@Base 1.6
 (optional=templinst)_ZNSt6vectorIN5flann13DistanceIndexIfEESaIS2_EE14_M_fill_insertEN9__gnu_cxx17__normal_iteratorIPS2_S4_EEmRKS2_@Base 1.6
 (optional=templinst)_ZNSt6vectorIN5flann13DistanceIndexIfEESaIS2_EE7reserveEm@Base 1.6
 (optional=templinst)_ZNSt6vectorIN5flann13DistanceIndexIfEESaIS2_EED1Ev@Base 1.6
 (optional=templinst)_ZNSt6vectorIN5flann13DistanceIndexIfEESaIS2_EED2Ev@Base 1.6
 (optional=templinst)_ZNSt6vectorISt4pairIffESaIS1_EEC1ERKS3_@Base 1.6
 (optional=templinst)_ZNSt6vectorISt4pairIffESaIS1_EEC2ERKS3_@Base 1.6
 (optional=templinst)_ZNSt6vectorISt4pairIffESaIS1_EED1Ev@Base 1.6
 (optional=templinst)_ZNSt6vectorISt4pairIffESaIS1_EED2Ev@Base 1.6
 (optional=templinst)_ZNSt6vectorISt4pairIffESaIS1_EEaSERKS3_@Base 1.6
 (optional=templinst)_ZNSt6vectorIfSaIfEE14_M_fill_insertEN9__gnu_cxx17__normal_iteratorIPfS1_EEmRKf@Base 1.6
 (optional=templinst)_ZNSt6vectorIfSaIfEE6resizeEmf@Base 1.6
 (optional=templinst)_ZNSt6vectorIfSaIfEEC1ERKS1_@Base 1.6
 (optional=templinst)_ZNSt6vectorIfSaIfEEC1EmRKfRKS0_@Base 1.6
 (optional=templinst)_ZNSt6vectorIfSaIfEEC2ERKS1_@Base 1.6
 (optional=templinst)_ZNSt6vectorIfSaIfEEC2EmRKfRKS0_@Base 1.6
 (optional=templinst)_ZNSt6vectorIfSaIfEED1Ev@Base 1.6
 (optional=templinst)_ZNSt6vectorIfSaIfEED2Ev@Base 1.6
 (optional=templinst)_ZNSt6vectorIfSaIfEEaSERKS1_@Base 1.6
 (optional=templinst)_ZNSt6vectorIiSaIiEE14_M_fill_insertEN9__gnu_cxx17__normal_iteratorIPiS1_EEmRKi@Base 1.6
 (optional=templinst)_ZNSt6vectorIiSaIiEE6resizeEmi@Base 1.6
 (optional=templinst)_ZNSt6vectorIjSaIjEE14_M_fill_insertEN9__gnu_cxx17__normal_iteratorIPjS1_EEmRKj@Base 1.6
 (optional=templinst)_ZNSt6vectorIjSaIjEE6resizeEmj@Base 1.6
 (optional=templinst)_ZNSt6vectorIjSaIjEEC1ERKS1_@Base 1.6
 (optional=templinst)_ZNSt6vectorIjSaIjEEC2ERKS1_@Base 1.6
 (optional=templinst)_ZNSt6vectorIjSaIjEED1Ev@Base 1.6
 (optional=templinst)_ZNSt6vectorIjSaIjEED2Ev@Base 1.6
 (optional=templinst)_ZNSt6vectorIjSaIjEEaSERKS1_@Base 1.6
 (optional=templinst)_ZNSt6vectorImSaImEE13_M_insert_auxEN9__gnu_cxx17__normal_iteratorIPmS1_EERKm@Base 1.6
 (optional=templinst)_ZNSt6vectorImSaImEEC1ERKS1_@Base 1.6
 (optional=templinst)_ZNSt6vectorImSaImEEC2ERKS1_@Base 1.6
 (optional=templinst)_ZNSt6vectorImSaImEED1Ev@Base 1.6
 (optional=templinst)_ZNSt6vectorImSaImEED2Ev@Base 1.6
 (optional=templinst)_ZNSt6vectorImSaImEEaSERKS1_@Base 1.6
 (optional=templinst)_ZNSt8_Rb_treeIN3pcl8SacModelESt4pairIKS1_jESt10_Select1stIS4_ESt4lessIS1_ESaIS4_EE10_M_insert_EPKSt18_Rb_tree_node_baseSD_RKS4_@Base 1.6
 (optional=templinst)_ZNSt8_Rb_treeIN3pcl8SacModelESt4pairIKS1_jESt10_Select1stIS4_ESt4lessIS1_ESaIS4_EE16_M_insert_uniqueERKS4_@Base 1.6
 (optional=templinst)_ZNSt8_Rb_treeIN3pcl8SacModelESt4pairIKS1_jESt10_Select1stIS4_ESt4lessIS1_ESaIS4_EE16_M_insert_uniqueIPKS4_EEvT_SE_@Base 1.6
 (optional=templinst)_ZNSt8_Rb_treeIN3pcl8SacModelESt4pairIKS1_jESt10_Select1stIS4_ESt4lessIS1_ESaIS4_EE17_M_insert_unique_ESt23_Rb_tree_const_iteratorIS4_ERKS4_@Base 1.6
 (optional=templinst)_ZNSt8_Rb_treeIN3pcl8SacModelESt4pairIKS1_jESt10_Select1stIS4_ESt4lessIS1_ESaIS4_EE8_M_eraseEPSt13_Rb_tree_nodeIS4_E@Base 1.6
 (optional=templinst)_ZNSt8_Rb_treeIN3pcl8SacModelESt4pairIKS1_jESt10_Select1stIS4_ESt4lessIS1_ESaIS4_EED1Ev@Base 1.6
 (optional=templinst)_ZNSt8_Rb_treeIN3pcl8SacModelESt4pairIKS1_jESt10_Select1stIS4_ESt4lessIS1_ESaIS4_EED2Ev@Base 1.6
 (optional=templinst)_ZNSt8_Rb_treeIN5flann15UniqueResultSetIfE9DistIndexES3_St9_IdentityIS3_ESt4lessIS3_ESaIS3_EE10_M_insert_EPKSt18_Rb_tree_node_baseSC_RKS3_@Base 1.6
 (optional=templinst)_ZNSt8_Rb_treeIN5flann15UniqueResultSetIfE9DistIndexES3_St9_IdentityIS3_ESt4lessIS3_ESaIS3_EE11equal_rangeERKS3_@Base 1.6
 (optional=templinst)_ZNSt8_Rb_treeIN5flann15UniqueResultSetIfE9DistIndexES3_St9_IdentityIS3_ESt4lessIS3_ESaIS3_EE12_M_erase_auxESt23_Rb_tree_const_iteratorIS3_ESB_@Base 1.6
 (optional=templinst)_ZNSt8_Rb_treeIN5flann15UniqueResultSetIfE9DistIndexES3_St9_IdentityIS3_ESt4lessIS3_ESaIS3_EE16_M_insert_uniqueERKS3_@Base 1.6
 (optional=templinst)_ZNSt8_Rb_treeIN5flann15UniqueResultSetIfE9DistIndexES3_St9_IdentityIS3_ESt4lessIS3_ESaIS3_EE5clearEv@Base 1.6
 (optional=templinst)_ZNSt8_Rb_treeIN5flann15UniqueResultSetIfE9DistIndexES3_St9_IdentityIS3_ESt4lessIS3_ESaIS3_EE5eraseERKS3_@Base 1.6
 (optional=templinst)_ZNSt8_Rb_treeIN5flann15UniqueResultSetIfE9DistIndexES3_St9_IdentityIS3_ESt4lessIS3_ESaIS3_EE8_M_eraseEPSt13_Rb_tree_nodeIS3_E@Base 1.6
 (optional=templinst)_ZSt10__pop_heapIN9__gnu_cxx17__normal_iteratorIPN5flann13DistanceIndexIfEESt6vectorIS4_SaIS4_EEEEEvT_SA_SA_@Base 1.6
 (optional=templinst)_ZSt11__push_heapIN9__gnu_cxx17__normal_iteratorIPN5flann13DistanceIndexIfEESt6vectorIS4_SaIS4_EEEElS4_EvT_T0_SB_T1_@Base 1.6
 (optional=templinst)_ZSt13__adjust_heapIN9__gnu_cxx17__normal_iteratorIPN5flann13DistanceIndexIfEESt6vectorIS4_SaIS4_EEEElS4_EvT_T0_SB_T1_@Base 1.6
 (optional=templinst)_ZSt13__adjust_heapIN9__gnu_cxx17__normal_iteratorIPdSt6vectorIdSaIdEEEEldEvT_T0_S8_T1_@Base 1.6
 (optional=templinst)_ZSt13__heap_selectIN9__gnu_cxx17__normal_iteratorIPN5flann13DistanceIndexIfEESt6vectorIS4_SaIS4_EEEEEvT_SA_SA_@Base 1.6
 (optional=templinst)_ZSt13__heap_selectIN9__gnu_cxx17__normal_iteratorIPdSt6vectorIdSaIdEEEEEvT_S7_S7_@Base 1.6
 (optional=templinst)_ZSt13__introselectIN9__gnu_cxx17__normal_iteratorIPN5flann13DistanceIndexIfEESt6vectorIS4_SaIS4_EEEElEvT_SA_SA_T0_@Base 1.6
 (optional=templinst)_ZSt13copy_backwardIPfS0_ET0_T_S2_S1_@Base 1.6
 (optional=templinst)_ZSt13copy_backwardIPiS0_ET0_T_S2_S1_@Base 1.6
 (optional=templinst)_ZSt13copy_backwardIPjS0_ET0_T_S2_S1_@Base 1.6
 (optional=templinst)_ZSt16__insertion_sortIN9__gnu_cxx17__normal_iteratorIPN5flann13DistanceIndexIfEESt6vectorIS4_SaIS4_EEEEEvT_SA_@Base 1.6
 (optional=templinst)_ZSt16__insertion_sortIN9__gnu_cxx17__normal_iteratorIPdSt6vectorIdSaIdEEEEEvT_S7_@Base 1.6
 (optional=templinst)_ZSt16__introsort_loopIN9__gnu_cxx17__normal_iteratorIPN5flann13DistanceIndexIfEESt6vectorIS4_SaIS4_EEEElEvT_SA_T0_@Base 1.6
 (optional=templinst)_ZSt16__introsort_loopIN9__gnu_cxx17__normal_iteratorIPdSt6vectorIdSaIdEEEElEvT_S7_T0_@Base 1.6
 (optional=templinst)_ZSt19__move_median_firstIN9__gnu_cxx17__normal_iteratorIPN5flann13DistanceIndexIfEESt6vectorIS4_SaIS4_EEEEEvT_SA_SA_@Base 1.6
 (optional=templinst)_ZSt19__move_median_firstIN9__gnu_cxx17__normal_iteratorIPdSt6vectorIdSaIdEEEEEvT_S7_S7_@Base 1.6
 (optional=templinst)_ZSt21__unguarded_partitionIN9__gnu_cxx17__normal_iteratorIPN5flann13DistanceIndexIfEESt6vectorIS4_SaIS4_EEEES4_ET_SA_SA_RKT0_@Base 1.6
 (optional=templinst)_ZSt22__final_insertion_sortIN9__gnu_cxx17__normal_iteratorIPN5flann13DistanceIndexIfEESt6vectorIS4_SaIS4_EEEEEvT_SA_@Base 1.6
 (optional=templinst)_ZSt22__final_insertion_sortIN9__gnu_cxx17__normal_iteratorIPdSt6vectorIdSaIdEEEEEvT_S7_@Base 1.6
 (optional=templinst)_ZSt25__unguarded_linear_insertIN9__gnu_cxx17__normal_iteratorIPN5flann13DistanceIndexIfEESt6vectorIS4_SaIS4_EEEEEvT_@Base 1.6
 (optional=templinst)_ZSt26__unguarded_insertion_sortIN9__gnu_cxx17__normal_iteratorIPN5flann13DistanceIndexIfEESt6vectorIS4_SaIS4_EEEEEvT_SA_@Base 1.6
 (optional=templinst)_ZSt4copyIN9__gnu_cxx17__normal_iteratorIPKfSt6vectorIfSaIfEEEENS1_IPfS6_EEET0_T_SB_SA_@Base 1.6
 (optional=templinst)_ZSt4copyIN9__gnu_cxx17__normal_iteratorIPKjSt6vectorIjSaIjEEEENS1_IPjS6_EEET0_T_SB_SA_@Base 1.6
 (optional=templinst)_ZSt4copyIN9__gnu_cxx17__normal_iteratorIPKmSt6vectorImSaImEEEENS1_IPmS6_EEET0_T_SB_SA_@Base 1.6
 _ZSt8__fill_aIPN3pcl23PyramidFeatureHistogramINS0_12PPFSignatureEE28PyramidFeatureHistogramLevelES4_EN9__gnu_cxx11__enable_ifIXntsrSt11__is_scalarIT0_E7__valueEvE6__typeET_SD_RKS9_@Base 1.6
 _ZSt8__fill_aIPN3pcl23PyramidFeatureHistogramINS0_15ESFSignature640EE28PyramidFeatureHistogramLevelES4_EN9__gnu_cxx11__enable_ifIXntsrSt11__is_scalarIT0_E7__valueEvE6__typeET_SD_RKS9_@Base 1.6
 _ZSt8__fill_aIPN3pcl23PyramidFeatureHistogramINS0_15FPFHSignature33EE28PyramidFeatureHistogramLevelES4_EN9__gnu_cxx11__enable_ifIXntsrSt11__is_scalarIT0_E7__valueEvE6__typeET_SD_RKS9_@Base 1.6
 _ZSt8__fill_aIPN3pcl23PyramidFeatureHistogramINS0_15PFHSignature125EE28PyramidFeatureHistogramLevelES4_EN9__gnu_cxx11__enable_ifIXntsrSt11__is_scalarIT0_E7__valueEvE6__typeET_SD_RKS9_@Base 1.6
 _ZSt8__fill_aIPN3pcl23PyramidFeatureHistogramINS0_15PPFRGBSignatureEE28PyramidFeatureHistogramLevelES4_EN9__gnu_cxx11__enable_ifIXntsrSt11__is_scalarIT0_E7__valueEvE6__typeET_SD_RKS9_@Base 1.6
 _ZSt8__fill_aIPN3pcl23PyramidFeatureHistogramINS0_15VFHSignature308EE28PyramidFeatureHistogramLevelES4_EN9__gnu_cxx11__enable_ifIXntsrSt11__is_scalarIT0_E7__valueEvE6__typeET_SD_RKS9_@Base 1.6
 _ZSt8__fill_aIPN3pcl23PyramidFeatureHistogramINS0_18PFHRGBSignature250EE28PyramidFeatureHistogramLevelES4_EN9__gnu_cxx11__enable_ifIXntsrSt11__is_scalarIT0_E7__valueEvE6__typeET_SD_RKS9_@Base 1.6
 _ZSt8__fill_aIPN3pcl23PyramidFeatureHistogramINS0_22NormalBasedSignature12EE28PyramidFeatureHistogramLevelES4_EN9__gnu_cxx11__enable_ifIXntsrSt11__is_scalarIT0_E7__valueEvE6__typeET_SD_RKS9_@Base 1.6
 _ZSt8__fill_aIPN3pcl23PyramidFeatureHistogramINS0_6Narf36EE28PyramidFeatureHistogramLevelES4_EN9__gnu_cxx11__enable_ifIXntsrSt11__is_scalarIT0_E7__valueEvE6__typeET_SD_RKS9_@Base 1.6
 (optional=templinst)_ZSt8pop_heapIN9__gnu_cxx17__normal_iteratorIPN5flann13DistanceIndexIfEESt6vectorIS4_SaIS4_EEEEEvT_SA_@Base 1.6
 (optional=templinst)_ZSt9make_heapIN9__gnu_cxx17__normal_iteratorIPN5flann13DistanceIndexIfEESt6vectorIS4_SaIS4_EEEEEvT_SA_@Base 1.6
 (optional=templinst)_ZSt9make_heapIN9__gnu_cxx17__normal_iteratorIPdSt6vectorIdSaIdEEEEEvT_S7_@Base 1.6
 (optional=templinst)_ZSt9push_heapIN9__gnu_cxx17__normal_iteratorIPN5flann13DistanceIndexIfEESt6vectorIS4_SaIS4_EEEEEvT_SA_@Base 1.6
 (optional=templinst)_ZSt9sort_heapIN9__gnu_cxx17__normal_iteratorIPN5flann13DistanceIndexIfEESt6vectorIS4_SaIS4_EEEEEvT_SA_@Base 1.6
 (optional=templinst)_ZSt9sort_heapIN9__gnu_cxx17__normal_iteratorIPdSt6vectorIdSaIdEEEEEvT_S7_@Base 1.6
 _ZTIN3pcl12registration22CorrespondenceRejectorE@Base 1.6
 _ZTIN3pcl12registration30CorrespondenceRejectorFeaturesE@Base 1.6
 _ZTIN3pcl14CorrespondenceE@Base 1.6
 _ZTIN3pcl19PointRepresentationINS_12PPFSignatureEEE@Base 1.6
 _ZTIN3pcl19PointRepresentationINS_15ESFSignature640EEE@Base 1.6
 _ZTIN3pcl19PointRepresentationINS_15FPFHSignature33EEE@Base 1.6
 _ZTIN3pcl19PointRepresentationINS_15PFHSignature125EEE@Base 1.6
 _ZTIN3pcl19PointRepresentationINS_15PPFRGBSignatureEEE@Base 1.6
 _ZTIN3pcl19PointRepresentationINS_15VFHSignature308EEE@Base 1.6
 _ZTIN3pcl19PointRepresentationINS_18PFHRGBSignature250EEE@Base 1.6
 _ZTIN3pcl19PointRepresentationINS_22NormalBasedSignature12EEE@Base 1.6
 _ZTIN3pcl19PointRepresentationINS_6Narf36EEE@Base 1.6
 _ZTIN3pcl23PyramidFeatureHistogramINS_12PPFSignatureEEE@Base 1.6
 _ZTIN3pcl23PyramidFeatureHistogramINS_15ESFSignature640EEE@Base 1.6
 _ZTIN3pcl23PyramidFeatureHistogramINS_15FPFHSignature33EEE@Base 1.6
 _ZTIN3pcl23PyramidFeatureHistogramINS_15PFHSignature125EEE@Base 1.6
 _ZTIN3pcl23PyramidFeatureHistogramINS_15PPFRGBSignatureEEE@Base 1.6
 _ZTIN3pcl23PyramidFeatureHistogramINS_15VFHSignature308EEE@Base 1.6
 _ZTIN3pcl23PyramidFeatureHistogramINS_18PFHRGBSignature250EEE@Base 1.6
 _ZTIN3pcl23PyramidFeatureHistogramINS_22NormalBasedSignature12EEE@Base 1.6
 _ZTIN3pcl23PyramidFeatureHistogramINS_6Narf36EEE@Base 1.6
 _ZTIN3pcl26DefaultPointRepresentationINS_12PPFSignatureEEE@Base 1.6
 _ZTIN3pcl26DefaultPointRepresentationINS_15ESFSignature640EEE@Base 1.6
 _ZTIN3pcl26DefaultPointRepresentationINS_15FPFHSignature33EEE@Base 1.6
 _ZTIN3pcl26DefaultPointRepresentationINS_15PFHSignature125EEE@Base 1.6
 _ZTIN3pcl26DefaultPointRepresentationINS_15PPFRGBSignatureEEE@Base 1.6
 _ZTIN3pcl26DefaultPointRepresentationINS_15VFHSignature308EEE@Base 1.6
 _ZTIN3pcl26DefaultPointRepresentationINS_18PFHRGBSignature250EEE@Base 1.6
 _ZTIN3pcl26DefaultPointRepresentationINS_22NormalBasedSignature12EEE@Base 1.6
 _ZTIN3pcl26DefaultPointRepresentationINS_6Narf36EEE@Base 1.6
 _ZTIN3pcl28DefaultFeatureRepresentationINS_12PPFSignatureEEE@Base 1.6
 _ZTIN3pcl28DefaultFeatureRepresentationINS_15FPFHSignature33EEE@Base 1.6
 _ZTIN3pcl28DefaultFeatureRepresentationINS_15PFHSignature125EEE@Base 1.6
 _ZTIN3pcl28DefaultFeatureRepresentationINS_15VFHSignature308EEE@Base 1.6
 _ZTIN3pcl28DefaultFeatureRepresentationINS_18PFHRGBSignature250EEE@Base 1.6
 _ZTIN3pcl28DefaultFeatureRepresentationINS_22NormalBasedSignature12EEE@Base 1.6
 _ZTIN3pcl7PCLBaseINS_12PPFSignatureEEE@Base 1.6
 _ZTIN3pcl7PCLBaseINS_15ESFSignature640EEE@Base 1.6
 _ZTIN3pcl7PCLBaseINS_15FPFHSignature33EEE@Base 1.6
 _ZTIN3pcl7PCLBaseINS_15PFHSignature125EEE@Base 1.6
 _ZTIN3pcl7PCLBaseINS_15PPFRGBSignatureEEE@Base 1.6
 _ZTIN3pcl7PCLBaseINS_15VFHSignature308EEE@Base 1.6
 _ZTIN3pcl7PCLBaseINS_18PFHRGBSignature250EEE@Base 1.6
 _ZTIN3pcl7PCLBaseINS_22NormalBasedSignature12EEE@Base 1.6
 _ZTIN3pcl7PCLBaseINS_6Narf36EEE@Base 1.6
 _ZTIN5boost6detail15sp_counted_baseE@Base 1.6
 _ZTIN5boost6detail17sp_counted_impl_pIN3pcl26DefaultPointRepresentationINS2_12PPFSignatureEEEEE@Base 1.6
 _ZTIN5boost6detail17sp_counted_impl_pIN3pcl26DefaultPointRepresentationINS2_15ESFSignature640EEEEE@Base 1.6
 _ZTIN5boost6detail17sp_counted_impl_pIN3pcl26DefaultPointRepresentationINS2_15FPFHSignature33EEEEE@Base 1.6
 _ZTIN5boost6detail17sp_counted_impl_pIN3pcl26DefaultPointRepresentationINS2_15PFHSignature125EEEEE@Base 1.6
 _ZTIN5boost6detail17sp_counted_impl_pIN3pcl26DefaultPointRepresentationINS2_15PPFRGBSignatureEEEEE@Base 1.6
 _ZTIN5boost6detail17sp_counted_impl_pIN3pcl26DefaultPointRepresentationINS2_15VFHSignature308EEEEE@Base 1.6
 _ZTIN5boost6detail17sp_counted_impl_pIN3pcl26DefaultPointRepresentationINS2_18PFHRGBSignature250EEEEE@Base 1.6
 _ZTIN5boost6detail17sp_counted_impl_pIN3pcl26DefaultPointRepresentationINS2_22NormalBasedSignature12EEEEE@Base 1.6
 _ZTIN5boost6detail17sp_counted_impl_pIN3pcl26DefaultPointRepresentationINS2_6Narf36EEEEE@Base 1.6
 _ZTIN5boost6detail17sp_counted_impl_pISt6vectorIiSaIiEEEE@Base 1.6
 _ZTIN5flann12KNNResultSetIfEE@Base 1.6
 _ZTIN5flann13KNNResultSet2IfEE@Base 1.6
 _ZTIN5flann15UniqueResultSetIfEE@Base 1.6
 _ZTIN5flann18KNNSimpleResultSetIfEE@Base 1.6
 _ZTIN5flann18KNNUniqueResultSetIfEE@Base 1.6
 _ZTIN5flann9ResultSetIfEE@Base 1.6
 _ZTSN3pcl12registration22CorrespondenceRejectorE@Base 1.6
 _ZTSN3pcl12registration30CorrespondenceRejectorFeaturesE@Base 1.6
 _ZTSN3pcl14CorrespondenceE@Base 1.6
 _ZTSN3pcl19PointRepresentationINS_12PPFSignatureEEE@Base 1.6
 _ZTSN3pcl19PointRepresentationINS_15ESFSignature640EEE@Base 1.6
 _ZTSN3pcl19PointRepresentationINS_15FPFHSignature33EEE@Base 1.6
 _ZTSN3pcl19PointRepresentationINS_15PFHSignature125EEE@Base 1.6
 _ZTSN3pcl19PointRepresentationINS_15PPFRGBSignatureEEE@Base 1.6
 _ZTSN3pcl19PointRepresentationINS_15VFHSignature308EEE@Base 1.6
 _ZTSN3pcl19PointRepresentationINS_18PFHRGBSignature250EEE@Base 1.6
 _ZTSN3pcl19PointRepresentationINS_22NormalBasedSignature12EEE@Base 1.6
 _ZTSN3pcl19PointRepresentationINS_6Narf36EEE@Base 1.6
 _ZTSN3pcl23PyramidFeatureHistogramINS_12PPFSignatureEEE@Base 1.6
 _ZTSN3pcl23PyramidFeatureHistogramINS_15ESFSignature640EEE@Base 1.6
 _ZTSN3pcl23PyramidFeatureHistogramINS_15FPFHSignature33EEE@Base 1.6
 _ZTSN3pcl23PyramidFeatureHistogramINS_15PFHSignature125EEE@Base 1.6
 _ZTSN3pcl23PyramidFeatureHistogramINS_15PPFRGBSignatureEEE@Base 1.6
 _ZTSN3pcl23PyramidFeatureHistogramINS_15VFHSignature308EEE@Base 1.6
 _ZTSN3pcl23PyramidFeatureHistogramINS_18PFHRGBSignature250EEE@Base 1.6
 _ZTSN3pcl23PyramidFeatureHistogramINS_22NormalBasedSignature12EEE@Base 1.6
 _ZTSN3pcl23PyramidFeatureHistogramINS_6Narf36EEE@Base 1.6
 _ZTSN3pcl26DefaultPointRepresentationINS_12PPFSignatureEEE@Base 1.6
 _ZTSN3pcl26DefaultPointRepresentationINS_15ESFSignature640EEE@Base 1.6
 _ZTSN3pcl26DefaultPointRepresentationINS_15FPFHSignature33EEE@Base 1.6
 _ZTSN3pcl26DefaultPointRepresentationINS_15PFHSignature125EEE@Base 1.6
 _ZTSN3pcl26DefaultPointRepresentationINS_15PPFRGBSignatureEEE@Base 1.6
 _ZTSN3pcl26DefaultPointRepresentationINS_15VFHSignature308EEE@Base 1.6
 _ZTSN3pcl26DefaultPointRepresentationINS_18PFHRGBSignature250EEE@Base 1.6
 _ZTSN3pcl26DefaultPointRepresentationINS_22NormalBasedSignature12EEE@Base 1.6
 _ZTSN3pcl26DefaultPointRepresentationINS_6Narf36EEE@Base 1.6
 _ZTSN3pcl28DefaultFeatureRepresentationINS_12PPFSignatureEEE@Base 1.6
 _ZTSN3pcl28DefaultFeatureRepresentationINS_15FPFHSignature33EEE@Base 1.6
 _ZTSN3pcl28DefaultFeatureRepresentationINS_15PFHSignature125EEE@Base 1.6
 _ZTSN3pcl28DefaultFeatureRepresentationINS_15VFHSignature308EEE@Base 1.6
 _ZTSN3pcl28DefaultFeatureRepresentationINS_18PFHRGBSignature250EEE@Base 1.6
 _ZTSN3pcl28DefaultFeatureRepresentationINS_22NormalBasedSignature12EEE@Base 1.6
 _ZTSN3pcl7PCLBaseINS_12PPFSignatureEEE@Base 1.6
 _ZTSN3pcl7PCLBaseINS_15ESFSignature640EEE@Base 1.6
 _ZTSN3pcl7PCLBaseINS_15FPFHSignature33EEE@Base 1.6
 _ZTSN3pcl7PCLBaseINS_15PFHSignature125EEE@Base 1.6
 _ZTSN3pcl7PCLBaseINS_15PPFRGBSignatureEEE@Base 1.6
 _ZTSN3pcl7PCLBaseINS_15VFHSignature308EEE@Base 1.6
 _ZTSN3pcl7PCLBaseINS_18PFHRGBSignature250EEE@Base 1.6
 _ZTSN3pcl7PCLBaseINS_22NormalBasedSignature12EEE@Base 1.6
 _ZTSN3pcl7PCLBaseINS_6Narf36EEE@Base 1.6
 _ZTSN5boost6detail15sp_counted_baseE@Base 1.6
 _ZTSN5boost6detail17sp_counted_impl_pIN3pcl26DefaultPointRepresentationINS2_12PPFSignatureEEEEE@Base 1.6
 _ZTSN5boost6detail17sp_counted_impl_pIN3pcl26DefaultPointRepresentationINS2_15ESFSignature640EEEEE@Base 1.6
 _ZTSN5boost6detail17sp_counted_impl_pIN3pcl26DefaultPointRepresentationINS2_15FPFHSignature33EEEEE@Base 1.6
 _ZTSN5boost6detail17sp_counted_impl_pIN3pcl26DefaultPointRepresentationINS2_15PFHSignature125EEEEE@Base 1.6
 _ZTSN5boost6detail17sp_counted_impl_pIN3pcl26DefaultPointRepresentationINS2_15PPFRGBSignatureEEEEE@Base 1.6
 _ZTSN5boost6detail17sp_counted_impl_pIN3pcl26DefaultPointRepresentationINS2_15VFHSignature308EEEEE@Base 1.6
 _ZTSN5boost6detail17sp_counted_impl_pIN3pcl26DefaultPointRepresentationINS2_18PFHRGBSignature250EEEEE@Base 1.6
 _ZTSN5boost6detail17sp_counted_impl_pIN3pcl26DefaultPointRepresentationINS2_22NormalBasedSignature12EEEEE@Base 1.6
 _ZTSN5boost6detail17sp_counted_impl_pIN3pcl26DefaultPointRepresentationINS2_6Narf36EEEEE@Base 1.6
 _ZTSN5boost6detail17sp_counted_impl_pISt6vectorIiSaIiEEEE@Base 1.6
 _ZTSN5flann12KNNResultSetIfEE@Base 1.6
 _ZTSN5flann13KNNResultSet2IfEE@Base 1.6
 _ZTSN5flann15UniqueResultSetIfEE@Base 1.6
 _ZTSN5flann18KNNSimpleResultSetIfEE@Base 1.6
 _ZTSN5flann18KNNUniqueResultSetIfEE@Base 1.6
 _ZTSN5flann9ResultSetIfEE@Base 1.6
 _ZTVN3pcl12registration22CorrespondenceRejectorE@Base 1.6
 _ZTVN3pcl12registration30CorrespondenceRejectorFeaturesE@Base 1.6
 _ZTVN3pcl14CorrespondenceE@Base 1.6
 _ZTVN3pcl19PointRepresentationINS_12PPFSignatureEEE@Base 1.6
 _ZTVN3pcl19PointRepresentationINS_15ESFSignature640EEE@Base 1.6
 _ZTVN3pcl19PointRepresentationINS_15FPFHSignature33EEE@Base 1.6
 _ZTVN3pcl19PointRepresentationINS_15PFHSignature125EEE@Base 1.6
 _ZTVN3pcl19PointRepresentationINS_15PPFRGBSignatureEEE@Base 1.6
 _ZTVN3pcl19PointRepresentationINS_15VFHSignature308EEE@Base 1.6
 _ZTVN3pcl19PointRepresentationINS_18PFHRGBSignature250EEE@Base 1.6
 _ZTVN3pcl19PointRepresentationINS_22NormalBasedSignature12EEE@Base 1.6
 _ZTVN3pcl19PointRepresentationINS_6Narf36EEE@Base 1.6
 _ZTVN3pcl23PyramidFeatureHistogramINS_12PPFSignatureEEE@Base 1.6
 _ZTVN3pcl23PyramidFeatureHistogramINS_15ESFSignature640EEE@Base 1.6
 _ZTVN3pcl23PyramidFeatureHistogramINS_15FPFHSignature33EEE@Base 1.6
 _ZTVN3pcl23PyramidFeatureHistogramINS_15PFHSignature125EEE@Base 1.6
 _ZTVN3pcl23PyramidFeatureHistogramINS_15PPFRGBSignatureEEE@Base 1.6
 _ZTVN3pcl23PyramidFeatureHistogramINS_15VFHSignature308EEE@Base 1.6
 _ZTVN3pcl23PyramidFeatureHistogramINS_18PFHRGBSignature250EEE@Base 1.6
 _ZTVN3pcl23PyramidFeatureHistogramINS_22NormalBasedSignature12EEE@Base 1.6
 _ZTVN3pcl23PyramidFeatureHistogramINS_6Narf36EEE@Base 1.6
 _ZTVN3pcl26DefaultPointRepresentationINS_12PPFSignatureEEE@Base 1.6
 _ZTVN3pcl26DefaultPointRepresentationINS_15ESFSignature640EEE@Base 1.6
 _ZTVN3pcl26DefaultPointRepresentationINS_15FPFHSignature33EEE@Base 1.6
 _ZTVN3pcl26DefaultPointRepresentationINS_15PFHSignature125EEE@Base 1.6
 _ZTVN3pcl26DefaultPointRepresentationINS_15PPFRGBSignatureEEE@Base 1.6
 _ZTVN3pcl26DefaultPointRepresentationINS_15VFHSignature308EEE@Base 1.6
 _ZTVN3pcl26DefaultPointRepresentationINS_18PFHRGBSignature250EEE@Base 1.6
 _ZTVN3pcl26DefaultPointRepresentationINS_22NormalBasedSignature12EEE@Base 1.6
 _ZTVN3pcl26DefaultPointRepresentationINS_6Narf36EEE@Base 1.6
 _ZTVN3pcl28DefaultFeatureRepresentationINS_12PPFSignatureEEE@Base 1.6
 _ZTVN3pcl28DefaultFeatureRepresentationINS_15FPFHSignature33EEE@Base 1.6
 _ZTVN3pcl28DefaultFeatureRepresentationINS_15PFHSignature125EEE@Base 1.6
 _ZTVN3pcl28DefaultFeatureRepresentationINS_15VFHSignature308EEE@Base 1.6
 _ZTVN3pcl28DefaultFeatureRepresentationINS_18PFHRGBSignature250EEE@Base 1.6
 _ZTVN3pcl28DefaultFeatureRepresentationINS_22NormalBasedSignature12EEE@Base 1.6
 _ZTVN3pcl7PCLBaseINS_12PPFSignatureEEE@Base 1.6
 _ZTVN3pcl7PCLBaseINS_15ESFSignature640EEE@Base 1.6
 _ZTVN3pcl7PCLBaseINS_15FPFHSignature33EEE@Base 1.6
 _ZTVN3pcl7PCLBaseINS_15PFHSignature125EEE@Base 1.6
 _ZTVN3pcl7PCLBaseINS_15PPFRGBSignatureEEE@Base 1.6
 _ZTVN3pcl7PCLBaseINS_15VFHSignature308EEE@Base 1.6
 _ZTVN3pcl7PCLBaseINS_18PFHRGBSignature250EEE@Base 1.6
 _ZTVN3pcl7PCLBaseINS_22NormalBasedSignature12EEE@Base 1.6
 _ZTVN3pcl7PCLBaseINS_6Narf36EEE@Base 1.6
 _ZTVN5boost6detail15sp_counted_baseE@Base 1.6
 _ZTVN5boost6detail17sp_counted_impl_pIN3pcl26DefaultPointRepresentationINS2_12PPFSignatureEEEEE@Base 1.6
 _ZTVN5boost6detail17sp_counted_impl_pIN3pcl26DefaultPointRepresentationINS2_15ESFSignature640EEEEE@Base 1.6
 _ZTVN5boost6detail17sp_counted_impl_pIN3pcl26DefaultPointRepresentationINS2_15FPFHSignature33EEEEE@Base 1.6
 _ZTVN5boost6detail17sp_counted_impl_pIN3pcl26DefaultPointRepresentationINS2_15PFHSignature125EEEEE@Base 1.6
 _ZTVN5boost6detail17sp_counted_impl_pIN3pcl26DefaultPointRepresentationINS2_15PPFRGBSignatureEEEEE@Base 1.6
 _ZTVN5boost6detail17sp_counted_impl_pIN3pcl26DefaultPointRepresentationINS2_15VFHSignature308EEEEE@Base 1.6
 _ZTVN5boost6detail17sp_counted_impl_pIN3pcl26DefaultPointRepresentationINS2_18PFHRGBSignature250EEEEE@Base 1.6
 _ZTVN5boost6detail17sp_counted_impl_pIN3pcl26DefaultPointRepresentationINS2_22NormalBasedSignature12EEEEE@Base 1.6
 _ZTVN5boost6detail17sp_counted_impl_pIN3pcl26DefaultPointRepresentationINS2_6Narf36EEEEE@Base 1.6
 _ZTVN5boost6detail17sp_counted_impl_pISt6vectorIiSaIiEEEE@Base 1.6
 _ZTVN5flann12KNNResultSetIfEE@Base 1.6
 _ZTVN5flann13KNNResultSet2IfEE@Base 1.6
 _ZTVN5flann15UniqueResultSetIfEE@Base 1.6
 _ZTVN5flann18KNNSimpleResultSetIfEE@Base 1.6
 _ZTVN5flann18KNNUniqueResultSetIfEE@Base 1.6
 _ZTVN5flann9ResultSetIfEE@Base 1.6
