# SymbolsHelper-Confirmed: 1.6 amd64
libpcl_common.so.1.6 libpcl-common1.6 #MINVER#
 _Z14getFieldsSizesRKSt6vectorIN11sensor_msgs10PointFieldESaIS1_EERS_IiSaIiEE@Base 1.6
 _Z9fieldCompPKN11sensor_msgs10PointFieldES2_@Base 1.6
 _ZGVN5boost16exception_detail37exception_ptr_static_exception_objectINS0_10bad_alloc_EE1eE@Base 1.6
 _ZGVN5boost16exception_detail37exception_ptr_static_exception_objectINS0_14bad_exception_EE1eE@Base 1.6
 _ZGVZN5boost16exception_detail27get_static_exception_objectINS0_10bad_alloc_EEENS_13exception_ptrEvE2ep@Base 1.6
 _ZGVZN5boost16exception_detail27get_static_exception_objectINS0_14bad_exception_EEENS_13exception_ptrEvE2ep@Base 1.6
 _ZN11sensor_msgs10PointFieldD1Ev@Base 1.6
 _ZN11sensor_msgs10PointFieldD2Ev@Base 1.6
 (optional=templinst)_ZN3pcl10PointCloudINS_14PointWithRangeEEC1ERKS2_@Base 1.6
 (optional=templinst)_ZN3pcl10PointCloudINS_14PointWithRangeEEC2ERKS2_@Base 1.6
 (optional=templinst)_ZN3pcl10PointCloudINS_14PointWithRangeEED0Ev@Base 1.6
 (optional=templinst)_ZN3pcl10PointCloudINS_14PointWithRangeEED1Ev@Base 1.6
 (optional=templinst)_ZN3pcl10PointCloudINS_14PointWithRangeEED2Ev@Base 1.6
 (optional=templinst)_ZN3pcl10PointCloudINS_14PointWithRangeEEaSERKS2_@Base 1.6
 (optional=templinst)_ZN3pcl10PointCloudIfED0Ev@Base 1.6
 (optional=templinst)_ZN3pcl10PointCloudIfED1Ev@Base 1.6
 (optional=templinst)_ZN3pcl10PointCloudIfED2Ev@Base 1.6
 _ZN3pcl10RangeImage11atan2LookUpEff@Base 1.6
 _ZN3pcl10RangeImage11createEmptyEfRKN5Eigen9TransformIfLi3ELi2ELi0EEENS0_15CoordinateFrameEff@Base 1.6
 _ZN3pcl10RangeImage11createEmptyEffRKN5Eigen9TransformIfLi3ELi2ELi0EEENS0_15CoordinateFrameEff@Base 1.6
 _ZN3pcl10RangeImage16cos_lookup_tableE@Base 1.6
 _ZN3pcl10RangeImage16extractFarRangesERKN11sensor_msgs11PointCloud2ERNS_10PointCloudINS_18PointWithViewpointEEE@Base 1.6
 _ZN3pcl10RangeImage17asin_lookup_tableE@Base 1.6
 _ZN3pcl10RangeImage17atan_lookup_tableE@Base 1.6
 _ZN3pcl10RangeImage17lookup_table_sizeE@Base 1.6
 _ZN3pcl10RangeImage17max_no_of_threadsE@Base 1.6
 _ZN3pcl10RangeImage18createLookupTablesEv@Base 1.6
 _ZN3pcl10RangeImage18integrateFarRangesERKNS_10PointCloudINS_18PointWithViewpointEEE@Base 1.6
 _ZN3pcl10RangeImage19setUnseenToMaxRangeEv@Base 1.6
 _ZN3pcl10RangeImage27recalculate3DPointPositionsEv@Base 1.6
 _ZN3pcl10RangeImage32getCoordinateFrameTransformationENS0_15CoordinateFrameERN5Eigen9TransformIfLi3ELi2ELi0EEE@Base 1.6
 _ZN3pcl10RangeImage36change3dPointsToLocalCoordinateFrameEv@Base 1.6
 _ZN3pcl10RangeImage5debugE@Base 1.6
 _ZN3pcl10RangeImage5resetEv@Base 1.6
 _ZN3pcl10RangeImage9cropImageEiiiii@Base 1.6
 _ZN3pcl10RangeImageC1ERKS0_@Base 1.6
 _ZN3pcl10RangeImageC1Ev@Base 1.6
 _ZN3pcl10RangeImageC2ERKS0_@Base 1.6
 _ZN3pcl10RangeImageC2Ev@Base 1.6
 _ZN3pcl10RangeImageD0Ev@Base 1.6
 _ZN3pcl10RangeImageD1Ev@Base 1.6
 _ZN3pcl10RangeImageD2Ev@Base 1.6
 _ZN3pcl10RangeImageaSERKS0_@Base 1.6
 _ZN3pcl11TimeTrigger11setIntervalEd@Base 1.6
 _ZN3pcl11TimeTrigger15thread_functionEv@Base 1.6
 _ZN3pcl11TimeTrigger16registerCallbackERKN5boost8functionIFvvEEE@Base 1.6
 _ZN3pcl11TimeTrigger4stopEv@Base 1.6
 _ZN3pcl11TimeTrigger5startEv@Base 1.6
 _ZN3pcl11TimeTriggerC1Ed@Base 1.6
 _ZN3pcl11TimeTriggerC1EdRKN5boost8functionIFvvEEE@Base 1.6
 _ZN3pcl11TimeTriggerC2Ed@Base 1.6
 _ZN3pcl11TimeTriggerC2EdRKN5boost8functionIFvvEEE@Base 1.6
 _ZN3pcl11TimeTriggerD1Ev@Base 1.6
 _ZN3pcl11TimeTriggerD2Ev@Base 1.6
 _ZN3pcl12PCLExceptionC1ERKSsS2_S2_j@Base 1.6
 _ZN3pcl12PCLExceptionC2ERKSsS2_S2_j@Base 1.6
 _ZN3pcl12PCLExceptionD0Ev@Base 1.6
 _ZN3pcl12PCLExceptionD1Ev@Base 1.6
 _ZN3pcl12PCLExceptionD2Ev@Base 1.6
 (optional=templinst)_ZN3pcl12computeRootsIN5Eigen6MatrixIfLi3ELi3ELi0ELi3ELi3EEENS2_IfLi3ELi1ELi0ELi3ELi1EEEEEvRKT_RT0_@Base 1.6
 (optional=templinst)_ZN3pcl13VectorAverageIfLi3EE5resetEv@Base 1.6
 (optional=templinst)_ZN3pcl13VectorAverageIfLi3EEC1Ev@Base 1.6
 (optional=templinst)_ZN3pcl13VectorAverageIfLi3EEC2Ev@Base 1.6
 (optional=templinst)_ZN3pcl13computeRoots2IfN5Eigen6MatrixIfLi3ELi1ELi0ELi3ELi1EEEEEvRKT_S6_RT0_@Base 1.6
 _ZN3pcl13getMeanStdDevERKSt6vectorIfSaIfEERdS5_@Base 1.6
 _ZN3pcl14copyPointCloudERKN11sensor_msgs11PointCloud2ERKSt6vectorIiSaIiEERS1_@Base 1.6
 _ZN3pcl14copyPointCloudERKN11sensor_msgs11PointCloud2ERS1_@Base 1.6
 _ZN3pcl16PosesFromMatches12PoseEstimateD1Ev@Base 1.6
 _ZN3pcl16PosesFromMatches12PoseEstimateD2Ev@Base 1.6
 _ZN3pcl16PosesFromMatchesC1Ev@Base 1.6
 _ZN3pcl16PosesFromMatchesC2Ev@Base 1.6
 _ZN3pcl16PosesFromMatchesD1Ev@Base 1.6
 _ZN3pcl16PosesFromMatchesD2Ev@Base 1.6
 _ZN3pcl16RangeImagePlanar13setDepthImageEPKfiifffff@Base 1.6
 _ZN3pcl16RangeImagePlanar13setDepthImageEPKtiifffff@Base 1.6
 _ZN3pcl16RangeImagePlanar17setDisparityImageEPKfiifff@Base 1.6
 _ZN3pcl16RangeImagePlanarC1Ev@Base 1.6
 _ZN3pcl16RangeImagePlanarC2Ev@Base 1.6
 _ZN3pcl16RangeImagePlanarD0Ev@Base 1.6
 _ZN3pcl16RangeImagePlanarD1Ev@Base 1.6
 _ZN3pcl16RangeImagePlanarD2Ev@Base 1.6
 _ZN3pcl17concatenateFieldsERKN11sensor_msgs11PointCloud2ES3_RS1_@Base 1.6
 _ZN3pcl17lineToLineSegmentERKN5Eigen6MatrixIfLin1ELi1ELi0ELin1ELi1EEES4_RNS1_IfLi4ELi1ELi0ELi4ELi1EEES6_@Base 1.6
 _ZN3pcl20getEigenAsPointCloudERN5Eigen6MatrixIfLin1ELin1ELi0ELin1ELin1EEERN11sensor_msgs11PointCloud2E@Base 1.6
 _ZN3pcl20getPointCloudAsEigenERKN11sensor_msgs11PointCloud2ERN5Eigen6MatrixIfLin1ELin1ELi0ELin1ELin1EEE@Base 1.6
 _ZN3pcl21concatenatePointCloudERKN11sensor_msgs11PointCloud2ES3_RS1_@Base 1.6
 _ZN3pcl23getRejectedQueryIndicesERKSt6vectorINS_14CorrespondenceEN5Eigen17aligned_allocatorIS1_EEES7_RS0_IiSaIiEEb@Base 1.6
 _ZN3pcl24lineWithLineIntersectionERKN5Eigen6MatrixIfLin1ELi1ELi0ELin1ELi1EEES4_RNS1_IfLi4ELi1ELi0ELi4ELi1EEEd@Base 1.6
 _ZN3pcl24lineWithLineIntersectionERKNS_17ModelCoefficientsES2_RN5Eigen6MatrixIfLi4ELi1ELi0ELi4ELi1EEEd@Base 1.6
 _ZN3pcl25getTransFromUnitVectorsZYERKN5Eigen6MatrixIfLi3ELi1ELi0ELi3ELi1EEES4_RNS0_9TransformIfLi3ELi2ELi0EEE@Base 1.6
 _ZN3pcl26planeWithPlaneIntersectionERKN5Eigen6MatrixIfLi4ELi1ELi0ELi4ELi1EEES4_RNS1_IfLin1ELi1ELi0ELin1ELi1EEEd@Base 1.6
 _ZN3pcl28KernelWidthTooSmallExceptionD0Ev@Base 1.6
 _ZN3pcl28KernelWidthTooSmallExceptionD1Ev@Base 1.6
 _ZN3pcl28KernelWidthTooSmallExceptionD2Ev@Base 1.6
 (optional=templinst)_ZN3pcl7PCLBaseIN11sensor_msgs11PointCloud2EE11initComputeEv@Base 1.6
 (optional=templinst)_ZN3pcl7PCLBaseIN11sensor_msgs11PointCloud2EE13deinitComputeEv@Base 1.6
 (optional=templinst)_ZN3pcl7PCLBaseIN11sensor_msgs11PointCloud2EE13setInputCloudERKN5boost10shared_ptrIKS2_EE@Base 1.6
 _ZN3pcl7console10print_infoEP8_IO_FILEPKcz@Base 1.6
 _ZN3pcl7console10print_infoEPKcz@Base 1.6
 _ZN3pcl7console10print_warnEP8_IO_FILEPKcz@Base 1.6
 _ZN3pcl7console10print_warnEPKcz@Base 1.6
 _ZN3pcl7console11find_switchEiPPcPKc@Base 1.6
 _ZN3pcl7console11print_colorEP8_IO_FILEiiPKcz@Base 1.6
 _ZN3pcl7console11print_debugEP8_IO_FILEPKcz@Base 1.6
 _ZN3pcl7console11print_debugEPKcz@Base 1.6
 _ZN3pcl7console11print_errorEP8_IO_FILEPKcz@Base 1.6
 _ZN3pcl7console11print_errorEPKcz@Base 1.6
 _ZN3pcl7console11print_valueEP8_IO_FILEPKcz@Base 1.6
 _ZN3pcl7console11print_valueEPKcz@Base 1.6
 _ZN3pcl7console13find_argumentEiPPcPKc@Base 1.6
 _ZN3pcl7console14parse_argumentEiPPcPKcRSs@Base 1.6
 _ZN3pcl7console14parse_argumentEiPPcPKcRb@Base 1.6
 _ZN3pcl7console14parse_argumentEiPPcPKcRc@Base 1.6
 _ZN3pcl7console14parse_argumentEiPPcPKcRd@Base 1.6
 _ZN3pcl7console14parse_argumentEiPPcPKcRf@Base 1.6
 _ZN3pcl7console14parse_argumentEiPPcPKcRi@Base 1.6
 _ZN3pcl7console14parse_argumentEiPPcPKcRj@Base 1.6
 _ZN3pcl7console15print_highlightEP8_IO_FILEPKcz@Base 1.6
 _ZN3pcl7console15print_highlightEPKcz@Base 1.6
 _ZN3pcl7console16reset_text_colorEP8_IO_FILE@Base 1.6
 _ZN3pcl7console17change_text_colorEP8_IO_FILEii@Base 1.6
 _ZN3pcl7console17change_text_colorEP8_IO_FILEiii@Base 1.6
 _ZN3pcl7console17getVerbosityLevelEv@Base 1.6
 _ZN3pcl7console17parse_x_argumentsEiPPcPKcRSt6vectorIdSaIdEE@Base 1.6
 _ZN3pcl7console17parse_x_argumentsEiPPcPKcRSt6vectorIfSaIfEE@Base 1.6
 _ZN3pcl7console17parse_x_argumentsEiPPcPKcRSt6vectorIiSaIiEE@Base 1.6
 _ZN3pcl7console17setVerbosityLevelENS0_15VERBOSITY_LEVELE@Base 1.6
 _ZN3pcl7console18initVerbosityLevelEv@Base 1.6
 _ZN3pcl7console18parse_2x_argumentsEiPPcPKcRdS5_b@Base 1.6
 _ZN3pcl7console18parse_2x_argumentsEiPPcPKcRfS5_b@Base 1.6
 _ZN3pcl7console18parse_2x_argumentsEiPPcPKcRiS5_b@Base 1.6
 _ZN3pcl7console18parse_3x_argumentsEiPPcPKcRdS5_S5_b@Base 1.6
 _ZN3pcl7console18parse_3x_argumentsEiPPcPKcRfS5_S5_b@Base 1.6
 _ZN3pcl7console18parse_3x_argumentsEiPPcPKcRiS5_S5_b@Base 1.6
 _ZN3pcl7console23isVerbosityLevelEnabledENS0_15VERBOSITY_LEVELE@Base 1.6
 _ZN3pcl7console24parse_multiple_argumentsEiPPcPKcRSt6vectorISsSaISsEE@Base 1.6
 _ZN3pcl7console24parse_multiple_argumentsEiPPcPKcRSt6vectorIdSaIdEE@Base 1.6
 _ZN3pcl7console24parse_multiple_argumentsEiPPcPKcRSt6vectorIfSaIfEE@Base 1.6
 _ZN3pcl7console24parse_multiple_argumentsEiPPcPKcRSt6vectorIiSaIiEE@Base 1.6
 _ZN3pcl7console27parse_multiple_2x_argumentsEiPPcPKcRSt6vectorIdSaIdEES8_@Base 1.6
 _ZN3pcl7console27parse_multiple_3x_argumentsEiPPcPKcRSt6vectorIdSaIdEES8_S8_@Base 1.6
 _ZN3pcl7console29parse_file_extension_argumentEiPPcRKSs@Base 1.6
 _ZN3pcl7console5printENS0_15VERBOSITY_LEVELEP8_IO_FILEPKcz@Base 1.6
 _ZN3pcl7console5printENS0_15VERBOSITY_LEVELEPKcz@Base 1.6
 (optional=templinst)_ZN3pcl7eigen33IN5Eigen6MatrixIfLi3ELi3ELi0ELi3ELi3EEENS2_IfLi3ELi1ELi0ELi3ELi1EEEEEvRKT_RS5_RT0_@Base 1.6
 _ZN3pcl9ScopeTimeD0Ev@Base 1.6
 _ZN3pcl9ScopeTimeD1Ev@Base 1.6
 _ZN3pcl9ScopeTimeD2Ev@Base 1.6
 _ZN3pcl9StopWatchD0Ev@Base 1.6
 _ZN3pcl9StopWatchD1Ev@Base 1.6
 _ZN3pcl9StopWatchD2Ev@Base 1.6
 _ZN3pcl9getMinMaxERKN11sensor_msgs11PointCloud2EiRKSsRfS6_@Base 1.6
 (optional=templinst)_ZN5Eigen10MatrixBaseINS_5BlockINS_6MatrixIfLi3ELi3ELi0ELi3ELi3EEELi3ELi1ELb1ELb1EEEEaSINS_12CwiseUnaryOpINS_8internal19scalar_quotient1_opIfEEKNS2_IfLi3ELi1ELi0ELi3ELi1EEEEEEERS4_RKNS_9DenseBaseIT_EE@Base 1.6
 (optional=templinst)_ZN5Eigen10MatrixBaseINS_5BlockINS_6MatrixIfLi4ELi4ELi0ELi4ELi4EEELi3ELi3ELb0ELb1EEEEaSINS_9TransposeIKNS1_IKS3_Li3ELi3ELb0ELb1EEEEEEERS4_RKNS_9DenseBaseIT_EE@Base 1.6
 (optional=templinst)_ZN5Eigen10MatrixBaseINS_5BlockINS_6MatrixIfLin1ELi1ELi0ELin1ELi1EEELin1ELi1ELb0ELb1EEEE25applyHouseholderOnTheLeftINS1_IKNS2_IfLin1ELin1ELi0ELin1ELin1EEELin1ELi1ELb0ELb1EEEEEvRKT_RKfPf@Base 1.6
 (optional=templinst)_ZN5Eigen10MatrixBaseINS_5BlockINS_6MatrixIfLin1ELin1ELi0ELin1ELin1EEELin1ELin1ELb0ELb1EEEE25applyHouseholderOnTheLeftINS_11VectorBlockINS1_IS3_Lin1ELi1ELb1ELb1EEELin1EEEEEvRKT_RKfPf@Base 1.6
 (optional=templinst)_ZN5Eigen10MatrixBaseINS_6MatrixIfLi3ELi1ELi0ELi3ELi1EEEE9normalizeEv@Base 1.6
 (optional=templinst)_ZN5Eigen15PlainObjectBaseINS_6MatrixIfLi2ELi1ELi0ELi2ELi1EEEE12_set_noaliasINS_13CwiseBinaryOpINS_8internal20scalar_difference_opIfEEKS2_S9_EEEERS2_RKNS_9DenseBaseIT_EE@Base 1.6
 (optional=templinst)_ZN5Eigen15PlainObjectBaseINS_6MatrixIfLi3ELi1ELi0ELi3ELi1EEEE12_set_noaliasINS1_IfLi1ELi3ELi1ELi1ELi3EEEEERS2_RKNS_9DenseBaseIT_EE@Base 1.6
 (optional=templinst)_ZN5Eigen15PlainObjectBaseINS_6MatrixIfLi3ELi1ELi0ELi3ELi1EEEE12_set_noaliasIS2_EERS2_RKNS_9DenseBaseIT_EE@Base 1.6
 (optional=templinst)_ZN5Eigen15PlainObjectBaseINS_6MatrixIfLi3ELi3ELi0ELi3ELi3EEEE12_set_noaliasIS2_EERS2_RKNS_9DenseBaseIT_EE@Base 1.6
 (optional=templinst)_ZN5Eigen15PlainObjectBaseINS_6MatrixIfLin1ELi1ELi0ELin1ELi1EEEED1Ev@Base 1.6
 (optional=templinst)_ZN5Eigen15PlainObjectBaseINS_6MatrixIfLin1ELi1ELi0ELin1ELi1EEEED2Ev@Base 1.6
 (optional=templinst)_ZN5Eigen15PlainObjectBaseINS_6MatrixIfLin1ELin1ELi0ELin1ELin1EEEED1Ev@Base 1.6
 (optional=templinst)_ZN5Eigen15PlainObjectBaseINS_6MatrixIfLin1ELin1ELi0ELin1ELin1EEEED2Ev@Base 1.6
 (optional=templinst)_ZN5Eigen19ColPivHouseholderQRINS_6MatrixIfLin1ELin1ELi0ELin1ELin1EEEE7computeERKS2_@Base 1.6
 (optional=templinst)_ZN5Eigen6MatrixIfLi3ELi1ELi0ELi3ELi1EEaSERKS1_@Base 1.6
 (optional=templinst)_ZN5Eigen6MatrixIfLi3ELi1ELi0ELi3ELi1EEaSINS_12CwiseUnaryOpINS_8internal18scalar_opposite_opIfEEKS1_EEEERS1_RKNS_10MatrixBaseIT_EE@Base 1.6
 (optional=templinst)_ZN5Eigen6MatrixIfLi3ELi1ELi0ELi3ELi1EEaSINS_13CwiseBinaryOpINS_8internal13scalar_sum_opIfEEKNS_12CwiseUnaryOpINS4_18scalar_multiple_opIfEEKS1_EESA_EEEERS1_RKNS_10MatrixBaseIT_EE@Base 1.6
 (optional=templinst)_ZN5Eigen6MatrixIfLi3ELi3ELi0ELi3ELi3EEaSERKS1_@Base 1.6
 (optional=templinst)_ZN5Eigen6MatrixIfLin1ELi1ELi0ELin1ELi1EED1Ev@Base 1.6
 (optional=templinst)_ZN5Eigen6MatrixIfLin1ELi1ELi0ELin1ELi1EED2Ev@Base 1.6
 (optional=templinst)_ZN5Eigen7NoAliasINS_5BlockINS_6MatrixIfLi3ELi1ELi0ELi3ELi1EEELi3ELi1ELb1ELb1EEENS_10MatrixBaseEEpLIKNS1_IKNS2_IfLi4ELi4ELi0ELi4ELi4EEELi3ELi3ELb0ELb1EEERKS3_Li6EEERS4_RKNS_17CoeffBasedProductIT_T0_XT1_EEE@Base 1.6
 (optional=templinst)_ZN5Eigen8internal13gemv_selectorILi2ELi1ELb1EE3runINS_14GeneralProductINS_9TransposeIKNS_5BlockINS6_INS_6MatrixIfLin1ELin1ELi0ELin1ELin1EEELin1ELin1ELb0ELb1EEELin1ELin1ELb0ELb1EEEEENS5_IKNS5_IKNS6_INS6_IS8_Lin1ELi1ELb1ELb1EEELin1ELi1ELb0ELb1EEEEEEELi4EEENS5_INS_3MapINS7_IfLi1ELin1ELi1ELi1ELin1EEELi0ENS_6StrideILi0ELi0EEEEEEEEEvRKT_RT0_NSQ_6ScalarE@Base 1.6
 (optional=templinst)_ZN5Eigen8internal13trmv_selectorILi0EE3runILi2EKNS_5BlockIKNS_6MatrixIfLin1ELin1ELi0ELin1ELin1EEELin1ELin1ELb0ELb1EEENS4_INS5_IfLin1ELi1ELi0ELin1ELi1EEELin1ELi1ELb0ELb1EEESA_EEvRKNS_17TriangularProductIXT_ELb1ET0_Lb0ET1_Lb1EEERT2_NSF_6ScalarE@Base 1.6
 (optional=templinst)_ZN5Eigen8internal15assign_selectorINS_5BlockINS_6MatrixIfLi4ELi4ELi0ELi4ELi4EEELi3ELi1ELb0ELb1EEENS_17CoeffBasedProductIKNS_12CwiseUnaryOpINS0_18scalar_opposite_opIfEEKNS2_IS4_Li3ELi3ELb0ELb1EEEEEKNS2_IKS4_Li3ELi1ELb0ELb1EEELi6EEELb1ELb0EE3runERS5_RKSH_@Base 1.6
 (optional=templinst)_ZN5Eigen8internal15assign_selectorINS_5BlockINS_6MatrixIfLi4ELi4ELi0ELi4ELi4EEELi3ELi3ELb0ELb1EEENS_17CoeffBasedProductIKNS2_IKS4_Li3ELi3ELb0ELb1EEES9_Li6EEELb1ELb0EE3runERS5_RKSA_@Base 1.6
 (optional=templinst)_ZN5Eigen8internal15assign_selectorINS_6MatrixIfLi3ELi3ELi0ELi3ELi3EEENS_5BlockIKNS2_IfLi4ELi4ELi0ELi4ELi4EEELi3ELi3ELb0ELb1EEELb0ELb0EE3runERS3_RKS7_@Base 1.6
 (optional=templinst)_ZN5Eigen8internal15compute_inverseINS_6MatrixIfLi3ELi3ELi0ELi3ELi3EEENS_5BlockINS2_IfLi4ELi4ELi0ELi4ELi4EEELi3ELi3ELb0ELb1EEELi3EE3runERKS3_RS6_@Base 1.6
 (optional=templinst)_ZN5Eigen8internal16setIdentity_implINS_6MatrixIfLi3ELi3ELi0ELi3ELi3EEELb0EE3runERS3_@Base 1.6
 (optional=templinst)_ZN5Eigen8internal16setIdentity_implINS_6MatrixIfLi4ELi4ELi0ELi4ELi4EEELb1EE3runERS3_@Base 1.6
 (optional=templinst)_ZN5Eigen8internal19real_2x2_jacobi_svdINS_6MatrixIfLi3ELi3ELi0ELi3ELi3EEEflEEvRKT_T1_S7_PNS_14JacobiRotationIT0_EESB_@Base 1.6
 _ZN5Eigen8internal19throw_std_bad_allocEv@Base 1.6
 (optional=templinst)_ZN5Eigen8internal22outer_product_selectorILi0EE3runINS_14GeneralProductINS_12CwiseUnaryOpINS0_18scalar_multiple_opIfEEKNS_5BlockIKNS_6MatrixIfLin1ELin1ELi0ELin1ELin1EEELin1ELi1ELb0ELb1EEEEENS_3MapINS9_IfLi1ELi1ELi1ELi1ELi1EEELi0ENS_6StrideILi0ELi0EEEEELi2EEENS8_INS8_INS9_IfLin1ELi1ELi0ELin1ELi1EEELin1ELi1ELb0ELb1EEELin1ELi1ELb0ELb1EEEEEvRKT_RT0_NSO_6ScalarE@Base 1.6
 (optional=templinst)_ZN5Eigen8internal22outer_product_selectorILi0EE3runINS_14GeneralProductINS_12CwiseUnaryOpINS0_18scalar_multiple_opIfEEKNS_5BlockINS8_INS_6MatrixIfLin1ELin1ELi0ELin1ELin1EEELin1ELi1ELb1ELb1EEELin1ELi1ELb0ELb1EEEEENS_3MapINS9_IfLi1ELin1ELi1ELi1ELin1EEELi0ENS_6StrideILi0ELi0EEEEELi2EEENS8_INS8_ISA_Lin1ELin1ELb0ELb1EEELin1ELin1ELb0ELb1EEEEEvRKT_RT0_NSN_6ScalarE@Base 1.6
 (optional=templinst)_ZN5Eigen8internal23triangular_solve_vectorIfflLi1ELi2ELb0ELi0EE3runElPKflPf@Base 1.6
 (optional=templinst)_ZN5Eigen8internal23unitOrthogonal_selectorINS_5BlockINS_6MatrixIfLi3ELi3ELi0ELi3ELi3EEELi3ELi1ELb1ELb1EEELi3EE3runERKS5_@Base 1.6
 (optional=templinst)_ZN5Eigen8internal26triangular_solver_selectorIKNS_5BlockIKNS_6MatrixIfLin1ELin1ELi0ELin1ELin1EEELin1ELin1ELb0ELb1EEENS2_INS3_IfLin1ELi1ELi0ELin1ELi1EEELin1ELi1ELb0ELb1EEELi1ELi2ELi0ELi1EE3runERS7_RS9_@Base 1.6
 (optional=templinst)_ZN5Eigen8internal27apply_rotation_in_the_planeINS_5BlockINS_6MatrixIfLi3ELi3ELi0ELi3ELi3EEELi3ELi1ELb1ELb1EEES5_fEEvRT_RT0_RKNS_14JacobiRotationIT1_EE@Base 1.6
 (optional=templinst)_ZN5Eigen8internal28aligned_stack_memory_handlerIfED1Ev@Base 1.6
 (optional=templinst)_ZN5Eigen8internal28aligned_stack_memory_handlerIfED2Ev@Base 1.6
 (optional=templinst)_ZN5Eigen8internal28compute_inverse_size3_helperINS_6MatrixIfLi3ELi3ELi0ELi3ELi3EEENS_5BlockINS2_IfLi4ELi4ELi0ELi4ELi4EEELi3ELi3ELb0ELb1EEEEEvRKT_RKNT0_6ScalarERKNS2_ISB_Li3ELi1ELi0ELi3ELi1EEERSA_@Base 1.6
 (optional=templinst)_ZN5Eigen8internal28transform_right_product_implINS_9TransformIfLi3ELi2ELi0EEENS_6MatrixIfLi3ELi1ELi0ELi3ELi1EEELi2EE3runERKS3_RKS5_@Base 1.6
 (optional=templinst)_ZN5Eigen8internal29general_matrix_vector_productIlfLi0ELb0EfLb0ELi0EE3runEllPKflS4_lPflf@Base 1.6
 (optional=templinst)_ZN5Eigen8internal29general_matrix_vector_productIlfLi0ELb0EfLb0ELi1EE3runEllPKflS4_lPflf@Base 1.6
 (optional=templinst)_ZN5Eigen8internal29general_matrix_vector_productIlfLi1ELb0EfLb0ELi0EE3runEllPKflS4_lPflf@Base 1.6
 (optional=templinst)_ZN5Eigen8internal32transform_transform_product_implINS_9TransformIfLi3ELi2ELi0EEES3_Lb0EE3runERKS3_S6_@Base 1.6
 (optional=templinst)_ZN5Eigen8internal32triangular_matrix_vector_productIlLi2EfLb0EfLb0ELi0ELi0EE3runEllPKflS4_lPflf@Base 1.6
 (optional=templinst)_ZN5Eigen8internal40assign_LinearTraversal_CompleteUnrollingINS_6MatrixIfLi3ELi1ELi0ELi3ELi1EEENS_13CwiseBinaryOpINS0_13scalar_sum_opIfEEKNS_12CwiseUnaryOpINS0_18scalar_multiple_opIfEEKS3_EESA_EELi0ELi3EE3runERS3_RKSD_@Base 1.6
 (optional=templinst)_ZN5Eigen8internal41assign_DefaultTraversal_CompleteUnrollingINS_5BlockINS_6MatrixIfLi4ELi4ELi0ELi4ELi4EEELi3ELi3ELb0ELb1EEENS_9TransposeIKNS2_IKS4_Li3ELi3ELb0ELb1EEEEELi5ELi9EE3runERS5_RKSA_@Base 1.6
 (optional=templinst)_ZN5Eigen8internal41assign_DefaultTraversal_CompleteUnrollingINS_6MatrixIfLi3ELi1ELi0ELi3ELi1EEENS_17CoeffBasedProductIKNS_12CwiseUnaryOpINS0_18scalar_opposite_opIfEEKNS_5BlockINS2_IfLi4ELi4ELi0ELi4ELi4EEELi3ELi3ELb0ELb1EEEEEKNS8_IKS9_Li3ELi1ELb0ELb1EEELi6EEELi1ELi3EE3runERS3_RKSH_@Base 1.6
 (optional=templinst)_ZN5Eigen8internal41assign_DefaultTraversal_CompleteUnrollingINS_6MatrixIfLi3ELi1ELi0ELi3ELi1EEENS_17CoeffBasedProductIKNS_5BlockIKNS2_IfLi4ELi4ELi0ELi4ELi4EEELi3ELi3ELb0ELb1EEEKNS5_IS7_Li3ELi1ELb0ELb1EEELi6EEELi1ELi3EE3runERS3_RKSC_@Base 1.6
 (optional=templinst)_ZN5Eigen8internal41assign_DefaultTraversal_CompleteUnrollingINS_6MatrixIfLi3ELi3ELi0ELi3ELi3EEENS_12CwiseUnaryOpINS0_18scalar_multiple_opIfEEKNS_13CwiseBinaryOpINS0_13scalar_sum_opIfEEKS3_KNS4_IS6_KNS_17CoeffBasedProductIRKNS2_IfLi3ELi1ELi0ELi3ELi1EEEKNS_9TransposeISC_EELi256EEEEEEEEELi1ELi9EE3runERS3_RKSO_@Base 1.6
 (optional=templinst)_ZN5Eigen8internal41assign_DefaultTraversal_CompleteUnrollingINS_6MatrixIfLi3ELi3ELi0ELi3ELi3EEENS_12CwiseUnaryOpINS0_18scalar_multiple_opIfEEKNS_13CwiseBinaryOpINS0_13scalar_sum_opIfEEKS3_KNS4_IS6_KNS_17CoeffBasedProductIRKNS2_IfLi3ELi1ELi0ELi3ELi1EEEKNS_9TransposeISC_EELi256EEEEEEEEELi5ELi9EE3runERS3_RKSO_@Base 1.6
 (optional=templinst)_ZN5Eigen8internal41assign_DefaultTraversal_CompleteUnrollingINS_6MatrixIfLi3ELi3ELi0ELi3ELi3EEENS_17CoeffBasedProductIKNS_5BlockIKNS2_IfLi4ELi4ELi0ELi4ELi4EEELi3ELi3ELb0ELb1EEES9_Li6EEELi1ELi9EE3runERS3_RKSA_@Base 1.6
 (optional=templinst)_ZN5Eigen8internal41assign_DefaultTraversal_CompleteUnrollingINS_6MatrixIfLi3ELi3ELi0ELi3ELi3EEENS_17CoeffBasedProductIKNS_5BlockIKNS2_IfLi4ELi4ELi0ELi4ELi4EEELi3ELi3ELb0ELb1EEES9_Li6EEELi3ELi9EE3runERS3_RKSA_@Base 1.6
 (optional=templinst)_ZN5Eigen8internal41assign_DefaultTraversal_CompleteUnrollingINS_6MatrixIfLi3ELi3ELi0ELi3ELi3EEENS_17CoeffBasedProductIKNS_5BlockIKNS2_IfLi4ELi4ELi0ELi4ELi4EEELi3ELi3ELb0ELb1EEES9_Li6EEELi7ELi9EE3runERS3_RKSA_@Base 1.6
 (optional=templinst)_ZN5Eigen9JacobiSVDINS_6MatrixIfLi3ELi3ELi0ELi3ELi3EEELi2EE7computeERKS2_j@Base 1.6
 (optional=templinst)_ZN5Eigen9TransformIfLi3ELi2ELi0EE10makeAffineEv@Base 1.6
 _ZN5boost10lock_errorD0Ev@Base 1.6
 _ZN5boost10lock_errorD1Ev@Base 1.6
 _ZN5boost10lock_errorD2Ev@Base 1.6
 (optional=templinst)_ZN5boost10shared_ptrIKNS_16exception_detail10clone_baseEEC1INS1_10clone_implINS1_10bad_alloc_EEEEEPT_@Base 1.6
 (optional=templinst)_ZN5boost10shared_ptrIKNS_16exception_detail10clone_baseEEC1INS1_10clone_implINS1_14bad_exception_EEEEEPT_@Base 1.6
 (optional=templinst)_ZN5boost10shared_ptrIKNS_16exception_detail10clone_baseEEC2INS1_10clone_implINS1_10bad_alloc_EEEEEPT_@Base 1.6
 (optional=templinst)_ZN5boost10shared_ptrIKNS_16exception_detail10clone_baseEEC2INS1_10clone_implINS1_14bad_exception_EEEEEPT_@Base 1.6
 (optional=templinst)_ZN5boost10shared_ptrINS_6detail16thread_data_baseEEC1INS1_11thread_dataINS_3_bi6bind_tIvNS_4_mfi3mf0IvN3pcl11TimeTriggerEEENS6_5list1INS6_5valueIPSB_EEEEEEEEEEPT_@Base 1.6
 (optional=templinst)_ZN5boost10shared_ptrINS_6detail16thread_data_baseEEC2INS1_11thread_dataINS_3_bi6bind_tIvNS_4_mfi3mf0IvN3pcl11TimeTriggerEEENS6_5list1INS6_5valueIPSB_EEEEEEEEEEPT_@Base 1.6
 (optional=templinst)_ZN5boost10shared_ptrINS_6detail16thread_data_baseEED1Ev@Base 1.6
 (optional=templinst)_ZN5boost10shared_ptrINS_6detail16thread_data_baseEED2Ev@Base 1.6
 (optional=templinst)_ZN5boost10shared_ptrINS_6detail16thread_data_baseEEaSERKS3_@Base 1.6
 (optional=templinst)_ZN5boost10shared_ptrINS_8signals26detail12grouped_listIiSt4lessIiENS0_INS2_15connection_bodyISt4pairINS2_15slot_meta_groupENS_8optionalIiEEENS1_5slot0IvNS_8functionIFvvEEEEENS1_5mutexEEEEEEEED1Ev@Base 1.6
 (optional=templinst)_ZN5boost10shared_ptrINS_8signals26detail12grouped_listIiSt4lessIiENS0_INS2_15connection_bodyISt4pairINS2_15slot_meta_groupENS_8optionalIiEEENS1_5slot0IvNS_8functionIFvvEEEEENS1_5mutexEEEEEEEED2Ev@Base 1.6
 (optional=templinst)_ZN5boost10shared_ptrINS_8signals26detail12signal0_implIvNS1_19optional_last_valueIvEEiSt4lessIiENS_8functionIFvvEEENS8_IFvRKNS1_10connectionEEEENS1_5mutexEE16invocation_stateEE5resetISI_EEvPT_@Base 1.6
 (optional=templinst)_ZN5boost10shared_ptrINS_8signals26detail12signal0_implIvNS1_19optional_last_valueIvEEiSt4lessIiENS_8functionIFvvEEENS8_IFvRKNS1_10connectionEEEENS1_5mutexEE16invocation_stateEED1Ev@Base 1.6
 (optional=templinst)_ZN5boost10shared_ptrINS_8signals26detail12signal0_implIvNS1_19optional_last_valueIvEEiSt4lessIiENS_8functionIFvvEEENS8_IFvRKNS1_10connectionEEEENS1_5mutexEE16invocation_stateEED2Ev@Base 1.6
 (optional=templinst)_ZN5boost10shared_ptrINS_8signals26detail12signal0_implIvNS1_19optional_last_valueIvEEiSt4lessIiENS_8functionIFvvEEENS8_IFvRKNS1_10connectionEEEENS1_5mutexEE16invocation_stateEEaSERKSJ_@Base 1.6
 (optional=templinst)_ZN5boost10shared_ptrINS_8signals26detail12signal0_implIvNS1_19optional_last_valueIvEEiSt4lessIiENS_8functionIFvvEEENS8_IFvRKNS1_10connectionEEEENS1_5mutexEEEED1Ev@Base 1.6
 (optional=templinst)_ZN5boost10shared_ptrINS_8signals26detail12signal0_implIvNS1_19optional_last_valueIvEEiSt4lessIiENS_8functionIFvvEEENS8_IFvRKNS1_10connectionEEEENS1_5mutexEEEED2Ev@Base 1.6
 (optional=templinst)_ZN5boost10shared_ptrISt6vectorIN3pcl6detail12FieldMappingESaIS4_EEED1Ev@Base 1.6
 (optional=templinst)_ZN5boost10shared_ptrISt6vectorIN3pcl6detail12FieldMappingESaIS4_EEED2Ev@Base 1.6
 (optional=templinst)_ZN5boost11multi_index6detail14make_obj_guardINS_8signals26detail11auto_bufferINS_7variantINS_10shared_ptrIvEENS4_23foreign_void_shared_ptrENS_6detail7variant5void_ESC_SC_SC_SC_SC_SC_SC_SC_SC_SC_SC_SC_SC_SC_SC_SC_SC_EENS4_15store_n_objectsILj10EEENS4_19default_grow_policyESaISD_EEEMSI_FvPSD_mESJ_mEENS1_21obj_scope_guard_impl2IT_T0_T1_T2_EERSN_SO_SP_SQ_@Base 1.6
 (optional=templinst)_ZN5boost11multi_index6detail21obj_scope_guard_impl2INS_8signals26detail11auto_bufferINS_7variantINS_10shared_ptrIvEENS4_23foreign_void_shared_ptrENS_6detail7variant5void_ESC_SC_SC_SC_SC_SC_SC_SC_SC_SC_SC_SC_SC_SC_SC_SC_SC_EENS4_15store_n_objectsILj10EEENS4_19default_grow_policyESaISD_EEEMSI_FvPSD_mESJ_mE7executeEv@Base 1.6
 (optional=templinst)_ZN5boost11multi_index6detail21scope_guard_impl_base12safe_executeINS1_21obj_scope_guard_impl2INS_8signals26detail11auto_bufferINS_7variantINS_10shared_ptrIvEENS6_23foreign_void_shared_ptrENS_6detail7variant5void_ESE_SE_SE_SE_SE_SE_SE_SE_SE_SE_SE_SE_SE_SE_SE_SE_SE_EENS6_15store_n_objectsILj10EEENS6_19default_grow_policyESaISF_EEEMSK_FvPSF_mESL_mEEEEvRT_@Base 1.6
 (optional=templinst)_ZN5boost11unique_lockINS_5mutexEE4lockEv@Base 1.6
 (optional=templinst)_ZN5boost11unique_lockINS_5mutexEE6unlockEv@Base 1.6
 (optional=templinst)_ZN5boost11unique_lockINS_5mutexEED1Ev@Base 1.6
 (optional=templinst)_ZN5boost11unique_lockINS_5mutexEED2Ev@Base 1.6
 _ZN5boost13exception_ptrD1Ev@Base 1.6
 _ZN5boost13exception_ptrD2Ev@Base 1.6
 (optional=templinst)_ZN5boost14checked_deleteINS_8signals26detail12grouped_listIiSt4lessIiENS_10shared_ptrINS2_15connection_bodyISt4pairINS2_15slot_meta_groupENS_8optionalIiEEENS1_5slot0IvNS_8functionIFvvEEEEENS1_5mutexEEEEEEEEEvPT_@Base 1.6
 (optional=templinst)_ZN5boost14checked_deleteINS_8signals26detail12signal0_implIvNS1_19optional_last_valueIvEEiSt4lessIiENS_8functionIFvvEEENS8_IFvRKNS1_10connectionEEEENS1_5mutexEE16invocation_stateEEEvPT_@Base 1.6
 (optional=templinst)_ZN5boost14checked_deleteINS_8signals26detail12signal0_implIvNS1_19optional_last_valueIvEEiSt4lessIiENS_8functionIFvvEEENS8_IFvRKNS1_10connectionEEEENS1_5mutexEEEEEvPT_@Base 1.6
 (optional=templinst)_ZN5boost14checked_deleteISt6vectorIiSaIiEEEEvPT_@Base 1.6
 _ZN5boost15condition_errorD0Ev@Base 1.6
 _ZN5boost15condition_errorD1Ev@Base 1.6
 _ZN5boost15condition_errorD2Ev@Base 1.6
 (optional=templinst)_ZN5boost15throw_exceptionINS_10lock_errorEEEvRKT_@Base 1.6
 (optional=templinst)_ZN5boost15throw_exceptionINS_17bad_function_callEEEvRKT_@Base 1.6
 (optional=templinst)_ZN5boost15throw_exceptionINS_21thread_resource_errorEEEvRKT_@Base 1.6
 (optional=templinst)_ZN5boost15throw_exceptionINS_9gregorian16bad_day_of_monthEEEvRKT_@Base 1.6
 (optional=templinst)_ZN5boost15throw_exceptionINS_9gregorian8bad_yearEEEvRKT_@Base 1.6
 (optional=templinst)_ZN5boost15throw_exceptionINS_9gregorian9bad_monthEEEvRKT_@Base 1.6
 (optional=templinst)_ZN5boost15throw_exceptionISt13runtime_errorEEvRKT_@Base 1.6
 _ZN5boost16exception_detail10bad_alloc_C1ERKS1_@Base 1.6
 _ZN5boost16exception_detail10bad_alloc_C2ERKS1_@Base 1.6
 _ZN5boost16exception_detail10bad_alloc_D0Ev@Base 1.6
 _ZN5boost16exception_detail10bad_alloc_D1Ev@Base 1.6
 _ZN5boost16exception_detail10bad_alloc_D2Ev@Base 1.6
 _ZN5boost16exception_detail10clone_baseD0Ev@Base 1.6
 _ZN5boost16exception_detail10clone_baseD1Ev@Base 1.6
 _ZN5boost16exception_detail10clone_baseD2Ev@Base 1.6
 (optional=templinst)_ZN5boost16exception_detail10clone_implINS0_10bad_alloc_EEC1ERKS2_@Base 1.6
 (optional=templinst)_ZN5boost16exception_detail10clone_implINS0_10bad_alloc_EEC1ERKS3_@Base 1.6
 (optional=templinst)_ZN5boost16exception_detail10clone_implINS0_10bad_alloc_EEC2ERKS2_@Base 1.6
 (optional=templinst)_ZN5boost16exception_detail10clone_implINS0_10bad_alloc_EEC2ERKS3_@Base 1.6
 (optional=templinst)_ZN5boost16exception_detail10clone_implINS0_10bad_alloc_EED0Ev@Base 1.6
 (optional=templinst)_ZN5boost16exception_detail10clone_implINS0_10bad_alloc_EED1Ev@Base 1.6
 (optional=templinst)_ZN5boost16exception_detail10clone_implINS0_10bad_alloc_EED2Ev@Base 1.6
 (optional=templinst)_ZN5boost16exception_detail10clone_implINS0_14bad_exception_EEC1ERKS2_@Base 1.6
 (optional=templinst)_ZN5boost16exception_detail10clone_implINS0_14bad_exception_EEC1ERKS3_@Base 1.6
 (optional=templinst)_ZN5boost16exception_detail10clone_implINS0_14bad_exception_EEC2ERKS2_@Base 1.6
 (optional=templinst)_ZN5boost16exception_detail10clone_implINS0_14bad_exception_EEC2ERKS3_@Base 1.6
 (optional=templinst)_ZN5boost16exception_detail10clone_implINS0_14bad_exception_EED0Ev@Base 1.6
 (optional=templinst)_ZN5boost16exception_detail10clone_implINS0_14bad_exception_EED1Ev@Base 1.6
 (optional=templinst)_ZN5boost16exception_detail10clone_implINS0_14bad_exception_EED2Ev@Base 1.6
 (optional=templinst)_ZN5boost16exception_detail10clone_implINS0_19error_info_injectorINS_10lock_errorEEEEC1ERKS4_@Base 1.6
 (optional=templinst)_ZN5boost16exception_detail10clone_implINS0_19error_info_injectorINS_10lock_errorEEEEC2ERKS4_@Base 1.6
 (optional=templinst)_ZN5boost16exception_detail10clone_implINS0_19error_info_injectorINS_10lock_errorEEEED0Ev@Base 1.6
 (optional=templinst)_ZN5boost16exception_detail10clone_implINS0_19error_info_injectorINS_10lock_errorEEEED1Ev@Base 1.6
 (optional=templinst)_ZN5boost16exception_detail10clone_implINS0_19error_info_injectorINS_10lock_errorEEEED2Ev@Base 1.6
 (optional=templinst)_ZN5boost16exception_detail10clone_implINS0_19error_info_injectorINS_15condition_errorEEEEC1ERKS4_@Base 1.6
 (optional=templinst)_ZN5boost16exception_detail10clone_implINS0_19error_info_injectorINS_15condition_errorEEEEC2ERKS4_@Base 1.6
 (optional=templinst)_ZN5boost16exception_detail10clone_implINS0_19error_info_injectorINS_15condition_errorEEEED0Ev@Base 1.6
 (optional=templinst)_ZN5boost16exception_detail10clone_implINS0_19error_info_injectorINS_15condition_errorEEEED1Ev@Base 1.6
 (optional=templinst)_ZN5boost16exception_detail10clone_implINS0_19error_info_injectorINS_15condition_errorEEEED2Ev@Base 1.6
 (optional=templinst)_ZN5boost16exception_detail10clone_implINS0_19error_info_injectorINS_17bad_function_callEEEEC1ERKS4_@Base 1.6
 (optional=templinst)_ZN5boost16exception_detail10clone_implINS0_19error_info_injectorINS_17bad_function_callEEEEC2ERKS4_@Base 1.6
 (optional=templinst)_ZN5boost16exception_detail10clone_implINS0_19error_info_injectorINS_17bad_function_callEEEED0Ev@Base 1.6
 (optional=templinst)_ZN5boost16exception_detail10clone_implINS0_19error_info_injectorINS_17bad_function_callEEEED1Ev@Base 1.6
 (optional=templinst)_ZN5boost16exception_detail10clone_implINS0_19error_info_injectorINS_17bad_function_callEEEED2Ev@Base 1.6
 (optional=templinst)_ZN5boost16exception_detail10clone_implINS0_19error_info_injectorINS_21thread_resource_errorEEEEC1ERKS4_@Base 1.6
 (optional=templinst)_ZN5boost16exception_detail10clone_implINS0_19error_info_injectorINS_21thread_resource_errorEEEEC2ERKS4_@Base 1.6
 (optional=templinst)_ZN5boost16exception_detail10clone_implINS0_19error_info_injectorINS_21thread_resource_errorEEEED0Ev@Base 1.6
 (optional=templinst)_ZN5boost16exception_detail10clone_implINS0_19error_info_injectorINS_21thread_resource_errorEEEED1Ev@Base 1.6
 (optional=templinst)_ZN5boost16exception_detail10clone_implINS0_19error_info_injectorINS_21thread_resource_errorEEEED2Ev@Base 1.6
 (optional=templinst)_ZN5boost16exception_detail10clone_implINS0_19error_info_injectorINS_9gregorian16bad_day_of_monthEEEEC1ERKS5_@Base 1.6
 (optional=templinst)_ZN5boost16exception_detail10clone_implINS0_19error_info_injectorINS_9gregorian16bad_day_of_monthEEEEC2ERKS5_@Base 1.6
 (optional=templinst)_ZN5boost16exception_detail10clone_implINS0_19error_info_injectorINS_9gregorian16bad_day_of_monthEEEED0Ev@Base 1.6
 (optional=templinst)_ZN5boost16exception_detail10clone_implINS0_19error_info_injectorINS_9gregorian16bad_day_of_monthEEEED1Ev@Base 1.6
 (optional=templinst)_ZN5boost16exception_detail10clone_implINS0_19error_info_injectorINS_9gregorian16bad_day_of_monthEEEED2Ev@Base 1.6
 (optional=templinst)_ZN5boost16exception_detail10clone_implINS0_19error_info_injectorINS_9gregorian8bad_yearEEEEC1ERKS5_@Base 1.6
 (optional=templinst)_ZN5boost16exception_detail10clone_implINS0_19error_info_injectorINS_9gregorian8bad_yearEEEEC2ERKS5_@Base 1.6
 (optional=templinst)_ZN5boost16exception_detail10clone_implINS0_19error_info_injectorINS_9gregorian8bad_yearEEEED0Ev@Base 1.6
 (optional=templinst)_ZN5boost16exception_detail10clone_implINS0_19error_info_injectorINS_9gregorian8bad_yearEEEED1Ev@Base 1.6
 (optional=templinst)_ZN5boost16exception_detail10clone_implINS0_19error_info_injectorINS_9gregorian8bad_yearEEEED2Ev@Base 1.6
 (optional=templinst)_ZN5boost16exception_detail10clone_implINS0_19error_info_injectorINS_9gregorian9bad_monthEEEEC1ERKS5_@Base 1.6
 (optional=templinst)_ZN5boost16exception_detail10clone_implINS0_19error_info_injectorINS_9gregorian9bad_monthEEEEC2ERKS5_@Base 1.6
 (optional=templinst)_ZN5boost16exception_detail10clone_implINS0_19error_info_injectorINS_9gregorian9bad_monthEEEED0Ev@Base 1.6
 (optional=templinst)_ZN5boost16exception_detail10clone_implINS0_19error_info_injectorINS_9gregorian9bad_monthEEEED1Ev@Base 1.6
 (optional=templinst)_ZN5boost16exception_detail10clone_implINS0_19error_info_injectorINS_9gregorian9bad_monthEEEED2Ev@Base 1.6
 (optional=templinst)_ZN5boost16exception_detail10clone_implINS0_19error_info_injectorISt13runtime_errorEEEC1ERKS4_@Base 1.6
 (optional=templinst)_ZN5boost16exception_detail10clone_implINS0_19error_info_injectorISt13runtime_errorEEEC2ERKS4_@Base 1.6
 (optional=templinst)_ZN5boost16exception_detail10clone_implINS0_19error_info_injectorISt13runtime_errorEEED0Ev@Base 1.6
 (optional=templinst)_ZN5boost16exception_detail10clone_implINS0_19error_info_injectorISt13runtime_errorEEED1Ev@Base 1.6
 (optional=templinst)_ZN5boost16exception_detail10clone_implINS0_19error_info_injectorISt13runtime_errorEEED2Ev@Base 1.6
 (optional=templinst)_ZN5boost16exception_detail12refcount_ptrINS0_20error_info_containerEE7releaseEv@Base 1.6
 _ZN5boost16exception_detail14bad_exception_C1ERKS1_@Base 1.6
 _ZN5boost16exception_detail14bad_exception_C2ERKS1_@Base 1.6
 _ZN5boost16exception_detail14bad_exception_D0Ev@Base 1.6
 _ZN5boost16exception_detail14bad_exception_D1Ev@Base 1.6
 _ZN5boost16exception_detail14bad_exception_D2Ev@Base 1.6
 (optional=templinst)_ZN5boost16exception_detail19error_info_injectorINS_10lock_errorEEC1ERKS3_@Base 1.6
 (optional=templinst)_ZN5boost16exception_detail19error_info_injectorINS_10lock_errorEEC2ERKS3_@Base 1.6
 (optional=templinst)_ZN5boost16exception_detail19error_info_injectorINS_10lock_errorEED0Ev@Base 1.6
 (optional=templinst)_ZN5boost16exception_detail19error_info_injectorINS_10lock_errorEED1Ev@Base 1.6
 (optional=templinst)_ZN5boost16exception_detail19error_info_injectorINS_10lock_errorEED2Ev@Base 1.6
 (optional=templinst)_ZN5boost16exception_detail19error_info_injectorINS_15condition_errorEEC1ERKS3_@Base 1.6
 (optional=templinst)_ZN5boost16exception_detail19error_info_injectorINS_15condition_errorEEC2ERKS3_@Base 1.6
 (optional=templinst)_ZN5boost16exception_detail19error_info_injectorINS_15condition_errorEED0Ev@Base 1.6
 (optional=templinst)_ZN5boost16exception_detail19error_info_injectorINS_15condition_errorEED1Ev@Base 1.6
 (optional=templinst)_ZN5boost16exception_detail19error_info_injectorINS_15condition_errorEED2Ev@Base 1.6
 (optional=templinst)_ZN5boost16exception_detail19error_info_injectorINS_17bad_function_callEEC1ERKS3_@Base 1.6
 (optional=templinst)_ZN5boost16exception_detail19error_info_injectorINS_17bad_function_callEEC2ERKS3_@Base 1.6
 (optional=templinst)_ZN5boost16exception_detail19error_info_injectorINS_17bad_function_callEED0Ev@Base 1.6
 (optional=templinst)_ZN5boost16exception_detail19error_info_injectorINS_17bad_function_callEED1Ev@Base 1.6
 (optional=templinst)_ZN5boost16exception_detail19error_info_injectorINS_17bad_function_callEED2Ev@Base 1.6
 (optional=templinst)_ZN5boost16exception_detail19error_info_injectorINS_21thread_resource_errorEEC1ERKS3_@Base 1.6
 (optional=templinst)_ZN5boost16exception_detail19error_info_injectorINS_21thread_resource_errorEEC2ERKS3_@Base 1.6
 (optional=templinst)_ZN5boost16exception_detail19error_info_injectorINS_21thread_resource_errorEED0Ev@Base 1.6
 (optional=templinst)_ZN5boost16exception_detail19error_info_injectorINS_21thread_resource_errorEED1Ev@Base 1.6
 (optional=templinst)_ZN5boost16exception_detail19error_info_injectorINS_21thread_resource_errorEED2Ev@Base 1.6
 (optional=templinst)_ZN5boost16exception_detail19error_info_injectorINS_9gregorian16bad_day_of_monthEEC1ERKS3_@Base 1.6
 (optional=templinst)_ZN5boost16exception_detail19error_info_injectorINS_9gregorian16bad_day_of_monthEEC1ERKS4_@Base 1.6
 (optional=templinst)_ZN5boost16exception_detail19error_info_injectorINS_9gregorian16bad_day_of_monthEEC2ERKS3_@Base 1.6
 (optional=templinst)_ZN5boost16exception_detail19error_info_injectorINS_9gregorian16bad_day_of_monthEEC2ERKS4_@Base 1.6
 (optional=templinst)_ZN5boost16exception_detail19error_info_injectorINS_9gregorian16bad_day_of_monthEED0Ev@Base 1.6
 (optional=templinst)_ZN5boost16exception_detail19error_info_injectorINS_9gregorian16bad_day_of_monthEED1Ev@Base 1.6
 (optional=templinst)_ZN5boost16exception_detail19error_info_injectorINS_9gregorian16bad_day_of_monthEED2Ev@Base 1.6
 (optional=templinst)_ZN5boost16exception_detail19error_info_injectorINS_9gregorian8bad_yearEEC1ERKS3_@Base 1.6
 (optional=templinst)_ZN5boost16exception_detail19error_info_injectorINS_9gregorian8bad_yearEEC1ERKS4_@Base 1.6
 (optional=templinst)_ZN5boost16exception_detail19error_info_injectorINS_9gregorian8bad_yearEEC2ERKS3_@Base 1.6
 (optional=templinst)_ZN5boost16exception_detail19error_info_injectorINS_9gregorian8bad_yearEEC2ERKS4_@Base 1.6
 (optional=templinst)_ZN5boost16exception_detail19error_info_injectorINS_9gregorian8bad_yearEED0Ev@Base 1.6
 (optional=templinst)_ZN5boost16exception_detail19error_info_injectorINS_9gregorian8bad_yearEED1Ev@Base 1.6
 (optional=templinst)_ZN5boost16exception_detail19error_info_injectorINS_9gregorian8bad_yearEED2Ev@Base 1.6
 (optional=templinst)_ZN5boost16exception_detail19error_info_injectorINS_9gregorian9bad_monthEEC1ERKS3_@Base 1.6
 (optional=templinst)_ZN5boost16exception_detail19error_info_injectorINS_9gregorian9bad_monthEEC1ERKS4_@Base 1.6
 (optional=templinst)_ZN5boost16exception_detail19error_info_injectorINS_9gregorian9bad_monthEEC2ERKS3_@Base 1.6
 (optional=templinst)_ZN5boost16exception_detail19error_info_injectorINS_9gregorian9bad_monthEEC2ERKS4_@Base 1.6
 (optional=templinst)_ZN5boost16exception_detail19error_info_injectorINS_9gregorian9bad_monthEED0Ev@Base 1.6
 (optional=templinst)_ZN5boost16exception_detail19error_info_injectorINS_9gregorian9bad_monthEED1Ev@Base 1.6
 (optional=templinst)_ZN5boost16exception_detail19error_info_injectorINS_9gregorian9bad_monthEED2Ev@Base 1.6
 (optional=templinst)_ZN5boost16exception_detail19error_info_injectorISt13runtime_errorEC1ERKS3_@Base 1.6
 (optional=templinst)_ZN5boost16exception_detail19error_info_injectorISt13runtime_errorEC2ERKS3_@Base 1.6
 (optional=templinst)_ZN5boost16exception_detail19error_info_injectorISt13runtime_errorED0Ev@Base 1.6
 (optional=templinst)_ZN5boost16exception_detail19error_info_injectorISt13runtime_errorED1Ev@Base 1.6
 (optional=templinst)_ZN5boost16exception_detail19error_info_injectorISt13runtime_errorED2Ev@Base 1.6
 _ZN5boost16exception_detail20copy_boost_exceptionEPNS_9exceptionEPKS1_@Base 1.6
 (optional=templinst)_ZN5boost16exception_detail27get_static_exception_objectINS0_10bad_alloc_EEENS_13exception_ptrEv@Base 1.6
 (optional=templinst)_ZN5boost16exception_detail27get_static_exception_objectINS0_14bad_exception_EEENS_13exception_ptrEv@Base 1.6
 _ZN5boost16exception_detail37exception_ptr_static_exception_objectINS0_10bad_alloc_EE1eE@Base 1.6
 _ZN5boost16exception_detail37exception_ptr_static_exception_objectINS0_14bad_exception_EE1eE@Base 1.6
 (optional=templinst)_ZN5boost16thread_cv_detail12lock_on_exitINS_11unique_lockINS_5mutexEEEED1Ev@Base 1.6
 (optional=templinst)_ZN5boost16thread_cv_detail12lock_on_exitINS_11unique_lockINS_5mutexEEEED2Ev@Base 1.6
 _ZN5boost16thread_exceptionD0Ev@Base 1.6
 _ZN5boost16thread_exceptionD1Ev@Base 1.6
 _ZN5boost16thread_exceptionD2Ev@Base 1.6
 _ZN5boost17bad_function_callC1Ev@Base 1.6
 _ZN5boost17bad_function_callC2Ev@Base 1.6
 _ZN5boost17bad_function_callD0Ev@Base 1.6
 _ZN5boost17bad_function_callD1Ev@Base 1.6
 _ZN5boost17bad_function_callD2Ev@Base 1.6
 _ZN5boost18condition_variable10notify_allEv@Base 1.6
 _ZN5boost18condition_variableC1Ev@Base 1.6
 _ZN5boost18condition_variableC2Ev@Base 1.6
 _ZN5boost18condition_variableD1Ev@Base 1.6
 _ZN5boost18condition_variableD2Ev@Base 1.6
 (optional=templinst)_ZN5boost18transform_iteratorINS_9algorithm6detail20copy_iterator_rangeFISsPcEENS1_14split_iteratorIS4_EENS_11use_defaultES8_ED1Ev@Base 1.6
 (optional=templinst)_ZN5boost18transform_iteratorINS_9algorithm6detail20copy_iterator_rangeFISsPcEENS1_14split_iteratorIS4_EENS_11use_defaultES8_ED2Ev@Base 1.6
 _ZN5boost21thread_resource_errorD0Ev@Base 1.6
 _ZN5boost21thread_resource_errorD1Ev@Base 1.6
 _ZN5boost21thread_resource_errorD2Ev@Base 1.6
 (optional=templinst)_ZN5boost23enable_shared_from_thisINS_6detail16thread_data_baseEED1Ev@Base 1.6
 (optional=templinst)_ZN5boost23enable_shared_from_thisINS_6detail16thread_data_baseEED2Ev@Base 1.6
 _ZN5boost5mutex4lockEv@Base 1.6
 _ZN5boost5mutex6unlockEv@Base 1.6
 _ZN5boost5mutexC1Ev@Base 1.6
 _ZN5boost5mutexC2Ev@Base 1.6
 _ZN5boost5mutexD1Ev@Base 1.6
 _ZN5boost5mutexD2Ev@Base 1.6
 _ZN5boost6detail10weak_countaSERKNS0_12shared_countE@Base 1.6
 (optional=templinst)_ZN5boost6detail11thread_dataINS_3_bi6bind_tIvNS_4_mfi3mf0IvN3pcl11TimeTriggerEEENS2_5list1INS2_5valueIPS7_EEEEEEE3runEv@Base 1.6
 (optional=templinst)_ZN5boost6detail11thread_dataINS_3_bi6bind_tIvNS_4_mfi3mf0IvN3pcl11TimeTriggerEEENS2_5list1INS2_5valueIPS7_EEEEEEED0Ev@Base 1.6
 (optional=templinst)_ZN5boost6detail11thread_dataINS_3_bi6bind_tIvNS_4_mfi3mf0IvN3pcl11TimeTriggerEEENS2_5list1INS2_5valueIPS7_EEEEEEED1Ev@Base 1.6
 (optional=templinst)_ZN5boost6detail11thread_dataINS_3_bi6bind_tIvNS_4_mfi3mf0IvN3pcl11TimeTriggerEEENS2_5list1INS2_5valueIPS7_EEEEEEED2Ev@Base 1.6
 _ZN5boost6detail12shared_countC1ERKNS0_10weak_countENS0_14sp_nothrow_tagE@Base 1.6
 (optional=templinst)_ZN5boost6detail12shared_countC1INS0_11thread_dataINS_3_bi6bind_tIvNS_4_mfi3mf0IvN3pcl11TimeTriggerEEENS4_5list1INS4_5valueIPS9_EEEEEEEEEEPT_@Base 1.6
 (optional=templinst)_ZN5boost6detail12shared_countC1INS_16exception_detail10clone_implINS3_10bad_alloc_EEEEEPT_@Base 1.6
 (optional=templinst)_ZN5boost6detail12shared_countC1INS_16exception_detail10clone_implINS3_14bad_exception_EEEEEPT_@Base 1.6
 (optional=templinst)_ZN5boost6detail12shared_countC1INS_8signals219optional_last_valueIvEEEEPT_@Base 1.6
 (optional=templinst)_ZN5boost6detail12shared_countC1INS_8signals26detail12grouped_listIiSt4lessIiENS_10shared_ptrINS4_15connection_bodyISt4pairINS4_15slot_meta_groupENS_8optionalIiEEENS3_5slot0IvNS_8functionIFvvEEEEENS3_5mutexEEEEEEEEEPT_@Base 1.6
 (optional=templinst)_ZN5boost6detail12shared_countC1INS_8signals26detail12signal0_implIvNS3_19optional_last_valueIvEEiSt4lessIiENS_8functionIFvvEEENSA_IFvRKNS3_10connectionEEEENS3_5mutexEE16invocation_stateEEEPT_@Base 1.6
 (optional=templinst)_ZN5boost6detail12shared_countC1INS_8signals26detail12signal0_implIvNS3_19optional_last_valueIvEEiSt4lessIiENS_8functionIFvvEEENSA_IFvRKNS3_10connectionEEEENS3_5mutexEEEEEPT_@Base 1.6
 (optional=templinst)_ZN5boost6detail12shared_countC1INS_8signals26detail15connection_bodyISt4pairINS4_15slot_meta_groupENS_8optionalIiEEENS3_5slot0IvNS_8functionIFvvEEEEENS3_5mutexEEEEEPT_@Base 1.6
 _ZN5boost6detail12shared_countC2ERKNS0_10weak_countENS0_14sp_nothrow_tagE@Base 1.6
 (optional=templinst)_ZN5boost6detail12shared_countC2INS0_11thread_dataINS_3_bi6bind_tIvNS_4_mfi3mf0IvN3pcl11TimeTriggerEEENS4_5list1INS4_5valueIPS9_EEEEEEEEEEPT_@Base 1.6
 (optional=templinst)_ZN5boost6detail12shared_countC2INS_16exception_detail10clone_implINS3_10bad_alloc_EEEEEPT_@Base 1.6
 (optional=templinst)_ZN5boost6detail12shared_countC2INS_16exception_detail10clone_implINS3_14bad_exception_EEEEEPT_@Base 1.6
 (optional=templinst)_ZN5boost6detail12shared_countC2INS_8signals219optional_last_valueIvEEEEPT_@Base 1.6
 (optional=templinst)_ZN5boost6detail12shared_countC2INS_8signals26detail12grouped_listIiSt4lessIiENS_10shared_ptrINS4_15connection_bodyISt4pairINS4_15slot_meta_groupENS_8optionalIiEEENS3_5slot0IvNS_8functionIFvvEEEEENS3_5mutexEEEEEEEEEPT_@Base 1.6
 (optional=templinst)_ZN5boost6detail12shared_countC2INS_8signals26detail12signal0_implIvNS3_19optional_last_valueIvEEiSt4lessIiENS_8functionIFvvEEENSA_IFvRKNS3_10connectionEEEENS3_5mutexEE16invocation_stateEEEPT_@Base 1.6
 (optional=templinst)_ZN5boost6detail12shared_countC2INS_8signals26detail12signal0_implIvNS3_19optional_last_valueIvEEiSt4lessIiENS_8functionIFvvEEENSA_IFvRKNS3_10connectionEEEENS3_5mutexEEEEEPT_@Base 1.6
 (optional=templinst)_ZN5boost6detail12shared_countC2INS_8signals26detail15connection_bodyISt4pairINS4_15slot_meta_groupENS_8optionalIiEEENS3_5slot0IvNS_8functionIFvvEEEEENS3_5mutexEEEEEPT_@Base 1.6
 _ZN5boost6detail12shared_countD1Ev@Base 1.6
 _ZN5boost6detail12shared_countD2Ev@Base 1.6
 (optional=templinst)_ZN5boost6detail13heap_new_implINS0_11thread_dataINS_3_bi6bind_tIvNS_4_mfi3mf0IvN3pcl11TimeTriggerEEENS3_5list1INS3_5valueIPS8_EEEEEEEERSF_EEPT_T0_@Base 1.6
 _ZN5boost6detail15sp_counted_base12weak_releaseEv@Base 1.6
 _ZN5boost6detail15sp_counted_base7destroyEv@Base 1.6
 _ZN5boost6detail15sp_counted_base7releaseEv@Base 1.6
 _ZN5boost6detail15sp_counted_baseD0Ev@Base 1.6
 _ZN5boost6detail15sp_counted_baseD1Ev@Base 1.6
 _ZN5boost6detail15sp_counted_baseD2Ev@Base 1.6
 _ZN5boost6detail16thread_data_baseC1Ev@Base 1.6
 _ZN5boost6detail16thread_data_baseC2Ev@Base 1.6
 (optional=templinst)_ZN5boost6detail17sp_counted_impl_pINS0_11thread_dataINS_3_bi6bind_tIvNS_4_mfi3mf0IvN3pcl11TimeTriggerEEENS3_5list1INS3_5valueIPS8_EEEEEEEEE11get_deleterERKSt9type_info@Base 1.6
 (optional=templinst)_ZN5boost6detail17sp_counted_impl_pINS0_11thread_dataINS_3_bi6bind_tIvNS_4_mfi3mf0IvN3pcl11TimeTriggerEEENS3_5list1INS3_5valueIPS8_EEEEEEEEE7disposeEv@Base 1.6
 (optional=templinst)_ZN5boost6detail17sp_counted_impl_pINS0_11thread_dataINS_3_bi6bind_tIvNS_4_mfi3mf0IvN3pcl11TimeTriggerEEENS3_5list1INS3_5valueIPS8_EEEEEEEEED0Ev@Base 1.6
 (optional=templinst)_ZN5boost6detail17sp_counted_impl_pINS0_11thread_dataINS_3_bi6bind_tIvNS_4_mfi3mf0IvN3pcl11TimeTriggerEEENS3_5list1INS3_5valueIPS8_EEEEEEEEED1Ev@Base 1.6
 (optional=templinst)_ZN5boost6detail17sp_counted_impl_pINS0_11thread_dataINS_3_bi6bind_tIvNS_4_mfi3mf0IvN3pcl11TimeTriggerEEENS3_5list1INS3_5valueIPS8_EEEEEEEEED2Ev@Base 1.6
 (optional=templinst)_ZN5boost6detail17sp_counted_impl_pINS_16exception_detail10clone_implINS2_10bad_alloc_EEEE11get_deleterERKSt9type_info@Base 1.6
 (optional=templinst)_ZN5boost6detail17sp_counted_impl_pINS_16exception_detail10clone_implINS2_10bad_alloc_EEEE7disposeEv@Base 1.6
 (optional=templinst)_ZN5boost6detail17sp_counted_impl_pINS_16exception_detail10clone_implINS2_10bad_alloc_EEEED0Ev@Base 1.6
 (optional=templinst)_ZN5boost6detail17sp_counted_impl_pINS_16exception_detail10clone_implINS2_10bad_alloc_EEEED1Ev@Base 1.6
 (optional=templinst)_ZN5boost6detail17sp_counted_impl_pINS_16exception_detail10clone_implINS2_10bad_alloc_EEEED2Ev@Base 1.6
 (optional=templinst)_ZN5boost6detail17sp_counted_impl_pINS_16exception_detail10clone_implINS2_14bad_exception_EEEE11get_deleterERKSt9type_info@Base 1.6
 (optional=templinst)_ZN5boost6detail17sp_counted_impl_pINS_16exception_detail10clone_implINS2_14bad_exception_EEEE7disposeEv@Base 1.6
 (optional=templinst)_ZN5boost6detail17sp_counted_impl_pINS_16exception_detail10clone_implINS2_14bad_exception_EEEED0Ev@Base 1.6
 (optional=templinst)_ZN5boost6detail17sp_counted_impl_pINS_16exception_detail10clone_implINS2_14bad_exception_EEEED1Ev@Base 1.6
 (optional=templinst)_ZN5boost6detail17sp_counted_impl_pINS_16exception_detail10clone_implINS2_14bad_exception_EEEED2Ev@Base 1.6
 (optional=templinst)_ZN5boost6detail17sp_counted_impl_pINS_8signals219optional_last_valueIvEEE11get_deleterERKSt9type_info@Base 1.6
 (optional=templinst)_ZN5boost6detail17sp_counted_impl_pINS_8signals219optional_last_valueIvEEE7disposeEv@Base 1.6
 (optional=templinst)_ZN5boost6detail17sp_counted_impl_pINS_8signals219optional_last_valueIvEEED0Ev@Base 1.6
 (optional=templinst)_ZN5boost6detail17sp_counted_impl_pINS_8signals219optional_last_valueIvEEED1Ev@Base 1.6
 (optional=templinst)_ZN5boost6detail17sp_counted_impl_pINS_8signals219optional_last_valueIvEEED2Ev@Base 1.6
 (optional=templinst)_ZN5boost6detail17sp_counted_impl_pINS_8signals26detail12grouped_listIiSt4lessIiENS_10shared_ptrINS3_15connection_bodyISt4pairINS3_15slot_meta_groupENS_8optionalIiEEENS2_5slot0IvNS_8functionIFvvEEEEENS2_5mutexEEEEEEEE11get_deleterERKSt9type_info@Base 1.6
 (optional=templinst)_ZN5boost6detail17sp_counted_impl_pINS_8signals26detail12grouped_listIiSt4lessIiENS_10shared_ptrINS3_15connection_bodyISt4pairINS3_15slot_meta_groupENS_8optionalIiEEENS2_5slot0IvNS_8functionIFvvEEEEENS2_5mutexEEEEEEEE7disposeEv@Base 1.6
 (optional=templinst)_ZN5boost6detail17sp_counted_impl_pINS_8signals26detail12grouped_listIiSt4lessIiENS_10shared_ptrINS3_15connection_bodyISt4pairINS3_15slot_meta_groupENS_8optionalIiEEENS2_5slot0IvNS_8functionIFvvEEEEENS2_5mutexEEEEEEEED0Ev@Base 1.6
 (optional=templinst)_ZN5boost6detail17sp_counted_impl_pINS_8signals26detail12grouped_listIiSt4lessIiENS_10shared_ptrINS3_15connection_bodyISt4pairINS3_15slot_meta_groupENS_8optionalIiEEENS2_5slot0IvNS_8functionIFvvEEEEENS2_5mutexEEEEEEEED1Ev@Base 1.6
 (optional=templinst)_ZN5boost6detail17sp_counted_impl_pINS_8signals26detail12grouped_listIiSt4lessIiENS_10shared_ptrINS3_15connection_bodyISt4pairINS3_15slot_meta_groupENS_8optionalIiEEENS2_5slot0IvNS_8functionIFvvEEEEENS2_5mutexEEEEEEEED2Ev@Base 1.6
 (optional=templinst)_ZN5boost6detail17sp_counted_impl_pINS_8signals26detail12signal0_implIvNS2_19optional_last_valueIvEEiSt4lessIiENS_8functionIFvvEEENS9_IFvRKNS2_10connectionEEEENS2_5mutexEE16invocation_stateEE11get_deleterERKSt9type_info@Base 1.6
 (optional=templinst)_ZN5boost6detail17sp_counted_impl_pINS_8signals26detail12signal0_implIvNS2_19optional_last_valueIvEEiSt4lessIiENS_8functionIFvvEEENS9_IFvRKNS2_10connectionEEEENS2_5mutexEE16invocation_stateEE7disposeEv@Base 1.6
 (optional=templinst)_ZN5boost6detail17sp_counted_impl_pINS_8signals26detail12signal0_implIvNS2_19optional_last_valueIvEEiSt4lessIiENS_8functionIFvvEEENS9_IFvRKNS2_10connectionEEEENS2_5mutexEE16invocation_stateEED0Ev@Base 1.6
 (optional=templinst)_ZN5boost6detail17sp_counted_impl_pINS_8signals26detail12signal0_implIvNS2_19optional_last_valueIvEEiSt4lessIiENS_8functionIFvvEEENS9_IFvRKNS2_10connectionEEEENS2_5mutexEE16invocation_stateEED1Ev@Base 1.6
 (optional=templinst)_ZN5boost6detail17sp_counted_impl_pINS_8signals26detail12signal0_implIvNS2_19optional_last_valueIvEEiSt4lessIiENS_8functionIFvvEEENS9_IFvRKNS2_10connectionEEEENS2_5mutexEE16invocation_stateEED2Ev@Base 1.6
 (optional=templinst)_ZN5boost6detail17sp_counted_impl_pINS_8signals26detail12signal0_implIvNS2_19optional_last_valueIvEEiSt4lessIiENS_8functionIFvvEEENS9_IFvRKNS2_10connectionEEEENS2_5mutexEEEE11get_deleterERKSt9type_info@Base 1.6
 (optional=templinst)_ZN5boost6detail17sp_counted_impl_pINS_8signals26detail12signal0_implIvNS2_19optional_last_valueIvEEiSt4lessIiENS_8functionIFvvEEENS9_IFvRKNS2_10connectionEEEENS2_5mutexEEEE7disposeEv@Base 1.6
 (optional=templinst)_ZN5boost6detail17sp_counted_impl_pINS_8signals26detail12signal0_implIvNS2_19optional_last_valueIvEEiSt4lessIiENS_8functionIFvvEEENS9_IFvRKNS2_10connectionEEEENS2_5mutexEEEED0Ev@Base 1.6
 (optional=templinst)_ZN5boost6detail17sp_counted_impl_pINS_8signals26detail12signal0_implIvNS2_19optional_last_valueIvEEiSt4lessIiENS_8functionIFvvEEENS9_IFvRKNS2_10connectionEEEENS2_5mutexEEEED1Ev@Base 1.6
 (optional=templinst)_ZN5boost6detail17sp_counted_impl_pINS_8signals26detail12signal0_implIvNS2_19optional_last_valueIvEEiSt4lessIiENS_8functionIFvvEEENS9_IFvRKNS2_10connectionEEEENS2_5mutexEEEED2Ev@Base 1.6
 (optional=templinst)_ZN5boost6detail17sp_counted_impl_pINS_8signals26detail15connection_bodyISt4pairINS3_15slot_meta_groupENS_8optionalIiEEENS2_5slot0IvNS_8functionIFvvEEEEENS2_5mutexEEEE11get_deleterERKSt9type_info@Base 1.6
 (optional=templinst)_ZN5boost6detail17sp_counted_impl_pINS_8signals26detail15connection_bodyISt4pairINS3_15slot_meta_groupENS_8optionalIiEEENS2_5slot0IvNS_8functionIFvvEEEEENS2_5mutexEEEE7disposeEv@Base 1.6
 (optional=templinst)_ZN5boost6detail17sp_counted_impl_pINS_8signals26detail15connection_bodyISt4pairINS3_15slot_meta_groupENS_8optionalIiEEENS2_5slot0IvNS_8functionIFvvEEEEENS2_5mutexEEEED0Ev@Base 1.6
 (optional=templinst)_ZN5boost6detail17sp_counted_impl_pINS_8signals26detail15connection_bodyISt4pairINS3_15slot_meta_groupENS_8optionalIiEEENS2_5slot0IvNS_8functionIFvvEEEEENS2_5mutexEEEED1Ev@Base 1.6
 (optional=templinst)_ZN5boost6detail17sp_counted_impl_pINS_8signals26detail15connection_bodyISt4pairINS3_15slot_meta_groupENS_8optionalIiEEENS2_5slot0IvNS_8functionIFvvEEEEENS2_5mutexEEEED2Ev@Base 1.6
 (optional=templinst)_ZN5boost6detail17sp_counted_impl_pISt6vectorIiSaIiEEE11get_deleterERKSt9type_info@Base 1.6
 (optional=templinst)_ZN5boost6detail17sp_counted_impl_pISt6vectorIiSaIiEEE7disposeEv@Base 1.6
 (optional=templinst)_ZN5boost6detail17sp_counted_impl_pISt6vectorIiSaIiEEED0Ev@Base 1.6
 (optional=templinst)_ZN5boost6detail17sp_counted_impl_pISt6vectorIiSaIiEEED1Ev@Base 1.6
 (optional=templinst)_ZN5boost6detail17sp_counted_impl_pISt6vectorIiSaIiEEED2Ev@Base 1.6
 _ZN5boost6detail20interruption_checkerD1Ev@Base 1.6
 _ZN5boost6detail20interruption_checkerD2Ev@Base 1.6
 (optional=templinst)_ZN5boost6detail7variant13backup_holderINS_10shared_ptrIvEEED1Ev@Base 1.6
 (optional=templinst)_ZN5boost6detail7variant13backup_holderINS_10shared_ptrIvEEED2Ev@Base 1.6
 (optional=templinst)_ZN5boost6detail7variant13backup_holderINS_8signals26detail21foreign_void_weak_ptrEED1Ev@Base 1.6
 (optional=templinst)_ZN5boost6detail7variant13backup_holderINS_8signals26detail21foreign_void_weak_ptrEED2Ev@Base 1.6
 (optional=templinst)_ZN5boost6detail7variant13backup_holderINS_8signals26detail23foreign_void_shared_ptrEED1Ev@Base 1.6
 (optional=templinst)_ZN5boost6detail7variant13backup_holderINS_8signals26detail23foreign_void_shared_ptrEED2Ev@Base 1.6
 (optional=templinst)_ZN5boost6detail7variant13backup_holderINS_8weak_ptrIvEEED1Ev@Base 1.6
 (optional=templinst)_ZN5boost6detail7variant13backup_holderINS_8weak_ptrIvEEED2Ev@Base 1.6
 (optional=templinst)_ZN5boost6detail7variant15visitation_implIN4mpl_4int_ILi0EEENS1_20visitation_impl_stepINS_3mpl6l_iterINS7_6l_itemINS3_5long_ILl2EEENS_10shared_ptrIvEENS9_INSA_ILl1EEENS_8signals26detail23foreign_void_shared_ptrENS7_5l_endEEEEEEENS8_ISI_EEEENS_7variantISD_SH_NS1_5void_ESP_SP_SP_SP_SP_SP_SP_SP_SP_SP_SP_SP_SP_SP_SP_SP_SP_E17convert_copy_intoEPvNSQ_18has_fallback_type_EEENT1_11result_typeEiiRSU_T2_NS3_5bool_ILb0EEET3_PT_PT0_@Base 1.6
 (optional=templinst)_ZN5boost6detail8function15functor_managerINS_9algorithm6detail13token_finderFINS4_10is_any_ofFIcEEEEE6manageERKNS1_15function_bufferERSA_NS1_30functor_manager_operation_typeE@Base 1.6
 _ZN5boost6detail8function16has_empty_targetEz@Base 1.6
 (optional=templinst)_ZN5boost6detail8function21function_obj_invoker2INS_9algorithm6detail13token_finderFINS4_10is_any_ofFIcEEEENS_14iterator_rangeIPcEESA_SA_E6invokeERNS1_15function_bufferESA_SA_@Base 1.6
 _ZN5boost6threadC1ENS_6detail13thread_move_tIS0_EE@Base 1.6
 (optional=templinst)_ZN5boost6threadC1INS_3_bi6bind_tIvNS_4_mfi3mf0IvN3pcl11TimeTriggerEEENS2_5list1INS2_5valueIPS7_EEEEEEEET_NS_10disable_ifINS_14is_convertibleIRSF_NS_6detail13thread_move_tISF_EEEEPNS0_5dummyEE4typeE@Base 1.6
 _ZN5boost6threadC2ENS_6detail13thread_move_tIS0_EE@Base 1.6
 (optional=templinst)_ZN5boost6threadC2INS_3_bi6bind_tIvNS_4_mfi3mf0IvN3pcl11TimeTriggerEEENS2_5list1INS2_5valueIPS7_EEEEEEEET_NS_10disable_ifINS_14is_convertibleIRSF_NS_6detail13thread_move_tISF_EEEEPNS0_5dummyEE4typeE@Base 1.6
 (optional=templinst)_ZN5boost7variantINS_10shared_ptrIvEENS_8signals26detail23foreign_void_shared_ptrENS_6detail7variant5void_ES8_S8_S8_S8_S8_S8_S8_S8_S8_S8_S8_S8_S8_S8_S8_S8_S8_E22internal_apply_visitorINS7_9destroyerEEENT_11result_typeERSC_@Base 1.6
 (optional=templinst)_ZN5boost7variantINS_10shared_ptrIvEENS_8signals26detail23foreign_void_shared_ptrENS_6detail7variant5void_ES8_S8_S8_S8_S8_S8_S8_S8_S8_S8_S8_S8_S8_S8_S8_S8_S8_E22internal_apply_visitorINS9_17convert_copy_intoEEENT_11result_typeERSC_@Base 1.6
 (optional=templinst)_ZN5boost8functionIFvvEEaSERKS2_@Base 1.6
 _ZN5boost8signals211signal_baseD0Ev@Base 1.6
 _ZN5boost8signals211signal_baseD1Ev@Base 1.6
 _ZN5boost8signals211signal_baseD2Ev@Base 1.6
 (optional=templinst)_ZN5boost8signals25slot0IvNS_8functionIFvvEEEEC1ERKS5_@Base 1.6
 (optional=templinst)_ZN5boost8signals25slot0IvNS_8functionIFvvEEEEC1IS4_EERKT_@Base 1.6
 (optional=templinst)_ZN5boost8signals25slot0IvNS_8functionIFvvEEEEC2ERKS5_@Base 1.6
 (optional=templinst)_ZN5boost8signals25slot0IvNS_8functionIFvvEEEEC2IS4_EERKT_@Base 1.6
 (optional=templinst)_ZN5boost8signals25slot0IvNS_8functionIFvvEEEED1Ev@Base 1.6
 (optional=templinst)_ZN5boost8signals25slot0IvNS_8functionIFvvEEEED2Ev@Base 1.6
 (optional=templinst)_ZN5boost8signals26detail11auto_bufferINS_7variantINS_10shared_ptrIvEENS1_23foreign_void_shared_ptrENS_6detail7variant5void_ES9_S9_S9_S9_S9_S9_S9_S9_S9_S9_S9_S9_S9_S9_S9_S9_S9_EENS1_15store_n_objectsILj10EEENS1_19default_grow_policyESaISA_EE10deallocateEPSA_m@Base 1.6
 (optional=templinst)_ZN5boost8signals26detail11unique_lockINS0_5mutexEED1Ev@Base 1.6
 (optional=templinst)_ZN5boost8signals26detail11unique_lockINS0_5mutexEED2Ev@Base 1.6
 (optional=templinst)_ZN5boost8signals26detail12grouped_listIiSt4lessIiENS_10shared_ptrINS1_15connection_bodyISt4pairINS1_15slot_meta_groupENS_8optionalIiEEENS0_5slot0IvNS_8functionIFvvEEEEENS0_5mutexEEEEEE10push_frontERKSB_RKSJ_@Base 1.6
 (optional=templinst)_ZN5boost8signals26detail12grouped_listIiSt4lessIiENS_10shared_ptrINS1_15connection_bodyISt4pairINS1_15slot_meta_groupENS_8optionalIiEEENS0_5slot0IvNS_8functionIFvvEEEEENS0_5mutexEEEEEE11upper_boundERKSB_@Base 1.6
 (optional=templinst)_ZN5boost8signals26detail12grouped_listIiSt4lessIiENS_10shared_ptrINS1_15connection_bodyISt4pairINS1_15slot_meta_groupENS_8optionalIiEEENS0_5slot0IvNS_8functionIFvvEEEEENS0_5mutexEEEEEE8m_insertERKSt17_Rb_tree_iteratorIS7_IKSB_St14_List_iteratorISJ_EEERSM_RKSJ_@Base 1.6
 (optional=templinst)_ZN5boost8signals26detail12grouped_listIiSt4lessIiENS_10shared_ptrINS1_15connection_bodyISt4pairINS1_15slot_meta_groupENS_8optionalIiEEENS0_5slot0IvNS_8functionIFvvEEEEENS0_5mutexEEEEEE9push_backERKSB_RKSJ_@Base 1.6
 (optional=templinst)_ZN5boost8signals26detail12grouped_listIiSt4lessIiENS_10shared_ptrINS1_15connection_bodyISt4pairINS1_15slot_meta_groupENS_8optionalIiEEENS0_5slot0IvNS_8functionIFvvEEEEENS0_5mutexEEEEEEC1ERKSK_@Base 1.6
 (optional=templinst)_ZN5boost8signals26detail12grouped_listIiSt4lessIiENS_10shared_ptrINS1_15connection_bodyISt4pairINS1_15slot_meta_groupENS_8optionalIiEEENS0_5slot0IvNS_8functionIFvvEEEEENS0_5mutexEEEEEEC2ERKSK_@Base 1.6
 (optional=templinst)_ZN5boost8signals26detail12grouped_listIiSt4lessIiENS_10shared_ptrINS1_15connection_bodyISt4pairINS1_15slot_meta_groupENS_8optionalIiEEENS0_5slot0IvNS_8functionIFvvEEEEENS0_5mutexEEEEEED1Ev@Base 1.6
 (optional=templinst)_ZN5boost8signals26detail12grouped_listIiSt4lessIiENS_10shared_ptrINS1_15connection_bodyISt4pairINS1_15slot_meta_groupENS_8optionalIiEEENS0_5slot0IvNS_8functionIFvvEEEEENS0_5mutexEEEEEED2Ev@Base 1.6
 (optional=templinst)_ZN5boost8signals26detail12signal0_implIvNS0_19optional_last_valueIvEEiSt4lessIiENS_8functionIFvvEEENS7_IFvRKNS0_10connectionEEEENS0_5mutexEE14nolock_connectERKNS0_5slot0IvS9_EENS0_16connect_positionE@Base 1.6
 (optional=templinst)_ZN5boost8signals26detail12signal0_implIvNS0_19optional_last_valueIvEEiSt4lessIiENS_8functionIFvvEEENS7_IFvRKNS0_10connectionEEEENS0_5mutexEE16invocation_stateC1ERKNS1_12grouped_listIiS6_NS_10shared_ptrINS1_15connection_bodyISt4pairINS1_15slot_meta_groupENS_8optionalIiEEENS0_5slot0IvS9_EESF_EEEEEERKS4_@Base 1.6
 (optional=templinst)_ZN5boost8signals26detail12signal0_implIvNS0_19optional_last_valueIvEEiSt4lessIiENS_8functionIFvvEEENS7_IFvRKNS0_10connectionEEEENS0_5mutexEE16invocation_stateC1ERKSH_RKNS1_12grouped_listIiS6_NS_10shared_ptrINS1_15connection_bodyISt4pairINS1_15slot_meta_groupENS_8optionalIiEEENS0_5slot0IvS9_EESF_EEEEEE@Base 1.6
 (optional=templinst)_ZN5boost8signals26detail12signal0_implIvNS0_19optional_last_valueIvEEiSt4lessIiENS_8functionIFvvEEENS7_IFvRKNS0_10connectionEEEENS0_5mutexEE16invocation_stateC2ERKNS1_12grouped_listIiS6_NS_10shared_ptrINS1_15connection_bodyISt4pairINS1_15slot_meta_groupENS_8optionalIiEEENS0_5slot0IvS9_EESF_EEEEEERKS4_@Base 1.6
 (optional=templinst)_ZN5boost8signals26detail12signal0_implIvNS0_19optional_last_valueIvEEiSt4lessIiENS_8functionIFvvEEENS7_IFvRKNS0_10connectionEEEENS0_5mutexEE16invocation_stateC2ERKSH_RKNS1_12grouped_listIiS6_NS_10shared_ptrINS1_15connection_bodyISt4pairINS1_15slot_meta_groupENS_8optionalIiEEENS0_5slot0IvS9_EESF_EEEEEE@Base 1.6
 (optional=templinst)_ZN5boost8signals26detail12signal0_implIvNS0_19optional_last_valueIvEEiSt4lessIiENS_8functionIFvvEEENS7_IFvRKNS0_10connectionEEEENS0_5mutexEE16invocation_stateD1Ev@Base 1.6
 (optional=templinst)_ZN5boost8signals26detail12signal0_implIvNS0_19optional_last_valueIvEEiSt4lessIiENS_8functionIFvvEEENS7_IFvRKNS0_10connectionEEEENS0_5mutexEE16invocation_stateD2Ev@Base 1.6
 (optional=templinst)_ZN5boost8signals26detail12signal0_implIvNS0_19optional_last_valueIvEEiSt4lessIiENS_8functionIFvvEEENS7_IFvRKNS0_10connectionEEEENS0_5mutexEE18invocation_janitorD1Ev@Base 1.6
 (optional=templinst)_ZN5boost8signals26detail12signal0_implIvNS0_19optional_last_valueIvEEiSt4lessIiENS_8functionIFvvEEENS7_IFvRKNS0_10connectionEEEENS0_5mutexEE18invocation_janitorD2Ev@Base 1.6
 (optional=templinst)_ZN5boost8signals26detail12signal0_implIvNS0_19optional_last_valueIvEEiSt4lessIiENS_8functionIFvvEEENS7_IFvRKNS0_10connectionEEEENS0_5mutexEE20disconnect_all_slotsEv@Base 1.6
 (optional=templinst)_ZN5boost8signals26detail12signal0_implIvNS0_19optional_last_valueIvEEiSt4lessIiENS_8functionIFvvEEENS7_IFvRKNS0_10connectionEEEENS0_5mutexEE21create_new_connectionERKNS0_5slot0IvS9_EE@Base 1.6
 (optional=templinst)_ZN5boost8signals26detail12signal0_implIvNS0_19optional_last_valueIvEEiSt4lessIiENS_8functionIFvvEEENS7_IFvRKNS0_10connectionEEEENS0_5mutexEE35nolock_force_unique_connection_listEv@Base 1.6
 (optional=templinst)_ZN5boost8signals26detail12signal0_implIvNS0_19optional_last_valueIvEEiSt4lessIiENS_8functionIFvvEEENS7_IFvRKNS0_10connectionEEEENS0_5mutexEE7connectERKNS0_5slot0IvS9_EENS0_16connect_positionE@Base 1.6
 (optional=templinst)_ZN5boost8signals26detail12signal0_implIvNS0_19optional_last_valueIvEEiSt4lessIiENS_8functionIFvvEEENS7_IFvRKNS0_10connectionEEEENS0_5mutexEEC1ERKS4_RKS6_@Base 1.6
 (optional=templinst)_ZN5boost8signals26detail12signal0_implIvNS0_19optional_last_valueIvEEiSt4lessIiENS_8functionIFvvEEENS7_IFvRKNS0_10connectionEEEENS0_5mutexEEC2ERKS4_RKS6_@Base 1.6
 (optional=templinst)_ZN5boost8signals26detail12signal0_implIvNS0_19optional_last_valueIvEEiSt4lessIiENS_8functionIFvvEEENS7_IFvRKNS0_10connectionEEEENS0_5mutexEED1Ev@Base 1.6
 (optional=templinst)_ZN5boost8signals26detail12signal0_implIvNS0_19optional_last_valueIvEEiSt4lessIiENS_8functionIFvvEEENS7_IFvRKNS0_10connectionEEEENS0_5mutexEED2Ev@Base 1.6
 (optional=templinst)_ZN5boost8signals26detail12signal0_implIvNS0_19optional_last_valueIvEEiSt4lessIiENS_8functionIFvvEEENS7_IFvRKNS0_10connectionEEEENS0_5mutexEEclEv@Base 1.6
 (optional=templinst)_ZN5boost8signals26detail15connection_bodyISt4pairINS1_15slot_meta_groupENS_8optionalIiEEENS0_5slot0IvNS_8functionIFvvEEEEENS0_5mutexEE4lockEv@Base 1.6
 (optional=templinst)_ZN5boost8signals26detail15connection_bodyISt4pairINS1_15slot_meta_groupENS_8optionalIiEEENS0_5slot0IvNS_8functionIFvvEEEEENS0_5mutexEE6unlockEv@Base 1.6
 (optional=templinst)_ZN5boost8signals26detail15connection_bodyISt4pairINS1_15slot_meta_groupENS_8optionalIiEEENS0_5slot0IvNS_8functionIFvvEEEEENS0_5mutexEEC1ERKSC_@Base 1.6
 (optional=templinst)_ZN5boost8signals26detail15connection_bodyISt4pairINS1_15slot_meta_groupENS_8optionalIiEEENS0_5slot0IvNS_8functionIFvvEEEEENS0_5mutexEEC2ERKSC_@Base 1.6
 (optional=templinst)_ZN5boost8signals26detail15connection_bodyISt4pairINS1_15slot_meta_groupENS_8optionalIiEEENS0_5slot0IvNS_8functionIFvvEEEEENS0_5mutexEED0Ev@Base 1.6
 (optional=templinst)_ZN5boost8signals26detail15connection_bodyISt4pairINS1_15slot_meta_groupENS_8optionalIiEEENS0_5slot0IvNS_8functionIFvvEEEEENS0_5mutexEED1Ev@Base 1.6
 (optional=templinst)_ZN5boost8signals26detail15connection_bodyISt4pairINS1_15slot_meta_groupENS_8optionalIiEEENS0_5slot0IvNS_8functionIFvvEEEEENS0_5mutexEED2Ev@Base 1.6
 _ZN5boost8signals26detail20connection_body_baseD0Ev@Base 1.6
 _ZN5boost8signals26detail20connection_body_baseD1Ev@Base 1.6
 _ZN5boost8signals26detail20connection_body_baseD2Ev@Base 1.6
 (optional=templinst)_ZN5boost8signals26detail24slot_call_iterator_cacheINS1_9void_typeENS1_12signal0_implIvNS0_19optional_last_valueIvEEiSt4lessIiENS_8functionIFvvEEENS9_IFvRKNS0_10connectionEEEENS0_5mutexEE12slot_invokerEED1Ev@Base 1.6
 (optional=templinst)_ZN5boost8signals26detail24slot_call_iterator_cacheINS1_9void_typeENS1_12signal0_implIvNS0_19optional_last_valueIvEEiSt4lessIiENS_8functionIFvvEEENS9_IFvRKNS0_10connectionEEEENS0_5mutexEE12slot_invokerEED2Ev@Base 1.6
 (optional=templinst)_ZN5boost8signals26signalIFvvENS0_19optional_last_valueIvEEiSt4lessIiENS_8functionIS2_EENS7_IFvRKNS0_10connectionEEEENS0_5mutexEED0Ev@Base 1.6
 (optional=templinst)_ZN5boost8signals26signalIFvvENS0_19optional_last_valueIvEEiSt4lessIiENS_8functionIS2_EENS7_IFvRKNS0_10connectionEEEENS0_5mutexEED1Ev@Base 1.6
 (optional=templinst)_ZN5boost8signals26signalIFvvENS0_19optional_last_valueIvEEiSt4lessIiENS_8functionIS2_EENS7_IFvRKNS0_10connectionEEEENS0_5mutexEED2Ev@Base 1.6
 (optional=templinst)_ZN5boost8signals27signal0IvNS0_19optional_last_valueIvEEiSt4lessIiENS_8functionIFvvEEENS6_IFvRKNS0_10connectionEEEENS0_5mutexEEC1ERKS3_RKS5_@Base 1.6
 (optional=templinst)_ZN5boost8signals27signal0IvNS0_19optional_last_valueIvEEiSt4lessIiENS_8functionIFvvEEENS6_IFvRKNS0_10connectionEEEENS0_5mutexEEC2ERKS3_RKS5_@Base 1.6
 (optional=templinst)_ZN5boost8signals27signal0IvNS0_19optional_last_valueIvEEiSt4lessIiENS_8functionIFvvEEENS6_IFvRKNS0_10connectionEEEENS0_5mutexEED0Ev@Base 1.6
 (optional=templinst)_ZN5boost8signals27signal0IvNS0_19optional_last_valueIvEEiSt4lessIiENS_8functionIFvvEEENS6_IFvRKNS0_10connectionEEEENS0_5mutexEED1Ev@Base 1.6
 (optional=templinst)_ZN5boost8signals27signal0IvNS0_19optional_last_valueIvEEiSt4lessIiENS_8functionIFvvEEENS6_IFvRKNS0_10connectionEEEENS0_5mutexEED2Ev@Base 1.6
 (optional=templinst)_ZN5boost9algorithm10iter_splitISt6vectorISsSaISsEEPcNS0_6detail13token_finderFINS6_10is_any_ofFIcEEEEEERT_SC_RT0_T1_@Base 1.6
 (optional=templinst)_ZN5boost9algorithm14split_iteratorIPcED1Ev@Base 1.6
 (optional=templinst)_ZN5boost9algorithm14split_iteratorIPcED2Ev@Base 1.6
 (optional=templinst)_ZN5boost9algorithm6detail10is_any_ofFIcED1Ev@Base 1.6
 (optional=templinst)_ZN5boost9algorithm6detail10is_any_ofFIcED2Ev@Base 1.6
 (optional=templinst)_ZN5boost9algorithm6detail13token_finderFINS1_10is_any_ofFIcEEED1Ev@Base 1.6
 (optional=templinst)_ZN5boost9algorithm6detail13token_finderFINS1_10is_any_ofFIcEEED2Ev@Base 1.6
 (optional=templinst)_ZN5boost9date_time14microsec_clockINS_10posix_time5ptimeEE11create_timeEPFP2tmPKlS6_E@Base 1.6
 (optional=templinst)_ZN5boost9date_time16counted_time_repINS_10posix_time33millisec_posix_time_system_configEEC1ERKNS_9gregorian4dateERKNS2_13time_durationE@Base 1.6
 (optional=templinst)_ZN5boost9date_time16counted_time_repINS_10posix_time33millisec_posix_time_system_configEEC2ERKNS_9gregorian4dateERKNS2_13time_durationE@Base 1.6
 (optional=templinst)_ZN5boost9date_time19counted_time_systemINS0_16counted_time_repINS_10posix_time33millisec_posix_time_system_configEEEE14subtract_timesERKS5_S8_@Base 1.6
 (optional=templinst)_ZN5boost9date_time22time_resolution_traitsINS0_37time_resolution_traits_adapted64_implELNS0_16time_resolutionsE5ELl1000000ELt6EiE13to_tick_countEiiil@Base 1.6
 (optional=templinst)_ZN5boost9date_time23gregorian_calendar_baseINS0_19year_month_day_baseINS_9gregorian9greg_yearENS3_10greg_monthENS3_8greg_dayEEEjE10day_numberERKS7_@Base 1.6
 (optional=templinst)_ZN5boost9date_time23gregorian_calendar_baseINS0_19year_month_day_baseINS_9gregorian9greg_yearENS3_10greg_monthENS3_8greg_dayEEEjE16end_of_month_dayES4_S5_@Base 1.6
 _ZN5boost9date_time6c_time6gmtimeEPKlP2tm@Base 1.6
 _ZN5boost9date_time6c_time9localtimeEPKlP2tm@Base 1.6
 _ZN5boost9exceptionD0Ev@Base 1.6
 _ZN5boost9exceptionD1Ev@Base 1.6
 _ZN5boost9exceptionD2Ev@Base 1.6
 (optional=templinst)_ZN5boost9function0IvE11move_assignERS1_@Base 1.6
 (optional=templinst)_ZN5boost9function0IvE13assign_to_ownERKS1_@Base 1.6
 (optional=templinst)_ZN5boost9function0IvE4swapERS1_@Base 1.6
 (optional=templinst)_ZN5boost9function0IvE5clearEv@Base 1.6
 (optional=templinst)_ZN5boost9function2INS_14iterator_rangeIPcEES2_S2_E5clearEv@Base 1.6
 _ZN5boost9gregorian16bad_day_of_monthC1ERKSs@Base 1.6
 _ZN5boost9gregorian16bad_day_of_monthC1Ev@Base 1.6
 _ZN5boost9gregorian16bad_day_of_monthC2ERKSs@Base 1.6
 _ZN5boost9gregorian16bad_day_of_monthC2Ev@Base 1.6
 _ZN5boost9gregorian16bad_day_of_monthD0Ev@Base 1.6
 _ZN5boost9gregorian16bad_day_of_monthD1Ev@Base 1.6
 _ZN5boost9gregorian16bad_day_of_monthD2Ev@Base 1.6
 _ZN5boost9gregorian4dateC1ENS0_9greg_yearENS0_10greg_monthENS0_8greg_dayE@Base 1.6
 _ZN5boost9gregorian4dateC2ENS0_9greg_yearENS0_10greg_monthENS0_8greg_dayE@Base 1.6
 _ZN5boost9gregorian8bad_yearC1Ev@Base 1.6
 _ZN5boost9gregorian8bad_yearC2Ev@Base 1.6
 _ZN5boost9gregorian8bad_yearD0Ev@Base 1.6
 _ZN5boost9gregorian8bad_yearD1Ev@Base 1.6
 _ZN5boost9gregorian8bad_yearD2Ev@Base 1.6
 _ZN5boost9gregorian9bad_monthC1Ev@Base 1.6
 _ZN5boost9gregorian9bad_monthC2Ev@Base 1.6
 _ZN5boost9gregorian9bad_monthD0Ev@Base 1.6
 _ZN5boost9gregorian9bad_monthD1Ev@Base 1.6
 _ZN5boost9gregorian9bad_monthD2Ev@Base 1.6
 _ZN8std_msgs6HeaderD1Ev@Base 1.6
 _ZN8std_msgs6HeaderD2Ev@Base 1.6
 _ZNK3pcl10RangeImage10getOverlapERKS0_RKN5Eigen9TransformIfLi3ELi2ELi0EEEifi@Base 1.6
 _ZNK3pcl10RangeImage10isMaxRangeEii@Base 1.6
 _ZNK3pcl10RangeImage10isObservedEii@Base 1.6
 _ZNK3pcl10RangeImage11getSubImageEiiiiiRS0_@Base 1.6
 _ZNK3pcl10RangeImage12getHalfImageERS0_@Base 1.6
 _ZNK3pcl10RangeImage13getImagePointERKN5Eigen6MatrixIfLi3ELi1ELi0ELi3ELi1EEERfS6_S6_@Base 1.6
 _ZNK3pcl10RangeImage13getImagePointERKN5Eigen6MatrixIfLi3ELi1ELi0ELi3ELi1EEERiS6_@Base 1.6
 _ZNK3pcl10RangeImage14getRangesArrayEv@Base 1.6
 _ZNK3pcl10RangeImage15getBlurredImageEiRS0_@Base 1.6
 _ZNK3pcl10RangeImage15getMinMaxRangesERfS1_@Base 1.6
 _ZNK3pcl10RangeImage16calculate3DPointEfffRN5Eigen6MatrixIfLi3ELi1ELi0ELi3ELi1EEE@Base 1.6
 _ZNK3pcl10RangeImage16getIntegralImageERPfRPi@Base 1.6
 _ZNK3pcl10RangeImage21getSurfaceAngleChangeEiiiRfS1_@Base 1.6
 _ZNK3pcl10RangeImage21getSurfaceInformationEiiiRKN5Eigen6MatrixIfLi3ELi1ELi0ELi3ELi1EEEiiRfRS3_S7_S7_PS3_S8_S8_@Base 1.6
 _ZNK3pcl10RangeImage23getAcutenessValueImagesEiRPfS2_@Base 1.6
 _ZNK3pcl10RangeImage27getSurfaceAngleChangeImagesEiRPfS2_@Base 1.6
 _ZNK3pcl10RangeImage28getNormalForClosestNeighborsEiiiRKN5Eigen6MatrixIfLi3ELi1ELi0ELi3ELi1EEEiRS3_PS3_i@Base 1.6
 _ZNK3pcl10RangeImage32getInterpolatedSurfaceProjectionERKN5Eigen6MatrixIfLi3ELi1ELi0ELi3ELi1EEEif@Base 1.6
 _ZNK3pcl10RangeImage32getInterpolatedSurfaceProjectionERKN5Eigen9TransformIfLi3ELi2ELi0EEEif@Base 1.6
 _ZNK3pcl10RangeImage32getRangeImageWithSmoothedSurfaceEiRS0_@Base 1.6
 _ZNK3pcl10RangeImage33getBlurredImageUsingIntegralImageEiPfPiRS0_@Base 1.6
 _ZNK3pcl10RangeImage35getNormalBasedUprightTransformationERKN5Eigen6MatrixIfLi3ELi1ELi0ELi3ELi1EEEfRNS1_9TransformIfLi3ELi2ELi0EEE@Base 1.6
 _ZNK3pcl10RangeImage38getImpactAngleImageBasedOnLocalNormalsEi@Base 1.6
 _ZNK3pcl10RangeImage40getTransformationToViewerCoordinateFrameERKN5Eigen6MatrixIfLi3ELi1ELi0ELi3ELi1EEERNS1_9TransformIfLi3ELi2ELi0EEE@Base 1.6
 _ZNK3pcl10RangeImage6getNewEv@Base 1.6
 _ZNK3pcl10RangeImage8getPointEiiRN5Eigen6MatrixIfLi3ELi1ELi0ELi3ELi1EEE@Base 1.6
 (optional=templinst)_ZNK3pcl13VectorAverageIfLi3EE5doPCAERN5Eigen6MatrixIfLi3ELi1ELi0ELi3ELi1EEES5_S5_S5_@Base 1.6
 _ZNK3pcl14GaussianKernel12convolveColsERKNS_10PointCloudIfEERKN5Eigen6MatrixIfLin1ELi1ELi0ELin1ELi1EEERS2_@Base 1.6
 _ZNK3pcl14GaussianKernel12convolveRowsERKNS_10PointCloudIfEERKN5Eigen6MatrixIfLin1ELi1ELi0ELin1ELi1EEERS2_@Base 1.6
 _ZNK3pcl14GaussianKernel7computeEfRN5Eigen6MatrixIfLin1ELi1ELi0ELin1ELi1EEES4_j@Base 1.6
 _ZNK3pcl14GaussianKernel7computeEfRN5Eigen6MatrixIfLin1ELi1ELi0ELin1ELi1EEEj@Base 1.6
 _ZNK3pcl16PosesFromMatches33estimatePosesUsing1CorrespondenceERKSt6vectorINS_21PointCorrespondence6DEN5Eigen17aligned_allocatorIS2_EEEiRS1_INS0_12PoseEstimateENS4_IS9_EEE@Base 1.6
 _ZNK3pcl16PosesFromMatches34estimatePosesUsing2CorrespondencesERKSt6vectorINS_21PointCorrespondence6DEN5Eigen17aligned_allocatorIS2_EEEiiRS1_INS0_12PoseEstimateENS4_IS9_EEE@Base 1.6
 _ZNK3pcl16PosesFromMatches34estimatePosesUsing3CorrespondencesERKSt6vectorINS_21PointCorrespondence6DEN5Eigen17aligned_allocatorIS2_EEEiiRS1_INS0_12PoseEstimateENS4_IS9_EEE@Base 1.6
 _ZNK3pcl16RangeImagePlanar11getSubImageEiiiiiRNS_10RangeImageE@Base 1.6
 _ZNK3pcl16RangeImagePlanar12getHalfImageERNS_10RangeImageE@Base 1.6
 _ZNK3pcl16RangeImagePlanar13getImagePointERKN5Eigen6MatrixIfLi3ELi1ELi0ELi3ELi1EEERfS6_S6_@Base 1.6
 _ZNK3pcl16RangeImagePlanar16calculate3DPointEfffRN5Eigen6MatrixIfLi3ELi1ELi0ELi3ELi1EEE@Base 1.6
 _ZNK3pcl16RangeImagePlanar6getNewEv@Base 1.6
 (optional=templinst)_ZNK5Eigen10MatrixBaseINS_13CwiseBinaryOpINS_8internal20scalar_difference_opIfEEKNS_6MatrixIfLi3ELi1ELi0ELi3ELi1EEES7_EEE10normalizedEv@Base 1.6
 (optional=templinst)_ZNK5Eigen10MatrixBaseINS_5BlockINS1_INS_6MatrixIfLin1ELin1ELi0ELin1ELin1EEELin1ELi1ELb1ELb1EEELin1ELi1ELb0ELb1EEEE15makeHouseholderINS_11VectorBlockIS5_Lin1EEEEEvRT_RfSC_@Base 1.6
 (optional=templinst)_ZNK5Eigen10MatrixBaseINS_5BlockINS_6MatrixIfLi3ELi3ELi0ELi3ELi3EEELi1ELi3ELb0ELb1EEEE5crossIS4_EENS5_25cross_product_return_typeIT_E4typeERKNS0_IS8_EE@Base 1.6
 (optional=templinst)_ZNK5Eigen10MatrixBaseINS_5BlockINS_6MatrixIfLi3ELi3ELi0ELi3ELi3EEELi3ELi1ELb1ELb1EEEE5crossIS4_EENS5_25cross_product_return_typeIT_E4typeERKNS0_IS8_EE@Base 1.6
 (optional=templinst)_ZNK5Eigen10MatrixBaseINS_6MatrixIfLi3ELi1ELi0ELi3ELi1EEEE10normalizedEv@Base 1.6
 (optional=templinst)_ZNK5Eigen8internal12solve_retvalINS_19ColPivHouseholderQRINS_6MatrixIfLin1ELin1ELi0ELin1ELin1EEEEENS3_IfLin1ELi1ELi0ELin1ELi1EEEE6evalToIS6_EEvRT_@Base 1.6
 (optional=templinst)_ZNK5Eigen9TransformIfLi3ELi2ELi0EE7inverseENS_15TransformTraitsE@Base 1.6
 _ZNK5boost10lock_error4whatEv@Base 1.6
 _ZNK5boost15condition_error4whatEv@Base 1.6
 (optional=templinst)_ZNK5boost16exception_detail10clone_implINS0_10bad_alloc_EE5cloneEv@Base 1.6
 (optional=templinst)_ZNK5boost16exception_detail10clone_implINS0_10bad_alloc_EE7rethrowEv@Base 1.6
 (optional=templinst)_ZNK5boost16exception_detail10clone_implINS0_14bad_exception_EE5cloneEv@Base 1.6
 (optional=templinst)_ZNK5boost16exception_detail10clone_implINS0_14bad_exception_EE7rethrowEv@Base 1.6
 (optional=templinst)_ZNK5boost16exception_detail10clone_implINS0_19error_info_injectorINS_10lock_errorEEEE5cloneEv@Base 1.6
 (optional=templinst)_ZNK5boost16exception_detail10clone_implINS0_19error_info_injectorINS_10lock_errorEEEE7rethrowEv@Base 1.6
 (optional=templinst)_ZNK5boost16exception_detail10clone_implINS0_19error_info_injectorINS_15condition_errorEEEE5cloneEv@Base 1.6
 (optional=templinst)_ZNK5boost16exception_detail10clone_implINS0_19error_info_injectorINS_15condition_errorEEEE7rethrowEv@Base 1.6
 (optional=templinst)_ZNK5boost16exception_detail10clone_implINS0_19error_info_injectorINS_17bad_function_callEEEE5cloneEv@Base 1.6
 (optional=templinst)_ZNK5boost16exception_detail10clone_implINS0_19error_info_injectorINS_17bad_function_callEEEE7rethrowEv@Base 1.6
 (optional=templinst)_ZNK5boost16exception_detail10clone_implINS0_19error_info_injectorINS_21thread_resource_errorEEEE5cloneEv@Base 1.6
 (optional=templinst)_ZNK5boost16exception_detail10clone_implINS0_19error_info_injectorINS_21thread_resource_errorEEEE7rethrowEv@Base 1.6
 (optional=templinst)_ZNK5boost16exception_detail10clone_implINS0_19error_info_injectorINS_9gregorian16bad_day_of_monthEEEE5cloneEv@Base 1.6
 (optional=templinst)_ZNK5boost16exception_detail10clone_implINS0_19error_info_injectorINS_9gregorian16bad_day_of_monthEEEE7rethrowEv@Base 1.6
 (optional=templinst)_ZNK5boost16exception_detail10clone_implINS0_19error_info_injectorINS_9gregorian8bad_yearEEEE5cloneEv@Base 1.6
 (optional=templinst)_ZNK5boost16exception_detail10clone_implINS0_19error_info_injectorINS_9gregorian8bad_yearEEEE7rethrowEv@Base 1.6
 (optional=templinst)_ZNK5boost16exception_detail10clone_implINS0_19error_info_injectorINS_9gregorian9bad_monthEEEE5cloneEv@Base 1.6
 (optional=templinst)_ZNK5boost16exception_detail10clone_implINS0_19error_info_injectorINS_9gregorian9bad_monthEEEE7rethrowEv@Base 1.6
 (optional=templinst)_ZNK5boost16exception_detail10clone_implINS0_19error_info_injectorISt13runtime_errorEEE5cloneEv@Base 1.6
 (optional=templinst)_ZNK5boost16exception_detail10clone_implINS0_19error_info_injectorISt13runtime_errorEEE7rethrowEv@Base 1.6
 _ZNK5boost21thread_resource_error4whatEv@Base 1.6
 (optional=templinst)_ZNK5boost23enable_shared_from_thisINS_6detail16thread_data_baseEE22_internal_accept_ownerIS2_NS1_11thread_dataINS_3_bi6bind_tIvNS_4_mfi3mf0IvN3pcl11TimeTriggerEEENS6_5list1INS6_5valueIPSB_EEEEEEEEEEvPKNS_10shared_ptrIT_EEPT0_@Base 1.6
 (optional=templinst)_ZNK5boost4_mfi3mf0IvN3pcl11TimeTriggerEEclEPS3_@Base 1.6
 (optional=templinst)_ZNK5boost8signals26detail12signal0_implIvNS0_19optional_last_valueIvEEiSt4lessIiENS_8functionIFvvEEENS7_IFvRKNS0_10connectionEEEENS0_5mutexEE18get_readable_stateEv@Base 1.6
 (optional=templinst)_ZNK5boost8signals26detail12signal0_implIvNS0_19optional_last_valueIvEEiSt4lessIiENS_8functionIFvvEEENS7_IFvRKNS0_10connectionEEEENS0_5mutexEE25force_cleanup_connectionsEPKNS1_12grouped_listIiS6_NS_10shared_ptrINS1_15connection_bodyISt4pairINS1_15slot_meta_groupENS_8optionalIiEEENS0_5slot0IvS9_EESF_EEEEEE@Base 1.6
 (optional=templinst)_ZNK5boost8signals26detail12signal0_implIvNS0_19optional_last_valueIvEEiSt4lessIiENS_8functionIFvvEEENS7_IFvRKNS0_10connectionEEEENS0_5mutexEE26nolock_cleanup_connectionsEbj@Base 1.6
 (optional=templinst)_ZNK5boost8signals26detail12signal0_implIvNS0_19optional_last_valueIvEEiSt4lessIiENS_8functionIFvvEEENS7_IFvRKNS0_10connectionEEEENS0_5mutexEE31nolock_cleanup_connections_fromEbRKSt14_List_iteratorINS_10shared_ptrINS1_15connection_bodyISt4pairINS1_15slot_meta_groupENS_8optionalIiEEENS0_5slot0IvS9_EESF_EEEEEj@Base 1.6
 (optional=templinst)_ZNK5boost8signals26detail15connection_bodyISt4pairINS1_15slot_meta_groupENS_8optionalIiEEENS0_5slot0IvNS_8functionIFvvEEEEENS0_5mutexEE27nolock_grab_tracked_objectsINS_24function_output_iteratorINS1_12does_nothingEEEEEvT_@Base 1.6
 (optional=templinst)_ZNK5boost8signals26detail15connection_bodyISt4pairINS1_15slot_meta_groupENS_8optionalIiEEENS0_5slot0IvNS_8functionIFvvEEEEENS0_5mutexEE27nolock_grab_tracked_objectsISt20back_insert_iteratorINS1_11auto_bufferINS_7variantINS_10shared_ptrIvEENS1_23foreign_void_shared_ptrENS_6detail7variant5void_ESO_SO_SO_SO_SO_SO_SO_SO_SO_SO_SO_SO_SO_SO_SO_SO_SO_EENS1_15store_n_objectsILj10EEENS1_19default_grow_policyESaISP_EEEEEEvT_@Base 1.6
 (optional=templinst)_ZNK5boost8signals26detail15connection_bodyISt4pairINS1_15slot_meta_groupENS_8optionalIiEEENS0_5slot0IvNS_8functionIFvvEEEEENS0_5mutexEE9connectedEv@Base 1.6
 (optional=templinst)_ZNK5boost8signals26detail20slot_call_iterator_tINS1_12signal0_implIvNS0_19optional_last_valueIvEEiSt4lessIiENS_8functionIFvvEEENS8_IFvRKNS0_10connectionEEEENS0_5mutexEE12slot_invokerESt14_List_iteratorINS_10shared_ptrINS1_15connection_bodyISt4pairINS1_15slot_meta_groupENS_8optionalIiEEENS0_5slot0IvSA_EESG_EEEEEST_E18lock_next_callableEv@Base 1.6
 (optional=templinst)_ZNK5boost8signals26detail21lock_weak_ptr_visitorclINS1_21foreign_void_weak_ptrEEENS_7variantINS_10shared_ptrIvEENS1_23foreign_void_shared_ptrENS_6detail7variant5void_ESB_SB_SB_SB_SB_SB_SB_SB_SB_SB_SB_SB_SB_SB_SB_SB_SB_EERKT_@Base 1.6
 (optional=templinst)_ZNK5boost8signals27signal0IvNS0_19optional_last_valueIvEEiSt4lessIiENS_8functionIFvvEEENS6_IFvRKNS0_10connectionEEEENS0_5mutexEE10lock_pimplEv@Base 1.6
 (optional=templinst)_ZNK5boost9date_time11int_adapterIlEmiIlEES2_RKNS1_IT_EE@Base 1.6
 (optional=templinst)_ZNK5boost9date_time11int_adapterIlEplIjEES2_RKNS1_IT_EE@Base 1.6
 (optional=templinst)_ZNKSt6vectorIN3pcl14PointWithRangeEN5Eigen29aligned_allocator_indirectionIS1_EEE12_M_check_lenEmPKc@Base 1.6
 (optional=templinst)_ZNKSt6vectorIN3pcl18PointWithViewpointEN5Eigen29aligned_allocator_indirectionIS1_EEE12_M_check_lenEmPKc@Base 1.6
 (optional=templinst)_ZNKSt6vectorIfSaIfEE12_M_check_lenEmPKc@Base 1.6
 (optional=templinst)_ZNSs12_S_constructIPcEES0_T_S1_RKSaIcESt20forward_iterator_tag@Base 1.6
 (optional=templinst)_ZNSt10_List_baseIN5boost10shared_ptrINS0_8signals26detail15connection_bodyISt4pairINS3_15slot_meta_groupENS0_8optionalIiEEENS2_5slot0IvNS0_8functionIFvvEEEEENS2_5mutexEEEEESaISH_EE8_M_clearEv@Base 1.6
 (optional=templinst)_ZNSt11__copy_moveILb0ELb1ESt26random_access_iterator_tagE8__copy_mIfEEPT_PKS3_S6_S4_@Base 1.6
 (optional=templinst)_ZNSt12_Destroy_auxILb0EE9__destroyIPN11sensor_msgs10PointFieldEEEvT_S5_@Base 1.6
 (optional=templinst)_ZNSt12_Destroy_auxILb0EE9__destroyIPN5boost7variantINS2_10shared_ptrIvEENS2_8signals26detail23foreign_void_shared_ptrENS2_6detail7variant5void_ESB_SB_SB_SB_SB_SB_SB_SB_SB_SB_SB_SB_SB_SB_SB_SB_SB_EEEEvT_SE_@Base 1.6
 (optional=templinst)_ZNSt12_Destroy_auxILb0EE9__destroyIPN5boost7variantINS2_8weak_ptrIvEENS2_8signals26detail21foreign_void_weak_ptrENS2_6detail7variant5void_ESB_SB_SB_SB_SB_SB_SB_SB_SB_SB_SB_SB_SB_SB_SB_SB_SB_EEEEvT_SE_@Base 1.6
 (optional=templinst)_ZNSt12_Destroy_auxILb0EE9__destroyIPSsEEvT_S3_@Base 1.6
 (optional=templinst)_ZNSt12_Vector_baseIN5boost7variantINS0_8weak_ptrIvEENS0_8signals26detail21foreign_void_weak_ptrENS0_6detail7variant5void_ES9_S9_S9_S9_S9_S9_S9_S9_S9_S9_S9_S9_S9_S9_S9_S9_S9_EESaISA_EED1Ev@Base 1.6
 (optional=templinst)_ZNSt12_Vector_baseIN5boost7variantINS0_8weak_ptrIvEENS0_8signals26detail21foreign_void_weak_ptrENS0_6detail7variant5void_ES9_S9_S9_S9_S9_S9_S9_S9_S9_S9_S9_S9_S9_S9_S9_S9_S9_EESaISA_EED2Ev@Base 1.6
 _ZNSt13runtime_errorC1ERKS_@Base 1.6
 _ZNSt13runtime_errorC2ERKS_@Base 1.6
 (optional=templinst)_ZNSt20__uninitialized_copyILb0EE13__uninit_copyIN9__gnu_cxx17__normal_iteratorIPKN5boost7variantINS4_8weak_ptrIvEENS4_8signals26detail21foreign_void_weak_ptrENS4_6detail7variant5void_ESD_SD_SD_SD_SD_SD_SD_SD_SD_SD_SD_SD_SD_SD_SD_SD_SD_EESt6vectorISE_SaISE_EEEEPSE_EET0_T_SN_SM_@Base 1.6
 (optional=templinst)_ZNSt20__uninitialized_copyILb0EE13__uninit_copyIPN5boost7variantINS2_10shared_ptrIvEENS2_8signals26detail23foreign_void_shared_ptrENS2_6detail7variant5void_ESB_SB_SB_SB_SB_SB_SB_SB_SB_SB_SB_SB_SB_SB_SB_SB_SB_EESD_EET0_T_SF_SE_@Base 1.6
 (optional=templinst)_ZNSt3mapISt4pairIN5boost8signals26detail15slot_meta_groupENS1_8optionalIiEEESt14_List_iteratorINS1_10shared_ptrINS3_15connection_bodyIS7_NS2_5slot0IvNS1_8functionIFvvEEEEENS2_5mutexEEEEEENS3_14group_key_lessIiSt4lessIiEEESaIS0_IKS7_SJ_EEEixERSO_@Base 1.6
 (optional=templinst)_ZNSt4listIN5boost10shared_ptrINS0_8signals26detail15connection_bodyISt4pairINS3_15slot_meta_groupENS0_8optionalIiEEENS2_5slot0IvNS0_8functionIFvvEEEEENS2_5mutexEEEEESaISH_EEC1ERKSJ_@Base 1.6
 (optional=templinst)_ZNSt4listIN5boost10shared_ptrINS0_8signals26detail15connection_bodyISt4pairINS3_15slot_meta_groupENS0_8optionalIiEEENS2_5slot0IvNS0_8functionIFvvEEEEENS2_5mutexEEEEESaISH_EEC2ERKSJ_@Base 1.6
 (optional=templinst)_ZNSt6vectorIN11sensor_msgs10PointFieldESaIS1_EE14_M_fill_insertEN9__gnu_cxx17__normal_iteratorIPS1_S3_EEmRKS1_@Base 1.6
 (optional=templinst)_ZNSt6vectorIN11sensor_msgs10PointFieldESaIS1_EEaSERKS3_@Base 1.6
 (optional=templinst)_ZNSt6vectorIN3pcl14PointWithRangeEN5Eigen17aligned_allocatorIS1_EEED1Ev@Base 1.6
 (optional=templinst)_ZNSt6vectorIN3pcl14PointWithRangeEN5Eigen17aligned_allocatorIS1_EEED2Ev@Base 1.6
 (optional=templinst)_ZNSt6vectorIN3pcl14PointWithRangeEN5Eigen29aligned_allocator_indirectionIS1_EEE14_M_fill_insertEN9__gnu_cxx17__normal_iteratorIPS1_S5_EEmRKS1_@Base 1.6
 (optional=templinst)_ZNSt6vectorIN3pcl14PointWithRangeEN5Eigen29aligned_allocator_indirectionIS1_EEEaSERKS5_@Base 1.6
 (optional=templinst)_ZNSt6vectorIN3pcl16PosesFromMatches12PoseEstimateEN5Eigen29aligned_allocator_indirectionIS2_EEE13_M_insert_auxEN9__gnu_cxx17__normal_iteratorIPS2_S6_EERKS2_@Base 1.6
 (optional=templinst)_ZNSt6vectorIN3pcl18PointWithViewpointEN5Eigen29aligned_allocator_indirectionIS1_EEE13_M_insert_auxEN9__gnu_cxx17__normal_iteratorIPS1_S5_EERKS1_@Base 1.6
 (optional=templinst)_ZNSt6vectorIN5boost7variantINS0_8weak_ptrIvEENS0_8signals26detail21foreign_void_weak_ptrENS0_6detail7variant5void_ES9_S9_S9_S9_S9_S9_S9_S9_S9_S9_S9_S9_S9_S9_S9_S9_S9_EESaISA_EEC1ERKSC_@Base 1.6
 (optional=templinst)_ZNSt6vectorIN5boost7variantINS0_8weak_ptrIvEENS0_8signals26detail21foreign_void_weak_ptrENS0_6detail7variant5void_ES9_S9_S9_S9_S9_S9_S9_S9_S9_S9_S9_S9_S9_S9_S9_S9_S9_EESaISA_EEC2ERKSC_@Base 1.6
 (optional=templinst)_ZNSt6vectorIN5boost7variantINS0_8weak_ptrIvEENS0_8signals26detail21foreign_void_weak_ptrENS0_6detail7variant5void_ES9_S9_S9_S9_S9_S9_S9_S9_S9_S9_S9_S9_S9_S9_S9_S9_S9_EESaISA_EED1Ev@Base 1.6
 (optional=templinst)_ZNSt6vectorIN5boost7variantINS0_8weak_ptrIvEENS0_8signals26detail21foreign_void_weak_ptrENS0_6detail7variant5void_ES9_S9_S9_S9_S9_S9_S9_S9_S9_S9_S9_S9_S9_S9_S9_S9_S9_EESaISA_EED2Ev@Base 1.6
 (optional=templinst)_ZNSt6vectorIPKN11sensor_msgs10PointFieldESaIS3_EE13_M_insert_auxEN9__gnu_cxx17__normal_iteratorIPS3_S5_EERKS3_@Base 1.6
 (optional=templinst)_ZNSt6vectorIPKN11sensor_msgs10PointFieldESaIS3_EED1Ev@Base 1.6
 (optional=templinst)_ZNSt6vectorIPKN11sensor_msgs10PointFieldESaIS3_EED2Ev@Base 1.6
 (optional=templinst)_ZNSt6vectorISsSaISsEE13_M_insert_auxEN9__gnu_cxx17__normal_iteratorIPSsS1_EERKSs@Base 1.6
 (optional=templinst)_ZNSt6vectorISsSaISsEED1Ev@Base 1.6
 (optional=templinst)_ZNSt6vectorISsSaISsEED2Ev@Base 1.6
 (optional=templinst)_ZNSt6vectorIdSaIdEE13_M_insert_auxEN9__gnu_cxx17__normal_iteratorIPdS1_EERKd@Base 1.6
 (optional=templinst)_ZNSt6vectorIdSaIdEE14_M_fill_insertEN9__gnu_cxx17__normal_iteratorIPdS1_EEmRKd@Base 1.6
 (optional=templinst)_ZNSt6vectorIfN5Eigen17aligned_allocatorIfEEED1Ev@Base 1.6
 (optional=templinst)_ZNSt6vectorIfN5Eigen17aligned_allocatorIfEEED2Ev@Base 1.6
 (optional=templinst)_ZNSt6vectorIfN5Eigen29aligned_allocator_indirectionIfEEE14_M_fill_insertEN9__gnu_cxx17__normal_iteratorIPfS3_EEmRKf@Base 1.6
 (optional=templinst)_ZNSt6vectorIfN5Eigen29aligned_allocator_indirectionIfEEEaSERKS3_@Base 1.6
 (optional=templinst)_ZNSt6vectorIfSaIfEE13_M_insert_auxEN9__gnu_cxx17__normal_iteratorIPfS1_EERKf@Base 1.6
 (optional=templinst)_ZNSt6vectorIfSaIfEE14_M_fill_insertEN9__gnu_cxx17__normal_iteratorIPfS1_EEmRKf@Base 1.6
 (optional=templinst)_ZNSt6vectorIfSaIfEE6resizeEmf@Base 1.6
 (optional=templinst)_ZNSt6vectorIfSaIfEED1Ev@Base 1.6
 (optional=templinst)_ZNSt6vectorIfSaIfEED2Ev@Base 1.6
 (optional=templinst)_ZNSt6vectorIhSaIhEE14_M_fill_insertEN9__gnu_cxx17__normal_iteratorIPhS1_EEmRKh@Base 1.6
 (optional=templinst)_ZNSt6vectorIhSaIhEEaSERKS1_@Base 1.6
 (optional=templinst)_ZNSt6vectorIiSaIiEE13_M_insert_auxEN9__gnu_cxx17__normal_iteratorIPiS1_EERKi@Base 1.6
 (optional=templinst)_ZNSt6vectorIiSaIiEE14_M_fill_insertEN9__gnu_cxx17__normal_iteratorIPiS1_EEmRKi@Base 1.6
 (optional=templinst)_ZNSt6vectorIiSaIiEE6insertEN9__gnu_cxx17__normal_iteratorIPiS1_EERKi@Base 1.6
 (optional=templinst)_ZNSt6vectorIiSaIiEED1Ev@Base 1.6
 (optional=templinst)_ZNSt6vectorIiSaIiEED2Ev@Base 1.6
 (optional=templinst)_ZNSt6vectorIiSaIiEEaSERKS1_@Base 1.6
 (optional=templinst)_ZNSt8_Rb_treeISt4pairIN5boost8signals26detail15slot_meta_groupENS1_8optionalIiEEES0_IKS7_St14_List_iteratorINS1_10shared_ptrINS3_15connection_bodyIS7_NS2_5slot0IvNS1_8functionIFvvEEEEENS2_5mutexEEEEEEESt10_Select1stISL_ENS3_14group_key_lessIiSt4lessIiEEESaISL_EE10_M_insert_EPKSt18_Rb_tree_node_baseSW_RKSL_@Base 1.6
 (optional=templinst)_ZNSt8_Rb_treeISt4pairIN5boost8signals26detail15slot_meta_groupENS1_8optionalIiEEES0_IKS7_St14_List_iteratorINS1_10shared_ptrINS3_15connection_bodyIS7_NS2_5slot0IvNS1_8functionIFvvEEEEENS2_5mutexEEEEEEESt10_Select1stISL_ENS3_14group_key_lessIiSt4lessIiEEESaISL_EE11lower_boundERS8_@Base 1.6
 (optional=templinst)_ZNSt8_Rb_treeISt4pairIN5boost8signals26detail15slot_meta_groupENS1_8optionalIiEEES0_IKS7_St14_List_iteratorINS1_10shared_ptrINS3_15connection_bodyIS7_NS2_5slot0IvNS1_8functionIFvvEEEEENS2_5mutexEEEEEEESt10_Select1stISL_ENS3_14group_key_lessIiSt4lessIiEEESaISL_EE11upper_boundERS8_@Base 1.6
 (optional=templinst)_ZNSt8_Rb_treeISt4pairIN5boost8signals26detail15slot_meta_groupENS1_8optionalIiEEES0_IKS7_St14_List_iteratorINS1_10shared_ptrINS3_15connection_bodyIS7_NS2_5slot0IvNS1_8functionIFvvEEEEENS2_5mutexEEEEEEESt10_Select1stISL_ENS3_14group_key_lessIiSt4lessIiEEESaISL_EE12_M_erase_auxESt23_Rb_tree_const_iteratorISL_E@Base 1.6
 (optional=templinst)_ZNSt8_Rb_treeISt4pairIN5boost8signals26detail15slot_meta_groupENS1_8optionalIiEEES0_IKS7_St14_List_iteratorINS1_10shared_ptrINS3_15connection_bodyIS7_NS2_5slot0IvNS1_8functionIFvvEEEEENS2_5mutexEEEEEEESt10_Select1stISL_ENS3_14group_key_lessIiSt4lessIiEEESaISL_EE16_M_insert_uniqueERKSL_@Base 1.6
 (optional=templinst)_ZNSt8_Rb_treeISt4pairIN5boost8signals26detail15slot_meta_groupENS1_8optionalIiEEES0_IKS7_St14_List_iteratorINS1_10shared_ptrINS3_15connection_bodyIS7_NS2_5slot0IvNS1_8functionIFvvEEEEENS2_5mutexEEEEEEESt10_Select1stISL_ENS3_14group_key_lessIiSt4lessIiEEESaISL_EE17_M_insert_unique_ESt23_Rb_tree_const_iteratorISL_ERKSL_@Base 1.6
 (optional=templinst)_ZNSt8_Rb_treeISt4pairIN5boost8signals26detail15slot_meta_groupENS1_8optionalIiEEES0_IKS7_St14_List_iteratorINS1_10shared_ptrINS3_15connection_bodyIS7_NS2_5slot0IvNS1_8functionIFvvEEEEENS2_5mutexEEEEEEESt10_Select1stISL_ENS3_14group_key_lessIiSt4lessIiEEESaISL_EE7_M_copyEPKSt13_Rb_tree_nodeISL_EPSV_@Base 1.6
 (optional=templinst)_ZNSt8_Rb_treeISt4pairIN5boost8signals26detail15slot_meta_groupENS1_8optionalIiEEES0_IKS7_St14_List_iteratorINS1_10shared_ptrINS3_15connection_bodyIS7_NS2_5slot0IvNS1_8functionIFvvEEEEENS2_5mutexEEEEEEESt10_Select1stISL_ENS3_14group_key_lessIiSt4lessIiEEESaISL_EE8_M_eraseEPSt13_Rb_tree_nodeISL_E@Base 1.6
 (optional=templinst)_ZNSt8_Rb_treeISt4pairIN5boost8signals26detail15slot_meta_groupENS1_8optionalIiEEES0_IKS7_St14_List_iteratorINS1_10shared_ptrINS3_15connection_bodyIS7_NS2_5slot0IvNS1_8functionIFvvEEEEENS2_5mutexEEEEEEESt10_Select1stISL_ENS3_14group_key_lessIiSt4lessIiEEESaISL_EEC1ERKST_@Base 1.6
 (optional=templinst)_ZNSt8_Rb_treeISt4pairIN5boost8signals26detail15slot_meta_groupENS1_8optionalIiEEES0_IKS7_St14_List_iteratorINS1_10shared_ptrINS3_15connection_bodyIS7_NS2_5slot0IvNS1_8functionIFvvEEEEENS2_5mutexEEEEEEESt10_Select1stISL_ENS3_14group_key_lessIiSt4lessIiEEESaISL_EEC2ERKST_@Base 1.6
 (optional=templinst)_ZSt13__adjust_heapIN9__gnu_cxx17__normal_iteratorIPPKN11sensor_msgs10PointFieldESt6vectorIS5_SaIS5_EEEElS5_PFbS5_S5_EEvT_T0_SE_T1_T2_@Base 1.6
 (optional=templinst)_ZSt13__adjust_heapIN9__gnu_cxx17__normal_iteratorIPiSt6vectorIiSaIiEEEEliEvT_T0_S8_T1_@Base 1.6
 (optional=templinst)_ZSt13__adjust_heapIPclcEvT_T0_S2_T1_@Base 1.6
 (optional=templinst)_ZSt13binary_searchIPKccEbT_S2_RKT0_@Base 1.6
 (optional=templinst)_ZSt13copy_backwardIPfS0_ET0_T_S2_S1_@Base 1.6
 (optional=templinst)_ZSt16__insertion_sortIN9__gnu_cxx17__normal_iteratorIPPKN11sensor_msgs10PointFieldESt6vectorIS5_SaIS5_EEEEPFbS5_S5_EEvT_SD_T0_@Base 1.6
 (optional=templinst)_ZSt16__insertion_sortIN9__gnu_cxx17__normal_iteratorIPiSt6vectorIiSaIiEEEEEvT_S7_@Base 1.6
 (optional=templinst)_ZSt16__insertion_sortIPcEvT_S1_@Base 1.6
 (optional=templinst)_ZSt16__introsort_loopIN9__gnu_cxx17__normal_iteratorIPPKN11sensor_msgs10PointFieldESt6vectorIS5_SaIS5_EEEElPFbS5_S5_EEvT_SD_T0_T1_@Base 1.6
 (optional=templinst)_ZSt16__introsort_loopIN9__gnu_cxx17__normal_iteratorIPiSt6vectorIiSaIiEEEElEvT_S7_T0_@Base 1.6
 (optional=templinst)_ZSt16__introsort_loopIPclEvT_S1_T0_@Base 1.6
 (optional=templinst)_ZSt19__move_median_firstIN9__gnu_cxx17__normal_iteratorIPPKN11sensor_msgs10PointFieldESt6vectorIS5_SaIS5_EEEEPFbS5_S5_EEvT_SD_SD_T0_@Base 1.6
 (optional=templinst)_ZSt22__final_insertion_sortIPcEvT_S1_@Base 1.6
 (optional=templinst)_ZSt25__unguarded_linear_insertIN9__gnu_cxx17__normal_iteratorIPPKN11sensor_msgs10PointFieldESt6vectorIS5_SaIS5_EEEEPFbS5_S5_EEvT_T0_@Base 1.6
 (optional=templinst)_ZSt9__find_ifIPcN5boost9algorithm6detail10is_any_ofFIcEEET_S6_S6_T0_St26random_access_iterator_tag@Base 1.6
 _ZTIN3pcl10PointCloudINS_14PointWithRangeEEE@Base 1.6
 _ZTIN3pcl10PointCloudIfEE@Base 1.6
 _ZTIN3pcl10RangeImageE@Base 1.6
 _ZTIN3pcl12PCLExceptionE@Base 1.6
 _ZTIN3pcl16RangeImagePlanarE@Base 1.6
 _ZTIN3pcl28KernelWidthTooSmallExceptionE@Base 1.6
 _ZTIN3pcl9ScopeTimeE@Base 1.6
 _ZTIN3pcl9StopWatchE@Base 1.6
 _ZTIN5boost10lock_errorE@Base 1.6
 _ZTIN5boost12bad_weak_ptrE@Base 1.6
 _ZTIN5boost12noncopyable_11noncopyableE@Base 1.6
 _ZTIN5boost15condition_errorE@Base 1.6
 _ZTIN5boost16exception_detail10bad_alloc_E@Base 1.6
 _ZTIN5boost16exception_detail10clone_baseE@Base 1.6
 _ZTIN5boost16exception_detail10clone_implINS0_10bad_alloc_EEE@Base 1.6
 _ZTIN5boost16exception_detail10clone_implINS0_14bad_exception_EEE@Base 1.6
 _ZTIN5boost16exception_detail10clone_implINS0_19error_info_injectorINS_10lock_errorEEEEE@Base 1.6
 _ZTIN5boost16exception_detail10clone_implINS0_19error_info_injectorINS_15condition_errorEEEEE@Base 1.6
 _ZTIN5boost16exception_detail10clone_implINS0_19error_info_injectorINS_17bad_function_callEEEEE@Base 1.6
 _ZTIN5boost16exception_detail10clone_implINS0_19error_info_injectorINS_21thread_resource_errorEEEEE@Base 1.6
 _ZTIN5boost16exception_detail10clone_implINS0_19error_info_injectorINS_9gregorian16bad_day_of_monthEEEEE@Base 1.6
 _ZTIN5boost16exception_detail10clone_implINS0_19error_info_injectorINS_9gregorian8bad_yearEEEEE@Base 1.6
 _ZTIN5boost16exception_detail10clone_implINS0_19error_info_injectorINS_9gregorian9bad_monthEEEEE@Base 1.6
 _ZTIN5boost16exception_detail10clone_implINS0_19error_info_injectorISt13runtime_errorEEEE@Base 1.6
 _ZTIN5boost16exception_detail14bad_exception_E@Base 1.6
 _ZTIN5boost16exception_detail19error_info_injectorINS_10lock_errorEEE@Base 1.6
 _ZTIN5boost16exception_detail19error_info_injectorINS_15condition_errorEEE@Base 1.6
 _ZTIN5boost16exception_detail19error_info_injectorINS_17bad_function_callEEE@Base 1.6
 _ZTIN5boost16exception_detail19error_info_injectorINS_21thread_resource_errorEEE@Base 1.6
 _ZTIN5boost16exception_detail19error_info_injectorINS_9gregorian16bad_day_of_monthEEE@Base 1.6
 _ZTIN5boost16exception_detail19error_info_injectorINS_9gregorian8bad_yearEEE@Base 1.6
 _ZTIN5boost16exception_detail19error_info_injectorINS_9gregorian9bad_monthEEE@Base 1.6
 _ZTIN5boost16exception_detail19error_info_injectorISt13runtime_errorEE@Base 1.6
 _ZTIN5boost16thread_exceptionE@Base 1.6
 _ZTIN5boost17bad_function_callE@Base 1.6
 _ZTIN5boost18thread_interruptedE@Base 1.6
 _ZTIN5boost21thread_resource_errorE@Base 1.6
 _ZTIN5boost6detail11thread_dataINS_3_bi6bind_tIvNS_4_mfi3mf0IvN3pcl11TimeTriggerEEENS2_5list1INS2_5valueIPS7_EEEEEEEE@Base 1.6
 _ZTIN5boost6detail15sp_counted_baseE@Base 1.6
 _ZTIN5boost6detail17sp_counted_impl_pINS0_11thread_dataINS_3_bi6bind_tIvNS_4_mfi3mf0IvN3pcl11TimeTriggerEEENS3_5list1INS3_5valueIPS8_EEEEEEEEEE@Base 1.6
 _ZTIN5boost6detail17sp_counted_impl_pINS_16exception_detail10clone_implINS2_10bad_alloc_EEEEE@Base 1.6
 _ZTIN5boost6detail17sp_counted_impl_pINS_16exception_detail10clone_implINS2_14bad_exception_EEEEE@Base 1.6
 _ZTIN5boost6detail17sp_counted_impl_pINS_8signals219optional_last_valueIvEEEE@Base 1.6
 _ZTIN5boost6detail17sp_counted_impl_pINS_8signals26detail12grouped_listIiSt4lessIiENS_10shared_ptrINS3_15connection_bodyISt4pairINS3_15slot_meta_groupENS_8optionalIiEEENS2_5slot0IvNS_8functionIFvvEEEEENS2_5mutexEEEEEEEEE@Base 1.6
 _ZTIN5boost6detail17sp_counted_impl_pINS_8signals26detail12signal0_implIvNS2_19optional_last_valueIvEEiSt4lessIiENS_8functionIFvvEEENS9_IFvRKNS2_10connectionEEEENS2_5mutexEE16invocation_stateEEE@Base 1.6
 _ZTIN5boost6detail17sp_counted_impl_pINS_8signals26detail12signal0_implIvNS2_19optional_last_valueIvEEiSt4lessIiENS_8functionIFvvEEENS9_IFvRKNS2_10connectionEEEENS2_5mutexEEEEE@Base 1.6
 _ZTIN5boost6detail17sp_counted_impl_pINS_8signals26detail15connection_bodyISt4pairINS3_15slot_meta_groupENS_8optionalIiEEENS2_5slot0IvNS_8functionIFvvEEEEENS2_5mutexEEEEE@Base 1.6
 _ZTIN5boost6detail17sp_counted_impl_pISt6vectorIiSaIiEEEE@Base 1.6
 _ZTIN5boost8signals211signal_baseE@Base 1.6
 _ZTIN5boost8signals212expired_slotE@Base 1.6
 _ZTIN5boost8signals26detail15connection_bodyISt4pairINS1_15slot_meta_groupENS_8optionalIiEEENS0_5slot0IvNS_8functionIFvvEEEEENS0_5mutexEEE@Base 1.6
 _ZTIN5boost8signals26detail19std_functional_baseE@Base 1.6
 _ZTIN5boost8signals26detail20connection_body_baseE@Base 1.6
 _ZTIN5boost8signals26signalIFvvENS0_19optional_last_valueIvEEiSt4lessIiENS_8functionIS2_EENS7_IFvRKNS0_10connectionEEEENS0_5mutexEEE@Base 1.6
 _ZTIN5boost8signals27signal0IvNS0_19optional_last_valueIvEEiSt4lessIiENS_8functionIFvvEEENS6_IFvRKNS0_10connectionEEEENS0_5mutexEEE@Base 1.6
 _ZTIN5boost9algorithm6detail13token_finderFINS1_10is_any_ofFIcEEEE@Base 1.6
 _ZTIN5boost9exceptionE@Base 1.6
 _ZTIN5boost9gregorian16bad_day_of_monthE@Base 1.6
 _ZTIN5boost9gregorian8bad_yearE@Base 1.6
 _ZTIN5boost9gregorian9bad_monthE@Base 1.6
 _ZTSN3pcl10PointCloudINS_14PointWithRangeEEE@Base 1.6
 _ZTSN3pcl10PointCloudIfEE@Base 1.6
 _ZTSN3pcl10RangeImageE@Base 1.6
 _ZTSN3pcl12PCLExceptionE@Base 1.6
 _ZTSN3pcl16RangeImagePlanarE@Base 1.6
 _ZTSN3pcl28KernelWidthTooSmallExceptionE@Base 1.6
 _ZTSN3pcl9ScopeTimeE@Base 1.6
 _ZTSN3pcl9StopWatchE@Base 1.6
 _ZTSN5boost10lock_errorE@Base 1.6
 _ZTSN5boost12bad_weak_ptrE@Base 1.6
 _ZTSN5boost12noncopyable_11noncopyableE@Base 1.6
 _ZTSN5boost15condition_errorE@Base 1.6
 _ZTSN5boost16exception_detail10bad_alloc_E@Base 1.6
 _ZTSN5boost16exception_detail10clone_baseE@Base 1.6
 _ZTSN5boost16exception_detail10clone_implINS0_10bad_alloc_EEE@Base 1.6
 _ZTSN5boost16exception_detail10clone_implINS0_14bad_exception_EEE@Base 1.6
 _ZTSN5boost16exception_detail10clone_implINS0_19error_info_injectorINS_10lock_errorEEEEE@Base 1.6
 _ZTSN5boost16exception_detail10clone_implINS0_19error_info_injectorINS_15condition_errorEEEEE@Base 1.6
 _ZTSN5boost16exception_detail10clone_implINS0_19error_info_injectorINS_17bad_function_callEEEEE@Base 1.6
 _ZTSN5boost16exception_detail10clone_implINS0_19error_info_injectorINS_21thread_resource_errorEEEEE@Base 1.6
 _ZTSN5boost16exception_detail10clone_implINS0_19error_info_injectorINS_9gregorian16bad_day_of_monthEEEEE@Base 1.6
 _ZTSN5boost16exception_detail10clone_implINS0_19error_info_injectorINS_9gregorian8bad_yearEEEEE@Base 1.6
 _ZTSN5boost16exception_detail10clone_implINS0_19error_info_injectorINS_9gregorian9bad_monthEEEEE@Base 1.6
 _ZTSN5boost16exception_detail10clone_implINS0_19error_info_injectorISt13runtime_errorEEEE@Base 1.6
 _ZTSN5boost16exception_detail14bad_exception_E@Base 1.6
 _ZTSN5boost16exception_detail19error_info_injectorINS_10lock_errorEEE@Base 1.6
 _ZTSN5boost16exception_detail19error_info_injectorINS_15condition_errorEEE@Base 1.6
 _ZTSN5boost16exception_detail19error_info_injectorINS_17bad_function_callEEE@Base 1.6
 _ZTSN5boost16exception_detail19error_info_injectorINS_21thread_resource_errorEEE@Base 1.6
 _ZTSN5boost16exception_detail19error_info_injectorINS_9gregorian16bad_day_of_monthEEE@Base 1.6
 _ZTSN5boost16exception_detail19error_info_injectorINS_9gregorian8bad_yearEEE@Base 1.6
 _ZTSN5boost16exception_detail19error_info_injectorINS_9gregorian9bad_monthEEE@Base 1.6
 _ZTSN5boost16exception_detail19error_info_injectorISt13runtime_errorEE@Base 1.6
 _ZTSN5boost16thread_exceptionE@Base 1.6
 _ZTSN5boost17bad_function_callE@Base 1.6
 _ZTSN5boost18thread_interruptedE@Base 1.6
 _ZTSN5boost21thread_resource_errorE@Base 1.6
 _ZTSN5boost6detail11thread_dataINS_3_bi6bind_tIvNS_4_mfi3mf0IvN3pcl11TimeTriggerEEENS2_5list1INS2_5valueIPS7_EEEEEEEE@Base 1.6
 _ZTSN5boost6detail15sp_counted_baseE@Base 1.6
 _ZTSN5boost6detail17sp_counted_impl_pINS0_11thread_dataINS_3_bi6bind_tIvNS_4_mfi3mf0IvN3pcl11TimeTriggerEEENS3_5list1INS3_5valueIPS8_EEEEEEEEEE@Base 1.6
 _ZTSN5boost6detail17sp_counted_impl_pINS_16exception_detail10clone_implINS2_10bad_alloc_EEEEE@Base 1.6
 _ZTSN5boost6detail17sp_counted_impl_pINS_16exception_detail10clone_implINS2_14bad_exception_EEEEE@Base 1.6
 _ZTSN5boost6detail17sp_counted_impl_pINS_8signals219optional_last_valueIvEEEE@Base 1.6
 _ZTSN5boost6detail17sp_counted_impl_pINS_8signals26detail12grouped_listIiSt4lessIiENS_10shared_ptrINS3_15connection_bodyISt4pairINS3_15slot_meta_groupENS_8optionalIiEEENS2_5slot0IvNS_8functionIFvvEEEEENS2_5mutexEEEEEEEEE@Base 1.6
 _ZTSN5boost6detail17sp_counted_impl_pINS_8signals26detail12signal0_implIvNS2_19optional_last_valueIvEEiSt4lessIiENS_8functionIFvvEEENS9_IFvRKNS2_10connectionEEEENS2_5mutexEE16invocation_stateEEE@Base 1.6
 _ZTSN5boost6detail17sp_counted_impl_pINS_8signals26detail12signal0_implIvNS2_19optional_last_valueIvEEiSt4lessIiENS_8functionIFvvEEENS9_IFvRKNS2_10connectionEEEENS2_5mutexEEEEE@Base 1.6
 _ZTSN5boost6detail17sp_counted_impl_pINS_8signals26detail15connection_bodyISt4pairINS3_15slot_meta_groupENS_8optionalIiEEENS2_5slot0IvNS_8functionIFvvEEEEENS2_5mutexEEEEE@Base 1.6
 _ZTSN5boost6detail17sp_counted_impl_pISt6vectorIiSaIiEEEE@Base 1.6
 _ZTSN5boost8signals211signal_baseE@Base 1.6
 _ZTSN5boost8signals212expired_slotE@Base 1.6
 _ZTSN5boost8signals26detail15connection_bodyISt4pairINS1_15slot_meta_groupENS_8optionalIiEEENS0_5slot0IvNS_8functionIFvvEEEEENS0_5mutexEEE@Base 1.6
 _ZTSN5boost8signals26detail19std_functional_baseE@Base 1.6
 _ZTSN5boost8signals26detail20connection_body_baseE@Base 1.6
 _ZTSN5boost8signals26signalIFvvENS0_19optional_last_valueIvEEiSt4lessIiENS_8functionIS2_EENS7_IFvRKNS0_10connectionEEEENS0_5mutexEEE@Base 1.6
 _ZTSN5boost8signals27signal0IvNS0_19optional_last_valueIvEEiSt4lessIiENS_8functionIFvvEEENS6_IFvRKNS0_10connectionEEEENS0_5mutexEEE@Base 1.6
 _ZTSN5boost9algorithm6detail13token_finderFINS1_10is_any_ofFIcEEEE@Base 1.6
 _ZTSN5boost9exceptionE@Base 1.6
 _ZTSN5boost9gregorian16bad_day_of_monthE@Base 1.6
 _ZTSN5boost9gregorian8bad_yearE@Base 1.6
 _ZTSN5boost9gregorian9bad_monthE@Base 1.6
 _ZTVN3pcl10PointCloudINS_14PointWithRangeEEE@Base 1.6
 _ZTVN3pcl10PointCloudIfEE@Base 1.6
 _ZTVN3pcl10RangeImageE@Base 1.6
 _ZTVN3pcl12PCLExceptionE@Base 1.6
 _ZTVN3pcl16RangeImagePlanarE@Base 1.6
 _ZTVN3pcl28KernelWidthTooSmallExceptionE@Base 1.6
 _ZTVN3pcl9ScopeTimeE@Base 1.6
 _ZTVN3pcl9StopWatchE@Base 1.6
 _ZTVN5boost10lock_errorE@Base 1.6
 _ZTVN5boost15condition_errorE@Base 1.6
 _ZTVN5boost16exception_detail10bad_alloc_E@Base 1.6
 _ZTVN5boost16exception_detail10clone_baseE@Base 1.6
 _ZTVN5boost16exception_detail10clone_implINS0_10bad_alloc_EEE@Base 1.6
 _ZTVN5boost16exception_detail10clone_implINS0_14bad_exception_EEE@Base 1.6
 _ZTVN5boost16exception_detail10clone_implINS0_19error_info_injectorINS_10lock_errorEEEEE@Base 1.6
 _ZTVN5boost16exception_detail10clone_implINS0_19error_info_injectorINS_15condition_errorEEEEE@Base 1.6
 _ZTVN5boost16exception_detail10clone_implINS0_19error_info_injectorINS_17bad_function_callEEEEE@Base 1.6
 _ZTVN5boost16exception_detail10clone_implINS0_19error_info_injectorINS_21thread_resource_errorEEEEE@Base 1.6
 _ZTVN5boost16exception_detail10clone_implINS0_19error_info_injectorINS_9gregorian16bad_day_of_monthEEEEE@Base 1.6
 _ZTVN5boost16exception_detail10clone_implINS0_19error_info_injectorINS_9gregorian8bad_yearEEEEE@Base 1.6
 _ZTVN5boost16exception_detail10clone_implINS0_19error_info_injectorINS_9gregorian9bad_monthEEEEE@Base 1.6
 _ZTVN5boost16exception_detail10clone_implINS0_19error_info_injectorISt13runtime_errorEEEE@Base 1.6
 _ZTVN5boost16exception_detail14bad_exception_E@Base 1.6
 _ZTVN5boost16exception_detail19error_info_injectorINS_10lock_errorEEE@Base 1.6
 _ZTVN5boost16exception_detail19error_info_injectorINS_15condition_errorEEE@Base 1.6
 _ZTVN5boost16exception_detail19error_info_injectorINS_17bad_function_callEEE@Base 1.6
 _ZTVN5boost16exception_detail19error_info_injectorINS_21thread_resource_errorEEE@Base 1.6
 _ZTVN5boost16exception_detail19error_info_injectorINS_9gregorian16bad_day_of_monthEEE@Base 1.6
 _ZTVN5boost16exception_detail19error_info_injectorINS_9gregorian8bad_yearEEE@Base 1.6
 _ZTVN5boost16exception_detail19error_info_injectorINS_9gregorian9bad_monthEEE@Base 1.6
 _ZTVN5boost16exception_detail19error_info_injectorISt13runtime_errorEE@Base 1.6
 _ZTVN5boost16thread_exceptionE@Base 1.6
 _ZTVN5boost17bad_function_callE@Base 1.6
 _ZTVN5boost21thread_resource_errorE@Base 1.6
 _ZTVN5boost6detail11thread_dataINS_3_bi6bind_tIvNS_4_mfi3mf0IvN3pcl11TimeTriggerEEENS2_5list1INS2_5valueIPS7_EEEEEEEE@Base 1.6
 _ZTVN5boost6detail15sp_counted_baseE@Base 1.6
 _ZTVN5boost6detail17sp_counted_impl_pINS0_11thread_dataINS_3_bi6bind_tIvNS_4_mfi3mf0IvN3pcl11TimeTriggerEEENS3_5list1INS3_5valueIPS8_EEEEEEEEEE@Base 1.6
 _ZTVN5boost6detail17sp_counted_impl_pINS_16exception_detail10clone_implINS2_10bad_alloc_EEEEE@Base 1.6
 _ZTVN5boost6detail17sp_counted_impl_pINS_16exception_detail10clone_implINS2_14bad_exception_EEEEE@Base 1.6
 _ZTVN5boost6detail17sp_counted_impl_pINS_8signals219optional_last_valueIvEEEE@Base 1.6
 _ZTVN5boost6detail17sp_counted_impl_pINS_8signals26detail12grouped_listIiSt4lessIiENS_10shared_ptrINS3_15connection_bodyISt4pairINS3_15slot_meta_groupENS_8optionalIiEEENS2_5slot0IvNS_8functionIFvvEEEEENS2_5mutexEEEEEEEEE@Base 1.6
 _ZTVN5boost6detail17sp_counted_impl_pINS_8signals26detail12signal0_implIvNS2_19optional_last_valueIvEEiSt4lessIiENS_8functionIFvvEEENS9_IFvRKNS2_10connectionEEEENS2_5mutexEE16invocation_stateEEE@Base 1.6
 _ZTVN5boost6detail17sp_counted_impl_pINS_8signals26detail12signal0_implIvNS2_19optional_last_valueIvEEiSt4lessIiENS_8functionIFvvEEENS9_IFvRKNS2_10connectionEEEENS2_5mutexEEEEE@Base 1.6
 _ZTVN5boost6detail17sp_counted_impl_pINS_8signals26detail15connection_bodyISt4pairINS3_15slot_meta_groupENS_8optionalIiEEENS2_5slot0IvNS_8functionIFvvEEEEENS2_5mutexEEEEE@Base 1.6
 _ZTVN5boost6detail17sp_counted_impl_pISt6vectorIiSaIiEEEE@Base 1.6
 _ZTVN5boost8signals211signal_baseE@Base 1.6
 _ZTVN5boost8signals26detail15connection_bodyISt4pairINS1_15slot_meta_groupENS_8optionalIiEEENS0_5slot0IvNS_8functionIFvvEEEEENS0_5mutexEEE@Base 1.6
 _ZTVN5boost8signals26detail20connection_body_baseE@Base 1.6
 _ZTVN5boost8signals26signalIFvvENS0_19optional_last_valueIvEEiSt4lessIiENS_8functionIS2_EENS7_IFvRKNS0_10connectionEEEENS0_5mutexEEE@Base 1.6
 _ZTVN5boost8signals27signal0IvNS0_19optional_last_valueIvEEiSt4lessIiENS_8functionIFvvEEENS6_IFvRKNS0_10connectionEEEENS0_5mutexEEE@Base 1.6
 _ZTVN5boost9exceptionE@Base 1.6
 _ZTVN5boost9gregorian16bad_day_of_monthE@Base 1.6
 _ZTVN5boost9gregorian8bad_yearE@Base 1.6
 _ZTVN5boost9gregorian9bad_monthE@Base 1.6
 (optional=templinst)_ZZN5Eigen8internal23triangular_solve_vectorIfflLi1ELi2ELb0ELi0EE3runElPKflPfE10PanelWidth@Base 1.6
 (optional=templinst)_ZZN5Eigen8internal32triangular_matrix_vector_productIlLi2EfLb0EfLb0ELi0ELi0EE3runEllPKflS4_lPflfE10PanelWidth@Base 1.6
 (optional=templinst)_ZZN5boost16exception_detail27get_static_exception_objectINS0_10bad_alloc_EEENS_13exception_ptrEvE2ep@Base 1.6
 (optional=templinst)_ZZN5boost16exception_detail27get_static_exception_objectINS0_14bad_exception_EEENS_13exception_ptrEvE2ep@Base 1.6
 (optional=templinst)_ZZN5boost9function2INS_14iterator_rangeIPcEES2_S2_E9assign_toINS_9algorithm6detail13token_finderFINS7_10is_any_ofFIcEEEEEEvT_E13stored_vtable@Base 1.6
 (c++)"non-virtual thunk to boost::exception_detail::bad_alloc_::~bad_alloc_()@Base" 1.6
 (c++)"non-virtual thunk to boost::exception_detail::bad_exception_::~bad_exception_()@Base" 1.6
 (c++)"non-virtual thunk to boost::exception_detail::clone_impl<boost::exception_detail::bad_alloc_>::clone() const@Base" 1.6
 (c++)"non-virtual thunk to boost::exception_detail::clone_impl<boost::exception_detail::bad_alloc_>::rethrow() const@Base" 1.6
 (c++)"non-virtual thunk to boost::exception_detail::clone_impl<boost::exception_detail::bad_alloc_>::~clone_impl()@Base" 1.6
 (c++)"non-virtual thunk to boost::exception_detail::clone_impl<boost::exception_detail::bad_exception_>::clone() const@Base" 1.6
 (c++)"non-virtual thunk to boost::exception_detail::clone_impl<boost::exception_detail::bad_exception_>::rethrow() const@Base" 1.6
 (c++)"non-virtual thunk to boost::exception_detail::clone_impl<boost::exception_detail::bad_exception_>::~clone_impl()@Base" 1.6
 (c++)"non-virtual thunk to boost::exception_detail::clone_impl<boost::exception_detail::error_info_injector<boost::bad_function_call> >::clone() const@Base" 1.6
 (c++)"non-virtual thunk to boost::exception_detail::clone_impl<boost::exception_detail::error_info_injector<boost::bad_function_call> >::rethrow() const@Base" 1.6
 (c++)"non-virtual thunk to boost::exception_detail::clone_impl<boost::exception_detail::error_info_injector<boost::bad_function_call> >::~clone_impl()@Base" 1.6
 (c++)"non-virtual thunk to boost::exception_detail::clone_impl<boost::exception_detail::error_info_injector<boost::condition_error> >::clone() const@Base" 1.6
 (c++)"non-virtual thunk to boost::exception_detail::clone_impl<boost::exception_detail::error_info_injector<boost::condition_error> >::rethrow() const@Base" 1.6
 (c++)"non-virtual thunk to boost::exception_detail::clone_impl<boost::exception_detail::error_info_injector<boost::condition_error> >::~clone_impl()@Base" 1.6
 (c++)"non-virtual thunk to boost::exception_detail::clone_impl<boost::exception_detail::error_info_injector<boost::gregorian::bad_day_of_month> >::clone() const@Base" 1.6
 (c++)"non-virtual thunk to boost::exception_detail::clone_impl<boost::exception_detail::error_info_injector<boost::gregorian::bad_day_of_month> >::rethrow() const@Base" 1.6
 (c++)"non-virtual thunk to boost::exception_detail::clone_impl<boost::exception_detail::error_info_injector<boost::gregorian::bad_day_of_month> >::~clone_impl()@Base" 1.6
 (c++)"non-virtual thunk to boost::exception_detail::clone_impl<boost::exception_detail::error_info_injector<boost::gregorian::bad_month> >::clone() const@Base" 1.6
 (c++)"non-virtual thunk to boost::exception_detail::clone_impl<boost::exception_detail::error_info_injector<boost::gregorian::bad_month> >::rethrow() const@Base" 1.6
 (c++)"non-virtual thunk to boost::exception_detail::clone_impl<boost::exception_detail::error_info_injector<boost::gregorian::bad_month> >::~clone_impl()@Base" 1.6
 (c++)"non-virtual thunk to boost::exception_detail::clone_impl<boost::exception_detail::error_info_injector<boost::gregorian::bad_year> >::clone() const@Base" 1.6
 (c++)"non-virtual thunk to boost::exception_detail::clone_impl<boost::exception_detail::error_info_injector<boost::gregorian::bad_year> >::rethrow() const@Base" 1.6
 (c++)"non-virtual thunk to boost::exception_detail::clone_impl<boost::exception_detail::error_info_injector<boost::gregorian::bad_year> >::~clone_impl()@Base" 1.6
 (c++)"non-virtual thunk to boost::exception_detail::clone_impl<boost::exception_detail::error_info_injector<boost::lock_error> >::clone() const@Base" 1.6
 (c++)"non-virtual thunk to boost::exception_detail::clone_impl<boost::exception_detail::error_info_injector<boost::lock_error> >::rethrow() const@Base" 1.6
 (c++)"non-virtual thunk to boost::exception_detail::clone_impl<boost::exception_detail::error_info_injector<boost::lock_error> >::~clone_impl()@Base" 1.6
 (c++)"non-virtual thunk to boost::exception_detail::clone_impl<boost::exception_detail::error_info_injector<boost::thread_resource_error> >::clone() const@Base" 1.6
 (c++)"non-virtual thunk to boost::exception_detail::clone_impl<boost::exception_detail::error_info_injector<boost::thread_resource_error> >::rethrow() const@Base" 1.6
 (c++)"non-virtual thunk to boost::exception_detail::clone_impl<boost::exception_detail::error_info_injector<boost::thread_resource_error> >::~clone_impl()@Base" 1.6
 (c++)"non-virtual thunk to boost::exception_detail::clone_impl<boost::exception_detail::error_info_injector<std::runtime_error> >::clone() const@Base" 1.6
 (c++)"non-virtual thunk to boost::exception_detail::clone_impl<boost::exception_detail::error_info_injector<std::runtime_error> >::rethrow() const@Base" 1.6
 (c++)"non-virtual thunk to boost::exception_detail::clone_impl<boost::exception_detail::error_info_injector<std::runtime_error> >::~clone_impl()@Base" 1.6
 (c++)"non-virtual thunk to boost::exception_detail::error_info_injector<boost::bad_function_call>::~error_info_injector()@Base" 1.6
 (c++)"non-virtual thunk to boost::exception_detail::error_info_injector<boost::condition_error>::~error_info_injector()@Base" 1.6
 (c++)"non-virtual thunk to boost::exception_detail::error_info_injector<boost::gregorian::bad_day_of_month>::~error_info_injector()@Base" 1.6
 (c++)"non-virtual thunk to boost::exception_detail::error_info_injector<boost::gregorian::bad_month>::~error_info_injector()@Base" 1.6
 (c++)"non-virtual thunk to boost::exception_detail::error_info_injector<boost::gregorian::bad_year>::~error_info_injector()@Base" 1.6
 (c++)"non-virtual thunk to boost::exception_detail::error_info_injector<boost::lock_error>::~error_info_injector()@Base" 1.6
 (c++)"non-virtual thunk to boost::exception_detail::error_info_injector<boost::thread_resource_error>::~error_info_injector()@Base" 1.6
 (c++)"non-virtual thunk to boost::exception_detail::error_info_injector<std::runtime_error>::~error_info_injector()@Base" 1.6
