# SymbolsHelper-Confirmed: 1.6 amd64
libpcl_search.so.1.6 libpcl-search1.6 #MINVER#
 (optional=templinst)_ZN3pcl11KdTreeFLANNINS_11PointNormalEN5flann9L2_SimpleIfEEE10setEpsilonEf@Base 1.6
 (optional=templinst)_ZN3pcl11KdTreeFLANNINS_11PointNormalEN5flann9L2_SimpleIfEEED0Ev@Base 1.6
 (optional=templinst)_ZN3pcl11KdTreeFLANNINS_11PointNormalEN5flann9L2_SimpleIfEEED1Ev@Base 1.6
 (optional=templinst)_ZN3pcl11KdTreeFLANNINS_11PointNormalEN5flann9L2_SimpleIfEEED2Ev@Base 1.6
 (optional=templinst)_ZN3pcl11KdTreeFLANNINS_11PointXYZHSVEN5flann9L2_SimpleIfEEE10setEpsilonEf@Base 1.6
 (optional=templinst)_ZN3pcl11KdTreeFLANNINS_11PointXYZHSVEN5flann9L2_SimpleIfEEED0Ev@Base 1.6
 (optional=templinst)_ZN3pcl11KdTreeFLANNINS_11PointXYZHSVEN5flann9L2_SimpleIfEEED1Ev@Base 1.6
 (optional=templinst)_ZN3pcl11KdTreeFLANNINS_11PointXYZHSVEN5flann9L2_SimpleIfEEED2Ev@Base 1.6
 (optional=templinst)_ZN3pcl11KdTreeFLANNINS_11PointXYZRGBEN5flann9L2_SimpleIfEEE10setEpsilonEf@Base 1.6
 (optional=templinst)_ZN3pcl11KdTreeFLANNINS_11PointXYZRGBEN5flann9L2_SimpleIfEEED0Ev@Base 1.6
 (optional=templinst)_ZN3pcl11KdTreeFLANNINS_11PointXYZRGBEN5flann9L2_SimpleIfEEED1Ev@Base 1.6
 (optional=templinst)_ZN3pcl11KdTreeFLANNINS_11PointXYZRGBEN5flann9L2_SimpleIfEEED2Ev@Base 1.6
 (optional=templinst)_ZN3pcl11KdTreeFLANNINS_12PPFSignatureEN5flann9L2_SimpleIfEEE10setEpsilonEf@Base 1.6
 (optional=templinst)_ZN3pcl11KdTreeFLANNINS_12PPFSignatureEN5flann9L2_SimpleIfEEED0Ev@Base 1.6
 (optional=templinst)_ZN3pcl11KdTreeFLANNINS_12PPFSignatureEN5flann9L2_SimpleIfEEED1Ev@Base 1.6
 (optional=templinst)_ZN3pcl11KdTreeFLANNINS_12PPFSignatureEN5flann9L2_SimpleIfEEED2Ev@Base 1.6
 (optional=templinst)_ZN3pcl11KdTreeFLANNINS_12PointXYZRGBAEN5flann9L2_SimpleIfEEE10setEpsilonEf@Base 1.6
 (optional=templinst)_ZN3pcl11KdTreeFLANNINS_12PointXYZRGBAEN5flann9L2_SimpleIfEEED0Ev@Base 1.6
 (optional=templinst)_ZN3pcl11KdTreeFLANNINS_12PointXYZRGBAEN5flann9L2_SimpleIfEEED1Ev@Base 1.6
 (optional=templinst)_ZN3pcl11KdTreeFLANNINS_12PointXYZRGBAEN5flann9L2_SimpleIfEEED2Ev@Base 1.6
 (optional=templinst)_ZN3pcl11KdTreeFLANNINS_12PointXYZRGBLEN5flann9L2_SimpleIfEEE10setEpsilonEf@Base 1.6
 (optional=templinst)_ZN3pcl11KdTreeFLANNINS_12PointXYZRGBLEN5flann9L2_SimpleIfEEED0Ev@Base 1.6
 (optional=templinst)_ZN3pcl11KdTreeFLANNINS_12PointXYZRGBLEN5flann9L2_SimpleIfEEED1Ev@Base 1.6
 (optional=templinst)_ZN3pcl11KdTreeFLANNINS_12PointXYZRGBLEN5flann9L2_SimpleIfEEED2Ev@Base 1.6
 (optional=templinst)_ZN3pcl11KdTreeFLANNINS_13InterestPointEN5flann9L2_SimpleIfEEE10setEpsilonEf@Base 1.6
 (optional=templinst)_ZN3pcl11KdTreeFLANNINS_13InterestPointEN5flann9L2_SimpleIfEEED0Ev@Base 1.6
 (optional=templinst)_ZN3pcl11KdTreeFLANNINS_13InterestPointEN5flann9L2_SimpleIfEEED1Ev@Base 1.6
 (optional=templinst)_ZN3pcl11KdTreeFLANNINS_13InterestPointEN5flann9L2_SimpleIfEEED2Ev@Base 1.6
 (optional=templinst)_ZN3pcl11KdTreeFLANNINS_14PointWithRangeEN5flann9L2_SimpleIfEEE10setEpsilonEf@Base 1.6
 (optional=templinst)_ZN3pcl11KdTreeFLANNINS_14PointWithRangeEN5flann9L2_SimpleIfEEED0Ev@Base 1.6
 (optional=templinst)_ZN3pcl11KdTreeFLANNINS_14PointWithRangeEN5flann9L2_SimpleIfEEED1Ev@Base 1.6
 (optional=templinst)_ZN3pcl11KdTreeFLANNINS_14PointWithRangeEN5flann9L2_SimpleIfEEED2Ev@Base 1.6
 (optional=templinst)_ZN3pcl11KdTreeFLANNINS_14PointWithScaleEN5flann9L2_SimpleIfEEE10setEpsilonEf@Base 1.6
 (optional=templinst)_ZN3pcl11KdTreeFLANNINS_14PointWithScaleEN5flann9L2_SimpleIfEEED0Ev@Base 1.6
 (optional=templinst)_ZN3pcl11KdTreeFLANNINS_14PointWithScaleEN5flann9L2_SimpleIfEEED1Ev@Base 1.6
 (optional=templinst)_ZN3pcl11KdTreeFLANNINS_14PointWithScaleEN5flann9L2_SimpleIfEEED2Ev@Base 1.6
 (optional=templinst)_ZN3pcl11KdTreeFLANNINS_14ReferenceFrameEN5flann9L2_SimpleIfEEE10setEpsilonEf@Base 1.6
 (optional=templinst)_ZN3pcl11KdTreeFLANNINS_14ReferenceFrameEN5flann9L2_SimpleIfEEED0Ev@Base 1.6
 (optional=templinst)_ZN3pcl11KdTreeFLANNINS_14ReferenceFrameEN5flann9L2_SimpleIfEEED1Ev@Base 1.6
 (optional=templinst)_ZN3pcl11KdTreeFLANNINS_14ReferenceFrameEN5flann9L2_SimpleIfEEED2Ev@Base 1.6
 (optional=templinst)_ZN3pcl11KdTreeFLANNINS_15ESFSignature640EN5flann9L2_SimpleIfEEE10setEpsilonEf@Base 1.6
 (optional=templinst)_ZN3pcl11KdTreeFLANNINS_15ESFSignature640EN5flann9L2_SimpleIfEEED0Ev@Base 1.6
 (optional=templinst)_ZN3pcl11KdTreeFLANNINS_15ESFSignature640EN5flann9L2_SimpleIfEEED1Ev@Base 1.6
 (optional=templinst)_ZN3pcl11KdTreeFLANNINS_15ESFSignature640EN5flann9L2_SimpleIfEEED2Ev@Base 1.6
 (optional=templinst)_ZN3pcl11KdTreeFLANNINS_15FPFHSignature33EN5flann9L2_SimpleIfEEE10setEpsilonEf@Base 1.6
 (optional=templinst)_ZN3pcl11KdTreeFLANNINS_15FPFHSignature33EN5flann9L2_SimpleIfEEED0Ev@Base 1.6
 (optional=templinst)_ZN3pcl11KdTreeFLANNINS_15FPFHSignature33EN5flann9L2_SimpleIfEEED1Ev@Base 1.6
 (optional=templinst)_ZN3pcl11KdTreeFLANNINS_15FPFHSignature33EN5flann9L2_SimpleIfEEED2Ev@Base 1.6
 (optional=templinst)_ZN3pcl11KdTreeFLANNINS_15PFHSignature125EN5flann9L2_SimpleIfEEE10setEpsilonEf@Base 1.6
 (optional=templinst)_ZN3pcl11KdTreeFLANNINS_15PFHSignature125EN5flann9L2_SimpleIfEEED0Ev@Base 1.6
 (optional=templinst)_ZN3pcl11KdTreeFLANNINS_15PFHSignature125EN5flann9L2_SimpleIfEEED1Ev@Base 1.6
 (optional=templinst)_ZN3pcl11KdTreeFLANNINS_15PFHSignature125EN5flann9L2_SimpleIfEEED2Ev@Base 1.6
 (optional=templinst)_ZN3pcl11KdTreeFLANNINS_15PPFRGBSignatureEN5flann9L2_SimpleIfEEE10setEpsilonEf@Base 1.6
 (optional=templinst)_ZN3pcl11KdTreeFLANNINS_15PPFRGBSignatureEN5flann9L2_SimpleIfEEED0Ev@Base 1.6
 (optional=templinst)_ZN3pcl11KdTreeFLANNINS_15PPFRGBSignatureEN5flann9L2_SimpleIfEEED1Ev@Base 1.6
 (optional=templinst)_ZN3pcl11KdTreeFLANNINS_15PPFRGBSignatureEN5flann9L2_SimpleIfEEED2Ev@Base 1.6
 (optional=templinst)_ZN3pcl11KdTreeFLANNINS_15PointXYZINormalEN5flann9L2_SimpleIfEEE10setEpsilonEf@Base 1.6
 (optional=templinst)_ZN3pcl11KdTreeFLANNINS_15PointXYZINormalEN5flann9L2_SimpleIfEEED0Ev@Base 1.6
 (optional=templinst)_ZN3pcl11KdTreeFLANNINS_15PointXYZINormalEN5flann9L2_SimpleIfEEED1Ev@Base 1.6
 (optional=templinst)_ZN3pcl11KdTreeFLANNINS_15PointXYZINormalEN5flann9L2_SimpleIfEEED2Ev@Base 1.6
 (optional=templinst)_ZN3pcl11KdTreeFLANNINS_15VFHSignature308EN5flann9L2_SimpleIfEEE10setEpsilonEf@Base 1.6
 (optional=templinst)_ZN3pcl11KdTreeFLANNINS_15VFHSignature308EN5flann9L2_SimpleIfEEED0Ev@Base 1.6
 (optional=templinst)_ZN3pcl11KdTreeFLANNINS_15VFHSignature308EN5flann9L2_SimpleIfEEED1Ev@Base 1.6
 (optional=templinst)_ZN3pcl11KdTreeFLANNINS_15VFHSignature308EN5flann9L2_SimpleIfEEED2Ev@Base 1.6
 (optional=templinst)_ZN3pcl11KdTreeFLANNINS_16MomentInvariantsEN5flann9L2_SimpleIfEEE10setEpsilonEf@Base 1.6
 (optional=templinst)_ZN3pcl11KdTreeFLANNINS_16MomentInvariantsEN5flann9L2_SimpleIfEEED0Ev@Base 1.6
 (optional=templinst)_ZN3pcl11KdTreeFLANNINS_16MomentInvariantsEN5flann9L2_SimpleIfEEED1Ev@Base 1.6
 (optional=templinst)_ZN3pcl11KdTreeFLANNINS_16MomentInvariantsEN5flann9L2_SimpleIfEEED2Ev@Base 1.6
 (optional=templinst)_ZN3pcl11KdTreeFLANNINS_17IntensityGradientEN5flann9L2_SimpleIfEEE10setEpsilonEf@Base 1.6
 (optional=templinst)_ZN3pcl11KdTreeFLANNINS_17IntensityGradientEN5flann9L2_SimpleIfEEED0Ev@Base 1.6
 (optional=templinst)_ZN3pcl11KdTreeFLANNINS_17IntensityGradientEN5flann9L2_SimpleIfEEED1Ev@Base 1.6
 (optional=templinst)_ZN3pcl11KdTreeFLANNINS_17IntensityGradientEN5flann9L2_SimpleIfEEED2Ev@Base 1.6
 (optional=templinst)_ZN3pcl11KdTreeFLANNINS_17PointXYZRGBNormalEN5flann9L2_SimpleIfEEE10setEpsilonEf@Base 1.6
 (optional=templinst)_ZN3pcl11KdTreeFLANNINS_17PointXYZRGBNormalEN5flann9L2_SimpleIfEEED0Ev@Base 1.6
 (optional=templinst)_ZN3pcl11KdTreeFLANNINS_17PointXYZRGBNormalEN5flann9L2_SimpleIfEEED1Ev@Base 1.6
 (optional=templinst)_ZN3pcl11KdTreeFLANNINS_17PointXYZRGBNormalEN5flann9L2_SimpleIfEEED2Ev@Base 1.6
 (optional=templinst)_ZN3pcl11KdTreeFLANNINS_17PrincipalRadiiRSDEN5flann9L2_SimpleIfEEE10setEpsilonEf@Base 1.6
 (optional=templinst)_ZN3pcl11KdTreeFLANNINS_17PrincipalRadiiRSDEN5flann9L2_SimpleIfEEED0Ev@Base 1.6
 (optional=templinst)_ZN3pcl11KdTreeFLANNINS_17PrincipalRadiiRSDEN5flann9L2_SimpleIfEEED1Ev@Base 1.6
 (optional=templinst)_ZN3pcl11KdTreeFLANNINS_17PrincipalRadiiRSDEN5flann9L2_SimpleIfEEED2Ev@Base 1.6
 (optional=templinst)_ZN3pcl11KdTreeFLANNINS_18PFHRGBSignature250EN5flann9L2_SimpleIfEEE10setEpsilonEf@Base 1.6
 (optional=templinst)_ZN3pcl11KdTreeFLANNINS_18PFHRGBSignature250EN5flann9L2_SimpleIfEEED0Ev@Base 1.6
 (optional=templinst)_ZN3pcl11KdTreeFLANNINS_18PFHRGBSignature250EN5flann9L2_SimpleIfEEED1Ev@Base 1.6
 (optional=templinst)_ZN3pcl11KdTreeFLANNINS_18PFHRGBSignature250EN5flann9L2_SimpleIfEEED2Ev@Base 1.6
 (optional=templinst)_ZN3pcl11KdTreeFLANNINS_18PointWithViewpointEN5flann9L2_SimpleIfEEE10setEpsilonEf@Base 1.6
 (optional=templinst)_ZN3pcl11KdTreeFLANNINS_18PointWithViewpointEN5flann9L2_SimpleIfEEED0Ev@Base 1.6
 (optional=templinst)_ZN3pcl11KdTreeFLANNINS_18PointWithViewpointEN5flann9L2_SimpleIfEEED1Ev@Base 1.6
 (optional=templinst)_ZN3pcl11KdTreeFLANNINS_18PointWithViewpointEN5flann9L2_SimpleIfEEED2Ev@Base 1.6
 (optional=templinst)_ZN3pcl11KdTreeFLANNINS_19PrincipalCurvaturesEN5flann9L2_SimpleIfEEE10setEpsilonEf@Base 1.6
 (optional=templinst)_ZN3pcl11KdTreeFLANNINS_19PrincipalCurvaturesEN5flann9L2_SimpleIfEEED0Ev@Base 1.6
 (optional=templinst)_ZN3pcl11KdTreeFLANNINS_19PrincipalCurvaturesEN5flann9L2_SimpleIfEEED1Ev@Base 1.6
 (optional=templinst)_ZN3pcl11KdTreeFLANNINS_19PrincipalCurvaturesEN5flann9L2_SimpleIfEEED2Ev@Base 1.6
 (optional=templinst)_ZN3pcl11KdTreeFLANNINS_22NormalBasedSignature12EN5flann9L2_SimpleIfEEE10setEpsilonEf@Base 1.6
 (optional=templinst)_ZN3pcl11KdTreeFLANNINS_22NormalBasedSignature12EN5flann9L2_SimpleIfEEED0Ev@Base 1.6
 (optional=templinst)_ZN3pcl11KdTreeFLANNINS_22NormalBasedSignature12EN5flann9L2_SimpleIfEEED1Ev@Base 1.6
 (optional=templinst)_ZN3pcl11KdTreeFLANNINS_22NormalBasedSignature12EN5flann9L2_SimpleIfEEED2Ev@Base 1.6
 (optional=templinst)_ZN3pcl11KdTreeFLANNINS_4AxisEN5flann9L2_SimpleIfEEE10setEpsilonEf@Base 1.6
 (optional=templinst)_ZN3pcl11KdTreeFLANNINS_4AxisEN5flann9L2_SimpleIfEEED0Ev@Base 1.6
 (optional=templinst)_ZN3pcl11KdTreeFLANNINS_4AxisEN5flann9L2_SimpleIfEEED1Ev@Base 1.6
 (optional=templinst)_ZN3pcl11KdTreeFLANNINS_4AxisEN5flann9L2_SimpleIfEEED2Ev@Base 1.6
 (optional=templinst)_ZN3pcl11KdTreeFLANNINS_5LabelEN5flann9L2_SimpleIfEEE10setEpsilonEf@Base 1.6
 (optional=templinst)_ZN3pcl11KdTreeFLANNINS_5LabelEN5flann9L2_SimpleIfEEED0Ev@Base 1.6
 (optional=templinst)_ZN3pcl11KdTreeFLANNINS_5LabelEN5flann9L2_SimpleIfEEED1Ev@Base 1.6
 (optional=templinst)_ZN3pcl11KdTreeFLANNINS_5LabelEN5flann9L2_SimpleIfEEED2Ev@Base 1.6
 (optional=templinst)_ZN3pcl11KdTreeFLANNINS_6Narf36EN5flann9L2_SimpleIfEEE10setEpsilonEf@Base 1.6
 (optional=templinst)_ZN3pcl11KdTreeFLANNINS_6Narf36EN5flann9L2_SimpleIfEEED0Ev@Base 1.6
 (optional=templinst)_ZN3pcl11KdTreeFLANNINS_6Narf36EN5flann9L2_SimpleIfEEED1Ev@Base 1.6
 (optional=templinst)_ZN3pcl11KdTreeFLANNINS_6Narf36EN5flann9L2_SimpleIfEEED2Ev@Base 1.6
 (optional=templinst)_ZN3pcl11KdTreeFLANNINS_6NormalEN5flann9L2_SimpleIfEEE10setEpsilonEf@Base 1.6
 (optional=templinst)_ZN3pcl11KdTreeFLANNINS_6NormalEN5flann9L2_SimpleIfEEED0Ev@Base 1.6
 (optional=templinst)_ZN3pcl11KdTreeFLANNINS_6NormalEN5flann9L2_SimpleIfEEED1Ev@Base 1.6
 (optional=templinst)_ZN3pcl11KdTreeFLANNINS_6NormalEN5flann9L2_SimpleIfEEED2Ev@Base 1.6
 (optional=templinst)_ZN3pcl11KdTreeFLANNINS_7PointXYEN5flann9L2_SimpleIfEEE10setEpsilonEf@Base 1.6
 (optional=templinst)_ZN3pcl11KdTreeFLANNINS_7PointXYEN5flann9L2_SimpleIfEEED0Ev@Base 1.6
 (optional=templinst)_ZN3pcl11KdTreeFLANNINS_7PointXYEN5flann9L2_SimpleIfEEED1Ev@Base 1.6
 (optional=templinst)_ZN3pcl11KdTreeFLANNINS_7PointXYEN5flann9L2_SimpleIfEEED2Ev@Base 1.6
 (optional=templinst)_ZN3pcl11KdTreeFLANNINS_8BoundaryEN5flann9L2_SimpleIfEEE10setEpsilonEf@Base 1.6
 (optional=templinst)_ZN3pcl11KdTreeFLANNINS_8BoundaryEN5flann9L2_SimpleIfEEED0Ev@Base 1.6
 (optional=templinst)_ZN3pcl11KdTreeFLANNINS_8BoundaryEN5flann9L2_SimpleIfEEED1Ev@Base 1.6
 (optional=templinst)_ZN3pcl11KdTreeFLANNINS_8BoundaryEN5flann9L2_SimpleIfEEED2Ev@Base 1.6
 (optional=templinst)_ZN3pcl11KdTreeFLANNINS_8PointXYZEN5flann9L2_SimpleIfEEE10setEpsilonEf@Base 1.6
 (optional=templinst)_ZN3pcl11KdTreeFLANNINS_8PointXYZEN5flann9L2_SimpleIfEEED0Ev@Base 1.6
 (optional=templinst)_ZN3pcl11KdTreeFLANNINS_8PointXYZEN5flann9L2_SimpleIfEEED1Ev@Base 1.6
 (optional=templinst)_ZN3pcl11KdTreeFLANNINS_8PointXYZEN5flann9L2_SimpleIfEEED2Ev@Base 1.6
 (optional=templinst)_ZN3pcl11KdTreeFLANNINS_9PointXYZIEN5flann9L2_SimpleIfEEE10setEpsilonEf@Base 1.6
 (optional=templinst)_ZN3pcl11KdTreeFLANNINS_9PointXYZIEN5flann9L2_SimpleIfEEED0Ev@Base 1.6
 (optional=templinst)_ZN3pcl11KdTreeFLANNINS_9PointXYZIEN5flann9L2_SimpleIfEEED1Ev@Base 1.6
 (optional=templinst)_ZN3pcl11KdTreeFLANNINS_9PointXYZIEN5flann9L2_SimpleIfEEED2Ev@Base 1.6
 (optional=templinst)_ZN3pcl11KdTreeFLANNINS_9PointXYZLEN5flann9L2_SimpleIfEEE10setEpsilonEf@Base 1.6
 (optional=templinst)_ZN3pcl11KdTreeFLANNINS_9PointXYZLEN5flann9L2_SimpleIfEEED0Ev@Base 1.6
 (optional=templinst)_ZN3pcl11KdTreeFLANNINS_9PointXYZLEN5flann9L2_SimpleIfEEED1Ev@Base 1.6
 (optional=templinst)_ZN3pcl11KdTreeFLANNINS_9PointXYZLEN5flann9L2_SimpleIfEEED2Ev@Base 1.6
 (optional=templinst)_ZN3pcl19PointRepresentationINS_11PointNormalEED0Ev@Base 1.6
 (optional=templinst)_ZN3pcl19PointRepresentationINS_11PointNormalEED1Ev@Base 1.6
 (optional=templinst)_ZN3pcl19PointRepresentationINS_11PointNormalEED2Ev@Base 1.6
 (optional=templinst)_ZN3pcl19PointRepresentationINS_11PointXYZHSVEED0Ev@Base 1.6
 (optional=templinst)_ZN3pcl19PointRepresentationINS_11PointXYZHSVEED1Ev@Base 1.6
 (optional=templinst)_ZN3pcl19PointRepresentationINS_11PointXYZHSVEED2Ev@Base 1.6
 (optional=templinst)_ZN3pcl19PointRepresentationINS_11PointXYZRGBEED0Ev@Base 1.6
 (optional=templinst)_ZN3pcl19PointRepresentationINS_11PointXYZRGBEED1Ev@Base 1.6
 (optional=templinst)_ZN3pcl19PointRepresentationINS_11PointXYZRGBEED2Ev@Base 1.6
 (optional=templinst)_ZN3pcl19PointRepresentationINS_12PPFSignatureEED0Ev@Base 1.6
 (optional=templinst)_ZN3pcl19PointRepresentationINS_12PPFSignatureEED1Ev@Base 1.6
 (optional=templinst)_ZN3pcl19PointRepresentationINS_12PPFSignatureEED2Ev@Base 1.6
 (optional=templinst)_ZN3pcl19PointRepresentationINS_12PointXYZRGBAEED0Ev@Base 1.6
 (optional=templinst)_ZN3pcl19PointRepresentationINS_12PointXYZRGBAEED1Ev@Base 1.6
 (optional=templinst)_ZN3pcl19PointRepresentationINS_12PointXYZRGBAEED2Ev@Base 1.6
 (optional=templinst)_ZN3pcl19PointRepresentationINS_12PointXYZRGBLEED0Ev@Base 1.6
 (optional=templinst)_ZN3pcl19PointRepresentationINS_12PointXYZRGBLEED1Ev@Base 1.6
 (optional=templinst)_ZN3pcl19PointRepresentationINS_12PointXYZRGBLEED2Ev@Base 1.6
 (optional=templinst)_ZN3pcl19PointRepresentationINS_13InterestPointEED0Ev@Base 1.6
 (optional=templinst)_ZN3pcl19PointRepresentationINS_13InterestPointEED1Ev@Base 1.6
 (optional=templinst)_ZN3pcl19PointRepresentationINS_13InterestPointEED2Ev@Base 1.6
 (optional=templinst)_ZN3pcl19PointRepresentationINS_14PointWithRangeEED0Ev@Base 1.6
 (optional=templinst)_ZN3pcl19PointRepresentationINS_14PointWithRangeEED1Ev@Base 1.6
 (optional=templinst)_ZN3pcl19PointRepresentationINS_14PointWithRangeEED2Ev@Base 1.6
 (optional=templinst)_ZN3pcl19PointRepresentationINS_14PointWithScaleEED0Ev@Base 1.6
 (optional=templinst)_ZN3pcl19PointRepresentationINS_14PointWithScaleEED1Ev@Base 1.6
 (optional=templinst)_ZN3pcl19PointRepresentationINS_14PointWithScaleEED2Ev@Base 1.6
 (optional=templinst)_ZN3pcl19PointRepresentationINS_14ReferenceFrameEED0Ev@Base 1.6
 (optional=templinst)_ZN3pcl19PointRepresentationINS_14ReferenceFrameEED1Ev@Base 1.6
 (optional=templinst)_ZN3pcl19PointRepresentationINS_14ReferenceFrameEED2Ev@Base 1.6
 (optional=templinst)_ZN3pcl19PointRepresentationINS_15ESFSignature640EED0Ev@Base 1.6
 (optional=templinst)_ZN3pcl19PointRepresentationINS_15ESFSignature640EED1Ev@Base 1.6
 (optional=templinst)_ZN3pcl19PointRepresentationINS_15ESFSignature640EED2Ev@Base 1.6
 (optional=templinst)_ZN3pcl19PointRepresentationINS_15FPFHSignature33EED0Ev@Base 1.6
 (optional=templinst)_ZN3pcl19PointRepresentationINS_15FPFHSignature33EED1Ev@Base 1.6
 (optional=templinst)_ZN3pcl19PointRepresentationINS_15FPFHSignature33EED2Ev@Base 1.6
 (optional=templinst)_ZN3pcl19PointRepresentationINS_15PFHSignature125EED0Ev@Base 1.6
 (optional=templinst)_ZN3pcl19PointRepresentationINS_15PFHSignature125EED1Ev@Base 1.6
 (optional=templinst)_ZN3pcl19PointRepresentationINS_15PFHSignature125EED2Ev@Base 1.6
 (optional=templinst)_ZN3pcl19PointRepresentationINS_15PPFRGBSignatureEED0Ev@Base 1.6
 (optional=templinst)_ZN3pcl19PointRepresentationINS_15PPFRGBSignatureEED1Ev@Base 1.6
 (optional=templinst)_ZN3pcl19PointRepresentationINS_15PPFRGBSignatureEED2Ev@Base 1.6
 (optional=templinst)_ZN3pcl19PointRepresentationINS_15PointXYZINormalEED0Ev@Base 1.6
 (optional=templinst)_ZN3pcl19PointRepresentationINS_15PointXYZINormalEED1Ev@Base 1.6
 (optional=templinst)_ZN3pcl19PointRepresentationINS_15PointXYZINormalEED2Ev@Base 1.6
 (optional=templinst)_ZN3pcl19PointRepresentationINS_15VFHSignature308EED0Ev@Base 1.6
 (optional=templinst)_ZN3pcl19PointRepresentationINS_15VFHSignature308EED1Ev@Base 1.6
 (optional=templinst)_ZN3pcl19PointRepresentationINS_15VFHSignature308EED2Ev@Base 1.6
 (optional=templinst)_ZN3pcl19PointRepresentationINS_16MomentInvariantsEED0Ev@Base 1.6
 (optional=templinst)_ZN3pcl19PointRepresentationINS_16MomentInvariantsEED1Ev@Base 1.6
 (optional=templinst)_ZN3pcl19PointRepresentationINS_16MomentInvariantsEED2Ev@Base 1.6
 (optional=templinst)_ZN3pcl19PointRepresentationINS_17IntensityGradientEED0Ev@Base 1.6
 (optional=templinst)_ZN3pcl19PointRepresentationINS_17IntensityGradientEED1Ev@Base 1.6
 (optional=templinst)_ZN3pcl19PointRepresentationINS_17IntensityGradientEED2Ev@Base 1.6
 (optional=templinst)_ZN3pcl19PointRepresentationINS_17PointXYZRGBNormalEED0Ev@Base 1.6
 (optional=templinst)_ZN3pcl19PointRepresentationINS_17PointXYZRGBNormalEED1Ev@Base 1.6
 (optional=templinst)_ZN3pcl19PointRepresentationINS_17PointXYZRGBNormalEED2Ev@Base 1.6
 (optional=templinst)_ZN3pcl19PointRepresentationINS_17PrincipalRadiiRSDEED0Ev@Base 1.6
 (optional=templinst)_ZN3pcl19PointRepresentationINS_17PrincipalRadiiRSDEED1Ev@Base 1.6
 (optional=templinst)_ZN3pcl19PointRepresentationINS_17PrincipalRadiiRSDEED2Ev@Base 1.6
 (optional=templinst)_ZN3pcl19PointRepresentationINS_18PFHRGBSignature250EED0Ev@Base 1.6
 (optional=templinst)_ZN3pcl19PointRepresentationINS_18PFHRGBSignature250EED1Ev@Base 1.6
 (optional=templinst)_ZN3pcl19PointRepresentationINS_18PFHRGBSignature250EED2Ev@Base 1.6
 (optional=templinst)_ZN3pcl19PointRepresentationINS_18PointWithViewpointEED0Ev@Base 1.6
 (optional=templinst)_ZN3pcl19PointRepresentationINS_18PointWithViewpointEED1Ev@Base 1.6
 (optional=templinst)_ZN3pcl19PointRepresentationINS_18PointWithViewpointEED2Ev@Base 1.6
 (optional=templinst)_ZN3pcl19PointRepresentationINS_19PrincipalCurvaturesEED0Ev@Base 1.6
 (optional=templinst)_ZN3pcl19PointRepresentationINS_19PrincipalCurvaturesEED1Ev@Base 1.6
 (optional=templinst)_ZN3pcl19PointRepresentationINS_19PrincipalCurvaturesEED2Ev@Base 1.6
 (optional=templinst)_ZN3pcl19PointRepresentationINS_22NormalBasedSignature12EED0Ev@Base 1.6
 (optional=templinst)_ZN3pcl19PointRepresentationINS_22NormalBasedSignature12EED1Ev@Base 1.6
 (optional=templinst)_ZN3pcl19PointRepresentationINS_22NormalBasedSignature12EED2Ev@Base 1.6
 (optional=templinst)_ZN3pcl19PointRepresentationINS_4AxisEED0Ev@Base 1.6
 (optional=templinst)_ZN3pcl19PointRepresentationINS_4AxisEED1Ev@Base 1.6
 (optional=templinst)_ZN3pcl19PointRepresentationINS_4AxisEED2Ev@Base 1.6
 (optional=templinst)_ZN3pcl19PointRepresentationINS_5LabelEED0Ev@Base 1.6
 (optional=templinst)_ZN3pcl19PointRepresentationINS_5LabelEED1Ev@Base 1.6
 (optional=templinst)_ZN3pcl19PointRepresentationINS_5LabelEED2Ev@Base 1.6
 (optional=templinst)_ZN3pcl19PointRepresentationINS_6Narf36EED0Ev@Base 1.6
 (optional=templinst)_ZN3pcl19PointRepresentationINS_6Narf36EED1Ev@Base 1.6
 (optional=templinst)_ZN3pcl19PointRepresentationINS_6Narf36EED2Ev@Base 1.6
 (optional=templinst)_ZN3pcl19PointRepresentationINS_6NormalEED0Ev@Base 1.6
 (optional=templinst)_ZN3pcl19PointRepresentationINS_6NormalEED1Ev@Base 1.6
 (optional=templinst)_ZN3pcl19PointRepresentationINS_6NormalEED2Ev@Base 1.6
 (optional=templinst)_ZN3pcl19PointRepresentationINS_7PointXYEED0Ev@Base 1.6
 (optional=templinst)_ZN3pcl19PointRepresentationINS_7PointXYEED1Ev@Base 1.6
 (optional=templinst)_ZN3pcl19PointRepresentationINS_7PointXYEED2Ev@Base 1.6
 (optional=templinst)_ZN3pcl19PointRepresentationINS_8BoundaryEED0Ev@Base 1.6
 (optional=templinst)_ZN3pcl19PointRepresentationINS_8BoundaryEED1Ev@Base 1.6
 (optional=templinst)_ZN3pcl19PointRepresentationINS_8BoundaryEED2Ev@Base 1.6
 (optional=templinst)_ZN3pcl19PointRepresentationINS_8PointXYZEED0Ev@Base 1.6
 (optional=templinst)_ZN3pcl19PointRepresentationINS_8PointXYZEED1Ev@Base 1.6
 (optional=templinst)_ZN3pcl19PointRepresentationINS_8PointXYZEED2Ev@Base 1.6
 (optional=templinst)_ZN3pcl19PointRepresentationINS_9PointXYZIEED0Ev@Base 1.6
 (optional=templinst)_ZN3pcl19PointRepresentationINS_9PointXYZIEED1Ev@Base 1.6
 (optional=templinst)_ZN3pcl19PointRepresentationINS_9PointXYZIEED2Ev@Base 1.6
 (optional=templinst)_ZN3pcl19PointRepresentationINS_9PointXYZLEED0Ev@Base 1.6
 (optional=templinst)_ZN3pcl19PointRepresentationINS_9PointXYZLEED1Ev@Base 1.6
 (optional=templinst)_ZN3pcl19PointRepresentationINS_9PointXYZLEED2Ev@Base 1.6
 (optional=templinst)_ZN3pcl26DefaultPointRepresentationINS_11PointNormalEED0Ev@Base 1.6
 (optional=templinst)_ZN3pcl26DefaultPointRepresentationINS_11PointNormalEED1Ev@Base 1.6
 (optional=templinst)_ZN3pcl26DefaultPointRepresentationINS_11PointNormalEED2Ev@Base 1.6
 (optional=templinst)_ZN3pcl26DefaultPointRepresentationINS_11PointXYZHSVEED0Ev@Base 1.6
 (optional=templinst)_ZN3pcl26DefaultPointRepresentationINS_11PointXYZHSVEED1Ev@Base 1.6
 (optional=templinst)_ZN3pcl26DefaultPointRepresentationINS_11PointXYZHSVEED2Ev@Base 1.6
 (optional=templinst)_ZN3pcl26DefaultPointRepresentationINS_11PointXYZRGBEED0Ev@Base 1.6
 (optional=templinst)_ZN3pcl26DefaultPointRepresentationINS_11PointXYZRGBEED1Ev@Base 1.6
 (optional=templinst)_ZN3pcl26DefaultPointRepresentationINS_11PointXYZRGBEED2Ev@Base 1.6
 (optional=templinst)_ZN3pcl26DefaultPointRepresentationINS_12PPFSignatureEED0Ev@Base 1.6
 (optional=templinst)_ZN3pcl26DefaultPointRepresentationINS_12PPFSignatureEED1Ev@Base 1.6
 (optional=templinst)_ZN3pcl26DefaultPointRepresentationINS_12PPFSignatureEED2Ev@Base 1.6
 (optional=templinst)_ZN3pcl26DefaultPointRepresentationINS_12PointXYZRGBAEED0Ev@Base 1.6
 (optional=templinst)_ZN3pcl26DefaultPointRepresentationINS_12PointXYZRGBAEED1Ev@Base 1.6
 (optional=templinst)_ZN3pcl26DefaultPointRepresentationINS_12PointXYZRGBAEED2Ev@Base 1.6
 (optional=templinst)_ZN3pcl26DefaultPointRepresentationINS_12PointXYZRGBLEED0Ev@Base 1.6
 (optional=templinst)_ZN3pcl26DefaultPointRepresentationINS_12PointXYZRGBLEED1Ev@Base 1.6
 (optional=templinst)_ZN3pcl26DefaultPointRepresentationINS_12PointXYZRGBLEED2Ev@Base 1.6
 (optional=templinst)_ZN3pcl26DefaultPointRepresentationINS_13InterestPointEED0Ev@Base 1.6
 (optional=templinst)_ZN3pcl26DefaultPointRepresentationINS_13InterestPointEED1Ev@Base 1.6
 (optional=templinst)_ZN3pcl26DefaultPointRepresentationINS_13InterestPointEED2Ev@Base 1.6
 (optional=templinst)_ZN3pcl26DefaultPointRepresentationINS_14PointWithRangeEED0Ev@Base 1.6
 (optional=templinst)_ZN3pcl26DefaultPointRepresentationINS_14PointWithRangeEED1Ev@Base 1.6
 (optional=templinst)_ZN3pcl26DefaultPointRepresentationINS_14PointWithRangeEED2Ev@Base 1.6
 (optional=templinst)_ZN3pcl26DefaultPointRepresentationINS_14PointWithScaleEED0Ev@Base 1.6
 (optional=templinst)_ZN3pcl26DefaultPointRepresentationINS_14PointWithScaleEED1Ev@Base 1.6
 (optional=templinst)_ZN3pcl26DefaultPointRepresentationINS_14PointWithScaleEED2Ev@Base 1.6
 (optional=templinst)_ZN3pcl26DefaultPointRepresentationINS_14ReferenceFrameEED0Ev@Base 1.6
 (optional=templinst)_ZN3pcl26DefaultPointRepresentationINS_14ReferenceFrameEED1Ev@Base 1.6
 (optional=templinst)_ZN3pcl26DefaultPointRepresentationINS_14ReferenceFrameEED2Ev@Base 1.6
 (optional=templinst)_ZN3pcl26DefaultPointRepresentationINS_15ESFSignature640EED0Ev@Base 1.6
 (optional=templinst)_ZN3pcl26DefaultPointRepresentationINS_15ESFSignature640EED1Ev@Base 1.6
 (optional=templinst)_ZN3pcl26DefaultPointRepresentationINS_15ESFSignature640EED2Ev@Base 1.6
 (optional=templinst)_ZN3pcl26DefaultPointRepresentationINS_15FPFHSignature33EED0Ev@Base 1.6
 (optional=templinst)_ZN3pcl26DefaultPointRepresentationINS_15FPFHSignature33EED1Ev@Base 1.6
 (optional=templinst)_ZN3pcl26DefaultPointRepresentationINS_15FPFHSignature33EED2Ev@Base 1.6
 (optional=templinst)_ZN3pcl26DefaultPointRepresentationINS_15PFHSignature125EED0Ev@Base 1.6
 (optional=templinst)_ZN3pcl26DefaultPointRepresentationINS_15PFHSignature125EED1Ev@Base 1.6
 (optional=templinst)_ZN3pcl26DefaultPointRepresentationINS_15PFHSignature125EED2Ev@Base 1.6
 (optional=templinst)_ZN3pcl26DefaultPointRepresentationINS_15PPFRGBSignatureEED0Ev@Base 1.6
 (optional=templinst)_ZN3pcl26DefaultPointRepresentationINS_15PPFRGBSignatureEED1Ev@Base 1.6
 (optional=templinst)_ZN3pcl26DefaultPointRepresentationINS_15PPFRGBSignatureEED2Ev@Base 1.6
 (optional=templinst)_ZN3pcl26DefaultPointRepresentationINS_15PointXYZINormalEED0Ev@Base 1.6
 (optional=templinst)_ZN3pcl26DefaultPointRepresentationINS_15PointXYZINormalEED1Ev@Base 1.6
 (optional=templinst)_ZN3pcl26DefaultPointRepresentationINS_15PointXYZINormalEED2Ev@Base 1.6
 (optional=templinst)_ZN3pcl26DefaultPointRepresentationINS_15VFHSignature308EED0Ev@Base 1.6
 (optional=templinst)_ZN3pcl26DefaultPointRepresentationINS_15VFHSignature308EED1Ev@Base 1.6
 (optional=templinst)_ZN3pcl26DefaultPointRepresentationINS_15VFHSignature308EED2Ev@Base 1.6
 (optional=templinst)_ZN3pcl26DefaultPointRepresentationINS_16MomentInvariantsEED0Ev@Base 1.6
 (optional=templinst)_ZN3pcl26DefaultPointRepresentationINS_16MomentInvariantsEED1Ev@Base 1.6
 (optional=templinst)_ZN3pcl26DefaultPointRepresentationINS_16MomentInvariantsEED2Ev@Base 1.6
 (optional=templinst)_ZN3pcl26DefaultPointRepresentationINS_17IntensityGradientEED0Ev@Base 1.6
 (optional=templinst)_ZN3pcl26DefaultPointRepresentationINS_17IntensityGradientEED1Ev@Base 1.6
 (optional=templinst)_ZN3pcl26DefaultPointRepresentationINS_17IntensityGradientEED2Ev@Base 1.6
 (optional=templinst)_ZN3pcl26DefaultPointRepresentationINS_17PointXYZRGBNormalEED0Ev@Base 1.6
 (optional=templinst)_ZN3pcl26DefaultPointRepresentationINS_17PointXYZRGBNormalEED1Ev@Base 1.6
 (optional=templinst)_ZN3pcl26DefaultPointRepresentationINS_17PointXYZRGBNormalEED2Ev@Base 1.6
 (optional=templinst)_ZN3pcl26DefaultPointRepresentationINS_17PrincipalRadiiRSDEED0Ev@Base 1.6
 (optional=templinst)_ZN3pcl26DefaultPointRepresentationINS_17PrincipalRadiiRSDEED1Ev@Base 1.6
 (optional=templinst)_ZN3pcl26DefaultPointRepresentationINS_17PrincipalRadiiRSDEED2Ev@Base 1.6
 (optional=templinst)_ZN3pcl26DefaultPointRepresentationINS_18PFHRGBSignature250EED0Ev@Base 1.6
 (optional=templinst)_ZN3pcl26DefaultPointRepresentationINS_18PFHRGBSignature250EED1Ev@Base 1.6
 (optional=templinst)_ZN3pcl26DefaultPointRepresentationINS_18PFHRGBSignature250EED2Ev@Base 1.6
 (optional=templinst)_ZN3pcl26DefaultPointRepresentationINS_18PointWithViewpointEED0Ev@Base 1.6
 (optional=templinst)_ZN3pcl26DefaultPointRepresentationINS_18PointWithViewpointEED1Ev@Base 1.6
 (optional=templinst)_ZN3pcl26DefaultPointRepresentationINS_18PointWithViewpointEED2Ev@Base 1.6
 (optional=templinst)_ZN3pcl26DefaultPointRepresentationINS_19PrincipalCurvaturesEED0Ev@Base 1.6
 (optional=templinst)_ZN3pcl26DefaultPointRepresentationINS_19PrincipalCurvaturesEED1Ev@Base 1.6
 (optional=templinst)_ZN3pcl26DefaultPointRepresentationINS_19PrincipalCurvaturesEED2Ev@Base 1.6
 (optional=templinst)_ZN3pcl26DefaultPointRepresentationINS_22NormalBasedSignature12EED0Ev@Base 1.6
 (optional=templinst)_ZN3pcl26DefaultPointRepresentationINS_22NormalBasedSignature12EED1Ev@Base 1.6
 (optional=templinst)_ZN3pcl26DefaultPointRepresentationINS_22NormalBasedSignature12EED2Ev@Base 1.6
 (optional=templinst)_ZN3pcl26DefaultPointRepresentationINS_4AxisEED0Ev@Base 1.6
 (optional=templinst)_ZN3pcl26DefaultPointRepresentationINS_4AxisEED1Ev@Base 1.6
 (optional=templinst)_ZN3pcl26DefaultPointRepresentationINS_4AxisEED2Ev@Base 1.6
 (optional=templinst)_ZN3pcl26DefaultPointRepresentationINS_5LabelEED0Ev@Base 1.6
 (optional=templinst)_ZN3pcl26DefaultPointRepresentationINS_5LabelEED1Ev@Base 1.6
 (optional=templinst)_ZN3pcl26DefaultPointRepresentationINS_5LabelEED2Ev@Base 1.6
 (optional=templinst)_ZN3pcl26DefaultPointRepresentationINS_6Narf36EED0Ev@Base 1.6
 (optional=templinst)_ZN3pcl26DefaultPointRepresentationINS_6Narf36EED1Ev@Base 1.6
 (optional=templinst)_ZN3pcl26DefaultPointRepresentationINS_6Narf36EED2Ev@Base 1.6
 (optional=templinst)_ZN3pcl26DefaultPointRepresentationINS_6NormalEED0Ev@Base 1.6
 (optional=templinst)_ZN3pcl26DefaultPointRepresentationINS_6NormalEED1Ev@Base 1.6
 (optional=templinst)_ZN3pcl26DefaultPointRepresentationINS_6NormalEED2Ev@Base 1.6
 (optional=templinst)_ZN3pcl26DefaultPointRepresentationINS_7PointXYEED0Ev@Base 1.6
 (optional=templinst)_ZN3pcl26DefaultPointRepresentationINS_7PointXYEED1Ev@Base 1.6
 (optional=templinst)_ZN3pcl26DefaultPointRepresentationINS_7PointXYEED2Ev@Base 1.6
 (optional=templinst)_ZN3pcl26DefaultPointRepresentationINS_8BoundaryEED0Ev@Base 1.6
 (optional=templinst)_ZN3pcl26DefaultPointRepresentationINS_8BoundaryEED1Ev@Base 1.6
 (optional=templinst)_ZN3pcl26DefaultPointRepresentationINS_8BoundaryEED2Ev@Base 1.6
 (optional=templinst)_ZN3pcl26DefaultPointRepresentationINS_8PointXYZEED0Ev@Base 1.6
 (optional=templinst)_ZN3pcl26DefaultPointRepresentationINS_8PointXYZEED1Ev@Base 1.6
 (optional=templinst)_ZN3pcl26DefaultPointRepresentationINS_8PointXYZEED2Ev@Base 1.6
 (optional=templinst)_ZN3pcl26DefaultPointRepresentationINS_9PointXYZIEED0Ev@Base 1.6
 (optional=templinst)_ZN3pcl26DefaultPointRepresentationINS_9PointXYZIEED1Ev@Base 1.6
 (optional=templinst)_ZN3pcl26DefaultPointRepresentationINS_9PointXYZIEED2Ev@Base 1.6
 (optional=templinst)_ZN3pcl26DefaultPointRepresentationINS_9PointXYZLEED0Ev@Base 1.6
 (optional=templinst)_ZN3pcl26DefaultPointRepresentationINS_9PointXYZLEED1Ev@Base 1.6
 (optional=templinst)_ZN3pcl26DefaultPointRepresentationINS_9PointXYZLEED2Ev@Base 1.6
 (optional=templinst)_ZN3pcl28DefaultFeatureRepresentationINS_12PPFSignatureEEC1Ev@Base 1.6
 (optional=templinst)_ZN3pcl28DefaultFeatureRepresentationINS_12PPFSignatureEEC2Ev@Base 1.6
 (optional=templinst)_ZN3pcl28DefaultFeatureRepresentationINS_12PPFSignatureEED0Ev@Base 1.6
 (optional=templinst)_ZN3pcl28DefaultFeatureRepresentationINS_12PPFSignatureEED1Ev@Base 1.6
 (optional=templinst)_ZN3pcl28DefaultFeatureRepresentationINS_12PPFSignatureEED2Ev@Base 1.6
 (optional=templinst)_ZN3pcl28DefaultFeatureRepresentationINS_15FPFHSignature33EED0Ev@Base 1.6
 (optional=templinst)_ZN3pcl28DefaultFeatureRepresentationINS_15FPFHSignature33EED1Ev@Base 1.6
 (optional=templinst)_ZN3pcl28DefaultFeatureRepresentationINS_15FPFHSignature33EED2Ev@Base 1.6
 (optional=templinst)_ZN3pcl28DefaultFeatureRepresentationINS_15PFHSignature125EED0Ev@Base 1.6
 (optional=templinst)_ZN3pcl28DefaultFeatureRepresentationINS_15PFHSignature125EED1Ev@Base 1.6
 (optional=templinst)_ZN3pcl28DefaultFeatureRepresentationINS_15PFHSignature125EED2Ev@Base 1.6
 (optional=templinst)_ZN3pcl28DefaultFeatureRepresentationINS_15VFHSignature308EED0Ev@Base 1.6
 (optional=templinst)_ZN3pcl28DefaultFeatureRepresentationINS_15VFHSignature308EED1Ev@Base 1.6
 (optional=templinst)_ZN3pcl28DefaultFeatureRepresentationINS_15VFHSignature308EED2Ev@Base 1.6
 (optional=templinst)_ZN3pcl28DefaultFeatureRepresentationINS_18PFHRGBSignature250EED0Ev@Base 1.6
 (optional=templinst)_ZN3pcl28DefaultFeatureRepresentationINS_18PFHRGBSignature250EED1Ev@Base 1.6
 (optional=templinst)_ZN3pcl28DefaultFeatureRepresentationINS_18PFHRGBSignature250EED2Ev@Base 1.6
 (optional=templinst)_ZN3pcl28DefaultFeatureRepresentationINS_22NormalBasedSignature12EED0Ev@Base 1.6
 (optional=templinst)_ZN3pcl28DefaultFeatureRepresentationINS_22NormalBasedSignature12EED1Ev@Base 1.6
 (optional=templinst)_ZN3pcl28DefaultFeatureRepresentationINS_22NormalBasedSignature12EED2Ev@Base 1.6
 (optional=templinst)_ZN3pcl6KdTreeINS_11PointNormalEE10setEpsilonEf@Base 1.6
 (optional=templinst)_ZN3pcl6KdTreeINS_11PointNormalEE13setInputCloudERKN5boost10shared_ptrIKNS_10PointCloudIS1_EEEERKNS4_IKSt6vectorIiSaIiEEEE@Base 1.6
 (optional=templinst)_ZN3pcl6KdTreeINS_11PointNormalEEC1Eb@Base 1.6
 (optional=templinst)_ZN3pcl6KdTreeINS_11PointNormalEEC2Eb@Base 1.6
 (optional=templinst)_ZN3pcl6KdTreeINS_11PointNormalEED0Ev@Base 1.6
 (optional=templinst)_ZN3pcl6KdTreeINS_11PointNormalEED1Ev@Base 1.6
 (optional=templinst)_ZN3pcl6KdTreeINS_11PointNormalEED2Ev@Base 1.6
 (optional=templinst)_ZN3pcl6KdTreeINS_11PointXYZHSVEE10setEpsilonEf@Base 1.6
 (optional=templinst)_ZN3pcl6KdTreeINS_11PointXYZHSVEE13setInputCloudERKN5boost10shared_ptrIKNS_10PointCloudIS1_EEEERKNS4_IKSt6vectorIiSaIiEEEE@Base 1.6
 (optional=templinst)_ZN3pcl6KdTreeINS_11PointXYZHSVEEC1Eb@Base 1.6
 (optional=templinst)_ZN3pcl6KdTreeINS_11PointXYZHSVEEC2Eb@Base 1.6
 (optional=templinst)_ZN3pcl6KdTreeINS_11PointXYZHSVEED0Ev@Base 1.6
 (optional=templinst)_ZN3pcl6KdTreeINS_11PointXYZHSVEED1Ev@Base 1.6
 (optional=templinst)_ZN3pcl6KdTreeINS_11PointXYZHSVEED2Ev@Base 1.6
 (optional=templinst)_ZN3pcl6KdTreeINS_11PointXYZRGBEE10setEpsilonEf@Base 1.6
 (optional=templinst)_ZN3pcl6KdTreeINS_11PointXYZRGBEE13setInputCloudERKN5boost10shared_ptrIKNS_10PointCloudIS1_EEEERKNS4_IKSt6vectorIiSaIiEEEE@Base 1.6
 (optional=templinst)_ZN3pcl6KdTreeINS_11PointXYZRGBEEC1Eb@Base 1.6
 (optional=templinst)_ZN3pcl6KdTreeINS_11PointXYZRGBEEC2Eb@Base 1.6
 (optional=templinst)_ZN3pcl6KdTreeINS_11PointXYZRGBEED0Ev@Base 1.6
 (optional=templinst)_ZN3pcl6KdTreeINS_11PointXYZRGBEED1Ev@Base 1.6
 (optional=templinst)_ZN3pcl6KdTreeINS_11PointXYZRGBEED2Ev@Base 1.6
 (optional=templinst)_ZN3pcl6KdTreeINS_12PPFSignatureEE10setEpsilonEf@Base 1.6
 (optional=templinst)_ZN3pcl6KdTreeINS_12PPFSignatureEE13setInputCloudERKN5boost10shared_ptrIKNS_10PointCloudIS1_EEEERKNS4_IKSt6vectorIiSaIiEEEE@Base 1.6
 (optional=templinst)_ZN3pcl6KdTreeINS_12PPFSignatureEEC1Eb@Base 1.6
 (optional=templinst)_ZN3pcl6KdTreeINS_12PPFSignatureEEC2Eb@Base 1.6
 (optional=templinst)_ZN3pcl6KdTreeINS_12PPFSignatureEED0Ev@Base 1.6
 (optional=templinst)_ZN3pcl6KdTreeINS_12PPFSignatureEED1Ev@Base 1.6
 (optional=templinst)_ZN3pcl6KdTreeINS_12PPFSignatureEED2Ev@Base 1.6
 (optional=templinst)_ZN3pcl6KdTreeINS_12PointXYZRGBAEE10setEpsilonEf@Base 1.6
 (optional=templinst)_ZN3pcl6KdTreeINS_12PointXYZRGBAEE13setInputCloudERKN5boost10shared_ptrIKNS_10PointCloudIS1_EEEERKNS4_IKSt6vectorIiSaIiEEEE@Base 1.6
 (optional=templinst)_ZN3pcl6KdTreeINS_12PointXYZRGBAEEC1Eb@Base 1.6
 (optional=templinst)_ZN3pcl6KdTreeINS_12PointXYZRGBAEEC2Eb@Base 1.6
 (optional=templinst)_ZN3pcl6KdTreeINS_12PointXYZRGBAEED0Ev@Base 1.6
 (optional=templinst)_ZN3pcl6KdTreeINS_12PointXYZRGBAEED1Ev@Base 1.6
 (optional=templinst)_ZN3pcl6KdTreeINS_12PointXYZRGBAEED2Ev@Base 1.6
 (optional=templinst)_ZN3pcl6KdTreeINS_12PointXYZRGBLEE10setEpsilonEf@Base 1.6
 (optional=templinst)_ZN3pcl6KdTreeINS_12PointXYZRGBLEE13setInputCloudERKN5boost10shared_ptrIKNS_10PointCloudIS1_EEEERKNS4_IKSt6vectorIiSaIiEEEE@Base 1.6
 (optional=templinst)_ZN3pcl6KdTreeINS_12PointXYZRGBLEEC1Eb@Base 1.6
 (optional=templinst)_ZN3pcl6KdTreeINS_12PointXYZRGBLEEC2Eb@Base 1.6
 (optional=templinst)_ZN3pcl6KdTreeINS_12PointXYZRGBLEED0Ev@Base 1.6
 (optional=templinst)_ZN3pcl6KdTreeINS_12PointXYZRGBLEED1Ev@Base 1.6
 (optional=templinst)_ZN3pcl6KdTreeINS_12PointXYZRGBLEED2Ev@Base 1.6
 (optional=templinst)_ZN3pcl6KdTreeINS_13InterestPointEE10setEpsilonEf@Base 1.6
 (optional=templinst)_ZN3pcl6KdTreeINS_13InterestPointEE13setInputCloudERKN5boost10shared_ptrIKNS_10PointCloudIS1_EEEERKNS4_IKSt6vectorIiSaIiEEEE@Base 1.6
 (optional=templinst)_ZN3pcl6KdTreeINS_13InterestPointEEC1Eb@Base 1.6
 (optional=templinst)_ZN3pcl6KdTreeINS_13InterestPointEEC2Eb@Base 1.6
 (optional=templinst)_ZN3pcl6KdTreeINS_13InterestPointEED0Ev@Base 1.6
 (optional=templinst)_ZN3pcl6KdTreeINS_13InterestPointEED1Ev@Base 1.6
 (optional=templinst)_ZN3pcl6KdTreeINS_13InterestPointEED2Ev@Base 1.6
 (optional=templinst)_ZN3pcl6KdTreeINS_14PointWithRangeEE10setEpsilonEf@Base 1.6
 (optional=templinst)_ZN3pcl6KdTreeINS_14PointWithRangeEE13setInputCloudERKN5boost10shared_ptrIKNS_10PointCloudIS1_EEEERKNS4_IKSt6vectorIiSaIiEEEE@Base 1.6
 (optional=templinst)_ZN3pcl6KdTreeINS_14PointWithRangeEEC1Eb@Base 1.6
 (optional=templinst)_ZN3pcl6KdTreeINS_14PointWithRangeEEC2Eb@Base 1.6
 (optional=templinst)_ZN3pcl6KdTreeINS_14PointWithRangeEED0Ev@Base 1.6
 (optional=templinst)_ZN3pcl6KdTreeINS_14PointWithRangeEED1Ev@Base 1.6
 (optional=templinst)_ZN3pcl6KdTreeINS_14PointWithRangeEED2Ev@Base 1.6
 (optional=templinst)_ZN3pcl6KdTreeINS_14PointWithScaleEE10setEpsilonEf@Base 1.6
 (optional=templinst)_ZN3pcl6KdTreeINS_14PointWithScaleEE13setInputCloudERKN5boost10shared_ptrIKNS_10PointCloudIS1_EEEERKNS4_IKSt6vectorIiSaIiEEEE@Base 1.6
 (optional=templinst)_ZN3pcl6KdTreeINS_14PointWithScaleEEC1Eb@Base 1.6
 (optional=templinst)_ZN3pcl6KdTreeINS_14PointWithScaleEEC2Eb@Base 1.6
 (optional=templinst)_ZN3pcl6KdTreeINS_14PointWithScaleEED0Ev@Base 1.6
 (optional=templinst)_ZN3pcl6KdTreeINS_14PointWithScaleEED1Ev@Base 1.6
 (optional=templinst)_ZN3pcl6KdTreeINS_14PointWithScaleEED2Ev@Base 1.6
 (optional=templinst)_ZN3pcl6KdTreeINS_14ReferenceFrameEE10setEpsilonEf@Base 1.6
 (optional=templinst)_ZN3pcl6KdTreeINS_14ReferenceFrameEE13setInputCloudERKN5boost10shared_ptrIKNS_10PointCloudIS1_EEEERKNS4_IKSt6vectorIiSaIiEEEE@Base 1.6
 (optional=templinst)_ZN3pcl6KdTreeINS_14ReferenceFrameEEC1Eb@Base 1.6
 (optional=templinst)_ZN3pcl6KdTreeINS_14ReferenceFrameEEC2Eb@Base 1.6
 (optional=templinst)_ZN3pcl6KdTreeINS_14ReferenceFrameEED0Ev@Base 1.6
 (optional=templinst)_ZN3pcl6KdTreeINS_14ReferenceFrameEED1Ev@Base 1.6
 (optional=templinst)_ZN3pcl6KdTreeINS_14ReferenceFrameEED2Ev@Base 1.6
 (optional=templinst)_ZN3pcl6KdTreeINS_15ESFSignature640EE10setEpsilonEf@Base 1.6
 (optional=templinst)_ZN3pcl6KdTreeINS_15ESFSignature640EE13setInputCloudERKN5boost10shared_ptrIKNS_10PointCloudIS1_EEEERKNS4_IKSt6vectorIiSaIiEEEE@Base 1.6
 (optional=templinst)_ZN3pcl6KdTreeINS_15ESFSignature640EEC1Eb@Base 1.6
 (optional=templinst)_ZN3pcl6KdTreeINS_15ESFSignature640EEC2Eb@Base 1.6
 (optional=templinst)_ZN3pcl6KdTreeINS_15ESFSignature640EED0Ev@Base 1.6
 (optional=templinst)_ZN3pcl6KdTreeINS_15ESFSignature640EED1Ev@Base 1.6
 (optional=templinst)_ZN3pcl6KdTreeINS_15ESFSignature640EED2Ev@Base 1.6
 (optional=templinst)_ZN3pcl6KdTreeINS_15FPFHSignature33EE10setEpsilonEf@Base 1.6
 (optional=templinst)_ZN3pcl6KdTreeINS_15FPFHSignature33EE13setInputCloudERKN5boost10shared_ptrIKNS_10PointCloudIS1_EEEERKNS4_IKSt6vectorIiSaIiEEEE@Base 1.6
 (optional=templinst)_ZN3pcl6KdTreeINS_15FPFHSignature33EEC1Eb@Base 1.6
 (optional=templinst)_ZN3pcl6KdTreeINS_15FPFHSignature33EEC2Eb@Base 1.6
 (optional=templinst)_ZN3pcl6KdTreeINS_15FPFHSignature33EED0Ev@Base 1.6
 (optional=templinst)_ZN3pcl6KdTreeINS_15FPFHSignature33EED1Ev@Base 1.6
 (optional=templinst)_ZN3pcl6KdTreeINS_15FPFHSignature33EED2Ev@Base 1.6
 (optional=templinst)_ZN3pcl6KdTreeINS_15PFHSignature125EE10setEpsilonEf@Base 1.6
 (optional=templinst)_ZN3pcl6KdTreeINS_15PFHSignature125EE13setInputCloudERKN5boost10shared_ptrIKNS_10PointCloudIS1_EEEERKNS4_IKSt6vectorIiSaIiEEEE@Base 1.6
 (optional=templinst)_ZN3pcl6KdTreeINS_15PFHSignature125EEC1Eb@Base 1.6
 (optional=templinst)_ZN3pcl6KdTreeINS_15PFHSignature125EEC2Eb@Base 1.6
 (optional=templinst)_ZN3pcl6KdTreeINS_15PFHSignature125EED0Ev@Base 1.6
 (optional=templinst)_ZN3pcl6KdTreeINS_15PFHSignature125EED1Ev@Base 1.6
 (optional=templinst)_ZN3pcl6KdTreeINS_15PFHSignature125EED2Ev@Base 1.6
 (optional=templinst)_ZN3pcl6KdTreeINS_15PPFRGBSignatureEE10setEpsilonEf@Base 1.6
 (optional=templinst)_ZN3pcl6KdTreeINS_15PPFRGBSignatureEE13setInputCloudERKN5boost10shared_ptrIKNS_10PointCloudIS1_EEEERKNS4_IKSt6vectorIiSaIiEEEE@Base 1.6
 (optional=templinst)_ZN3pcl6KdTreeINS_15PPFRGBSignatureEEC1Eb@Base 1.6
 (optional=templinst)_ZN3pcl6KdTreeINS_15PPFRGBSignatureEEC2Eb@Base 1.6
 (optional=templinst)_ZN3pcl6KdTreeINS_15PPFRGBSignatureEED0Ev@Base 1.6
 (optional=templinst)_ZN3pcl6KdTreeINS_15PPFRGBSignatureEED1Ev@Base 1.6
 (optional=templinst)_ZN3pcl6KdTreeINS_15PPFRGBSignatureEED2Ev@Base 1.6
 (optional=templinst)_ZN3pcl6KdTreeINS_15PointXYZINormalEE10setEpsilonEf@Base 1.6
 (optional=templinst)_ZN3pcl6KdTreeINS_15PointXYZINormalEE13setInputCloudERKN5boost10shared_ptrIKNS_10PointCloudIS1_EEEERKNS4_IKSt6vectorIiSaIiEEEE@Base 1.6
 (optional=templinst)_ZN3pcl6KdTreeINS_15PointXYZINormalEEC1Eb@Base 1.6
 (optional=templinst)_ZN3pcl6KdTreeINS_15PointXYZINormalEEC2Eb@Base 1.6
 (optional=templinst)_ZN3pcl6KdTreeINS_15PointXYZINormalEED0Ev@Base 1.6
 (optional=templinst)_ZN3pcl6KdTreeINS_15PointXYZINormalEED1Ev@Base 1.6
 (optional=templinst)_ZN3pcl6KdTreeINS_15PointXYZINormalEED2Ev@Base 1.6
 (optional=templinst)_ZN3pcl6KdTreeINS_15VFHSignature308EE10setEpsilonEf@Base 1.6
 (optional=templinst)_ZN3pcl6KdTreeINS_15VFHSignature308EE13setInputCloudERKN5boost10shared_ptrIKNS_10PointCloudIS1_EEEERKNS4_IKSt6vectorIiSaIiEEEE@Base 1.6
 (optional=templinst)_ZN3pcl6KdTreeINS_15VFHSignature308EEC1Eb@Base 1.6
 (optional=templinst)_ZN3pcl6KdTreeINS_15VFHSignature308EEC2Eb@Base 1.6
 (optional=templinst)_ZN3pcl6KdTreeINS_15VFHSignature308EED0Ev@Base 1.6
 (optional=templinst)_ZN3pcl6KdTreeINS_15VFHSignature308EED1Ev@Base 1.6
 (optional=templinst)_ZN3pcl6KdTreeINS_15VFHSignature308EED2Ev@Base 1.6
 (optional=templinst)_ZN3pcl6KdTreeINS_16MomentInvariantsEE10setEpsilonEf@Base 1.6
 (optional=templinst)_ZN3pcl6KdTreeINS_16MomentInvariantsEE13setInputCloudERKN5boost10shared_ptrIKNS_10PointCloudIS1_EEEERKNS4_IKSt6vectorIiSaIiEEEE@Base 1.6
 (optional=templinst)_ZN3pcl6KdTreeINS_16MomentInvariantsEEC1Eb@Base 1.6
 (optional=templinst)_ZN3pcl6KdTreeINS_16MomentInvariantsEEC2Eb@Base 1.6
 (optional=templinst)_ZN3pcl6KdTreeINS_16MomentInvariantsEED0Ev@Base 1.6
 (optional=templinst)_ZN3pcl6KdTreeINS_16MomentInvariantsEED1Ev@Base 1.6
 (optional=templinst)_ZN3pcl6KdTreeINS_16MomentInvariantsEED2Ev@Base 1.6
 (optional=templinst)_ZN3pcl6KdTreeINS_17IntensityGradientEE10setEpsilonEf@Base 1.6
 (optional=templinst)_ZN3pcl6KdTreeINS_17IntensityGradientEE13setInputCloudERKN5boost10shared_ptrIKNS_10PointCloudIS1_EEEERKNS4_IKSt6vectorIiSaIiEEEE@Base 1.6
 (optional=templinst)_ZN3pcl6KdTreeINS_17IntensityGradientEEC1Eb@Base 1.6
 (optional=templinst)_ZN3pcl6KdTreeINS_17IntensityGradientEEC2Eb@Base 1.6
 (optional=templinst)_ZN3pcl6KdTreeINS_17IntensityGradientEED0Ev@Base 1.6
 (optional=templinst)_ZN3pcl6KdTreeINS_17IntensityGradientEED1Ev@Base 1.6
 (optional=templinst)_ZN3pcl6KdTreeINS_17IntensityGradientEED2Ev@Base 1.6
 (optional=templinst)_ZN3pcl6KdTreeINS_17PointXYZRGBNormalEE10setEpsilonEf@Base 1.6
 (optional=templinst)_ZN3pcl6KdTreeINS_17PointXYZRGBNormalEE13setInputCloudERKN5boost10shared_ptrIKNS_10PointCloudIS1_EEEERKNS4_IKSt6vectorIiSaIiEEEE@Base 1.6
 (optional=templinst)_ZN3pcl6KdTreeINS_17PointXYZRGBNormalEEC1Eb@Base 1.6
 (optional=templinst)_ZN3pcl6KdTreeINS_17PointXYZRGBNormalEEC2Eb@Base 1.6
 (optional=templinst)_ZN3pcl6KdTreeINS_17PointXYZRGBNormalEED0Ev@Base 1.6
 (optional=templinst)_ZN3pcl6KdTreeINS_17PointXYZRGBNormalEED1Ev@Base 1.6
 (optional=templinst)_ZN3pcl6KdTreeINS_17PointXYZRGBNormalEED2Ev@Base 1.6
 (optional=templinst)_ZN3pcl6KdTreeINS_17PrincipalRadiiRSDEE10setEpsilonEf@Base 1.6
 (optional=templinst)_ZN3pcl6KdTreeINS_17PrincipalRadiiRSDEE13setInputCloudERKN5boost10shared_ptrIKNS_10PointCloudIS1_EEEERKNS4_IKSt6vectorIiSaIiEEEE@Base 1.6
 (optional=templinst)_ZN3pcl6KdTreeINS_17PrincipalRadiiRSDEEC1Eb@Base 1.6
 (optional=templinst)_ZN3pcl6KdTreeINS_17PrincipalRadiiRSDEEC2Eb@Base 1.6
 (optional=templinst)_ZN3pcl6KdTreeINS_17PrincipalRadiiRSDEED0Ev@Base 1.6
 (optional=templinst)_ZN3pcl6KdTreeINS_17PrincipalRadiiRSDEED1Ev@Base 1.6
 (optional=templinst)_ZN3pcl6KdTreeINS_17PrincipalRadiiRSDEED2Ev@Base 1.6
 (optional=templinst)_ZN3pcl6KdTreeINS_18PFHRGBSignature250EE10setEpsilonEf@Base 1.6
 (optional=templinst)_ZN3pcl6KdTreeINS_18PFHRGBSignature250EE13setInputCloudERKN5boost10shared_ptrIKNS_10PointCloudIS1_EEEERKNS4_IKSt6vectorIiSaIiEEEE@Base 1.6
 (optional=templinst)_ZN3pcl6KdTreeINS_18PFHRGBSignature250EEC1Eb@Base 1.6
 (optional=templinst)_ZN3pcl6KdTreeINS_18PFHRGBSignature250EEC2Eb@Base 1.6
 (optional=templinst)_ZN3pcl6KdTreeINS_18PFHRGBSignature250EED0Ev@Base 1.6
 (optional=templinst)_ZN3pcl6KdTreeINS_18PFHRGBSignature250EED1Ev@Base 1.6
 (optional=templinst)_ZN3pcl6KdTreeINS_18PFHRGBSignature250EED2Ev@Base 1.6
 (optional=templinst)_ZN3pcl6KdTreeINS_18PointWithViewpointEE10setEpsilonEf@Base 1.6
 (optional=templinst)_ZN3pcl6KdTreeINS_18PointWithViewpointEE13setInputCloudERKN5boost10shared_ptrIKNS_10PointCloudIS1_EEEERKNS4_IKSt6vectorIiSaIiEEEE@Base 1.6
 (optional=templinst)_ZN3pcl6KdTreeINS_18PointWithViewpointEEC1Eb@Base 1.6
 (optional=templinst)_ZN3pcl6KdTreeINS_18PointWithViewpointEEC2Eb@Base 1.6
 (optional=templinst)_ZN3pcl6KdTreeINS_18PointWithViewpointEED0Ev@Base 1.6
 (optional=templinst)_ZN3pcl6KdTreeINS_18PointWithViewpointEED1Ev@Base 1.6
 (optional=templinst)_ZN3pcl6KdTreeINS_18PointWithViewpointEED2Ev@Base 1.6
 (optional=templinst)_ZN3pcl6KdTreeINS_19PrincipalCurvaturesEE10setEpsilonEf@Base 1.6
 (optional=templinst)_ZN3pcl6KdTreeINS_19PrincipalCurvaturesEE13setInputCloudERKN5boost10shared_ptrIKNS_10PointCloudIS1_EEEERKNS4_IKSt6vectorIiSaIiEEEE@Base 1.6
 (optional=templinst)_ZN3pcl6KdTreeINS_19PrincipalCurvaturesEEC1Eb@Base 1.6
 (optional=templinst)_ZN3pcl6KdTreeINS_19PrincipalCurvaturesEEC2Eb@Base 1.6
 (optional=templinst)_ZN3pcl6KdTreeINS_19PrincipalCurvaturesEED0Ev@Base 1.6
 (optional=templinst)_ZN3pcl6KdTreeINS_19PrincipalCurvaturesEED1Ev@Base 1.6
 (optional=templinst)_ZN3pcl6KdTreeINS_19PrincipalCurvaturesEED2Ev@Base 1.6
 (optional=templinst)_ZN3pcl6KdTreeINS_22NormalBasedSignature12EE10setEpsilonEf@Base 1.6
 (optional=templinst)_ZN3pcl6KdTreeINS_22NormalBasedSignature12EE13setInputCloudERKN5boost10shared_ptrIKNS_10PointCloudIS1_EEEERKNS4_IKSt6vectorIiSaIiEEEE@Base 1.6
 (optional=templinst)_ZN3pcl6KdTreeINS_22NormalBasedSignature12EEC1Eb@Base 1.6
 (optional=templinst)_ZN3pcl6KdTreeINS_22NormalBasedSignature12EEC2Eb@Base 1.6
 (optional=templinst)_ZN3pcl6KdTreeINS_22NormalBasedSignature12EED0Ev@Base 1.6
 (optional=templinst)_ZN3pcl6KdTreeINS_22NormalBasedSignature12EED1Ev@Base 1.6
 (optional=templinst)_ZN3pcl6KdTreeINS_22NormalBasedSignature12EED2Ev@Base 1.6
 (optional=templinst)_ZN3pcl6KdTreeINS_4AxisEE10setEpsilonEf@Base 1.6
 (optional=templinst)_ZN3pcl6KdTreeINS_4AxisEE13setInputCloudERKN5boost10shared_ptrIKNS_10PointCloudIS1_EEEERKNS4_IKSt6vectorIiSaIiEEEE@Base 1.6
 (optional=templinst)_ZN3pcl6KdTreeINS_4AxisEEC1Eb@Base 1.6
 (optional=templinst)_ZN3pcl6KdTreeINS_4AxisEEC2Eb@Base 1.6
 (optional=templinst)_ZN3pcl6KdTreeINS_4AxisEED0Ev@Base 1.6
 (optional=templinst)_ZN3pcl6KdTreeINS_4AxisEED1Ev@Base 1.6
 (optional=templinst)_ZN3pcl6KdTreeINS_4AxisEED2Ev@Base 1.6
 (optional=templinst)_ZN3pcl6KdTreeINS_5LabelEE10setEpsilonEf@Base 1.6
 (optional=templinst)_ZN3pcl6KdTreeINS_5LabelEE13setInputCloudERKN5boost10shared_ptrIKNS_10PointCloudIS1_EEEERKNS4_IKSt6vectorIiSaIiEEEE@Base 1.6
 (optional=templinst)_ZN3pcl6KdTreeINS_5LabelEEC1Eb@Base 1.6
 (optional=templinst)_ZN3pcl6KdTreeINS_5LabelEEC2Eb@Base 1.6
 (optional=templinst)_ZN3pcl6KdTreeINS_5LabelEED0Ev@Base 1.6
 (optional=templinst)_ZN3pcl6KdTreeINS_5LabelEED1Ev@Base 1.6
 (optional=templinst)_ZN3pcl6KdTreeINS_5LabelEED2Ev@Base 1.6
 (optional=templinst)_ZN3pcl6KdTreeINS_6Narf36EE10setEpsilonEf@Base 1.6
 (optional=templinst)_ZN3pcl6KdTreeINS_6Narf36EE13setInputCloudERKN5boost10shared_ptrIKNS_10PointCloudIS1_EEEERKNS4_IKSt6vectorIiSaIiEEEE@Base 1.6
 (optional=templinst)_ZN3pcl6KdTreeINS_6Narf36EEC1Eb@Base 1.6
 (optional=templinst)_ZN3pcl6KdTreeINS_6Narf36EEC2Eb@Base 1.6
 (optional=templinst)_ZN3pcl6KdTreeINS_6Narf36EED0Ev@Base 1.6
 (optional=templinst)_ZN3pcl6KdTreeINS_6Narf36EED1Ev@Base 1.6
 (optional=templinst)_ZN3pcl6KdTreeINS_6Narf36EED2Ev@Base 1.6
 (optional=templinst)_ZN3pcl6KdTreeINS_6NormalEE10setEpsilonEf@Base 1.6
 (optional=templinst)_ZN3pcl6KdTreeINS_6NormalEE13setInputCloudERKN5boost10shared_ptrIKNS_10PointCloudIS1_EEEERKNS4_IKSt6vectorIiSaIiEEEE@Base 1.6
 (optional=templinst)_ZN3pcl6KdTreeINS_6NormalEEC1Eb@Base 1.6
 (optional=templinst)_ZN3pcl6KdTreeINS_6NormalEEC2Eb@Base 1.6
 (optional=templinst)_ZN3pcl6KdTreeINS_6NormalEED0Ev@Base 1.6
 (optional=templinst)_ZN3pcl6KdTreeINS_6NormalEED1Ev@Base 1.6
 (optional=templinst)_ZN3pcl6KdTreeINS_6NormalEED2Ev@Base 1.6
 (optional=templinst)_ZN3pcl6KdTreeINS_7PointXYEE10setEpsilonEf@Base 1.6
 (optional=templinst)_ZN3pcl6KdTreeINS_7PointXYEE13setInputCloudERKN5boost10shared_ptrIKNS_10PointCloudIS1_EEEERKNS4_IKSt6vectorIiSaIiEEEE@Base 1.6
 (optional=templinst)_ZN3pcl6KdTreeINS_7PointXYEEC1Eb@Base 1.6
 (optional=templinst)_ZN3pcl6KdTreeINS_7PointXYEEC2Eb@Base 1.6
 (optional=templinst)_ZN3pcl6KdTreeINS_7PointXYEED0Ev@Base 1.6
 (optional=templinst)_ZN3pcl6KdTreeINS_7PointXYEED1Ev@Base 1.6
 (optional=templinst)_ZN3pcl6KdTreeINS_7PointXYEED2Ev@Base 1.6
 (optional=templinst)_ZN3pcl6KdTreeINS_8BoundaryEE10setEpsilonEf@Base 1.6
 (optional=templinst)_ZN3pcl6KdTreeINS_8BoundaryEE13setInputCloudERKN5boost10shared_ptrIKNS_10PointCloudIS1_EEEERKNS4_IKSt6vectorIiSaIiEEEE@Base 1.6
 (optional=templinst)_ZN3pcl6KdTreeINS_8BoundaryEEC1Eb@Base 1.6
 (optional=templinst)_ZN3pcl6KdTreeINS_8BoundaryEEC2Eb@Base 1.6
 (optional=templinst)_ZN3pcl6KdTreeINS_8BoundaryEED0Ev@Base 1.6
 (optional=templinst)_ZN3pcl6KdTreeINS_8BoundaryEED1Ev@Base 1.6
 (optional=templinst)_ZN3pcl6KdTreeINS_8BoundaryEED2Ev@Base 1.6
 (optional=templinst)_ZN3pcl6KdTreeINS_8PointXYZEE10setEpsilonEf@Base 1.6
 (optional=templinst)_ZN3pcl6KdTreeINS_8PointXYZEE13setInputCloudERKN5boost10shared_ptrIKNS_10PointCloudIS1_EEEERKNS4_IKSt6vectorIiSaIiEEEE@Base 1.6
 (optional=templinst)_ZN3pcl6KdTreeINS_8PointXYZEEC1Eb@Base 1.6
 (optional=templinst)_ZN3pcl6KdTreeINS_8PointXYZEEC2Eb@Base 1.6
 (optional=templinst)_ZN3pcl6KdTreeINS_8PointXYZEED0Ev@Base 1.6
 (optional=templinst)_ZN3pcl6KdTreeINS_8PointXYZEED1Ev@Base 1.6
 (optional=templinst)_ZN3pcl6KdTreeINS_8PointXYZEED2Ev@Base 1.6
 (optional=templinst)_ZN3pcl6KdTreeINS_9PointXYZIEE10setEpsilonEf@Base 1.6
 (optional=templinst)_ZN3pcl6KdTreeINS_9PointXYZIEE13setInputCloudERKN5boost10shared_ptrIKNS_10PointCloudIS1_EEEERKNS4_IKSt6vectorIiSaIiEEEE@Base 1.6
 (optional=templinst)_ZN3pcl6KdTreeINS_9PointXYZIEEC1Eb@Base 1.6
 (optional=templinst)_ZN3pcl6KdTreeINS_9PointXYZIEEC2Eb@Base 1.6
 (optional=templinst)_ZN3pcl6KdTreeINS_9PointXYZIEED0Ev@Base 1.6
 (optional=templinst)_ZN3pcl6KdTreeINS_9PointXYZIEED1Ev@Base 1.6
 (optional=templinst)_ZN3pcl6KdTreeINS_9PointXYZIEED2Ev@Base 1.6
 (optional=templinst)_ZN3pcl6KdTreeINS_9PointXYZLEE10setEpsilonEf@Base 1.6
 (optional=templinst)_ZN3pcl6KdTreeINS_9PointXYZLEE13setInputCloudERKN5boost10shared_ptrIKNS_10PointCloudIS1_EEEERKNS4_IKSt6vectorIiSaIiEEEE@Base 1.6
 (optional=templinst)_ZN3pcl6KdTreeINS_9PointXYZLEEC1Eb@Base 1.6
 (optional=templinst)_ZN3pcl6KdTreeINS_9PointXYZLEEC2Eb@Base 1.6
 (optional=templinst)_ZN3pcl6KdTreeINS_9PointXYZLEED0Ev@Base 1.6
 (optional=templinst)_ZN3pcl6KdTreeINS_9PointXYZLEED1Ev@Base 1.6
 (optional=templinst)_ZN3pcl6KdTreeINS_9PointXYZLEED2Ev@Base 1.6
 (optional=templinst)_ZN3pcl6octree10OctreeBaseIiNS0_26OctreeContainerDataTVectorIiEENS0_20OctreeContainerEmptyIiEEE23deserializeTreeCallbackERNS0_14OctreeLeafNodeIS3_EERKNS0_9OctreeKeyE@Base 1.6
 (optional=templinst)_ZN3pcl6octree22OctreePointCloudSearchINS_11PointNormalENS0_26OctreeContainerDataTVectorIiEENS0_20OctreeContainerEmptyIiEEED0Ev@Base 1.6
 (optional=templinst)_ZN3pcl6octree22OctreePointCloudSearchINS_11PointNormalENS0_26OctreeContainerDataTVectorIiEENS0_20OctreeContainerEmptyIiEEED1Ev@Base 1.6
 (optional=templinst)_ZN3pcl6octree22OctreePointCloudSearchINS_11PointNormalENS0_26OctreeContainerDataTVectorIiEENS0_20OctreeContainerEmptyIiEEED2Ev@Base 1.6
 (optional=templinst)_ZN3pcl6octree22OctreePointCloudSearchINS_11PointXYZHSVENS0_26OctreeContainerDataTVectorIiEENS0_20OctreeContainerEmptyIiEEED0Ev@Base 1.6
 (optional=templinst)_ZN3pcl6octree22OctreePointCloudSearchINS_11PointXYZHSVENS0_26OctreeContainerDataTVectorIiEENS0_20OctreeContainerEmptyIiEEED1Ev@Base 1.6
 (optional=templinst)_ZN3pcl6octree22OctreePointCloudSearchINS_11PointXYZHSVENS0_26OctreeContainerDataTVectorIiEENS0_20OctreeContainerEmptyIiEEED2Ev@Base 1.6
 (optional=templinst)_ZN3pcl6octree22OctreePointCloudSearchINS_11PointXYZRGBENS0_26OctreeContainerDataTVectorIiEENS0_20OctreeContainerEmptyIiEEED0Ev@Base 1.6
 (optional=templinst)_ZN3pcl6octree22OctreePointCloudSearchINS_11PointXYZRGBENS0_26OctreeContainerDataTVectorIiEENS0_20OctreeContainerEmptyIiEEED1Ev@Base 1.6
 (optional=templinst)_ZN3pcl6octree22OctreePointCloudSearchINS_11PointXYZRGBENS0_26OctreeContainerDataTVectorIiEENS0_20OctreeContainerEmptyIiEEED2Ev@Base 1.6
 (optional=templinst)_ZN3pcl6octree22OctreePointCloudSearchINS_12PointXYZRGBAENS0_26OctreeContainerDataTVectorIiEENS0_20OctreeContainerEmptyIiEEED0Ev@Base 1.6
 (optional=templinst)_ZN3pcl6octree22OctreePointCloudSearchINS_12PointXYZRGBAENS0_26OctreeContainerDataTVectorIiEENS0_20OctreeContainerEmptyIiEEED1Ev@Base 1.6
 (optional=templinst)_ZN3pcl6octree22OctreePointCloudSearchINS_12PointXYZRGBAENS0_26OctreeContainerDataTVectorIiEENS0_20OctreeContainerEmptyIiEEED2Ev@Base 1.6
 (optional=templinst)_ZN3pcl6octree22OctreePointCloudSearchINS_12PointXYZRGBLENS0_26OctreeContainerDataTVectorIiEENS0_20OctreeContainerEmptyIiEEED0Ev@Base 1.6
 (optional=templinst)_ZN3pcl6octree22OctreePointCloudSearchINS_12PointXYZRGBLENS0_26OctreeContainerDataTVectorIiEENS0_20OctreeContainerEmptyIiEEED1Ev@Base 1.6
 (optional=templinst)_ZN3pcl6octree22OctreePointCloudSearchINS_12PointXYZRGBLENS0_26OctreeContainerDataTVectorIiEENS0_20OctreeContainerEmptyIiEEED2Ev@Base 1.6
 (optional=templinst)_ZN3pcl6octree22OctreePointCloudSearchINS_13InterestPointENS0_26OctreeContainerDataTVectorIiEENS0_20OctreeContainerEmptyIiEEED0Ev@Base 1.6
 (optional=templinst)_ZN3pcl6octree22OctreePointCloudSearchINS_13InterestPointENS0_26OctreeContainerDataTVectorIiEENS0_20OctreeContainerEmptyIiEEED1Ev@Base 1.6
 (optional=templinst)_ZN3pcl6octree22OctreePointCloudSearchINS_13InterestPointENS0_26OctreeContainerDataTVectorIiEENS0_20OctreeContainerEmptyIiEEED2Ev@Base 1.6
 (optional=templinst)_ZN3pcl6octree22OctreePointCloudSearchINS_14PointWithRangeENS0_26OctreeContainerDataTVectorIiEENS0_20OctreeContainerEmptyIiEEED0Ev@Base 1.6
 (optional=templinst)_ZN3pcl6octree22OctreePointCloudSearchINS_14PointWithRangeENS0_26OctreeContainerDataTVectorIiEENS0_20OctreeContainerEmptyIiEEED1Ev@Base 1.6
 (optional=templinst)_ZN3pcl6octree22OctreePointCloudSearchINS_14PointWithRangeENS0_26OctreeContainerDataTVectorIiEENS0_20OctreeContainerEmptyIiEEED2Ev@Base 1.6
 (optional=templinst)_ZN3pcl6octree22OctreePointCloudSearchINS_14PointWithScaleENS0_26OctreeContainerDataTVectorIiEENS0_20OctreeContainerEmptyIiEEED0Ev@Base 1.6
 (optional=templinst)_ZN3pcl6octree22OctreePointCloudSearchINS_14PointWithScaleENS0_26OctreeContainerDataTVectorIiEENS0_20OctreeContainerEmptyIiEEED1Ev@Base 1.6
 (optional=templinst)_ZN3pcl6octree22OctreePointCloudSearchINS_14PointWithScaleENS0_26OctreeContainerDataTVectorIiEENS0_20OctreeContainerEmptyIiEEED2Ev@Base 1.6
 (optional=templinst)_ZN3pcl6octree22OctreePointCloudSearchINS_15PointXYZINormalENS0_26OctreeContainerDataTVectorIiEENS0_20OctreeContainerEmptyIiEEED0Ev@Base 1.6
 (optional=templinst)_ZN3pcl6octree22OctreePointCloudSearchINS_15PointXYZINormalENS0_26OctreeContainerDataTVectorIiEENS0_20OctreeContainerEmptyIiEEED1Ev@Base 1.6
 (optional=templinst)_ZN3pcl6octree22OctreePointCloudSearchINS_15PointXYZINormalENS0_26OctreeContainerDataTVectorIiEENS0_20OctreeContainerEmptyIiEEED2Ev@Base 1.6
 (optional=templinst)_ZN3pcl6octree22OctreePointCloudSearchINS_17PointXYZRGBNormalENS0_26OctreeContainerDataTVectorIiEENS0_20OctreeContainerEmptyIiEEED0Ev@Base 1.6
 (optional=templinst)_ZN3pcl6octree22OctreePointCloudSearchINS_17PointXYZRGBNormalENS0_26OctreeContainerDataTVectorIiEENS0_20OctreeContainerEmptyIiEEED1Ev@Base 1.6
 (optional=templinst)_ZN3pcl6octree22OctreePointCloudSearchINS_17PointXYZRGBNormalENS0_26OctreeContainerDataTVectorIiEENS0_20OctreeContainerEmptyIiEEED2Ev@Base 1.6
 (optional=templinst)_ZN3pcl6octree22OctreePointCloudSearchINS_18PointWithViewpointENS0_26OctreeContainerDataTVectorIiEENS0_20OctreeContainerEmptyIiEEED0Ev@Base 1.6
 (optional=templinst)_ZN3pcl6octree22OctreePointCloudSearchINS_18PointWithViewpointENS0_26OctreeContainerDataTVectorIiEENS0_20OctreeContainerEmptyIiEEED1Ev@Base 1.6
 (optional=templinst)_ZN3pcl6octree22OctreePointCloudSearchINS_18PointWithViewpointENS0_26OctreeContainerDataTVectorIiEENS0_20OctreeContainerEmptyIiEEED2Ev@Base 1.6
 (optional=templinst)_ZN3pcl6octree22OctreePointCloudSearchINS_8PointXYZENS0_26OctreeContainerDataTVectorIiEENS0_20OctreeContainerEmptyIiEEED0Ev@Base 1.6
 (optional=templinst)_ZN3pcl6octree22OctreePointCloudSearchINS_8PointXYZENS0_26OctreeContainerDataTVectorIiEENS0_20OctreeContainerEmptyIiEEED1Ev@Base 1.6
 (optional=templinst)_ZN3pcl6octree22OctreePointCloudSearchINS_8PointXYZENS0_26OctreeContainerDataTVectorIiEENS0_20OctreeContainerEmptyIiEEED2Ev@Base 1.6
 (optional=templinst)_ZN3pcl6octree22OctreePointCloudSearchINS_9PointXYZIENS0_26OctreeContainerDataTVectorIiEENS0_20OctreeContainerEmptyIiEEED0Ev@Base 1.6
 (optional=templinst)_ZN3pcl6octree22OctreePointCloudSearchINS_9PointXYZIENS0_26OctreeContainerDataTVectorIiEENS0_20OctreeContainerEmptyIiEEED1Ev@Base 1.6
 (optional=templinst)_ZN3pcl6octree22OctreePointCloudSearchINS_9PointXYZIENS0_26OctreeContainerDataTVectorIiEENS0_20OctreeContainerEmptyIiEEED2Ev@Base 1.6
 (optional=templinst)_ZN3pcl6octree22OctreePointCloudSearchINS_9PointXYZLENS0_26OctreeContainerDataTVectorIiEENS0_20OctreeContainerEmptyIiEEED0Ev@Base 1.6
 (optional=templinst)_ZN3pcl6octree22OctreePointCloudSearchINS_9PointXYZLENS0_26OctreeContainerDataTVectorIiEENS0_20OctreeContainerEmptyIiEEED1Ev@Base 1.6
 (optional=templinst)_ZN3pcl6octree22OctreePointCloudSearchINS_9PointXYZLENS0_26OctreeContainerDataTVectorIiEENS0_20OctreeContainerEmptyIiEEED2Ev@Base 1.6
 (optional=templinst)_ZN3pcl6search10BruteForceINS_11PointNormalEE5EntryC1Eif@Base 1.6
 (optional=templinst)_ZN3pcl6search10BruteForceINS_11PointNormalEE5EntryC1Ev@Base 1.6
 (optional=templinst)_ZN3pcl6search10BruteForceINS_11PointNormalEE5EntryC2Eif@Base 1.6
 (optional=templinst)_ZN3pcl6search10BruteForceINS_11PointNormalEE5EntryC2Ev@Base 1.6
 (optional=templinst)_ZN3pcl6search10BruteForceINS_11PointNormalEEC1Eb@Base 1.6
 (optional=templinst)_ZN3pcl6search10BruteForceINS_11PointNormalEEC2Eb@Base 1.6
 (optional=templinst)_ZN3pcl6search10BruteForceINS_11PointNormalEED0Ev@Base 1.6
 (optional=templinst)_ZN3pcl6search10BruteForceINS_11PointNormalEED1Ev@Base 1.6
 (optional=templinst)_ZN3pcl6search10BruteForceINS_11PointNormalEED2Ev@Base 1.6
 (optional=templinst)_ZN3pcl6search10BruteForceINS_11PointXYZHSVEE5EntryC1Eif@Base 1.6
 (optional=templinst)_ZN3pcl6search10BruteForceINS_11PointXYZHSVEE5EntryC1Ev@Base 1.6
 (optional=templinst)_ZN3pcl6search10BruteForceINS_11PointXYZHSVEE5EntryC2Eif@Base 1.6
 (optional=templinst)_ZN3pcl6search10BruteForceINS_11PointXYZHSVEE5EntryC2Ev@Base 1.6
 (optional=templinst)_ZN3pcl6search10BruteForceINS_11PointXYZHSVEEC1Eb@Base 1.6
 (optional=templinst)_ZN3pcl6search10BruteForceINS_11PointXYZHSVEEC2Eb@Base 1.6
 (optional=templinst)_ZN3pcl6search10BruteForceINS_11PointXYZHSVEED0Ev@Base 1.6
 (optional=templinst)_ZN3pcl6search10BruteForceINS_11PointXYZHSVEED1Ev@Base 1.6
 (optional=templinst)_ZN3pcl6search10BruteForceINS_11PointXYZHSVEED2Ev@Base 1.6
 (optional=templinst)_ZN3pcl6search10BruteForceINS_11PointXYZRGBEE5EntryC1Eif@Base 1.6
 (optional=templinst)_ZN3pcl6search10BruteForceINS_11PointXYZRGBEE5EntryC1Ev@Base 1.6
 (optional=templinst)_ZN3pcl6search10BruteForceINS_11PointXYZRGBEE5EntryC2Eif@Base 1.6
 (optional=templinst)_ZN3pcl6search10BruteForceINS_11PointXYZRGBEE5EntryC2Ev@Base 1.6
 (optional=templinst)_ZN3pcl6search10BruteForceINS_11PointXYZRGBEEC1Eb@Base 1.6
 (optional=templinst)_ZN3pcl6search10BruteForceINS_11PointXYZRGBEEC2Eb@Base 1.6
 (optional=templinst)_ZN3pcl6search10BruteForceINS_11PointXYZRGBEED0Ev@Base 1.6
 (optional=templinst)_ZN3pcl6search10BruteForceINS_11PointXYZRGBEED1Ev@Base 1.6
 (optional=templinst)_ZN3pcl6search10BruteForceINS_11PointXYZRGBEED2Ev@Base 1.6
 (optional=templinst)_ZN3pcl6search10BruteForceINS_12PointXYZRGBAEE5EntryC1Eif@Base 1.6
 (optional=templinst)_ZN3pcl6search10BruteForceINS_12PointXYZRGBAEE5EntryC1Ev@Base 1.6
 (optional=templinst)_ZN3pcl6search10BruteForceINS_12PointXYZRGBAEE5EntryC2Eif@Base 1.6
 (optional=templinst)_ZN3pcl6search10BruteForceINS_12PointXYZRGBAEE5EntryC2Ev@Base 1.6
 (optional=templinst)_ZN3pcl6search10BruteForceINS_12PointXYZRGBAEEC1Eb@Base 1.6
 (optional=templinst)_ZN3pcl6search10BruteForceINS_12PointXYZRGBAEEC2Eb@Base 1.6
 (optional=templinst)_ZN3pcl6search10BruteForceINS_12PointXYZRGBAEED0Ev@Base 1.6
 (optional=templinst)_ZN3pcl6search10BruteForceINS_12PointXYZRGBAEED1Ev@Base 1.6
 (optional=templinst)_ZN3pcl6search10BruteForceINS_12PointXYZRGBAEED2Ev@Base 1.6
 (optional=templinst)_ZN3pcl6search10BruteForceINS_12PointXYZRGBLEE5EntryC1Eif@Base 1.6
 (optional=templinst)_ZN3pcl6search10BruteForceINS_12PointXYZRGBLEE5EntryC1Ev@Base 1.6
 (optional=templinst)_ZN3pcl6search10BruteForceINS_12PointXYZRGBLEE5EntryC2Eif@Base 1.6
 (optional=templinst)_ZN3pcl6search10BruteForceINS_12PointXYZRGBLEE5EntryC2Ev@Base 1.6
 (optional=templinst)_ZN3pcl6search10BruteForceINS_12PointXYZRGBLEEC1Eb@Base 1.6
 (optional=templinst)_ZN3pcl6search10BruteForceINS_12PointXYZRGBLEEC2Eb@Base 1.6
 (optional=templinst)_ZN3pcl6search10BruteForceINS_12PointXYZRGBLEED0Ev@Base 1.6
 (optional=templinst)_ZN3pcl6search10BruteForceINS_12PointXYZRGBLEED1Ev@Base 1.6
 (optional=templinst)_ZN3pcl6search10BruteForceINS_12PointXYZRGBLEED2Ev@Base 1.6
 (optional=templinst)_ZN3pcl6search10BruteForceINS_13InterestPointEE5EntryC1Eif@Base 1.6
 (optional=templinst)_ZN3pcl6search10BruteForceINS_13InterestPointEE5EntryC1Ev@Base 1.6
 (optional=templinst)_ZN3pcl6search10BruteForceINS_13InterestPointEE5EntryC2Eif@Base 1.6
 (optional=templinst)_ZN3pcl6search10BruteForceINS_13InterestPointEE5EntryC2Ev@Base 1.6
 (optional=templinst)_ZN3pcl6search10BruteForceINS_13InterestPointEEC1Eb@Base 1.6
 (optional=templinst)_ZN3pcl6search10BruteForceINS_13InterestPointEEC2Eb@Base 1.6
 (optional=templinst)_ZN3pcl6search10BruteForceINS_13InterestPointEED0Ev@Base 1.6
 (optional=templinst)_ZN3pcl6search10BruteForceINS_13InterestPointEED1Ev@Base 1.6
 (optional=templinst)_ZN3pcl6search10BruteForceINS_13InterestPointEED2Ev@Base 1.6
 (optional=templinst)_ZN3pcl6search10BruteForceINS_14PointWithRangeEE5EntryC1Eif@Base 1.6
 (optional=templinst)_ZN3pcl6search10BruteForceINS_14PointWithRangeEE5EntryC1Ev@Base 1.6
 (optional=templinst)_ZN3pcl6search10BruteForceINS_14PointWithRangeEE5EntryC2Eif@Base 1.6
 (optional=templinst)_ZN3pcl6search10BruteForceINS_14PointWithRangeEE5EntryC2Ev@Base 1.6
 (optional=templinst)_ZN3pcl6search10BruteForceINS_14PointWithRangeEEC1Eb@Base 1.6
 (optional=templinst)_ZN3pcl6search10BruteForceINS_14PointWithRangeEEC2Eb@Base 1.6
 (optional=templinst)_ZN3pcl6search10BruteForceINS_14PointWithRangeEED0Ev@Base 1.6
 (optional=templinst)_ZN3pcl6search10BruteForceINS_14PointWithRangeEED1Ev@Base 1.6
 (optional=templinst)_ZN3pcl6search10BruteForceINS_14PointWithRangeEED2Ev@Base 1.6
 (optional=templinst)_ZN3pcl6search10BruteForceINS_14PointWithScaleEE5EntryC1Eif@Base 1.6
 (optional=templinst)_ZN3pcl6search10BruteForceINS_14PointWithScaleEE5EntryC1Ev@Base 1.6
 (optional=templinst)_ZN3pcl6search10BruteForceINS_14PointWithScaleEE5EntryC2Eif@Base 1.6
 (optional=templinst)_ZN3pcl6search10BruteForceINS_14PointWithScaleEE5EntryC2Ev@Base 1.6
 (optional=templinst)_ZN3pcl6search10BruteForceINS_14PointWithScaleEEC1Eb@Base 1.6
 (optional=templinst)_ZN3pcl6search10BruteForceINS_14PointWithScaleEEC2Eb@Base 1.6
 (optional=templinst)_ZN3pcl6search10BruteForceINS_14PointWithScaleEED0Ev@Base 1.6
 (optional=templinst)_ZN3pcl6search10BruteForceINS_14PointWithScaleEED1Ev@Base 1.6
 (optional=templinst)_ZN3pcl6search10BruteForceINS_14PointWithScaleEED2Ev@Base 1.6
 (optional=templinst)_ZN3pcl6search10BruteForceINS_15PointXYZINormalEE5EntryC1Eif@Base 1.6
 (optional=templinst)_ZN3pcl6search10BruteForceINS_15PointXYZINormalEE5EntryC1Ev@Base 1.6
 (optional=templinst)_ZN3pcl6search10BruteForceINS_15PointXYZINormalEE5EntryC2Eif@Base 1.6
 (optional=templinst)_ZN3pcl6search10BruteForceINS_15PointXYZINormalEE5EntryC2Ev@Base 1.6
 (optional=templinst)_ZN3pcl6search10BruteForceINS_15PointXYZINormalEEC1Eb@Base 1.6
 (optional=templinst)_ZN3pcl6search10BruteForceINS_15PointXYZINormalEEC2Eb@Base 1.6
 (optional=templinst)_ZN3pcl6search10BruteForceINS_15PointXYZINormalEED0Ev@Base 1.6
 (optional=templinst)_ZN3pcl6search10BruteForceINS_15PointXYZINormalEED1Ev@Base 1.6
 (optional=templinst)_ZN3pcl6search10BruteForceINS_15PointXYZINormalEED2Ev@Base 1.6
 (optional=templinst)_ZN3pcl6search10BruteForceINS_17PointXYZRGBNormalEE5EntryC1Eif@Base 1.6
 (optional=templinst)_ZN3pcl6search10BruteForceINS_17PointXYZRGBNormalEE5EntryC1Ev@Base 1.6
 (optional=templinst)_ZN3pcl6search10BruteForceINS_17PointXYZRGBNormalEE5EntryC2Eif@Base 1.6
 (optional=templinst)_ZN3pcl6search10BruteForceINS_17PointXYZRGBNormalEE5EntryC2Ev@Base 1.6
 (optional=templinst)_ZN3pcl6search10BruteForceINS_17PointXYZRGBNormalEEC1Eb@Base 1.6
 (optional=templinst)_ZN3pcl6search10BruteForceINS_17PointXYZRGBNormalEEC2Eb@Base 1.6
 (optional=templinst)_ZN3pcl6search10BruteForceINS_17PointXYZRGBNormalEED0Ev@Base 1.6
 (optional=templinst)_ZN3pcl6search10BruteForceINS_17PointXYZRGBNormalEED1Ev@Base 1.6
 (optional=templinst)_ZN3pcl6search10BruteForceINS_17PointXYZRGBNormalEED2Ev@Base 1.6
 (optional=templinst)_ZN3pcl6search10BruteForceINS_18PointWithViewpointEE5EntryC1Eif@Base 1.6
 (optional=templinst)_ZN3pcl6search10BruteForceINS_18PointWithViewpointEE5EntryC1Ev@Base 1.6
 (optional=templinst)_ZN3pcl6search10BruteForceINS_18PointWithViewpointEE5EntryC2Eif@Base 1.6
 (optional=templinst)_ZN3pcl6search10BruteForceINS_18PointWithViewpointEE5EntryC2Ev@Base 1.6
 (optional=templinst)_ZN3pcl6search10BruteForceINS_18PointWithViewpointEEC1Eb@Base 1.6
 (optional=templinst)_ZN3pcl6search10BruteForceINS_18PointWithViewpointEEC2Eb@Base 1.6
 (optional=templinst)_ZN3pcl6search10BruteForceINS_18PointWithViewpointEED0Ev@Base 1.6
 (optional=templinst)_ZN3pcl6search10BruteForceINS_18PointWithViewpointEED1Ev@Base 1.6
 (optional=templinst)_ZN3pcl6search10BruteForceINS_18PointWithViewpointEED2Ev@Base 1.6
 (optional=templinst)_ZN3pcl6search10BruteForceINS_8PointXYZEE5EntryC1Eif@Base 1.6
 (optional=templinst)_ZN3pcl6search10BruteForceINS_8PointXYZEE5EntryC1Ev@Base 1.6
 (optional=templinst)_ZN3pcl6search10BruteForceINS_8PointXYZEE5EntryC2Eif@Base 1.6
 (optional=templinst)_ZN3pcl6search10BruteForceINS_8PointXYZEE5EntryC2Ev@Base 1.6
 (optional=templinst)_ZN3pcl6search10BruteForceINS_8PointXYZEEC1Eb@Base 1.6
 (optional=templinst)_ZN3pcl6search10BruteForceINS_8PointXYZEEC2Eb@Base 1.6
 (optional=templinst)_ZN3pcl6search10BruteForceINS_8PointXYZEED0Ev@Base 1.6
 (optional=templinst)_ZN3pcl6search10BruteForceINS_8PointXYZEED1Ev@Base 1.6
 (optional=templinst)_ZN3pcl6search10BruteForceINS_8PointXYZEED2Ev@Base 1.6
 (optional=templinst)_ZN3pcl6search10BruteForceINS_9PointXYZIEE5EntryC1Eif@Base 1.6
 (optional=templinst)_ZN3pcl6search10BruteForceINS_9PointXYZIEE5EntryC1Ev@Base 1.6
 (optional=templinst)_ZN3pcl6search10BruteForceINS_9PointXYZIEE5EntryC2Eif@Base 1.6
 (optional=templinst)_ZN3pcl6search10BruteForceINS_9PointXYZIEE5EntryC2Ev@Base 1.6
 (optional=templinst)_ZN3pcl6search10BruteForceINS_9PointXYZIEEC1Eb@Base 1.6
 (optional=templinst)_ZN3pcl6search10BruteForceINS_9PointXYZIEEC2Eb@Base 1.6
 (optional=templinst)_ZN3pcl6search10BruteForceINS_9PointXYZIEED0Ev@Base 1.6
 (optional=templinst)_ZN3pcl6search10BruteForceINS_9PointXYZIEED1Ev@Base 1.6
 (optional=templinst)_ZN3pcl6search10BruteForceINS_9PointXYZIEED2Ev@Base 1.6
 (optional=templinst)_ZN3pcl6search10BruteForceINS_9PointXYZLEE5EntryC1Eif@Base 1.6
 (optional=templinst)_ZN3pcl6search10BruteForceINS_9PointXYZLEE5EntryC1Ev@Base 1.6
 (optional=templinst)_ZN3pcl6search10BruteForceINS_9PointXYZLEE5EntryC2Eif@Base 1.6
 (optional=templinst)_ZN3pcl6search10BruteForceINS_9PointXYZLEE5EntryC2Ev@Base 1.6
 (optional=templinst)_ZN3pcl6search10BruteForceINS_9PointXYZLEEC1Eb@Base 1.6
 (optional=templinst)_ZN3pcl6search10BruteForceINS_9PointXYZLEEC2Eb@Base 1.6
 (optional=templinst)_ZN3pcl6search10BruteForceINS_9PointXYZLEED0Ev@Base 1.6
 (optional=templinst)_ZN3pcl6search10BruteForceINS_9PointXYZLEED1Ev@Base 1.6
 (optional=templinst)_ZN3pcl6search10BruteForceINS_9PointXYZLEED2Ev@Base 1.6
 (optional=templinst)_ZN3pcl6search17OrganizedNeighborINS_11PointNormalEE13setInputCloudERKN5boost10shared_ptrIKNS_10PointCloudIS2_EEEERKNS5_IKSt6vectorIiSaIiEEEE@Base 1.6
 (optional=templinst)_ZN3pcl6search17OrganizedNeighborINS_11PointNormalEE24estimateProjectionMatrixEv@Base 1.6
 (optional=templinst)_ZN3pcl6search17OrganizedNeighborINS_11PointNormalEE5EntryC1Eif@Base 1.6
 (optional=templinst)_ZN3pcl6search17OrganizedNeighborINS_11PointNormalEE5EntryC1Ev@Base 1.6
 (optional=templinst)_ZN3pcl6search17OrganizedNeighborINS_11PointNormalEE5EntryC2Eif@Base 1.6
 (optional=templinst)_ZN3pcl6search17OrganizedNeighborINS_11PointNormalEE5EntryC2Ev@Base 1.6
 (optional=templinst)_ZN3pcl6search17OrganizedNeighborINS_11PointNormalEEC1Ebfj@Base 1.6
 (optional=templinst)_ZN3pcl6search17OrganizedNeighborINS_11PointNormalEEC2Ebfj@Base 1.6
 (optional=templinst)_ZN3pcl6search17OrganizedNeighborINS_11PointNormalEED0Ev@Base 1.6
 (optional=templinst)_ZN3pcl6search17OrganizedNeighborINS_11PointNormalEED1Ev@Base 1.6
 (optional=templinst)_ZN3pcl6search17OrganizedNeighborINS_11PointNormalEED2Ev@Base 1.6
 _ZN3pcl6search17OrganizedNeighborINS_11PointNormalEEdaEPv@Base 1.6
 _ZN3pcl6search17OrganizedNeighborINS_11PointNormalEEdlEPv@Base 1.6
 _ZN3pcl6search17OrganizedNeighborINS_11PointNormalEEdlEPvRKSt9nothrow_t@Base 1.6
 _ZN3pcl6search17OrganizedNeighborINS_11PointNormalEEdlEPvS4_@Base 1.6
 _ZN3pcl6search17OrganizedNeighborINS_11PointNormalEEnaEm@Base 1.6
 _ZN3pcl6search17OrganizedNeighborINS_11PointNormalEEnwEm@Base 1.6
 _ZN3pcl6search17OrganizedNeighborINS_11PointNormalEEnwEmPv@Base 1.6
 _ZN3pcl6search17OrganizedNeighborINS_11PointNormalEEnwEmRKSt9nothrow_t@Base 1.6
 (optional=templinst)_ZN3pcl6search17OrganizedNeighborINS_11PointXYZHSVEE13setInputCloudERKN5boost10shared_ptrIKNS_10PointCloudIS2_EEEERKNS5_IKSt6vectorIiSaIiEEEE@Base 1.6
 (optional=templinst)_ZN3pcl6search17OrganizedNeighborINS_11PointXYZHSVEE24estimateProjectionMatrixEv@Base 1.6
 (optional=templinst)_ZN3pcl6search17OrganizedNeighborINS_11PointXYZHSVEE5EntryC1Eif@Base 1.6
 (optional=templinst)_ZN3pcl6search17OrganizedNeighborINS_11PointXYZHSVEE5EntryC1Ev@Base 1.6
 (optional=templinst)_ZN3pcl6search17OrganizedNeighborINS_11PointXYZHSVEE5EntryC2Eif@Base 1.6
 (optional=templinst)_ZN3pcl6search17OrganizedNeighborINS_11PointXYZHSVEE5EntryC2Ev@Base 1.6
 (optional=templinst)_ZN3pcl6search17OrganizedNeighborINS_11PointXYZHSVEEC1Ebfj@Base 1.6
 (optional=templinst)_ZN3pcl6search17OrganizedNeighborINS_11PointXYZHSVEEC2Ebfj@Base 1.6
 (optional=templinst)_ZN3pcl6search17OrganizedNeighborINS_11PointXYZHSVEED0Ev@Base 1.6
 (optional=templinst)_ZN3pcl6search17OrganizedNeighborINS_11PointXYZHSVEED1Ev@Base 1.6
 (optional=templinst)_ZN3pcl6search17OrganizedNeighborINS_11PointXYZHSVEED2Ev@Base 1.6
 _ZN3pcl6search17OrganizedNeighborINS_11PointXYZHSVEEdaEPv@Base 1.6
 _ZN3pcl6search17OrganizedNeighborINS_11PointXYZHSVEEdlEPv@Base 1.6
 _ZN3pcl6search17OrganizedNeighborINS_11PointXYZHSVEEdlEPvRKSt9nothrow_t@Base 1.6
 _ZN3pcl6search17OrganizedNeighborINS_11PointXYZHSVEEdlEPvS4_@Base 1.6
 _ZN3pcl6search17OrganizedNeighborINS_11PointXYZHSVEEnaEm@Base 1.6
 _ZN3pcl6search17OrganizedNeighborINS_11PointXYZHSVEEnwEm@Base 1.6
 _ZN3pcl6search17OrganizedNeighborINS_11PointXYZHSVEEnwEmPv@Base 1.6
 _ZN3pcl6search17OrganizedNeighborINS_11PointXYZHSVEEnwEmRKSt9nothrow_t@Base 1.6
 (optional=templinst)_ZN3pcl6search17OrganizedNeighborINS_11PointXYZRGBEE13setInputCloudERKN5boost10shared_ptrIKNS_10PointCloudIS2_EEEERKNS5_IKSt6vectorIiSaIiEEEE@Base 1.6
 (optional=templinst)_ZN3pcl6search17OrganizedNeighborINS_11PointXYZRGBEE24estimateProjectionMatrixEv@Base 1.6
 (optional=templinst)_ZN3pcl6search17OrganizedNeighborINS_11PointXYZRGBEE5EntryC1Eif@Base 1.6
 (optional=templinst)_ZN3pcl6search17OrganizedNeighborINS_11PointXYZRGBEE5EntryC1Ev@Base 1.6
 (optional=templinst)_ZN3pcl6search17OrganizedNeighborINS_11PointXYZRGBEE5EntryC2Eif@Base 1.6
 (optional=templinst)_ZN3pcl6search17OrganizedNeighborINS_11PointXYZRGBEE5EntryC2Ev@Base 1.6
 (optional=templinst)_ZN3pcl6search17OrganizedNeighborINS_11PointXYZRGBEEC1Ebfj@Base 1.6
 (optional=templinst)_ZN3pcl6search17OrganizedNeighborINS_11PointXYZRGBEEC2Ebfj@Base 1.6
 (optional=templinst)_ZN3pcl6search17OrganizedNeighborINS_11PointXYZRGBEED0Ev@Base 1.6
 (optional=templinst)_ZN3pcl6search17OrganizedNeighborINS_11PointXYZRGBEED1Ev@Base 1.6
 (optional=templinst)_ZN3pcl6search17OrganizedNeighborINS_11PointXYZRGBEED2Ev@Base 1.6
 _ZN3pcl6search17OrganizedNeighborINS_11PointXYZRGBEEdaEPv@Base 1.6
 _ZN3pcl6search17OrganizedNeighborINS_11PointXYZRGBEEdlEPv@Base 1.6
 _ZN3pcl6search17OrganizedNeighborINS_11PointXYZRGBEEdlEPvRKSt9nothrow_t@Base 1.6
 _ZN3pcl6search17OrganizedNeighborINS_11PointXYZRGBEEdlEPvS4_@Base 1.6
 _ZN3pcl6search17OrganizedNeighborINS_11PointXYZRGBEEnaEm@Base 1.6
 _ZN3pcl6search17OrganizedNeighborINS_11PointXYZRGBEEnwEm@Base 1.6
 _ZN3pcl6search17OrganizedNeighborINS_11PointXYZRGBEEnwEmPv@Base 1.6
 _ZN3pcl6search17OrganizedNeighborINS_11PointXYZRGBEEnwEmRKSt9nothrow_t@Base 1.6
 (optional=templinst)_ZN3pcl6search17OrganizedNeighborINS_12PointXYZRGBAEE13setInputCloudERKN5boost10shared_ptrIKNS_10PointCloudIS2_EEEERKNS5_IKSt6vectorIiSaIiEEEE@Base 1.6
 (optional=templinst)_ZN3pcl6search17OrganizedNeighborINS_12PointXYZRGBAEE24estimateProjectionMatrixEv@Base 1.6
 (optional=templinst)_ZN3pcl6search17OrganizedNeighborINS_12PointXYZRGBAEE5EntryC1Eif@Base 1.6
 (optional=templinst)_ZN3pcl6search17OrganizedNeighborINS_12PointXYZRGBAEE5EntryC1Ev@Base 1.6
 (optional=templinst)_ZN3pcl6search17OrganizedNeighborINS_12PointXYZRGBAEE5EntryC2Eif@Base 1.6
 (optional=templinst)_ZN3pcl6search17OrganizedNeighborINS_12PointXYZRGBAEE5EntryC2Ev@Base 1.6
 (optional=templinst)_ZN3pcl6search17OrganizedNeighborINS_12PointXYZRGBAEEC1Ebfj@Base 1.6
 (optional=templinst)_ZN3pcl6search17OrganizedNeighborINS_12PointXYZRGBAEEC2Ebfj@Base 1.6
 (optional=templinst)_ZN3pcl6search17OrganizedNeighborINS_12PointXYZRGBAEED0Ev@Base 1.6
 (optional=templinst)_ZN3pcl6search17OrganizedNeighborINS_12PointXYZRGBAEED1Ev@Base 1.6
 (optional=templinst)_ZN3pcl6search17OrganizedNeighborINS_12PointXYZRGBAEED2Ev@Base 1.6
 _ZN3pcl6search17OrganizedNeighborINS_12PointXYZRGBAEEdaEPv@Base 1.6
 _ZN3pcl6search17OrganizedNeighborINS_12PointXYZRGBAEEdlEPv@Base 1.6
 _ZN3pcl6search17OrganizedNeighborINS_12PointXYZRGBAEEdlEPvRKSt9nothrow_t@Base 1.6
 _ZN3pcl6search17OrganizedNeighborINS_12PointXYZRGBAEEdlEPvS4_@Base 1.6
 _ZN3pcl6search17OrganizedNeighborINS_12PointXYZRGBAEEnaEm@Base 1.6
 _ZN3pcl6search17OrganizedNeighborINS_12PointXYZRGBAEEnwEm@Base 1.6
 _ZN3pcl6search17OrganizedNeighborINS_12PointXYZRGBAEEnwEmPv@Base 1.6
 _ZN3pcl6search17OrganizedNeighborINS_12PointXYZRGBAEEnwEmRKSt9nothrow_t@Base 1.6
 (optional=templinst)_ZN3pcl6search17OrganizedNeighborINS_12PointXYZRGBLEE13setInputCloudERKN5boost10shared_ptrIKNS_10PointCloudIS2_EEEERKNS5_IKSt6vectorIiSaIiEEEE@Base 1.6
 (optional=templinst)_ZN3pcl6search17OrganizedNeighborINS_12PointXYZRGBLEE24estimateProjectionMatrixEv@Base 1.6
 (optional=templinst)_ZN3pcl6search17OrganizedNeighborINS_12PointXYZRGBLEE5EntryC1Eif@Base 1.6
 (optional=templinst)_ZN3pcl6search17OrganizedNeighborINS_12PointXYZRGBLEE5EntryC1Ev@Base 1.6
 (optional=templinst)_ZN3pcl6search17OrganizedNeighborINS_12PointXYZRGBLEE5EntryC2Eif@Base 1.6
 (optional=templinst)_ZN3pcl6search17OrganizedNeighborINS_12PointXYZRGBLEE5EntryC2Ev@Base 1.6
 (optional=templinst)_ZN3pcl6search17OrganizedNeighborINS_12PointXYZRGBLEEC1Ebfj@Base 1.6
 (optional=templinst)_ZN3pcl6search17OrganizedNeighborINS_12PointXYZRGBLEEC2Ebfj@Base 1.6
 (optional=templinst)_ZN3pcl6search17OrganizedNeighborINS_12PointXYZRGBLEED0Ev@Base 1.6
 (optional=templinst)_ZN3pcl6search17OrganizedNeighborINS_12PointXYZRGBLEED1Ev@Base 1.6
 (optional=templinst)_ZN3pcl6search17OrganizedNeighborINS_12PointXYZRGBLEED2Ev@Base 1.6
 _ZN3pcl6search17OrganizedNeighborINS_12PointXYZRGBLEEdaEPv@Base 1.6
 _ZN3pcl6search17OrganizedNeighborINS_12PointXYZRGBLEEdlEPv@Base 1.6
 _ZN3pcl6search17OrganizedNeighborINS_12PointXYZRGBLEEdlEPvRKSt9nothrow_t@Base 1.6
 _ZN3pcl6search17OrganizedNeighborINS_12PointXYZRGBLEEdlEPvS4_@Base 1.6
 _ZN3pcl6search17OrganizedNeighborINS_12PointXYZRGBLEEnaEm@Base 1.6
 _ZN3pcl6search17OrganizedNeighborINS_12PointXYZRGBLEEnwEm@Base 1.6
 _ZN3pcl6search17OrganizedNeighborINS_12PointXYZRGBLEEnwEmPv@Base 1.6
 _ZN3pcl6search17OrganizedNeighborINS_12PointXYZRGBLEEnwEmRKSt9nothrow_t@Base 1.6
 (optional=templinst)_ZN3pcl6search17OrganizedNeighborINS_13InterestPointEE13setInputCloudERKN5boost10shared_ptrIKNS_10PointCloudIS2_EEEERKNS5_IKSt6vectorIiSaIiEEEE@Base 1.6
 (optional=templinst)_ZN3pcl6search17OrganizedNeighborINS_13InterestPointEE24estimateProjectionMatrixEv@Base 1.6
 (optional=templinst)_ZN3pcl6search17OrganizedNeighborINS_13InterestPointEE5EntryC1Eif@Base 1.6
 (optional=templinst)_ZN3pcl6search17OrganizedNeighborINS_13InterestPointEE5EntryC1Ev@Base 1.6
 (optional=templinst)_ZN3pcl6search17OrganizedNeighborINS_13InterestPointEE5EntryC2Eif@Base 1.6
 (optional=templinst)_ZN3pcl6search17OrganizedNeighborINS_13InterestPointEE5EntryC2Ev@Base 1.6
 (optional=templinst)_ZN3pcl6search17OrganizedNeighborINS_13InterestPointEEC1Ebfj@Base 1.6
 (optional=templinst)_ZN3pcl6search17OrganizedNeighborINS_13InterestPointEEC2Ebfj@Base 1.6
 (optional=templinst)_ZN3pcl6search17OrganizedNeighborINS_13InterestPointEED0Ev@Base 1.6
 (optional=templinst)_ZN3pcl6search17OrganizedNeighborINS_13InterestPointEED1Ev@Base 1.6
 (optional=templinst)_ZN3pcl6search17OrganizedNeighborINS_13InterestPointEED2Ev@Base 1.6
 _ZN3pcl6search17OrganizedNeighborINS_13InterestPointEEdaEPv@Base 1.6
 _ZN3pcl6search17OrganizedNeighborINS_13InterestPointEEdlEPv@Base 1.6
 _ZN3pcl6search17OrganizedNeighborINS_13InterestPointEEdlEPvRKSt9nothrow_t@Base 1.6
 _ZN3pcl6search17OrganizedNeighborINS_13InterestPointEEdlEPvS4_@Base 1.6
 _ZN3pcl6search17OrganizedNeighborINS_13InterestPointEEnaEm@Base 1.6
 _ZN3pcl6search17OrganizedNeighborINS_13InterestPointEEnwEm@Base 1.6
 _ZN3pcl6search17OrganizedNeighborINS_13InterestPointEEnwEmPv@Base 1.6
 _ZN3pcl6search17OrganizedNeighborINS_13InterestPointEEnwEmRKSt9nothrow_t@Base 1.6
 (optional=templinst)_ZN3pcl6search17OrganizedNeighborINS_14PointWithRangeEE13setInputCloudERKN5boost10shared_ptrIKNS_10PointCloudIS2_EEEERKNS5_IKSt6vectorIiSaIiEEEE@Base 1.6
 (optional=templinst)_ZN3pcl6search17OrganizedNeighborINS_14PointWithRangeEE24estimateProjectionMatrixEv@Base 1.6
 (optional=templinst)_ZN3pcl6search17OrganizedNeighborINS_14PointWithRangeEE5EntryC1Eif@Base 1.6
 (optional=templinst)_ZN3pcl6search17OrganizedNeighborINS_14PointWithRangeEE5EntryC1Ev@Base 1.6
 (optional=templinst)_ZN3pcl6search17OrganizedNeighborINS_14PointWithRangeEE5EntryC2Eif@Base 1.6
 (optional=templinst)_ZN3pcl6search17OrganizedNeighborINS_14PointWithRangeEE5EntryC2Ev@Base 1.6
 (optional=templinst)_ZN3pcl6search17OrganizedNeighborINS_14PointWithRangeEEC1Ebfj@Base 1.6
 (optional=templinst)_ZN3pcl6search17OrganizedNeighborINS_14PointWithRangeEEC2Ebfj@Base 1.6
 (optional=templinst)_ZN3pcl6search17OrganizedNeighborINS_14PointWithRangeEED0Ev@Base 1.6
 (optional=templinst)_ZN3pcl6search17OrganizedNeighborINS_14PointWithRangeEED1Ev@Base 1.6
 (optional=templinst)_ZN3pcl6search17OrganizedNeighborINS_14PointWithRangeEED2Ev@Base 1.6
 _ZN3pcl6search17OrganizedNeighborINS_14PointWithRangeEEdaEPv@Base 1.6
 _ZN3pcl6search17OrganizedNeighborINS_14PointWithRangeEEdlEPv@Base 1.6
 _ZN3pcl6search17OrganizedNeighborINS_14PointWithRangeEEdlEPvRKSt9nothrow_t@Base 1.6
 _ZN3pcl6search17OrganizedNeighborINS_14PointWithRangeEEdlEPvS4_@Base 1.6
 _ZN3pcl6search17OrganizedNeighborINS_14PointWithRangeEEnaEm@Base 1.6
 _ZN3pcl6search17OrganizedNeighborINS_14PointWithRangeEEnwEm@Base 1.6
 _ZN3pcl6search17OrganizedNeighborINS_14PointWithRangeEEnwEmPv@Base 1.6
 _ZN3pcl6search17OrganizedNeighborINS_14PointWithRangeEEnwEmRKSt9nothrow_t@Base 1.6
 (optional=templinst)_ZN3pcl6search17OrganizedNeighborINS_14PointWithScaleEE13setInputCloudERKN5boost10shared_ptrIKNS_10PointCloudIS2_EEEERKNS5_IKSt6vectorIiSaIiEEEE@Base 1.6
 (optional=templinst)_ZN3pcl6search17OrganizedNeighborINS_14PointWithScaleEE24estimateProjectionMatrixEv@Base 1.6
 (optional=templinst)_ZN3pcl6search17OrganizedNeighborINS_14PointWithScaleEE5EntryC1Eif@Base 1.6
 (optional=templinst)_ZN3pcl6search17OrganizedNeighborINS_14PointWithScaleEE5EntryC1Ev@Base 1.6
 (optional=templinst)_ZN3pcl6search17OrganizedNeighborINS_14PointWithScaleEE5EntryC2Eif@Base 1.6
 (optional=templinst)_ZN3pcl6search17OrganizedNeighborINS_14PointWithScaleEE5EntryC2Ev@Base 1.6
 (optional=templinst)_ZN3pcl6search17OrganizedNeighborINS_14PointWithScaleEEC1Ebfj@Base 1.6
 (optional=templinst)_ZN3pcl6search17OrganizedNeighborINS_14PointWithScaleEEC2Ebfj@Base 1.6
 (optional=templinst)_ZN3pcl6search17OrganizedNeighborINS_14PointWithScaleEED0Ev@Base 1.6
 (optional=templinst)_ZN3pcl6search17OrganizedNeighborINS_14PointWithScaleEED1Ev@Base 1.6
 (optional=templinst)_ZN3pcl6search17OrganizedNeighborINS_14PointWithScaleEED2Ev@Base 1.6
 _ZN3pcl6search17OrganizedNeighborINS_14PointWithScaleEEdaEPv@Base 1.6
 _ZN3pcl6search17OrganizedNeighborINS_14PointWithScaleEEdlEPv@Base 1.6
 _ZN3pcl6search17OrganizedNeighborINS_14PointWithScaleEEdlEPvRKSt9nothrow_t@Base 1.6
 _ZN3pcl6search17OrganizedNeighborINS_14PointWithScaleEEdlEPvS4_@Base 1.6
 _ZN3pcl6search17OrganizedNeighborINS_14PointWithScaleEEnaEm@Base 1.6
 _ZN3pcl6search17OrganizedNeighborINS_14PointWithScaleEEnwEm@Base 1.6
 _ZN3pcl6search17OrganizedNeighborINS_14PointWithScaleEEnwEmPv@Base 1.6
 _ZN3pcl6search17OrganizedNeighborINS_14PointWithScaleEEnwEmRKSt9nothrow_t@Base 1.6
 (optional=templinst)_ZN3pcl6search17OrganizedNeighborINS_15PointXYZINormalEE13setInputCloudERKN5boost10shared_ptrIKNS_10PointCloudIS2_EEEERKNS5_IKSt6vectorIiSaIiEEEE@Base 1.6
 (optional=templinst)_ZN3pcl6search17OrganizedNeighborINS_15PointXYZINormalEE24estimateProjectionMatrixEv@Base 1.6
 (optional=templinst)_ZN3pcl6search17OrganizedNeighborINS_15PointXYZINormalEE5EntryC1Eif@Base 1.6
 (optional=templinst)_ZN3pcl6search17OrganizedNeighborINS_15PointXYZINormalEE5EntryC1Ev@Base 1.6
 (optional=templinst)_ZN3pcl6search17OrganizedNeighborINS_15PointXYZINormalEE5EntryC2Eif@Base 1.6
 (optional=templinst)_ZN3pcl6search17OrganizedNeighborINS_15PointXYZINormalEE5EntryC2Ev@Base 1.6
 (optional=templinst)_ZN3pcl6search17OrganizedNeighborINS_15PointXYZINormalEEC1Ebfj@Base 1.6
 (optional=templinst)_ZN3pcl6search17OrganizedNeighborINS_15PointXYZINormalEEC2Ebfj@Base 1.6
 (optional=templinst)_ZN3pcl6search17OrganizedNeighborINS_15PointXYZINormalEED0Ev@Base 1.6
 (optional=templinst)_ZN3pcl6search17OrganizedNeighborINS_15PointXYZINormalEED1Ev@Base 1.6
 (optional=templinst)_ZN3pcl6search17OrganizedNeighborINS_15PointXYZINormalEED2Ev@Base 1.6
 _ZN3pcl6search17OrganizedNeighborINS_15PointXYZINormalEEdaEPv@Base 1.6
 _ZN3pcl6search17OrganizedNeighborINS_15PointXYZINormalEEdlEPv@Base 1.6
 _ZN3pcl6search17OrganizedNeighborINS_15PointXYZINormalEEdlEPvRKSt9nothrow_t@Base 1.6
 _ZN3pcl6search17OrganizedNeighborINS_15PointXYZINormalEEdlEPvS4_@Base 1.6
 _ZN3pcl6search17OrganizedNeighborINS_15PointXYZINormalEEnaEm@Base 1.6
 _ZN3pcl6search17OrganizedNeighborINS_15PointXYZINormalEEnwEm@Base 1.6
 _ZN3pcl6search17OrganizedNeighborINS_15PointXYZINormalEEnwEmPv@Base 1.6
 _ZN3pcl6search17OrganizedNeighborINS_15PointXYZINormalEEnwEmRKSt9nothrow_t@Base 1.6
 (optional=templinst)_ZN3pcl6search17OrganizedNeighborINS_17PointXYZRGBNormalEE13setInputCloudERKN5boost10shared_ptrIKNS_10PointCloudIS2_EEEERKNS5_IKSt6vectorIiSaIiEEEE@Base 1.6
 (optional=templinst)_ZN3pcl6search17OrganizedNeighborINS_17PointXYZRGBNormalEE24estimateProjectionMatrixEv@Base 1.6
 (optional=templinst)_ZN3pcl6search17OrganizedNeighborINS_17PointXYZRGBNormalEE5EntryC1Eif@Base 1.6
 (optional=templinst)_ZN3pcl6search17OrganizedNeighborINS_17PointXYZRGBNormalEE5EntryC1Ev@Base 1.6
 (optional=templinst)_ZN3pcl6search17OrganizedNeighborINS_17PointXYZRGBNormalEE5EntryC2Eif@Base 1.6
 (optional=templinst)_ZN3pcl6search17OrganizedNeighborINS_17PointXYZRGBNormalEE5EntryC2Ev@Base 1.6
 (optional=templinst)_ZN3pcl6search17OrganizedNeighborINS_17PointXYZRGBNormalEEC1Ebfj@Base 1.6
 (optional=templinst)_ZN3pcl6search17OrganizedNeighborINS_17PointXYZRGBNormalEEC2Ebfj@Base 1.6
 (optional=templinst)_ZN3pcl6search17OrganizedNeighborINS_17PointXYZRGBNormalEED0Ev@Base 1.6
 (optional=templinst)_ZN3pcl6search17OrganizedNeighborINS_17PointXYZRGBNormalEED1Ev@Base 1.6
 (optional=templinst)_ZN3pcl6search17OrganizedNeighborINS_17PointXYZRGBNormalEED2Ev@Base 1.6
 _ZN3pcl6search17OrganizedNeighborINS_17PointXYZRGBNormalEEdaEPv@Base 1.6
 _ZN3pcl6search17OrganizedNeighborINS_17PointXYZRGBNormalEEdlEPv@Base 1.6
 _ZN3pcl6search17OrganizedNeighborINS_17PointXYZRGBNormalEEdlEPvRKSt9nothrow_t@Base 1.6
 _ZN3pcl6search17OrganizedNeighborINS_17PointXYZRGBNormalEEdlEPvS4_@Base 1.6
 _ZN3pcl6search17OrganizedNeighborINS_17PointXYZRGBNormalEEnaEm@Base 1.6
 _ZN3pcl6search17OrganizedNeighborINS_17PointXYZRGBNormalEEnwEm@Base 1.6
 _ZN3pcl6search17OrganizedNeighborINS_17PointXYZRGBNormalEEnwEmPv@Base 1.6
 _ZN3pcl6search17OrganizedNeighborINS_17PointXYZRGBNormalEEnwEmRKSt9nothrow_t@Base 1.6
 (optional=templinst)_ZN3pcl6search17OrganizedNeighborINS_18PointWithViewpointEE13setInputCloudERKN5boost10shared_ptrIKNS_10PointCloudIS2_EEEERKNS5_IKSt6vectorIiSaIiEEEE@Base 1.6
 (optional=templinst)_ZN3pcl6search17OrganizedNeighborINS_18PointWithViewpointEE24estimateProjectionMatrixEv@Base 1.6
 (optional=templinst)_ZN3pcl6search17OrganizedNeighborINS_18PointWithViewpointEE5EntryC1Eif@Base 1.6
 (optional=templinst)_ZN3pcl6search17OrganizedNeighborINS_18PointWithViewpointEE5EntryC1Ev@Base 1.6
 (optional=templinst)_ZN3pcl6search17OrganizedNeighborINS_18PointWithViewpointEE5EntryC2Eif@Base 1.6
 (optional=templinst)_ZN3pcl6search17OrganizedNeighborINS_18PointWithViewpointEE5EntryC2Ev@Base 1.6
 (optional=templinst)_ZN3pcl6search17OrganizedNeighborINS_18PointWithViewpointEEC1Ebfj@Base 1.6
 (optional=templinst)_ZN3pcl6search17OrganizedNeighborINS_18PointWithViewpointEEC2Ebfj@Base 1.6
 (optional=templinst)_ZN3pcl6search17OrganizedNeighborINS_18PointWithViewpointEED0Ev@Base 1.6
 (optional=templinst)_ZN3pcl6search17OrganizedNeighborINS_18PointWithViewpointEED1Ev@Base 1.6
 (optional=templinst)_ZN3pcl6search17OrganizedNeighborINS_18PointWithViewpointEED2Ev@Base 1.6
 _ZN3pcl6search17OrganizedNeighborINS_18PointWithViewpointEEdaEPv@Base 1.6
 _ZN3pcl6search17OrganizedNeighborINS_18PointWithViewpointEEdlEPv@Base 1.6
 _ZN3pcl6search17OrganizedNeighborINS_18PointWithViewpointEEdlEPvRKSt9nothrow_t@Base 1.6
 _ZN3pcl6search17OrganizedNeighborINS_18PointWithViewpointEEdlEPvS4_@Base 1.6
 _ZN3pcl6search17OrganizedNeighborINS_18PointWithViewpointEEnaEm@Base 1.6
 _ZN3pcl6search17OrganizedNeighborINS_18PointWithViewpointEEnwEm@Base 1.6
 _ZN3pcl6search17OrganizedNeighborINS_18PointWithViewpointEEnwEmPv@Base 1.6
 _ZN3pcl6search17OrganizedNeighborINS_18PointWithViewpointEEnwEmRKSt9nothrow_t@Base 1.6
 (optional=templinst)_ZN3pcl6search17OrganizedNeighborINS_8PointXYZEE13setInputCloudERKN5boost10shared_ptrIKNS_10PointCloudIS2_EEEERKNS5_IKSt6vectorIiSaIiEEEE@Base 1.6
 (optional=templinst)_ZN3pcl6search17OrganizedNeighborINS_8PointXYZEE24estimateProjectionMatrixEv@Base 1.6
 (optional=templinst)_ZN3pcl6search17OrganizedNeighborINS_8PointXYZEE5EntryC1Eif@Base 1.6
 (optional=templinst)_ZN3pcl6search17OrganizedNeighborINS_8PointXYZEE5EntryC1Ev@Base 1.6
 (optional=templinst)_ZN3pcl6search17OrganizedNeighborINS_8PointXYZEE5EntryC2Eif@Base 1.6
 (optional=templinst)_ZN3pcl6search17OrganizedNeighborINS_8PointXYZEE5EntryC2Ev@Base 1.6
 (optional=templinst)_ZN3pcl6search17OrganizedNeighborINS_8PointXYZEEC1Ebfj@Base 1.6
 (optional=templinst)_ZN3pcl6search17OrganizedNeighborINS_8PointXYZEEC2Ebfj@Base 1.6
 (optional=templinst)_ZN3pcl6search17OrganizedNeighborINS_8PointXYZEED0Ev@Base 1.6
 (optional=templinst)_ZN3pcl6search17OrganizedNeighborINS_8PointXYZEED1Ev@Base 1.6
 (optional=templinst)_ZN3pcl6search17OrganizedNeighborINS_8PointXYZEED2Ev@Base 1.6
 _ZN3pcl6search17OrganizedNeighborINS_8PointXYZEEdaEPv@Base 1.6
 _ZN3pcl6search17OrganizedNeighborINS_8PointXYZEEdlEPv@Base 1.6
 _ZN3pcl6search17OrganizedNeighborINS_8PointXYZEEdlEPvRKSt9nothrow_t@Base 1.6
 _ZN3pcl6search17OrganizedNeighborINS_8PointXYZEEdlEPvS4_@Base 1.6
 _ZN3pcl6search17OrganizedNeighborINS_8PointXYZEEnaEm@Base 1.6
 _ZN3pcl6search17OrganizedNeighborINS_8PointXYZEEnwEm@Base 1.6
 _ZN3pcl6search17OrganizedNeighborINS_8PointXYZEEnwEmPv@Base 1.6
 _ZN3pcl6search17OrganizedNeighborINS_8PointXYZEEnwEmRKSt9nothrow_t@Base 1.6
 (optional=templinst)_ZN3pcl6search17OrganizedNeighborINS_9PointXYZIEE13setInputCloudERKN5boost10shared_ptrIKNS_10PointCloudIS2_EEEERKNS5_IKSt6vectorIiSaIiEEEE@Base 1.6
 (optional=templinst)_ZN3pcl6search17OrganizedNeighborINS_9PointXYZIEE24estimateProjectionMatrixEv@Base 1.6
 (optional=templinst)_ZN3pcl6search17OrganizedNeighborINS_9PointXYZIEE5EntryC1Eif@Base 1.6
 (optional=templinst)_ZN3pcl6search17OrganizedNeighborINS_9PointXYZIEE5EntryC1Ev@Base 1.6
 (optional=templinst)_ZN3pcl6search17OrganizedNeighborINS_9PointXYZIEE5EntryC2Eif@Base 1.6
 (optional=templinst)_ZN3pcl6search17OrganizedNeighborINS_9PointXYZIEE5EntryC2Ev@Base 1.6
 (optional=templinst)_ZN3pcl6search17OrganizedNeighborINS_9PointXYZIEEC1Ebfj@Base 1.6
 (optional=templinst)_ZN3pcl6search17OrganizedNeighborINS_9PointXYZIEEC2Ebfj@Base 1.6
 (optional=templinst)_ZN3pcl6search17OrganizedNeighborINS_9PointXYZIEED0Ev@Base 1.6
 (optional=templinst)_ZN3pcl6search17OrganizedNeighborINS_9PointXYZIEED1Ev@Base 1.6
 (optional=templinst)_ZN3pcl6search17OrganizedNeighborINS_9PointXYZIEED2Ev@Base 1.6
 _ZN3pcl6search17OrganizedNeighborINS_9PointXYZIEEdaEPv@Base 1.6
 _ZN3pcl6search17OrganizedNeighborINS_9PointXYZIEEdlEPv@Base 1.6
 _ZN3pcl6search17OrganizedNeighborINS_9PointXYZIEEdlEPvRKSt9nothrow_t@Base 1.6
 _ZN3pcl6search17OrganizedNeighborINS_9PointXYZIEEdlEPvS4_@Base 1.6
 _ZN3pcl6search17OrganizedNeighborINS_9PointXYZIEEnaEm@Base 1.6
 _ZN3pcl6search17OrganizedNeighborINS_9PointXYZIEEnwEm@Base 1.6
 _ZN3pcl6search17OrganizedNeighborINS_9PointXYZIEEnwEmPv@Base 1.6
 _ZN3pcl6search17OrganizedNeighborINS_9PointXYZIEEnwEmRKSt9nothrow_t@Base 1.6
 (optional=templinst)_ZN3pcl6search17OrganizedNeighborINS_9PointXYZLEE13setInputCloudERKN5boost10shared_ptrIKNS_10PointCloudIS2_EEEERKNS5_IKSt6vectorIiSaIiEEEE@Base 1.6
 (optional=templinst)_ZN3pcl6search17OrganizedNeighborINS_9PointXYZLEE24estimateProjectionMatrixEv@Base 1.6
 (optional=templinst)_ZN3pcl6search17OrganizedNeighborINS_9PointXYZLEE5EntryC1Eif@Base 1.6
 (optional=templinst)_ZN3pcl6search17OrganizedNeighborINS_9PointXYZLEE5EntryC1Ev@Base 1.6
 (optional=templinst)_ZN3pcl6search17OrganizedNeighborINS_9PointXYZLEE5EntryC2Eif@Base 1.6
 (optional=templinst)_ZN3pcl6search17OrganizedNeighborINS_9PointXYZLEE5EntryC2Ev@Base 1.6
 (optional=templinst)_ZN3pcl6search17OrganizedNeighborINS_9PointXYZLEEC1Ebfj@Base 1.6
 (optional=templinst)_ZN3pcl6search17OrganizedNeighborINS_9PointXYZLEEC2Ebfj@Base 1.6
 (optional=templinst)_ZN3pcl6search17OrganizedNeighborINS_9PointXYZLEED0Ev@Base 1.6
 (optional=templinst)_ZN3pcl6search17OrganizedNeighborINS_9PointXYZLEED1Ev@Base 1.6
 (optional=templinst)_ZN3pcl6search17OrganizedNeighborINS_9PointXYZLEED2Ev@Base 1.6
 _ZN3pcl6search17OrganizedNeighborINS_9PointXYZLEEdaEPv@Base 1.6
 _ZN3pcl6search17OrganizedNeighborINS_9PointXYZLEEdlEPv@Base 1.6
 _ZN3pcl6search17OrganizedNeighborINS_9PointXYZLEEdlEPvRKSt9nothrow_t@Base 1.6
 _ZN3pcl6search17OrganizedNeighborINS_9PointXYZLEEdlEPvS4_@Base 1.6
 _ZN3pcl6search17OrganizedNeighborINS_9PointXYZLEEnaEm@Base 1.6
 _ZN3pcl6search17OrganizedNeighborINS_9PointXYZLEEnwEm@Base 1.6
 _ZN3pcl6search17OrganizedNeighborINS_9PointXYZLEEnwEmPv@Base 1.6
 _ZN3pcl6search17OrganizedNeighborINS_9PointXYZLEEnwEmRKSt9nothrow_t@Base 1.6
 (optional=templinst)_ZN3pcl6search6KdTreeINS_11PointNormalEE10setEpsilonEf@Base 1.6
 (optional=templinst)_ZN3pcl6search6KdTreeINS_11PointNormalEE13setInputCloudERKN5boost10shared_ptrIKNS_10PointCloudIS2_EEEERKNS5_IKSt6vectorIiSaIiEEEE@Base 1.6
 (optional=templinst)_ZN3pcl6search6KdTreeINS_11PointNormalEE16setSortedResultsEb@Base 1.6
 (optional=templinst)_ZN3pcl6search6KdTreeINS_11PointNormalEEC1Eb@Base 1.6
 (optional=templinst)_ZN3pcl6search6KdTreeINS_11PointNormalEEC2Eb@Base 1.6
 (optional=templinst)_ZN3pcl6search6KdTreeINS_11PointNormalEED0Ev@Base 1.6
 (optional=templinst)_ZN3pcl6search6KdTreeINS_11PointNormalEED1Ev@Base 1.6
 (optional=templinst)_ZN3pcl6search6KdTreeINS_11PointNormalEED2Ev@Base 1.6
 (optional=templinst)_ZN3pcl6search6KdTreeINS_11PointXYZHSVEE10setEpsilonEf@Base 1.6
 (optional=templinst)_ZN3pcl6search6KdTreeINS_11PointXYZHSVEE13setInputCloudERKN5boost10shared_ptrIKNS_10PointCloudIS2_EEEERKNS5_IKSt6vectorIiSaIiEEEE@Base 1.6
 (optional=templinst)_ZN3pcl6search6KdTreeINS_11PointXYZHSVEE16setSortedResultsEb@Base 1.6
 (optional=templinst)_ZN3pcl6search6KdTreeINS_11PointXYZHSVEEC1Eb@Base 1.6
 (optional=templinst)_ZN3pcl6search6KdTreeINS_11PointXYZHSVEEC2Eb@Base 1.6
 (optional=templinst)_ZN3pcl6search6KdTreeINS_11PointXYZHSVEED0Ev@Base 1.6
 (optional=templinst)_ZN3pcl6search6KdTreeINS_11PointXYZHSVEED1Ev@Base 1.6
 (optional=templinst)_ZN3pcl6search6KdTreeINS_11PointXYZHSVEED2Ev@Base 1.6
 (optional=templinst)_ZN3pcl6search6KdTreeINS_11PointXYZRGBEE10setEpsilonEf@Base 1.6
 (optional=templinst)_ZN3pcl6search6KdTreeINS_11PointXYZRGBEE13setInputCloudERKN5boost10shared_ptrIKNS_10PointCloudIS2_EEEERKNS5_IKSt6vectorIiSaIiEEEE@Base 1.6
 (optional=templinst)_ZN3pcl6search6KdTreeINS_11PointXYZRGBEE16setSortedResultsEb@Base 1.6
 (optional=templinst)_ZN3pcl6search6KdTreeINS_11PointXYZRGBEEC1Eb@Base 1.6
 (optional=templinst)_ZN3pcl6search6KdTreeINS_11PointXYZRGBEEC2Eb@Base 1.6
 (optional=templinst)_ZN3pcl6search6KdTreeINS_11PointXYZRGBEED0Ev@Base 1.6
 (optional=templinst)_ZN3pcl6search6KdTreeINS_11PointXYZRGBEED1Ev@Base 1.6
 (optional=templinst)_ZN3pcl6search6KdTreeINS_11PointXYZRGBEED2Ev@Base 1.6
 (optional=templinst)_ZN3pcl6search6KdTreeINS_12PPFSignatureEE10setEpsilonEf@Base 1.6
 (optional=templinst)_ZN3pcl6search6KdTreeINS_12PPFSignatureEE13setInputCloudERKN5boost10shared_ptrIKNS_10PointCloudIS2_EEEERKNS5_IKSt6vectorIiSaIiEEEE@Base 1.6
 (optional=templinst)_ZN3pcl6search6KdTreeINS_12PPFSignatureEE16setSortedResultsEb@Base 1.6
 (optional=templinst)_ZN3pcl6search6KdTreeINS_12PPFSignatureEEC1Eb@Base 1.6
 (optional=templinst)_ZN3pcl6search6KdTreeINS_12PPFSignatureEEC2Eb@Base 1.6
 (optional=templinst)_ZN3pcl6search6KdTreeINS_12PPFSignatureEED0Ev@Base 1.6
 (optional=templinst)_ZN3pcl6search6KdTreeINS_12PPFSignatureEED1Ev@Base 1.6
 (optional=templinst)_ZN3pcl6search6KdTreeINS_12PPFSignatureEED2Ev@Base 1.6
 (optional=templinst)_ZN3pcl6search6KdTreeINS_12PointXYZRGBAEE10setEpsilonEf@Base 1.6
 (optional=templinst)_ZN3pcl6search6KdTreeINS_12PointXYZRGBAEE13setInputCloudERKN5boost10shared_ptrIKNS_10PointCloudIS2_EEEERKNS5_IKSt6vectorIiSaIiEEEE@Base 1.6
 (optional=templinst)_ZN3pcl6search6KdTreeINS_12PointXYZRGBAEE16setSortedResultsEb@Base 1.6
 (optional=templinst)_ZN3pcl6search6KdTreeINS_12PointXYZRGBAEEC1Eb@Base 1.6
 (optional=templinst)_ZN3pcl6search6KdTreeINS_12PointXYZRGBAEEC2Eb@Base 1.6
 (optional=templinst)_ZN3pcl6search6KdTreeINS_12PointXYZRGBAEED0Ev@Base 1.6
 (optional=templinst)_ZN3pcl6search6KdTreeINS_12PointXYZRGBAEED1Ev@Base 1.6
 (optional=templinst)_ZN3pcl6search6KdTreeINS_12PointXYZRGBAEED2Ev@Base 1.6
 (optional=templinst)_ZN3pcl6search6KdTreeINS_12PointXYZRGBLEE10setEpsilonEf@Base 1.6
 (optional=templinst)_ZN3pcl6search6KdTreeINS_12PointXYZRGBLEE13setInputCloudERKN5boost10shared_ptrIKNS_10PointCloudIS2_EEEERKNS5_IKSt6vectorIiSaIiEEEE@Base 1.6
 (optional=templinst)_ZN3pcl6search6KdTreeINS_12PointXYZRGBLEE16setSortedResultsEb@Base 1.6
 (optional=templinst)_ZN3pcl6search6KdTreeINS_12PointXYZRGBLEEC1Eb@Base 1.6
 (optional=templinst)_ZN3pcl6search6KdTreeINS_12PointXYZRGBLEEC2Eb@Base 1.6
 (optional=templinst)_ZN3pcl6search6KdTreeINS_12PointXYZRGBLEED0Ev@Base 1.6
 (optional=templinst)_ZN3pcl6search6KdTreeINS_12PointXYZRGBLEED1Ev@Base 1.6
 (optional=templinst)_ZN3pcl6search6KdTreeINS_12PointXYZRGBLEED2Ev@Base 1.6
 (optional=templinst)_ZN3pcl6search6KdTreeINS_13InterestPointEE10setEpsilonEf@Base 1.6
 (optional=templinst)_ZN3pcl6search6KdTreeINS_13InterestPointEE13setInputCloudERKN5boost10shared_ptrIKNS_10PointCloudIS2_EEEERKNS5_IKSt6vectorIiSaIiEEEE@Base 1.6
 (optional=templinst)_ZN3pcl6search6KdTreeINS_13InterestPointEE16setSortedResultsEb@Base 1.6
 (optional=templinst)_ZN3pcl6search6KdTreeINS_13InterestPointEEC1Eb@Base 1.6
 (optional=templinst)_ZN3pcl6search6KdTreeINS_13InterestPointEEC2Eb@Base 1.6
 (optional=templinst)_ZN3pcl6search6KdTreeINS_13InterestPointEED0Ev@Base 1.6
 (optional=templinst)_ZN3pcl6search6KdTreeINS_13InterestPointEED1Ev@Base 1.6
 (optional=templinst)_ZN3pcl6search6KdTreeINS_13InterestPointEED2Ev@Base 1.6
 (optional=templinst)_ZN3pcl6search6KdTreeINS_14PointWithRangeEE10setEpsilonEf@Base 1.6
 (optional=templinst)_ZN3pcl6search6KdTreeINS_14PointWithRangeEE13setInputCloudERKN5boost10shared_ptrIKNS_10PointCloudIS2_EEEERKNS5_IKSt6vectorIiSaIiEEEE@Base 1.6
 (optional=templinst)_ZN3pcl6search6KdTreeINS_14PointWithRangeEE16setSortedResultsEb@Base 1.6
 (optional=templinst)_ZN3pcl6search6KdTreeINS_14PointWithRangeEEC1Eb@Base 1.6
 (optional=templinst)_ZN3pcl6search6KdTreeINS_14PointWithRangeEEC2Eb@Base 1.6
 (optional=templinst)_ZN3pcl6search6KdTreeINS_14PointWithRangeEED0Ev@Base 1.6
 (optional=templinst)_ZN3pcl6search6KdTreeINS_14PointWithRangeEED1Ev@Base 1.6
 (optional=templinst)_ZN3pcl6search6KdTreeINS_14PointWithRangeEED2Ev@Base 1.6
 (optional=templinst)_ZN3pcl6search6KdTreeINS_14PointWithScaleEE10setEpsilonEf@Base 1.6
 (optional=templinst)_ZN3pcl6search6KdTreeINS_14PointWithScaleEE13setInputCloudERKN5boost10shared_ptrIKNS_10PointCloudIS2_EEEERKNS5_IKSt6vectorIiSaIiEEEE@Base 1.6
 (optional=templinst)_ZN3pcl6search6KdTreeINS_14PointWithScaleEE16setSortedResultsEb@Base 1.6
 (optional=templinst)_ZN3pcl6search6KdTreeINS_14PointWithScaleEEC1Eb@Base 1.6
 (optional=templinst)_ZN3pcl6search6KdTreeINS_14PointWithScaleEEC2Eb@Base 1.6
 (optional=templinst)_ZN3pcl6search6KdTreeINS_14PointWithScaleEED0Ev@Base 1.6
 (optional=templinst)_ZN3pcl6search6KdTreeINS_14PointWithScaleEED1Ev@Base 1.6
 (optional=templinst)_ZN3pcl6search6KdTreeINS_14PointWithScaleEED2Ev@Base 1.6
 (optional=templinst)_ZN3pcl6search6KdTreeINS_14ReferenceFrameEE10setEpsilonEf@Base 1.6
 (optional=templinst)_ZN3pcl6search6KdTreeINS_14ReferenceFrameEE13setInputCloudERKN5boost10shared_ptrIKNS_10PointCloudIS2_EEEERKNS5_IKSt6vectorIiSaIiEEEE@Base 1.6
 (optional=templinst)_ZN3pcl6search6KdTreeINS_14ReferenceFrameEE16setSortedResultsEb@Base 1.6
 (optional=templinst)_ZN3pcl6search6KdTreeINS_14ReferenceFrameEEC1Eb@Base 1.6
 (optional=templinst)_ZN3pcl6search6KdTreeINS_14ReferenceFrameEEC2Eb@Base 1.6
 (optional=templinst)_ZN3pcl6search6KdTreeINS_14ReferenceFrameEED0Ev@Base 1.6
 (optional=templinst)_ZN3pcl6search6KdTreeINS_14ReferenceFrameEED1Ev@Base 1.6
 (optional=templinst)_ZN3pcl6search6KdTreeINS_14ReferenceFrameEED2Ev@Base 1.6
 (optional=templinst)_ZN3pcl6search6KdTreeINS_15ESFSignature640EE10setEpsilonEf@Base 1.6
 (optional=templinst)_ZN3pcl6search6KdTreeINS_15ESFSignature640EE13setInputCloudERKN5boost10shared_ptrIKNS_10PointCloudIS2_EEEERKNS5_IKSt6vectorIiSaIiEEEE@Base 1.6
 (optional=templinst)_ZN3pcl6search6KdTreeINS_15ESFSignature640EE16setSortedResultsEb@Base 1.6
 (optional=templinst)_ZN3pcl6search6KdTreeINS_15ESFSignature640EEC1Eb@Base 1.6
 (optional=templinst)_ZN3pcl6search6KdTreeINS_15ESFSignature640EEC2Eb@Base 1.6
 (optional=templinst)_ZN3pcl6search6KdTreeINS_15ESFSignature640EED0Ev@Base 1.6
 (optional=templinst)_ZN3pcl6search6KdTreeINS_15ESFSignature640EED1Ev@Base 1.6
 (optional=templinst)_ZN3pcl6search6KdTreeINS_15ESFSignature640EED2Ev@Base 1.6
 (optional=templinst)_ZN3pcl6search6KdTreeINS_15FPFHSignature33EE10setEpsilonEf@Base 1.6
 (optional=templinst)_ZN3pcl6search6KdTreeINS_15FPFHSignature33EE13setInputCloudERKN5boost10shared_ptrIKNS_10PointCloudIS2_EEEERKNS5_IKSt6vectorIiSaIiEEEE@Base 1.6
 (optional=templinst)_ZN3pcl6search6KdTreeINS_15FPFHSignature33EE16setSortedResultsEb@Base 1.6
 (optional=templinst)_ZN3pcl6search6KdTreeINS_15FPFHSignature33EEC1Eb@Base 1.6
 (optional=templinst)_ZN3pcl6search6KdTreeINS_15FPFHSignature33EEC2Eb@Base 1.6
 (optional=templinst)_ZN3pcl6search6KdTreeINS_15FPFHSignature33EED0Ev@Base 1.6
 (optional=templinst)_ZN3pcl6search6KdTreeINS_15FPFHSignature33EED1Ev@Base 1.6
 (optional=templinst)_ZN3pcl6search6KdTreeINS_15FPFHSignature33EED2Ev@Base 1.6
 (optional=templinst)_ZN3pcl6search6KdTreeINS_15PFHSignature125EE10setEpsilonEf@Base 1.6
 (optional=templinst)_ZN3pcl6search6KdTreeINS_15PFHSignature125EE13setInputCloudERKN5boost10shared_ptrIKNS_10PointCloudIS2_EEEERKNS5_IKSt6vectorIiSaIiEEEE@Base 1.6
 (optional=templinst)_ZN3pcl6search6KdTreeINS_15PFHSignature125EE16setSortedResultsEb@Base 1.6
 (optional=templinst)_ZN3pcl6search6KdTreeINS_15PFHSignature125EEC1Eb@Base 1.6
 (optional=templinst)_ZN3pcl6search6KdTreeINS_15PFHSignature125EEC2Eb@Base 1.6
 (optional=templinst)_ZN3pcl6search6KdTreeINS_15PFHSignature125EED0Ev@Base 1.6
 (optional=templinst)_ZN3pcl6search6KdTreeINS_15PFHSignature125EED1Ev@Base 1.6
 (optional=templinst)_ZN3pcl6search6KdTreeINS_15PFHSignature125EED2Ev@Base 1.6
 (optional=templinst)_ZN3pcl6search6KdTreeINS_15PPFRGBSignatureEE10setEpsilonEf@Base 1.6
 (optional=templinst)_ZN3pcl6search6KdTreeINS_15PPFRGBSignatureEE13setInputCloudERKN5boost10shared_ptrIKNS_10PointCloudIS2_EEEERKNS5_IKSt6vectorIiSaIiEEEE@Base 1.6
 (optional=templinst)_ZN3pcl6search6KdTreeINS_15PPFRGBSignatureEE16setSortedResultsEb@Base 1.6
 (optional=templinst)_ZN3pcl6search6KdTreeINS_15PPFRGBSignatureEEC1Eb@Base 1.6
 (optional=templinst)_ZN3pcl6search6KdTreeINS_15PPFRGBSignatureEEC2Eb@Base 1.6
 (optional=templinst)_ZN3pcl6search6KdTreeINS_15PPFRGBSignatureEED0Ev@Base 1.6
 (optional=templinst)_ZN3pcl6search6KdTreeINS_15PPFRGBSignatureEED1Ev@Base 1.6
 (optional=templinst)_ZN3pcl6search6KdTreeINS_15PPFRGBSignatureEED2Ev@Base 1.6
 (optional=templinst)_ZN3pcl6search6KdTreeINS_15PointXYZINormalEE10setEpsilonEf@Base 1.6
 (optional=templinst)_ZN3pcl6search6KdTreeINS_15PointXYZINormalEE13setInputCloudERKN5boost10shared_ptrIKNS_10PointCloudIS2_EEEERKNS5_IKSt6vectorIiSaIiEEEE@Base 1.6
 (optional=templinst)_ZN3pcl6search6KdTreeINS_15PointXYZINormalEE16setSortedResultsEb@Base 1.6
 (optional=templinst)_ZN3pcl6search6KdTreeINS_15PointXYZINormalEEC1Eb@Base 1.6
 (optional=templinst)_ZN3pcl6search6KdTreeINS_15PointXYZINormalEEC2Eb@Base 1.6
 (optional=templinst)_ZN3pcl6search6KdTreeINS_15PointXYZINormalEED0Ev@Base 1.6
 (optional=templinst)_ZN3pcl6search6KdTreeINS_15PointXYZINormalEED1Ev@Base 1.6
 (optional=templinst)_ZN3pcl6search6KdTreeINS_15PointXYZINormalEED2Ev@Base 1.6
 (optional=templinst)_ZN3pcl6search6KdTreeINS_15VFHSignature308EE10setEpsilonEf@Base 1.6
 (optional=templinst)_ZN3pcl6search6KdTreeINS_15VFHSignature308EE13setInputCloudERKN5boost10shared_ptrIKNS_10PointCloudIS2_EEEERKNS5_IKSt6vectorIiSaIiEEEE@Base 1.6
 (optional=templinst)_ZN3pcl6search6KdTreeINS_15VFHSignature308EE16setSortedResultsEb@Base 1.6
 (optional=templinst)_ZN3pcl6search6KdTreeINS_15VFHSignature308EEC1Eb@Base 1.6
 (optional=templinst)_ZN3pcl6search6KdTreeINS_15VFHSignature308EEC2Eb@Base 1.6
 (optional=templinst)_ZN3pcl6search6KdTreeINS_15VFHSignature308EED0Ev@Base 1.6
 (optional=templinst)_ZN3pcl6search6KdTreeINS_15VFHSignature308EED1Ev@Base 1.6
 (optional=templinst)_ZN3pcl6search6KdTreeINS_15VFHSignature308EED2Ev@Base 1.6
 (optional=templinst)_ZN3pcl6search6KdTreeINS_16MomentInvariantsEE10setEpsilonEf@Base 1.6
 (optional=templinst)_ZN3pcl6search6KdTreeINS_16MomentInvariantsEE13setInputCloudERKN5boost10shared_ptrIKNS_10PointCloudIS2_EEEERKNS5_IKSt6vectorIiSaIiEEEE@Base 1.6
 (optional=templinst)_ZN3pcl6search6KdTreeINS_16MomentInvariantsEE16setSortedResultsEb@Base 1.6
 (optional=templinst)_ZN3pcl6search6KdTreeINS_16MomentInvariantsEEC1Eb@Base 1.6
 (optional=templinst)_ZN3pcl6search6KdTreeINS_16MomentInvariantsEEC2Eb@Base 1.6
 (optional=templinst)_ZN3pcl6search6KdTreeINS_16MomentInvariantsEED0Ev@Base 1.6
 (optional=templinst)_ZN3pcl6search6KdTreeINS_16MomentInvariantsEED1Ev@Base 1.6
 (optional=templinst)_ZN3pcl6search6KdTreeINS_16MomentInvariantsEED2Ev@Base 1.6
 (optional=templinst)_ZN3pcl6search6KdTreeINS_17IntensityGradientEE10setEpsilonEf@Base 1.6
 (optional=templinst)_ZN3pcl6search6KdTreeINS_17IntensityGradientEE13setInputCloudERKN5boost10shared_ptrIKNS_10PointCloudIS2_EEEERKNS5_IKSt6vectorIiSaIiEEEE@Base 1.6
 (optional=templinst)_ZN3pcl6search6KdTreeINS_17IntensityGradientEE16setSortedResultsEb@Base 1.6
 (optional=templinst)_ZN3pcl6search6KdTreeINS_17IntensityGradientEEC1Eb@Base 1.6
 (optional=templinst)_ZN3pcl6search6KdTreeINS_17IntensityGradientEEC2Eb@Base 1.6
 (optional=templinst)_ZN3pcl6search6KdTreeINS_17IntensityGradientEED0Ev@Base 1.6
 (optional=templinst)_ZN3pcl6search6KdTreeINS_17IntensityGradientEED1Ev@Base 1.6
 (optional=templinst)_ZN3pcl6search6KdTreeINS_17IntensityGradientEED2Ev@Base 1.6
 (optional=templinst)_ZN3pcl6search6KdTreeINS_17PointXYZRGBNormalEE10setEpsilonEf@Base 1.6
 (optional=templinst)_ZN3pcl6search6KdTreeINS_17PointXYZRGBNormalEE13setInputCloudERKN5boost10shared_ptrIKNS_10PointCloudIS2_EEEERKNS5_IKSt6vectorIiSaIiEEEE@Base 1.6
 (optional=templinst)_ZN3pcl6search6KdTreeINS_17PointXYZRGBNormalEE16setSortedResultsEb@Base 1.6
 (optional=templinst)_ZN3pcl6search6KdTreeINS_17PointXYZRGBNormalEEC1Eb@Base 1.6
 (optional=templinst)_ZN3pcl6search6KdTreeINS_17PointXYZRGBNormalEEC2Eb@Base 1.6
 (optional=templinst)_ZN3pcl6search6KdTreeINS_17PointXYZRGBNormalEED0Ev@Base 1.6
 (optional=templinst)_ZN3pcl6search6KdTreeINS_17PointXYZRGBNormalEED1Ev@Base 1.6
 (optional=templinst)_ZN3pcl6search6KdTreeINS_17PointXYZRGBNormalEED2Ev@Base 1.6
 (optional=templinst)_ZN3pcl6search6KdTreeINS_17PrincipalRadiiRSDEE10setEpsilonEf@Base 1.6
 (optional=templinst)_ZN3pcl6search6KdTreeINS_17PrincipalRadiiRSDEE13setInputCloudERKN5boost10shared_ptrIKNS_10PointCloudIS2_EEEERKNS5_IKSt6vectorIiSaIiEEEE@Base 1.6
 (optional=templinst)_ZN3pcl6search6KdTreeINS_17PrincipalRadiiRSDEE16setSortedResultsEb@Base 1.6
 (optional=templinst)_ZN3pcl6search6KdTreeINS_17PrincipalRadiiRSDEEC1Eb@Base 1.6
 (optional=templinst)_ZN3pcl6search6KdTreeINS_17PrincipalRadiiRSDEEC2Eb@Base 1.6
 (optional=templinst)_ZN3pcl6search6KdTreeINS_17PrincipalRadiiRSDEED0Ev@Base 1.6
 (optional=templinst)_ZN3pcl6search6KdTreeINS_17PrincipalRadiiRSDEED1Ev@Base 1.6
 (optional=templinst)_ZN3pcl6search6KdTreeINS_17PrincipalRadiiRSDEED2Ev@Base 1.6
 (optional=templinst)_ZN3pcl6search6KdTreeINS_18PFHRGBSignature250EE10setEpsilonEf@Base 1.6
 (optional=templinst)_ZN3pcl6search6KdTreeINS_18PFHRGBSignature250EE13setInputCloudERKN5boost10shared_ptrIKNS_10PointCloudIS2_EEEERKNS5_IKSt6vectorIiSaIiEEEE@Base 1.6
 (optional=templinst)_ZN3pcl6search6KdTreeINS_18PFHRGBSignature250EE16setSortedResultsEb@Base 1.6
 (optional=templinst)_ZN3pcl6search6KdTreeINS_18PFHRGBSignature250EEC1Eb@Base 1.6
 (optional=templinst)_ZN3pcl6search6KdTreeINS_18PFHRGBSignature250EEC2Eb@Base 1.6
 (optional=templinst)_ZN3pcl6search6KdTreeINS_18PFHRGBSignature250EED0Ev@Base 1.6
 (optional=templinst)_ZN3pcl6search6KdTreeINS_18PFHRGBSignature250EED1Ev@Base 1.6
 (optional=templinst)_ZN3pcl6search6KdTreeINS_18PFHRGBSignature250EED2Ev@Base 1.6
 (optional=templinst)_ZN3pcl6search6KdTreeINS_18PointWithViewpointEE10setEpsilonEf@Base 1.6
 (optional=templinst)_ZN3pcl6search6KdTreeINS_18PointWithViewpointEE13setInputCloudERKN5boost10shared_ptrIKNS_10PointCloudIS2_EEEERKNS5_IKSt6vectorIiSaIiEEEE@Base 1.6
 (optional=templinst)_ZN3pcl6search6KdTreeINS_18PointWithViewpointEE16setSortedResultsEb@Base 1.6
 (optional=templinst)_ZN3pcl6search6KdTreeINS_18PointWithViewpointEEC1Eb@Base 1.6
 (optional=templinst)_ZN3pcl6search6KdTreeINS_18PointWithViewpointEEC2Eb@Base 1.6
 (optional=templinst)_ZN3pcl6search6KdTreeINS_18PointWithViewpointEED0Ev@Base 1.6
 (optional=templinst)_ZN3pcl6search6KdTreeINS_18PointWithViewpointEED1Ev@Base 1.6
 (optional=templinst)_ZN3pcl6search6KdTreeINS_18PointWithViewpointEED2Ev@Base 1.6
 (optional=templinst)_ZN3pcl6search6KdTreeINS_19PrincipalCurvaturesEE10setEpsilonEf@Base 1.6
 (optional=templinst)_ZN3pcl6search6KdTreeINS_19PrincipalCurvaturesEE13setInputCloudERKN5boost10shared_ptrIKNS_10PointCloudIS2_EEEERKNS5_IKSt6vectorIiSaIiEEEE@Base 1.6
 (optional=templinst)_ZN3pcl6search6KdTreeINS_19PrincipalCurvaturesEE16setSortedResultsEb@Base 1.6
 (optional=templinst)_ZN3pcl6search6KdTreeINS_19PrincipalCurvaturesEEC1Eb@Base 1.6
 (optional=templinst)_ZN3pcl6search6KdTreeINS_19PrincipalCurvaturesEEC2Eb@Base 1.6
 (optional=templinst)_ZN3pcl6search6KdTreeINS_19PrincipalCurvaturesEED0Ev@Base 1.6
 (optional=templinst)_ZN3pcl6search6KdTreeINS_19PrincipalCurvaturesEED1Ev@Base 1.6
 (optional=templinst)_ZN3pcl6search6KdTreeINS_19PrincipalCurvaturesEED2Ev@Base 1.6
 (optional=templinst)_ZN3pcl6search6KdTreeINS_22NormalBasedSignature12EE10setEpsilonEf@Base 1.6
 (optional=templinst)_ZN3pcl6search6KdTreeINS_22NormalBasedSignature12EE13setInputCloudERKN5boost10shared_ptrIKNS_10PointCloudIS2_EEEERKNS5_IKSt6vectorIiSaIiEEEE@Base 1.6
 (optional=templinst)_ZN3pcl6search6KdTreeINS_22NormalBasedSignature12EE16setSortedResultsEb@Base 1.6
 (optional=templinst)_ZN3pcl6search6KdTreeINS_22NormalBasedSignature12EEC1Eb@Base 1.6
 (optional=templinst)_ZN3pcl6search6KdTreeINS_22NormalBasedSignature12EEC2Eb@Base 1.6
 (optional=templinst)_ZN3pcl6search6KdTreeINS_22NormalBasedSignature12EED0Ev@Base 1.6
 (optional=templinst)_ZN3pcl6search6KdTreeINS_22NormalBasedSignature12EED1Ev@Base 1.6
 (optional=templinst)_ZN3pcl6search6KdTreeINS_22NormalBasedSignature12EED2Ev@Base 1.6
 (optional=templinst)_ZN3pcl6search6KdTreeINS_4AxisEE10setEpsilonEf@Base 1.6
 (optional=templinst)_ZN3pcl6search6KdTreeINS_4AxisEE13setInputCloudERKN5boost10shared_ptrIKNS_10PointCloudIS2_EEEERKNS5_IKSt6vectorIiSaIiEEEE@Base 1.6
 (optional=templinst)_ZN3pcl6search6KdTreeINS_4AxisEE16setSortedResultsEb@Base 1.6
 (optional=templinst)_ZN3pcl6search6KdTreeINS_4AxisEEC1Eb@Base 1.6
 (optional=templinst)_ZN3pcl6search6KdTreeINS_4AxisEEC2Eb@Base 1.6
 (optional=templinst)_ZN3pcl6search6KdTreeINS_4AxisEED0Ev@Base 1.6
 (optional=templinst)_ZN3pcl6search6KdTreeINS_4AxisEED1Ev@Base 1.6
 (optional=templinst)_ZN3pcl6search6KdTreeINS_4AxisEED2Ev@Base 1.6
 (optional=templinst)_ZN3pcl6search6KdTreeINS_5LabelEE10setEpsilonEf@Base 1.6
 (optional=templinst)_ZN3pcl6search6KdTreeINS_5LabelEE13setInputCloudERKN5boost10shared_ptrIKNS_10PointCloudIS2_EEEERKNS5_IKSt6vectorIiSaIiEEEE@Base 1.6
 (optional=templinst)_ZN3pcl6search6KdTreeINS_5LabelEE16setSortedResultsEb@Base 1.6
 (optional=templinst)_ZN3pcl6search6KdTreeINS_5LabelEEC1Eb@Base 1.6
 (optional=templinst)_ZN3pcl6search6KdTreeINS_5LabelEEC2Eb@Base 1.6
 (optional=templinst)_ZN3pcl6search6KdTreeINS_5LabelEED0Ev@Base 1.6
 (optional=templinst)_ZN3pcl6search6KdTreeINS_5LabelEED1Ev@Base 1.6
 (optional=templinst)_ZN3pcl6search6KdTreeINS_5LabelEED2Ev@Base 1.6
 (optional=templinst)_ZN3pcl6search6KdTreeINS_6Narf36EE10setEpsilonEf@Base 1.6
 (optional=templinst)_ZN3pcl6search6KdTreeINS_6Narf36EE13setInputCloudERKN5boost10shared_ptrIKNS_10PointCloudIS2_EEEERKNS5_IKSt6vectorIiSaIiEEEE@Base 1.6
 (optional=templinst)_ZN3pcl6search6KdTreeINS_6Narf36EE16setSortedResultsEb@Base 1.6
 (optional=templinst)_ZN3pcl6search6KdTreeINS_6Narf36EEC1Eb@Base 1.6
 (optional=templinst)_ZN3pcl6search6KdTreeINS_6Narf36EEC2Eb@Base 1.6
 (optional=templinst)_ZN3pcl6search6KdTreeINS_6Narf36EED0Ev@Base 1.6
 (optional=templinst)_ZN3pcl6search6KdTreeINS_6Narf36EED1Ev@Base 1.6
 (optional=templinst)_ZN3pcl6search6KdTreeINS_6Narf36EED2Ev@Base 1.6
 (optional=templinst)_ZN3pcl6search6KdTreeINS_6NormalEE10setEpsilonEf@Base 1.6
 (optional=templinst)_ZN3pcl6search6KdTreeINS_6NormalEE13setInputCloudERKN5boost10shared_ptrIKNS_10PointCloudIS2_EEEERKNS5_IKSt6vectorIiSaIiEEEE@Base 1.6
 (optional=templinst)_ZN3pcl6search6KdTreeINS_6NormalEE16setSortedResultsEb@Base 1.6
 (optional=templinst)_ZN3pcl6search6KdTreeINS_6NormalEEC1Eb@Base 1.6
 (optional=templinst)_ZN3pcl6search6KdTreeINS_6NormalEEC2Eb@Base 1.6
 (optional=templinst)_ZN3pcl6search6KdTreeINS_6NormalEED0Ev@Base 1.6
 (optional=templinst)_ZN3pcl6search6KdTreeINS_6NormalEED1Ev@Base 1.6
 (optional=templinst)_ZN3pcl6search6KdTreeINS_6NormalEED2Ev@Base 1.6
 (optional=templinst)_ZN3pcl6search6KdTreeINS_7PointXYEE10setEpsilonEf@Base 1.6
 (optional=templinst)_ZN3pcl6search6KdTreeINS_7PointXYEE13setInputCloudERKN5boost10shared_ptrIKNS_10PointCloudIS2_EEEERKNS5_IKSt6vectorIiSaIiEEEE@Base 1.6
 (optional=templinst)_ZN3pcl6search6KdTreeINS_7PointXYEE16setSortedResultsEb@Base 1.6
 (optional=templinst)_ZN3pcl6search6KdTreeINS_7PointXYEEC1Eb@Base 1.6
 (optional=templinst)_ZN3pcl6search6KdTreeINS_7PointXYEEC2Eb@Base 1.6
 (optional=templinst)_ZN3pcl6search6KdTreeINS_7PointXYEED0Ev@Base 1.6
 (optional=templinst)_ZN3pcl6search6KdTreeINS_7PointXYEED1Ev@Base 1.6
 (optional=templinst)_ZN3pcl6search6KdTreeINS_7PointXYEED2Ev@Base 1.6
 (optional=templinst)_ZN3pcl6search6KdTreeINS_8BoundaryEE10setEpsilonEf@Base 1.6
 (optional=templinst)_ZN3pcl6search6KdTreeINS_8BoundaryEE13setInputCloudERKN5boost10shared_ptrIKNS_10PointCloudIS2_EEEERKNS5_IKSt6vectorIiSaIiEEEE@Base 1.6
 (optional=templinst)_ZN3pcl6search6KdTreeINS_8BoundaryEE16setSortedResultsEb@Base 1.6
 (optional=templinst)_ZN3pcl6search6KdTreeINS_8BoundaryEEC1Eb@Base 1.6
 (optional=templinst)_ZN3pcl6search6KdTreeINS_8BoundaryEEC2Eb@Base 1.6
 (optional=templinst)_ZN3pcl6search6KdTreeINS_8BoundaryEED0Ev@Base 1.6
 (optional=templinst)_ZN3pcl6search6KdTreeINS_8BoundaryEED1Ev@Base 1.6
 (optional=templinst)_ZN3pcl6search6KdTreeINS_8BoundaryEED2Ev@Base 1.6
 (optional=templinst)_ZN3pcl6search6KdTreeINS_8PointXYZEE10setEpsilonEf@Base 1.6
 (optional=templinst)_ZN3pcl6search6KdTreeINS_8PointXYZEE13setInputCloudERKN5boost10shared_ptrIKNS_10PointCloudIS2_EEEERKNS5_IKSt6vectorIiSaIiEEEE@Base 1.6
 (optional=templinst)_ZN3pcl6search6KdTreeINS_8PointXYZEE16setSortedResultsEb@Base 1.6
 (optional=templinst)_ZN3pcl6search6KdTreeINS_8PointXYZEEC1Eb@Base 1.6
 (optional=templinst)_ZN3pcl6search6KdTreeINS_8PointXYZEEC2Eb@Base 1.6
 (optional=templinst)_ZN3pcl6search6KdTreeINS_8PointXYZEED0Ev@Base 1.6
 (optional=templinst)_ZN3pcl6search6KdTreeINS_8PointXYZEED1Ev@Base 1.6
 (optional=templinst)_ZN3pcl6search6KdTreeINS_8PointXYZEED2Ev@Base 1.6
 (optional=templinst)_ZN3pcl6search6KdTreeINS_9PointXYZIEE10setEpsilonEf@Base 1.6
 (optional=templinst)_ZN3pcl6search6KdTreeINS_9PointXYZIEE13setInputCloudERKN5boost10shared_ptrIKNS_10PointCloudIS2_EEEERKNS5_IKSt6vectorIiSaIiEEEE@Base 1.6
 (optional=templinst)_ZN3pcl6search6KdTreeINS_9PointXYZIEE16setSortedResultsEb@Base 1.6
 (optional=templinst)_ZN3pcl6search6KdTreeINS_9PointXYZIEEC1Eb@Base 1.6
 (optional=templinst)_ZN3pcl6search6KdTreeINS_9PointXYZIEEC2Eb@Base 1.6
 (optional=templinst)_ZN3pcl6search6KdTreeINS_9PointXYZIEED0Ev@Base 1.6
 (optional=templinst)_ZN3pcl6search6KdTreeINS_9PointXYZIEED1Ev@Base 1.6
 (optional=templinst)_ZN3pcl6search6KdTreeINS_9PointXYZIEED2Ev@Base 1.6
 (optional=templinst)_ZN3pcl6search6KdTreeINS_9PointXYZLEE10setEpsilonEf@Base 1.6
 (optional=templinst)_ZN3pcl6search6KdTreeINS_9PointXYZLEE13setInputCloudERKN5boost10shared_ptrIKNS_10PointCloudIS2_EEEERKNS5_IKSt6vectorIiSaIiEEEE@Base 1.6
 (optional=templinst)_ZN3pcl6search6KdTreeINS_9PointXYZLEE16setSortedResultsEb@Base 1.6
 (optional=templinst)_ZN3pcl6search6KdTreeINS_9PointXYZLEEC1Eb@Base 1.6
 (optional=templinst)_ZN3pcl6search6KdTreeINS_9PointXYZLEEC2Eb@Base 1.6
 (optional=templinst)_ZN3pcl6search6KdTreeINS_9PointXYZLEED0Ev@Base 1.6
 (optional=templinst)_ZN3pcl6search6KdTreeINS_9PointXYZLEED1Ev@Base 1.6
 (optional=templinst)_ZN3pcl6search6KdTreeINS_9PointXYZLEED2Ev@Base 1.6
 (optional=templinst)_ZN3pcl6search6OctreeINS_11PointNormalENS_6octree26OctreeContainerDataTVectorIiEENS3_20OctreeContainerEmptyIiEENS3_10OctreeBaseIiS5_S7_EEE13setInputCloudERKN5boost10shared_ptrIKNS_10PointCloudIS2_EEEE@Base 1.6
 (optional=templinst)_ZN3pcl6search6OctreeINS_11PointNormalENS_6octree26OctreeContainerDataTVectorIiEENS3_20OctreeContainerEmptyIiEENS3_10OctreeBaseIiS5_S7_EEE13setInputCloudERKN5boost10shared_ptrIKNS_10PointCloudIS2_EEEERKNSC_IKSt6vectorIiSaIiEEEE@Base 1.6
 (optional=templinst)_ZN3pcl6search6OctreeINS_11PointNormalENS_6octree26OctreeContainerDataTVectorIiEENS3_20OctreeContainerEmptyIiEENS3_10OctreeBaseIiS5_S7_EEE19approxNearestSearchERKN5boost10shared_ptrIKNS_10PointCloudIS2_EEEEiRiRf@Base 1.6
 (optional=templinst)_ZN3pcl6search6OctreeINS_11PointNormalENS_6octree26OctreeContainerDataTVectorIiEENS3_20OctreeContainerEmptyIiEENS3_10OctreeBaseIiS5_S7_EEE19approxNearestSearchERKS2_RiRf@Base 1.6
 (optional=templinst)_ZN3pcl6search6OctreeINS_11PointNormalENS_6octree26OctreeContainerDataTVectorIiEENS3_20OctreeContainerEmptyIiEENS3_10OctreeBaseIiS5_S7_EEE19approxNearestSearchEiRiRf@Base 1.6
 (optional=templinst)_ZN3pcl6search6OctreeINS_11PointNormalENS_6octree26OctreeContainerDataTVectorIiEENS3_20OctreeContainerEmptyIiEENS3_10OctreeBaseIiS5_S7_EEEC1Ed@Base 1.6
 (optional=templinst)_ZN3pcl6search6OctreeINS_11PointNormalENS_6octree26OctreeContainerDataTVectorIiEENS3_20OctreeContainerEmptyIiEENS3_10OctreeBaseIiS5_S7_EEEC2Ed@Base 1.6
 (optional=templinst)_ZN3pcl6search6OctreeINS_11PointNormalENS_6octree26OctreeContainerDataTVectorIiEENS3_20OctreeContainerEmptyIiEENS3_10OctreeBaseIiS5_S7_EEED0Ev@Base 1.6
 (optional=templinst)_ZN3pcl6search6OctreeINS_11PointNormalENS_6octree26OctreeContainerDataTVectorIiEENS3_20OctreeContainerEmptyIiEENS3_10OctreeBaseIiS5_S7_EEED1Ev@Base 1.6
 (optional=templinst)_ZN3pcl6search6OctreeINS_11PointNormalENS_6octree26OctreeContainerDataTVectorIiEENS3_20OctreeContainerEmptyIiEENS3_10OctreeBaseIiS5_S7_EEED2Ev@Base 1.6
 (optional=templinst)_ZN3pcl6search6OctreeINS_11PointXYZHSVENS_6octree26OctreeContainerDataTVectorIiEENS3_20OctreeContainerEmptyIiEENS3_10OctreeBaseIiS5_S7_EEE13setInputCloudERKN5boost10shared_ptrIKNS_10PointCloudIS2_EEEE@Base 1.6
 (optional=templinst)_ZN3pcl6search6OctreeINS_11PointXYZHSVENS_6octree26OctreeContainerDataTVectorIiEENS3_20OctreeContainerEmptyIiEENS3_10OctreeBaseIiS5_S7_EEE13setInputCloudERKN5boost10shared_ptrIKNS_10PointCloudIS2_EEEERKNSC_IKSt6vectorIiSaIiEEEE@Base 1.6
 (optional=templinst)_ZN3pcl6search6OctreeINS_11PointXYZHSVENS_6octree26OctreeContainerDataTVectorIiEENS3_20OctreeContainerEmptyIiEENS3_10OctreeBaseIiS5_S7_EEE19approxNearestSearchERKN5boost10shared_ptrIKNS_10PointCloudIS2_EEEEiRiRf@Base 1.6
 (optional=templinst)_ZN3pcl6search6OctreeINS_11PointXYZHSVENS_6octree26OctreeContainerDataTVectorIiEENS3_20OctreeContainerEmptyIiEENS3_10OctreeBaseIiS5_S7_EEE19approxNearestSearchERKS2_RiRf@Base 1.6
 (optional=templinst)_ZN3pcl6search6OctreeINS_11PointXYZHSVENS_6octree26OctreeContainerDataTVectorIiEENS3_20OctreeContainerEmptyIiEENS3_10OctreeBaseIiS5_S7_EEE19approxNearestSearchEiRiRf@Base 1.6
 (optional=templinst)_ZN3pcl6search6OctreeINS_11PointXYZHSVENS_6octree26OctreeContainerDataTVectorIiEENS3_20OctreeContainerEmptyIiEENS3_10OctreeBaseIiS5_S7_EEEC1Ed@Base 1.6
 (optional=templinst)_ZN3pcl6search6OctreeINS_11PointXYZHSVENS_6octree26OctreeContainerDataTVectorIiEENS3_20OctreeContainerEmptyIiEENS3_10OctreeBaseIiS5_S7_EEEC2Ed@Base 1.6
 (optional=templinst)_ZN3pcl6search6OctreeINS_11PointXYZHSVENS_6octree26OctreeContainerDataTVectorIiEENS3_20OctreeContainerEmptyIiEENS3_10OctreeBaseIiS5_S7_EEED0Ev@Base 1.6
 (optional=templinst)_ZN3pcl6search6OctreeINS_11PointXYZHSVENS_6octree26OctreeContainerDataTVectorIiEENS3_20OctreeContainerEmptyIiEENS3_10OctreeBaseIiS5_S7_EEED1Ev@Base 1.6
 (optional=templinst)_ZN3pcl6search6OctreeINS_11PointXYZHSVENS_6octree26OctreeContainerDataTVectorIiEENS3_20OctreeContainerEmptyIiEENS3_10OctreeBaseIiS5_S7_EEED2Ev@Base 1.6
 (optional=templinst)_ZN3pcl6search6OctreeINS_11PointXYZRGBENS_6octree26OctreeContainerDataTVectorIiEENS3_20OctreeContainerEmptyIiEENS3_10OctreeBaseIiS5_S7_EEE13setInputCloudERKN5boost10shared_ptrIKNS_10PointCloudIS2_EEEE@Base 1.6
 (optional=templinst)_ZN3pcl6search6OctreeINS_11PointXYZRGBENS_6octree26OctreeContainerDataTVectorIiEENS3_20OctreeContainerEmptyIiEENS3_10OctreeBaseIiS5_S7_EEE13setInputCloudERKN5boost10shared_ptrIKNS_10PointCloudIS2_EEEERKNSC_IKSt6vectorIiSaIiEEEE@Base 1.6
 (optional=templinst)_ZN3pcl6search6OctreeINS_11PointXYZRGBENS_6octree26OctreeContainerDataTVectorIiEENS3_20OctreeContainerEmptyIiEENS3_10OctreeBaseIiS5_S7_EEE19approxNearestSearchERKN5boost10shared_ptrIKNS_10PointCloudIS2_EEEEiRiRf@Base 1.6
 (optional=templinst)_ZN3pcl6search6OctreeINS_11PointXYZRGBENS_6octree26OctreeContainerDataTVectorIiEENS3_20OctreeContainerEmptyIiEENS3_10OctreeBaseIiS5_S7_EEE19approxNearestSearchERKS2_RiRf@Base 1.6
 (optional=templinst)_ZN3pcl6search6OctreeINS_11PointXYZRGBENS_6octree26OctreeContainerDataTVectorIiEENS3_20OctreeContainerEmptyIiEENS3_10OctreeBaseIiS5_S7_EEE19approxNearestSearchEiRiRf@Base 1.6
 (optional=templinst)_ZN3pcl6search6OctreeINS_11PointXYZRGBENS_6octree26OctreeContainerDataTVectorIiEENS3_20OctreeContainerEmptyIiEENS3_10OctreeBaseIiS5_S7_EEEC1Ed@Base 1.6
 (optional=templinst)_ZN3pcl6search6OctreeINS_11PointXYZRGBENS_6octree26OctreeContainerDataTVectorIiEENS3_20OctreeContainerEmptyIiEENS3_10OctreeBaseIiS5_S7_EEEC2Ed@Base 1.6
 (optional=templinst)_ZN3pcl6search6OctreeINS_11PointXYZRGBENS_6octree26OctreeContainerDataTVectorIiEENS3_20OctreeContainerEmptyIiEENS3_10OctreeBaseIiS5_S7_EEED0Ev@Base 1.6
 (optional=templinst)_ZN3pcl6search6OctreeINS_11PointXYZRGBENS_6octree26OctreeContainerDataTVectorIiEENS3_20OctreeContainerEmptyIiEENS3_10OctreeBaseIiS5_S7_EEED1Ev@Base 1.6
 (optional=templinst)_ZN3pcl6search6OctreeINS_11PointXYZRGBENS_6octree26OctreeContainerDataTVectorIiEENS3_20OctreeContainerEmptyIiEENS3_10OctreeBaseIiS5_S7_EEED2Ev@Base 1.6
 (optional=templinst)_ZN3pcl6search6OctreeINS_12PointXYZRGBAENS_6octree26OctreeContainerDataTVectorIiEENS3_20OctreeContainerEmptyIiEENS3_10OctreeBaseIiS5_S7_EEE13setInputCloudERKN5boost10shared_ptrIKNS_10PointCloudIS2_EEEE@Base 1.6
 (optional=templinst)_ZN3pcl6search6OctreeINS_12PointXYZRGBAENS_6octree26OctreeContainerDataTVectorIiEENS3_20OctreeContainerEmptyIiEENS3_10OctreeBaseIiS5_S7_EEE13setInputCloudERKN5boost10shared_ptrIKNS_10PointCloudIS2_EEEERKNSC_IKSt6vectorIiSaIiEEEE@Base 1.6
 (optional=templinst)_ZN3pcl6search6OctreeINS_12PointXYZRGBAENS_6octree26OctreeContainerDataTVectorIiEENS3_20OctreeContainerEmptyIiEENS3_10OctreeBaseIiS5_S7_EEE19approxNearestSearchERKN5boost10shared_ptrIKNS_10PointCloudIS2_EEEEiRiRf@Base 1.6
 (optional=templinst)_ZN3pcl6search6OctreeINS_12PointXYZRGBAENS_6octree26OctreeContainerDataTVectorIiEENS3_20OctreeContainerEmptyIiEENS3_10OctreeBaseIiS5_S7_EEE19approxNearestSearchERKS2_RiRf@Base 1.6
 (optional=templinst)_ZN3pcl6search6OctreeINS_12PointXYZRGBAENS_6octree26OctreeContainerDataTVectorIiEENS3_20OctreeContainerEmptyIiEENS3_10OctreeBaseIiS5_S7_EEE19approxNearestSearchEiRiRf@Base 1.6
 (optional=templinst)_ZN3pcl6search6OctreeINS_12PointXYZRGBAENS_6octree26OctreeContainerDataTVectorIiEENS3_20OctreeContainerEmptyIiEENS3_10OctreeBaseIiS5_S7_EEEC1Ed@Base 1.6
 (optional=templinst)_ZN3pcl6search6OctreeINS_12PointXYZRGBAENS_6octree26OctreeContainerDataTVectorIiEENS3_20OctreeContainerEmptyIiEENS3_10OctreeBaseIiS5_S7_EEEC2Ed@Base 1.6
 (optional=templinst)_ZN3pcl6search6OctreeINS_12PointXYZRGBAENS_6octree26OctreeContainerDataTVectorIiEENS3_20OctreeContainerEmptyIiEENS3_10OctreeBaseIiS5_S7_EEED0Ev@Base 1.6
 (optional=templinst)_ZN3pcl6search6OctreeINS_12PointXYZRGBAENS_6octree26OctreeContainerDataTVectorIiEENS3_20OctreeContainerEmptyIiEENS3_10OctreeBaseIiS5_S7_EEED1Ev@Base 1.6
 (optional=templinst)_ZN3pcl6search6OctreeINS_12PointXYZRGBAENS_6octree26OctreeContainerDataTVectorIiEENS3_20OctreeContainerEmptyIiEENS3_10OctreeBaseIiS5_S7_EEED2Ev@Base 1.6
 (optional=templinst)_ZN3pcl6search6OctreeINS_12PointXYZRGBLENS_6octree26OctreeContainerDataTVectorIiEENS3_20OctreeContainerEmptyIiEENS3_10OctreeBaseIiS5_S7_EEE13setInputCloudERKN5boost10shared_ptrIKNS_10PointCloudIS2_EEEE@Base 1.6
 (optional=templinst)_ZN3pcl6search6OctreeINS_12PointXYZRGBLENS_6octree26OctreeContainerDataTVectorIiEENS3_20OctreeContainerEmptyIiEENS3_10OctreeBaseIiS5_S7_EEE13setInputCloudERKN5boost10shared_ptrIKNS_10PointCloudIS2_EEEERKNSC_IKSt6vectorIiSaIiEEEE@Base 1.6
 (optional=templinst)_ZN3pcl6search6OctreeINS_12PointXYZRGBLENS_6octree26OctreeContainerDataTVectorIiEENS3_20OctreeContainerEmptyIiEENS3_10OctreeBaseIiS5_S7_EEE19approxNearestSearchERKN5boost10shared_ptrIKNS_10PointCloudIS2_EEEEiRiRf@Base 1.6
 (optional=templinst)_ZN3pcl6search6OctreeINS_12PointXYZRGBLENS_6octree26OctreeContainerDataTVectorIiEENS3_20OctreeContainerEmptyIiEENS3_10OctreeBaseIiS5_S7_EEE19approxNearestSearchERKS2_RiRf@Base 1.6
 (optional=templinst)_ZN3pcl6search6OctreeINS_12PointXYZRGBLENS_6octree26OctreeContainerDataTVectorIiEENS3_20OctreeContainerEmptyIiEENS3_10OctreeBaseIiS5_S7_EEE19approxNearestSearchEiRiRf@Base 1.6
 (optional=templinst)_ZN3pcl6search6OctreeINS_12PointXYZRGBLENS_6octree26OctreeContainerDataTVectorIiEENS3_20OctreeContainerEmptyIiEENS3_10OctreeBaseIiS5_S7_EEEC1Ed@Base 1.6
 (optional=templinst)_ZN3pcl6search6OctreeINS_12PointXYZRGBLENS_6octree26OctreeContainerDataTVectorIiEENS3_20OctreeContainerEmptyIiEENS3_10OctreeBaseIiS5_S7_EEEC2Ed@Base 1.6
 (optional=templinst)_ZN3pcl6search6OctreeINS_12PointXYZRGBLENS_6octree26OctreeContainerDataTVectorIiEENS3_20OctreeContainerEmptyIiEENS3_10OctreeBaseIiS5_S7_EEED0Ev@Base 1.6
 (optional=templinst)_ZN3pcl6search6OctreeINS_12PointXYZRGBLENS_6octree26OctreeContainerDataTVectorIiEENS3_20OctreeContainerEmptyIiEENS3_10OctreeBaseIiS5_S7_EEED1Ev@Base 1.6
 (optional=templinst)_ZN3pcl6search6OctreeINS_12PointXYZRGBLENS_6octree26OctreeContainerDataTVectorIiEENS3_20OctreeContainerEmptyIiEENS3_10OctreeBaseIiS5_S7_EEED2Ev@Base 1.6
 (optional=templinst)_ZN3pcl6search6OctreeINS_13InterestPointENS_6octree26OctreeContainerDataTVectorIiEENS3_20OctreeContainerEmptyIiEENS3_10OctreeBaseIiS5_S7_EEE13setInputCloudERKN5boost10shared_ptrIKNS_10PointCloudIS2_EEEE@Base 1.6
 (optional=templinst)_ZN3pcl6search6OctreeINS_13InterestPointENS_6octree26OctreeContainerDataTVectorIiEENS3_20OctreeContainerEmptyIiEENS3_10OctreeBaseIiS5_S7_EEE13setInputCloudERKN5boost10shared_ptrIKNS_10PointCloudIS2_EEEERKNSC_IKSt6vectorIiSaIiEEEE@Base 1.6
 (optional=templinst)_ZN3pcl6search6OctreeINS_13InterestPointENS_6octree26OctreeContainerDataTVectorIiEENS3_20OctreeContainerEmptyIiEENS3_10OctreeBaseIiS5_S7_EEE19approxNearestSearchERKN5boost10shared_ptrIKNS_10PointCloudIS2_EEEEiRiRf@Base 1.6
 (optional=templinst)_ZN3pcl6search6OctreeINS_13InterestPointENS_6octree26OctreeContainerDataTVectorIiEENS3_20OctreeContainerEmptyIiEENS3_10OctreeBaseIiS5_S7_EEE19approxNearestSearchERKS2_RiRf@Base 1.6
 (optional=templinst)_ZN3pcl6search6OctreeINS_13InterestPointENS_6octree26OctreeContainerDataTVectorIiEENS3_20OctreeContainerEmptyIiEENS3_10OctreeBaseIiS5_S7_EEE19approxNearestSearchEiRiRf@Base 1.6
 (optional=templinst)_ZN3pcl6search6OctreeINS_13InterestPointENS_6octree26OctreeContainerDataTVectorIiEENS3_20OctreeContainerEmptyIiEENS3_10OctreeBaseIiS5_S7_EEEC1Ed@Base 1.6
 (optional=templinst)_ZN3pcl6search6OctreeINS_13InterestPointENS_6octree26OctreeContainerDataTVectorIiEENS3_20OctreeContainerEmptyIiEENS3_10OctreeBaseIiS5_S7_EEEC2Ed@Base 1.6
 (optional=templinst)_ZN3pcl6search6OctreeINS_13InterestPointENS_6octree26OctreeContainerDataTVectorIiEENS3_20OctreeContainerEmptyIiEENS3_10OctreeBaseIiS5_S7_EEED0Ev@Base 1.6
 (optional=templinst)_ZN3pcl6search6OctreeINS_13InterestPointENS_6octree26OctreeContainerDataTVectorIiEENS3_20OctreeContainerEmptyIiEENS3_10OctreeBaseIiS5_S7_EEED1Ev@Base 1.6
 (optional=templinst)_ZN3pcl6search6OctreeINS_13InterestPointENS_6octree26OctreeContainerDataTVectorIiEENS3_20OctreeContainerEmptyIiEENS3_10OctreeBaseIiS5_S7_EEED2Ev@Base 1.6
 (optional=templinst)_ZN3pcl6search6OctreeINS_14PointWithRangeENS_6octree26OctreeContainerDataTVectorIiEENS3_20OctreeContainerEmptyIiEENS3_10OctreeBaseIiS5_S7_EEE13setInputCloudERKN5boost10shared_ptrIKNS_10PointCloudIS2_EEEE@Base 1.6
 (optional=templinst)_ZN3pcl6search6OctreeINS_14PointWithRangeENS_6octree26OctreeContainerDataTVectorIiEENS3_20OctreeContainerEmptyIiEENS3_10OctreeBaseIiS5_S7_EEE13setInputCloudERKN5boost10shared_ptrIKNS_10PointCloudIS2_EEEERKNSC_IKSt6vectorIiSaIiEEEE@Base 1.6
 (optional=templinst)_ZN3pcl6search6OctreeINS_14PointWithRangeENS_6octree26OctreeContainerDataTVectorIiEENS3_20OctreeContainerEmptyIiEENS3_10OctreeBaseIiS5_S7_EEE19approxNearestSearchERKN5boost10shared_ptrIKNS_10PointCloudIS2_EEEEiRiRf@Base 1.6
 (optional=templinst)_ZN3pcl6search6OctreeINS_14PointWithRangeENS_6octree26OctreeContainerDataTVectorIiEENS3_20OctreeContainerEmptyIiEENS3_10OctreeBaseIiS5_S7_EEE19approxNearestSearchERKS2_RiRf@Base 1.6
 (optional=templinst)_ZN3pcl6search6OctreeINS_14PointWithRangeENS_6octree26OctreeContainerDataTVectorIiEENS3_20OctreeContainerEmptyIiEENS3_10OctreeBaseIiS5_S7_EEE19approxNearestSearchEiRiRf@Base 1.6
 (optional=templinst)_ZN3pcl6search6OctreeINS_14PointWithRangeENS_6octree26OctreeContainerDataTVectorIiEENS3_20OctreeContainerEmptyIiEENS3_10OctreeBaseIiS5_S7_EEEC1Ed@Base 1.6
 (optional=templinst)_ZN3pcl6search6OctreeINS_14PointWithRangeENS_6octree26OctreeContainerDataTVectorIiEENS3_20OctreeContainerEmptyIiEENS3_10OctreeBaseIiS5_S7_EEEC2Ed@Base 1.6
 (optional=templinst)_ZN3pcl6search6OctreeINS_14PointWithRangeENS_6octree26OctreeContainerDataTVectorIiEENS3_20OctreeContainerEmptyIiEENS3_10OctreeBaseIiS5_S7_EEED0Ev@Base 1.6
 (optional=templinst)_ZN3pcl6search6OctreeINS_14PointWithRangeENS_6octree26OctreeContainerDataTVectorIiEENS3_20OctreeContainerEmptyIiEENS3_10OctreeBaseIiS5_S7_EEED1Ev@Base 1.6
 (optional=templinst)_ZN3pcl6search6OctreeINS_14PointWithRangeENS_6octree26OctreeContainerDataTVectorIiEENS3_20OctreeContainerEmptyIiEENS3_10OctreeBaseIiS5_S7_EEED2Ev@Base 1.6
 (optional=templinst)_ZN3pcl6search6OctreeINS_14PointWithScaleENS_6octree26OctreeContainerDataTVectorIiEENS3_20OctreeContainerEmptyIiEENS3_10OctreeBaseIiS5_S7_EEE13setInputCloudERKN5boost10shared_ptrIKNS_10PointCloudIS2_EEEE@Base 1.6
 (optional=templinst)_ZN3pcl6search6OctreeINS_14PointWithScaleENS_6octree26OctreeContainerDataTVectorIiEENS3_20OctreeContainerEmptyIiEENS3_10OctreeBaseIiS5_S7_EEE13setInputCloudERKN5boost10shared_ptrIKNS_10PointCloudIS2_EEEERKNSC_IKSt6vectorIiSaIiEEEE@Base 1.6
 (optional=templinst)_ZN3pcl6search6OctreeINS_14PointWithScaleENS_6octree26OctreeContainerDataTVectorIiEENS3_20OctreeContainerEmptyIiEENS3_10OctreeBaseIiS5_S7_EEE19approxNearestSearchERKN5boost10shared_ptrIKNS_10PointCloudIS2_EEEEiRiRf@Base 1.6
 (optional=templinst)_ZN3pcl6search6OctreeINS_14PointWithScaleENS_6octree26OctreeContainerDataTVectorIiEENS3_20OctreeContainerEmptyIiEENS3_10OctreeBaseIiS5_S7_EEE19approxNearestSearchERKS2_RiRf@Base 1.6
 (optional=templinst)_ZN3pcl6search6OctreeINS_14PointWithScaleENS_6octree26OctreeContainerDataTVectorIiEENS3_20OctreeContainerEmptyIiEENS3_10OctreeBaseIiS5_S7_EEE19approxNearestSearchEiRiRf@Base 1.6
 (optional=templinst)_ZN3pcl6search6OctreeINS_14PointWithScaleENS_6octree26OctreeContainerDataTVectorIiEENS3_20OctreeContainerEmptyIiEENS3_10OctreeBaseIiS5_S7_EEEC1Ed@Base 1.6
 (optional=templinst)_ZN3pcl6search6OctreeINS_14PointWithScaleENS_6octree26OctreeContainerDataTVectorIiEENS3_20OctreeContainerEmptyIiEENS3_10OctreeBaseIiS5_S7_EEEC2Ed@Base 1.6
 (optional=templinst)_ZN3pcl6search6OctreeINS_14PointWithScaleENS_6octree26OctreeContainerDataTVectorIiEENS3_20OctreeContainerEmptyIiEENS3_10OctreeBaseIiS5_S7_EEED0Ev@Base 1.6
 (optional=templinst)_ZN3pcl6search6OctreeINS_14PointWithScaleENS_6octree26OctreeContainerDataTVectorIiEENS3_20OctreeContainerEmptyIiEENS3_10OctreeBaseIiS5_S7_EEED1Ev@Base 1.6
 (optional=templinst)_ZN3pcl6search6OctreeINS_14PointWithScaleENS_6octree26OctreeContainerDataTVectorIiEENS3_20OctreeContainerEmptyIiEENS3_10OctreeBaseIiS5_S7_EEED2Ev@Base 1.6
 (optional=templinst)_ZN3pcl6search6OctreeINS_15PointXYZINormalENS_6octree26OctreeContainerDataTVectorIiEENS3_20OctreeContainerEmptyIiEENS3_10OctreeBaseIiS5_S7_EEE13setInputCloudERKN5boost10shared_ptrIKNS_10PointCloudIS2_EEEE@Base 1.6
 (optional=templinst)_ZN3pcl6search6OctreeINS_15PointXYZINormalENS_6octree26OctreeContainerDataTVectorIiEENS3_20OctreeContainerEmptyIiEENS3_10OctreeBaseIiS5_S7_EEE13setInputCloudERKN5boost10shared_ptrIKNS_10PointCloudIS2_EEEERKNSC_IKSt6vectorIiSaIiEEEE@Base 1.6
 (optional=templinst)_ZN3pcl6search6OctreeINS_15PointXYZINormalENS_6octree26OctreeContainerDataTVectorIiEENS3_20OctreeContainerEmptyIiEENS3_10OctreeBaseIiS5_S7_EEE19approxNearestSearchERKN5boost10shared_ptrIKNS_10PointCloudIS2_EEEEiRiRf@Base 1.6
 (optional=templinst)_ZN3pcl6search6OctreeINS_15PointXYZINormalENS_6octree26OctreeContainerDataTVectorIiEENS3_20OctreeContainerEmptyIiEENS3_10OctreeBaseIiS5_S7_EEE19approxNearestSearchERKS2_RiRf@Base 1.6
 (optional=templinst)_ZN3pcl6search6OctreeINS_15PointXYZINormalENS_6octree26OctreeContainerDataTVectorIiEENS3_20OctreeContainerEmptyIiEENS3_10OctreeBaseIiS5_S7_EEE19approxNearestSearchEiRiRf@Base 1.6
 (optional=templinst)_ZN3pcl6search6OctreeINS_15PointXYZINormalENS_6octree26OctreeContainerDataTVectorIiEENS3_20OctreeContainerEmptyIiEENS3_10OctreeBaseIiS5_S7_EEEC1Ed@Base 1.6
 (optional=templinst)_ZN3pcl6search6OctreeINS_15PointXYZINormalENS_6octree26OctreeContainerDataTVectorIiEENS3_20OctreeContainerEmptyIiEENS3_10OctreeBaseIiS5_S7_EEEC2Ed@Base 1.6
 (optional=templinst)_ZN3pcl6search6OctreeINS_15PointXYZINormalENS_6octree26OctreeContainerDataTVectorIiEENS3_20OctreeContainerEmptyIiEENS3_10OctreeBaseIiS5_S7_EEED0Ev@Base 1.6
 (optional=templinst)_ZN3pcl6search6OctreeINS_15PointXYZINormalENS_6octree26OctreeContainerDataTVectorIiEENS3_20OctreeContainerEmptyIiEENS3_10OctreeBaseIiS5_S7_EEED1Ev@Base 1.6
 (optional=templinst)_ZN3pcl6search6OctreeINS_15PointXYZINormalENS_6octree26OctreeContainerDataTVectorIiEENS3_20OctreeContainerEmptyIiEENS3_10OctreeBaseIiS5_S7_EEED2Ev@Base 1.6
 (optional=templinst)_ZN3pcl6search6OctreeINS_17PointXYZRGBNormalENS_6octree26OctreeContainerDataTVectorIiEENS3_20OctreeContainerEmptyIiEENS3_10OctreeBaseIiS5_S7_EEE13setInputCloudERKN5boost10shared_ptrIKNS_10PointCloudIS2_EEEE@Base 1.6
 (optional=templinst)_ZN3pcl6search6OctreeINS_17PointXYZRGBNormalENS_6octree26OctreeContainerDataTVectorIiEENS3_20OctreeContainerEmptyIiEENS3_10OctreeBaseIiS5_S7_EEE13setInputCloudERKN5boost10shared_ptrIKNS_10PointCloudIS2_EEEERKNSC_IKSt6vectorIiSaIiEEEE@Base 1.6
 (optional=templinst)_ZN3pcl6search6OctreeINS_17PointXYZRGBNormalENS_6octree26OctreeContainerDataTVectorIiEENS3_20OctreeContainerEmptyIiEENS3_10OctreeBaseIiS5_S7_EEE19approxNearestSearchERKN5boost10shared_ptrIKNS_10PointCloudIS2_EEEEiRiRf@Base 1.6
 (optional=templinst)_ZN3pcl6search6OctreeINS_17PointXYZRGBNormalENS_6octree26OctreeContainerDataTVectorIiEENS3_20OctreeContainerEmptyIiEENS3_10OctreeBaseIiS5_S7_EEE19approxNearestSearchERKS2_RiRf@Base 1.6
 (optional=templinst)_ZN3pcl6search6OctreeINS_17PointXYZRGBNormalENS_6octree26OctreeContainerDataTVectorIiEENS3_20OctreeContainerEmptyIiEENS3_10OctreeBaseIiS5_S7_EEE19approxNearestSearchEiRiRf@Base 1.6
 (optional=templinst)_ZN3pcl6search6OctreeINS_17PointXYZRGBNormalENS_6octree26OctreeContainerDataTVectorIiEENS3_20OctreeContainerEmptyIiEENS3_10OctreeBaseIiS5_S7_EEEC1Ed@Base 1.6
 (optional=templinst)_ZN3pcl6search6OctreeINS_17PointXYZRGBNormalENS_6octree26OctreeContainerDataTVectorIiEENS3_20OctreeContainerEmptyIiEENS3_10OctreeBaseIiS5_S7_EEEC2Ed@Base 1.6
 (optional=templinst)_ZN3pcl6search6OctreeINS_17PointXYZRGBNormalENS_6octree26OctreeContainerDataTVectorIiEENS3_20OctreeContainerEmptyIiEENS3_10OctreeBaseIiS5_S7_EEED0Ev@Base 1.6
 (optional=templinst)_ZN3pcl6search6OctreeINS_17PointXYZRGBNormalENS_6octree26OctreeContainerDataTVectorIiEENS3_20OctreeContainerEmptyIiEENS3_10OctreeBaseIiS5_S7_EEED1Ev@Base 1.6
 (optional=templinst)_ZN3pcl6search6OctreeINS_17PointXYZRGBNormalENS_6octree26OctreeContainerDataTVectorIiEENS3_20OctreeContainerEmptyIiEENS3_10OctreeBaseIiS5_S7_EEED2Ev@Base 1.6
 (optional=templinst)_ZN3pcl6search6OctreeINS_18PointWithViewpointENS_6octree26OctreeContainerDataTVectorIiEENS3_20OctreeContainerEmptyIiEENS3_10OctreeBaseIiS5_S7_EEE13setInputCloudERKN5boost10shared_ptrIKNS_10PointCloudIS2_EEEE@Base 1.6
 (optional=templinst)_ZN3pcl6search6OctreeINS_18PointWithViewpointENS_6octree26OctreeContainerDataTVectorIiEENS3_20OctreeContainerEmptyIiEENS3_10OctreeBaseIiS5_S7_EEE13setInputCloudERKN5boost10shared_ptrIKNS_10PointCloudIS2_EEEERKNSC_IKSt6vectorIiSaIiEEEE@Base 1.6
 (optional=templinst)_ZN3pcl6search6OctreeINS_18PointWithViewpointENS_6octree26OctreeContainerDataTVectorIiEENS3_20OctreeContainerEmptyIiEENS3_10OctreeBaseIiS5_S7_EEE19approxNearestSearchERKN5boost10shared_ptrIKNS_10PointCloudIS2_EEEEiRiRf@Base 1.6
 (optional=templinst)_ZN3pcl6search6OctreeINS_18PointWithViewpointENS_6octree26OctreeContainerDataTVectorIiEENS3_20OctreeContainerEmptyIiEENS3_10OctreeBaseIiS5_S7_EEE19approxNearestSearchERKS2_RiRf@Base 1.6
 (optional=templinst)_ZN3pcl6search6OctreeINS_18PointWithViewpointENS_6octree26OctreeContainerDataTVectorIiEENS3_20OctreeContainerEmptyIiEENS3_10OctreeBaseIiS5_S7_EEE19approxNearestSearchEiRiRf@Base 1.6
 (optional=templinst)_ZN3pcl6search6OctreeINS_18PointWithViewpointENS_6octree26OctreeContainerDataTVectorIiEENS3_20OctreeContainerEmptyIiEENS3_10OctreeBaseIiS5_S7_EEEC1Ed@Base 1.6
 (optional=templinst)_ZN3pcl6search6OctreeINS_18PointWithViewpointENS_6octree26OctreeContainerDataTVectorIiEENS3_20OctreeContainerEmptyIiEENS3_10OctreeBaseIiS5_S7_EEEC2Ed@Base 1.6
 (optional=templinst)_ZN3pcl6search6OctreeINS_18PointWithViewpointENS_6octree26OctreeContainerDataTVectorIiEENS3_20OctreeContainerEmptyIiEENS3_10OctreeBaseIiS5_S7_EEED0Ev@Base 1.6
 (optional=templinst)_ZN3pcl6search6OctreeINS_18PointWithViewpointENS_6octree26OctreeContainerDataTVectorIiEENS3_20OctreeContainerEmptyIiEENS3_10OctreeBaseIiS5_S7_EEED1Ev@Base 1.6
 (optional=templinst)_ZN3pcl6search6OctreeINS_18PointWithViewpointENS_6octree26OctreeContainerDataTVectorIiEENS3_20OctreeContainerEmptyIiEENS3_10OctreeBaseIiS5_S7_EEED2Ev@Base 1.6
 (optional=templinst)_ZN3pcl6search6OctreeINS_8PointXYZENS_6octree26OctreeContainerDataTVectorIiEENS3_20OctreeContainerEmptyIiEENS3_10OctreeBaseIiS5_S7_EEE13setInputCloudERKN5boost10shared_ptrIKNS_10PointCloudIS2_EEEE@Base 1.6
 (optional=templinst)_ZN3pcl6search6OctreeINS_8PointXYZENS_6octree26OctreeContainerDataTVectorIiEENS3_20OctreeContainerEmptyIiEENS3_10OctreeBaseIiS5_S7_EEE13setInputCloudERKN5boost10shared_ptrIKNS_10PointCloudIS2_EEEERKNSC_IKSt6vectorIiSaIiEEEE@Base 1.6
 (optional=templinst)_ZN3pcl6search6OctreeINS_8PointXYZENS_6octree26OctreeContainerDataTVectorIiEENS3_20OctreeContainerEmptyIiEENS3_10OctreeBaseIiS5_S7_EEE19approxNearestSearchERKN5boost10shared_ptrIKNS_10PointCloudIS2_EEEEiRiRf@Base 1.6
 (optional=templinst)_ZN3pcl6search6OctreeINS_8PointXYZENS_6octree26OctreeContainerDataTVectorIiEENS3_20OctreeContainerEmptyIiEENS3_10OctreeBaseIiS5_S7_EEE19approxNearestSearchERKS2_RiRf@Base 1.6
 (optional=templinst)_ZN3pcl6search6OctreeINS_8PointXYZENS_6octree26OctreeContainerDataTVectorIiEENS3_20OctreeContainerEmptyIiEENS3_10OctreeBaseIiS5_S7_EEE19approxNearestSearchEiRiRf@Base 1.6
 (optional=templinst)_ZN3pcl6search6OctreeINS_8PointXYZENS_6octree26OctreeContainerDataTVectorIiEENS3_20OctreeContainerEmptyIiEENS3_10OctreeBaseIiS5_S7_EEEC1Ed@Base 1.6
 (optional=templinst)_ZN3pcl6search6OctreeINS_8PointXYZENS_6octree26OctreeContainerDataTVectorIiEENS3_20OctreeContainerEmptyIiEENS3_10OctreeBaseIiS5_S7_EEEC2Ed@Base 1.6
 (optional=templinst)_ZN3pcl6search6OctreeINS_8PointXYZENS_6octree26OctreeContainerDataTVectorIiEENS3_20OctreeContainerEmptyIiEENS3_10OctreeBaseIiS5_S7_EEED0Ev@Base 1.6
 (optional=templinst)_ZN3pcl6search6OctreeINS_8PointXYZENS_6octree26OctreeContainerDataTVectorIiEENS3_20OctreeContainerEmptyIiEENS3_10OctreeBaseIiS5_S7_EEED1Ev@Base 1.6
 (optional=templinst)_ZN3pcl6search6OctreeINS_8PointXYZENS_6octree26OctreeContainerDataTVectorIiEENS3_20OctreeContainerEmptyIiEENS3_10OctreeBaseIiS5_S7_EEED2Ev@Base 1.6
 (optional=templinst)_ZN3pcl6search6OctreeINS_9PointXYZIENS_6octree26OctreeContainerDataTVectorIiEENS3_20OctreeContainerEmptyIiEENS3_10OctreeBaseIiS5_S7_EEE13setInputCloudERKN5boost10shared_ptrIKNS_10PointCloudIS2_EEEE@Base 1.6
 (optional=templinst)_ZN3pcl6search6OctreeINS_9PointXYZIENS_6octree26OctreeContainerDataTVectorIiEENS3_20OctreeContainerEmptyIiEENS3_10OctreeBaseIiS5_S7_EEE13setInputCloudERKN5boost10shared_ptrIKNS_10PointCloudIS2_EEEERKNSC_IKSt6vectorIiSaIiEEEE@Base 1.6
 (optional=templinst)_ZN3pcl6search6OctreeINS_9PointXYZIENS_6octree26OctreeContainerDataTVectorIiEENS3_20OctreeContainerEmptyIiEENS3_10OctreeBaseIiS5_S7_EEE19approxNearestSearchERKN5boost10shared_ptrIKNS_10PointCloudIS2_EEEEiRiRf@Base 1.6
 (optional=templinst)_ZN3pcl6search6OctreeINS_9PointXYZIENS_6octree26OctreeContainerDataTVectorIiEENS3_20OctreeContainerEmptyIiEENS3_10OctreeBaseIiS5_S7_EEE19approxNearestSearchERKS2_RiRf@Base 1.6
 (optional=templinst)_ZN3pcl6search6OctreeINS_9PointXYZIENS_6octree26OctreeContainerDataTVectorIiEENS3_20OctreeContainerEmptyIiEENS3_10OctreeBaseIiS5_S7_EEE19approxNearestSearchEiRiRf@Base 1.6
 (optional=templinst)_ZN3pcl6search6OctreeINS_9PointXYZIENS_6octree26OctreeContainerDataTVectorIiEENS3_20OctreeContainerEmptyIiEENS3_10OctreeBaseIiS5_S7_EEEC1Ed@Base 1.6
 (optional=templinst)_ZN3pcl6search6OctreeINS_9PointXYZIENS_6octree26OctreeContainerDataTVectorIiEENS3_20OctreeContainerEmptyIiEENS3_10OctreeBaseIiS5_S7_EEEC2Ed@Base 1.6
 (optional=templinst)_ZN3pcl6search6OctreeINS_9PointXYZIENS_6octree26OctreeContainerDataTVectorIiEENS3_20OctreeContainerEmptyIiEENS3_10OctreeBaseIiS5_S7_EEED0Ev@Base 1.6
 (optional=templinst)_ZN3pcl6search6OctreeINS_9PointXYZIENS_6octree26OctreeContainerDataTVectorIiEENS3_20OctreeContainerEmptyIiEENS3_10OctreeBaseIiS5_S7_EEED1Ev@Base 1.6
 (optional=templinst)_ZN3pcl6search6OctreeINS_9PointXYZIENS_6octree26OctreeContainerDataTVectorIiEENS3_20OctreeContainerEmptyIiEENS3_10OctreeBaseIiS5_S7_EEED2Ev@Base 1.6
 (optional=templinst)_ZN3pcl6search6OctreeINS_9PointXYZLENS_6octree26OctreeContainerDataTVectorIiEENS3_20OctreeContainerEmptyIiEENS3_10OctreeBaseIiS5_S7_EEE13setInputCloudERKN5boost10shared_ptrIKNS_10PointCloudIS2_EEEE@Base 1.6
 (optional=templinst)_ZN3pcl6search6OctreeINS_9PointXYZLENS_6octree26OctreeContainerDataTVectorIiEENS3_20OctreeContainerEmptyIiEENS3_10OctreeBaseIiS5_S7_EEE13setInputCloudERKN5boost10shared_ptrIKNS_10PointCloudIS2_EEEERKNSC_IKSt6vectorIiSaIiEEEE@Base 1.6
 (optional=templinst)_ZN3pcl6search6OctreeINS_9PointXYZLENS_6octree26OctreeContainerDataTVectorIiEENS3_20OctreeContainerEmptyIiEENS3_10OctreeBaseIiS5_S7_EEE19approxNearestSearchERKN5boost10shared_ptrIKNS_10PointCloudIS2_EEEEiRiRf@Base 1.6
 (optional=templinst)_ZN3pcl6search6OctreeINS_9PointXYZLENS_6octree26OctreeContainerDataTVectorIiEENS3_20OctreeContainerEmptyIiEENS3_10OctreeBaseIiS5_S7_EEE19approxNearestSearchERKS2_RiRf@Base 1.6
 (optional=templinst)_ZN3pcl6search6OctreeINS_9PointXYZLENS_6octree26OctreeContainerDataTVectorIiEENS3_20OctreeContainerEmptyIiEENS3_10OctreeBaseIiS5_S7_EEE19approxNearestSearchEiRiRf@Base 1.6
 (optional=templinst)_ZN3pcl6search6OctreeINS_9PointXYZLENS_6octree26OctreeContainerDataTVectorIiEENS3_20OctreeContainerEmptyIiEENS3_10OctreeBaseIiS5_S7_EEEC1Ed@Base 1.6
 (optional=templinst)_ZN3pcl6search6OctreeINS_9PointXYZLENS_6octree26OctreeContainerDataTVectorIiEENS3_20OctreeContainerEmptyIiEENS3_10OctreeBaseIiS5_S7_EEEC2Ed@Base 1.6
 (optional=templinst)_ZN3pcl6search6OctreeINS_9PointXYZLENS_6octree26OctreeContainerDataTVectorIiEENS3_20OctreeContainerEmptyIiEENS3_10OctreeBaseIiS5_S7_EEED0Ev@Base 1.6
 (optional=templinst)_ZN3pcl6search6OctreeINS_9PointXYZLENS_6octree26OctreeContainerDataTVectorIiEENS3_20OctreeContainerEmptyIiEENS3_10OctreeBaseIiS5_S7_EEED1Ev@Base 1.6
 (optional=templinst)_ZN3pcl6search6OctreeINS_9PointXYZLENS_6octree26OctreeContainerDataTVectorIiEENS3_20OctreeContainerEmptyIiEENS3_10OctreeBaseIiS5_S7_EEED2Ev@Base 1.6
 (optional=templinst)_ZN3pcl6search6SearchINS_11PointNormalEE13setInputCloudERKN5boost10shared_ptrIKNS_10PointCloudIS2_EEEERKNS5_IKSt6vectorIiSaIiEEEE@Base 1.6
 (optional=templinst)_ZN3pcl6search6SearchINS_11PointNormalEE16setSortedResultsEb@Base 1.6
 (optional=templinst)_ZN3pcl6search6SearchINS_11PointNormalEED0Ev@Base 1.6
 (optional=templinst)_ZN3pcl6search6SearchINS_11PointNormalEED1Ev@Base 1.6
 (optional=templinst)_ZN3pcl6search6SearchINS_11PointNormalEED2Ev@Base 1.6
 (optional=templinst)_ZN3pcl6search6SearchINS_11PointXYZHSVEE13setInputCloudERKN5boost10shared_ptrIKNS_10PointCloudIS2_EEEERKNS5_IKSt6vectorIiSaIiEEEE@Base 1.6
 (optional=templinst)_ZN3pcl6search6SearchINS_11PointXYZHSVEE16setSortedResultsEb@Base 1.6
 (optional=templinst)_ZN3pcl6search6SearchINS_11PointXYZHSVEED0Ev@Base 1.6
 (optional=templinst)_ZN3pcl6search6SearchINS_11PointXYZHSVEED1Ev@Base 1.6
 (optional=templinst)_ZN3pcl6search6SearchINS_11PointXYZHSVEED2Ev@Base 1.6
 (optional=templinst)_ZN3pcl6search6SearchINS_11PointXYZRGBEE13setInputCloudERKN5boost10shared_ptrIKNS_10PointCloudIS2_EEEERKNS5_IKSt6vectorIiSaIiEEEE@Base 1.6
 (optional=templinst)_ZN3pcl6search6SearchINS_11PointXYZRGBEE16setSortedResultsEb@Base 1.6
 (optional=templinst)_ZN3pcl6search6SearchINS_11PointXYZRGBEED0Ev@Base 1.6
 (optional=templinst)_ZN3pcl6search6SearchINS_11PointXYZRGBEED1Ev@Base 1.6
 (optional=templinst)_ZN3pcl6search6SearchINS_11PointXYZRGBEED2Ev@Base 1.6
 (optional=templinst)_ZN3pcl6search6SearchINS_12PPFSignatureEE13setInputCloudERKN5boost10shared_ptrIKNS_10PointCloudIS2_EEEERKNS5_IKSt6vectorIiSaIiEEEE@Base 1.6
 (optional=templinst)_ZN3pcl6search6SearchINS_12PPFSignatureEE16setSortedResultsEb@Base 1.6
 (optional=templinst)_ZN3pcl6search6SearchINS_12PPFSignatureEED0Ev@Base 1.6
 (optional=templinst)_ZN3pcl6search6SearchINS_12PPFSignatureEED1Ev@Base 1.6
 (optional=templinst)_ZN3pcl6search6SearchINS_12PPFSignatureEED2Ev@Base 1.6
 (optional=templinst)_ZN3pcl6search6SearchINS_12PointXYZRGBAEE13setInputCloudERKN5boost10shared_ptrIKNS_10PointCloudIS2_EEEERKNS5_IKSt6vectorIiSaIiEEEE@Base 1.6
 (optional=templinst)_ZN3pcl6search6SearchINS_12PointXYZRGBAEE16setSortedResultsEb@Base 1.6
 (optional=templinst)_ZN3pcl6search6SearchINS_12PointXYZRGBAEED0Ev@Base 1.6
 (optional=templinst)_ZN3pcl6search6SearchINS_12PointXYZRGBAEED1Ev@Base 1.6
 (optional=templinst)_ZN3pcl6search6SearchINS_12PointXYZRGBAEED2Ev@Base 1.6
 (optional=templinst)_ZN3pcl6search6SearchINS_12PointXYZRGBLEE13setInputCloudERKN5boost10shared_ptrIKNS_10PointCloudIS2_EEEERKNS5_IKSt6vectorIiSaIiEEEE@Base 1.6
 (optional=templinst)_ZN3pcl6search6SearchINS_12PointXYZRGBLEE16setSortedResultsEb@Base 1.6
 (optional=templinst)_ZN3pcl6search6SearchINS_12PointXYZRGBLEED0Ev@Base 1.6
 (optional=templinst)_ZN3pcl6search6SearchINS_12PointXYZRGBLEED1Ev@Base 1.6
 (optional=templinst)_ZN3pcl6search6SearchINS_12PointXYZRGBLEED2Ev@Base 1.6
 (optional=templinst)_ZN3pcl6search6SearchINS_13InterestPointEE13setInputCloudERKN5boost10shared_ptrIKNS_10PointCloudIS2_EEEERKNS5_IKSt6vectorIiSaIiEEEE@Base 1.6
 (optional=templinst)_ZN3pcl6search6SearchINS_13InterestPointEE16setSortedResultsEb@Base 1.6
 (optional=templinst)_ZN3pcl6search6SearchINS_13InterestPointEED0Ev@Base 1.6
 (optional=templinst)_ZN3pcl6search6SearchINS_13InterestPointEED1Ev@Base 1.6
 (optional=templinst)_ZN3pcl6search6SearchINS_13InterestPointEED2Ev@Base 1.6
 (optional=templinst)_ZN3pcl6search6SearchINS_14PointWithRangeEE13setInputCloudERKN5boost10shared_ptrIKNS_10PointCloudIS2_EEEERKNS5_IKSt6vectorIiSaIiEEEE@Base 1.6
 (optional=templinst)_ZN3pcl6search6SearchINS_14PointWithRangeEE16setSortedResultsEb@Base 1.6
 (optional=templinst)_ZN3pcl6search6SearchINS_14PointWithRangeEED0Ev@Base 1.6
 (optional=templinst)_ZN3pcl6search6SearchINS_14PointWithRangeEED1Ev@Base 1.6
 (optional=templinst)_ZN3pcl6search6SearchINS_14PointWithRangeEED2Ev@Base 1.6
 (optional=templinst)_ZN3pcl6search6SearchINS_14PointWithScaleEE13setInputCloudERKN5boost10shared_ptrIKNS_10PointCloudIS2_EEEERKNS5_IKSt6vectorIiSaIiEEEE@Base 1.6
 (optional=templinst)_ZN3pcl6search6SearchINS_14PointWithScaleEE16setSortedResultsEb@Base 1.6
 (optional=templinst)_ZN3pcl6search6SearchINS_14PointWithScaleEED0Ev@Base 1.6
 (optional=templinst)_ZN3pcl6search6SearchINS_14PointWithScaleEED1Ev@Base 1.6
 (optional=templinst)_ZN3pcl6search6SearchINS_14PointWithScaleEED2Ev@Base 1.6
 (optional=templinst)_ZN3pcl6search6SearchINS_14ReferenceFrameEE13setInputCloudERKN5boost10shared_ptrIKNS_10PointCloudIS2_EEEERKNS5_IKSt6vectorIiSaIiEEEE@Base 1.6
 (optional=templinst)_ZN3pcl6search6SearchINS_14ReferenceFrameEE16setSortedResultsEb@Base 1.6
 (optional=templinst)_ZN3pcl6search6SearchINS_14ReferenceFrameEED0Ev@Base 1.6
 (optional=templinst)_ZN3pcl6search6SearchINS_14ReferenceFrameEED1Ev@Base 1.6
 (optional=templinst)_ZN3pcl6search6SearchINS_14ReferenceFrameEED2Ev@Base 1.6
 (optional=templinst)_ZN3pcl6search6SearchINS_15ESFSignature640EE13setInputCloudERKN5boost10shared_ptrIKNS_10PointCloudIS2_EEEERKNS5_IKSt6vectorIiSaIiEEEE@Base 1.6
 (optional=templinst)_ZN3pcl6search6SearchINS_15ESFSignature640EE16setSortedResultsEb@Base 1.6
 (optional=templinst)_ZN3pcl6search6SearchINS_15ESFSignature640EED0Ev@Base 1.6
 (optional=templinst)_ZN3pcl6search6SearchINS_15ESFSignature640EED1Ev@Base 1.6
 (optional=templinst)_ZN3pcl6search6SearchINS_15ESFSignature640EED2Ev@Base 1.6
 (optional=templinst)_ZN3pcl6search6SearchINS_15FPFHSignature33EE13setInputCloudERKN5boost10shared_ptrIKNS_10PointCloudIS2_EEEERKNS5_IKSt6vectorIiSaIiEEEE@Base 1.6
 (optional=templinst)_ZN3pcl6search6SearchINS_15FPFHSignature33EE16setSortedResultsEb@Base 1.6
 (optional=templinst)_ZN3pcl6search6SearchINS_15FPFHSignature33EED0Ev@Base 1.6
 (optional=templinst)_ZN3pcl6search6SearchINS_15FPFHSignature33EED1Ev@Base 1.6
 (optional=templinst)_ZN3pcl6search6SearchINS_15FPFHSignature33EED2Ev@Base 1.6
 (optional=templinst)_ZN3pcl6search6SearchINS_15PFHSignature125EE13setInputCloudERKN5boost10shared_ptrIKNS_10PointCloudIS2_EEEERKNS5_IKSt6vectorIiSaIiEEEE@Base 1.6
 (optional=templinst)_ZN3pcl6search6SearchINS_15PFHSignature125EE16setSortedResultsEb@Base 1.6
 (optional=templinst)_ZN3pcl6search6SearchINS_15PFHSignature125EED0Ev@Base 1.6
 (optional=templinst)_ZN3pcl6search6SearchINS_15PFHSignature125EED1Ev@Base 1.6
 (optional=templinst)_ZN3pcl6search6SearchINS_15PFHSignature125EED2Ev@Base 1.6
 (optional=templinst)_ZN3pcl6search6SearchINS_15PPFRGBSignatureEE13setInputCloudERKN5boost10shared_ptrIKNS_10PointCloudIS2_EEEERKNS5_IKSt6vectorIiSaIiEEEE@Base 1.6
 (optional=templinst)_ZN3pcl6search6SearchINS_15PPFRGBSignatureEE16setSortedResultsEb@Base 1.6
 (optional=templinst)_ZN3pcl6search6SearchINS_15PPFRGBSignatureEED0Ev@Base 1.6
 (optional=templinst)_ZN3pcl6search6SearchINS_15PPFRGBSignatureEED1Ev@Base 1.6
 (optional=templinst)_ZN3pcl6search6SearchINS_15PPFRGBSignatureEED2Ev@Base 1.6
 (optional=templinst)_ZN3pcl6search6SearchINS_15PointXYZINormalEE13setInputCloudERKN5boost10shared_ptrIKNS_10PointCloudIS2_EEEERKNS5_IKSt6vectorIiSaIiEEEE@Base 1.6
 (optional=templinst)_ZN3pcl6search6SearchINS_15PointXYZINormalEE16setSortedResultsEb@Base 1.6
 (optional=templinst)_ZN3pcl6search6SearchINS_15PointXYZINormalEED0Ev@Base 1.6
 (optional=templinst)_ZN3pcl6search6SearchINS_15PointXYZINormalEED1Ev@Base 1.6
 (optional=templinst)_ZN3pcl6search6SearchINS_15PointXYZINormalEED2Ev@Base 1.6
 (optional=templinst)_ZN3pcl6search6SearchINS_15VFHSignature308EE13setInputCloudERKN5boost10shared_ptrIKNS_10PointCloudIS2_EEEERKNS5_IKSt6vectorIiSaIiEEEE@Base 1.6
 (optional=templinst)_ZN3pcl6search6SearchINS_15VFHSignature308EE16setSortedResultsEb@Base 1.6
 (optional=templinst)_ZN3pcl6search6SearchINS_15VFHSignature308EED0Ev@Base 1.6
 (optional=templinst)_ZN3pcl6search6SearchINS_15VFHSignature308EED1Ev@Base 1.6
 (optional=templinst)_ZN3pcl6search6SearchINS_15VFHSignature308EED2Ev@Base 1.6
 (optional=templinst)_ZN3pcl6search6SearchINS_16MomentInvariantsEE13setInputCloudERKN5boost10shared_ptrIKNS_10PointCloudIS2_EEEERKNS5_IKSt6vectorIiSaIiEEEE@Base 1.6
 (optional=templinst)_ZN3pcl6search6SearchINS_16MomentInvariantsEE16setSortedResultsEb@Base 1.6
 (optional=templinst)_ZN3pcl6search6SearchINS_16MomentInvariantsEED0Ev@Base 1.6
 (optional=templinst)_ZN3pcl6search6SearchINS_16MomentInvariantsEED1Ev@Base 1.6
 (optional=templinst)_ZN3pcl6search6SearchINS_16MomentInvariantsEED2Ev@Base 1.6
 (optional=templinst)_ZN3pcl6search6SearchINS_17IntensityGradientEE13setInputCloudERKN5boost10shared_ptrIKNS_10PointCloudIS2_EEEERKNS5_IKSt6vectorIiSaIiEEEE@Base 1.6
 (optional=templinst)_ZN3pcl6search6SearchINS_17IntensityGradientEE16setSortedResultsEb@Base 1.6
 (optional=templinst)_ZN3pcl6search6SearchINS_17IntensityGradientEED0Ev@Base 1.6
 (optional=templinst)_ZN3pcl6search6SearchINS_17IntensityGradientEED1Ev@Base 1.6
 (optional=templinst)_ZN3pcl6search6SearchINS_17IntensityGradientEED2Ev@Base 1.6
 (optional=templinst)_ZN3pcl6search6SearchINS_17PointXYZRGBNormalEE13setInputCloudERKN5boost10shared_ptrIKNS_10PointCloudIS2_EEEERKNS5_IKSt6vectorIiSaIiEEEE@Base 1.6
 (optional=templinst)_ZN3pcl6search6SearchINS_17PointXYZRGBNormalEE16setSortedResultsEb@Base 1.6
 (optional=templinst)_ZN3pcl6search6SearchINS_17PointXYZRGBNormalEED0Ev@Base 1.6
 (optional=templinst)_ZN3pcl6search6SearchINS_17PointXYZRGBNormalEED1Ev@Base 1.6
 (optional=templinst)_ZN3pcl6search6SearchINS_17PointXYZRGBNormalEED2Ev@Base 1.6
 (optional=templinst)_ZN3pcl6search6SearchINS_17PrincipalRadiiRSDEE13setInputCloudERKN5boost10shared_ptrIKNS_10PointCloudIS2_EEEERKNS5_IKSt6vectorIiSaIiEEEE@Base 1.6
 (optional=templinst)_ZN3pcl6search6SearchINS_17PrincipalRadiiRSDEE16setSortedResultsEb@Base 1.6
 (optional=templinst)_ZN3pcl6search6SearchINS_17PrincipalRadiiRSDEED0Ev@Base 1.6
 (optional=templinst)_ZN3pcl6search6SearchINS_17PrincipalRadiiRSDEED1Ev@Base 1.6
 (optional=templinst)_ZN3pcl6search6SearchINS_17PrincipalRadiiRSDEED2Ev@Base 1.6
 (optional=templinst)_ZN3pcl6search6SearchINS_18PFHRGBSignature250EE13setInputCloudERKN5boost10shared_ptrIKNS_10PointCloudIS2_EEEERKNS5_IKSt6vectorIiSaIiEEEE@Base 1.6
 (optional=templinst)_ZN3pcl6search6SearchINS_18PFHRGBSignature250EE16setSortedResultsEb@Base 1.6
 (optional=templinst)_ZN3pcl6search6SearchINS_18PFHRGBSignature250EED0Ev@Base 1.6
 (optional=templinst)_ZN3pcl6search6SearchINS_18PFHRGBSignature250EED1Ev@Base 1.6
 (optional=templinst)_ZN3pcl6search6SearchINS_18PFHRGBSignature250EED2Ev@Base 1.6
 (optional=templinst)_ZN3pcl6search6SearchINS_18PointWithViewpointEE13setInputCloudERKN5boost10shared_ptrIKNS_10PointCloudIS2_EEEERKNS5_IKSt6vectorIiSaIiEEEE@Base 1.6
 (optional=templinst)_ZN3pcl6search6SearchINS_18PointWithViewpointEE16setSortedResultsEb@Base 1.6
 (optional=templinst)_ZN3pcl6search6SearchINS_18PointWithViewpointEED0Ev@Base 1.6
 (optional=templinst)_ZN3pcl6search6SearchINS_18PointWithViewpointEED1Ev@Base 1.6
 (optional=templinst)_ZN3pcl6search6SearchINS_18PointWithViewpointEED2Ev@Base 1.6
 (optional=templinst)_ZN3pcl6search6SearchINS_19PrincipalCurvaturesEE13setInputCloudERKN5boost10shared_ptrIKNS_10PointCloudIS2_EEEERKNS5_IKSt6vectorIiSaIiEEEE@Base 1.6
 (optional=templinst)_ZN3pcl6search6SearchINS_19PrincipalCurvaturesEE16setSortedResultsEb@Base 1.6
 (optional=templinst)_ZN3pcl6search6SearchINS_19PrincipalCurvaturesEED0Ev@Base 1.6
 (optional=templinst)_ZN3pcl6search6SearchINS_19PrincipalCurvaturesEED1Ev@Base 1.6
 (optional=templinst)_ZN3pcl6search6SearchINS_19PrincipalCurvaturesEED2Ev@Base 1.6
 (optional=templinst)_ZN3pcl6search6SearchINS_22NormalBasedSignature12EE13setInputCloudERKN5boost10shared_ptrIKNS_10PointCloudIS2_EEEERKNS5_IKSt6vectorIiSaIiEEEE@Base 1.6
 (optional=templinst)_ZN3pcl6search6SearchINS_22NormalBasedSignature12EE16setSortedResultsEb@Base 1.6
 (optional=templinst)_ZN3pcl6search6SearchINS_22NormalBasedSignature12EED0Ev@Base 1.6
 (optional=templinst)_ZN3pcl6search6SearchINS_22NormalBasedSignature12EED1Ev@Base 1.6
 (optional=templinst)_ZN3pcl6search6SearchINS_22NormalBasedSignature12EED2Ev@Base 1.6
 (optional=templinst)_ZN3pcl6search6SearchINS_4AxisEE13setInputCloudERKN5boost10shared_ptrIKNS_10PointCloudIS2_EEEERKNS5_IKSt6vectorIiSaIiEEEE@Base 1.6
 (optional=templinst)_ZN3pcl6search6SearchINS_4AxisEE16setSortedResultsEb@Base 1.6
 (optional=templinst)_ZN3pcl6search6SearchINS_4AxisEED0Ev@Base 1.6
 (optional=templinst)_ZN3pcl6search6SearchINS_4AxisEED1Ev@Base 1.6
 (optional=templinst)_ZN3pcl6search6SearchINS_4AxisEED2Ev@Base 1.6
 (optional=templinst)_ZN3pcl6search6SearchINS_5LabelEE13setInputCloudERKN5boost10shared_ptrIKNS_10PointCloudIS2_EEEERKNS5_IKSt6vectorIiSaIiEEEE@Base 1.6
 (optional=templinst)_ZN3pcl6search6SearchINS_5LabelEE16setSortedResultsEb@Base 1.6
 (optional=templinst)_ZN3pcl6search6SearchINS_5LabelEED0Ev@Base 1.6
 (optional=templinst)_ZN3pcl6search6SearchINS_5LabelEED1Ev@Base 1.6
 (optional=templinst)_ZN3pcl6search6SearchINS_5LabelEED2Ev@Base 1.6
 (optional=templinst)_ZN3pcl6search6SearchINS_6Narf36EE13setInputCloudERKN5boost10shared_ptrIKNS_10PointCloudIS2_EEEERKNS5_IKSt6vectorIiSaIiEEEE@Base 1.6
 (optional=templinst)_ZN3pcl6search6SearchINS_6Narf36EE16setSortedResultsEb@Base 1.6
 (optional=templinst)_ZN3pcl6search6SearchINS_6Narf36EED0Ev@Base 1.6
 (optional=templinst)_ZN3pcl6search6SearchINS_6Narf36EED1Ev@Base 1.6
 (optional=templinst)_ZN3pcl6search6SearchINS_6Narf36EED2Ev@Base 1.6
 (optional=templinst)_ZN3pcl6search6SearchINS_6NormalEE13setInputCloudERKN5boost10shared_ptrIKNS_10PointCloudIS2_EEEERKNS5_IKSt6vectorIiSaIiEEEE@Base 1.6
 (optional=templinst)_ZN3pcl6search6SearchINS_6NormalEE16setSortedResultsEb@Base 1.6
 (optional=templinst)_ZN3pcl6search6SearchINS_6NormalEED0Ev@Base 1.6
 (optional=templinst)_ZN3pcl6search6SearchINS_6NormalEED1Ev@Base 1.6
 (optional=templinst)_ZN3pcl6search6SearchINS_6NormalEED2Ev@Base 1.6
 (optional=templinst)_ZN3pcl6search6SearchINS_7PointXYEE13setInputCloudERKN5boost10shared_ptrIKNS_10PointCloudIS2_EEEERKNS5_IKSt6vectorIiSaIiEEEE@Base 1.6
 (optional=templinst)_ZN3pcl6search6SearchINS_7PointXYEE16setSortedResultsEb@Base 1.6
 (optional=templinst)_ZN3pcl6search6SearchINS_7PointXYEED0Ev@Base 1.6
 (optional=templinst)_ZN3pcl6search6SearchINS_7PointXYEED1Ev@Base 1.6
 (optional=templinst)_ZN3pcl6search6SearchINS_7PointXYEED2Ev@Base 1.6
 (optional=templinst)_ZN3pcl6search6SearchINS_8BoundaryEE13setInputCloudERKN5boost10shared_ptrIKNS_10PointCloudIS2_EEEERKNS5_IKSt6vectorIiSaIiEEEE@Base 1.6
 (optional=templinst)_ZN3pcl6search6SearchINS_8BoundaryEE16setSortedResultsEb@Base 1.6
 (optional=templinst)_ZN3pcl6search6SearchINS_8BoundaryEED0Ev@Base 1.6
 (optional=templinst)_ZN3pcl6search6SearchINS_8BoundaryEED1Ev@Base 1.6
 (optional=templinst)_ZN3pcl6search6SearchINS_8BoundaryEED2Ev@Base 1.6
 (optional=templinst)_ZN3pcl6search6SearchINS_8PointXYZEE13setInputCloudERKN5boost10shared_ptrIKNS_10PointCloudIS2_EEEERKNS5_IKSt6vectorIiSaIiEEEE@Base 1.6
 (optional=templinst)_ZN3pcl6search6SearchINS_8PointXYZEE16setSortedResultsEb@Base 1.6
 (optional=templinst)_ZN3pcl6search6SearchINS_8PointXYZEED0Ev@Base 1.6
 (optional=templinst)_ZN3pcl6search6SearchINS_8PointXYZEED1Ev@Base 1.6
 (optional=templinst)_ZN3pcl6search6SearchINS_8PointXYZEED2Ev@Base 1.6
 (optional=templinst)_ZN3pcl6search6SearchINS_9PointXYZIEE13setInputCloudERKN5boost10shared_ptrIKNS_10PointCloudIS2_EEEERKNS5_IKSt6vectorIiSaIiEEEE@Base 1.6
 (optional=templinst)_ZN3pcl6search6SearchINS_9PointXYZIEE16setSortedResultsEb@Base 1.6
 (optional=templinst)_ZN3pcl6search6SearchINS_9PointXYZIEED0Ev@Base 1.6
 (optional=templinst)_ZN3pcl6search6SearchINS_9PointXYZIEED1Ev@Base 1.6
 (optional=templinst)_ZN3pcl6search6SearchINS_9PointXYZIEED2Ev@Base 1.6
 (optional=templinst)_ZN3pcl6search6SearchINS_9PointXYZLEE13setInputCloudERKN5boost10shared_ptrIKNS_10PointCloudIS2_EEEERKNS5_IKSt6vectorIiSaIiEEEE@Base 1.6
 (optional=templinst)_ZN3pcl6search6SearchINS_9PointXYZLEE16setSortedResultsEb@Base 1.6
 (optional=templinst)_ZN3pcl6search6SearchINS_9PointXYZLEED0Ev@Base 1.6
 (optional=templinst)_ZN3pcl6search6SearchINS_9PointXYZLEED1Ev@Base 1.6
 (optional=templinst)_ZN3pcl6search6SearchINS_9PointXYZLEED2Ev@Base 1.6
 (optional=templinst)_ZN5Eigen10MatrixBaseINS_5BlockINS_6MatrixIdLi12ELi12ELi1ELi12ELi12EEELin1ELin1ELb0ELb1EEEE25applyHouseholderOnTheLeftINS1_IKS3_Lin1ELi1ELb0ELb1EEEEEvRKT_RKdPd@Base 1.6
 (optional=templinst)_ZN5Eigen10MatrixBaseINS_5BlockINS_6MatrixIdLi12ELi12ELi1ELi12ELi12EEELin1ELin1ELb0ELb1EEEE26applyHouseholderOnTheRightINS1_IKS3_Lin1ELi1ELb0ELb1EEEEEvRKT_RKdPd@Base 1.6
 (optional=templinst)_ZN5Eigen14GeneralProductINS0_INS_9TransposeINS_5BlockINS_6MatrixIdLi12ELi12ELi1ELi12ELi12EEELi12ELi1ELb0ELb1EEEEES4_Li4EEES5_Li3EEC1ERKS7_RKS5_@Base 1.6
 (optional=templinst)_ZN5Eigen14GeneralProductINS0_INS_9TransposeINS_5BlockINS_6MatrixIdLi12ELi12ELi1ELi12ELi12EEELi12ELi1ELb0ELb1EEEEES4_Li4EEES5_Li3EEC2ERKS7_RKS5_@Base 1.6
 (optional=templinst)_ZN5Eigen14TriangularViewINS_6MatrixIdLi12ELi12ELi1ELi12ELi12EEELj10EE7setZeroEv@Base 1.6
 (optional=templinst)_ZN5Eigen17CoeffBasedProductINS_6MatrixIdLin1ELi1ELi0ELi12ELi1EEEKNS_9TransposeIKNS_5BlockIKNS1_IdLi12ELi12ELi1ELi12ELi12EEELin1ELi1ELb0ELb1EEEEELi256EEC1INS_12CwiseUnaryOpINS_8internal18scalar_multiple_opIdEEKNS_3MapIS2_Li0ENS_6StrideILi0ELi0EEEEEEES9_EERKT_RKT0_@Base 1.6
 (optional=templinst)_ZN5Eigen17CoeffBasedProductINS_6MatrixIdLin1ELi1ELi0ELi12ELi1EEEKNS_9TransposeIKNS_5BlockIKNS1_IdLi12ELi12ELi1ELi12ELi12EEELin1ELi1ELb0ELb1EEEEELi256EEC2INS_12CwiseUnaryOpINS_8internal18scalar_multiple_opIdEEKNS_3MapIS2_Li0ENS_6StrideILi0ELi0EEEEEEES9_EERKT_RKT0_@Base 1.6
 (optional=templinst)_ZN5Eigen22SelfAdjointEigenSolverINS_6MatrixIdLi12ELi12ELi1ELi12ELi12EEEE7computeERKS2_i@Base 1.6
 (optional=templinst)_ZN5Eigen7NoAliasINS_5BlockINS1_INS_6MatrixIdLi12ELi12ELi1ELi12ELi12EEELin1ELin1ELb0ELb1EEELin1ELin1ELb0ELb1EEENS_10MatrixBaseEEmIINS2_IdLin1ELi1ELi0ELi12ELi1EEEKNS_3MapINS2_IdLi1ELin1ELi1ELi1ELi12EEELi0ENS_6StrideILi0ELi0EEEEELi256EEERS5_RKNS_17CoeffBasedProductIT_T0_XT1_EEE@Base 1.6
 (optional=templinst)_ZN5Eigen7NoAliasINS_5BlockINS1_INS_6MatrixIdLi12ELi12ELi1ELi12ELi12EEELin1ELin1ELb0ELb1EEELin1ELin1ELb0ELb1EEENS_10MatrixBaseEEmIINS2_IdLin1ELi1ELi0ELi12ELi1EEEKNS_9TransposeIKNS1_IKS3_Lin1ELi1ELb0ELb1EEEEELi256EEERS5_RKNS_17CoeffBasedProductIT_T0_XT1_EEE@Base 1.6
 (optional=templinst)_ZN5Eigen8internal11assign_implINS_17SelfCwiseBinaryOpINS0_13scalar_sum_opIdEENS_3MapINS_6MatrixIdLi1ELin1ELi1ELi1ELi12EEELi0ENS_6StrideILi0ELi0EEEEENS_5BlockINSB_INS6_IdLi12ELi12ELi1ELi12ELi12EEELin1ELin1ELb0ELb1EEELi1ELin1ELb1ELb1EEEEESE_Li3ELi0ELi0EE3runERSF_RKSE_@Base 1.6
 (optional=templinst)_ZN5Eigen8internal11assign_implINS_17SelfCwiseBinaryOpINS0_17scalar_product_opIddEENS_5BlockINS_6MatrixIdLi12ELi12ELi1ELi12ELi12EEELin1ELin1ELb0ELb1EEENS_14CwiseNullaryOpINS0_18scalar_constant_opIdEENS6_IdLin1ELin1ELi1ELi12ELi12EEEEEEESD_Li4ELi0ELi0EE3runERSE_RKSD_@Base 1.6
 (optional=templinst)_ZN5Eigen8internal11assign_implINS_17SelfCwiseBinaryOpINS0_17scalar_product_opIddEENS_6MatrixIdLi12ELi1ELi0ELi12ELi1EEENS_14CwiseNullaryOpINS0_18scalar_constant_opIdEES6_EEEESA_Li4ELi0ELi0EE3runERSB_RKSA_@Base 1.6
 (optional=templinst)_ZN5Eigen8internal11assign_implINS_17SelfCwiseBinaryOpINS0_20scalar_difference_opIdEENS_5BlockINS5_INS_6MatrixIdLi12ELi12ELi1ELi12ELi12EEELin1ELin1ELb0ELb1EEELi1ELin1ELb1ELb1EEENS_12CwiseUnaryOpINS0_18scalar_multiple_opIdEEKNS_3MapINS6_IdLi1ELin1ELi1ELi1ELi12EEELi0ENS_6StrideILi0ELi0EEEEEEEEESJ_Li3ELi0ELi0EE3runERSK_RKSJ_@Base 1.6
 (optional=templinst)_ZN5Eigen8internal11assign_implINS_3MapINS_6MatrixIdLi1ELin1ELi1ELi1ELi12EEELi0ENS_6StrideILi0ELi0EEEEENS_17CoeffBasedProductIKNS_9TransposeIKNS_5BlockIKNS3_IdLi12ELi12ELi1ELi12ELi12EEELin1ELi1ELb0ELb1EEEEEKNSA_INSA_ISB_Lin1ELin1ELb0ELb1EEELin1ELin1ELb0ELb1EEELi6EEELi4ELi0ELi0EE3runERS7_RKSK_@Base 1.6
 (optional=templinst)_ZN5Eigen8internal11assign_implINS_3MapINS_6MatrixIdLin1ELi1ELi0ELi12ELi1EEELi0ENS_6StrideILi0ELi0EEEEENS_17CoeffBasedProductIKNS_5BlockINS9_INS3_IdLi12ELi12ELi1ELi12ELi12EEELin1ELin1ELb0ELb1EEELin1ELin1ELb0ELb1EEEKNS9_IKSA_Lin1ELi1ELb0ELb1EEELi6EEELi0ELi0ELi0EE3runERS7_RKSH_@Base 1.6
 (optional=templinst)_ZN5Eigen8internal11assign_implINS_6MatrixIdLi12ELi12ELi1ELi12ELi12EEENS_12CwiseUnaryOpINS0_19scalar_quotient1_opIdEEKS3_EELi2ELi1ELi0EE3runERS3_RKS8_@Base 1.6
 (optional=templinst)_ZN5Eigen8internal13gemv_selectorILi2ELi0ELb1EE3runINS_14GeneralProductINS_9TransposeIKNS_6MatrixIdLi12ELi12ELi1ELi12ELi12EEEEENS5_IKNS5_INS_5BlockIS7_Li12ELi1ELb0ELb1EEEEEEELi4EEENS5_INS6_IdLi1ELi12ELi1ELi1ELi12EEEEEEEvRKT_RT0_NSI_6ScalarE@Base 1.6
 _ZN5Eigen8internal14aligned_mallocEm@Base 1.6
 (optional=templinst)_ZN5Eigen8internal15assign_selectorINS_6MatrixIfLi3ELi3ELi1ELi3ELi3EEENS_5BlockINS2_IfLi3ELi4ELi1ELi3ELi4EEELi3ELi3ELb0ELb1EEELb0ELb0EE3runERS3_RKS6_@Base 1.6
 (optional=templinst)_ZN5Eigen8internal16setIdentity_implINS_6MatrixIdLi12ELi12ELi1ELi12ELi12EEELb1EE3runERS3_@Base 1.6
 _ZN5Eigen8internal19throw_std_bad_allocEv@Base 1.6
 (optional=templinst)_ZN5Eigen8internal26tridiagonalization_inplaceINS_6MatrixIdLi12ELi12ELi1ELi12ELi12EEENS2_IdLi11ELi1ELi0ELi11ELi1EEEEEvRT_RT0_@Base 1.6
 (optional=templinst)_ZN5Eigen8internal28aligned_stack_memory_handlerIdED1Ev@Base 1.6
 (optional=templinst)_ZN5Eigen8internal28aligned_stack_memory_handlerIdED2Ev@Base 1.6
 (optional=templinst)_ZN5Eigen8internal29general_matrix_vector_productIldLi0ELb0EdLb0ELi0EE3runEllPKdlS4_lPdld@Base 1.6
 (optional=templinst)_ZN5Eigen8internal30triangular_assignment_selectorINS_6MatrixIdLi12ELi12ELi1ELi12ELi12EEENS_14CwiseNullaryOpINS0_18scalar_constant_opIdEES3_EELj10ELi141ELb0EE3runERS3_RKS7_@Base 1.6
 (optional=templinst)_ZN5Eigen8internal33assign_innervec_CompleteUnrollingINS_6MatrixIdLi12ELi12ELi1ELi12ELi12EEENS_14CwiseNullaryOpINS0_18scalar_constant_opIdEES3_EELi102ELi144EE3runERS3_RKS7_@Base 1.6
 (optional=templinst)_ZN5Eigen8internal33assign_innervec_CompleteUnrollingINS_6MatrixIdLi12ELi12ELi1ELi12ELi12EEENS_14CwiseNullaryOpINS0_18scalar_constant_opIdEES3_EELi38ELi144EE3runERS3_RKS7_@Base 1.6
 (optional=templinst)_ZN5Eigen8internal33assign_innervec_CompleteUnrollingINS_6MatrixIdLi12ELi12ELi1ELi12ELi12EEENS_14CwiseNullaryOpINS0_18scalar_constant_opIdEES3_EELi6ELi144EE3runERS3_RKS7_@Base 1.6
 (optional=templinst)_ZN5Eigen8internal33assign_innervec_CompleteUnrollingINS_6MatrixIdLi12ELi12ELi1ELi12ELi12EEENS_14CwiseNullaryOpINS0_18scalar_constant_opIdEES3_EELi78ELi144EE3runERS3_RKS7_@Base 1.6
 (optional=templinst)_ZN5Eigen8internal33assign_innervec_CompleteUnrollingINS_6MatrixIdLi12ELi12ELi1ELi12ELi12EEES3_Li12ELi144EE3runERS3_RKS3_@Base 1.6
 (optional=templinst)_ZN5Eigen8internal33selfadjoint_matrix_vector_productIdlLi1ELi1ELb0ELb0ELi0EE3runElPKdlS4_lPdd@Base 1.6
 (optional=templinst)_ZN5Eigen8internal35tridiagonalization_inplace_selectorINS_6MatrixIdLi12ELi12ELi1ELi12ELi12EEELi12ELb0EE3runINS2_IdLi12ELi1ELi0ELi12ELi1EEENS2_IdLi11ELi1ELi0ELi11ELi1EEEEEvRS3_RT_RT0_b@Base 1.6
 (optional=templinst)_ZN5Eigen8internal40assign_LinearTraversal_CompleteUnrollingINS_17SelfCwiseBinaryOpINS0_17scalar_product_opIffEENS_6MatrixIfLi3ELi4ELi1ELi3ELi4EEENS_14CwiseNullaryOpINS0_18scalar_constant_opIfEES6_EEEESA_Li4ELi12EE3runERSB_RKSA_@Base 1.6
 (optional=templinst)_ZN5Eigen8internal40assign_LinearTraversal_CompleteUnrollingINS_6MatrixIdLi11ELi1ELi0ELi11ELi1EEENS_8DiagonalINS2_IdLi12ELi12ELi1ELi12ELi12EEELin1EEELi1ELi11EE3runERS3_RKS6_@Base 1.6
 (optional=templinst)_ZN5Eigen8internal40assign_LinearTraversal_CompleteUnrollingINS_6MatrixIdLi11ELi1ELi0ELi11ELi1EEENS_8DiagonalINS2_IdLi12ELi12ELi1ELi12ELi12EEELin1EEELi3ELi11EE3runERS3_RKS6_@Base 1.6
 (optional=templinst)_ZN5Eigen8internal40assign_LinearTraversal_CompleteUnrollingINS_6MatrixIdLi11ELi1ELi0ELi11ELi1EEENS_8DiagonalINS2_IdLi12ELi12ELi1ELi12ELi12EEELin1EEELi5ELi11EE3runERS3_RKS6_@Base 1.6
 (optional=templinst)_ZN5Eigen8internal40assign_LinearTraversal_CompleteUnrollingINS_6MatrixIdLi11ELi1ELi0ELi11ELi1EEENS_8DiagonalINS2_IdLi12ELi12ELi1ELi12ELi12EEELin1EEELi7ELi11EE3runERS3_RKS6_@Base 1.6
 (optional=templinst)_ZN5Eigen8internal41assign_DefaultTraversal_CompleteUnrollingINS_5BlockINS_6MatrixIdLi12ELi12ELi1ELi12ELi12EEELi4ELi4ELb0ELb1EEENS3_IdLi4ELi4ELi1ELi4ELi4EEELi0ELi16EE3runERS5_RKS6_@Base 1.6
 (optional=templinst)_ZN5Eigen8internal41assign_DefaultTraversal_CompleteUnrollingINS_5BlockINS_6MatrixIdLi12ELi12ELi1ELi12ELi12EEELi4ELi4ELb0ELb1EEENS3_IdLi4ELi4ELi1ELi4ELi4EEELi7ELi16EE3runERS5_RKS6_@Base 1.6
 (optional=templinst)_ZN5Eigen8internal41assign_DefaultTraversal_CompleteUnrollingINS_6MatrixIfLi3ELi1ELi0ELi3ELi1EEENS_17CoeffBasedProductIRKNS2_IfLi3ELi3ELi1ELi3ELi3EEEKNS_3MapIKS3_Li0ENS_6StrideILi0ELi0EEEEELi6EEELi0ELi3EE3runERS3_RKSE_@Base 1.6
 (optional=templinst)_ZN5Eigen8internal41assign_DefaultTraversal_CompleteUnrollingINS_6MatrixIfLi3ELi1ELi0ELi3ELi1EEENS_17CoeffBasedProductIRKNS2_IfLi3ELi3ELi1ELi3ELi3EEEKNS_3MapIKS3_Li0ENS_6StrideILi0ELi0EEEEELi6EEELi1ELi3EE3runERS3_RKSE_@Base 1.6
 (optional=templinst)_ZN5Eigen8internal41assign_DefaultTraversal_CompleteUnrollingINS_6MatrixIfLi3ELi3ELi0ELi3ELi3EEENS_17CoeffBasedProductIRKNS2_IfLi3ELi3ELi1ELi3ELi3EEEKNS_9TransposeIS5_EELi6EEELi2ELi9EE3runERS3_RKSB_@Base 1.6
 (optional=templinst)_ZN5Eigen8internal41assign_DefaultTraversal_CompleteUnrollingINS_6MatrixIfLi3ELi3ELi0ELi3ELi3EEENS_17CoeffBasedProductIRKNS2_IfLi3ELi3ELi1ELi3ELi3EEEKNS_9TransposeIS5_EELi6EEELi5ELi9EE3runERS3_RKSB_@Base 1.6
 (optional=templinst)_ZN5Eigen8internal41assign_DefaultTraversal_CompleteUnrollingINS_6MatrixIfLi3ELi3ELi0ELi3ELi3EEENS_17CoeffBasedProductIRKNS2_IfLi3ELi3ELi1ELi3ELi3EEEKNS_9TransposeIS5_EELi6EEELi7ELi9EE3runERS3_RKSB_@Base 1.6
 (optional=templinst)_ZN5Eigen9DenseBaseINS_8DiagonalINS_6MatrixIdLi12ELi12ELi1ELi12ELi12EEELi0EEEE7setOnesEv@Base 1.6
 (optional=templinst)_ZN5boost10shared_ptrIKN3pcl10PointCloudINS1_11PointNormalEEEED1Ev@Base 1.6
 (optional=templinst)_ZN5boost10shared_ptrIKN3pcl10PointCloudINS1_11PointNormalEEEED2Ev@Base 1.6
 (optional=templinst)_ZN5boost10shared_ptrIKN3pcl10PointCloudINS1_11PointXYZHSVEEEED1Ev@Base 1.6
 (optional=templinst)_ZN5boost10shared_ptrIKN3pcl10PointCloudINS1_11PointXYZHSVEEEED2Ev@Base 1.6
 (optional=templinst)_ZN5boost10shared_ptrIKN3pcl10PointCloudINS1_11PointXYZRGBEEEED1Ev@Base 1.6
 (optional=templinst)_ZN5boost10shared_ptrIKN3pcl10PointCloudINS1_11PointXYZRGBEEEED2Ev@Base 1.6
 (optional=templinst)_ZN5boost10shared_ptrIKN3pcl10PointCloudINS1_12PPFSignatureEEEED1Ev@Base 1.6
 (optional=templinst)_ZN5boost10shared_ptrIKN3pcl10PointCloudINS1_12PPFSignatureEEEED2Ev@Base 1.6
 (optional=templinst)_ZN5boost10shared_ptrIKN3pcl10PointCloudINS1_12PointXYZRGBAEEEED1Ev@Base 1.6
 (optional=templinst)_ZN5boost10shared_ptrIKN3pcl10PointCloudINS1_12PointXYZRGBAEEEED2Ev@Base 1.6
 (optional=templinst)_ZN5boost10shared_ptrIKN3pcl10PointCloudINS1_12PointXYZRGBLEEEED1Ev@Base 1.6
 (optional=templinst)_ZN5boost10shared_ptrIKN3pcl10PointCloudINS1_12PointXYZRGBLEEEED2Ev@Base 1.6
 (optional=templinst)_ZN5boost10shared_ptrIKN3pcl10PointCloudINS1_13InterestPointEEEED1Ev@Base 1.6
 (optional=templinst)_ZN5boost10shared_ptrIKN3pcl10PointCloudINS1_13InterestPointEEEED2Ev@Base 1.6
 (optional=templinst)_ZN5boost10shared_ptrIKN3pcl10PointCloudINS1_14PointWithRangeEEEED1Ev@Base 1.6
 (optional=templinst)_ZN5boost10shared_ptrIKN3pcl10PointCloudINS1_14PointWithRangeEEEED2Ev@Base 1.6
 (optional=templinst)_ZN5boost10shared_ptrIKN3pcl10PointCloudINS1_14PointWithScaleEEEED1Ev@Base 1.6
 (optional=templinst)_ZN5boost10shared_ptrIKN3pcl10PointCloudINS1_14PointWithScaleEEEED2Ev@Base 1.6
 (optional=templinst)_ZN5boost10shared_ptrIKN3pcl10PointCloudINS1_14ReferenceFrameEEEED1Ev@Base 1.6
 (optional=templinst)_ZN5boost10shared_ptrIKN3pcl10PointCloudINS1_14ReferenceFrameEEEED2Ev@Base 1.6
 (optional=templinst)_ZN5boost10shared_ptrIKN3pcl10PointCloudINS1_15ESFSignature640EEEED1Ev@Base 1.6
 (optional=templinst)_ZN5boost10shared_ptrIKN3pcl10PointCloudINS1_15ESFSignature640EEEED2Ev@Base 1.6
 (optional=templinst)_ZN5boost10shared_ptrIKN3pcl10PointCloudINS1_15FPFHSignature33EEEED1Ev@Base 1.6
 (optional=templinst)_ZN5boost10shared_ptrIKN3pcl10PointCloudINS1_15FPFHSignature33EEEED2Ev@Base 1.6
 (optional=templinst)_ZN5boost10shared_ptrIKN3pcl10PointCloudINS1_15PFHSignature125EEEED1Ev@Base 1.6
 (optional=templinst)_ZN5boost10shared_ptrIKN3pcl10PointCloudINS1_15PFHSignature125EEEED2Ev@Base 1.6
 (optional=templinst)_ZN5boost10shared_ptrIKN3pcl10PointCloudINS1_15PPFRGBSignatureEEEED1Ev@Base 1.6
 (optional=templinst)_ZN5boost10shared_ptrIKN3pcl10PointCloudINS1_15PPFRGBSignatureEEEED2Ev@Base 1.6
 (optional=templinst)_ZN5boost10shared_ptrIKN3pcl10PointCloudINS1_15PointXYZINormalEEEED1Ev@Base 1.6
 (optional=templinst)_ZN5boost10shared_ptrIKN3pcl10PointCloudINS1_15PointXYZINormalEEEED2Ev@Base 1.6
 (optional=templinst)_ZN5boost10shared_ptrIKN3pcl10PointCloudINS1_15VFHSignature308EEEED1Ev@Base 1.6
 (optional=templinst)_ZN5boost10shared_ptrIKN3pcl10PointCloudINS1_15VFHSignature308EEEED2Ev@Base 1.6
 (optional=templinst)_ZN5boost10shared_ptrIKN3pcl10PointCloudINS1_16MomentInvariantsEEEED1Ev@Base 1.6
 (optional=templinst)_ZN5boost10shared_ptrIKN3pcl10PointCloudINS1_16MomentInvariantsEEEED2Ev@Base 1.6
 (optional=templinst)_ZN5boost10shared_ptrIKN3pcl10PointCloudINS1_17IntensityGradientEEEED1Ev@Base 1.6
 (optional=templinst)_ZN5boost10shared_ptrIKN3pcl10PointCloudINS1_17IntensityGradientEEEED2Ev@Base 1.6
 (optional=templinst)_ZN5boost10shared_ptrIKN3pcl10PointCloudINS1_17PointXYZRGBNormalEEEED1Ev@Base 1.6
 (optional=templinst)_ZN5boost10shared_ptrIKN3pcl10PointCloudINS1_17PointXYZRGBNormalEEEED2Ev@Base 1.6
 (optional=templinst)_ZN5boost10shared_ptrIKN3pcl10PointCloudINS1_17PrincipalRadiiRSDEEEED1Ev@Base 1.6
 (optional=templinst)_ZN5boost10shared_ptrIKN3pcl10PointCloudINS1_17PrincipalRadiiRSDEEEED2Ev@Base 1.6
 (optional=templinst)_ZN5boost10shared_ptrIKN3pcl10PointCloudINS1_18PFHRGBSignature250EEEED1Ev@Base 1.6
 (optional=templinst)_ZN5boost10shared_ptrIKN3pcl10PointCloudINS1_18PFHRGBSignature250EEEED2Ev@Base 1.6
 (optional=templinst)_ZN5boost10shared_ptrIKN3pcl10PointCloudINS1_18PointWithViewpointEEEED1Ev@Base 1.6
 (optional=templinst)_ZN5boost10shared_ptrIKN3pcl10PointCloudINS1_18PointWithViewpointEEEED2Ev@Base 1.6
 (optional=templinst)_ZN5boost10shared_ptrIKN3pcl10PointCloudINS1_19PrincipalCurvaturesEEEED1Ev@Base 1.6
 (optional=templinst)_ZN5boost10shared_ptrIKN3pcl10PointCloudINS1_19PrincipalCurvaturesEEEED2Ev@Base 1.6
 (optional=templinst)_ZN5boost10shared_ptrIKN3pcl10PointCloudINS1_22NormalBasedSignature12EEEED1Ev@Base 1.6
 (optional=templinst)_ZN5boost10shared_ptrIKN3pcl10PointCloudINS1_22NormalBasedSignature12EEEED2Ev@Base 1.6
 (optional=templinst)_ZN5boost10shared_ptrIKN3pcl10PointCloudINS1_4AxisEEEED1Ev@Base 1.6
 (optional=templinst)_ZN5boost10shared_ptrIKN3pcl10PointCloudINS1_4AxisEEEED2Ev@Base 1.6
 (optional=templinst)_ZN5boost10shared_ptrIKN3pcl10PointCloudINS1_5LabelEEEED1Ev@Base 1.6
 (optional=templinst)_ZN5boost10shared_ptrIKN3pcl10PointCloudINS1_5LabelEEEED2Ev@Base 1.6
 (optional=templinst)_ZN5boost10shared_ptrIKN3pcl10PointCloudINS1_6Narf36EEEED1Ev@Base 1.6
 (optional=templinst)_ZN5boost10shared_ptrIKN3pcl10PointCloudINS1_6Narf36EEEED2Ev@Base 1.6
 (optional=templinst)_ZN5boost10shared_ptrIKN3pcl10PointCloudINS1_6NormalEEEED1Ev@Base 1.6
 (optional=templinst)_ZN5boost10shared_ptrIKN3pcl10PointCloudINS1_6NormalEEEED2Ev@Base 1.6
 (optional=templinst)_ZN5boost10shared_ptrIKN3pcl10PointCloudINS1_7PointXYEEEED1Ev@Base 1.6
 (optional=templinst)_ZN5boost10shared_ptrIKN3pcl10PointCloudINS1_7PointXYEEEED2Ev@Base 1.6
 (optional=templinst)_ZN5boost10shared_ptrIKN3pcl10PointCloudINS1_8BoundaryEEEED1Ev@Base 1.6
 (optional=templinst)_ZN5boost10shared_ptrIKN3pcl10PointCloudINS1_8BoundaryEEEED2Ev@Base 1.6
 (optional=templinst)_ZN5boost10shared_ptrIKN3pcl10PointCloudINS1_8PointXYZEEEED1Ev@Base 1.6
 (optional=templinst)_ZN5boost10shared_ptrIKN3pcl10PointCloudINS1_8PointXYZEEEED2Ev@Base 1.6
 (optional=templinst)_ZN5boost10shared_ptrIKN3pcl10PointCloudINS1_9PointXYZIEEEED1Ev@Base 1.6
 (optional=templinst)_ZN5boost10shared_ptrIKN3pcl10PointCloudINS1_9PointXYZIEEEED2Ev@Base 1.6
 (optional=templinst)_ZN5boost10shared_ptrIKN3pcl10PointCloudINS1_9PointXYZLEEEED1Ev@Base 1.6
 (optional=templinst)_ZN5boost10shared_ptrIKN3pcl10PointCloudINS1_9PointXYZLEEEED2Ev@Base 1.6
 (optional=templinst)_ZN5boost10shared_ptrIKSt6vectorIiSaIiEEED1Ev@Base 1.6
 (optional=templinst)_ZN5boost10shared_ptrIKSt6vectorIiSaIiEEED2Ev@Base 1.6
 (optional=templinst)_ZN5boost6detail12shared_countC1IN3pcl11KdTreeFLANNINS3_11PointNormalEN5flann9L2_SimpleIfEEEEEEPT_@Base 1.6
 (optional=templinst)_ZN5boost6detail12shared_countC1IN3pcl11KdTreeFLANNINS3_11PointXYZHSVEN5flann9L2_SimpleIfEEEEEEPT_@Base 1.6
 (optional=templinst)_ZN5boost6detail12shared_countC1IN3pcl11KdTreeFLANNINS3_11PointXYZRGBEN5flann9L2_SimpleIfEEEEEEPT_@Base 1.6
 (optional=templinst)_ZN5boost6detail12shared_countC1IN3pcl11KdTreeFLANNINS3_12PPFSignatureEN5flann9L2_SimpleIfEEEEEEPT_@Base 1.6
 (optional=templinst)_ZN5boost6detail12shared_countC1IN3pcl11KdTreeFLANNINS3_12PointXYZRGBAEN5flann9L2_SimpleIfEEEEEEPT_@Base 1.6
 (optional=templinst)_ZN5boost6detail12shared_countC1IN3pcl11KdTreeFLANNINS3_12PointXYZRGBLEN5flann9L2_SimpleIfEEEEEEPT_@Base 1.6
 (optional=templinst)_ZN5boost6detail12shared_countC1IN3pcl11KdTreeFLANNINS3_13InterestPointEN5flann9L2_SimpleIfEEEEEEPT_@Base 1.6
 (optional=templinst)_ZN5boost6detail12shared_countC1IN3pcl11KdTreeFLANNINS3_14PointWithRangeEN5flann9L2_SimpleIfEEEEEEPT_@Base 1.6
 (optional=templinst)_ZN5boost6detail12shared_countC1IN3pcl11KdTreeFLANNINS3_14PointWithScaleEN5flann9L2_SimpleIfEEEEEEPT_@Base 1.6
 (optional=templinst)_ZN5boost6detail12shared_countC1IN3pcl11KdTreeFLANNINS3_14ReferenceFrameEN5flann9L2_SimpleIfEEEEEEPT_@Base 1.6
 (optional=templinst)_ZN5boost6detail12shared_countC1IN3pcl11KdTreeFLANNINS3_15ESFSignature640EN5flann9L2_SimpleIfEEEEEEPT_@Base 1.6
 (optional=templinst)_ZN5boost6detail12shared_countC1IN3pcl11KdTreeFLANNINS3_15FPFHSignature33EN5flann9L2_SimpleIfEEEEEEPT_@Base 1.6
 (optional=templinst)_ZN5boost6detail12shared_countC1IN3pcl11KdTreeFLANNINS3_15PFHSignature125EN5flann9L2_SimpleIfEEEEEEPT_@Base 1.6
 (optional=templinst)_ZN5boost6detail12shared_countC1IN3pcl11KdTreeFLANNINS3_15PPFRGBSignatureEN5flann9L2_SimpleIfEEEEEEPT_@Base 1.6
 (optional=templinst)_ZN5boost6detail12shared_countC1IN3pcl11KdTreeFLANNINS3_15PointXYZINormalEN5flann9L2_SimpleIfEEEEEEPT_@Base 1.6
 (optional=templinst)_ZN5boost6detail12shared_countC1IN3pcl11KdTreeFLANNINS3_15VFHSignature308EN5flann9L2_SimpleIfEEEEEEPT_@Base 1.6
 (optional=templinst)_ZN5boost6detail12shared_countC1IN3pcl11KdTreeFLANNINS3_16MomentInvariantsEN5flann9L2_SimpleIfEEEEEEPT_@Base 1.6
 (optional=templinst)_ZN5boost6detail12shared_countC1IN3pcl11KdTreeFLANNINS3_17IntensityGradientEN5flann9L2_SimpleIfEEEEEEPT_@Base 1.6
 (optional=templinst)_ZN5boost6detail12shared_countC1IN3pcl11KdTreeFLANNINS3_17PointXYZRGBNormalEN5flann9L2_SimpleIfEEEEEEPT_@Base 1.6
 (optional=templinst)_ZN5boost6detail12shared_countC1IN3pcl11KdTreeFLANNINS3_17PrincipalRadiiRSDEN5flann9L2_SimpleIfEEEEEEPT_@Base 1.6
 (optional=templinst)_ZN5boost6detail12shared_countC1IN3pcl11KdTreeFLANNINS3_18PFHRGBSignature250EN5flann9L2_SimpleIfEEEEEEPT_@Base 1.6
 (optional=templinst)_ZN5boost6detail12shared_countC1IN3pcl11KdTreeFLANNINS3_18PointWithViewpointEN5flann9L2_SimpleIfEEEEEEPT_@Base 1.6
 (optional=templinst)_ZN5boost6detail12shared_countC1IN3pcl11KdTreeFLANNINS3_19PrincipalCurvaturesEN5flann9L2_SimpleIfEEEEEEPT_@Base 1.6
 (optional=templinst)_ZN5boost6detail12shared_countC1IN3pcl11KdTreeFLANNINS3_22NormalBasedSignature12EN5flann9L2_SimpleIfEEEEEEPT_@Base 1.6
 (optional=templinst)_ZN5boost6detail12shared_countC1IN3pcl11KdTreeFLANNINS3_4AxisEN5flann9L2_SimpleIfEEEEEEPT_@Base 1.6
 (optional=templinst)_ZN5boost6detail12shared_countC1IN3pcl11KdTreeFLANNINS3_5LabelEN5flann9L2_SimpleIfEEEEEEPT_@Base 1.6
 (optional=templinst)_ZN5boost6detail12shared_countC1IN3pcl11KdTreeFLANNINS3_6Narf36EN5flann9L2_SimpleIfEEEEEEPT_@Base 1.6
 (optional=templinst)_ZN5boost6detail12shared_countC1IN3pcl11KdTreeFLANNINS3_6NormalEN5flann9L2_SimpleIfEEEEEEPT_@Base 1.6
 (optional=templinst)_ZN5boost6detail12shared_countC1IN3pcl11KdTreeFLANNINS3_7PointXYEN5flann9L2_SimpleIfEEEEEEPT_@Base 1.6
 (optional=templinst)_ZN5boost6detail12shared_countC1IN3pcl11KdTreeFLANNINS3_8BoundaryEN5flann9L2_SimpleIfEEEEEEPT_@Base 1.6
 (optional=templinst)_ZN5boost6detail12shared_countC1IN3pcl11KdTreeFLANNINS3_8PointXYZEN5flann9L2_SimpleIfEEEEEEPT_@Base 1.6
 (optional=templinst)_ZN5boost6detail12shared_countC1IN3pcl11KdTreeFLANNINS3_9PointXYZIEN5flann9L2_SimpleIfEEEEEEPT_@Base 1.6
 (optional=templinst)_ZN5boost6detail12shared_countC1IN3pcl11KdTreeFLANNINS3_9PointXYZLEN5flann9L2_SimpleIfEEEEEEPT_@Base 1.6
 (optional=templinst)_ZN5boost6detail12shared_countC1IN3pcl26DefaultPointRepresentationINS3_11PointNormalEEEEEPT_@Base 1.6
 (optional=templinst)_ZN5boost6detail12shared_countC1IN3pcl26DefaultPointRepresentationINS3_11PointXYZHSVEEEEEPT_@Base 1.6
 (optional=templinst)_ZN5boost6detail12shared_countC1IN3pcl26DefaultPointRepresentationINS3_11PointXYZRGBEEEEEPT_@Base 1.6
 (optional=templinst)_ZN5boost6detail12shared_countC1IN3pcl26DefaultPointRepresentationINS3_12PPFSignatureEEEEEPT_@Base 1.6
 (optional=templinst)_ZN5boost6detail12shared_countC1IN3pcl26DefaultPointRepresentationINS3_12PointXYZRGBAEEEEEPT_@Base 1.6
 (optional=templinst)_ZN5boost6detail12shared_countC1IN3pcl26DefaultPointRepresentationINS3_12PointXYZRGBLEEEEEPT_@Base 1.6
 (optional=templinst)_ZN5boost6detail12shared_countC1IN3pcl26DefaultPointRepresentationINS3_13InterestPointEEEEEPT_@Base 1.6
 (optional=templinst)_ZN5boost6detail12shared_countC1IN3pcl26DefaultPointRepresentationINS3_14PointWithRangeEEEEEPT_@Base 1.6
 (optional=templinst)_ZN5boost6detail12shared_countC1IN3pcl26DefaultPointRepresentationINS3_14PointWithScaleEEEEEPT_@Base 1.6
 (optional=templinst)_ZN5boost6detail12shared_countC1IN3pcl26DefaultPointRepresentationINS3_14ReferenceFrameEEEEEPT_@Base 1.6
 (optional=templinst)_ZN5boost6detail12shared_countC1IN3pcl26DefaultPointRepresentationINS3_15ESFSignature640EEEEEPT_@Base 1.6
 (optional=templinst)_ZN5boost6detail12shared_countC1IN3pcl26DefaultPointRepresentationINS3_15FPFHSignature33EEEEEPT_@Base 1.6
 (optional=templinst)_ZN5boost6detail12shared_countC1IN3pcl26DefaultPointRepresentationINS3_15PFHSignature125EEEEEPT_@Base 1.6
 (optional=templinst)_ZN5boost6detail12shared_countC1IN3pcl26DefaultPointRepresentationINS3_15PPFRGBSignatureEEEEEPT_@Base 1.6
 (optional=templinst)_ZN5boost6detail12shared_countC1IN3pcl26DefaultPointRepresentationINS3_15PointXYZINormalEEEEEPT_@Base 1.6
 (optional=templinst)_ZN5boost6detail12shared_countC1IN3pcl26DefaultPointRepresentationINS3_15VFHSignature308EEEEEPT_@Base 1.6
 (optional=templinst)_ZN5boost6detail12shared_countC1IN3pcl26DefaultPointRepresentationINS3_16MomentInvariantsEEEEEPT_@Base 1.6
 (optional=templinst)_ZN5boost6detail12shared_countC1IN3pcl26DefaultPointRepresentationINS3_17IntensityGradientEEEEEPT_@Base 1.6
 (optional=templinst)_ZN5boost6detail12shared_countC1IN3pcl26DefaultPointRepresentationINS3_17PointXYZRGBNormalEEEEEPT_@Base 1.6
 (optional=templinst)_ZN5boost6detail12shared_countC1IN3pcl26DefaultPointRepresentationINS3_17PrincipalRadiiRSDEEEEEPT_@Base 1.6
 (optional=templinst)_ZN5boost6detail12shared_countC1IN3pcl26DefaultPointRepresentationINS3_18PFHRGBSignature250EEEEEPT_@Base 1.6
 (optional=templinst)_ZN5boost6detail12shared_countC1IN3pcl26DefaultPointRepresentationINS3_18PointWithViewpointEEEEEPT_@Base 1.6
 (optional=templinst)_ZN5boost6detail12shared_countC1IN3pcl26DefaultPointRepresentationINS3_19PrincipalCurvaturesEEEEEPT_@Base 1.6
 (optional=templinst)_ZN5boost6detail12shared_countC1IN3pcl26DefaultPointRepresentationINS3_22NormalBasedSignature12EEEEEPT_@Base 1.6
 (optional=templinst)_ZN5boost6detail12shared_countC1IN3pcl26DefaultPointRepresentationINS3_4AxisEEEEEPT_@Base 1.6
 (optional=templinst)_ZN5boost6detail12shared_countC1IN3pcl26DefaultPointRepresentationINS3_5LabelEEEEEPT_@Base 1.6
 (optional=templinst)_ZN5boost6detail12shared_countC1IN3pcl26DefaultPointRepresentationINS3_6Narf36EEEEEPT_@Base 1.6
 (optional=templinst)_ZN5boost6detail12shared_countC1IN3pcl26DefaultPointRepresentationINS3_6NormalEEEEEPT_@Base 1.6
 (optional=templinst)_ZN5boost6detail12shared_countC1IN3pcl26DefaultPointRepresentationINS3_7PointXYEEEEEPT_@Base 1.6
 (optional=templinst)_ZN5boost6detail12shared_countC1IN3pcl26DefaultPointRepresentationINS3_8BoundaryEEEEEPT_@Base 1.6
 (optional=templinst)_ZN5boost6detail12shared_countC1IN3pcl26DefaultPointRepresentationINS3_8PointXYZEEEEEPT_@Base 1.6
 (optional=templinst)_ZN5boost6detail12shared_countC1IN3pcl26DefaultPointRepresentationINS3_9PointXYZIEEEEEPT_@Base 1.6
 (optional=templinst)_ZN5boost6detail12shared_countC1IN3pcl26DefaultPointRepresentationINS3_9PointXYZLEEEEEPT_@Base 1.6
 (optional=templinst)_ZN5boost6detail12shared_countC1IN3pcl6octree22OctreePointCloudSearchINS3_11PointNormalENS4_26OctreeContainerDataTVectorIiEENS4_20OctreeContainerEmptyIiEEEEEEPT_@Base 1.6
 (optional=templinst)_ZN5boost6detail12shared_countC1IN3pcl6octree22OctreePointCloudSearchINS3_11PointXYZHSVENS4_26OctreeContainerDataTVectorIiEENS4_20OctreeContainerEmptyIiEEEEEEPT_@Base 1.6
 (optional=templinst)_ZN5boost6detail12shared_countC1IN3pcl6octree22OctreePointCloudSearchINS3_11PointXYZRGBENS4_26OctreeContainerDataTVectorIiEENS4_20OctreeContainerEmptyIiEEEEEEPT_@Base 1.6
 (optional=templinst)_ZN5boost6detail12shared_countC1IN3pcl6octree22OctreePointCloudSearchINS3_12PointXYZRGBAENS4_26OctreeContainerDataTVectorIiEENS4_20OctreeContainerEmptyIiEEEEEEPT_@Base 1.6
 (optional=templinst)_ZN5boost6detail12shared_countC1IN3pcl6octree22OctreePointCloudSearchINS3_12PointXYZRGBLENS4_26OctreeContainerDataTVectorIiEENS4_20OctreeContainerEmptyIiEEEEEEPT_@Base 1.6
 (optional=templinst)_ZN5boost6detail12shared_countC1IN3pcl6octree22OctreePointCloudSearchINS3_13InterestPointENS4_26OctreeContainerDataTVectorIiEENS4_20OctreeContainerEmptyIiEEEEEEPT_@Base 1.6
 (optional=templinst)_ZN5boost6detail12shared_countC1IN3pcl6octree22OctreePointCloudSearchINS3_14PointWithRangeENS4_26OctreeContainerDataTVectorIiEENS4_20OctreeContainerEmptyIiEEEEEEPT_@Base 1.6
 (optional=templinst)_ZN5boost6detail12shared_countC1IN3pcl6octree22OctreePointCloudSearchINS3_14PointWithScaleENS4_26OctreeContainerDataTVectorIiEENS4_20OctreeContainerEmptyIiEEEEEEPT_@Base 1.6
 (optional=templinst)_ZN5boost6detail12shared_countC1IN3pcl6octree22OctreePointCloudSearchINS3_15PointXYZINormalENS4_26OctreeContainerDataTVectorIiEENS4_20OctreeContainerEmptyIiEEEEEEPT_@Base 1.6
 (optional=templinst)_ZN5boost6detail12shared_countC1IN3pcl6octree22OctreePointCloudSearchINS3_17PointXYZRGBNormalENS4_26OctreeContainerDataTVectorIiEENS4_20OctreeContainerEmptyIiEEEEEEPT_@Base 1.6
 (optional=templinst)_ZN5boost6detail12shared_countC1IN3pcl6octree22OctreePointCloudSearchINS3_18PointWithViewpointENS4_26OctreeContainerDataTVectorIiEENS4_20OctreeContainerEmptyIiEEEEEEPT_@Base 1.6
 (optional=templinst)_ZN5boost6detail12shared_countC1IN3pcl6octree22OctreePointCloudSearchINS3_8PointXYZENS4_26OctreeContainerDataTVectorIiEENS4_20OctreeContainerEmptyIiEEEEEEPT_@Base 1.6
 (optional=templinst)_ZN5boost6detail12shared_countC1IN3pcl6octree22OctreePointCloudSearchINS3_9PointXYZIENS4_26OctreeContainerDataTVectorIiEENS4_20OctreeContainerEmptyIiEEEEEEPT_@Base 1.6
 (optional=templinst)_ZN5boost6detail12shared_countC1IN3pcl6octree22OctreePointCloudSearchINS3_9PointXYZLENS4_26OctreeContainerDataTVectorIiEENS4_20OctreeContainerEmptyIiEEEEEEPT_@Base 1.6
 (optional=templinst)_ZN5boost6detail12shared_countC2IN3pcl11KdTreeFLANNINS3_11PointNormalEN5flann9L2_SimpleIfEEEEEEPT_@Base 1.6
 (optional=templinst)_ZN5boost6detail12shared_countC2IN3pcl11KdTreeFLANNINS3_11PointXYZHSVEN5flann9L2_SimpleIfEEEEEEPT_@Base 1.6
 (optional=templinst)_ZN5boost6detail12shared_countC2IN3pcl11KdTreeFLANNINS3_11PointXYZRGBEN5flann9L2_SimpleIfEEEEEEPT_@Base 1.6
 (optional=templinst)_ZN5boost6detail12shared_countC2IN3pcl11KdTreeFLANNINS3_12PPFSignatureEN5flann9L2_SimpleIfEEEEEEPT_@Base 1.6
 (optional=templinst)_ZN5boost6detail12shared_countC2IN3pcl11KdTreeFLANNINS3_12PointXYZRGBAEN5flann9L2_SimpleIfEEEEEEPT_@Base 1.6
 (optional=templinst)_ZN5boost6detail12shared_countC2IN3pcl11KdTreeFLANNINS3_12PointXYZRGBLEN5flann9L2_SimpleIfEEEEEEPT_@Base 1.6
 (optional=templinst)_ZN5boost6detail12shared_countC2IN3pcl11KdTreeFLANNINS3_13InterestPointEN5flann9L2_SimpleIfEEEEEEPT_@Base 1.6
 (optional=templinst)_ZN5boost6detail12shared_countC2IN3pcl11KdTreeFLANNINS3_14PointWithRangeEN5flann9L2_SimpleIfEEEEEEPT_@Base 1.6
 (optional=templinst)_ZN5boost6detail12shared_countC2IN3pcl11KdTreeFLANNINS3_14PointWithScaleEN5flann9L2_SimpleIfEEEEEEPT_@Base 1.6
 (optional=templinst)_ZN5boost6detail12shared_countC2IN3pcl11KdTreeFLANNINS3_14ReferenceFrameEN5flann9L2_SimpleIfEEEEEEPT_@Base 1.6
 (optional=templinst)_ZN5boost6detail12shared_countC2IN3pcl11KdTreeFLANNINS3_15ESFSignature640EN5flann9L2_SimpleIfEEEEEEPT_@Base 1.6
 (optional=templinst)_ZN5boost6detail12shared_countC2IN3pcl11KdTreeFLANNINS3_15FPFHSignature33EN5flann9L2_SimpleIfEEEEEEPT_@Base 1.6
 (optional=templinst)_ZN5boost6detail12shared_countC2IN3pcl11KdTreeFLANNINS3_15PFHSignature125EN5flann9L2_SimpleIfEEEEEEPT_@Base 1.6
 (optional=templinst)_ZN5boost6detail12shared_countC2IN3pcl11KdTreeFLANNINS3_15PPFRGBSignatureEN5flann9L2_SimpleIfEEEEEEPT_@Base 1.6
 (optional=templinst)_ZN5boost6detail12shared_countC2IN3pcl11KdTreeFLANNINS3_15PointXYZINormalEN5flann9L2_SimpleIfEEEEEEPT_@Base 1.6
 (optional=templinst)_ZN5boost6detail12shared_countC2IN3pcl11KdTreeFLANNINS3_15VFHSignature308EN5flann9L2_SimpleIfEEEEEEPT_@Base 1.6
 (optional=templinst)_ZN5boost6detail12shared_countC2IN3pcl11KdTreeFLANNINS3_16MomentInvariantsEN5flann9L2_SimpleIfEEEEEEPT_@Base 1.6
 (optional=templinst)_ZN5boost6detail12shared_countC2IN3pcl11KdTreeFLANNINS3_17IntensityGradientEN5flann9L2_SimpleIfEEEEEEPT_@Base 1.6
 (optional=templinst)_ZN5boost6detail12shared_countC2IN3pcl11KdTreeFLANNINS3_17PointXYZRGBNormalEN5flann9L2_SimpleIfEEEEEEPT_@Base 1.6
 (optional=templinst)_ZN5boost6detail12shared_countC2IN3pcl11KdTreeFLANNINS3_17PrincipalRadiiRSDEN5flann9L2_SimpleIfEEEEEEPT_@Base 1.6
 (optional=templinst)_ZN5boost6detail12shared_countC2IN3pcl11KdTreeFLANNINS3_18PFHRGBSignature250EN5flann9L2_SimpleIfEEEEEEPT_@Base 1.6
 (optional=templinst)_ZN5boost6detail12shared_countC2IN3pcl11KdTreeFLANNINS3_18PointWithViewpointEN5flann9L2_SimpleIfEEEEEEPT_@Base 1.6
 (optional=templinst)_ZN5boost6detail12shared_countC2IN3pcl11KdTreeFLANNINS3_19PrincipalCurvaturesEN5flann9L2_SimpleIfEEEEEEPT_@Base 1.6
 (optional=templinst)_ZN5boost6detail12shared_countC2IN3pcl11KdTreeFLANNINS3_22NormalBasedSignature12EN5flann9L2_SimpleIfEEEEEEPT_@Base 1.6
 (optional=templinst)_ZN5boost6detail12shared_countC2IN3pcl11KdTreeFLANNINS3_4AxisEN5flann9L2_SimpleIfEEEEEEPT_@Base 1.6
 (optional=templinst)_ZN5boost6detail12shared_countC2IN3pcl11KdTreeFLANNINS3_5LabelEN5flann9L2_SimpleIfEEEEEEPT_@Base 1.6
 (optional=templinst)_ZN5boost6detail12shared_countC2IN3pcl11KdTreeFLANNINS3_6Narf36EN5flann9L2_SimpleIfEEEEEEPT_@Base 1.6
 (optional=templinst)_ZN5boost6detail12shared_countC2IN3pcl11KdTreeFLANNINS3_6NormalEN5flann9L2_SimpleIfEEEEEEPT_@Base 1.6
 (optional=templinst)_ZN5boost6detail12shared_countC2IN3pcl11KdTreeFLANNINS3_7PointXYEN5flann9L2_SimpleIfEEEEEEPT_@Base 1.6
 (optional=templinst)_ZN5boost6detail12shared_countC2IN3pcl11KdTreeFLANNINS3_8BoundaryEN5flann9L2_SimpleIfEEEEEEPT_@Base 1.6
 (optional=templinst)_ZN5boost6detail12shared_countC2IN3pcl11KdTreeFLANNINS3_8PointXYZEN5flann9L2_SimpleIfEEEEEEPT_@Base 1.6
 (optional=templinst)_ZN5boost6detail12shared_countC2IN3pcl11KdTreeFLANNINS3_9PointXYZIEN5flann9L2_SimpleIfEEEEEEPT_@Base 1.6
 (optional=templinst)_ZN5boost6detail12shared_countC2IN3pcl11KdTreeFLANNINS3_9PointXYZLEN5flann9L2_SimpleIfEEEEEEPT_@Base 1.6
 (optional=templinst)_ZN5boost6detail12shared_countC2IN3pcl26DefaultPointRepresentationINS3_11PointNormalEEEEEPT_@Base 1.6
 (optional=templinst)_ZN5boost6detail12shared_countC2IN3pcl26DefaultPointRepresentationINS3_11PointXYZHSVEEEEEPT_@Base 1.6
 (optional=templinst)_ZN5boost6detail12shared_countC2IN3pcl26DefaultPointRepresentationINS3_11PointXYZRGBEEEEEPT_@Base 1.6
 (optional=templinst)_ZN5boost6detail12shared_countC2IN3pcl26DefaultPointRepresentationINS3_12PPFSignatureEEEEEPT_@Base 1.6
 (optional=templinst)_ZN5boost6detail12shared_countC2IN3pcl26DefaultPointRepresentationINS3_12PointXYZRGBAEEEEEPT_@Base 1.6
 (optional=templinst)_ZN5boost6detail12shared_countC2IN3pcl26DefaultPointRepresentationINS3_12PointXYZRGBLEEEEEPT_@Base 1.6
 (optional=templinst)_ZN5boost6detail12shared_countC2IN3pcl26DefaultPointRepresentationINS3_13InterestPointEEEEEPT_@Base 1.6
 (optional=templinst)_ZN5boost6detail12shared_countC2IN3pcl26DefaultPointRepresentationINS3_14PointWithRangeEEEEEPT_@Base 1.6
 (optional=templinst)_ZN5boost6detail12shared_countC2IN3pcl26DefaultPointRepresentationINS3_14PointWithScaleEEEEEPT_@Base 1.6
 (optional=templinst)_ZN5boost6detail12shared_countC2IN3pcl26DefaultPointRepresentationINS3_14ReferenceFrameEEEEEPT_@Base 1.6
 (optional=templinst)_ZN5boost6detail12shared_countC2IN3pcl26DefaultPointRepresentationINS3_15ESFSignature640EEEEEPT_@Base 1.6
 (optional=templinst)_ZN5boost6detail12shared_countC2IN3pcl26DefaultPointRepresentationINS3_15FPFHSignature33EEEEEPT_@Base 1.6
 (optional=templinst)_ZN5boost6detail12shared_countC2IN3pcl26DefaultPointRepresentationINS3_15PFHSignature125EEEEEPT_@Base 1.6
 (optional=templinst)_ZN5boost6detail12shared_countC2IN3pcl26DefaultPointRepresentationINS3_15PPFRGBSignatureEEEEEPT_@Base 1.6
 (optional=templinst)_ZN5boost6detail12shared_countC2IN3pcl26DefaultPointRepresentationINS3_15PointXYZINormalEEEEEPT_@Base 1.6
 (optional=templinst)_ZN5boost6detail12shared_countC2IN3pcl26DefaultPointRepresentationINS3_15VFHSignature308EEEEEPT_@Base 1.6
 (optional=templinst)_ZN5boost6detail12shared_countC2IN3pcl26DefaultPointRepresentationINS3_16MomentInvariantsEEEEEPT_@Base 1.6
 (optional=templinst)_ZN5boost6detail12shared_countC2IN3pcl26DefaultPointRepresentationINS3_17IntensityGradientEEEEEPT_@Base 1.6
 (optional=templinst)_ZN5boost6detail12shared_countC2IN3pcl26DefaultPointRepresentationINS3_17PointXYZRGBNormalEEEEEPT_@Base 1.6
 (optional=templinst)_ZN5boost6detail12shared_countC2IN3pcl26DefaultPointRepresentationINS3_17PrincipalRadiiRSDEEEEEPT_@Base 1.6
 (optional=templinst)_ZN5boost6detail12shared_countC2IN3pcl26DefaultPointRepresentationINS3_18PFHRGBSignature250EEEEEPT_@Base 1.6
 (optional=templinst)_ZN5boost6detail12shared_countC2IN3pcl26DefaultPointRepresentationINS3_18PointWithViewpointEEEEEPT_@Base 1.6
 (optional=templinst)_ZN5boost6detail12shared_countC2IN3pcl26DefaultPointRepresentationINS3_19PrincipalCurvaturesEEEEEPT_@Base 1.6
 (optional=templinst)_ZN5boost6detail12shared_countC2IN3pcl26DefaultPointRepresentationINS3_22NormalBasedSignature12EEEEEPT_@Base 1.6
 (optional=templinst)_ZN5boost6detail12shared_countC2IN3pcl26DefaultPointRepresentationINS3_4AxisEEEEEPT_@Base 1.6
 (optional=templinst)_ZN5boost6detail12shared_countC2IN3pcl26DefaultPointRepresentationINS3_5LabelEEEEEPT_@Base 1.6
 (optional=templinst)_ZN5boost6detail12shared_countC2IN3pcl26DefaultPointRepresentationINS3_6Narf36EEEEEPT_@Base 1.6
 (optional=templinst)_ZN5boost6detail12shared_countC2IN3pcl26DefaultPointRepresentationINS3_6NormalEEEEEPT_@Base 1.6
 (optional=templinst)_ZN5boost6detail12shared_countC2IN3pcl26DefaultPointRepresentationINS3_7PointXYEEEEEPT_@Base 1.6
 (optional=templinst)_ZN5boost6detail12shared_countC2IN3pcl26DefaultPointRepresentationINS3_8BoundaryEEEEEPT_@Base 1.6
 (optional=templinst)_ZN5boost6detail12shared_countC2IN3pcl26DefaultPointRepresentationINS3_8PointXYZEEEEEPT_@Base 1.6
 (optional=templinst)_ZN5boost6detail12shared_countC2IN3pcl26DefaultPointRepresentationINS3_9PointXYZIEEEEEPT_@Base 1.6
 (optional=templinst)_ZN5boost6detail12shared_countC2IN3pcl26DefaultPointRepresentationINS3_9PointXYZLEEEEEPT_@Base 1.6
 (optional=templinst)_ZN5boost6detail12shared_countC2IN3pcl6octree22OctreePointCloudSearchINS3_11PointNormalENS4_26OctreeContainerDataTVectorIiEENS4_20OctreeContainerEmptyIiEEEEEEPT_@Base 1.6
 (optional=templinst)_ZN5boost6detail12shared_countC2IN3pcl6octree22OctreePointCloudSearchINS3_11PointXYZHSVENS4_26OctreeContainerDataTVectorIiEENS4_20OctreeContainerEmptyIiEEEEEEPT_@Base 1.6
 (optional=templinst)_ZN5boost6detail12shared_countC2IN3pcl6octree22OctreePointCloudSearchINS3_11PointXYZRGBENS4_26OctreeContainerDataTVectorIiEENS4_20OctreeContainerEmptyIiEEEEEEPT_@Base 1.6
 (optional=templinst)_ZN5boost6detail12shared_countC2IN3pcl6octree22OctreePointCloudSearchINS3_12PointXYZRGBAENS4_26OctreeContainerDataTVectorIiEENS4_20OctreeContainerEmptyIiEEEEEEPT_@Base 1.6
 (optional=templinst)_ZN5boost6detail12shared_countC2IN3pcl6octree22OctreePointCloudSearchINS3_12PointXYZRGBLENS4_26OctreeContainerDataTVectorIiEENS4_20OctreeContainerEmptyIiEEEEEEPT_@Base 1.6
 (optional=templinst)_ZN5boost6detail12shared_countC2IN3pcl6octree22OctreePointCloudSearchINS3_13InterestPointENS4_26OctreeContainerDataTVectorIiEENS4_20OctreeContainerEmptyIiEEEEEEPT_@Base 1.6
 (optional=templinst)_ZN5boost6detail12shared_countC2IN3pcl6octree22OctreePointCloudSearchINS3_14PointWithRangeENS4_26OctreeContainerDataTVectorIiEENS4_20OctreeContainerEmptyIiEEEEEEPT_@Base 1.6
 (optional=templinst)_ZN5boost6detail12shared_countC2IN3pcl6octree22OctreePointCloudSearchINS3_14PointWithScaleENS4_26OctreeContainerDataTVectorIiEENS4_20OctreeContainerEmptyIiEEEEEEPT_@Base 1.6
 (optional=templinst)_ZN5boost6detail12shared_countC2IN3pcl6octree22OctreePointCloudSearchINS3_15PointXYZINormalENS4_26OctreeContainerDataTVectorIiEENS4_20OctreeContainerEmptyIiEEEEEEPT_@Base 1.6
 (optional=templinst)_ZN5boost6detail12shared_countC2IN3pcl6octree22OctreePointCloudSearchINS3_17PointXYZRGBNormalENS4_26OctreeContainerDataTVectorIiEENS4_20OctreeContainerEmptyIiEEEEEEPT_@Base 1.6
 (optional=templinst)_ZN5boost6detail12shared_countC2IN3pcl6octree22OctreePointCloudSearchINS3_18PointWithViewpointENS4_26OctreeContainerDataTVectorIiEENS4_20OctreeContainerEmptyIiEEEEEEPT_@Base 1.6
 (optional=templinst)_ZN5boost6detail12shared_countC2IN3pcl6octree22OctreePointCloudSearchINS3_8PointXYZENS4_26OctreeContainerDataTVectorIiEENS4_20OctreeContainerEmptyIiEEEEEEPT_@Base 1.6
 (optional=templinst)_ZN5boost6detail12shared_countC2IN3pcl6octree22OctreePointCloudSearchINS3_9PointXYZIENS4_26OctreeContainerDataTVectorIiEENS4_20OctreeContainerEmptyIiEEEEEEPT_@Base 1.6
 (optional=templinst)_ZN5boost6detail12shared_countC2IN3pcl6octree22OctreePointCloudSearchINS3_9PointXYZLENS4_26OctreeContainerDataTVectorIiEENS4_20OctreeContainerEmptyIiEEEEEEPT_@Base 1.6
 _ZN5boost6detail15sp_counted_base7destroyEv@Base 1.6
 _ZN5boost6detail15sp_counted_base7releaseEv@Base 1.6
 _ZN5boost6detail15sp_counted_baseD0Ev@Base 1.6
 _ZN5boost6detail15sp_counted_baseD1Ev@Base 1.6
 _ZN5boost6detail15sp_counted_baseD2Ev@Base 1.6
 (optional=templinst)_ZN5boost6detail17sp_counted_impl_pIN3pcl11KdTreeFLANNINS2_11PointNormalEN5flann9L2_SimpleIfEEEEE11get_deleterERKSt9type_info@Base 1.6
 (optional=templinst)_ZN5boost6detail17sp_counted_impl_pIN3pcl11KdTreeFLANNINS2_11PointNormalEN5flann9L2_SimpleIfEEEEE7disposeEv@Base 1.6
 (optional=templinst)_ZN5boost6detail17sp_counted_impl_pIN3pcl11KdTreeFLANNINS2_11PointNormalEN5flann9L2_SimpleIfEEEEED0Ev@Base 1.6
 (optional=templinst)_ZN5boost6detail17sp_counted_impl_pIN3pcl11KdTreeFLANNINS2_11PointNormalEN5flann9L2_SimpleIfEEEEED1Ev@Base 1.6
 (optional=templinst)_ZN5boost6detail17sp_counted_impl_pIN3pcl11KdTreeFLANNINS2_11PointNormalEN5flann9L2_SimpleIfEEEEED2Ev@Base 1.6
 (optional=templinst)_ZN5boost6detail17sp_counted_impl_pIN3pcl11KdTreeFLANNINS2_11PointXYZHSVEN5flann9L2_SimpleIfEEEEE11get_deleterERKSt9type_info@Base 1.6
 (optional=templinst)_ZN5boost6detail17sp_counted_impl_pIN3pcl11KdTreeFLANNINS2_11PointXYZHSVEN5flann9L2_SimpleIfEEEEE7disposeEv@Base 1.6
 (optional=templinst)_ZN5boost6detail17sp_counted_impl_pIN3pcl11KdTreeFLANNINS2_11PointXYZHSVEN5flann9L2_SimpleIfEEEEED0Ev@Base 1.6
 (optional=templinst)_ZN5boost6detail17sp_counted_impl_pIN3pcl11KdTreeFLANNINS2_11PointXYZHSVEN5flann9L2_SimpleIfEEEEED1Ev@Base 1.6
 (optional=templinst)_ZN5boost6detail17sp_counted_impl_pIN3pcl11KdTreeFLANNINS2_11PointXYZHSVEN5flann9L2_SimpleIfEEEEED2Ev@Base 1.6
 (optional=templinst)_ZN5boost6detail17sp_counted_impl_pIN3pcl11KdTreeFLANNINS2_11PointXYZRGBEN5flann9L2_SimpleIfEEEEE11get_deleterERKSt9type_info@Base 1.6
 (optional=templinst)_ZN5boost6detail17sp_counted_impl_pIN3pcl11KdTreeFLANNINS2_11PointXYZRGBEN5flann9L2_SimpleIfEEEEE7disposeEv@Base 1.6
 (optional=templinst)_ZN5boost6detail17sp_counted_impl_pIN3pcl11KdTreeFLANNINS2_11PointXYZRGBEN5flann9L2_SimpleIfEEEEED0Ev@Base 1.6
 (optional=templinst)_ZN5boost6detail17sp_counted_impl_pIN3pcl11KdTreeFLANNINS2_11PointXYZRGBEN5flann9L2_SimpleIfEEEEED1Ev@Base 1.6
 (optional=templinst)_ZN5boost6detail17sp_counted_impl_pIN3pcl11KdTreeFLANNINS2_11PointXYZRGBEN5flann9L2_SimpleIfEEEEED2Ev@Base 1.6
 (optional=templinst)_ZN5boost6detail17sp_counted_impl_pIN3pcl11KdTreeFLANNINS2_12PPFSignatureEN5flann9L2_SimpleIfEEEEE11get_deleterERKSt9type_info@Base 1.6
 (optional=templinst)_ZN5boost6detail17sp_counted_impl_pIN3pcl11KdTreeFLANNINS2_12PPFSignatureEN5flann9L2_SimpleIfEEEEE7disposeEv@Base 1.6
 (optional=templinst)_ZN5boost6detail17sp_counted_impl_pIN3pcl11KdTreeFLANNINS2_12PPFSignatureEN5flann9L2_SimpleIfEEEEED0Ev@Base 1.6
 (optional=templinst)_ZN5boost6detail17sp_counted_impl_pIN3pcl11KdTreeFLANNINS2_12PPFSignatureEN5flann9L2_SimpleIfEEEEED1Ev@Base 1.6
 (optional=templinst)_ZN5boost6detail17sp_counted_impl_pIN3pcl11KdTreeFLANNINS2_12PPFSignatureEN5flann9L2_SimpleIfEEEEED2Ev@Base 1.6
 (optional=templinst)_ZN5boost6detail17sp_counted_impl_pIN3pcl11KdTreeFLANNINS2_12PointXYZRGBAEN5flann9L2_SimpleIfEEEEE11get_deleterERKSt9type_info@Base 1.6
 (optional=templinst)_ZN5boost6detail17sp_counted_impl_pIN3pcl11KdTreeFLANNINS2_12PointXYZRGBAEN5flann9L2_SimpleIfEEEEE7disposeEv@Base 1.6
 (optional=templinst)_ZN5boost6detail17sp_counted_impl_pIN3pcl11KdTreeFLANNINS2_12PointXYZRGBAEN5flann9L2_SimpleIfEEEEED0Ev@Base 1.6
 (optional=templinst)_ZN5boost6detail17sp_counted_impl_pIN3pcl11KdTreeFLANNINS2_12PointXYZRGBAEN5flann9L2_SimpleIfEEEEED1Ev@Base 1.6
 (optional=templinst)_ZN5boost6detail17sp_counted_impl_pIN3pcl11KdTreeFLANNINS2_12PointXYZRGBAEN5flann9L2_SimpleIfEEEEED2Ev@Base 1.6
 (optional=templinst)_ZN5boost6detail17sp_counted_impl_pIN3pcl11KdTreeFLANNINS2_12PointXYZRGBLEN5flann9L2_SimpleIfEEEEE11get_deleterERKSt9type_info@Base 1.6
 (optional=templinst)_ZN5boost6detail17sp_counted_impl_pIN3pcl11KdTreeFLANNINS2_12PointXYZRGBLEN5flann9L2_SimpleIfEEEEE7disposeEv@Base 1.6
 (optional=templinst)_ZN5boost6detail17sp_counted_impl_pIN3pcl11KdTreeFLANNINS2_12PointXYZRGBLEN5flann9L2_SimpleIfEEEEED0Ev@Base 1.6
 (optional=templinst)_ZN5boost6detail17sp_counted_impl_pIN3pcl11KdTreeFLANNINS2_12PointXYZRGBLEN5flann9L2_SimpleIfEEEEED1Ev@Base 1.6
 (optional=templinst)_ZN5boost6detail17sp_counted_impl_pIN3pcl11KdTreeFLANNINS2_12PointXYZRGBLEN5flann9L2_SimpleIfEEEEED2Ev@Base 1.6
 (optional=templinst)_ZN5boost6detail17sp_counted_impl_pIN3pcl11KdTreeFLANNINS2_13InterestPointEN5flann9L2_SimpleIfEEEEE11get_deleterERKSt9type_info@Base 1.6
 (optional=templinst)_ZN5boost6detail17sp_counted_impl_pIN3pcl11KdTreeFLANNINS2_13InterestPointEN5flann9L2_SimpleIfEEEEE7disposeEv@Base 1.6
 (optional=templinst)_ZN5boost6detail17sp_counted_impl_pIN3pcl11KdTreeFLANNINS2_13InterestPointEN5flann9L2_SimpleIfEEEEED0Ev@Base 1.6
 (optional=templinst)_ZN5boost6detail17sp_counted_impl_pIN3pcl11KdTreeFLANNINS2_13InterestPointEN5flann9L2_SimpleIfEEEEED1Ev@Base 1.6
 (optional=templinst)_ZN5boost6detail17sp_counted_impl_pIN3pcl11KdTreeFLANNINS2_13InterestPointEN5flann9L2_SimpleIfEEEEED2Ev@Base 1.6
 (optional=templinst)_ZN5boost6detail17sp_counted_impl_pIN3pcl11KdTreeFLANNINS2_14PointWithRangeEN5flann9L2_SimpleIfEEEEE11get_deleterERKSt9type_info@Base 1.6
 (optional=templinst)_ZN5boost6detail17sp_counted_impl_pIN3pcl11KdTreeFLANNINS2_14PointWithRangeEN5flann9L2_SimpleIfEEEEE7disposeEv@Base 1.6
 (optional=templinst)_ZN5boost6detail17sp_counted_impl_pIN3pcl11KdTreeFLANNINS2_14PointWithRangeEN5flann9L2_SimpleIfEEEEED0Ev@Base 1.6
 (optional=templinst)_ZN5boost6detail17sp_counted_impl_pIN3pcl11KdTreeFLANNINS2_14PointWithRangeEN5flann9L2_SimpleIfEEEEED1Ev@Base 1.6
 (optional=templinst)_ZN5boost6detail17sp_counted_impl_pIN3pcl11KdTreeFLANNINS2_14PointWithRangeEN5flann9L2_SimpleIfEEEEED2Ev@Base 1.6
 (optional=templinst)_ZN5boost6detail17sp_counted_impl_pIN3pcl11KdTreeFLANNINS2_14PointWithScaleEN5flann9L2_SimpleIfEEEEE11get_deleterERKSt9type_info@Base 1.6
 (optional=templinst)_ZN5boost6detail17sp_counted_impl_pIN3pcl11KdTreeFLANNINS2_14PointWithScaleEN5flann9L2_SimpleIfEEEEE7disposeEv@Base 1.6
 (optional=templinst)_ZN5boost6detail17sp_counted_impl_pIN3pcl11KdTreeFLANNINS2_14PointWithScaleEN5flann9L2_SimpleIfEEEEED0Ev@Base 1.6
 (optional=templinst)_ZN5boost6detail17sp_counted_impl_pIN3pcl11KdTreeFLANNINS2_14PointWithScaleEN5flann9L2_SimpleIfEEEEED1Ev@Base 1.6
 (optional=templinst)_ZN5boost6detail17sp_counted_impl_pIN3pcl11KdTreeFLANNINS2_14PointWithScaleEN5flann9L2_SimpleIfEEEEED2Ev@Base 1.6
 (optional=templinst)_ZN5boost6detail17sp_counted_impl_pIN3pcl11KdTreeFLANNINS2_14ReferenceFrameEN5flann9L2_SimpleIfEEEEE11get_deleterERKSt9type_info@Base 1.6
 (optional=templinst)_ZN5boost6detail17sp_counted_impl_pIN3pcl11KdTreeFLANNINS2_14ReferenceFrameEN5flann9L2_SimpleIfEEEEE7disposeEv@Base 1.6
 (optional=templinst)_ZN5boost6detail17sp_counted_impl_pIN3pcl11KdTreeFLANNINS2_14ReferenceFrameEN5flann9L2_SimpleIfEEEEED0Ev@Base 1.6
 (optional=templinst)_ZN5boost6detail17sp_counted_impl_pIN3pcl11KdTreeFLANNINS2_14ReferenceFrameEN5flann9L2_SimpleIfEEEEED1Ev@Base 1.6
 (optional=templinst)_ZN5boost6detail17sp_counted_impl_pIN3pcl11KdTreeFLANNINS2_14ReferenceFrameEN5flann9L2_SimpleIfEEEEED2Ev@Base 1.6
 (optional=templinst)_ZN5boost6detail17sp_counted_impl_pIN3pcl11KdTreeFLANNINS2_15ESFSignature640EN5flann9L2_SimpleIfEEEEE11get_deleterERKSt9type_info@Base 1.6
 (optional=templinst)_ZN5boost6detail17sp_counted_impl_pIN3pcl11KdTreeFLANNINS2_15ESFSignature640EN5flann9L2_SimpleIfEEEEE7disposeEv@Base 1.6
 (optional=templinst)_ZN5boost6detail17sp_counted_impl_pIN3pcl11KdTreeFLANNINS2_15ESFSignature640EN5flann9L2_SimpleIfEEEEED0Ev@Base 1.6
 (optional=templinst)_ZN5boost6detail17sp_counted_impl_pIN3pcl11KdTreeFLANNINS2_15ESFSignature640EN5flann9L2_SimpleIfEEEEED1Ev@Base 1.6
 (optional=templinst)_ZN5boost6detail17sp_counted_impl_pIN3pcl11KdTreeFLANNINS2_15ESFSignature640EN5flann9L2_SimpleIfEEEEED2Ev@Base 1.6
 (optional=templinst)_ZN5boost6detail17sp_counted_impl_pIN3pcl11KdTreeFLANNINS2_15FPFHSignature33EN5flann9L2_SimpleIfEEEEE11get_deleterERKSt9type_info@Base 1.6
 (optional=templinst)_ZN5boost6detail17sp_counted_impl_pIN3pcl11KdTreeFLANNINS2_15FPFHSignature33EN5flann9L2_SimpleIfEEEEE7disposeEv@Base 1.6
 (optional=templinst)_ZN5boost6detail17sp_counted_impl_pIN3pcl11KdTreeFLANNINS2_15FPFHSignature33EN5flann9L2_SimpleIfEEEEED0Ev@Base 1.6
 (optional=templinst)_ZN5boost6detail17sp_counted_impl_pIN3pcl11KdTreeFLANNINS2_15FPFHSignature33EN5flann9L2_SimpleIfEEEEED1Ev@Base 1.6
 (optional=templinst)_ZN5boost6detail17sp_counted_impl_pIN3pcl11KdTreeFLANNINS2_15FPFHSignature33EN5flann9L2_SimpleIfEEEEED2Ev@Base 1.6
 (optional=templinst)_ZN5boost6detail17sp_counted_impl_pIN3pcl11KdTreeFLANNINS2_15PFHSignature125EN5flann9L2_SimpleIfEEEEE11get_deleterERKSt9type_info@Base 1.6
 (optional=templinst)_ZN5boost6detail17sp_counted_impl_pIN3pcl11KdTreeFLANNINS2_15PFHSignature125EN5flann9L2_SimpleIfEEEEE7disposeEv@Base 1.6
 (optional=templinst)_ZN5boost6detail17sp_counted_impl_pIN3pcl11KdTreeFLANNINS2_15PFHSignature125EN5flann9L2_SimpleIfEEEEED0Ev@Base 1.6
 (optional=templinst)_ZN5boost6detail17sp_counted_impl_pIN3pcl11KdTreeFLANNINS2_15PFHSignature125EN5flann9L2_SimpleIfEEEEED1Ev@Base 1.6
 (optional=templinst)_ZN5boost6detail17sp_counted_impl_pIN3pcl11KdTreeFLANNINS2_15PFHSignature125EN5flann9L2_SimpleIfEEEEED2Ev@Base 1.6
 (optional=templinst)_ZN5boost6detail17sp_counted_impl_pIN3pcl11KdTreeFLANNINS2_15PPFRGBSignatureEN5flann9L2_SimpleIfEEEEE11get_deleterERKSt9type_info@Base 1.6
 (optional=templinst)_ZN5boost6detail17sp_counted_impl_pIN3pcl11KdTreeFLANNINS2_15PPFRGBSignatureEN5flann9L2_SimpleIfEEEEE7disposeEv@Base 1.6
 (optional=templinst)_ZN5boost6detail17sp_counted_impl_pIN3pcl11KdTreeFLANNINS2_15PPFRGBSignatureEN5flann9L2_SimpleIfEEEEED0Ev@Base 1.6
 (optional=templinst)_ZN5boost6detail17sp_counted_impl_pIN3pcl11KdTreeFLANNINS2_15PPFRGBSignatureEN5flann9L2_SimpleIfEEEEED1Ev@Base 1.6
 (optional=templinst)_ZN5boost6detail17sp_counted_impl_pIN3pcl11KdTreeFLANNINS2_15PPFRGBSignatureEN5flann9L2_SimpleIfEEEEED2Ev@Base 1.6
 (optional=templinst)_ZN5boost6detail17sp_counted_impl_pIN3pcl11KdTreeFLANNINS2_15PointXYZINormalEN5flann9L2_SimpleIfEEEEE11get_deleterERKSt9type_info@Base 1.6
 (optional=templinst)_ZN5boost6detail17sp_counted_impl_pIN3pcl11KdTreeFLANNINS2_15PointXYZINormalEN5flann9L2_SimpleIfEEEEE7disposeEv@Base 1.6
 (optional=templinst)_ZN5boost6detail17sp_counted_impl_pIN3pcl11KdTreeFLANNINS2_15PointXYZINormalEN5flann9L2_SimpleIfEEEEED0Ev@Base 1.6
 (optional=templinst)_ZN5boost6detail17sp_counted_impl_pIN3pcl11KdTreeFLANNINS2_15PointXYZINormalEN5flann9L2_SimpleIfEEEEED1Ev@Base 1.6
 (optional=templinst)_ZN5boost6detail17sp_counted_impl_pIN3pcl11KdTreeFLANNINS2_15PointXYZINormalEN5flann9L2_SimpleIfEEEEED2Ev@Base 1.6
 (optional=templinst)_ZN5boost6detail17sp_counted_impl_pIN3pcl11KdTreeFLANNINS2_15VFHSignature308EN5flann9L2_SimpleIfEEEEE11get_deleterERKSt9type_info@Base 1.6
 (optional=templinst)_ZN5boost6detail17sp_counted_impl_pIN3pcl11KdTreeFLANNINS2_15VFHSignature308EN5flann9L2_SimpleIfEEEEE7disposeEv@Base 1.6
 (optional=templinst)_ZN5boost6detail17sp_counted_impl_pIN3pcl11KdTreeFLANNINS2_15VFHSignature308EN5flann9L2_SimpleIfEEEEED0Ev@Base 1.6
 (optional=templinst)_ZN5boost6detail17sp_counted_impl_pIN3pcl11KdTreeFLANNINS2_15VFHSignature308EN5flann9L2_SimpleIfEEEEED1Ev@Base 1.6
 (optional=templinst)_ZN5boost6detail17sp_counted_impl_pIN3pcl11KdTreeFLANNINS2_15VFHSignature308EN5flann9L2_SimpleIfEEEEED2Ev@Base 1.6
 (optional=templinst)_ZN5boost6detail17sp_counted_impl_pIN3pcl11KdTreeFLANNINS2_16MomentInvariantsEN5flann9L2_SimpleIfEEEEE11get_deleterERKSt9type_info@Base 1.6
 (optional=templinst)_ZN5boost6detail17sp_counted_impl_pIN3pcl11KdTreeFLANNINS2_16MomentInvariantsEN5flann9L2_SimpleIfEEEEE7disposeEv@Base 1.6
 (optional=templinst)_ZN5boost6detail17sp_counted_impl_pIN3pcl11KdTreeFLANNINS2_16MomentInvariantsEN5flann9L2_SimpleIfEEEEED0Ev@Base 1.6
 (optional=templinst)_ZN5boost6detail17sp_counted_impl_pIN3pcl11KdTreeFLANNINS2_16MomentInvariantsEN5flann9L2_SimpleIfEEEEED1Ev@Base 1.6
 (optional=templinst)_ZN5boost6detail17sp_counted_impl_pIN3pcl11KdTreeFLANNINS2_16MomentInvariantsEN5flann9L2_SimpleIfEEEEED2Ev@Base 1.6
 (optional=templinst)_ZN5boost6detail17sp_counted_impl_pIN3pcl11KdTreeFLANNINS2_17IntensityGradientEN5flann9L2_SimpleIfEEEEE11get_deleterERKSt9type_info@Base 1.6
 (optional=templinst)_ZN5boost6detail17sp_counted_impl_pIN3pcl11KdTreeFLANNINS2_17IntensityGradientEN5flann9L2_SimpleIfEEEEE7disposeEv@Base 1.6
 (optional=templinst)_ZN5boost6detail17sp_counted_impl_pIN3pcl11KdTreeFLANNINS2_17IntensityGradientEN5flann9L2_SimpleIfEEEEED0Ev@Base 1.6
 (optional=templinst)_ZN5boost6detail17sp_counted_impl_pIN3pcl11KdTreeFLANNINS2_17IntensityGradientEN5flann9L2_SimpleIfEEEEED1Ev@Base 1.6
 (optional=templinst)_ZN5boost6detail17sp_counted_impl_pIN3pcl11KdTreeFLANNINS2_17IntensityGradientEN5flann9L2_SimpleIfEEEEED2Ev@Base 1.6
 (optional=templinst)_ZN5boost6detail17sp_counted_impl_pIN3pcl11KdTreeFLANNINS2_17PointXYZRGBNormalEN5flann9L2_SimpleIfEEEEE11get_deleterERKSt9type_info@Base 1.6
 (optional=templinst)_ZN5boost6detail17sp_counted_impl_pIN3pcl11KdTreeFLANNINS2_17PointXYZRGBNormalEN5flann9L2_SimpleIfEEEEE7disposeEv@Base 1.6
 (optional=templinst)_ZN5boost6detail17sp_counted_impl_pIN3pcl11KdTreeFLANNINS2_17PointXYZRGBNormalEN5flann9L2_SimpleIfEEEEED0Ev@Base 1.6
 (optional=templinst)_ZN5boost6detail17sp_counted_impl_pIN3pcl11KdTreeFLANNINS2_17PointXYZRGBNormalEN5flann9L2_SimpleIfEEEEED1Ev@Base 1.6
 (optional=templinst)_ZN5boost6detail17sp_counted_impl_pIN3pcl11KdTreeFLANNINS2_17PointXYZRGBNormalEN5flann9L2_SimpleIfEEEEED2Ev@Base 1.6
 (optional=templinst)_ZN5boost6detail17sp_counted_impl_pIN3pcl11KdTreeFLANNINS2_17PrincipalRadiiRSDEN5flann9L2_SimpleIfEEEEE11get_deleterERKSt9type_info@Base 1.6
 (optional=templinst)_ZN5boost6detail17sp_counted_impl_pIN3pcl11KdTreeFLANNINS2_17PrincipalRadiiRSDEN5flann9L2_SimpleIfEEEEE7disposeEv@Base 1.6
 (optional=templinst)_ZN5boost6detail17sp_counted_impl_pIN3pcl11KdTreeFLANNINS2_17PrincipalRadiiRSDEN5flann9L2_SimpleIfEEEEED0Ev@Base 1.6
 (optional=templinst)_ZN5boost6detail17sp_counted_impl_pIN3pcl11KdTreeFLANNINS2_17PrincipalRadiiRSDEN5flann9L2_SimpleIfEEEEED1Ev@Base 1.6
 (optional=templinst)_ZN5boost6detail17sp_counted_impl_pIN3pcl11KdTreeFLANNINS2_17PrincipalRadiiRSDEN5flann9L2_SimpleIfEEEEED2Ev@Base 1.6
 (optional=templinst)_ZN5boost6detail17sp_counted_impl_pIN3pcl11KdTreeFLANNINS2_18PFHRGBSignature250EN5flann9L2_SimpleIfEEEEE11get_deleterERKSt9type_info@Base 1.6
 (optional=templinst)_ZN5boost6detail17sp_counted_impl_pIN3pcl11KdTreeFLANNINS2_18PFHRGBSignature250EN5flann9L2_SimpleIfEEEEE7disposeEv@Base 1.6
 (optional=templinst)_ZN5boost6detail17sp_counted_impl_pIN3pcl11KdTreeFLANNINS2_18PFHRGBSignature250EN5flann9L2_SimpleIfEEEEED0Ev@Base 1.6
 (optional=templinst)_ZN5boost6detail17sp_counted_impl_pIN3pcl11KdTreeFLANNINS2_18PFHRGBSignature250EN5flann9L2_SimpleIfEEEEED1Ev@Base 1.6
 (optional=templinst)_ZN5boost6detail17sp_counted_impl_pIN3pcl11KdTreeFLANNINS2_18PFHRGBSignature250EN5flann9L2_SimpleIfEEEEED2Ev@Base 1.6
 (optional=templinst)_ZN5boost6detail17sp_counted_impl_pIN3pcl11KdTreeFLANNINS2_18PointWithViewpointEN5flann9L2_SimpleIfEEEEE11get_deleterERKSt9type_info@Base 1.6
 (optional=templinst)_ZN5boost6detail17sp_counted_impl_pIN3pcl11KdTreeFLANNINS2_18PointWithViewpointEN5flann9L2_SimpleIfEEEEE7disposeEv@Base 1.6
 (optional=templinst)_ZN5boost6detail17sp_counted_impl_pIN3pcl11KdTreeFLANNINS2_18PointWithViewpointEN5flann9L2_SimpleIfEEEEED0Ev@Base 1.6
 (optional=templinst)_ZN5boost6detail17sp_counted_impl_pIN3pcl11KdTreeFLANNINS2_18PointWithViewpointEN5flann9L2_SimpleIfEEEEED1Ev@Base 1.6
 (optional=templinst)_ZN5boost6detail17sp_counted_impl_pIN3pcl11KdTreeFLANNINS2_18PointWithViewpointEN5flann9L2_SimpleIfEEEEED2Ev@Base 1.6
 (optional=templinst)_ZN5boost6detail17sp_counted_impl_pIN3pcl11KdTreeFLANNINS2_19PrincipalCurvaturesEN5flann9L2_SimpleIfEEEEE11get_deleterERKSt9type_info@Base 1.6
 (optional=templinst)_ZN5boost6detail17sp_counted_impl_pIN3pcl11KdTreeFLANNINS2_19PrincipalCurvaturesEN5flann9L2_SimpleIfEEEEE7disposeEv@Base 1.6
 (optional=templinst)_ZN5boost6detail17sp_counted_impl_pIN3pcl11KdTreeFLANNINS2_19PrincipalCurvaturesEN5flann9L2_SimpleIfEEEEED0Ev@Base 1.6
 (optional=templinst)_ZN5boost6detail17sp_counted_impl_pIN3pcl11KdTreeFLANNINS2_19PrincipalCurvaturesEN5flann9L2_SimpleIfEEEEED1Ev@Base 1.6
 (optional=templinst)_ZN5boost6detail17sp_counted_impl_pIN3pcl11KdTreeFLANNINS2_19PrincipalCurvaturesEN5flann9L2_SimpleIfEEEEED2Ev@Base 1.6
 (optional=templinst)_ZN5boost6detail17sp_counted_impl_pIN3pcl11KdTreeFLANNINS2_22NormalBasedSignature12EN5flann9L2_SimpleIfEEEEE11get_deleterERKSt9type_info@Base 1.6
 (optional=templinst)_ZN5boost6detail17sp_counted_impl_pIN3pcl11KdTreeFLANNINS2_22NormalBasedSignature12EN5flann9L2_SimpleIfEEEEE7disposeEv@Base 1.6
 (optional=templinst)_ZN5boost6detail17sp_counted_impl_pIN3pcl11KdTreeFLANNINS2_22NormalBasedSignature12EN5flann9L2_SimpleIfEEEEED0Ev@Base 1.6
 (optional=templinst)_ZN5boost6detail17sp_counted_impl_pIN3pcl11KdTreeFLANNINS2_22NormalBasedSignature12EN5flann9L2_SimpleIfEEEEED1Ev@Base 1.6
 (optional=templinst)_ZN5boost6detail17sp_counted_impl_pIN3pcl11KdTreeFLANNINS2_22NormalBasedSignature12EN5flann9L2_SimpleIfEEEEED2Ev@Base 1.6
 (optional=templinst)_ZN5boost6detail17sp_counted_impl_pIN3pcl11KdTreeFLANNINS2_4AxisEN5flann9L2_SimpleIfEEEEE11get_deleterERKSt9type_info@Base 1.6
 (optional=templinst)_ZN5boost6detail17sp_counted_impl_pIN3pcl11KdTreeFLANNINS2_4AxisEN5flann9L2_SimpleIfEEEEE7disposeEv@Base 1.6
 (optional=templinst)_ZN5boost6detail17sp_counted_impl_pIN3pcl11KdTreeFLANNINS2_4AxisEN5flann9L2_SimpleIfEEEEED0Ev@Base 1.6
 (optional=templinst)_ZN5boost6detail17sp_counted_impl_pIN3pcl11KdTreeFLANNINS2_4AxisEN5flann9L2_SimpleIfEEEEED1Ev@Base 1.6
 (optional=templinst)_ZN5boost6detail17sp_counted_impl_pIN3pcl11KdTreeFLANNINS2_4AxisEN5flann9L2_SimpleIfEEEEED2Ev@Base 1.6
 (optional=templinst)_ZN5boost6detail17sp_counted_impl_pIN3pcl11KdTreeFLANNINS2_5LabelEN5flann9L2_SimpleIfEEEEE11get_deleterERKSt9type_info@Base 1.6
 (optional=templinst)_ZN5boost6detail17sp_counted_impl_pIN3pcl11KdTreeFLANNINS2_5LabelEN5flann9L2_SimpleIfEEEEE7disposeEv@Base 1.6
 (optional=templinst)_ZN5boost6detail17sp_counted_impl_pIN3pcl11KdTreeFLANNINS2_5LabelEN5flann9L2_SimpleIfEEEEED0Ev@Base 1.6
 (optional=templinst)_ZN5boost6detail17sp_counted_impl_pIN3pcl11KdTreeFLANNINS2_5LabelEN5flann9L2_SimpleIfEEEEED1Ev@Base 1.6
 (optional=templinst)_ZN5boost6detail17sp_counted_impl_pIN3pcl11KdTreeFLANNINS2_5LabelEN5flann9L2_SimpleIfEEEEED2Ev@Base 1.6
 (optional=templinst)_ZN5boost6detail17sp_counted_impl_pIN3pcl11KdTreeFLANNINS2_6Narf36EN5flann9L2_SimpleIfEEEEE11get_deleterERKSt9type_info@Base 1.6
 (optional=templinst)_ZN5boost6detail17sp_counted_impl_pIN3pcl11KdTreeFLANNINS2_6Narf36EN5flann9L2_SimpleIfEEEEE7disposeEv@Base 1.6
 (optional=templinst)_ZN5boost6detail17sp_counted_impl_pIN3pcl11KdTreeFLANNINS2_6Narf36EN5flann9L2_SimpleIfEEEEED0Ev@Base 1.6
 (optional=templinst)_ZN5boost6detail17sp_counted_impl_pIN3pcl11KdTreeFLANNINS2_6Narf36EN5flann9L2_SimpleIfEEEEED1Ev@Base 1.6
 (optional=templinst)_ZN5boost6detail17sp_counted_impl_pIN3pcl11KdTreeFLANNINS2_6Narf36EN5flann9L2_SimpleIfEEEEED2Ev@Base 1.6
 (optional=templinst)_ZN5boost6detail17sp_counted_impl_pIN3pcl11KdTreeFLANNINS2_6NormalEN5flann9L2_SimpleIfEEEEE11get_deleterERKSt9type_info@Base 1.6
 (optional=templinst)_ZN5boost6detail17sp_counted_impl_pIN3pcl11KdTreeFLANNINS2_6NormalEN5flann9L2_SimpleIfEEEEE7disposeEv@Base 1.6
 (optional=templinst)_ZN5boost6detail17sp_counted_impl_pIN3pcl11KdTreeFLANNINS2_6NormalEN5flann9L2_SimpleIfEEEEED0Ev@Base 1.6
 (optional=templinst)_ZN5boost6detail17sp_counted_impl_pIN3pcl11KdTreeFLANNINS2_6NormalEN5flann9L2_SimpleIfEEEEED1Ev@Base 1.6
 (optional=templinst)_ZN5boost6detail17sp_counted_impl_pIN3pcl11KdTreeFLANNINS2_6NormalEN5flann9L2_SimpleIfEEEEED2Ev@Base 1.6
 (optional=templinst)_ZN5boost6detail17sp_counted_impl_pIN3pcl11KdTreeFLANNINS2_7PointXYEN5flann9L2_SimpleIfEEEEE11get_deleterERKSt9type_info@Base 1.6
 (optional=templinst)_ZN5boost6detail17sp_counted_impl_pIN3pcl11KdTreeFLANNINS2_7PointXYEN5flann9L2_SimpleIfEEEEE7disposeEv@Base 1.6
 (optional=templinst)_ZN5boost6detail17sp_counted_impl_pIN3pcl11KdTreeFLANNINS2_7PointXYEN5flann9L2_SimpleIfEEEEED0Ev@Base 1.6
 (optional=templinst)_ZN5boost6detail17sp_counted_impl_pIN3pcl11KdTreeFLANNINS2_7PointXYEN5flann9L2_SimpleIfEEEEED1Ev@Base 1.6
 (optional=templinst)_ZN5boost6detail17sp_counted_impl_pIN3pcl11KdTreeFLANNINS2_7PointXYEN5flann9L2_SimpleIfEEEEED2Ev@Base 1.6
 (optional=templinst)_ZN5boost6detail17sp_counted_impl_pIN3pcl11KdTreeFLANNINS2_8BoundaryEN5flann9L2_SimpleIfEEEEE11get_deleterERKSt9type_info@Base 1.6
 (optional=templinst)_ZN5boost6detail17sp_counted_impl_pIN3pcl11KdTreeFLANNINS2_8BoundaryEN5flann9L2_SimpleIfEEEEE7disposeEv@Base 1.6
 (optional=templinst)_ZN5boost6detail17sp_counted_impl_pIN3pcl11KdTreeFLANNINS2_8BoundaryEN5flann9L2_SimpleIfEEEEED0Ev@Base 1.6
 (optional=templinst)_ZN5boost6detail17sp_counted_impl_pIN3pcl11KdTreeFLANNINS2_8BoundaryEN5flann9L2_SimpleIfEEEEED1Ev@Base 1.6
 (optional=templinst)_ZN5boost6detail17sp_counted_impl_pIN3pcl11KdTreeFLANNINS2_8BoundaryEN5flann9L2_SimpleIfEEEEED2Ev@Base 1.6
 (optional=templinst)_ZN5boost6detail17sp_counted_impl_pIN3pcl11KdTreeFLANNINS2_8PointXYZEN5flann9L2_SimpleIfEEEEE11get_deleterERKSt9type_info@Base 1.6
 (optional=templinst)_ZN5boost6detail17sp_counted_impl_pIN3pcl11KdTreeFLANNINS2_8PointXYZEN5flann9L2_SimpleIfEEEEE7disposeEv@Base 1.6
 (optional=templinst)_ZN5boost6detail17sp_counted_impl_pIN3pcl11KdTreeFLANNINS2_8PointXYZEN5flann9L2_SimpleIfEEEEED0Ev@Base 1.6
 (optional=templinst)_ZN5boost6detail17sp_counted_impl_pIN3pcl11KdTreeFLANNINS2_8PointXYZEN5flann9L2_SimpleIfEEEEED1Ev@Base 1.6
 (optional=templinst)_ZN5boost6detail17sp_counted_impl_pIN3pcl11KdTreeFLANNINS2_8PointXYZEN5flann9L2_SimpleIfEEEEED2Ev@Base 1.6
 (optional=templinst)_ZN5boost6detail17sp_counted_impl_pIN3pcl11KdTreeFLANNINS2_9PointXYZIEN5flann9L2_SimpleIfEEEEE11get_deleterERKSt9type_info@Base 1.6
 (optional=templinst)_ZN5boost6detail17sp_counted_impl_pIN3pcl11KdTreeFLANNINS2_9PointXYZIEN5flann9L2_SimpleIfEEEEE7disposeEv@Base 1.6
 (optional=templinst)_ZN5boost6detail17sp_counted_impl_pIN3pcl11KdTreeFLANNINS2_9PointXYZIEN5flann9L2_SimpleIfEEEEED0Ev@Base 1.6
 (optional=templinst)_ZN5boost6detail17sp_counted_impl_pIN3pcl11KdTreeFLANNINS2_9PointXYZIEN5flann9L2_SimpleIfEEEEED1Ev@Base 1.6
 (optional=templinst)_ZN5boost6detail17sp_counted_impl_pIN3pcl11KdTreeFLANNINS2_9PointXYZIEN5flann9L2_SimpleIfEEEEED2Ev@Base 1.6
 (optional=templinst)_ZN5boost6detail17sp_counted_impl_pIN3pcl11KdTreeFLANNINS2_9PointXYZLEN5flann9L2_SimpleIfEEEEE11get_deleterERKSt9type_info@Base 1.6
 (optional=templinst)_ZN5boost6detail17sp_counted_impl_pIN3pcl11KdTreeFLANNINS2_9PointXYZLEN5flann9L2_SimpleIfEEEEE7disposeEv@Base 1.6
 (optional=templinst)_ZN5boost6detail17sp_counted_impl_pIN3pcl11KdTreeFLANNINS2_9PointXYZLEN5flann9L2_SimpleIfEEEEED0Ev@Base 1.6
 (optional=templinst)_ZN5boost6detail17sp_counted_impl_pIN3pcl11KdTreeFLANNINS2_9PointXYZLEN5flann9L2_SimpleIfEEEEED1Ev@Base 1.6
 (optional=templinst)_ZN5boost6detail17sp_counted_impl_pIN3pcl11KdTreeFLANNINS2_9PointXYZLEN5flann9L2_SimpleIfEEEEED2Ev@Base 1.6
 (optional=templinst)_ZN5boost6detail17sp_counted_impl_pIN3pcl26DefaultPointRepresentationINS2_11PointNormalEEEE11get_deleterERKSt9type_info@Base 1.6
 (optional=templinst)_ZN5boost6detail17sp_counted_impl_pIN3pcl26DefaultPointRepresentationINS2_11PointNormalEEEE7disposeEv@Base 1.6
 (optional=templinst)_ZN5boost6detail17sp_counted_impl_pIN3pcl26DefaultPointRepresentationINS2_11PointNormalEEEED0Ev@Base 1.6
 (optional=templinst)_ZN5boost6detail17sp_counted_impl_pIN3pcl26DefaultPointRepresentationINS2_11PointNormalEEEED1Ev@Base 1.6
 (optional=templinst)_ZN5boost6detail17sp_counted_impl_pIN3pcl26DefaultPointRepresentationINS2_11PointNormalEEEED2Ev@Base 1.6
 (optional=templinst)_ZN5boost6detail17sp_counted_impl_pIN3pcl26DefaultPointRepresentationINS2_11PointXYZHSVEEEE11get_deleterERKSt9type_info@Base 1.6
 (optional=templinst)_ZN5boost6detail17sp_counted_impl_pIN3pcl26DefaultPointRepresentationINS2_11PointXYZHSVEEEE7disposeEv@Base 1.6
 (optional=templinst)_ZN5boost6detail17sp_counted_impl_pIN3pcl26DefaultPointRepresentationINS2_11PointXYZHSVEEEED0Ev@Base 1.6
 (optional=templinst)_ZN5boost6detail17sp_counted_impl_pIN3pcl26DefaultPointRepresentationINS2_11PointXYZHSVEEEED1Ev@Base 1.6
 (optional=templinst)_ZN5boost6detail17sp_counted_impl_pIN3pcl26DefaultPointRepresentationINS2_11PointXYZHSVEEEED2Ev@Base 1.6
 (optional=templinst)_ZN5boost6detail17sp_counted_impl_pIN3pcl26DefaultPointRepresentationINS2_11PointXYZRGBEEEE11get_deleterERKSt9type_info@Base 1.6
 (optional=templinst)_ZN5boost6detail17sp_counted_impl_pIN3pcl26DefaultPointRepresentationINS2_11PointXYZRGBEEEE7disposeEv@Base 1.6
 (optional=templinst)_ZN5boost6detail17sp_counted_impl_pIN3pcl26DefaultPointRepresentationINS2_11PointXYZRGBEEEED0Ev@Base 1.6
 (optional=templinst)_ZN5boost6detail17sp_counted_impl_pIN3pcl26DefaultPointRepresentationINS2_11PointXYZRGBEEEED1Ev@Base 1.6
 (optional=templinst)_ZN5boost6detail17sp_counted_impl_pIN3pcl26DefaultPointRepresentationINS2_11PointXYZRGBEEEED2Ev@Base 1.6
 (optional=templinst)_ZN5boost6detail17sp_counted_impl_pIN3pcl26DefaultPointRepresentationINS2_12PPFSignatureEEEE11get_deleterERKSt9type_info@Base 1.6
 (optional=templinst)_ZN5boost6detail17sp_counted_impl_pIN3pcl26DefaultPointRepresentationINS2_12PPFSignatureEEEE7disposeEv@Base 1.6
 (optional=templinst)_ZN5boost6detail17sp_counted_impl_pIN3pcl26DefaultPointRepresentationINS2_12PPFSignatureEEEED0Ev@Base 1.6
 (optional=templinst)_ZN5boost6detail17sp_counted_impl_pIN3pcl26DefaultPointRepresentationINS2_12PPFSignatureEEEED1Ev@Base 1.6
 (optional=templinst)_ZN5boost6detail17sp_counted_impl_pIN3pcl26DefaultPointRepresentationINS2_12PPFSignatureEEEED2Ev@Base 1.6
 (optional=templinst)_ZN5boost6detail17sp_counted_impl_pIN3pcl26DefaultPointRepresentationINS2_12PointXYZRGBAEEEE11get_deleterERKSt9type_info@Base 1.6
 (optional=templinst)_ZN5boost6detail17sp_counted_impl_pIN3pcl26DefaultPointRepresentationINS2_12PointXYZRGBAEEEE7disposeEv@Base 1.6
 (optional=templinst)_ZN5boost6detail17sp_counted_impl_pIN3pcl26DefaultPointRepresentationINS2_12PointXYZRGBAEEEED0Ev@Base 1.6
 (optional=templinst)_ZN5boost6detail17sp_counted_impl_pIN3pcl26DefaultPointRepresentationINS2_12PointXYZRGBAEEEED1Ev@Base 1.6
 (optional=templinst)_ZN5boost6detail17sp_counted_impl_pIN3pcl26DefaultPointRepresentationINS2_12PointXYZRGBAEEEED2Ev@Base 1.6
 (optional=templinst)_ZN5boost6detail17sp_counted_impl_pIN3pcl26DefaultPointRepresentationINS2_12PointXYZRGBLEEEE11get_deleterERKSt9type_info@Base 1.6
 (optional=templinst)_ZN5boost6detail17sp_counted_impl_pIN3pcl26DefaultPointRepresentationINS2_12PointXYZRGBLEEEE7disposeEv@Base 1.6
 (optional=templinst)_ZN5boost6detail17sp_counted_impl_pIN3pcl26DefaultPointRepresentationINS2_12PointXYZRGBLEEEED0Ev@Base 1.6
 (optional=templinst)_ZN5boost6detail17sp_counted_impl_pIN3pcl26DefaultPointRepresentationINS2_12PointXYZRGBLEEEED1Ev@Base 1.6
 (optional=templinst)_ZN5boost6detail17sp_counted_impl_pIN3pcl26DefaultPointRepresentationINS2_12PointXYZRGBLEEEED2Ev@Base 1.6
 (optional=templinst)_ZN5boost6detail17sp_counted_impl_pIN3pcl26DefaultPointRepresentationINS2_13InterestPointEEEE11get_deleterERKSt9type_info@Base 1.6
 (optional=templinst)_ZN5boost6detail17sp_counted_impl_pIN3pcl26DefaultPointRepresentationINS2_13InterestPointEEEE7disposeEv@Base 1.6
 (optional=templinst)_ZN5boost6detail17sp_counted_impl_pIN3pcl26DefaultPointRepresentationINS2_13InterestPointEEEED0Ev@Base 1.6
 (optional=templinst)_ZN5boost6detail17sp_counted_impl_pIN3pcl26DefaultPointRepresentationINS2_13InterestPointEEEED1Ev@Base 1.6
 (optional=templinst)_ZN5boost6detail17sp_counted_impl_pIN3pcl26DefaultPointRepresentationINS2_13InterestPointEEEED2Ev@Base 1.6
 (optional=templinst)_ZN5boost6detail17sp_counted_impl_pIN3pcl26DefaultPointRepresentationINS2_14PointWithRangeEEEE11get_deleterERKSt9type_info@Base 1.6
 (optional=templinst)_ZN5boost6detail17sp_counted_impl_pIN3pcl26DefaultPointRepresentationINS2_14PointWithRangeEEEE7disposeEv@Base 1.6
 (optional=templinst)_ZN5boost6detail17sp_counted_impl_pIN3pcl26DefaultPointRepresentationINS2_14PointWithRangeEEEED0Ev@Base 1.6
 (optional=templinst)_ZN5boost6detail17sp_counted_impl_pIN3pcl26DefaultPointRepresentationINS2_14PointWithRangeEEEED1Ev@Base 1.6
 (optional=templinst)_ZN5boost6detail17sp_counted_impl_pIN3pcl26DefaultPointRepresentationINS2_14PointWithRangeEEEED2Ev@Base 1.6
 (optional=templinst)_ZN5boost6detail17sp_counted_impl_pIN3pcl26DefaultPointRepresentationINS2_14PointWithScaleEEEE11get_deleterERKSt9type_info@Base 1.6
 (optional=templinst)_ZN5boost6detail17sp_counted_impl_pIN3pcl26DefaultPointRepresentationINS2_14PointWithScaleEEEE7disposeEv@Base 1.6
 (optional=templinst)_ZN5boost6detail17sp_counted_impl_pIN3pcl26DefaultPointRepresentationINS2_14PointWithScaleEEEED0Ev@Base 1.6
 (optional=templinst)_ZN5boost6detail17sp_counted_impl_pIN3pcl26DefaultPointRepresentationINS2_14PointWithScaleEEEED1Ev@Base 1.6
 (optional=templinst)_ZN5boost6detail17sp_counted_impl_pIN3pcl26DefaultPointRepresentationINS2_14PointWithScaleEEEED2Ev@Base 1.6
 (optional=templinst)_ZN5boost6detail17sp_counted_impl_pIN3pcl26DefaultPointRepresentationINS2_14ReferenceFrameEEEE11get_deleterERKSt9type_info@Base 1.6
 (optional=templinst)_ZN5boost6detail17sp_counted_impl_pIN3pcl26DefaultPointRepresentationINS2_14ReferenceFrameEEEE7disposeEv@Base 1.6
 (optional=templinst)_ZN5boost6detail17sp_counted_impl_pIN3pcl26DefaultPointRepresentationINS2_14ReferenceFrameEEEED0Ev@Base 1.6
 (optional=templinst)_ZN5boost6detail17sp_counted_impl_pIN3pcl26DefaultPointRepresentationINS2_14ReferenceFrameEEEED1Ev@Base 1.6
 (optional=templinst)_ZN5boost6detail17sp_counted_impl_pIN3pcl26DefaultPointRepresentationINS2_14ReferenceFrameEEEED2Ev@Base 1.6
 (optional=templinst)_ZN5boost6detail17sp_counted_impl_pIN3pcl26DefaultPointRepresentationINS2_15ESFSignature640EEEE11get_deleterERKSt9type_info@Base 1.6
 (optional=templinst)_ZN5boost6detail17sp_counted_impl_pIN3pcl26DefaultPointRepresentationINS2_15ESFSignature640EEEE7disposeEv@Base 1.6
 (optional=templinst)_ZN5boost6detail17sp_counted_impl_pIN3pcl26DefaultPointRepresentationINS2_15ESFSignature640EEEED0Ev@Base 1.6
 (optional=templinst)_ZN5boost6detail17sp_counted_impl_pIN3pcl26DefaultPointRepresentationINS2_15ESFSignature640EEEED1Ev@Base 1.6
 (optional=templinst)_ZN5boost6detail17sp_counted_impl_pIN3pcl26DefaultPointRepresentationINS2_15ESFSignature640EEEED2Ev@Base 1.6
 (optional=templinst)_ZN5boost6detail17sp_counted_impl_pIN3pcl26DefaultPointRepresentationINS2_15FPFHSignature33EEEE11get_deleterERKSt9type_info@Base 1.6
 (optional=templinst)_ZN5boost6detail17sp_counted_impl_pIN3pcl26DefaultPointRepresentationINS2_15FPFHSignature33EEEE7disposeEv@Base 1.6
 (optional=templinst)_ZN5boost6detail17sp_counted_impl_pIN3pcl26DefaultPointRepresentationINS2_15FPFHSignature33EEEED0Ev@Base 1.6
 (optional=templinst)_ZN5boost6detail17sp_counted_impl_pIN3pcl26DefaultPointRepresentationINS2_15FPFHSignature33EEEED1Ev@Base 1.6
 (optional=templinst)_ZN5boost6detail17sp_counted_impl_pIN3pcl26DefaultPointRepresentationINS2_15FPFHSignature33EEEED2Ev@Base 1.6
 (optional=templinst)_ZN5boost6detail17sp_counted_impl_pIN3pcl26DefaultPointRepresentationINS2_15PFHSignature125EEEE11get_deleterERKSt9type_info@Base 1.6
 (optional=templinst)_ZN5boost6detail17sp_counted_impl_pIN3pcl26DefaultPointRepresentationINS2_15PFHSignature125EEEE7disposeEv@Base 1.6
 (optional=templinst)_ZN5boost6detail17sp_counted_impl_pIN3pcl26DefaultPointRepresentationINS2_15PFHSignature125EEEED0Ev@Base 1.6
 (optional=templinst)_ZN5boost6detail17sp_counted_impl_pIN3pcl26DefaultPointRepresentationINS2_15PFHSignature125EEEED1Ev@Base 1.6
 (optional=templinst)_ZN5boost6detail17sp_counted_impl_pIN3pcl26DefaultPointRepresentationINS2_15PFHSignature125EEEED2Ev@Base 1.6
 (optional=templinst)_ZN5boost6detail17sp_counted_impl_pIN3pcl26DefaultPointRepresentationINS2_15PPFRGBSignatureEEEE11get_deleterERKSt9type_info@Base 1.6
 (optional=templinst)_ZN5boost6detail17sp_counted_impl_pIN3pcl26DefaultPointRepresentationINS2_15PPFRGBSignatureEEEE7disposeEv@Base 1.6
 (optional=templinst)_ZN5boost6detail17sp_counted_impl_pIN3pcl26DefaultPointRepresentationINS2_15PPFRGBSignatureEEEED0Ev@Base 1.6
 (optional=templinst)_ZN5boost6detail17sp_counted_impl_pIN3pcl26DefaultPointRepresentationINS2_15PPFRGBSignatureEEEED1Ev@Base 1.6
 (optional=templinst)_ZN5boost6detail17sp_counted_impl_pIN3pcl26DefaultPointRepresentationINS2_15PPFRGBSignatureEEEED2Ev@Base 1.6
 (optional=templinst)_ZN5boost6detail17sp_counted_impl_pIN3pcl26DefaultPointRepresentationINS2_15PointXYZINormalEEEE11get_deleterERKSt9type_info@Base 1.6
 (optional=templinst)_ZN5boost6detail17sp_counted_impl_pIN3pcl26DefaultPointRepresentationINS2_15PointXYZINormalEEEE7disposeEv@Base 1.6
 (optional=templinst)_ZN5boost6detail17sp_counted_impl_pIN3pcl26DefaultPointRepresentationINS2_15PointXYZINormalEEEED0Ev@Base 1.6
 (optional=templinst)_ZN5boost6detail17sp_counted_impl_pIN3pcl26DefaultPointRepresentationINS2_15PointXYZINormalEEEED1Ev@Base 1.6
 (optional=templinst)_ZN5boost6detail17sp_counted_impl_pIN3pcl26DefaultPointRepresentationINS2_15PointXYZINormalEEEED2Ev@Base 1.6
 (optional=templinst)_ZN5boost6detail17sp_counted_impl_pIN3pcl26DefaultPointRepresentationINS2_15VFHSignature308EEEE11get_deleterERKSt9type_info@Base 1.6
 (optional=templinst)_ZN5boost6detail17sp_counted_impl_pIN3pcl26DefaultPointRepresentationINS2_15VFHSignature308EEEE7disposeEv@Base 1.6
 (optional=templinst)_ZN5boost6detail17sp_counted_impl_pIN3pcl26DefaultPointRepresentationINS2_15VFHSignature308EEEED0Ev@Base 1.6
 (optional=templinst)_ZN5boost6detail17sp_counted_impl_pIN3pcl26DefaultPointRepresentationINS2_15VFHSignature308EEEED1Ev@Base 1.6
 (optional=templinst)_ZN5boost6detail17sp_counted_impl_pIN3pcl26DefaultPointRepresentationINS2_15VFHSignature308EEEED2Ev@Base 1.6
 (optional=templinst)_ZN5boost6detail17sp_counted_impl_pIN3pcl26DefaultPointRepresentationINS2_16MomentInvariantsEEEE11get_deleterERKSt9type_info@Base 1.6
 (optional=templinst)_ZN5boost6detail17sp_counted_impl_pIN3pcl26DefaultPointRepresentationINS2_16MomentInvariantsEEEE7disposeEv@Base 1.6
 (optional=templinst)_ZN5boost6detail17sp_counted_impl_pIN3pcl26DefaultPointRepresentationINS2_16MomentInvariantsEEEED0Ev@Base 1.6
 (optional=templinst)_ZN5boost6detail17sp_counted_impl_pIN3pcl26DefaultPointRepresentationINS2_16MomentInvariantsEEEED1Ev@Base 1.6
 (optional=templinst)_ZN5boost6detail17sp_counted_impl_pIN3pcl26DefaultPointRepresentationINS2_16MomentInvariantsEEEED2Ev@Base 1.6
 (optional=templinst)_ZN5boost6detail17sp_counted_impl_pIN3pcl26DefaultPointRepresentationINS2_17IntensityGradientEEEE11get_deleterERKSt9type_info@Base 1.6
 (optional=templinst)_ZN5boost6detail17sp_counted_impl_pIN3pcl26DefaultPointRepresentationINS2_17IntensityGradientEEEE7disposeEv@Base 1.6
 (optional=templinst)_ZN5boost6detail17sp_counted_impl_pIN3pcl26DefaultPointRepresentationINS2_17IntensityGradientEEEED0Ev@Base 1.6
 (optional=templinst)_ZN5boost6detail17sp_counted_impl_pIN3pcl26DefaultPointRepresentationINS2_17IntensityGradientEEEED1Ev@Base 1.6
 (optional=templinst)_ZN5boost6detail17sp_counted_impl_pIN3pcl26DefaultPointRepresentationINS2_17IntensityGradientEEEED2Ev@Base 1.6
 (optional=templinst)_ZN5boost6detail17sp_counted_impl_pIN3pcl26DefaultPointRepresentationINS2_17PointXYZRGBNormalEEEE11get_deleterERKSt9type_info@Base 1.6
 (optional=templinst)_ZN5boost6detail17sp_counted_impl_pIN3pcl26DefaultPointRepresentationINS2_17PointXYZRGBNormalEEEE7disposeEv@Base 1.6
 (optional=templinst)_ZN5boost6detail17sp_counted_impl_pIN3pcl26DefaultPointRepresentationINS2_17PointXYZRGBNormalEEEED0Ev@Base 1.6
 (optional=templinst)_ZN5boost6detail17sp_counted_impl_pIN3pcl26DefaultPointRepresentationINS2_17PointXYZRGBNormalEEEED1Ev@Base 1.6
 (optional=templinst)_ZN5boost6detail17sp_counted_impl_pIN3pcl26DefaultPointRepresentationINS2_17PointXYZRGBNormalEEEED2Ev@Base 1.6
 (optional=templinst)_ZN5boost6detail17sp_counted_impl_pIN3pcl26DefaultPointRepresentationINS2_17PrincipalRadiiRSDEEEE11get_deleterERKSt9type_info@Base 1.6
 (optional=templinst)_ZN5boost6detail17sp_counted_impl_pIN3pcl26DefaultPointRepresentationINS2_17PrincipalRadiiRSDEEEE7disposeEv@Base 1.6
 (optional=templinst)_ZN5boost6detail17sp_counted_impl_pIN3pcl26DefaultPointRepresentationINS2_17PrincipalRadiiRSDEEEED0Ev@Base 1.6
 (optional=templinst)_ZN5boost6detail17sp_counted_impl_pIN3pcl26DefaultPointRepresentationINS2_17PrincipalRadiiRSDEEEED1Ev@Base 1.6
 (optional=templinst)_ZN5boost6detail17sp_counted_impl_pIN3pcl26DefaultPointRepresentationINS2_17PrincipalRadiiRSDEEEED2Ev@Base 1.6
 (optional=templinst)_ZN5boost6detail17sp_counted_impl_pIN3pcl26DefaultPointRepresentationINS2_18PFHRGBSignature250EEEE11get_deleterERKSt9type_info@Base 1.6
 (optional=templinst)_ZN5boost6detail17sp_counted_impl_pIN3pcl26DefaultPointRepresentationINS2_18PFHRGBSignature250EEEE7disposeEv@Base 1.6
 (optional=templinst)_ZN5boost6detail17sp_counted_impl_pIN3pcl26DefaultPointRepresentationINS2_18PFHRGBSignature250EEEED0Ev@Base 1.6
 (optional=templinst)_ZN5boost6detail17sp_counted_impl_pIN3pcl26DefaultPointRepresentationINS2_18PFHRGBSignature250EEEED1Ev@Base 1.6
 (optional=templinst)_ZN5boost6detail17sp_counted_impl_pIN3pcl26DefaultPointRepresentationINS2_18PFHRGBSignature250EEEED2Ev@Base 1.6
 (optional=templinst)_ZN5boost6detail17sp_counted_impl_pIN3pcl26DefaultPointRepresentationINS2_18PointWithViewpointEEEE11get_deleterERKSt9type_info@Base 1.6
 (optional=templinst)_ZN5boost6detail17sp_counted_impl_pIN3pcl26DefaultPointRepresentationINS2_18PointWithViewpointEEEE7disposeEv@Base 1.6
 (optional=templinst)_ZN5boost6detail17sp_counted_impl_pIN3pcl26DefaultPointRepresentationINS2_18PointWithViewpointEEEED0Ev@Base 1.6
 (optional=templinst)_ZN5boost6detail17sp_counted_impl_pIN3pcl26DefaultPointRepresentationINS2_18PointWithViewpointEEEED1Ev@Base 1.6
 (optional=templinst)_ZN5boost6detail17sp_counted_impl_pIN3pcl26DefaultPointRepresentationINS2_18PointWithViewpointEEEED2Ev@Base 1.6
 (optional=templinst)_ZN5boost6detail17sp_counted_impl_pIN3pcl26DefaultPointRepresentationINS2_19PrincipalCurvaturesEEEE11get_deleterERKSt9type_info@Base 1.6
 (optional=templinst)_ZN5boost6detail17sp_counted_impl_pIN3pcl26DefaultPointRepresentationINS2_19PrincipalCurvaturesEEEE7disposeEv@Base 1.6
 (optional=templinst)_ZN5boost6detail17sp_counted_impl_pIN3pcl26DefaultPointRepresentationINS2_19PrincipalCurvaturesEEEED0Ev@Base 1.6
 (optional=templinst)_ZN5boost6detail17sp_counted_impl_pIN3pcl26DefaultPointRepresentationINS2_19PrincipalCurvaturesEEEED1Ev@Base 1.6
 (optional=templinst)_ZN5boost6detail17sp_counted_impl_pIN3pcl26DefaultPointRepresentationINS2_19PrincipalCurvaturesEEEED2Ev@Base 1.6
 (optional=templinst)_ZN5boost6detail17sp_counted_impl_pIN3pcl26DefaultPointRepresentationINS2_22NormalBasedSignature12EEEE11get_deleterERKSt9type_info@Base 1.6
 (optional=templinst)_ZN5boost6detail17sp_counted_impl_pIN3pcl26DefaultPointRepresentationINS2_22NormalBasedSignature12EEEE7disposeEv@Base 1.6
 (optional=templinst)_ZN5boost6detail17sp_counted_impl_pIN3pcl26DefaultPointRepresentationINS2_22NormalBasedSignature12EEEED0Ev@Base 1.6
 (optional=templinst)_ZN5boost6detail17sp_counted_impl_pIN3pcl26DefaultPointRepresentationINS2_22NormalBasedSignature12EEEED1Ev@Base 1.6
 (optional=templinst)_ZN5boost6detail17sp_counted_impl_pIN3pcl26DefaultPointRepresentationINS2_22NormalBasedSignature12EEEED2Ev@Base 1.6
 (optional=templinst)_ZN5boost6detail17sp_counted_impl_pIN3pcl26DefaultPointRepresentationINS2_4AxisEEEE11get_deleterERKSt9type_info@Base 1.6
 (optional=templinst)_ZN5boost6detail17sp_counted_impl_pIN3pcl26DefaultPointRepresentationINS2_4AxisEEEE7disposeEv@Base 1.6
 (optional=templinst)_ZN5boost6detail17sp_counted_impl_pIN3pcl26DefaultPointRepresentationINS2_4AxisEEEED0Ev@Base 1.6
 (optional=templinst)_ZN5boost6detail17sp_counted_impl_pIN3pcl26DefaultPointRepresentationINS2_4AxisEEEED1Ev@Base 1.6
 (optional=templinst)_ZN5boost6detail17sp_counted_impl_pIN3pcl26DefaultPointRepresentationINS2_4AxisEEEED2Ev@Base 1.6
 (optional=templinst)_ZN5boost6detail17sp_counted_impl_pIN3pcl26DefaultPointRepresentationINS2_5LabelEEEE11get_deleterERKSt9type_info@Base 1.6
 (optional=templinst)_ZN5boost6detail17sp_counted_impl_pIN3pcl26DefaultPointRepresentationINS2_5LabelEEEE7disposeEv@Base 1.6
 (optional=templinst)_ZN5boost6detail17sp_counted_impl_pIN3pcl26DefaultPointRepresentationINS2_5LabelEEEED0Ev@Base 1.6
 (optional=templinst)_ZN5boost6detail17sp_counted_impl_pIN3pcl26DefaultPointRepresentationINS2_5LabelEEEED1Ev@Base 1.6
 (optional=templinst)_ZN5boost6detail17sp_counted_impl_pIN3pcl26DefaultPointRepresentationINS2_5LabelEEEED2Ev@Base 1.6
 (optional=templinst)_ZN5boost6detail17sp_counted_impl_pIN3pcl26DefaultPointRepresentationINS2_6Narf36EEEE11get_deleterERKSt9type_info@Base 1.6
 (optional=templinst)_ZN5boost6detail17sp_counted_impl_pIN3pcl26DefaultPointRepresentationINS2_6Narf36EEEE7disposeEv@Base 1.6
 (optional=templinst)_ZN5boost6detail17sp_counted_impl_pIN3pcl26DefaultPointRepresentationINS2_6Narf36EEEED0Ev@Base 1.6
 (optional=templinst)_ZN5boost6detail17sp_counted_impl_pIN3pcl26DefaultPointRepresentationINS2_6Narf36EEEED1Ev@Base 1.6
 (optional=templinst)_ZN5boost6detail17sp_counted_impl_pIN3pcl26DefaultPointRepresentationINS2_6Narf36EEEED2Ev@Base 1.6
 (optional=templinst)_ZN5boost6detail17sp_counted_impl_pIN3pcl26DefaultPointRepresentationINS2_6NormalEEEE11get_deleterERKSt9type_info@Base 1.6
 (optional=templinst)_ZN5boost6detail17sp_counted_impl_pIN3pcl26DefaultPointRepresentationINS2_6NormalEEEE7disposeEv@Base 1.6
 (optional=templinst)_ZN5boost6detail17sp_counted_impl_pIN3pcl26DefaultPointRepresentationINS2_6NormalEEEED0Ev@Base 1.6
 (optional=templinst)_ZN5boost6detail17sp_counted_impl_pIN3pcl26DefaultPointRepresentationINS2_6NormalEEEED1Ev@Base 1.6
 (optional=templinst)_ZN5boost6detail17sp_counted_impl_pIN3pcl26DefaultPointRepresentationINS2_6NormalEEEED2Ev@Base 1.6
 (optional=templinst)_ZN5boost6detail17sp_counted_impl_pIN3pcl26DefaultPointRepresentationINS2_7PointXYEEEE11get_deleterERKSt9type_info@Base 1.6
 (optional=templinst)_ZN5boost6detail17sp_counted_impl_pIN3pcl26DefaultPointRepresentationINS2_7PointXYEEEE7disposeEv@Base 1.6
 (optional=templinst)_ZN5boost6detail17sp_counted_impl_pIN3pcl26DefaultPointRepresentationINS2_7PointXYEEEED0Ev@Base 1.6
 (optional=templinst)_ZN5boost6detail17sp_counted_impl_pIN3pcl26DefaultPointRepresentationINS2_7PointXYEEEED1Ev@Base 1.6
 (optional=templinst)_ZN5boost6detail17sp_counted_impl_pIN3pcl26DefaultPointRepresentationINS2_7PointXYEEEED2Ev@Base 1.6
 (optional=templinst)_ZN5boost6detail17sp_counted_impl_pIN3pcl26DefaultPointRepresentationINS2_8BoundaryEEEE11get_deleterERKSt9type_info@Base 1.6
 (optional=templinst)_ZN5boost6detail17sp_counted_impl_pIN3pcl26DefaultPointRepresentationINS2_8BoundaryEEEE7disposeEv@Base 1.6
 (optional=templinst)_ZN5boost6detail17sp_counted_impl_pIN3pcl26DefaultPointRepresentationINS2_8BoundaryEEEED0Ev@Base 1.6
 (optional=templinst)_ZN5boost6detail17sp_counted_impl_pIN3pcl26DefaultPointRepresentationINS2_8BoundaryEEEED1Ev@Base 1.6
 (optional=templinst)_ZN5boost6detail17sp_counted_impl_pIN3pcl26DefaultPointRepresentationINS2_8BoundaryEEEED2Ev@Base 1.6
 (optional=templinst)_ZN5boost6detail17sp_counted_impl_pIN3pcl26DefaultPointRepresentationINS2_8PointXYZEEEE11get_deleterERKSt9type_info@Base 1.6
 (optional=templinst)_ZN5boost6detail17sp_counted_impl_pIN3pcl26DefaultPointRepresentationINS2_8PointXYZEEEE7disposeEv@Base 1.6
 (optional=templinst)_ZN5boost6detail17sp_counted_impl_pIN3pcl26DefaultPointRepresentationINS2_8PointXYZEEEED0Ev@Base 1.6
 (optional=templinst)_ZN5boost6detail17sp_counted_impl_pIN3pcl26DefaultPointRepresentationINS2_8PointXYZEEEED1Ev@Base 1.6
 (optional=templinst)_ZN5boost6detail17sp_counted_impl_pIN3pcl26DefaultPointRepresentationINS2_8PointXYZEEEED2Ev@Base 1.6
 (optional=templinst)_ZN5boost6detail17sp_counted_impl_pIN3pcl26DefaultPointRepresentationINS2_9PointXYZIEEEE11get_deleterERKSt9type_info@Base 1.6
 (optional=templinst)_ZN5boost6detail17sp_counted_impl_pIN3pcl26DefaultPointRepresentationINS2_9PointXYZIEEEE7disposeEv@Base 1.6
 (optional=templinst)_ZN5boost6detail17sp_counted_impl_pIN3pcl26DefaultPointRepresentationINS2_9PointXYZIEEEED0Ev@Base 1.6
 (optional=templinst)_ZN5boost6detail17sp_counted_impl_pIN3pcl26DefaultPointRepresentationINS2_9PointXYZIEEEED1Ev@Base 1.6
 (optional=templinst)_ZN5boost6detail17sp_counted_impl_pIN3pcl26DefaultPointRepresentationINS2_9PointXYZIEEEED2Ev@Base 1.6
 (optional=templinst)_ZN5boost6detail17sp_counted_impl_pIN3pcl26DefaultPointRepresentationINS2_9PointXYZLEEEE11get_deleterERKSt9type_info@Base 1.6
 (optional=templinst)_ZN5boost6detail17sp_counted_impl_pIN3pcl26DefaultPointRepresentationINS2_9PointXYZLEEEE7disposeEv@Base 1.6
 (optional=templinst)_ZN5boost6detail17sp_counted_impl_pIN3pcl26DefaultPointRepresentationINS2_9PointXYZLEEEED0Ev@Base 1.6
 (optional=templinst)_ZN5boost6detail17sp_counted_impl_pIN3pcl26DefaultPointRepresentationINS2_9PointXYZLEEEED1Ev@Base 1.6
 (optional=templinst)_ZN5boost6detail17sp_counted_impl_pIN3pcl26DefaultPointRepresentationINS2_9PointXYZLEEEED2Ev@Base 1.6
 (optional=templinst)_ZN5boost6detail17sp_counted_impl_pIN3pcl6octree22OctreePointCloudSearchINS2_11PointNormalENS3_26OctreeContainerDataTVectorIiEENS3_20OctreeContainerEmptyIiEEEEE11get_deleterERKSt9type_info@Base 1.6
 (optional=templinst)_ZN5boost6detail17sp_counted_impl_pIN3pcl6octree22OctreePointCloudSearchINS2_11PointNormalENS3_26OctreeContainerDataTVectorIiEENS3_20OctreeContainerEmptyIiEEEEE7disposeEv@Base 1.6
 (optional=templinst)_ZN5boost6detail17sp_counted_impl_pIN3pcl6octree22OctreePointCloudSearchINS2_11PointNormalENS3_26OctreeContainerDataTVectorIiEENS3_20OctreeContainerEmptyIiEEEEED0Ev@Base 1.6
 (optional=templinst)_ZN5boost6detail17sp_counted_impl_pIN3pcl6octree22OctreePointCloudSearchINS2_11PointNormalENS3_26OctreeContainerDataTVectorIiEENS3_20OctreeContainerEmptyIiEEEEED1Ev@Base 1.6
 (optional=templinst)_ZN5boost6detail17sp_counted_impl_pIN3pcl6octree22OctreePointCloudSearchINS2_11PointNormalENS3_26OctreeContainerDataTVectorIiEENS3_20OctreeContainerEmptyIiEEEEED2Ev@Base 1.6
 (optional=templinst)_ZN5boost6detail17sp_counted_impl_pIN3pcl6octree22OctreePointCloudSearchINS2_11PointXYZHSVENS3_26OctreeContainerDataTVectorIiEENS3_20OctreeContainerEmptyIiEEEEE11get_deleterERKSt9type_info@Base 1.6
 (optional=templinst)_ZN5boost6detail17sp_counted_impl_pIN3pcl6octree22OctreePointCloudSearchINS2_11PointXYZHSVENS3_26OctreeContainerDataTVectorIiEENS3_20OctreeContainerEmptyIiEEEEE7disposeEv@Base 1.6
 (optional=templinst)_ZN5boost6detail17sp_counted_impl_pIN3pcl6octree22OctreePointCloudSearchINS2_11PointXYZHSVENS3_26OctreeContainerDataTVectorIiEENS3_20OctreeContainerEmptyIiEEEEED0Ev@Base 1.6
 (optional=templinst)_ZN5boost6detail17sp_counted_impl_pIN3pcl6octree22OctreePointCloudSearchINS2_11PointXYZHSVENS3_26OctreeContainerDataTVectorIiEENS3_20OctreeContainerEmptyIiEEEEED1Ev@Base 1.6
 (optional=templinst)_ZN5boost6detail17sp_counted_impl_pIN3pcl6octree22OctreePointCloudSearchINS2_11PointXYZHSVENS3_26OctreeContainerDataTVectorIiEENS3_20OctreeContainerEmptyIiEEEEED2Ev@Base 1.6
 (optional=templinst)_ZN5boost6detail17sp_counted_impl_pIN3pcl6octree22OctreePointCloudSearchINS2_11PointXYZRGBENS3_26OctreeContainerDataTVectorIiEENS3_20OctreeContainerEmptyIiEEEEE11get_deleterERKSt9type_info@Base 1.6
 (optional=templinst)_ZN5boost6detail17sp_counted_impl_pIN3pcl6octree22OctreePointCloudSearchINS2_11PointXYZRGBENS3_26OctreeContainerDataTVectorIiEENS3_20OctreeContainerEmptyIiEEEEE7disposeEv@Base 1.6
 (optional=templinst)_ZN5boost6detail17sp_counted_impl_pIN3pcl6octree22OctreePointCloudSearchINS2_11PointXYZRGBENS3_26OctreeContainerDataTVectorIiEENS3_20OctreeContainerEmptyIiEEEEED0Ev@Base 1.6
 (optional=templinst)_ZN5boost6detail17sp_counted_impl_pIN3pcl6octree22OctreePointCloudSearchINS2_11PointXYZRGBENS3_26OctreeContainerDataTVectorIiEENS3_20OctreeContainerEmptyIiEEEEED1Ev@Base 1.6
 (optional=templinst)_ZN5boost6detail17sp_counted_impl_pIN3pcl6octree22OctreePointCloudSearchINS2_11PointXYZRGBENS3_26OctreeContainerDataTVectorIiEENS3_20OctreeContainerEmptyIiEEEEED2Ev@Base 1.6
 (optional=templinst)_ZN5boost6detail17sp_counted_impl_pIN3pcl6octree22OctreePointCloudSearchINS2_12PointXYZRGBAENS3_26OctreeContainerDataTVectorIiEENS3_20OctreeContainerEmptyIiEEEEE11get_deleterERKSt9type_info@Base 1.6
 (optional=templinst)_ZN5boost6detail17sp_counted_impl_pIN3pcl6octree22OctreePointCloudSearchINS2_12PointXYZRGBAENS3_26OctreeContainerDataTVectorIiEENS3_20OctreeContainerEmptyIiEEEEE7disposeEv@Base 1.6
 (optional=templinst)_ZN5boost6detail17sp_counted_impl_pIN3pcl6octree22OctreePointCloudSearchINS2_12PointXYZRGBAENS3_26OctreeContainerDataTVectorIiEENS3_20OctreeContainerEmptyIiEEEEED0Ev@Base 1.6
 (optional=templinst)_ZN5boost6detail17sp_counted_impl_pIN3pcl6octree22OctreePointCloudSearchINS2_12PointXYZRGBAENS3_26OctreeContainerDataTVectorIiEENS3_20OctreeContainerEmptyIiEEEEED1Ev@Base 1.6
 (optional=templinst)_ZN5boost6detail17sp_counted_impl_pIN3pcl6octree22OctreePointCloudSearchINS2_12PointXYZRGBAENS3_26OctreeContainerDataTVectorIiEENS3_20OctreeContainerEmptyIiEEEEED2Ev@Base 1.6
 (optional=templinst)_ZN5boost6detail17sp_counted_impl_pIN3pcl6octree22OctreePointCloudSearchINS2_12PointXYZRGBLENS3_26OctreeContainerDataTVectorIiEENS3_20OctreeContainerEmptyIiEEEEE11get_deleterERKSt9type_info@Base 1.6
 (optional=templinst)_ZN5boost6detail17sp_counted_impl_pIN3pcl6octree22OctreePointCloudSearchINS2_12PointXYZRGBLENS3_26OctreeContainerDataTVectorIiEENS3_20OctreeContainerEmptyIiEEEEE7disposeEv@Base 1.6
 (optional=templinst)_ZN5boost6detail17sp_counted_impl_pIN3pcl6octree22OctreePointCloudSearchINS2_12PointXYZRGBLENS3_26OctreeContainerDataTVectorIiEENS3_20OctreeContainerEmptyIiEEEEED0Ev@Base 1.6
 (optional=templinst)_ZN5boost6detail17sp_counted_impl_pIN3pcl6octree22OctreePointCloudSearchINS2_12PointXYZRGBLENS3_26OctreeContainerDataTVectorIiEENS3_20OctreeContainerEmptyIiEEEEED1Ev@Base 1.6
 (optional=templinst)_ZN5boost6detail17sp_counted_impl_pIN3pcl6octree22OctreePointCloudSearchINS2_12PointXYZRGBLENS3_26OctreeContainerDataTVectorIiEENS3_20OctreeContainerEmptyIiEEEEED2Ev@Base 1.6
 (optional=templinst)_ZN5boost6detail17sp_counted_impl_pIN3pcl6octree22OctreePointCloudSearchINS2_13InterestPointENS3_26OctreeContainerDataTVectorIiEENS3_20OctreeContainerEmptyIiEEEEE11get_deleterERKSt9type_info@Base 1.6
 (optional=templinst)_ZN5boost6detail17sp_counted_impl_pIN3pcl6octree22OctreePointCloudSearchINS2_13InterestPointENS3_26OctreeContainerDataTVectorIiEENS3_20OctreeContainerEmptyIiEEEEE7disposeEv@Base 1.6
 (optional=templinst)_ZN5boost6detail17sp_counted_impl_pIN3pcl6octree22OctreePointCloudSearchINS2_13InterestPointENS3_26OctreeContainerDataTVectorIiEENS3_20OctreeContainerEmptyIiEEEEED0Ev@Base 1.6
 (optional=templinst)_ZN5boost6detail17sp_counted_impl_pIN3pcl6octree22OctreePointCloudSearchINS2_13InterestPointENS3_26OctreeContainerDataTVectorIiEENS3_20OctreeContainerEmptyIiEEEEED1Ev@Base 1.6
 (optional=templinst)_ZN5boost6detail17sp_counted_impl_pIN3pcl6octree22OctreePointCloudSearchINS2_13InterestPointENS3_26OctreeContainerDataTVectorIiEENS3_20OctreeContainerEmptyIiEEEEED2Ev@Base 1.6
 (optional=templinst)_ZN5boost6detail17sp_counted_impl_pIN3pcl6octree22OctreePointCloudSearchINS2_14PointWithRangeENS3_26OctreeContainerDataTVectorIiEENS3_20OctreeContainerEmptyIiEEEEE11get_deleterERKSt9type_info@Base 1.6
 (optional=templinst)_ZN5boost6detail17sp_counted_impl_pIN3pcl6octree22OctreePointCloudSearchINS2_14PointWithRangeENS3_26OctreeContainerDataTVectorIiEENS3_20OctreeContainerEmptyIiEEEEE7disposeEv@Base 1.6
 (optional=templinst)_ZN5boost6detail17sp_counted_impl_pIN3pcl6octree22OctreePointCloudSearchINS2_14PointWithRangeENS3_26OctreeContainerDataTVectorIiEENS3_20OctreeContainerEmptyIiEEEEED0Ev@Base 1.6
 (optional=templinst)_ZN5boost6detail17sp_counted_impl_pIN3pcl6octree22OctreePointCloudSearchINS2_14PointWithRangeENS3_26OctreeContainerDataTVectorIiEENS3_20OctreeContainerEmptyIiEEEEED1Ev@Base 1.6
 (optional=templinst)_ZN5boost6detail17sp_counted_impl_pIN3pcl6octree22OctreePointCloudSearchINS2_14PointWithRangeENS3_26OctreeContainerDataTVectorIiEENS3_20OctreeContainerEmptyIiEEEEED2Ev@Base 1.6
 (optional=templinst)_ZN5boost6detail17sp_counted_impl_pIN3pcl6octree22OctreePointCloudSearchINS2_14PointWithScaleENS3_26OctreeContainerDataTVectorIiEENS3_20OctreeContainerEmptyIiEEEEE11get_deleterERKSt9type_info@Base 1.6
 (optional=templinst)_ZN5boost6detail17sp_counted_impl_pIN3pcl6octree22OctreePointCloudSearchINS2_14PointWithScaleENS3_26OctreeContainerDataTVectorIiEENS3_20OctreeContainerEmptyIiEEEEE7disposeEv@Base 1.6
 (optional=templinst)_ZN5boost6detail17sp_counted_impl_pIN3pcl6octree22OctreePointCloudSearchINS2_14PointWithScaleENS3_26OctreeContainerDataTVectorIiEENS3_20OctreeContainerEmptyIiEEEEED0Ev@Base 1.6
 (optional=templinst)_ZN5boost6detail17sp_counted_impl_pIN3pcl6octree22OctreePointCloudSearchINS2_14PointWithScaleENS3_26OctreeContainerDataTVectorIiEENS3_20OctreeContainerEmptyIiEEEEED1Ev@Base 1.6
 (optional=templinst)_ZN5boost6detail17sp_counted_impl_pIN3pcl6octree22OctreePointCloudSearchINS2_14PointWithScaleENS3_26OctreeContainerDataTVectorIiEENS3_20OctreeContainerEmptyIiEEEEED2Ev@Base 1.6
 (optional=templinst)_ZN5boost6detail17sp_counted_impl_pIN3pcl6octree22OctreePointCloudSearchINS2_15PointXYZINormalENS3_26OctreeContainerDataTVectorIiEENS3_20OctreeContainerEmptyIiEEEEE11get_deleterERKSt9type_info@Base 1.6
 (optional=templinst)_ZN5boost6detail17sp_counted_impl_pIN3pcl6octree22OctreePointCloudSearchINS2_15PointXYZINormalENS3_26OctreeContainerDataTVectorIiEENS3_20OctreeContainerEmptyIiEEEEE7disposeEv@Base 1.6
 (optional=templinst)_ZN5boost6detail17sp_counted_impl_pIN3pcl6octree22OctreePointCloudSearchINS2_15PointXYZINormalENS3_26OctreeContainerDataTVectorIiEENS3_20OctreeContainerEmptyIiEEEEED0Ev@Base 1.6
 (optional=templinst)_ZN5boost6detail17sp_counted_impl_pIN3pcl6octree22OctreePointCloudSearchINS2_15PointXYZINormalENS3_26OctreeContainerDataTVectorIiEENS3_20OctreeContainerEmptyIiEEEEED1Ev@Base 1.6
 (optional=templinst)_ZN5boost6detail17sp_counted_impl_pIN3pcl6octree22OctreePointCloudSearchINS2_15PointXYZINormalENS3_26OctreeContainerDataTVectorIiEENS3_20OctreeContainerEmptyIiEEEEED2Ev@Base 1.6
 (optional=templinst)_ZN5boost6detail17sp_counted_impl_pIN3pcl6octree22OctreePointCloudSearchINS2_17PointXYZRGBNormalENS3_26OctreeContainerDataTVectorIiEENS3_20OctreeContainerEmptyIiEEEEE11get_deleterERKSt9type_info@Base 1.6
 (optional=templinst)_ZN5boost6detail17sp_counted_impl_pIN3pcl6octree22OctreePointCloudSearchINS2_17PointXYZRGBNormalENS3_26OctreeContainerDataTVectorIiEENS3_20OctreeContainerEmptyIiEEEEE7disposeEv@Base 1.6
 (optional=templinst)_ZN5boost6detail17sp_counted_impl_pIN3pcl6octree22OctreePointCloudSearchINS2_17PointXYZRGBNormalENS3_26OctreeContainerDataTVectorIiEENS3_20OctreeContainerEmptyIiEEEEED0Ev@Base 1.6
 (optional=templinst)_ZN5boost6detail17sp_counted_impl_pIN3pcl6octree22OctreePointCloudSearchINS2_17PointXYZRGBNormalENS3_26OctreeContainerDataTVectorIiEENS3_20OctreeContainerEmptyIiEEEEED1Ev@Base 1.6
 (optional=templinst)_ZN5boost6detail17sp_counted_impl_pIN3pcl6octree22OctreePointCloudSearchINS2_17PointXYZRGBNormalENS3_26OctreeContainerDataTVectorIiEENS3_20OctreeContainerEmptyIiEEEEED2Ev@Base 1.6
 (optional=templinst)_ZN5boost6detail17sp_counted_impl_pIN3pcl6octree22OctreePointCloudSearchINS2_18PointWithViewpointENS3_26OctreeContainerDataTVectorIiEENS3_20OctreeContainerEmptyIiEEEEE11get_deleterERKSt9type_info@Base 1.6
 (optional=templinst)_ZN5boost6detail17sp_counted_impl_pIN3pcl6octree22OctreePointCloudSearchINS2_18PointWithViewpointENS3_26OctreeContainerDataTVectorIiEENS3_20OctreeContainerEmptyIiEEEEE7disposeEv@Base 1.6
 (optional=templinst)_ZN5boost6detail17sp_counted_impl_pIN3pcl6octree22OctreePointCloudSearchINS2_18PointWithViewpointENS3_26OctreeContainerDataTVectorIiEENS3_20OctreeContainerEmptyIiEEEEED0Ev@Base 1.6
 (optional=templinst)_ZN5boost6detail17sp_counted_impl_pIN3pcl6octree22OctreePointCloudSearchINS2_18PointWithViewpointENS3_26OctreeContainerDataTVectorIiEENS3_20OctreeContainerEmptyIiEEEEED1Ev@Base 1.6
 (optional=templinst)_ZN5boost6detail17sp_counted_impl_pIN3pcl6octree22OctreePointCloudSearchINS2_18PointWithViewpointENS3_26OctreeContainerDataTVectorIiEENS3_20OctreeContainerEmptyIiEEEEED2Ev@Base 1.6
 (optional=templinst)_ZN5boost6detail17sp_counted_impl_pIN3pcl6octree22OctreePointCloudSearchINS2_8PointXYZENS3_26OctreeContainerDataTVectorIiEENS3_20OctreeContainerEmptyIiEEEEE11get_deleterERKSt9type_info@Base 1.6
 (optional=templinst)_ZN5boost6detail17sp_counted_impl_pIN3pcl6octree22OctreePointCloudSearchINS2_8PointXYZENS3_26OctreeContainerDataTVectorIiEENS3_20OctreeContainerEmptyIiEEEEE7disposeEv@Base 1.6
 (optional=templinst)_ZN5boost6detail17sp_counted_impl_pIN3pcl6octree22OctreePointCloudSearchINS2_8PointXYZENS3_26OctreeContainerDataTVectorIiEENS3_20OctreeContainerEmptyIiEEEEED0Ev@Base 1.6
 (optional=templinst)_ZN5boost6detail17sp_counted_impl_pIN3pcl6octree22OctreePointCloudSearchINS2_8PointXYZENS3_26OctreeContainerDataTVectorIiEENS3_20OctreeContainerEmptyIiEEEEED1Ev@Base 1.6
 (optional=templinst)_ZN5boost6detail17sp_counted_impl_pIN3pcl6octree22OctreePointCloudSearchINS2_8PointXYZENS3_26OctreeContainerDataTVectorIiEENS3_20OctreeContainerEmptyIiEEEEED2Ev@Base 1.6
 (optional=templinst)_ZN5boost6detail17sp_counted_impl_pIN3pcl6octree22OctreePointCloudSearchINS2_9PointXYZIENS3_26OctreeContainerDataTVectorIiEENS3_20OctreeContainerEmptyIiEEEEE11get_deleterERKSt9type_info@Base 1.6
 (optional=templinst)_ZN5boost6detail17sp_counted_impl_pIN3pcl6octree22OctreePointCloudSearchINS2_9PointXYZIENS3_26OctreeContainerDataTVectorIiEENS3_20OctreeContainerEmptyIiEEEEE7disposeEv@Base 1.6
 (optional=templinst)_ZN5boost6detail17sp_counted_impl_pIN3pcl6octree22OctreePointCloudSearchINS2_9PointXYZIENS3_26OctreeContainerDataTVectorIiEENS3_20OctreeContainerEmptyIiEEEEED0Ev@Base 1.6
 (optional=templinst)_ZN5boost6detail17sp_counted_impl_pIN3pcl6octree22OctreePointCloudSearchINS2_9PointXYZIENS3_26OctreeContainerDataTVectorIiEENS3_20OctreeContainerEmptyIiEEEEED1Ev@Base 1.6
 (optional=templinst)_ZN5boost6detail17sp_counted_impl_pIN3pcl6octree22OctreePointCloudSearchINS2_9PointXYZIENS3_26OctreeContainerDataTVectorIiEENS3_20OctreeContainerEmptyIiEEEEED2Ev@Base 1.6
 (optional=templinst)_ZN5boost6detail17sp_counted_impl_pIN3pcl6octree22OctreePointCloudSearchINS2_9PointXYZLENS3_26OctreeContainerDataTVectorIiEENS3_20OctreeContainerEmptyIiEEEEE11get_deleterERKSt9type_info@Base 1.6
 (optional=templinst)_ZN5boost6detail17sp_counted_impl_pIN3pcl6octree22OctreePointCloudSearchINS2_9PointXYZLENS3_26OctreeContainerDataTVectorIiEENS3_20OctreeContainerEmptyIiEEEEE7disposeEv@Base 1.6
 (optional=templinst)_ZN5boost6detail17sp_counted_impl_pIN3pcl6octree22OctreePointCloudSearchINS2_9PointXYZLENS3_26OctreeContainerDataTVectorIiEENS3_20OctreeContainerEmptyIiEEEEED0Ev@Base 1.6
 (optional=templinst)_ZN5boost6detail17sp_counted_impl_pIN3pcl6octree22OctreePointCloudSearchINS2_9PointXYZLENS3_26OctreeContainerDataTVectorIiEENS3_20OctreeContainerEmptyIiEEEEED1Ev@Base 1.6
 (optional=templinst)_ZN5boost6detail17sp_counted_impl_pIN3pcl6octree22OctreePointCloudSearchINS2_9PointXYZLENS3_26OctreeContainerDataTVectorIiEENS3_20OctreeContainerEmptyIiEEEEED2Ev@Base 1.6
 (optional=templinst)_ZN5flann12KNNResultSetIfE8addPointEfm@Base 1.6
 (optional=templinst)_ZN5flann12KNNResultSetIfEC1Ei@Base 1.6
 (optional=templinst)_ZN5flann12KNNResultSetIfEC2Ei@Base 1.6
 (optional=templinst)_ZN5flann12KNNResultSetIfED0Ev@Base 1.6
 (optional=templinst)_ZN5flann12KNNResultSetIfED1Ev@Base 1.6
 (optional=templinst)_ZN5flann12KNNResultSetIfED2Ev@Base 1.6
 (optional=templinst)_ZN5flann13KNNResultSet2IfE8addPointEfm@Base 1.6
 (optional=templinst)_ZN5flann13KNNResultSet2IfED0Ev@Base 1.6
 (optional=templinst)_ZN5flann13KNNResultSet2IfED1Ev@Base 1.6
 (optional=templinst)_ZN5flann13KNNResultSet2IfED2Ev@Base 1.6
 (optional=templinst)_ZN5flann15UniqueResultSetIfED0Ev@Base 1.6
 (optional=templinst)_ZN5flann15UniqueResultSetIfED1Ev@Base 1.6
 (optional=templinst)_ZN5flann15UniqueResultSetIfED2Ev@Base 1.6
 (optional=templinst)_ZN5flann18KNNSimpleResultSetIfE8addPointEfm@Base 1.6
 (optional=templinst)_ZN5flann18KNNSimpleResultSetIfEC1Em@Base 1.6
 (optional=templinst)_ZN5flann18KNNSimpleResultSetIfEC2Em@Base 1.6
 (optional=templinst)_ZN5flann18KNNSimpleResultSetIfED0Ev@Base 1.6
 (optional=templinst)_ZN5flann18KNNSimpleResultSetIfED1Ev@Base 1.6
 (optional=templinst)_ZN5flann18KNNSimpleResultSetIfED2Ev@Base 1.6
 (optional=templinst)_ZN5flann18KNNUniqueResultSetIfE8addPointEfm@Base 1.6
 (optional=templinst)_ZN5flann18KNNUniqueResultSetIfED0Ev@Base 1.6
 (optional=templinst)_ZN5flann18KNNUniqueResultSetIfED1Ev@Base 1.6
 (optional=templinst)_ZN5flann18KNNUniqueResultSetIfED2Ev@Base 1.6
 (optional=templinst)_ZN5flann9ResultSetIfED0Ev@Base 1.6
 (optional=templinst)_ZN5flann9ResultSetIfED1Ev@Base 1.6
 (optional=templinst)_ZN5flann9ResultSetIfED2Ev@Base 1.6
 (optional=templinst)_ZNK3pcl11KdTreeFLANNINS_11PointNormalEN5flann9L2_SimpleIfEEE7getNameEv@Base 1.6
 (optional=templinst)_ZNK3pcl11KdTreeFLANNINS_11PointXYZHSVEN5flann9L2_SimpleIfEEE7getNameEv@Base 1.6
 (optional=templinst)_ZNK3pcl11KdTreeFLANNINS_11PointXYZRGBEN5flann9L2_SimpleIfEEE7getNameEv@Base 1.6
 (optional=templinst)_ZNK3pcl11KdTreeFLANNINS_12PPFSignatureEN5flann9L2_SimpleIfEEE7getNameEv@Base 1.6
 (optional=templinst)_ZNK3pcl11KdTreeFLANNINS_12PointXYZRGBAEN5flann9L2_SimpleIfEEE7getNameEv@Base 1.6
 (optional=templinst)_ZNK3pcl11KdTreeFLANNINS_12PointXYZRGBLEN5flann9L2_SimpleIfEEE7getNameEv@Base 1.6
 (optional=templinst)_ZNK3pcl11KdTreeFLANNINS_13InterestPointEN5flann9L2_SimpleIfEEE7getNameEv@Base 1.6
 (optional=templinst)_ZNK3pcl11KdTreeFLANNINS_14PointWithRangeEN5flann9L2_SimpleIfEEE7getNameEv@Base 1.6
 (optional=templinst)_ZNK3pcl11KdTreeFLANNINS_14PointWithScaleEN5flann9L2_SimpleIfEEE7getNameEv@Base 1.6
 (optional=templinst)_ZNK3pcl11KdTreeFLANNINS_14ReferenceFrameEN5flann9L2_SimpleIfEEE7getNameEv@Base 1.6
 (optional=templinst)_ZNK3pcl11KdTreeFLANNINS_15ESFSignature640EN5flann9L2_SimpleIfEEE7getNameEv@Base 1.6
 (optional=templinst)_ZNK3pcl11KdTreeFLANNINS_15FPFHSignature33EN5flann9L2_SimpleIfEEE7getNameEv@Base 1.6
 (optional=templinst)_ZNK3pcl11KdTreeFLANNINS_15PFHSignature125EN5flann9L2_SimpleIfEEE7getNameEv@Base 1.6
 (optional=templinst)_ZNK3pcl11KdTreeFLANNINS_15PPFRGBSignatureEN5flann9L2_SimpleIfEEE7getNameEv@Base 1.6
 (optional=templinst)_ZNK3pcl11KdTreeFLANNINS_15PointXYZINormalEN5flann9L2_SimpleIfEEE7getNameEv@Base 1.6
 (optional=templinst)_ZNK3pcl11KdTreeFLANNINS_15VFHSignature308EN5flann9L2_SimpleIfEEE7getNameEv@Base 1.6
 (optional=templinst)_ZNK3pcl11KdTreeFLANNINS_16MomentInvariantsEN5flann9L2_SimpleIfEEE7getNameEv@Base 1.6
 (optional=templinst)_ZNK3pcl11KdTreeFLANNINS_17IntensityGradientEN5flann9L2_SimpleIfEEE7getNameEv@Base 1.6
 (optional=templinst)_ZNK3pcl11KdTreeFLANNINS_17PointXYZRGBNormalEN5flann9L2_SimpleIfEEE7getNameEv@Base 1.6
 (optional=templinst)_ZNK3pcl11KdTreeFLANNINS_17PrincipalRadiiRSDEN5flann9L2_SimpleIfEEE7getNameEv@Base 1.6
 (optional=templinst)_ZNK3pcl11KdTreeFLANNINS_18PFHRGBSignature250EN5flann9L2_SimpleIfEEE7getNameEv@Base 1.6
 (optional=templinst)_ZNK3pcl11KdTreeFLANNINS_18PointWithViewpointEN5flann9L2_SimpleIfEEE7getNameEv@Base 1.6
 (optional=templinst)_ZNK3pcl11KdTreeFLANNINS_19PrincipalCurvaturesEN5flann9L2_SimpleIfEEE7getNameEv@Base 1.6
 (optional=templinst)_ZNK3pcl11KdTreeFLANNINS_22NormalBasedSignature12EN5flann9L2_SimpleIfEEE7getNameEv@Base 1.6
 (optional=templinst)_ZNK3pcl11KdTreeFLANNINS_4AxisEN5flann9L2_SimpleIfEEE7getNameEv@Base 1.6
 (optional=templinst)_ZNK3pcl11KdTreeFLANNINS_5LabelEN5flann9L2_SimpleIfEEE7getNameEv@Base 1.6
 (optional=templinst)_ZNK3pcl11KdTreeFLANNINS_6Narf36EN5flann9L2_SimpleIfEEE7getNameEv@Base 1.6
 (optional=templinst)_ZNK3pcl11KdTreeFLANNINS_6NormalEN5flann9L2_SimpleIfEEE7getNameEv@Base 1.6
 (optional=templinst)_ZNK3pcl11KdTreeFLANNINS_7PointXYEN5flann9L2_SimpleIfEEE7getNameEv@Base 1.6
 (optional=templinst)_ZNK3pcl11KdTreeFLANNINS_8BoundaryEN5flann9L2_SimpleIfEEE7getNameEv@Base 1.6
 (optional=templinst)_ZNK3pcl11KdTreeFLANNINS_8PointXYZEN5flann9L2_SimpleIfEEE7getNameEv@Base 1.6
 (optional=templinst)_ZNK3pcl11KdTreeFLANNINS_9PointXYZIEN5flann9L2_SimpleIfEEE7getNameEv@Base 1.6
 (optional=templinst)_ZNK3pcl11KdTreeFLANNINS_9PointXYZLEN5flann9L2_SimpleIfEEE7getNameEv@Base 1.6
 (optional=templinst)_ZNK3pcl19PointRepresentationINS_11PointNormalEE7isValidERKS1_@Base 1.6
 (optional=templinst)_ZNK3pcl19PointRepresentationINS_11PointXYZHSVEE7isValidERKS1_@Base 1.6
 (optional=templinst)_ZNK3pcl19PointRepresentationINS_11PointXYZRGBEE7isValidERKS1_@Base 1.6
 (optional=templinst)_ZNK3pcl19PointRepresentationINS_12PPFSignatureEE7isValidERKS1_@Base 1.6
 (optional=templinst)_ZNK3pcl19PointRepresentationINS_12PointXYZRGBAEE7isValidERKS1_@Base 1.6
 (optional=templinst)_ZNK3pcl19PointRepresentationINS_12PointXYZRGBLEE7isValidERKS1_@Base 1.6
 (optional=templinst)_ZNK3pcl19PointRepresentationINS_13InterestPointEE7isValidERKS1_@Base 1.6
 (optional=templinst)_ZNK3pcl19PointRepresentationINS_14PointWithRangeEE7isValidERKS1_@Base 1.6
 (optional=templinst)_ZNK3pcl19PointRepresentationINS_14PointWithScaleEE7isValidERKS1_@Base 1.6
 (optional=templinst)_ZNK3pcl19PointRepresentationINS_14ReferenceFrameEE7isValidERKS1_@Base 1.6
 (optional=templinst)_ZNK3pcl19PointRepresentationINS_15ESFSignature640EE7isValidERKS1_@Base 1.6
 (optional=templinst)_ZNK3pcl19PointRepresentationINS_15FPFHSignature33EE7isValidERKS1_@Base 1.6
 (optional=templinst)_ZNK3pcl19PointRepresentationINS_15PFHSignature125EE7isValidERKS1_@Base 1.6
 (optional=templinst)_ZNK3pcl19PointRepresentationINS_15PPFRGBSignatureEE7isValidERKS1_@Base 1.6
 (optional=templinst)_ZNK3pcl19PointRepresentationINS_15PointXYZINormalEE7isValidERKS1_@Base 1.6
 (optional=templinst)_ZNK3pcl19PointRepresentationINS_15VFHSignature308EE7isValidERKS1_@Base 1.6
 (optional=templinst)_ZNK3pcl19PointRepresentationINS_16MomentInvariantsEE7isValidERKS1_@Base 1.6
 (optional=templinst)_ZNK3pcl19PointRepresentationINS_17IntensityGradientEE7isValidERKS1_@Base 1.6
 (optional=templinst)_ZNK3pcl19PointRepresentationINS_17PointXYZRGBNormalEE7isValidERKS1_@Base 1.6
 (optional=templinst)_ZNK3pcl19PointRepresentationINS_17PrincipalRadiiRSDEE7isValidERKS1_@Base 1.6
 (optional=templinst)_ZNK3pcl19PointRepresentationINS_18PFHRGBSignature250EE7isValidERKS1_@Base 1.6
 (optional=templinst)_ZNK3pcl19PointRepresentationINS_18PointWithViewpointEE7isValidERKS1_@Base 1.6
 (optional=templinst)_ZNK3pcl19PointRepresentationINS_19PrincipalCurvaturesEE7isValidERKS1_@Base 1.6
 (optional=templinst)_ZNK3pcl19PointRepresentationINS_22NormalBasedSignature12EE7isValidERKS1_@Base 1.6
 (optional=templinst)_ZNK3pcl19PointRepresentationINS_4AxisEE7isValidERKS1_@Base 1.6
 (optional=templinst)_ZNK3pcl19PointRepresentationINS_5LabelEE7isValidERKS1_@Base 1.6
 (optional=templinst)_ZNK3pcl19PointRepresentationINS_6Narf36EE7isValidERKS1_@Base 1.6
 (optional=templinst)_ZNK3pcl19PointRepresentationINS_6NormalEE7isValidERKS1_@Base 1.6
 (optional=templinst)_ZNK3pcl19PointRepresentationINS_7PointXYEE7isValidERKS1_@Base 1.6
 (optional=templinst)_ZNK3pcl19PointRepresentationINS_8BoundaryEE7isValidERKS1_@Base 1.6
 (optional=templinst)_ZNK3pcl19PointRepresentationINS_8PointXYZEE7isValidERKS1_@Base 1.6
 (optional=templinst)_ZNK3pcl19PointRepresentationINS_9PointXYZIEE7isValidERKS1_@Base 1.6
 (optional=templinst)_ZNK3pcl19PointRepresentationINS_9PointXYZLEE7isValidERKS1_@Base 1.6
 (optional=templinst)_ZNK3pcl26DefaultPointRepresentationINS_11PointNormalEE16copyToFloatArrayERKS1_Pf@Base 1.6
 (optional=templinst)_ZNK3pcl26DefaultPointRepresentationINS_11PointXYZHSVEE16copyToFloatArrayERKS1_Pf@Base 1.6
 (optional=templinst)_ZNK3pcl26DefaultPointRepresentationINS_11PointXYZRGBEE16copyToFloatArrayERKS1_Pf@Base 1.6
 (optional=templinst)_ZNK3pcl26DefaultPointRepresentationINS_12PPFSignatureEE16copyToFloatArrayERKS1_Pf@Base 1.6
 (optional=templinst)_ZNK3pcl26DefaultPointRepresentationINS_12PointXYZRGBAEE16copyToFloatArrayERKS1_Pf@Base 1.6
 (optional=templinst)_ZNK3pcl26DefaultPointRepresentationINS_12PointXYZRGBLEE16copyToFloatArrayERKS1_Pf@Base 1.6
 (optional=templinst)_ZNK3pcl26DefaultPointRepresentationINS_13InterestPointEE16copyToFloatArrayERKS1_Pf@Base 1.6
 (optional=templinst)_ZNK3pcl26DefaultPointRepresentationINS_14PointWithRangeEE16copyToFloatArrayERKS1_Pf@Base 1.6
 (optional=templinst)_ZNK3pcl26DefaultPointRepresentationINS_14PointWithScaleEE16copyToFloatArrayERKS1_Pf@Base 1.6
 (optional=templinst)_ZNK3pcl26DefaultPointRepresentationINS_14ReferenceFrameEE16copyToFloatArrayERKS1_Pf@Base 1.6
 (optional=templinst)_ZNK3pcl26DefaultPointRepresentationINS_15ESFSignature640EE16copyToFloatArrayERKS1_Pf@Base 1.6
 (optional=templinst)_ZNK3pcl26DefaultPointRepresentationINS_15PPFRGBSignatureEE16copyToFloatArrayERKS1_Pf@Base 1.6
 (optional=templinst)_ZNK3pcl26DefaultPointRepresentationINS_15PointXYZINormalEE16copyToFloatArrayERKS1_Pf@Base 1.6
 (optional=templinst)_ZNK3pcl26DefaultPointRepresentationINS_16MomentInvariantsEE16copyToFloatArrayERKS1_Pf@Base 1.6
 (optional=templinst)_ZNK3pcl26DefaultPointRepresentationINS_17IntensityGradientEE16copyToFloatArrayERKS1_Pf@Base 1.6
 (optional=templinst)_ZNK3pcl26DefaultPointRepresentationINS_17PointXYZRGBNormalEE16copyToFloatArrayERKS1_Pf@Base 1.6
 (optional=templinst)_ZNK3pcl26DefaultPointRepresentationINS_17PrincipalRadiiRSDEE16copyToFloatArrayERKS1_Pf@Base 1.6
 (optional=templinst)_ZNK3pcl26DefaultPointRepresentationINS_18PointWithViewpointEE16copyToFloatArrayERKS1_Pf@Base 1.6
 (optional=templinst)_ZNK3pcl26DefaultPointRepresentationINS_19PrincipalCurvaturesEE16copyToFloatArrayERKS1_Pf@Base 1.6
 (optional=templinst)_ZNK3pcl26DefaultPointRepresentationINS_4AxisEE16copyToFloatArrayERKS1_Pf@Base 1.6
 (optional=templinst)_ZNK3pcl26DefaultPointRepresentationINS_5LabelEE16copyToFloatArrayERKS1_Pf@Base 1.6
 (optional=templinst)_ZNK3pcl26DefaultPointRepresentationINS_6Narf36EE16copyToFloatArrayERKS1_Pf@Base 1.6
 (optional=templinst)_ZNK3pcl26DefaultPointRepresentationINS_6NormalEE16copyToFloatArrayERKS1_Pf@Base 1.6
 (optional=templinst)_ZNK3pcl26DefaultPointRepresentationINS_7PointXYEE16copyToFloatArrayERKS1_Pf@Base 1.6
 (optional=templinst)_ZNK3pcl26DefaultPointRepresentationINS_8BoundaryEE16copyToFloatArrayERKS1_Pf@Base 1.6
 (optional=templinst)_ZNK3pcl26DefaultPointRepresentationINS_8PointXYZEE16copyToFloatArrayERKS1_Pf@Base 1.6
 (optional=templinst)_ZNK3pcl26DefaultPointRepresentationINS_9PointXYZIEE16copyToFloatArrayERKS1_Pf@Base 1.6
 (optional=templinst)_ZNK3pcl26DefaultPointRepresentationINS_9PointXYZLEE16copyToFloatArrayERKS1_Pf@Base 1.6
 (optional=templinst)_ZNK3pcl28DefaultFeatureRepresentationINS_12PPFSignatureEE16copyToFloatArrayERKS1_Pf@Base 1.6
 (optional=templinst)_ZNK3pcl28DefaultFeatureRepresentationINS_15FPFHSignature33EE16copyToFloatArrayERKS1_Pf@Base 1.6
 (optional=templinst)_ZNK3pcl28DefaultFeatureRepresentationINS_15PFHSignature125EE16copyToFloatArrayERKS1_Pf@Base 1.6
 (optional=templinst)_ZNK3pcl28DefaultFeatureRepresentationINS_15VFHSignature308EE16copyToFloatArrayERKS1_Pf@Base 1.6
 (optional=templinst)_ZNK3pcl28DefaultFeatureRepresentationINS_18PFHRGBSignature250EE16copyToFloatArrayERKS1_Pf@Base 1.6
 (optional=templinst)_ZNK3pcl28DefaultFeatureRepresentationINS_22NormalBasedSignature12EE16copyToFloatArrayERKS1_Pf@Base 1.6
 (optional=templinst)_ZNK3pcl6KdTreeINS_11PointNormalEE12radiusSearchERKNS_10PointCloudIS1_EEidRSt6vectorIiSaIiEERS7_IfSaIfEEj@Base 1.6
 (optional=templinst)_ZNK3pcl6KdTreeINS_11PointNormalEE12radiusSearchEidRSt6vectorIiSaIiEERS3_IfSaIfEEj@Base 1.6
 (optional=templinst)_ZNK3pcl6KdTreeINS_11PointNormalEE14nearestKSearchERKNS_10PointCloudIS1_EEiiRSt6vectorIiSaIiEERS7_IfSaIfEE@Base 1.6
 (optional=templinst)_ZNK3pcl6KdTreeINS_11PointNormalEE14nearestKSearchEiiRSt6vectorIiSaIiEERS3_IfSaIfEE@Base 1.6
 (optional=templinst)_ZNK3pcl6KdTreeINS_11PointXYZHSVEE12radiusSearchERKNS_10PointCloudIS1_EEidRSt6vectorIiSaIiEERS7_IfSaIfEEj@Base 1.6
 (optional=templinst)_ZNK3pcl6KdTreeINS_11PointXYZHSVEE12radiusSearchEidRSt6vectorIiSaIiEERS3_IfSaIfEEj@Base 1.6
 (optional=templinst)_ZNK3pcl6KdTreeINS_11PointXYZHSVEE14nearestKSearchERKNS_10PointCloudIS1_EEiiRSt6vectorIiSaIiEERS7_IfSaIfEE@Base 1.6
 (optional=templinst)_ZNK3pcl6KdTreeINS_11PointXYZHSVEE14nearestKSearchEiiRSt6vectorIiSaIiEERS3_IfSaIfEE@Base 1.6
 (optional=templinst)_ZNK3pcl6KdTreeINS_11PointXYZRGBEE12radiusSearchERKNS_10PointCloudIS1_EEidRSt6vectorIiSaIiEERS7_IfSaIfEEj@Base 1.6
 (optional=templinst)_ZNK3pcl6KdTreeINS_11PointXYZRGBEE12radiusSearchEidRSt6vectorIiSaIiEERS3_IfSaIfEEj@Base 1.6
 (optional=templinst)_ZNK3pcl6KdTreeINS_11PointXYZRGBEE14nearestKSearchERKNS_10PointCloudIS1_EEiiRSt6vectorIiSaIiEERS7_IfSaIfEE@Base 1.6
 (optional=templinst)_ZNK3pcl6KdTreeINS_11PointXYZRGBEE14nearestKSearchEiiRSt6vectorIiSaIiEERS3_IfSaIfEE@Base 1.6
 (optional=templinst)_ZNK3pcl6KdTreeINS_12PPFSignatureEE12radiusSearchERKNS_10PointCloudIS1_EEidRSt6vectorIiSaIiEERS7_IfSaIfEEj@Base 1.6
 (optional=templinst)_ZNK3pcl6KdTreeINS_12PPFSignatureEE12radiusSearchEidRSt6vectorIiSaIiEERS3_IfSaIfEEj@Base 1.6
 (optional=templinst)_ZNK3pcl6KdTreeINS_12PPFSignatureEE14nearestKSearchERKNS_10PointCloudIS1_EEiiRSt6vectorIiSaIiEERS7_IfSaIfEE@Base 1.6
 (optional=templinst)_ZNK3pcl6KdTreeINS_12PPFSignatureEE14nearestKSearchEiiRSt6vectorIiSaIiEERS3_IfSaIfEE@Base 1.6
 (optional=templinst)_ZNK3pcl6KdTreeINS_12PointXYZRGBAEE12radiusSearchERKNS_10PointCloudIS1_EEidRSt6vectorIiSaIiEERS7_IfSaIfEEj@Base 1.6
 (optional=templinst)_ZNK3pcl6KdTreeINS_12PointXYZRGBAEE12radiusSearchEidRSt6vectorIiSaIiEERS3_IfSaIfEEj@Base 1.6
 (optional=templinst)_ZNK3pcl6KdTreeINS_12PointXYZRGBAEE14nearestKSearchERKNS_10PointCloudIS1_EEiiRSt6vectorIiSaIiEERS7_IfSaIfEE@Base 1.6
 (optional=templinst)_ZNK3pcl6KdTreeINS_12PointXYZRGBAEE14nearestKSearchEiiRSt6vectorIiSaIiEERS3_IfSaIfEE@Base 1.6
 (optional=templinst)_ZNK3pcl6KdTreeINS_12PointXYZRGBLEE12radiusSearchERKNS_10PointCloudIS1_EEidRSt6vectorIiSaIiEERS7_IfSaIfEEj@Base 1.6
 (optional=templinst)_ZNK3pcl6KdTreeINS_12PointXYZRGBLEE12radiusSearchEidRSt6vectorIiSaIiEERS3_IfSaIfEEj@Base 1.6
 (optional=templinst)_ZNK3pcl6KdTreeINS_12PointXYZRGBLEE14nearestKSearchERKNS_10PointCloudIS1_EEiiRSt6vectorIiSaIiEERS7_IfSaIfEE@Base 1.6
 (optional=templinst)_ZNK3pcl6KdTreeINS_12PointXYZRGBLEE14nearestKSearchEiiRSt6vectorIiSaIiEERS3_IfSaIfEE@Base 1.6
 (optional=templinst)_ZNK3pcl6KdTreeINS_13InterestPointEE12radiusSearchERKNS_10PointCloudIS1_EEidRSt6vectorIiSaIiEERS7_IfSaIfEEj@Base 1.6
 (optional=templinst)_ZNK3pcl6KdTreeINS_13InterestPointEE12radiusSearchEidRSt6vectorIiSaIiEERS3_IfSaIfEEj@Base 1.6
 (optional=templinst)_ZNK3pcl6KdTreeINS_13InterestPointEE14nearestKSearchERKNS_10PointCloudIS1_EEiiRSt6vectorIiSaIiEERS7_IfSaIfEE@Base 1.6
 (optional=templinst)_ZNK3pcl6KdTreeINS_13InterestPointEE14nearestKSearchEiiRSt6vectorIiSaIiEERS3_IfSaIfEE@Base 1.6
 (optional=templinst)_ZNK3pcl6KdTreeINS_14PointWithRangeEE12radiusSearchERKNS_10PointCloudIS1_EEidRSt6vectorIiSaIiEERS7_IfSaIfEEj@Base 1.6
 (optional=templinst)_ZNK3pcl6KdTreeINS_14PointWithRangeEE12radiusSearchEidRSt6vectorIiSaIiEERS3_IfSaIfEEj@Base 1.6
 (optional=templinst)_ZNK3pcl6KdTreeINS_14PointWithRangeEE14nearestKSearchERKNS_10PointCloudIS1_EEiiRSt6vectorIiSaIiEERS7_IfSaIfEE@Base 1.6
 (optional=templinst)_ZNK3pcl6KdTreeINS_14PointWithRangeEE14nearestKSearchEiiRSt6vectorIiSaIiEERS3_IfSaIfEE@Base 1.6
 (optional=templinst)_ZNK3pcl6KdTreeINS_14PointWithScaleEE12radiusSearchERKNS_10PointCloudIS1_EEidRSt6vectorIiSaIiEERS7_IfSaIfEEj@Base 1.6
 (optional=templinst)_ZNK3pcl6KdTreeINS_14PointWithScaleEE12radiusSearchEidRSt6vectorIiSaIiEERS3_IfSaIfEEj@Base 1.6
 (optional=templinst)_ZNK3pcl6KdTreeINS_14PointWithScaleEE14nearestKSearchERKNS_10PointCloudIS1_EEiiRSt6vectorIiSaIiEERS7_IfSaIfEE@Base 1.6
 (optional=templinst)_ZNK3pcl6KdTreeINS_14PointWithScaleEE14nearestKSearchEiiRSt6vectorIiSaIiEERS3_IfSaIfEE@Base 1.6
 (optional=templinst)_ZNK3pcl6KdTreeINS_14ReferenceFrameEE12radiusSearchERKNS_10PointCloudIS1_EEidRSt6vectorIiSaIiEERS7_IfSaIfEEj@Base 1.6
 (optional=templinst)_ZNK3pcl6KdTreeINS_14ReferenceFrameEE12radiusSearchEidRSt6vectorIiSaIiEERS3_IfSaIfEEj@Base 1.6
 (optional=templinst)_ZNK3pcl6KdTreeINS_14ReferenceFrameEE14nearestKSearchERKNS_10PointCloudIS1_EEiiRSt6vectorIiSaIiEERS7_IfSaIfEE@Base 1.6
 (optional=templinst)_ZNK3pcl6KdTreeINS_14ReferenceFrameEE14nearestKSearchEiiRSt6vectorIiSaIiEERS3_IfSaIfEE@Base 1.6
 (optional=templinst)_ZNK3pcl6KdTreeINS_15ESFSignature640EE12radiusSearchERKNS_10PointCloudIS1_EEidRSt6vectorIiSaIiEERS7_IfSaIfEEj@Base 1.6
 (optional=templinst)_ZNK3pcl6KdTreeINS_15ESFSignature640EE12radiusSearchEidRSt6vectorIiSaIiEERS3_IfSaIfEEj@Base 1.6
 (optional=templinst)_ZNK3pcl6KdTreeINS_15ESFSignature640EE14nearestKSearchERKNS_10PointCloudIS1_EEiiRSt6vectorIiSaIiEERS7_IfSaIfEE@Base 1.6
 (optional=templinst)_ZNK3pcl6KdTreeINS_15ESFSignature640EE14nearestKSearchEiiRSt6vectorIiSaIiEERS3_IfSaIfEE@Base 1.6
 (optional=templinst)_ZNK3pcl6KdTreeINS_15FPFHSignature33EE12radiusSearchERKNS_10PointCloudIS1_EEidRSt6vectorIiSaIiEERS7_IfSaIfEEj@Base 1.6
 (optional=templinst)_ZNK3pcl6KdTreeINS_15FPFHSignature33EE12radiusSearchEidRSt6vectorIiSaIiEERS3_IfSaIfEEj@Base 1.6
 (optional=templinst)_ZNK3pcl6KdTreeINS_15FPFHSignature33EE14nearestKSearchERKNS_10PointCloudIS1_EEiiRSt6vectorIiSaIiEERS7_IfSaIfEE@Base 1.6
 (optional=templinst)_ZNK3pcl6KdTreeINS_15FPFHSignature33EE14nearestKSearchEiiRSt6vectorIiSaIiEERS3_IfSaIfEE@Base 1.6
 (optional=templinst)_ZNK3pcl6KdTreeINS_15PFHSignature125EE12radiusSearchERKNS_10PointCloudIS1_EEidRSt6vectorIiSaIiEERS7_IfSaIfEEj@Base 1.6
 (optional=templinst)_ZNK3pcl6KdTreeINS_15PFHSignature125EE12radiusSearchEidRSt6vectorIiSaIiEERS3_IfSaIfEEj@Base 1.6
 (optional=templinst)_ZNK3pcl6KdTreeINS_15PFHSignature125EE14nearestKSearchERKNS_10PointCloudIS1_EEiiRSt6vectorIiSaIiEERS7_IfSaIfEE@Base 1.6
 (optional=templinst)_ZNK3pcl6KdTreeINS_15PFHSignature125EE14nearestKSearchEiiRSt6vectorIiSaIiEERS3_IfSaIfEE@Base 1.6
 (optional=templinst)_ZNK3pcl6KdTreeINS_15PPFRGBSignatureEE12radiusSearchERKNS_10PointCloudIS1_EEidRSt6vectorIiSaIiEERS7_IfSaIfEEj@Base 1.6
 (optional=templinst)_ZNK3pcl6KdTreeINS_15PPFRGBSignatureEE12radiusSearchEidRSt6vectorIiSaIiEERS3_IfSaIfEEj@Base 1.6
 (optional=templinst)_ZNK3pcl6KdTreeINS_15PPFRGBSignatureEE14nearestKSearchERKNS_10PointCloudIS1_EEiiRSt6vectorIiSaIiEERS7_IfSaIfEE@Base 1.6
 (optional=templinst)_ZNK3pcl6KdTreeINS_15PPFRGBSignatureEE14nearestKSearchEiiRSt6vectorIiSaIiEERS3_IfSaIfEE@Base 1.6
 (optional=templinst)_ZNK3pcl6KdTreeINS_15PointXYZINormalEE12radiusSearchERKNS_10PointCloudIS1_EEidRSt6vectorIiSaIiEERS7_IfSaIfEEj@Base 1.6
 (optional=templinst)_ZNK3pcl6KdTreeINS_15PointXYZINormalEE12radiusSearchEidRSt6vectorIiSaIiEERS3_IfSaIfEEj@Base 1.6
 (optional=templinst)_ZNK3pcl6KdTreeINS_15PointXYZINormalEE14nearestKSearchERKNS_10PointCloudIS1_EEiiRSt6vectorIiSaIiEERS7_IfSaIfEE@Base 1.6
 (optional=templinst)_ZNK3pcl6KdTreeINS_15PointXYZINormalEE14nearestKSearchEiiRSt6vectorIiSaIiEERS3_IfSaIfEE@Base 1.6
 (optional=templinst)_ZNK3pcl6KdTreeINS_15VFHSignature308EE12radiusSearchERKNS_10PointCloudIS1_EEidRSt6vectorIiSaIiEERS7_IfSaIfEEj@Base 1.6
 (optional=templinst)_ZNK3pcl6KdTreeINS_15VFHSignature308EE12radiusSearchEidRSt6vectorIiSaIiEERS3_IfSaIfEEj@Base 1.6
 (optional=templinst)_ZNK3pcl6KdTreeINS_15VFHSignature308EE14nearestKSearchERKNS_10PointCloudIS1_EEiiRSt6vectorIiSaIiEERS7_IfSaIfEE@Base 1.6
 (optional=templinst)_ZNK3pcl6KdTreeINS_15VFHSignature308EE14nearestKSearchEiiRSt6vectorIiSaIiEERS3_IfSaIfEE@Base 1.6
 (optional=templinst)_ZNK3pcl6KdTreeINS_16MomentInvariantsEE12radiusSearchERKNS_10PointCloudIS1_EEidRSt6vectorIiSaIiEERS7_IfSaIfEEj@Base 1.6
 (optional=templinst)_ZNK3pcl6KdTreeINS_16MomentInvariantsEE12radiusSearchEidRSt6vectorIiSaIiEERS3_IfSaIfEEj@Base 1.6
 (optional=templinst)_ZNK3pcl6KdTreeINS_16MomentInvariantsEE14nearestKSearchERKNS_10PointCloudIS1_EEiiRSt6vectorIiSaIiEERS7_IfSaIfEE@Base 1.6
 (optional=templinst)_ZNK3pcl6KdTreeINS_16MomentInvariantsEE14nearestKSearchEiiRSt6vectorIiSaIiEERS3_IfSaIfEE@Base 1.6
 (optional=templinst)_ZNK3pcl6KdTreeINS_17IntensityGradientEE12radiusSearchERKNS_10PointCloudIS1_EEidRSt6vectorIiSaIiEERS7_IfSaIfEEj@Base 1.6
 (optional=templinst)_ZNK3pcl6KdTreeINS_17IntensityGradientEE12radiusSearchEidRSt6vectorIiSaIiEERS3_IfSaIfEEj@Base 1.6
 (optional=templinst)_ZNK3pcl6KdTreeINS_17IntensityGradientEE14nearestKSearchERKNS_10PointCloudIS1_EEiiRSt6vectorIiSaIiEERS7_IfSaIfEE@Base 1.6
 (optional=templinst)_ZNK3pcl6KdTreeINS_17IntensityGradientEE14nearestKSearchEiiRSt6vectorIiSaIiEERS3_IfSaIfEE@Base 1.6
 (optional=templinst)_ZNK3pcl6KdTreeINS_17PointXYZRGBNormalEE12radiusSearchERKNS_10PointCloudIS1_EEidRSt6vectorIiSaIiEERS7_IfSaIfEEj@Base 1.6
 (optional=templinst)_ZNK3pcl6KdTreeINS_17PointXYZRGBNormalEE12radiusSearchEidRSt6vectorIiSaIiEERS3_IfSaIfEEj@Base 1.6
 (optional=templinst)_ZNK3pcl6KdTreeINS_17PointXYZRGBNormalEE14nearestKSearchERKNS_10PointCloudIS1_EEiiRSt6vectorIiSaIiEERS7_IfSaIfEE@Base 1.6
 (optional=templinst)_ZNK3pcl6KdTreeINS_17PointXYZRGBNormalEE14nearestKSearchEiiRSt6vectorIiSaIiEERS3_IfSaIfEE@Base 1.6
 (optional=templinst)_ZNK3pcl6KdTreeINS_17PrincipalRadiiRSDEE12radiusSearchERKNS_10PointCloudIS1_EEidRSt6vectorIiSaIiEERS7_IfSaIfEEj@Base 1.6
 (optional=templinst)_ZNK3pcl6KdTreeINS_17PrincipalRadiiRSDEE12radiusSearchEidRSt6vectorIiSaIiEERS3_IfSaIfEEj@Base 1.6
 (optional=templinst)_ZNK3pcl6KdTreeINS_17PrincipalRadiiRSDEE14nearestKSearchERKNS_10PointCloudIS1_EEiiRSt6vectorIiSaIiEERS7_IfSaIfEE@Base 1.6
 (optional=templinst)_ZNK3pcl6KdTreeINS_17PrincipalRadiiRSDEE14nearestKSearchEiiRSt6vectorIiSaIiEERS3_IfSaIfEE@Base 1.6
 (optional=templinst)_ZNK3pcl6KdTreeINS_18PFHRGBSignature250EE12radiusSearchERKNS_10PointCloudIS1_EEidRSt6vectorIiSaIiEERS7_IfSaIfEEj@Base 1.6
 (optional=templinst)_ZNK3pcl6KdTreeINS_18PFHRGBSignature250EE12radiusSearchEidRSt6vectorIiSaIiEERS3_IfSaIfEEj@Base 1.6
 (optional=templinst)_ZNK3pcl6KdTreeINS_18PFHRGBSignature250EE14nearestKSearchERKNS_10PointCloudIS1_EEiiRSt6vectorIiSaIiEERS7_IfSaIfEE@Base 1.6
 (optional=templinst)_ZNK3pcl6KdTreeINS_18PFHRGBSignature250EE14nearestKSearchEiiRSt6vectorIiSaIiEERS3_IfSaIfEE@Base 1.6
 (optional=templinst)_ZNK3pcl6KdTreeINS_18PointWithViewpointEE12radiusSearchERKNS_10PointCloudIS1_EEidRSt6vectorIiSaIiEERS7_IfSaIfEEj@Base 1.6
 (optional=templinst)_ZNK3pcl6KdTreeINS_18PointWithViewpointEE12radiusSearchEidRSt6vectorIiSaIiEERS3_IfSaIfEEj@Base 1.6
 (optional=templinst)_ZNK3pcl6KdTreeINS_18PointWithViewpointEE14nearestKSearchERKNS_10PointCloudIS1_EEiiRSt6vectorIiSaIiEERS7_IfSaIfEE@Base 1.6
 (optional=templinst)_ZNK3pcl6KdTreeINS_18PointWithViewpointEE14nearestKSearchEiiRSt6vectorIiSaIiEERS3_IfSaIfEE@Base 1.6
 (optional=templinst)_ZNK3pcl6KdTreeINS_19PrincipalCurvaturesEE12radiusSearchERKNS_10PointCloudIS1_EEidRSt6vectorIiSaIiEERS7_IfSaIfEEj@Base 1.6
 (optional=templinst)_ZNK3pcl6KdTreeINS_19PrincipalCurvaturesEE12radiusSearchEidRSt6vectorIiSaIiEERS3_IfSaIfEEj@Base 1.6
 (optional=templinst)_ZNK3pcl6KdTreeINS_19PrincipalCurvaturesEE14nearestKSearchERKNS_10PointCloudIS1_EEiiRSt6vectorIiSaIiEERS7_IfSaIfEE@Base 1.6
 (optional=templinst)_ZNK3pcl6KdTreeINS_19PrincipalCurvaturesEE14nearestKSearchEiiRSt6vectorIiSaIiEERS3_IfSaIfEE@Base 1.6
 (optional=templinst)_ZNK3pcl6KdTreeINS_22NormalBasedSignature12EE12radiusSearchERKNS_10PointCloudIS1_EEidRSt6vectorIiSaIiEERS7_IfSaIfEEj@Base 1.6
 (optional=templinst)_ZNK3pcl6KdTreeINS_22NormalBasedSignature12EE12radiusSearchEidRSt6vectorIiSaIiEERS3_IfSaIfEEj@Base 1.6
 (optional=templinst)_ZNK3pcl6KdTreeINS_22NormalBasedSignature12EE14nearestKSearchERKNS_10PointCloudIS1_EEiiRSt6vectorIiSaIiEERS7_IfSaIfEE@Base 1.6
 (optional=templinst)_ZNK3pcl6KdTreeINS_22NormalBasedSignature12EE14nearestKSearchEiiRSt6vectorIiSaIiEERS3_IfSaIfEE@Base 1.6
 (optional=templinst)_ZNK3pcl6KdTreeINS_4AxisEE12radiusSearchERKNS_10PointCloudIS1_EEidRSt6vectorIiSaIiEERS7_IfSaIfEEj@Base 1.6
 (optional=templinst)_ZNK3pcl6KdTreeINS_4AxisEE12radiusSearchEidRSt6vectorIiSaIiEERS3_IfSaIfEEj@Base 1.6
 (optional=templinst)_ZNK3pcl6KdTreeINS_4AxisEE14nearestKSearchERKNS_10PointCloudIS1_EEiiRSt6vectorIiSaIiEERS7_IfSaIfEE@Base 1.6
 (optional=templinst)_ZNK3pcl6KdTreeINS_4AxisEE14nearestKSearchEiiRSt6vectorIiSaIiEERS3_IfSaIfEE@Base 1.6
 (optional=templinst)_ZNK3pcl6KdTreeINS_5LabelEE12radiusSearchERKNS_10PointCloudIS1_EEidRSt6vectorIiSaIiEERS7_IfSaIfEEj@Base 1.6
 (optional=templinst)_ZNK3pcl6KdTreeINS_5LabelEE12radiusSearchEidRSt6vectorIiSaIiEERS3_IfSaIfEEj@Base 1.6
 (optional=templinst)_ZNK3pcl6KdTreeINS_5LabelEE14nearestKSearchERKNS_10PointCloudIS1_EEiiRSt6vectorIiSaIiEERS7_IfSaIfEE@Base 1.6
 (optional=templinst)_ZNK3pcl6KdTreeINS_5LabelEE14nearestKSearchEiiRSt6vectorIiSaIiEERS3_IfSaIfEE@Base 1.6
 (optional=templinst)_ZNK3pcl6KdTreeINS_6Narf36EE12radiusSearchERKNS_10PointCloudIS1_EEidRSt6vectorIiSaIiEERS7_IfSaIfEEj@Base 1.6
 (optional=templinst)_ZNK3pcl6KdTreeINS_6Narf36EE12radiusSearchEidRSt6vectorIiSaIiEERS3_IfSaIfEEj@Base 1.6
 (optional=templinst)_ZNK3pcl6KdTreeINS_6Narf36EE14nearestKSearchERKNS_10PointCloudIS1_EEiiRSt6vectorIiSaIiEERS7_IfSaIfEE@Base 1.6
 (optional=templinst)_ZNK3pcl6KdTreeINS_6Narf36EE14nearestKSearchEiiRSt6vectorIiSaIiEERS3_IfSaIfEE@Base 1.6
 (optional=templinst)_ZNK3pcl6KdTreeINS_6NormalEE12radiusSearchERKNS_10PointCloudIS1_EEidRSt6vectorIiSaIiEERS7_IfSaIfEEj@Base 1.6
 (optional=templinst)_ZNK3pcl6KdTreeINS_6NormalEE12radiusSearchEidRSt6vectorIiSaIiEERS3_IfSaIfEEj@Base 1.6
 (optional=templinst)_ZNK3pcl6KdTreeINS_6NormalEE14nearestKSearchERKNS_10PointCloudIS1_EEiiRSt6vectorIiSaIiEERS7_IfSaIfEE@Base 1.6
 (optional=templinst)_ZNK3pcl6KdTreeINS_6NormalEE14nearestKSearchEiiRSt6vectorIiSaIiEERS3_IfSaIfEE@Base 1.6
 (optional=templinst)_ZNK3pcl6KdTreeINS_7PointXYEE12radiusSearchERKNS_10PointCloudIS1_EEidRSt6vectorIiSaIiEERS7_IfSaIfEEj@Base 1.6
 (optional=templinst)_ZNK3pcl6KdTreeINS_7PointXYEE12radiusSearchEidRSt6vectorIiSaIiEERS3_IfSaIfEEj@Base 1.6
 (optional=templinst)_ZNK3pcl6KdTreeINS_7PointXYEE14nearestKSearchERKNS_10PointCloudIS1_EEiiRSt6vectorIiSaIiEERS7_IfSaIfEE@Base 1.6
 (optional=templinst)_ZNK3pcl6KdTreeINS_7PointXYEE14nearestKSearchEiiRSt6vectorIiSaIiEERS3_IfSaIfEE@Base 1.6
 (optional=templinst)_ZNK3pcl6KdTreeINS_8BoundaryEE12radiusSearchERKNS_10PointCloudIS1_EEidRSt6vectorIiSaIiEERS7_IfSaIfEEj@Base 1.6
 (optional=templinst)_ZNK3pcl6KdTreeINS_8BoundaryEE12radiusSearchEidRSt6vectorIiSaIiEERS3_IfSaIfEEj@Base 1.6
 (optional=templinst)_ZNK3pcl6KdTreeINS_8BoundaryEE14nearestKSearchERKNS_10PointCloudIS1_EEiiRSt6vectorIiSaIiEERS7_IfSaIfEE@Base 1.6
 (optional=templinst)_ZNK3pcl6KdTreeINS_8BoundaryEE14nearestKSearchEiiRSt6vectorIiSaIiEERS3_IfSaIfEE@Base 1.6
 (optional=templinst)_ZNK3pcl6KdTreeINS_8PointXYZEE12radiusSearchERKNS_10PointCloudIS1_EEidRSt6vectorIiSaIiEERS7_IfSaIfEEj@Base 1.6
 (optional=templinst)_ZNK3pcl6KdTreeINS_8PointXYZEE12radiusSearchEidRSt6vectorIiSaIiEERS3_IfSaIfEEj@Base 1.6
 (optional=templinst)_ZNK3pcl6KdTreeINS_8PointXYZEE14nearestKSearchERKNS_10PointCloudIS1_EEiiRSt6vectorIiSaIiEERS7_IfSaIfEE@Base 1.6
 (optional=templinst)_ZNK3pcl6KdTreeINS_8PointXYZEE14nearestKSearchEiiRSt6vectorIiSaIiEERS3_IfSaIfEE@Base 1.6
 (optional=templinst)_ZNK3pcl6KdTreeINS_9PointXYZIEE12radiusSearchERKNS_10PointCloudIS1_EEidRSt6vectorIiSaIiEERS7_IfSaIfEEj@Base 1.6
 (optional=templinst)_ZNK3pcl6KdTreeINS_9PointXYZIEE12radiusSearchEidRSt6vectorIiSaIiEERS3_IfSaIfEEj@Base 1.6
 (optional=templinst)_ZNK3pcl6KdTreeINS_9PointXYZIEE14nearestKSearchERKNS_10PointCloudIS1_EEiiRSt6vectorIiSaIiEERS7_IfSaIfEE@Base 1.6
 (optional=templinst)_ZNK3pcl6KdTreeINS_9PointXYZIEE14nearestKSearchEiiRSt6vectorIiSaIiEERS3_IfSaIfEE@Base 1.6
 (optional=templinst)_ZNK3pcl6KdTreeINS_9PointXYZLEE12radiusSearchERKNS_10PointCloudIS1_EEidRSt6vectorIiSaIiEERS7_IfSaIfEEj@Base 1.6
 (optional=templinst)_ZNK3pcl6KdTreeINS_9PointXYZLEE12radiusSearchEidRSt6vectorIiSaIiEERS3_IfSaIfEEj@Base 1.6
 (optional=templinst)_ZNK3pcl6KdTreeINS_9PointXYZLEE14nearestKSearchERKNS_10PointCloudIS1_EEiiRSt6vectorIiSaIiEERS7_IfSaIfEE@Base 1.6
 (optional=templinst)_ZNK3pcl6KdTreeINS_9PointXYZLEE14nearestKSearchEiiRSt6vectorIiSaIiEERS3_IfSaIfEE@Base 1.6
 (optional=templinst)_ZNK3pcl6octree10OctreeBaseIiNS0_26OctreeContainerDataTVectorIiEENS0_20OctreeContainerEmptyIiEEE19genDataTByOctreeKeyERKNS0_9OctreeKeyERi@Base 1.6
 (optional=templinst)_ZNK3pcl6octree10OctreeBaseIiNS0_26OctreeContainerDataTVectorIiEENS0_20OctreeContainerEmptyIiEEE21serializeTreeCallbackERKNS0_14OctreeLeafNodeIS3_EERKNS0_9OctreeKeyE@Base 1.6
 (optional=templinst)_ZNK3pcl6search10BruteForceINS_11PointNormalEE10getDistSqrERKS2_S5_@Base 1.6
 (optional=templinst)_ZNK3pcl6search10BruteForceINS_11PointNormalEE12denseKSearchERKS2_iRSt6vectorIiSaIiEERS6_IfSaIfEE@Base 1.6
 (optional=templinst)_ZNK3pcl6search10BruteForceINS_11PointNormalEE12radiusSearchERKS2_dRSt6vectorIiSaIiEERS6_IfSaIfEEj@Base 1.6
 (optional=templinst)_ZNK3pcl6search10BruteForceINS_11PointNormalEE13sparseKSearchERKS2_iRSt6vectorIiSaIiEERS6_IfSaIfEE@Base 1.6
 (optional=templinst)_ZNK3pcl6search10BruteForceINS_11PointNormalEE14nearestKSearchERKS2_iRSt6vectorIiSaIiEERS6_IfSaIfEE@Base 1.6
 (optional=templinst)_ZNK3pcl6search10BruteForceINS_11PointNormalEE17denseRadiusSearchERKS2_dRSt6vectorIiSaIiEERS6_IfSaIfEEj@Base 1.6
 (optional=templinst)_ZNK3pcl6search10BruteForceINS_11PointNormalEE18sparseRadiusSearchERKS2_dRSt6vectorIiSaIiEERS6_IfSaIfEEj@Base 1.6
 (optional=templinst)_ZNK3pcl6search10BruteForceINS_11PointNormalEE5EntrygtERKS4_@Base 1.6
 (optional=templinst)_ZNK3pcl6search10BruteForceINS_11PointNormalEE5EntryltERKS4_@Base 1.6
 (optional=templinst)_ZNK3pcl6search10BruteForceINS_11PointXYZHSVEE10getDistSqrERKS2_S5_@Base 1.6
 (optional=templinst)_ZNK3pcl6search10BruteForceINS_11PointXYZHSVEE12denseKSearchERKS2_iRSt6vectorIiSaIiEERS6_IfSaIfEE@Base 1.6
 (optional=templinst)_ZNK3pcl6search10BruteForceINS_11PointXYZHSVEE12radiusSearchERKS2_dRSt6vectorIiSaIiEERS6_IfSaIfEEj@Base 1.6
 (optional=templinst)_ZNK3pcl6search10BruteForceINS_11PointXYZHSVEE13sparseKSearchERKS2_iRSt6vectorIiSaIiEERS6_IfSaIfEE@Base 1.6
 (optional=templinst)_ZNK3pcl6search10BruteForceINS_11PointXYZHSVEE14nearestKSearchERKS2_iRSt6vectorIiSaIiEERS6_IfSaIfEE@Base 1.6
 (optional=templinst)_ZNK3pcl6search10BruteForceINS_11PointXYZHSVEE17denseRadiusSearchERKS2_dRSt6vectorIiSaIiEERS6_IfSaIfEEj@Base 1.6
 (optional=templinst)_ZNK3pcl6search10BruteForceINS_11PointXYZHSVEE18sparseRadiusSearchERKS2_dRSt6vectorIiSaIiEERS6_IfSaIfEEj@Base 1.6
 (optional=templinst)_ZNK3pcl6search10BruteForceINS_11PointXYZHSVEE5EntrygtERKS4_@Base 1.6
 (optional=templinst)_ZNK3pcl6search10BruteForceINS_11PointXYZHSVEE5EntryltERKS4_@Base 1.6
 (optional=templinst)_ZNK3pcl6search10BruteForceINS_11PointXYZRGBEE10getDistSqrERKS2_S5_@Base 1.6
 (optional=templinst)_ZNK3pcl6search10BruteForceINS_11PointXYZRGBEE12denseKSearchERKS2_iRSt6vectorIiSaIiEERS6_IfSaIfEE@Base 1.6
 (optional=templinst)_ZNK3pcl6search10BruteForceINS_11PointXYZRGBEE12radiusSearchERKS2_dRSt6vectorIiSaIiEERS6_IfSaIfEEj@Base 1.6
 (optional=templinst)_ZNK3pcl6search10BruteForceINS_11PointXYZRGBEE13sparseKSearchERKS2_iRSt6vectorIiSaIiEERS6_IfSaIfEE@Base 1.6
 (optional=templinst)_ZNK3pcl6search10BruteForceINS_11PointXYZRGBEE14nearestKSearchERKS2_iRSt6vectorIiSaIiEERS6_IfSaIfEE@Base 1.6
 (optional=templinst)_ZNK3pcl6search10BruteForceINS_11PointXYZRGBEE17denseRadiusSearchERKS2_dRSt6vectorIiSaIiEERS6_IfSaIfEEj@Base 1.6
 (optional=templinst)_ZNK3pcl6search10BruteForceINS_11PointXYZRGBEE18sparseRadiusSearchERKS2_dRSt6vectorIiSaIiEERS6_IfSaIfEEj@Base 1.6
 (optional=templinst)_ZNK3pcl6search10BruteForceINS_11PointXYZRGBEE5EntrygtERKS4_@Base 1.6
 (optional=templinst)_ZNK3pcl6search10BruteForceINS_11PointXYZRGBEE5EntryltERKS4_@Base 1.6
 (optional=templinst)_ZNK3pcl6search10BruteForceINS_12PointXYZRGBAEE10getDistSqrERKS2_S5_@Base 1.6
 (optional=templinst)_ZNK3pcl6search10BruteForceINS_12PointXYZRGBAEE12denseKSearchERKS2_iRSt6vectorIiSaIiEERS6_IfSaIfEE@Base 1.6
 (optional=templinst)_ZNK3pcl6search10BruteForceINS_12PointXYZRGBAEE12radiusSearchERKS2_dRSt6vectorIiSaIiEERS6_IfSaIfEEj@Base 1.6
 (optional=templinst)_ZNK3pcl6search10BruteForceINS_12PointXYZRGBAEE13sparseKSearchERKS2_iRSt6vectorIiSaIiEERS6_IfSaIfEE@Base 1.6
 (optional=templinst)_ZNK3pcl6search10BruteForceINS_12PointXYZRGBAEE14nearestKSearchERKS2_iRSt6vectorIiSaIiEERS6_IfSaIfEE@Base 1.6
 (optional=templinst)_ZNK3pcl6search10BruteForceINS_12PointXYZRGBAEE17denseRadiusSearchERKS2_dRSt6vectorIiSaIiEERS6_IfSaIfEEj@Base 1.6
 (optional=templinst)_ZNK3pcl6search10BruteForceINS_12PointXYZRGBAEE18sparseRadiusSearchERKS2_dRSt6vectorIiSaIiEERS6_IfSaIfEEj@Base 1.6
 (optional=templinst)_ZNK3pcl6search10BruteForceINS_12PointXYZRGBAEE5EntrygtERKS4_@Base 1.6
 (optional=templinst)_ZNK3pcl6search10BruteForceINS_12PointXYZRGBAEE5EntryltERKS4_@Base 1.6
 (optional=templinst)_ZNK3pcl6search10BruteForceINS_12PointXYZRGBLEE10getDistSqrERKS2_S5_@Base 1.6
 (optional=templinst)_ZNK3pcl6search10BruteForceINS_12PointXYZRGBLEE12denseKSearchERKS2_iRSt6vectorIiSaIiEERS6_IfSaIfEE@Base 1.6
 (optional=templinst)_ZNK3pcl6search10BruteForceINS_12PointXYZRGBLEE12radiusSearchERKS2_dRSt6vectorIiSaIiEERS6_IfSaIfEEj@Base 1.6
 (optional=templinst)_ZNK3pcl6search10BruteForceINS_12PointXYZRGBLEE13sparseKSearchERKS2_iRSt6vectorIiSaIiEERS6_IfSaIfEE@Base 1.6
 (optional=templinst)_ZNK3pcl6search10BruteForceINS_12PointXYZRGBLEE14nearestKSearchERKS2_iRSt6vectorIiSaIiEERS6_IfSaIfEE@Base 1.6
 (optional=templinst)_ZNK3pcl6search10BruteForceINS_12PointXYZRGBLEE17denseRadiusSearchERKS2_dRSt6vectorIiSaIiEERS6_IfSaIfEEj@Base 1.6
 (optional=templinst)_ZNK3pcl6search10BruteForceINS_12PointXYZRGBLEE18sparseRadiusSearchERKS2_dRSt6vectorIiSaIiEERS6_IfSaIfEEj@Base 1.6
 (optional=templinst)_ZNK3pcl6search10BruteForceINS_12PointXYZRGBLEE5EntrygtERKS4_@Base 1.6
 (optional=templinst)_ZNK3pcl6search10BruteForceINS_12PointXYZRGBLEE5EntryltERKS4_@Base 1.6
 (optional=templinst)_ZNK3pcl6search10BruteForceINS_13InterestPointEE10getDistSqrERKS2_S5_@Base 1.6
 (optional=templinst)_ZNK3pcl6search10BruteForceINS_13InterestPointEE12denseKSearchERKS2_iRSt6vectorIiSaIiEERS6_IfSaIfEE@Base 1.6
 (optional=templinst)_ZNK3pcl6search10BruteForceINS_13InterestPointEE12radiusSearchERKS2_dRSt6vectorIiSaIiEERS6_IfSaIfEEj@Base 1.6
 (optional=templinst)_ZNK3pcl6search10BruteForceINS_13InterestPointEE13sparseKSearchERKS2_iRSt6vectorIiSaIiEERS6_IfSaIfEE@Base 1.6
 (optional=templinst)_ZNK3pcl6search10BruteForceINS_13InterestPointEE14nearestKSearchERKS2_iRSt6vectorIiSaIiEERS6_IfSaIfEE@Base 1.6
 (optional=templinst)_ZNK3pcl6search10BruteForceINS_13InterestPointEE17denseRadiusSearchERKS2_dRSt6vectorIiSaIiEERS6_IfSaIfEEj@Base 1.6
 (optional=templinst)_ZNK3pcl6search10BruteForceINS_13InterestPointEE18sparseRadiusSearchERKS2_dRSt6vectorIiSaIiEERS6_IfSaIfEEj@Base 1.6
 (optional=templinst)_ZNK3pcl6search10BruteForceINS_13InterestPointEE5EntrygtERKS4_@Base 1.6
 (optional=templinst)_ZNK3pcl6search10BruteForceINS_13InterestPointEE5EntryltERKS4_@Base 1.6
 (optional=templinst)_ZNK3pcl6search10BruteForceINS_14PointWithRangeEE10getDistSqrERKS2_S5_@Base 1.6
 (optional=templinst)_ZNK3pcl6search10BruteForceINS_14PointWithRangeEE12denseKSearchERKS2_iRSt6vectorIiSaIiEERS6_IfSaIfEE@Base 1.6
 (optional=templinst)_ZNK3pcl6search10BruteForceINS_14PointWithRangeEE12radiusSearchERKS2_dRSt6vectorIiSaIiEERS6_IfSaIfEEj@Base 1.6
 (optional=templinst)_ZNK3pcl6search10BruteForceINS_14PointWithRangeEE13sparseKSearchERKS2_iRSt6vectorIiSaIiEERS6_IfSaIfEE@Base 1.6
 (optional=templinst)_ZNK3pcl6search10BruteForceINS_14PointWithRangeEE14nearestKSearchERKS2_iRSt6vectorIiSaIiEERS6_IfSaIfEE@Base 1.6
 (optional=templinst)_ZNK3pcl6search10BruteForceINS_14PointWithRangeEE17denseRadiusSearchERKS2_dRSt6vectorIiSaIiEERS6_IfSaIfEEj@Base 1.6
 (optional=templinst)_ZNK3pcl6search10BruteForceINS_14PointWithRangeEE18sparseRadiusSearchERKS2_dRSt6vectorIiSaIiEERS6_IfSaIfEEj@Base 1.6
 (optional=templinst)_ZNK3pcl6search10BruteForceINS_14PointWithRangeEE5EntrygtERKS4_@Base 1.6
 (optional=templinst)_ZNK3pcl6search10BruteForceINS_14PointWithRangeEE5EntryltERKS4_@Base 1.6
 (optional=templinst)_ZNK3pcl6search10BruteForceINS_14PointWithScaleEE10getDistSqrERKS2_S5_@Base 1.6
 (optional=templinst)_ZNK3pcl6search10BruteForceINS_14PointWithScaleEE12denseKSearchERKS2_iRSt6vectorIiSaIiEERS6_IfSaIfEE@Base 1.6
 (optional=templinst)_ZNK3pcl6search10BruteForceINS_14PointWithScaleEE12radiusSearchERKS2_dRSt6vectorIiSaIiEERS6_IfSaIfEEj@Base 1.6
 (optional=templinst)_ZNK3pcl6search10BruteForceINS_14PointWithScaleEE13sparseKSearchERKS2_iRSt6vectorIiSaIiEERS6_IfSaIfEE@Base 1.6
 (optional=templinst)_ZNK3pcl6search10BruteForceINS_14PointWithScaleEE14nearestKSearchERKS2_iRSt6vectorIiSaIiEERS6_IfSaIfEE@Base 1.6
 (optional=templinst)_ZNK3pcl6search10BruteForceINS_14PointWithScaleEE17denseRadiusSearchERKS2_dRSt6vectorIiSaIiEERS6_IfSaIfEEj@Base 1.6
 (optional=templinst)_ZNK3pcl6search10BruteForceINS_14PointWithScaleEE18sparseRadiusSearchERKS2_dRSt6vectorIiSaIiEERS6_IfSaIfEEj@Base 1.6
 (optional=templinst)_ZNK3pcl6search10BruteForceINS_14PointWithScaleEE5EntrygtERKS4_@Base 1.6
 (optional=templinst)_ZNK3pcl6search10BruteForceINS_14PointWithScaleEE5EntryltERKS4_@Base 1.6
 (optional=templinst)_ZNK3pcl6search10BruteForceINS_15PointXYZINormalEE10getDistSqrERKS2_S5_@Base 1.6
 (optional=templinst)_ZNK3pcl6search10BruteForceINS_15PointXYZINormalEE12denseKSearchERKS2_iRSt6vectorIiSaIiEERS6_IfSaIfEE@Base 1.6
 (optional=templinst)_ZNK3pcl6search10BruteForceINS_15PointXYZINormalEE12radiusSearchERKS2_dRSt6vectorIiSaIiEERS6_IfSaIfEEj@Base 1.6
 (optional=templinst)_ZNK3pcl6search10BruteForceINS_15PointXYZINormalEE13sparseKSearchERKS2_iRSt6vectorIiSaIiEERS6_IfSaIfEE@Base 1.6
 (optional=templinst)_ZNK3pcl6search10BruteForceINS_15PointXYZINormalEE14nearestKSearchERKS2_iRSt6vectorIiSaIiEERS6_IfSaIfEE@Base 1.6
 (optional=templinst)_ZNK3pcl6search10BruteForceINS_15PointXYZINormalEE17denseRadiusSearchERKS2_dRSt6vectorIiSaIiEERS6_IfSaIfEEj@Base 1.6
 (optional=templinst)_ZNK3pcl6search10BruteForceINS_15PointXYZINormalEE18sparseRadiusSearchERKS2_dRSt6vectorIiSaIiEERS6_IfSaIfEEj@Base 1.6
 (optional=templinst)_ZNK3pcl6search10BruteForceINS_15PointXYZINormalEE5EntrygtERKS4_@Base 1.6
 (optional=templinst)_ZNK3pcl6search10BruteForceINS_15PointXYZINormalEE5EntryltERKS4_@Base 1.6
 (optional=templinst)_ZNK3pcl6search10BruteForceINS_17PointXYZRGBNormalEE10getDistSqrERKS2_S5_@Base 1.6
 (optional=templinst)_ZNK3pcl6search10BruteForceINS_17PointXYZRGBNormalEE12denseKSearchERKS2_iRSt6vectorIiSaIiEERS6_IfSaIfEE@Base 1.6
 (optional=templinst)_ZNK3pcl6search10BruteForceINS_17PointXYZRGBNormalEE12radiusSearchERKS2_dRSt6vectorIiSaIiEERS6_IfSaIfEEj@Base 1.6
 (optional=templinst)_ZNK3pcl6search10BruteForceINS_17PointXYZRGBNormalEE13sparseKSearchERKS2_iRSt6vectorIiSaIiEERS6_IfSaIfEE@Base 1.6
 (optional=templinst)_ZNK3pcl6search10BruteForceINS_17PointXYZRGBNormalEE14nearestKSearchERKS2_iRSt6vectorIiSaIiEERS6_IfSaIfEE@Base 1.6
 (optional=templinst)_ZNK3pcl6search10BruteForceINS_17PointXYZRGBNormalEE17denseRadiusSearchERKS2_dRSt6vectorIiSaIiEERS6_IfSaIfEEj@Base 1.6
 (optional=templinst)_ZNK3pcl6search10BruteForceINS_17PointXYZRGBNormalEE18sparseRadiusSearchERKS2_dRSt6vectorIiSaIiEERS6_IfSaIfEEj@Base 1.6
 (optional=templinst)_ZNK3pcl6search10BruteForceINS_17PointXYZRGBNormalEE5EntrygtERKS4_@Base 1.6
 (optional=templinst)_ZNK3pcl6search10BruteForceINS_17PointXYZRGBNormalEE5EntryltERKS4_@Base 1.6
 (optional=templinst)_ZNK3pcl6search10BruteForceINS_18PointWithViewpointEE10getDistSqrERKS2_S5_@Base 1.6
 (optional=templinst)_ZNK3pcl6search10BruteForceINS_18PointWithViewpointEE12denseKSearchERKS2_iRSt6vectorIiSaIiEERS6_IfSaIfEE@Base 1.6
 (optional=templinst)_ZNK3pcl6search10BruteForceINS_18PointWithViewpointEE12radiusSearchERKS2_dRSt6vectorIiSaIiEERS6_IfSaIfEEj@Base 1.6
 (optional=templinst)_ZNK3pcl6search10BruteForceINS_18PointWithViewpointEE13sparseKSearchERKS2_iRSt6vectorIiSaIiEERS6_IfSaIfEE@Base 1.6
 (optional=templinst)_ZNK3pcl6search10BruteForceINS_18PointWithViewpointEE14nearestKSearchERKS2_iRSt6vectorIiSaIiEERS6_IfSaIfEE@Base 1.6
 (optional=templinst)_ZNK3pcl6search10BruteForceINS_18PointWithViewpointEE17denseRadiusSearchERKS2_dRSt6vectorIiSaIiEERS6_IfSaIfEEj@Base 1.6
 (optional=templinst)_ZNK3pcl6search10BruteForceINS_18PointWithViewpointEE18sparseRadiusSearchERKS2_dRSt6vectorIiSaIiEERS6_IfSaIfEEj@Base 1.6
 (optional=templinst)_ZNK3pcl6search10BruteForceINS_18PointWithViewpointEE5EntrygtERKS4_@Base 1.6
 (optional=templinst)_ZNK3pcl6search10BruteForceINS_18PointWithViewpointEE5EntryltERKS4_@Base 1.6
 (optional=templinst)_ZNK3pcl6search10BruteForceINS_8PointXYZEE10getDistSqrERKS2_S5_@Base 1.6
 (optional=templinst)_ZNK3pcl6search10BruteForceINS_8PointXYZEE12denseKSearchERKS2_iRSt6vectorIiSaIiEERS6_IfSaIfEE@Base 1.6
 (optional=templinst)_ZNK3pcl6search10BruteForceINS_8PointXYZEE12radiusSearchERKS2_dRSt6vectorIiSaIiEERS6_IfSaIfEEj@Base 1.6
 (optional=templinst)_ZNK3pcl6search10BruteForceINS_8PointXYZEE13sparseKSearchERKS2_iRSt6vectorIiSaIiEERS6_IfSaIfEE@Base 1.6
 (optional=templinst)_ZNK3pcl6search10BruteForceINS_8PointXYZEE14nearestKSearchERKS2_iRSt6vectorIiSaIiEERS6_IfSaIfEE@Base 1.6
 (optional=templinst)_ZNK3pcl6search10BruteForceINS_8PointXYZEE17denseRadiusSearchERKS2_dRSt6vectorIiSaIiEERS6_IfSaIfEEj@Base 1.6
 (optional=templinst)_ZNK3pcl6search10BruteForceINS_8PointXYZEE18sparseRadiusSearchERKS2_dRSt6vectorIiSaIiEERS6_IfSaIfEEj@Base 1.6
 (optional=templinst)_ZNK3pcl6search10BruteForceINS_8PointXYZEE5EntrygtERKS4_@Base 1.6
 (optional=templinst)_ZNK3pcl6search10BruteForceINS_8PointXYZEE5EntryltERKS4_@Base 1.6
 (optional=templinst)_ZNK3pcl6search10BruteForceINS_9PointXYZIEE10getDistSqrERKS2_S5_@Base 1.6
 (optional=templinst)_ZNK3pcl6search10BruteForceINS_9PointXYZIEE12denseKSearchERKS2_iRSt6vectorIiSaIiEERS6_IfSaIfEE@Base 1.6
 (optional=templinst)_ZNK3pcl6search10BruteForceINS_9PointXYZIEE12radiusSearchERKS2_dRSt6vectorIiSaIiEERS6_IfSaIfEEj@Base 1.6
 (optional=templinst)_ZNK3pcl6search10BruteForceINS_9PointXYZIEE13sparseKSearchERKS2_iRSt6vectorIiSaIiEERS6_IfSaIfEE@Base 1.6
 (optional=templinst)_ZNK3pcl6search10BruteForceINS_9PointXYZIEE14nearestKSearchERKS2_iRSt6vectorIiSaIiEERS6_IfSaIfEE@Base 1.6
 (optional=templinst)_ZNK3pcl6search10BruteForceINS_9PointXYZIEE17denseRadiusSearchERKS2_dRSt6vectorIiSaIiEERS6_IfSaIfEEj@Base 1.6
 (optional=templinst)_ZNK3pcl6search10BruteForceINS_9PointXYZIEE18sparseRadiusSearchERKS2_dRSt6vectorIiSaIiEERS6_IfSaIfEEj@Base 1.6
 (optional=templinst)_ZNK3pcl6search10BruteForceINS_9PointXYZIEE5EntrygtERKS4_@Base 1.6
 (optional=templinst)_ZNK3pcl6search10BruteForceINS_9PointXYZIEE5EntryltERKS4_@Base 1.6
 (optional=templinst)_ZNK3pcl6search10BruteForceINS_9PointXYZLEE10getDistSqrERKS2_S5_@Base 1.6
 (optional=templinst)_ZNK3pcl6search10BruteForceINS_9PointXYZLEE12denseKSearchERKS2_iRSt6vectorIiSaIiEERS6_IfSaIfEE@Base 1.6
 (optional=templinst)_ZNK3pcl6search10BruteForceINS_9PointXYZLEE12radiusSearchERKS2_dRSt6vectorIiSaIiEERS6_IfSaIfEEj@Base 1.6
 (optional=templinst)_ZNK3pcl6search10BruteForceINS_9PointXYZLEE13sparseKSearchERKS2_iRSt6vectorIiSaIiEERS6_IfSaIfEE@Base 1.6
 (optional=templinst)_ZNK3pcl6search10BruteForceINS_9PointXYZLEE14nearestKSearchERKS2_iRSt6vectorIiSaIiEERS6_IfSaIfEE@Base 1.6
 (optional=templinst)_ZNK3pcl6search10BruteForceINS_9PointXYZLEE17denseRadiusSearchERKS2_dRSt6vectorIiSaIiEERS6_IfSaIfEEj@Base 1.6
 (optional=templinst)_ZNK3pcl6search10BruteForceINS_9PointXYZLEE18sparseRadiusSearchERKS2_dRSt6vectorIiSaIiEERS6_IfSaIfEEj@Base 1.6
 (optional=templinst)_ZNK3pcl6search10BruteForceINS_9PointXYZLEE5EntrygtERKS4_@Base 1.6
 (optional=templinst)_ZNK3pcl6search10BruteForceINS_9PointXYZLEE5EntryltERKS4_@Base 1.6
 (optional=templinst)_ZNK3pcl6search17OrganizedNeighborINS_11PointNormalEE12projectPointERKS2_RNS_7PointXYE@Base 1.6
 (optional=templinst)_ZNK3pcl6search17OrganizedNeighborINS_11PointNormalEE12radiusSearchERKS2_dRSt6vectorIiSaIiEERS6_IfSaIfEEj@Base 1.6
 (optional=templinst)_ZNK3pcl6search17OrganizedNeighborINS_11PointNormalEE14nearestKSearchERKS2_iRSt6vectorIiSaIiEERS6_IfSaIfEE@Base 1.6
 (optional=templinst)_ZNK3pcl6search17OrganizedNeighborINS_11PointNormalEE19computeCameraMatrixERN5Eigen6MatrixIfLi3ELi3ELi0ELi3ELi3EEE@Base 1.6
 (optional=templinst)_ZNK3pcl6search17OrganizedNeighborINS_11PointNormalEE27getProjectedRadiusSearchBoxERKS2_fRjS6_S6_S6_@Base 1.6
 (optional=templinst)_ZNK3pcl6search17OrganizedNeighborINS_11PointNormalEE5EntryltERKS4_@Base 1.6
 (optional=templinst)_ZNK3pcl6search17OrganizedNeighborINS_11PointNormalEE7isValidEv@Base 1.6
 (optional=templinst)_ZNK3pcl6search17OrganizedNeighborINS_11PointNormalEE9clipRangeERiS4_ii@Base 1.6
 (optional=templinst)_ZNK3pcl6search17OrganizedNeighborINS_11PointNormalEE9testPointERKS2_jRSt14priority_queueINS3_5EntryESt6vectorIS7_SaIS7_EESt4lessIS7_EEj@Base 1.6
 (optional=templinst)_ZNK3pcl6search17OrganizedNeighborINS_11PointXYZHSVEE12projectPointERKS2_RNS_7PointXYE@Base 1.6
 (optional=templinst)_ZNK3pcl6search17OrganizedNeighborINS_11PointXYZHSVEE12radiusSearchERKS2_dRSt6vectorIiSaIiEERS6_IfSaIfEEj@Base 1.6
 (optional=templinst)_ZNK3pcl6search17OrganizedNeighborINS_11PointXYZHSVEE14nearestKSearchERKS2_iRSt6vectorIiSaIiEERS6_IfSaIfEE@Base 1.6
 (optional=templinst)_ZNK3pcl6search17OrganizedNeighborINS_11PointXYZHSVEE19computeCameraMatrixERN5Eigen6MatrixIfLi3ELi3ELi0ELi3ELi3EEE@Base 1.6
 (optional=templinst)_ZNK3pcl6search17OrganizedNeighborINS_11PointXYZHSVEE27getProjectedRadiusSearchBoxERKS2_fRjS6_S6_S6_@Base 1.6
 (optional=templinst)_ZNK3pcl6search17OrganizedNeighborINS_11PointXYZHSVEE5EntryltERKS4_@Base 1.6
 (optional=templinst)_ZNK3pcl6search17OrganizedNeighborINS_11PointXYZHSVEE7isValidEv@Base 1.6
 (optional=templinst)_ZNK3pcl6search17OrganizedNeighborINS_11PointXYZHSVEE9clipRangeERiS4_ii@Base 1.6
 (optional=templinst)_ZNK3pcl6search17OrganizedNeighborINS_11PointXYZHSVEE9testPointERKS2_jRSt14priority_queueINS3_5EntryESt6vectorIS7_SaIS7_EESt4lessIS7_EEj@Base 1.6
 (optional=templinst)_ZNK3pcl6search17OrganizedNeighborINS_11PointXYZRGBEE12projectPointERKS2_RNS_7PointXYE@Base 1.6
 (optional=templinst)_ZNK3pcl6search17OrganizedNeighborINS_11PointXYZRGBEE12radiusSearchERKS2_dRSt6vectorIiSaIiEERS6_IfSaIfEEj@Base 1.6
 (optional=templinst)_ZNK3pcl6search17OrganizedNeighborINS_11PointXYZRGBEE14nearestKSearchERKS2_iRSt6vectorIiSaIiEERS6_IfSaIfEE@Base 1.6
 (optional=templinst)_ZNK3pcl6search17OrganizedNeighborINS_11PointXYZRGBEE19computeCameraMatrixERN5Eigen6MatrixIfLi3ELi3ELi0ELi3ELi3EEE@Base 1.6
 (optional=templinst)_ZNK3pcl6search17OrganizedNeighborINS_11PointXYZRGBEE27getProjectedRadiusSearchBoxERKS2_fRjS6_S6_S6_@Base 1.6
 (optional=templinst)_ZNK3pcl6search17OrganizedNeighborINS_11PointXYZRGBEE5EntryltERKS4_@Base 1.6
 (optional=templinst)_ZNK3pcl6search17OrganizedNeighborINS_11PointXYZRGBEE7isValidEv@Base 1.6
 (optional=templinst)_ZNK3pcl6search17OrganizedNeighborINS_11PointXYZRGBEE9clipRangeERiS4_ii@Base 1.6
 (optional=templinst)_ZNK3pcl6search17OrganizedNeighborINS_11PointXYZRGBEE9testPointERKS2_jRSt14priority_queueINS3_5EntryESt6vectorIS7_SaIS7_EESt4lessIS7_EEj@Base 1.6
 (optional=templinst)_ZNK3pcl6search17OrganizedNeighborINS_12PointXYZRGBAEE12projectPointERKS2_RNS_7PointXYE@Base 1.6
 (optional=templinst)_ZNK3pcl6search17OrganizedNeighborINS_12PointXYZRGBAEE12radiusSearchERKS2_dRSt6vectorIiSaIiEERS6_IfSaIfEEj@Base 1.6
 (optional=templinst)_ZNK3pcl6search17OrganizedNeighborINS_12PointXYZRGBAEE14nearestKSearchERKS2_iRSt6vectorIiSaIiEERS6_IfSaIfEE@Base 1.6
 (optional=templinst)_ZNK3pcl6search17OrganizedNeighborINS_12PointXYZRGBAEE19computeCameraMatrixERN5Eigen6MatrixIfLi3ELi3ELi0ELi3ELi3EEE@Base 1.6
 (optional=templinst)_ZNK3pcl6search17OrganizedNeighborINS_12PointXYZRGBAEE27getProjectedRadiusSearchBoxERKS2_fRjS6_S6_S6_@Base 1.6
 (optional=templinst)_ZNK3pcl6search17OrganizedNeighborINS_12PointXYZRGBAEE5EntryltERKS4_@Base 1.6
 (optional=templinst)_ZNK3pcl6search17OrganizedNeighborINS_12PointXYZRGBAEE7isValidEv@Base 1.6
 (optional=templinst)_ZNK3pcl6search17OrganizedNeighborINS_12PointXYZRGBAEE9clipRangeERiS4_ii@Base 1.6
 (optional=templinst)_ZNK3pcl6search17OrganizedNeighborINS_12PointXYZRGBAEE9testPointERKS2_jRSt14priority_queueINS3_5EntryESt6vectorIS7_SaIS7_EESt4lessIS7_EEj@Base 1.6
 (optional=templinst)_ZNK3pcl6search17OrganizedNeighborINS_12PointXYZRGBLEE12projectPointERKS2_RNS_7PointXYE@Base 1.6
 (optional=templinst)_ZNK3pcl6search17OrganizedNeighborINS_12PointXYZRGBLEE12radiusSearchERKS2_dRSt6vectorIiSaIiEERS6_IfSaIfEEj@Base 1.6
 (optional=templinst)_ZNK3pcl6search17OrganizedNeighborINS_12PointXYZRGBLEE14nearestKSearchERKS2_iRSt6vectorIiSaIiEERS6_IfSaIfEE@Base 1.6
 (optional=templinst)_ZNK3pcl6search17OrganizedNeighborINS_12PointXYZRGBLEE19computeCameraMatrixERN5Eigen6MatrixIfLi3ELi3ELi0ELi3ELi3EEE@Base 1.6
 (optional=templinst)_ZNK3pcl6search17OrganizedNeighborINS_12PointXYZRGBLEE27getProjectedRadiusSearchBoxERKS2_fRjS6_S6_S6_@Base 1.6
 (optional=templinst)_ZNK3pcl6search17OrganizedNeighborINS_12PointXYZRGBLEE5EntryltERKS4_@Base 1.6
 (optional=templinst)_ZNK3pcl6search17OrganizedNeighborINS_12PointXYZRGBLEE7isValidEv@Base 1.6
 (optional=templinst)_ZNK3pcl6search17OrganizedNeighborINS_12PointXYZRGBLEE9clipRangeERiS4_ii@Base 1.6
 (optional=templinst)_ZNK3pcl6search17OrganizedNeighborINS_12PointXYZRGBLEE9testPointERKS2_jRSt14priority_queueINS3_5EntryESt6vectorIS7_SaIS7_EESt4lessIS7_EEj@Base 1.6
 (optional=templinst)_ZNK3pcl6search17OrganizedNeighborINS_13InterestPointEE12projectPointERKS2_RNS_7PointXYE@Base 1.6
 (optional=templinst)_ZNK3pcl6search17OrganizedNeighborINS_13InterestPointEE12radiusSearchERKS2_dRSt6vectorIiSaIiEERS6_IfSaIfEEj@Base 1.6
 (optional=templinst)_ZNK3pcl6search17OrganizedNeighborINS_13InterestPointEE14nearestKSearchERKS2_iRSt6vectorIiSaIiEERS6_IfSaIfEE@Base 1.6
 (optional=templinst)_ZNK3pcl6search17OrganizedNeighborINS_13InterestPointEE19computeCameraMatrixERN5Eigen6MatrixIfLi3ELi3ELi0ELi3ELi3EEE@Base 1.6
 (optional=templinst)_ZNK3pcl6search17OrganizedNeighborINS_13InterestPointEE27getProjectedRadiusSearchBoxERKS2_fRjS6_S6_S6_@Base 1.6
 (optional=templinst)_ZNK3pcl6search17OrganizedNeighborINS_13InterestPointEE5EntryltERKS4_@Base 1.6
 (optional=templinst)_ZNK3pcl6search17OrganizedNeighborINS_13InterestPointEE7isValidEv@Base 1.6
 (optional=templinst)_ZNK3pcl6search17OrganizedNeighborINS_13InterestPointEE9clipRangeERiS4_ii@Base 1.6
 (optional=templinst)_ZNK3pcl6search17OrganizedNeighborINS_13InterestPointEE9testPointERKS2_jRSt14priority_queueINS3_5EntryESt6vectorIS7_SaIS7_EESt4lessIS7_EEj@Base 1.6
 (optional=templinst)_ZNK3pcl6search17OrganizedNeighborINS_14PointWithRangeEE12projectPointERKS2_RNS_7PointXYE@Base 1.6
 (optional=templinst)_ZNK3pcl6search17OrganizedNeighborINS_14PointWithRangeEE12radiusSearchERKS2_dRSt6vectorIiSaIiEERS6_IfSaIfEEj@Base 1.6
 (optional=templinst)_ZNK3pcl6search17OrganizedNeighborINS_14PointWithRangeEE14nearestKSearchERKS2_iRSt6vectorIiSaIiEERS6_IfSaIfEE@Base 1.6
 (optional=templinst)_ZNK3pcl6search17OrganizedNeighborINS_14PointWithRangeEE19computeCameraMatrixERN5Eigen6MatrixIfLi3ELi3ELi0ELi3ELi3EEE@Base 1.6
 (optional=templinst)_ZNK3pcl6search17OrganizedNeighborINS_14PointWithRangeEE27getProjectedRadiusSearchBoxERKS2_fRjS6_S6_S6_@Base 1.6
 (optional=templinst)_ZNK3pcl6search17OrganizedNeighborINS_14PointWithRangeEE5EntryltERKS4_@Base 1.6
 (optional=templinst)_ZNK3pcl6search17OrganizedNeighborINS_14PointWithRangeEE7isValidEv@Base 1.6
 (optional=templinst)_ZNK3pcl6search17OrganizedNeighborINS_14PointWithRangeEE9clipRangeERiS4_ii@Base 1.6
 (optional=templinst)_ZNK3pcl6search17OrganizedNeighborINS_14PointWithRangeEE9testPointERKS2_jRSt14priority_queueINS3_5EntryESt6vectorIS7_SaIS7_EESt4lessIS7_EEj@Base 1.6
 (optional=templinst)_ZNK3pcl6search17OrganizedNeighborINS_14PointWithScaleEE12projectPointERKS2_RNS_7PointXYE@Base 1.6
 (optional=templinst)_ZNK3pcl6search17OrganizedNeighborINS_14PointWithScaleEE12radiusSearchERKS2_dRSt6vectorIiSaIiEERS6_IfSaIfEEj@Base 1.6
 (optional=templinst)_ZNK3pcl6search17OrganizedNeighborINS_14PointWithScaleEE14nearestKSearchERKS2_iRSt6vectorIiSaIiEERS6_IfSaIfEE@Base 1.6
 (optional=templinst)_ZNK3pcl6search17OrganizedNeighborINS_14PointWithScaleEE19computeCameraMatrixERN5Eigen6MatrixIfLi3ELi3ELi0ELi3ELi3EEE@Base 1.6
 (optional=templinst)_ZNK3pcl6search17OrganizedNeighborINS_14PointWithScaleEE27getProjectedRadiusSearchBoxERKS2_fRjS6_S6_S6_@Base 1.6
 (optional=templinst)_ZNK3pcl6search17OrganizedNeighborINS_14PointWithScaleEE5EntryltERKS4_@Base 1.6
 (optional=templinst)_ZNK3pcl6search17OrganizedNeighborINS_14PointWithScaleEE7isValidEv@Base 1.6
 (optional=templinst)_ZNK3pcl6search17OrganizedNeighborINS_14PointWithScaleEE9clipRangeERiS4_ii@Base 1.6
 (optional=templinst)_ZNK3pcl6search17OrganizedNeighborINS_14PointWithScaleEE9testPointERKS2_jRSt14priority_queueINS3_5EntryESt6vectorIS7_SaIS7_EESt4lessIS7_EEj@Base 1.6
 (optional=templinst)_ZNK3pcl6search17OrganizedNeighborINS_15PointXYZINormalEE12projectPointERKS2_RNS_7PointXYE@Base 1.6
 (optional=templinst)_ZNK3pcl6search17OrganizedNeighborINS_15PointXYZINormalEE12radiusSearchERKS2_dRSt6vectorIiSaIiEERS6_IfSaIfEEj@Base 1.6
 (optional=templinst)_ZNK3pcl6search17OrganizedNeighborINS_15PointXYZINormalEE14nearestKSearchERKS2_iRSt6vectorIiSaIiEERS6_IfSaIfEE@Base 1.6
 (optional=templinst)_ZNK3pcl6search17OrganizedNeighborINS_15PointXYZINormalEE19computeCameraMatrixERN5Eigen6MatrixIfLi3ELi3ELi0ELi3ELi3EEE@Base 1.6
 (optional=templinst)_ZNK3pcl6search17OrganizedNeighborINS_15PointXYZINormalEE27getProjectedRadiusSearchBoxERKS2_fRjS6_S6_S6_@Base 1.6
 (optional=templinst)_ZNK3pcl6search17OrganizedNeighborINS_15PointXYZINormalEE5EntryltERKS4_@Base 1.6
 (optional=templinst)_ZNK3pcl6search17OrganizedNeighborINS_15PointXYZINormalEE7isValidEv@Base 1.6
 (optional=templinst)_ZNK3pcl6search17OrganizedNeighborINS_15PointXYZINormalEE9clipRangeERiS4_ii@Base 1.6
 (optional=templinst)_ZNK3pcl6search17OrganizedNeighborINS_15PointXYZINormalEE9testPointERKS2_jRSt14priority_queueINS3_5EntryESt6vectorIS7_SaIS7_EESt4lessIS7_EEj@Base 1.6
 (optional=templinst)_ZNK3pcl6search17OrganizedNeighborINS_17PointXYZRGBNormalEE12projectPointERKS2_RNS_7PointXYE@Base 1.6
 (optional=templinst)_ZNK3pcl6search17OrganizedNeighborINS_17PointXYZRGBNormalEE12radiusSearchERKS2_dRSt6vectorIiSaIiEERS6_IfSaIfEEj@Base 1.6
 (optional=templinst)_ZNK3pcl6search17OrganizedNeighborINS_17PointXYZRGBNormalEE14nearestKSearchERKS2_iRSt6vectorIiSaIiEERS6_IfSaIfEE@Base 1.6
 (optional=templinst)_ZNK3pcl6search17OrganizedNeighborINS_17PointXYZRGBNormalEE19computeCameraMatrixERN5Eigen6MatrixIfLi3ELi3ELi0ELi3ELi3EEE@Base 1.6
 (optional=templinst)_ZNK3pcl6search17OrganizedNeighborINS_17PointXYZRGBNormalEE27getProjectedRadiusSearchBoxERKS2_fRjS6_S6_S6_@Base 1.6
 (optional=templinst)_ZNK3pcl6search17OrganizedNeighborINS_17PointXYZRGBNormalEE5EntryltERKS4_@Base 1.6
 (optional=templinst)_ZNK3pcl6search17OrganizedNeighborINS_17PointXYZRGBNormalEE7isValidEv@Base 1.6
 (optional=templinst)_ZNK3pcl6search17OrganizedNeighborINS_17PointXYZRGBNormalEE9clipRangeERiS4_ii@Base 1.6
 (optional=templinst)_ZNK3pcl6search17OrganizedNeighborINS_17PointXYZRGBNormalEE9testPointERKS2_jRSt14priority_queueINS3_5EntryESt6vectorIS7_SaIS7_EESt4lessIS7_EEj@Base 1.6
 (optional=templinst)_ZNK3pcl6search17OrganizedNeighborINS_18PointWithViewpointEE12projectPointERKS2_RNS_7PointXYE@Base 1.6
 (optional=templinst)_ZNK3pcl6search17OrganizedNeighborINS_18PointWithViewpointEE12radiusSearchERKS2_dRSt6vectorIiSaIiEERS6_IfSaIfEEj@Base 1.6
 (optional=templinst)_ZNK3pcl6search17OrganizedNeighborINS_18PointWithViewpointEE14nearestKSearchERKS2_iRSt6vectorIiSaIiEERS6_IfSaIfEE@Base 1.6
 (optional=templinst)_ZNK3pcl6search17OrganizedNeighborINS_18PointWithViewpointEE19computeCameraMatrixERN5Eigen6MatrixIfLi3ELi3ELi0ELi3ELi3EEE@Base 1.6
 (optional=templinst)_ZNK3pcl6search17OrganizedNeighborINS_18PointWithViewpointEE27getProjectedRadiusSearchBoxERKS2_fRjS6_S6_S6_@Base 1.6
 (optional=templinst)_ZNK3pcl6search17OrganizedNeighborINS_18PointWithViewpointEE5EntryltERKS4_@Base 1.6
 (optional=templinst)_ZNK3pcl6search17OrganizedNeighborINS_18PointWithViewpointEE7isValidEv@Base 1.6
 (optional=templinst)_ZNK3pcl6search17OrganizedNeighborINS_18PointWithViewpointEE9clipRangeERiS4_ii@Base 1.6
 (optional=templinst)_ZNK3pcl6search17OrganizedNeighborINS_18PointWithViewpointEE9testPointERKS2_jRSt14priority_queueINS3_5EntryESt6vectorIS7_SaIS7_EESt4lessIS7_EEj@Base 1.6
 (optional=templinst)_ZNK3pcl6search17OrganizedNeighborINS_8PointXYZEE12projectPointERKS2_RNS_7PointXYE@Base 1.6
 (optional=templinst)_ZNK3pcl6search17OrganizedNeighborINS_8PointXYZEE12radiusSearchERKS2_dRSt6vectorIiSaIiEERS6_IfSaIfEEj@Base 1.6
 (optional=templinst)_ZNK3pcl6search17OrganizedNeighborINS_8PointXYZEE14nearestKSearchERKS2_iRSt6vectorIiSaIiEERS6_IfSaIfEE@Base 1.6
 (optional=templinst)_ZNK3pcl6search17OrganizedNeighborINS_8PointXYZEE19computeCameraMatrixERN5Eigen6MatrixIfLi3ELi3ELi0ELi3ELi3EEE@Base 1.6
 (optional=templinst)_ZNK3pcl6search17OrganizedNeighborINS_8PointXYZEE27getProjectedRadiusSearchBoxERKS2_fRjS6_S6_S6_@Base 1.6
 (optional=templinst)_ZNK3pcl6search17OrganizedNeighborINS_8PointXYZEE5EntryltERKS4_@Base 1.6
 (optional=templinst)_ZNK3pcl6search17OrganizedNeighborINS_8PointXYZEE7isValidEv@Base 1.6
 (optional=templinst)_ZNK3pcl6search17OrganizedNeighborINS_8PointXYZEE9clipRangeERiS4_ii@Base 1.6
 (optional=templinst)_ZNK3pcl6search17OrganizedNeighborINS_8PointXYZEE9testPointERKS2_jRSt14priority_queueINS3_5EntryESt6vectorIS7_SaIS7_EESt4lessIS7_EEj@Base 1.6
 (optional=templinst)_ZNK3pcl6search17OrganizedNeighborINS_9PointXYZIEE12projectPointERKS2_RNS_7PointXYE@Base 1.6
 (optional=templinst)_ZNK3pcl6search17OrganizedNeighborINS_9PointXYZIEE12radiusSearchERKS2_dRSt6vectorIiSaIiEERS6_IfSaIfEEj@Base 1.6
 (optional=templinst)_ZNK3pcl6search17OrganizedNeighborINS_9PointXYZIEE14nearestKSearchERKS2_iRSt6vectorIiSaIiEERS6_IfSaIfEE@Base 1.6
 (optional=templinst)_ZNK3pcl6search17OrganizedNeighborINS_9PointXYZIEE19computeCameraMatrixERN5Eigen6MatrixIfLi3ELi3ELi0ELi3ELi3EEE@Base 1.6
 (optional=templinst)_ZNK3pcl6search17OrganizedNeighborINS_9PointXYZIEE27getProjectedRadiusSearchBoxERKS2_fRjS6_S6_S6_@Base 1.6
 (optional=templinst)_ZNK3pcl6search17OrganizedNeighborINS_9PointXYZIEE5EntryltERKS4_@Base 1.6
 (optional=templinst)_ZNK3pcl6search17OrganizedNeighborINS_9PointXYZIEE7isValidEv@Base 1.6
 (optional=templinst)_ZNK3pcl6search17OrganizedNeighborINS_9PointXYZIEE9clipRangeERiS4_ii@Base 1.6
 (optional=templinst)_ZNK3pcl6search17OrganizedNeighborINS_9PointXYZIEE9testPointERKS2_jRSt14priority_queueINS3_5EntryESt6vectorIS7_SaIS7_EESt4lessIS7_EEj@Base 1.6
 (optional=templinst)_ZNK3pcl6search17OrganizedNeighborINS_9PointXYZLEE12projectPointERKS2_RNS_7PointXYE@Base 1.6
 (optional=templinst)_ZNK3pcl6search17OrganizedNeighborINS_9PointXYZLEE12radiusSearchERKS2_dRSt6vectorIiSaIiEERS6_IfSaIfEEj@Base 1.6
 (optional=templinst)_ZNK3pcl6search17OrganizedNeighborINS_9PointXYZLEE14nearestKSearchERKS2_iRSt6vectorIiSaIiEERS6_IfSaIfEE@Base 1.6
 (optional=templinst)_ZNK3pcl6search17OrganizedNeighborINS_9PointXYZLEE19computeCameraMatrixERN5Eigen6MatrixIfLi3ELi3ELi0ELi3ELi3EEE@Base 1.6
 (optional=templinst)_ZNK3pcl6search17OrganizedNeighborINS_9PointXYZLEE27getProjectedRadiusSearchBoxERKS2_fRjS6_S6_S6_@Base 1.6
 (optional=templinst)_ZNK3pcl6search17OrganizedNeighborINS_9PointXYZLEE5EntryltERKS4_@Base 1.6
 (optional=templinst)_ZNK3pcl6search17OrganizedNeighborINS_9PointXYZLEE7isValidEv@Base 1.6
 (optional=templinst)_ZNK3pcl6search17OrganizedNeighborINS_9PointXYZLEE9clipRangeERiS4_ii@Base 1.6
 (optional=templinst)_ZNK3pcl6search17OrganizedNeighborINS_9PointXYZLEE9testPointERKS2_jRSt14priority_queueINS3_5EntryESt6vectorIS7_SaIS7_EESt4lessIS7_EEj@Base 1.6
 (optional=templinst)_ZNK3pcl6search6KdTreeINS_11PointNormalEE10getEpsilonEv@Base 1.6
 (optional=templinst)_ZNK3pcl6search6KdTreeINS_11PointNormalEE12radiusSearchERKS2_dRSt6vectorIiSaIiEERS6_IfSaIfEEj@Base 1.6
 (optional=templinst)_ZNK3pcl6search6KdTreeINS_11PointNormalEE14nearestKSearchERKS2_iRSt6vectorIiSaIiEERS6_IfSaIfEE@Base 1.6
 (optional=templinst)_ZNK3pcl6search6KdTreeINS_11PointXYZHSVEE10getEpsilonEv@Base 1.6
 (optional=templinst)_ZNK3pcl6search6KdTreeINS_11PointXYZHSVEE12radiusSearchERKS2_dRSt6vectorIiSaIiEERS6_IfSaIfEEj@Base 1.6
 (optional=templinst)_ZNK3pcl6search6KdTreeINS_11PointXYZHSVEE14nearestKSearchERKS2_iRSt6vectorIiSaIiEERS6_IfSaIfEE@Base 1.6
 (optional=templinst)_ZNK3pcl6search6KdTreeINS_11PointXYZRGBEE10getEpsilonEv@Base 1.6
 (optional=templinst)_ZNK3pcl6search6KdTreeINS_11PointXYZRGBEE12radiusSearchERKS2_dRSt6vectorIiSaIiEERS6_IfSaIfEEj@Base 1.6
 (optional=templinst)_ZNK3pcl6search6KdTreeINS_11PointXYZRGBEE14nearestKSearchERKS2_iRSt6vectorIiSaIiEERS6_IfSaIfEE@Base 1.6
 (optional=templinst)_ZNK3pcl6search6KdTreeINS_12PPFSignatureEE10getEpsilonEv@Base 1.6
 (optional=templinst)_ZNK3pcl6search6KdTreeINS_12PPFSignatureEE12radiusSearchERKS2_dRSt6vectorIiSaIiEERS6_IfSaIfEEj@Base 1.6
 (optional=templinst)_ZNK3pcl6search6KdTreeINS_12PPFSignatureEE14nearestKSearchERKS2_iRSt6vectorIiSaIiEERS6_IfSaIfEE@Base 1.6
 (optional=templinst)_ZNK3pcl6search6KdTreeINS_12PointXYZRGBAEE10getEpsilonEv@Base 1.6
 (optional=templinst)_ZNK3pcl6search6KdTreeINS_12PointXYZRGBAEE12radiusSearchERKS2_dRSt6vectorIiSaIiEERS6_IfSaIfEEj@Base 1.6
 (optional=templinst)_ZNK3pcl6search6KdTreeINS_12PointXYZRGBAEE14nearestKSearchERKS2_iRSt6vectorIiSaIiEERS6_IfSaIfEE@Base 1.6
 (optional=templinst)_ZNK3pcl6search6KdTreeINS_12PointXYZRGBLEE10getEpsilonEv@Base 1.6
 (optional=templinst)_ZNK3pcl6search6KdTreeINS_12PointXYZRGBLEE12radiusSearchERKS2_dRSt6vectorIiSaIiEERS6_IfSaIfEEj@Base 1.6
 (optional=templinst)_ZNK3pcl6search6KdTreeINS_12PointXYZRGBLEE14nearestKSearchERKS2_iRSt6vectorIiSaIiEERS6_IfSaIfEE@Base 1.6
 (optional=templinst)_ZNK3pcl6search6KdTreeINS_13InterestPointEE10getEpsilonEv@Base 1.6
 (optional=templinst)_ZNK3pcl6search6KdTreeINS_13InterestPointEE12radiusSearchERKS2_dRSt6vectorIiSaIiEERS6_IfSaIfEEj@Base 1.6
 (optional=templinst)_ZNK3pcl6search6KdTreeINS_13InterestPointEE14nearestKSearchERKS2_iRSt6vectorIiSaIiEERS6_IfSaIfEE@Base 1.6
 (optional=templinst)_ZNK3pcl6search6KdTreeINS_14PointWithRangeEE10getEpsilonEv@Base 1.6
 (optional=templinst)_ZNK3pcl6search6KdTreeINS_14PointWithRangeEE12radiusSearchERKS2_dRSt6vectorIiSaIiEERS6_IfSaIfEEj@Base 1.6
 (optional=templinst)_ZNK3pcl6search6KdTreeINS_14PointWithRangeEE14nearestKSearchERKS2_iRSt6vectorIiSaIiEERS6_IfSaIfEE@Base 1.6
 (optional=templinst)_ZNK3pcl6search6KdTreeINS_14PointWithScaleEE10getEpsilonEv@Base 1.6
 (optional=templinst)_ZNK3pcl6search6KdTreeINS_14PointWithScaleEE12radiusSearchERKS2_dRSt6vectorIiSaIiEERS6_IfSaIfEEj@Base 1.6
 (optional=templinst)_ZNK3pcl6search6KdTreeINS_14PointWithScaleEE14nearestKSearchERKS2_iRSt6vectorIiSaIiEERS6_IfSaIfEE@Base 1.6
 (optional=templinst)_ZNK3pcl6search6KdTreeINS_14ReferenceFrameEE10getEpsilonEv@Base 1.6
 (optional=templinst)_ZNK3pcl6search6KdTreeINS_14ReferenceFrameEE12radiusSearchERKS2_dRSt6vectorIiSaIiEERS6_IfSaIfEEj@Base 1.6
 (optional=templinst)_ZNK3pcl6search6KdTreeINS_14ReferenceFrameEE14nearestKSearchERKS2_iRSt6vectorIiSaIiEERS6_IfSaIfEE@Base 1.6
 (optional=templinst)_ZNK3pcl6search6KdTreeINS_15ESFSignature640EE10getEpsilonEv@Base 1.6
 (optional=templinst)_ZNK3pcl6search6KdTreeINS_15ESFSignature640EE12radiusSearchERKS2_dRSt6vectorIiSaIiEERS6_IfSaIfEEj@Base 1.6
 (optional=templinst)_ZNK3pcl6search6KdTreeINS_15ESFSignature640EE14nearestKSearchERKS2_iRSt6vectorIiSaIiEERS6_IfSaIfEE@Base 1.6
 (optional=templinst)_ZNK3pcl6search6KdTreeINS_15FPFHSignature33EE10getEpsilonEv@Base 1.6
 (optional=templinst)_ZNK3pcl6search6KdTreeINS_15FPFHSignature33EE12radiusSearchERKS2_dRSt6vectorIiSaIiEERS6_IfSaIfEEj@Base 1.6
 (optional=templinst)_ZNK3pcl6search6KdTreeINS_15FPFHSignature33EE14nearestKSearchERKS2_iRSt6vectorIiSaIiEERS6_IfSaIfEE@Base 1.6
 (optional=templinst)_ZNK3pcl6search6KdTreeINS_15PFHSignature125EE10getEpsilonEv@Base 1.6
 (optional=templinst)_ZNK3pcl6search6KdTreeINS_15PFHSignature125EE12radiusSearchERKS2_dRSt6vectorIiSaIiEERS6_IfSaIfEEj@Base 1.6
 (optional=templinst)_ZNK3pcl6search6KdTreeINS_15PFHSignature125EE14nearestKSearchERKS2_iRSt6vectorIiSaIiEERS6_IfSaIfEE@Base 1.6
 (optional=templinst)_ZNK3pcl6search6KdTreeINS_15PPFRGBSignatureEE10getEpsilonEv@Base 1.6
 (optional=templinst)_ZNK3pcl6search6KdTreeINS_15PPFRGBSignatureEE12radiusSearchERKS2_dRSt6vectorIiSaIiEERS6_IfSaIfEEj@Base 1.6
 (optional=templinst)_ZNK3pcl6search6KdTreeINS_15PPFRGBSignatureEE14nearestKSearchERKS2_iRSt6vectorIiSaIiEERS6_IfSaIfEE@Base 1.6
 (optional=templinst)_ZNK3pcl6search6KdTreeINS_15PointXYZINormalEE10getEpsilonEv@Base 1.6
 (optional=templinst)_ZNK3pcl6search6KdTreeINS_15PointXYZINormalEE12radiusSearchERKS2_dRSt6vectorIiSaIiEERS6_IfSaIfEEj@Base 1.6
 (optional=templinst)_ZNK3pcl6search6KdTreeINS_15PointXYZINormalEE14nearestKSearchERKS2_iRSt6vectorIiSaIiEERS6_IfSaIfEE@Base 1.6
 (optional=templinst)_ZNK3pcl6search6KdTreeINS_15VFHSignature308EE10getEpsilonEv@Base 1.6
 (optional=templinst)_ZNK3pcl6search6KdTreeINS_15VFHSignature308EE12radiusSearchERKS2_dRSt6vectorIiSaIiEERS6_IfSaIfEEj@Base 1.6
 (optional=templinst)_ZNK3pcl6search6KdTreeINS_15VFHSignature308EE14nearestKSearchERKS2_iRSt6vectorIiSaIiEERS6_IfSaIfEE@Base 1.6
 (optional=templinst)_ZNK3pcl6search6KdTreeINS_16MomentInvariantsEE10getEpsilonEv@Base 1.6
 (optional=templinst)_ZNK3pcl6search6KdTreeINS_16MomentInvariantsEE12radiusSearchERKS2_dRSt6vectorIiSaIiEERS6_IfSaIfEEj@Base 1.6
 (optional=templinst)_ZNK3pcl6search6KdTreeINS_16MomentInvariantsEE14nearestKSearchERKS2_iRSt6vectorIiSaIiEERS6_IfSaIfEE@Base 1.6
 (optional=templinst)_ZNK3pcl6search6KdTreeINS_17IntensityGradientEE10getEpsilonEv@Base 1.6
 (optional=templinst)_ZNK3pcl6search6KdTreeINS_17IntensityGradientEE12radiusSearchERKS2_dRSt6vectorIiSaIiEERS6_IfSaIfEEj@Base 1.6
 (optional=templinst)_ZNK3pcl6search6KdTreeINS_17IntensityGradientEE14nearestKSearchERKS2_iRSt6vectorIiSaIiEERS6_IfSaIfEE@Base 1.6
 (optional=templinst)_ZNK3pcl6search6KdTreeINS_17PointXYZRGBNormalEE10getEpsilonEv@Base 1.6
 (optional=templinst)_ZNK3pcl6search6KdTreeINS_17PointXYZRGBNormalEE12radiusSearchERKS2_dRSt6vectorIiSaIiEERS6_IfSaIfEEj@Base 1.6
 (optional=templinst)_ZNK3pcl6search6KdTreeINS_17PointXYZRGBNormalEE14nearestKSearchERKS2_iRSt6vectorIiSaIiEERS6_IfSaIfEE@Base 1.6
 (optional=templinst)_ZNK3pcl6search6KdTreeINS_17PrincipalRadiiRSDEE10getEpsilonEv@Base 1.6
 (optional=templinst)_ZNK3pcl6search6KdTreeINS_17PrincipalRadiiRSDEE12radiusSearchERKS2_dRSt6vectorIiSaIiEERS6_IfSaIfEEj@Base 1.6
 (optional=templinst)_ZNK3pcl6search6KdTreeINS_17PrincipalRadiiRSDEE14nearestKSearchERKS2_iRSt6vectorIiSaIiEERS6_IfSaIfEE@Base 1.6
 (optional=templinst)_ZNK3pcl6search6KdTreeINS_18PFHRGBSignature250EE10getEpsilonEv@Base 1.6
 (optional=templinst)_ZNK3pcl6search6KdTreeINS_18PFHRGBSignature250EE12radiusSearchERKS2_dRSt6vectorIiSaIiEERS6_IfSaIfEEj@Base 1.6
 (optional=templinst)_ZNK3pcl6search6KdTreeINS_18PFHRGBSignature250EE14nearestKSearchERKS2_iRSt6vectorIiSaIiEERS6_IfSaIfEE@Base 1.6
 (optional=templinst)_ZNK3pcl6search6KdTreeINS_18PointWithViewpointEE10getEpsilonEv@Base 1.6
 (optional=templinst)_ZNK3pcl6search6KdTreeINS_18PointWithViewpointEE12radiusSearchERKS2_dRSt6vectorIiSaIiEERS6_IfSaIfEEj@Base 1.6
 (optional=templinst)_ZNK3pcl6search6KdTreeINS_18PointWithViewpointEE14nearestKSearchERKS2_iRSt6vectorIiSaIiEERS6_IfSaIfEE@Base 1.6
 (optional=templinst)_ZNK3pcl6search6KdTreeINS_19PrincipalCurvaturesEE10getEpsilonEv@Base 1.6
 (optional=templinst)_ZNK3pcl6search6KdTreeINS_19PrincipalCurvaturesEE12radiusSearchERKS2_dRSt6vectorIiSaIiEERS6_IfSaIfEEj@Base 1.6
 (optional=templinst)_ZNK3pcl6search6KdTreeINS_19PrincipalCurvaturesEE14nearestKSearchERKS2_iRSt6vectorIiSaIiEERS6_IfSaIfEE@Base 1.6
 (optional=templinst)_ZNK3pcl6search6KdTreeINS_22NormalBasedSignature12EE10getEpsilonEv@Base 1.6
 (optional=templinst)_ZNK3pcl6search6KdTreeINS_22NormalBasedSignature12EE12radiusSearchERKS2_dRSt6vectorIiSaIiEERS6_IfSaIfEEj@Base 1.6
 (optional=templinst)_ZNK3pcl6search6KdTreeINS_22NormalBasedSignature12EE14nearestKSearchERKS2_iRSt6vectorIiSaIiEERS6_IfSaIfEE@Base 1.6
 (optional=templinst)_ZNK3pcl6search6KdTreeINS_4AxisEE10getEpsilonEv@Base 1.6
 (optional=templinst)_ZNK3pcl6search6KdTreeINS_4AxisEE12radiusSearchERKS2_dRSt6vectorIiSaIiEERS6_IfSaIfEEj@Base 1.6
 (optional=templinst)_ZNK3pcl6search6KdTreeINS_4AxisEE14nearestKSearchERKS2_iRSt6vectorIiSaIiEERS6_IfSaIfEE@Base 1.6
 (optional=templinst)_ZNK3pcl6search6KdTreeINS_5LabelEE10getEpsilonEv@Base 1.6
 (optional=templinst)_ZNK3pcl6search6KdTreeINS_5LabelEE12radiusSearchERKS2_dRSt6vectorIiSaIiEERS6_IfSaIfEEj@Base 1.6
 (optional=templinst)_ZNK3pcl6search6KdTreeINS_5LabelEE14nearestKSearchERKS2_iRSt6vectorIiSaIiEERS6_IfSaIfEE@Base 1.6
 (optional=templinst)_ZNK3pcl6search6KdTreeINS_6Narf36EE10getEpsilonEv@Base 1.6
 (optional=templinst)_ZNK3pcl6search6KdTreeINS_6Narf36EE12radiusSearchERKS2_dRSt6vectorIiSaIiEERS6_IfSaIfEEj@Base 1.6
 (optional=templinst)_ZNK3pcl6search6KdTreeINS_6Narf36EE14nearestKSearchERKS2_iRSt6vectorIiSaIiEERS6_IfSaIfEE@Base 1.6
 (optional=templinst)_ZNK3pcl6search6KdTreeINS_6NormalEE10getEpsilonEv@Base 1.6
 (optional=templinst)_ZNK3pcl6search6KdTreeINS_6NormalEE12radiusSearchERKS2_dRSt6vectorIiSaIiEERS6_IfSaIfEEj@Base 1.6
 (optional=templinst)_ZNK3pcl6search6KdTreeINS_6NormalEE14nearestKSearchERKS2_iRSt6vectorIiSaIiEERS6_IfSaIfEE@Base 1.6
 (optional=templinst)_ZNK3pcl6search6KdTreeINS_7PointXYEE10getEpsilonEv@Base 1.6
 (optional=templinst)_ZNK3pcl6search6KdTreeINS_7PointXYEE12radiusSearchERKS2_dRSt6vectorIiSaIiEERS6_IfSaIfEEj@Base 1.6
 (optional=templinst)_ZNK3pcl6search6KdTreeINS_7PointXYEE14nearestKSearchERKS2_iRSt6vectorIiSaIiEERS6_IfSaIfEE@Base 1.6
 (optional=templinst)_ZNK3pcl6search6KdTreeINS_8BoundaryEE10getEpsilonEv@Base 1.6
 (optional=templinst)_ZNK3pcl6search6KdTreeINS_8BoundaryEE12radiusSearchERKS2_dRSt6vectorIiSaIiEERS6_IfSaIfEEj@Base 1.6
 (optional=templinst)_ZNK3pcl6search6KdTreeINS_8BoundaryEE14nearestKSearchERKS2_iRSt6vectorIiSaIiEERS6_IfSaIfEE@Base 1.6
 (optional=templinst)_ZNK3pcl6search6KdTreeINS_8PointXYZEE10getEpsilonEv@Base 1.6
 (optional=templinst)_ZNK3pcl6search6KdTreeINS_8PointXYZEE12radiusSearchERKS2_dRSt6vectorIiSaIiEERS6_IfSaIfEEj@Base 1.6
 (optional=templinst)_ZNK3pcl6search6KdTreeINS_8PointXYZEE14nearestKSearchERKS2_iRSt6vectorIiSaIiEERS6_IfSaIfEE@Base 1.6
 (optional=templinst)_ZNK3pcl6search6KdTreeINS_9PointXYZIEE10getEpsilonEv@Base 1.6
 (optional=templinst)_ZNK3pcl6search6KdTreeINS_9PointXYZIEE12radiusSearchERKS2_dRSt6vectorIiSaIiEERS6_IfSaIfEEj@Base 1.6
 (optional=templinst)_ZNK3pcl6search6KdTreeINS_9PointXYZIEE14nearestKSearchERKS2_iRSt6vectorIiSaIiEERS6_IfSaIfEE@Base 1.6
 (optional=templinst)_ZNK3pcl6search6KdTreeINS_9PointXYZLEE10getEpsilonEv@Base 1.6
 (optional=templinst)_ZNK3pcl6search6KdTreeINS_9PointXYZLEE12radiusSearchERKS2_dRSt6vectorIiSaIiEERS6_IfSaIfEEj@Base 1.6
 (optional=templinst)_ZNK3pcl6search6KdTreeINS_9PointXYZLEE14nearestKSearchERKS2_iRSt6vectorIiSaIiEERS6_IfSaIfEE@Base 1.6
 (optional=templinst)_ZNK3pcl6search6OctreeINS_11PointNormalENS_6octree26OctreeContainerDataTVectorIiEENS3_20OctreeContainerEmptyIiEENS3_10OctreeBaseIiS5_S7_EEE12radiusSearchERKNS_10PointCloudIS2_EEidRSt6vectorIiSaIiEERSF_IfSaIfEEj@Base 1.6
 (optional=templinst)_ZNK3pcl6search6OctreeINS_11PointNormalENS_6octree26OctreeContainerDataTVectorIiEENS3_20OctreeContainerEmptyIiEENS3_10OctreeBaseIiS5_S7_EEE12radiusSearchERKS2_dRSt6vectorIiSaIiEERSD_IfSaIfEEj@Base 1.6
 (optional=templinst)_ZNK3pcl6search6OctreeINS_11PointNormalENS_6octree26OctreeContainerDataTVectorIiEENS3_20OctreeContainerEmptyIiEENS3_10OctreeBaseIiS5_S7_EEE12radiusSearchEidRSt6vectorIiSaIiEERSB_IfSaIfEEj@Base 1.6
 (optional=templinst)_ZNK3pcl6search6OctreeINS_11PointNormalENS_6octree26OctreeContainerDataTVectorIiEENS3_20OctreeContainerEmptyIiEENS3_10OctreeBaseIiS5_S7_EEE14nearestKSearchERKNS_10PointCloudIS2_EEiiRSt6vectorIiSaIiEERSF_IfSaIfEE@Base 1.6
 (optional=templinst)_ZNK3pcl6search6OctreeINS_11PointNormalENS_6octree26OctreeContainerDataTVectorIiEENS3_20OctreeContainerEmptyIiEENS3_10OctreeBaseIiS5_S7_EEE14nearestKSearchERKS2_iRSt6vectorIiSaIiEERSD_IfSaIfEE@Base 1.6
 (optional=templinst)_ZNK3pcl6search6OctreeINS_11PointNormalENS_6octree26OctreeContainerDataTVectorIiEENS3_20OctreeContainerEmptyIiEENS3_10OctreeBaseIiS5_S7_EEE14nearestKSearchEiiRSt6vectorIiSaIiEERSB_IfSaIfEE@Base 1.6
 (optional=templinst)_ZNK3pcl6search6OctreeINS_11PointXYZHSVENS_6octree26OctreeContainerDataTVectorIiEENS3_20OctreeContainerEmptyIiEENS3_10OctreeBaseIiS5_S7_EEE12radiusSearchERKNS_10PointCloudIS2_EEidRSt6vectorIiSaIiEERSF_IfSaIfEEj@Base 1.6
 (optional=templinst)_ZNK3pcl6search6OctreeINS_11PointXYZHSVENS_6octree26OctreeContainerDataTVectorIiEENS3_20OctreeContainerEmptyIiEENS3_10OctreeBaseIiS5_S7_EEE12radiusSearchERKS2_dRSt6vectorIiSaIiEERSD_IfSaIfEEj@Base 1.6
 (optional=templinst)_ZNK3pcl6search6OctreeINS_11PointXYZHSVENS_6octree26OctreeContainerDataTVectorIiEENS3_20OctreeContainerEmptyIiEENS3_10OctreeBaseIiS5_S7_EEE12radiusSearchEidRSt6vectorIiSaIiEERSB_IfSaIfEEj@Base 1.6
 (optional=templinst)_ZNK3pcl6search6OctreeINS_11PointXYZHSVENS_6octree26OctreeContainerDataTVectorIiEENS3_20OctreeContainerEmptyIiEENS3_10OctreeBaseIiS5_S7_EEE14nearestKSearchERKNS_10PointCloudIS2_EEiiRSt6vectorIiSaIiEERSF_IfSaIfEE@Base 1.6
 (optional=templinst)_ZNK3pcl6search6OctreeINS_11PointXYZHSVENS_6octree26OctreeContainerDataTVectorIiEENS3_20OctreeContainerEmptyIiEENS3_10OctreeBaseIiS5_S7_EEE14nearestKSearchERKS2_iRSt6vectorIiSaIiEERSD_IfSaIfEE@Base 1.6
 (optional=templinst)_ZNK3pcl6search6OctreeINS_11PointXYZHSVENS_6octree26OctreeContainerDataTVectorIiEENS3_20OctreeContainerEmptyIiEENS3_10OctreeBaseIiS5_S7_EEE14nearestKSearchEiiRSt6vectorIiSaIiEERSB_IfSaIfEE@Base 1.6
 (optional=templinst)_ZNK3pcl6search6OctreeINS_11PointXYZRGBENS_6octree26OctreeContainerDataTVectorIiEENS3_20OctreeContainerEmptyIiEENS3_10OctreeBaseIiS5_S7_EEE12radiusSearchERKNS_10PointCloudIS2_EEidRSt6vectorIiSaIiEERSF_IfSaIfEEj@Base 1.6
 (optional=templinst)_ZNK3pcl6search6OctreeINS_11PointXYZRGBENS_6octree26OctreeContainerDataTVectorIiEENS3_20OctreeContainerEmptyIiEENS3_10OctreeBaseIiS5_S7_EEE12radiusSearchERKS2_dRSt6vectorIiSaIiEERSD_IfSaIfEEj@Base 1.6
 (optional=templinst)_ZNK3pcl6search6OctreeINS_11PointXYZRGBENS_6octree26OctreeContainerDataTVectorIiEENS3_20OctreeContainerEmptyIiEENS3_10OctreeBaseIiS5_S7_EEE12radiusSearchEidRSt6vectorIiSaIiEERSB_IfSaIfEEj@Base 1.6
 (optional=templinst)_ZNK3pcl6search6OctreeINS_11PointXYZRGBENS_6octree26OctreeContainerDataTVectorIiEENS3_20OctreeContainerEmptyIiEENS3_10OctreeBaseIiS5_S7_EEE14nearestKSearchERKNS_10PointCloudIS2_EEiiRSt6vectorIiSaIiEERSF_IfSaIfEE@Base 1.6
 (optional=templinst)_ZNK3pcl6search6OctreeINS_11PointXYZRGBENS_6octree26OctreeContainerDataTVectorIiEENS3_20OctreeContainerEmptyIiEENS3_10OctreeBaseIiS5_S7_EEE14nearestKSearchERKS2_iRSt6vectorIiSaIiEERSD_IfSaIfEE@Base 1.6
 (optional=templinst)_ZNK3pcl6search6OctreeINS_11PointXYZRGBENS_6octree26OctreeContainerDataTVectorIiEENS3_20OctreeContainerEmptyIiEENS3_10OctreeBaseIiS5_S7_EEE14nearestKSearchEiiRSt6vectorIiSaIiEERSB_IfSaIfEE@Base 1.6
 (optional=templinst)_ZNK3pcl6search6OctreeINS_12PointXYZRGBAENS_6octree26OctreeContainerDataTVectorIiEENS3_20OctreeContainerEmptyIiEENS3_10OctreeBaseIiS5_S7_EEE12radiusSearchERKNS_10PointCloudIS2_EEidRSt6vectorIiSaIiEERSF_IfSaIfEEj@Base 1.6
 (optional=templinst)_ZNK3pcl6search6OctreeINS_12PointXYZRGBAENS_6octree26OctreeContainerDataTVectorIiEENS3_20OctreeContainerEmptyIiEENS3_10OctreeBaseIiS5_S7_EEE12radiusSearchERKS2_dRSt6vectorIiSaIiEERSD_IfSaIfEEj@Base 1.6
 (optional=templinst)_ZNK3pcl6search6OctreeINS_12PointXYZRGBAENS_6octree26OctreeContainerDataTVectorIiEENS3_20OctreeContainerEmptyIiEENS3_10OctreeBaseIiS5_S7_EEE12radiusSearchEidRSt6vectorIiSaIiEERSB_IfSaIfEEj@Base 1.6
 (optional=templinst)_ZNK3pcl6search6OctreeINS_12PointXYZRGBAENS_6octree26OctreeContainerDataTVectorIiEENS3_20OctreeContainerEmptyIiEENS3_10OctreeBaseIiS5_S7_EEE14nearestKSearchERKNS_10PointCloudIS2_EEiiRSt6vectorIiSaIiEERSF_IfSaIfEE@Base 1.6
 (optional=templinst)_ZNK3pcl6search6OctreeINS_12PointXYZRGBAENS_6octree26OctreeContainerDataTVectorIiEENS3_20OctreeContainerEmptyIiEENS3_10OctreeBaseIiS5_S7_EEE14nearestKSearchERKS2_iRSt6vectorIiSaIiEERSD_IfSaIfEE@Base 1.6
 (optional=templinst)_ZNK3pcl6search6OctreeINS_12PointXYZRGBAENS_6octree26OctreeContainerDataTVectorIiEENS3_20OctreeContainerEmptyIiEENS3_10OctreeBaseIiS5_S7_EEE14nearestKSearchEiiRSt6vectorIiSaIiEERSB_IfSaIfEE@Base 1.6
 (optional=templinst)_ZNK3pcl6search6OctreeINS_12PointXYZRGBLENS_6octree26OctreeContainerDataTVectorIiEENS3_20OctreeContainerEmptyIiEENS3_10OctreeBaseIiS5_S7_EEE12radiusSearchERKNS_10PointCloudIS2_EEidRSt6vectorIiSaIiEERSF_IfSaIfEEj@Base 1.6
 (optional=templinst)_ZNK3pcl6search6OctreeINS_12PointXYZRGBLENS_6octree26OctreeContainerDataTVectorIiEENS3_20OctreeContainerEmptyIiEENS3_10OctreeBaseIiS5_S7_EEE12radiusSearchERKS2_dRSt6vectorIiSaIiEERSD_IfSaIfEEj@Base 1.6
 (optional=templinst)_ZNK3pcl6search6OctreeINS_12PointXYZRGBLENS_6octree26OctreeContainerDataTVectorIiEENS3_20OctreeContainerEmptyIiEENS3_10OctreeBaseIiS5_S7_EEE12radiusSearchEidRSt6vectorIiSaIiEERSB_IfSaIfEEj@Base 1.6
 (optional=templinst)_ZNK3pcl6search6OctreeINS_12PointXYZRGBLENS_6octree26OctreeContainerDataTVectorIiEENS3_20OctreeContainerEmptyIiEENS3_10OctreeBaseIiS5_S7_EEE14nearestKSearchERKNS_10PointCloudIS2_EEiiRSt6vectorIiSaIiEERSF_IfSaIfEE@Base 1.6
 (optional=templinst)_ZNK3pcl6search6OctreeINS_12PointXYZRGBLENS_6octree26OctreeContainerDataTVectorIiEENS3_20OctreeContainerEmptyIiEENS3_10OctreeBaseIiS5_S7_EEE14nearestKSearchERKS2_iRSt6vectorIiSaIiEERSD_IfSaIfEE@Base 1.6
 (optional=templinst)_ZNK3pcl6search6OctreeINS_12PointXYZRGBLENS_6octree26OctreeContainerDataTVectorIiEENS3_20OctreeContainerEmptyIiEENS3_10OctreeBaseIiS5_S7_EEE14nearestKSearchEiiRSt6vectorIiSaIiEERSB_IfSaIfEE@Base 1.6
 (optional=templinst)_ZNK3pcl6search6OctreeINS_13InterestPointENS_6octree26OctreeContainerDataTVectorIiEENS3_20OctreeContainerEmptyIiEENS3_10OctreeBaseIiS5_S7_EEE12radiusSearchERKNS_10PointCloudIS2_EEidRSt6vectorIiSaIiEERSF_IfSaIfEEj@Base 1.6
 (optional=templinst)_ZNK3pcl6search6OctreeINS_13InterestPointENS_6octree26OctreeContainerDataTVectorIiEENS3_20OctreeContainerEmptyIiEENS3_10OctreeBaseIiS5_S7_EEE12radiusSearchERKS2_dRSt6vectorIiSaIiEERSD_IfSaIfEEj@Base 1.6
 (optional=templinst)_ZNK3pcl6search6OctreeINS_13InterestPointENS_6octree26OctreeContainerDataTVectorIiEENS3_20OctreeContainerEmptyIiEENS3_10OctreeBaseIiS5_S7_EEE12radiusSearchEidRSt6vectorIiSaIiEERSB_IfSaIfEEj@Base 1.6
 (optional=templinst)_ZNK3pcl6search6OctreeINS_13InterestPointENS_6octree26OctreeContainerDataTVectorIiEENS3_20OctreeContainerEmptyIiEENS3_10OctreeBaseIiS5_S7_EEE14nearestKSearchERKNS_10PointCloudIS2_EEiiRSt6vectorIiSaIiEERSF_IfSaIfEE@Base 1.6
 (optional=templinst)_ZNK3pcl6search6OctreeINS_13InterestPointENS_6octree26OctreeContainerDataTVectorIiEENS3_20OctreeContainerEmptyIiEENS3_10OctreeBaseIiS5_S7_EEE14nearestKSearchERKS2_iRSt6vectorIiSaIiEERSD_IfSaIfEE@Base 1.6
 (optional=templinst)_ZNK3pcl6search6OctreeINS_13InterestPointENS_6octree26OctreeContainerDataTVectorIiEENS3_20OctreeContainerEmptyIiEENS3_10OctreeBaseIiS5_S7_EEE14nearestKSearchEiiRSt6vectorIiSaIiEERSB_IfSaIfEE@Base 1.6
 (optional=templinst)_ZNK3pcl6search6OctreeINS_14PointWithRangeENS_6octree26OctreeContainerDataTVectorIiEENS3_20OctreeContainerEmptyIiEENS3_10OctreeBaseIiS5_S7_EEE12radiusSearchERKNS_10PointCloudIS2_EEidRSt6vectorIiSaIiEERSF_IfSaIfEEj@Base 1.6
 (optional=templinst)_ZNK3pcl6search6OctreeINS_14PointWithRangeENS_6octree26OctreeContainerDataTVectorIiEENS3_20OctreeContainerEmptyIiEENS3_10OctreeBaseIiS5_S7_EEE12radiusSearchERKS2_dRSt6vectorIiSaIiEERSD_IfSaIfEEj@Base 1.6
 (optional=templinst)_ZNK3pcl6search6OctreeINS_14PointWithRangeENS_6octree26OctreeContainerDataTVectorIiEENS3_20OctreeContainerEmptyIiEENS3_10OctreeBaseIiS5_S7_EEE12radiusSearchEidRSt6vectorIiSaIiEERSB_IfSaIfEEj@Base 1.6
 (optional=templinst)_ZNK3pcl6search6OctreeINS_14PointWithRangeENS_6octree26OctreeContainerDataTVectorIiEENS3_20OctreeContainerEmptyIiEENS3_10OctreeBaseIiS5_S7_EEE14nearestKSearchERKNS_10PointCloudIS2_EEiiRSt6vectorIiSaIiEERSF_IfSaIfEE@Base 1.6
 (optional=templinst)_ZNK3pcl6search6OctreeINS_14PointWithRangeENS_6octree26OctreeContainerDataTVectorIiEENS3_20OctreeContainerEmptyIiEENS3_10OctreeBaseIiS5_S7_EEE14nearestKSearchERKS2_iRSt6vectorIiSaIiEERSD_IfSaIfEE@Base 1.6
 (optional=templinst)_ZNK3pcl6search6OctreeINS_14PointWithRangeENS_6octree26OctreeContainerDataTVectorIiEENS3_20OctreeContainerEmptyIiEENS3_10OctreeBaseIiS5_S7_EEE14nearestKSearchEiiRSt6vectorIiSaIiEERSB_IfSaIfEE@Base 1.6
 (optional=templinst)_ZNK3pcl6search6OctreeINS_14PointWithScaleENS_6octree26OctreeContainerDataTVectorIiEENS3_20OctreeContainerEmptyIiEENS3_10OctreeBaseIiS5_S7_EEE12radiusSearchERKNS_10PointCloudIS2_EEidRSt6vectorIiSaIiEERSF_IfSaIfEEj@Base 1.6
 (optional=templinst)_ZNK3pcl6search6OctreeINS_14PointWithScaleENS_6octree26OctreeContainerDataTVectorIiEENS3_20OctreeContainerEmptyIiEENS3_10OctreeBaseIiS5_S7_EEE12radiusSearchERKS2_dRSt6vectorIiSaIiEERSD_IfSaIfEEj@Base 1.6
 (optional=templinst)_ZNK3pcl6search6OctreeINS_14PointWithScaleENS_6octree26OctreeContainerDataTVectorIiEENS3_20OctreeContainerEmptyIiEENS3_10OctreeBaseIiS5_S7_EEE12radiusSearchEidRSt6vectorIiSaIiEERSB_IfSaIfEEj@Base 1.6
 (optional=templinst)_ZNK3pcl6search6OctreeINS_14PointWithScaleENS_6octree26OctreeContainerDataTVectorIiEENS3_20OctreeContainerEmptyIiEENS3_10OctreeBaseIiS5_S7_EEE14nearestKSearchERKNS_10PointCloudIS2_EEiiRSt6vectorIiSaIiEERSF_IfSaIfEE@Base 1.6
 (optional=templinst)_ZNK3pcl6search6OctreeINS_14PointWithScaleENS_6octree26OctreeContainerDataTVectorIiEENS3_20OctreeContainerEmptyIiEENS3_10OctreeBaseIiS5_S7_EEE14nearestKSearchERKS2_iRSt6vectorIiSaIiEERSD_IfSaIfEE@Base 1.6
 (optional=templinst)_ZNK3pcl6search6OctreeINS_14PointWithScaleENS_6octree26OctreeContainerDataTVectorIiEENS3_20OctreeContainerEmptyIiEENS3_10OctreeBaseIiS5_S7_EEE14nearestKSearchEiiRSt6vectorIiSaIiEERSB_IfSaIfEE@Base 1.6
 (optional=templinst)_ZNK3pcl6search6OctreeINS_15PointXYZINormalENS_6octree26OctreeContainerDataTVectorIiEENS3_20OctreeContainerEmptyIiEENS3_10OctreeBaseIiS5_S7_EEE12radiusSearchERKNS_10PointCloudIS2_EEidRSt6vectorIiSaIiEERSF_IfSaIfEEj@Base 1.6
 (optional=templinst)_ZNK3pcl6search6OctreeINS_15PointXYZINormalENS_6octree26OctreeContainerDataTVectorIiEENS3_20OctreeContainerEmptyIiEENS3_10OctreeBaseIiS5_S7_EEE12radiusSearchERKS2_dRSt6vectorIiSaIiEERSD_IfSaIfEEj@Base 1.6
 (optional=templinst)_ZNK3pcl6search6OctreeINS_15PointXYZINormalENS_6octree26OctreeContainerDataTVectorIiEENS3_20OctreeContainerEmptyIiEENS3_10OctreeBaseIiS5_S7_EEE12radiusSearchEidRSt6vectorIiSaIiEERSB_IfSaIfEEj@Base 1.6
 (optional=templinst)_ZNK3pcl6search6OctreeINS_15PointXYZINormalENS_6octree26OctreeContainerDataTVectorIiEENS3_20OctreeContainerEmptyIiEENS3_10OctreeBaseIiS5_S7_EEE14nearestKSearchERKNS_10PointCloudIS2_EEiiRSt6vectorIiSaIiEERSF_IfSaIfEE@Base 1.6
 (optional=templinst)_ZNK3pcl6search6OctreeINS_15PointXYZINormalENS_6octree26OctreeContainerDataTVectorIiEENS3_20OctreeContainerEmptyIiEENS3_10OctreeBaseIiS5_S7_EEE14nearestKSearchERKS2_iRSt6vectorIiSaIiEERSD_IfSaIfEE@Base 1.6
 (optional=templinst)_ZNK3pcl6search6OctreeINS_15PointXYZINormalENS_6octree26OctreeContainerDataTVectorIiEENS3_20OctreeContainerEmptyIiEENS3_10OctreeBaseIiS5_S7_EEE14nearestKSearchEiiRSt6vectorIiSaIiEERSB_IfSaIfEE@Base 1.6
 (optional=templinst)_ZNK3pcl6search6OctreeINS_17PointXYZRGBNormalENS_6octree26OctreeContainerDataTVectorIiEENS3_20OctreeContainerEmptyIiEENS3_10OctreeBaseIiS5_S7_EEE12radiusSearchERKNS_10PointCloudIS2_EEidRSt6vectorIiSaIiEERSF_IfSaIfEEj@Base 1.6
 (optional=templinst)_ZNK3pcl6search6OctreeINS_17PointXYZRGBNormalENS_6octree26OctreeContainerDataTVectorIiEENS3_20OctreeContainerEmptyIiEENS3_10OctreeBaseIiS5_S7_EEE12radiusSearchERKS2_dRSt6vectorIiSaIiEERSD_IfSaIfEEj@Base 1.6
 (optional=templinst)_ZNK3pcl6search6OctreeINS_17PointXYZRGBNormalENS_6octree26OctreeContainerDataTVectorIiEENS3_20OctreeContainerEmptyIiEENS3_10OctreeBaseIiS5_S7_EEE12radiusSearchEidRSt6vectorIiSaIiEERSB_IfSaIfEEj@Base 1.6
 (optional=templinst)_ZNK3pcl6search6OctreeINS_17PointXYZRGBNormalENS_6octree26OctreeContainerDataTVectorIiEENS3_20OctreeContainerEmptyIiEENS3_10OctreeBaseIiS5_S7_EEE14nearestKSearchERKNS_10PointCloudIS2_EEiiRSt6vectorIiSaIiEERSF_IfSaIfEE@Base 1.6
 (optional=templinst)_ZNK3pcl6search6OctreeINS_17PointXYZRGBNormalENS_6octree26OctreeContainerDataTVectorIiEENS3_20OctreeContainerEmptyIiEENS3_10OctreeBaseIiS5_S7_EEE14nearestKSearchERKS2_iRSt6vectorIiSaIiEERSD_IfSaIfEE@Base 1.6
 (optional=templinst)_ZNK3pcl6search6OctreeINS_17PointXYZRGBNormalENS_6octree26OctreeContainerDataTVectorIiEENS3_20OctreeContainerEmptyIiEENS3_10OctreeBaseIiS5_S7_EEE14nearestKSearchEiiRSt6vectorIiSaIiEERSB_IfSaIfEE@Base 1.6
 (optional=templinst)_ZNK3pcl6search6OctreeINS_18PointWithViewpointENS_6octree26OctreeContainerDataTVectorIiEENS3_20OctreeContainerEmptyIiEENS3_10OctreeBaseIiS5_S7_EEE12radiusSearchERKNS_10PointCloudIS2_EEidRSt6vectorIiSaIiEERSF_IfSaIfEEj@Base 1.6
 (optional=templinst)_ZNK3pcl6search6OctreeINS_18PointWithViewpointENS_6octree26OctreeContainerDataTVectorIiEENS3_20OctreeContainerEmptyIiEENS3_10OctreeBaseIiS5_S7_EEE12radiusSearchERKS2_dRSt6vectorIiSaIiEERSD_IfSaIfEEj@Base 1.6
 (optional=templinst)_ZNK3pcl6search6OctreeINS_18PointWithViewpointENS_6octree26OctreeContainerDataTVectorIiEENS3_20OctreeContainerEmptyIiEENS3_10OctreeBaseIiS5_S7_EEE12radiusSearchEidRSt6vectorIiSaIiEERSB_IfSaIfEEj@Base 1.6
 (optional=templinst)_ZNK3pcl6search6OctreeINS_18PointWithViewpointENS_6octree26OctreeContainerDataTVectorIiEENS3_20OctreeContainerEmptyIiEENS3_10OctreeBaseIiS5_S7_EEE14nearestKSearchERKNS_10PointCloudIS2_EEiiRSt6vectorIiSaIiEERSF_IfSaIfEE@Base 1.6
 (optional=templinst)_ZNK3pcl6search6OctreeINS_18PointWithViewpointENS_6octree26OctreeContainerDataTVectorIiEENS3_20OctreeContainerEmptyIiEENS3_10OctreeBaseIiS5_S7_EEE14nearestKSearchERKS2_iRSt6vectorIiSaIiEERSD_IfSaIfEE@Base 1.6
 (optional=templinst)_ZNK3pcl6search6OctreeINS_18PointWithViewpointENS_6octree26OctreeContainerDataTVectorIiEENS3_20OctreeContainerEmptyIiEENS3_10OctreeBaseIiS5_S7_EEE14nearestKSearchEiiRSt6vectorIiSaIiEERSB_IfSaIfEE@Base 1.6
 (optional=templinst)_ZNK3pcl6search6OctreeINS_8PointXYZENS_6octree26OctreeContainerDataTVectorIiEENS3_20OctreeContainerEmptyIiEENS3_10OctreeBaseIiS5_S7_EEE12radiusSearchERKNS_10PointCloudIS2_EEidRSt6vectorIiSaIiEERSF_IfSaIfEEj@Base 1.6
 (optional=templinst)_ZNK3pcl6search6OctreeINS_8PointXYZENS_6octree26OctreeContainerDataTVectorIiEENS3_20OctreeContainerEmptyIiEENS3_10OctreeBaseIiS5_S7_EEE12radiusSearchERKS2_dRSt6vectorIiSaIiEERSD_IfSaIfEEj@Base 1.6
 (optional=templinst)_ZNK3pcl6search6OctreeINS_8PointXYZENS_6octree26OctreeContainerDataTVectorIiEENS3_20OctreeContainerEmptyIiEENS3_10OctreeBaseIiS5_S7_EEE12radiusSearchEidRSt6vectorIiSaIiEERSB_IfSaIfEEj@Base 1.6
 (optional=templinst)_ZNK3pcl6search6OctreeINS_8PointXYZENS_6octree26OctreeContainerDataTVectorIiEENS3_20OctreeContainerEmptyIiEENS3_10OctreeBaseIiS5_S7_EEE14nearestKSearchERKNS_10PointCloudIS2_EEiiRSt6vectorIiSaIiEERSF_IfSaIfEE@Base 1.6
 (optional=templinst)_ZNK3pcl6search6OctreeINS_8PointXYZENS_6octree26OctreeContainerDataTVectorIiEENS3_20OctreeContainerEmptyIiEENS3_10OctreeBaseIiS5_S7_EEE14nearestKSearchERKS2_iRSt6vectorIiSaIiEERSD_IfSaIfEE@Base 1.6
 (optional=templinst)_ZNK3pcl6search6OctreeINS_8PointXYZENS_6octree26OctreeContainerDataTVectorIiEENS3_20OctreeContainerEmptyIiEENS3_10OctreeBaseIiS5_S7_EEE14nearestKSearchEiiRSt6vectorIiSaIiEERSB_IfSaIfEE@Base 1.6
 (optional=templinst)_ZNK3pcl6search6OctreeINS_9PointXYZIENS_6octree26OctreeContainerDataTVectorIiEENS3_20OctreeContainerEmptyIiEENS3_10OctreeBaseIiS5_S7_EEE12radiusSearchERKNS_10PointCloudIS2_EEidRSt6vectorIiSaIiEERSF_IfSaIfEEj@Base 1.6
 (optional=templinst)_ZNK3pcl6search6OctreeINS_9PointXYZIENS_6octree26OctreeContainerDataTVectorIiEENS3_20OctreeContainerEmptyIiEENS3_10OctreeBaseIiS5_S7_EEE12radiusSearchERKS2_dRSt6vectorIiSaIiEERSD_IfSaIfEEj@Base 1.6
 (optional=templinst)_ZNK3pcl6search6OctreeINS_9PointXYZIENS_6octree26OctreeContainerDataTVectorIiEENS3_20OctreeContainerEmptyIiEENS3_10OctreeBaseIiS5_S7_EEE12radiusSearchEidRSt6vectorIiSaIiEERSB_IfSaIfEEj@Base 1.6
 (optional=templinst)_ZNK3pcl6search6OctreeINS_9PointXYZIENS_6octree26OctreeContainerDataTVectorIiEENS3_20OctreeContainerEmptyIiEENS3_10OctreeBaseIiS5_S7_EEE14nearestKSearchERKNS_10PointCloudIS2_EEiiRSt6vectorIiSaIiEERSF_IfSaIfEE@Base 1.6
 (optional=templinst)_ZNK3pcl6search6OctreeINS_9PointXYZIENS_6octree26OctreeContainerDataTVectorIiEENS3_20OctreeContainerEmptyIiEENS3_10OctreeBaseIiS5_S7_EEE14nearestKSearchERKS2_iRSt6vectorIiSaIiEERSD_IfSaIfEE@Base 1.6
 (optional=templinst)_ZNK3pcl6search6OctreeINS_9PointXYZIENS_6octree26OctreeContainerDataTVectorIiEENS3_20OctreeContainerEmptyIiEENS3_10OctreeBaseIiS5_S7_EEE14nearestKSearchEiiRSt6vectorIiSaIiEERSB_IfSaIfEE@Base 1.6
 (optional=templinst)_ZNK3pcl6search6OctreeINS_9PointXYZLENS_6octree26OctreeContainerDataTVectorIiEENS3_20OctreeContainerEmptyIiEENS3_10OctreeBaseIiS5_S7_EEE12radiusSearchERKNS_10PointCloudIS2_EEidRSt6vectorIiSaIiEERSF_IfSaIfEEj@Base 1.6
 (optional=templinst)_ZNK3pcl6search6OctreeINS_9PointXYZLENS_6octree26OctreeContainerDataTVectorIiEENS3_20OctreeContainerEmptyIiEENS3_10OctreeBaseIiS5_S7_EEE12radiusSearchERKS2_dRSt6vectorIiSaIiEERSD_IfSaIfEEj@Base 1.6
 (optional=templinst)_ZNK3pcl6search6OctreeINS_9PointXYZLENS_6octree26OctreeContainerDataTVectorIiEENS3_20OctreeContainerEmptyIiEENS3_10OctreeBaseIiS5_S7_EEE12radiusSearchEidRSt6vectorIiSaIiEERSB_IfSaIfEEj@Base 1.6
 (optional=templinst)_ZNK3pcl6search6OctreeINS_9PointXYZLENS_6octree26OctreeContainerDataTVectorIiEENS3_20OctreeContainerEmptyIiEENS3_10OctreeBaseIiS5_S7_EEE14nearestKSearchERKNS_10PointCloudIS2_EEiiRSt6vectorIiSaIiEERSF_IfSaIfEE@Base 1.6
 (optional=templinst)_ZNK3pcl6search6OctreeINS_9PointXYZLENS_6octree26OctreeContainerDataTVectorIiEENS3_20OctreeContainerEmptyIiEENS3_10OctreeBaseIiS5_S7_EEE14nearestKSearchERKS2_iRSt6vectorIiSaIiEERSD_IfSaIfEE@Base 1.6
 (optional=templinst)_ZNK3pcl6search6OctreeINS_9PointXYZLENS_6octree26OctreeContainerDataTVectorIiEENS3_20OctreeContainerEmptyIiEENS3_10OctreeBaseIiS5_S7_EEE14nearestKSearchEiiRSt6vectorIiSaIiEERSB_IfSaIfEE@Base 1.6
 (optional=templinst)_ZNK3pcl6search6SearchINS_11PointNormalEE10getIndicesEv@Base 1.6
 (optional=templinst)_ZNK3pcl6search6SearchINS_11PointNormalEE11sortResultsERSt6vectorIiSaIiEERS4_IfSaIfEE@Base 1.6
 (optional=templinst)_ZNK3pcl6search6SearchINS_11PointNormalEE12radiusSearchERKNS_10PointCloudIS2_EERKSt6vectorIiSaIiEEdRS8_ISA_SaISA_EERS8_IS8_IfSaIfEESaISH_EEj@Base 1.6
 (optional=templinst)_ZNK3pcl6search6SearchINS_11PointNormalEE12radiusSearchERKNS_10PointCloudIS2_EEidRSt6vectorIiSaIiEERS8_IfSaIfEEj@Base 1.6
 (optional=templinst)_ZNK3pcl6search6SearchINS_11PointNormalEE12radiusSearchEidRSt6vectorIiSaIiEERS4_IfSaIfEEj@Base 1.6
 (optional=templinst)_ZNK3pcl6search6SearchINS_11PointNormalEE13getInputCloudEv@Base 1.6
 (optional=templinst)_ZNK3pcl6search6SearchINS_11PointNormalEE14nearestKSearchERKNS_10PointCloudIS2_EERKSt6vectorIiSaIiEEiRS8_ISA_SaISA_EERS8_IS8_IfSaIfEESaISH_EE@Base 1.6
 (optional=templinst)_ZNK3pcl6search6SearchINS_11PointNormalEE14nearestKSearchERKNS_10PointCloudIS2_EEiiRSt6vectorIiSaIiEERS8_IfSaIfEE@Base 1.6
 (optional=templinst)_ZNK3pcl6search6SearchINS_11PointNormalEE14nearestKSearchEiiRSt6vectorIiSaIiEERS4_IfSaIfEE@Base 1.6
 (optional=templinst)_ZNK3pcl6search6SearchINS_11PointNormalEE7getNameEv@Base 1.6
 (optional=templinst)_ZNK3pcl6search6SearchINS_11PointXYZHSVEE10getIndicesEv@Base 1.6
 (optional=templinst)_ZNK3pcl6search6SearchINS_11PointXYZHSVEE11sortResultsERSt6vectorIiSaIiEERS4_IfSaIfEE@Base 1.6
 (optional=templinst)_ZNK3pcl6search6SearchINS_11PointXYZHSVEE12radiusSearchERKNS_10PointCloudIS2_EERKSt6vectorIiSaIiEEdRS8_ISA_SaISA_EERS8_IS8_IfSaIfEESaISH_EEj@Base 1.6
 (optional=templinst)_ZNK3pcl6search6SearchINS_11PointXYZHSVEE12radiusSearchERKNS_10PointCloudIS2_EEidRSt6vectorIiSaIiEERS8_IfSaIfEEj@Base 1.6
 (optional=templinst)_ZNK3pcl6search6SearchINS_11PointXYZHSVEE12radiusSearchEidRSt6vectorIiSaIiEERS4_IfSaIfEEj@Base 1.6
 (optional=templinst)_ZNK3pcl6search6SearchINS_11PointXYZHSVEE13getInputCloudEv@Base 1.6
 (optional=templinst)_ZNK3pcl6search6SearchINS_11PointXYZHSVEE14nearestKSearchERKNS_10PointCloudIS2_EERKSt6vectorIiSaIiEEiRS8_ISA_SaISA_EERS8_IS8_IfSaIfEESaISH_EE@Base 1.6
 (optional=templinst)_ZNK3pcl6search6SearchINS_11PointXYZHSVEE14nearestKSearchERKNS_10PointCloudIS2_EEiiRSt6vectorIiSaIiEERS8_IfSaIfEE@Base 1.6
 (optional=templinst)_ZNK3pcl6search6SearchINS_11PointXYZHSVEE14nearestKSearchEiiRSt6vectorIiSaIiEERS4_IfSaIfEE@Base 1.6
 (optional=templinst)_ZNK3pcl6search6SearchINS_11PointXYZHSVEE7getNameEv@Base 1.6
 (optional=templinst)_ZNK3pcl6search6SearchINS_11PointXYZRGBEE10getIndicesEv@Base 1.6
 (optional=templinst)_ZNK3pcl6search6SearchINS_11PointXYZRGBEE11sortResultsERSt6vectorIiSaIiEERS4_IfSaIfEE@Base 1.6
 (optional=templinst)_ZNK3pcl6search6SearchINS_11PointXYZRGBEE12radiusSearchERKNS_10PointCloudIS2_EERKSt6vectorIiSaIiEEdRS8_ISA_SaISA_EERS8_IS8_IfSaIfEESaISH_EEj@Base 1.6
 (optional=templinst)_ZNK3pcl6search6SearchINS_11PointXYZRGBEE12radiusSearchERKNS_10PointCloudIS2_EEidRSt6vectorIiSaIiEERS8_IfSaIfEEj@Base 1.6
 (optional=templinst)_ZNK3pcl6search6SearchINS_11PointXYZRGBEE12radiusSearchEidRSt6vectorIiSaIiEERS4_IfSaIfEEj@Base 1.6
 (optional=templinst)_ZNK3pcl6search6SearchINS_11PointXYZRGBEE13getInputCloudEv@Base 1.6
 (optional=templinst)_ZNK3pcl6search6SearchINS_11PointXYZRGBEE14nearestKSearchERKNS_10PointCloudIS2_EERKSt6vectorIiSaIiEEiRS8_ISA_SaISA_EERS8_IS8_IfSaIfEESaISH_EE@Base 1.6
 (optional=templinst)_ZNK3pcl6search6SearchINS_11PointXYZRGBEE14nearestKSearchERKNS_10PointCloudIS2_EEiiRSt6vectorIiSaIiEERS8_IfSaIfEE@Base 1.6
 (optional=templinst)_ZNK3pcl6search6SearchINS_11PointXYZRGBEE14nearestKSearchEiiRSt6vectorIiSaIiEERS4_IfSaIfEE@Base 1.6
 (optional=templinst)_ZNK3pcl6search6SearchINS_11PointXYZRGBEE7getNameEv@Base 1.6
 (optional=templinst)_ZNK3pcl6search6SearchINS_12PPFSignatureEE10getIndicesEv@Base 1.6
 (optional=templinst)_ZNK3pcl6search6SearchINS_12PPFSignatureEE12radiusSearchERKNS_10PointCloudIS2_EERKSt6vectorIiSaIiEEdRS8_ISA_SaISA_EERS8_IS8_IfSaIfEESaISH_EEj@Base 1.6
 (optional=templinst)_ZNK3pcl6search6SearchINS_12PPFSignatureEE12radiusSearchERKNS_10PointCloudIS2_EEidRSt6vectorIiSaIiEERS8_IfSaIfEEj@Base 1.6
 (optional=templinst)_ZNK3pcl6search6SearchINS_12PPFSignatureEE12radiusSearchEidRSt6vectorIiSaIiEERS4_IfSaIfEEj@Base 1.6
 (optional=templinst)_ZNK3pcl6search6SearchINS_12PPFSignatureEE13getInputCloudEv@Base 1.6
 (optional=templinst)_ZNK3pcl6search6SearchINS_12PPFSignatureEE14nearestKSearchERKNS_10PointCloudIS2_EERKSt6vectorIiSaIiEEiRS8_ISA_SaISA_EERS8_IS8_IfSaIfEESaISH_EE@Base 1.6
 (optional=templinst)_ZNK3pcl6search6SearchINS_12PPFSignatureEE14nearestKSearchERKNS_10PointCloudIS2_EEiiRSt6vectorIiSaIiEERS8_IfSaIfEE@Base 1.6
 (optional=templinst)_ZNK3pcl6search6SearchINS_12PPFSignatureEE14nearestKSearchEiiRSt6vectorIiSaIiEERS4_IfSaIfEE@Base 1.6
 (optional=templinst)_ZNK3pcl6search6SearchINS_12PPFSignatureEE7getNameEv@Base 1.6
 (optional=templinst)_ZNK3pcl6search6SearchINS_12PointXYZRGBAEE10getIndicesEv@Base 1.6
 (optional=templinst)_ZNK3pcl6search6SearchINS_12PointXYZRGBAEE11sortResultsERSt6vectorIiSaIiEERS4_IfSaIfEE@Base 1.6
 (optional=templinst)_ZNK3pcl6search6SearchINS_12PointXYZRGBAEE12radiusSearchERKNS_10PointCloudIS2_EERKSt6vectorIiSaIiEEdRS8_ISA_SaISA_EERS8_IS8_IfSaIfEESaISH_EEj@Base 1.6
 (optional=templinst)_ZNK3pcl6search6SearchINS_12PointXYZRGBAEE12radiusSearchERKNS_10PointCloudIS2_EEidRSt6vectorIiSaIiEERS8_IfSaIfEEj@Base 1.6
 (optional=templinst)_ZNK3pcl6search6SearchINS_12PointXYZRGBAEE12radiusSearchEidRSt6vectorIiSaIiEERS4_IfSaIfEEj@Base 1.6
 (optional=templinst)_ZNK3pcl6search6SearchINS_12PointXYZRGBAEE13getInputCloudEv@Base 1.6
 (optional=templinst)_ZNK3pcl6search6SearchINS_12PointXYZRGBAEE14nearestKSearchERKNS_10PointCloudIS2_EERKSt6vectorIiSaIiEEiRS8_ISA_SaISA_EERS8_IS8_IfSaIfEESaISH_EE@Base 1.6
 (optional=templinst)_ZNK3pcl6search6SearchINS_12PointXYZRGBAEE14nearestKSearchERKNS_10PointCloudIS2_EEiiRSt6vectorIiSaIiEERS8_IfSaIfEE@Base 1.6
 (optional=templinst)_ZNK3pcl6search6SearchINS_12PointXYZRGBAEE14nearestKSearchEiiRSt6vectorIiSaIiEERS4_IfSaIfEE@Base 1.6
 (optional=templinst)_ZNK3pcl6search6SearchINS_12PointXYZRGBAEE7getNameEv@Base 1.6
 (optional=templinst)_ZNK3pcl6search6SearchINS_12PointXYZRGBLEE10getIndicesEv@Base 1.6
 (optional=templinst)_ZNK3pcl6search6SearchINS_12PointXYZRGBLEE11sortResultsERSt6vectorIiSaIiEERS4_IfSaIfEE@Base 1.6
 (optional=templinst)_ZNK3pcl6search6SearchINS_12PointXYZRGBLEE12radiusSearchERKNS_10PointCloudIS2_EERKSt6vectorIiSaIiEEdRS8_ISA_SaISA_EERS8_IS8_IfSaIfEESaISH_EEj@Base 1.6
 (optional=templinst)_ZNK3pcl6search6SearchINS_12PointXYZRGBLEE12radiusSearchERKNS_10PointCloudIS2_EEidRSt6vectorIiSaIiEERS8_IfSaIfEEj@Base 1.6
 (optional=templinst)_ZNK3pcl6search6SearchINS_12PointXYZRGBLEE12radiusSearchEidRSt6vectorIiSaIiEERS4_IfSaIfEEj@Base 1.6
 (optional=templinst)_ZNK3pcl6search6SearchINS_12PointXYZRGBLEE13getInputCloudEv@Base 1.6
 (optional=templinst)_ZNK3pcl6search6SearchINS_12PointXYZRGBLEE14nearestKSearchERKNS_10PointCloudIS2_EERKSt6vectorIiSaIiEEiRS8_ISA_SaISA_EERS8_IS8_IfSaIfEESaISH_EE@Base 1.6
 (optional=templinst)_ZNK3pcl6search6SearchINS_12PointXYZRGBLEE14nearestKSearchERKNS_10PointCloudIS2_EEiiRSt6vectorIiSaIiEERS8_IfSaIfEE@Base 1.6
 (optional=templinst)_ZNK3pcl6search6SearchINS_12PointXYZRGBLEE14nearestKSearchEiiRSt6vectorIiSaIiEERS4_IfSaIfEE@Base 1.6
 (optional=templinst)_ZNK3pcl6search6SearchINS_12PointXYZRGBLEE7getNameEv@Base 1.6
 (optional=templinst)_ZNK3pcl6search6SearchINS_13InterestPointEE10getIndicesEv@Base 1.6
 (optional=templinst)_ZNK3pcl6search6SearchINS_13InterestPointEE11sortResultsERSt6vectorIiSaIiEERS4_IfSaIfEE@Base 1.6
 (optional=templinst)_ZNK3pcl6search6SearchINS_13InterestPointEE12radiusSearchERKNS_10PointCloudIS2_EERKSt6vectorIiSaIiEEdRS8_ISA_SaISA_EERS8_IS8_IfSaIfEESaISH_EEj@Base 1.6
 (optional=templinst)_ZNK3pcl6search6SearchINS_13InterestPointEE12radiusSearchERKNS_10PointCloudIS2_EEidRSt6vectorIiSaIiEERS8_IfSaIfEEj@Base 1.6
 (optional=templinst)_ZNK3pcl6search6SearchINS_13InterestPointEE12radiusSearchEidRSt6vectorIiSaIiEERS4_IfSaIfEEj@Base 1.6
 (optional=templinst)_ZNK3pcl6search6SearchINS_13InterestPointEE13getInputCloudEv@Base 1.6
 (optional=templinst)_ZNK3pcl6search6SearchINS_13InterestPointEE14nearestKSearchERKNS_10PointCloudIS2_EERKSt6vectorIiSaIiEEiRS8_ISA_SaISA_EERS8_IS8_IfSaIfEESaISH_EE@Base 1.6
 (optional=templinst)_ZNK3pcl6search6SearchINS_13InterestPointEE14nearestKSearchERKNS_10PointCloudIS2_EEiiRSt6vectorIiSaIiEERS8_IfSaIfEE@Base 1.6
 (optional=templinst)_ZNK3pcl6search6SearchINS_13InterestPointEE14nearestKSearchEiiRSt6vectorIiSaIiEERS4_IfSaIfEE@Base 1.6
 (optional=templinst)_ZNK3pcl6search6SearchINS_13InterestPointEE7getNameEv@Base 1.6
 (optional=templinst)_ZNK3pcl6search6SearchINS_14PointWithRangeEE10getIndicesEv@Base 1.6
 (optional=templinst)_ZNK3pcl6search6SearchINS_14PointWithRangeEE11sortResultsERSt6vectorIiSaIiEERS4_IfSaIfEE@Base 1.6
 (optional=templinst)_ZNK3pcl6search6SearchINS_14PointWithRangeEE12radiusSearchERKNS_10PointCloudIS2_EERKSt6vectorIiSaIiEEdRS8_ISA_SaISA_EERS8_IS8_IfSaIfEESaISH_EEj@Base 1.6
 (optional=templinst)_ZNK3pcl6search6SearchINS_14PointWithRangeEE12radiusSearchERKNS_10PointCloudIS2_EEidRSt6vectorIiSaIiEERS8_IfSaIfEEj@Base 1.6
 (optional=templinst)_ZNK3pcl6search6SearchINS_14PointWithRangeEE12radiusSearchEidRSt6vectorIiSaIiEERS4_IfSaIfEEj@Base 1.6
 (optional=templinst)_ZNK3pcl6search6SearchINS_14PointWithRangeEE13getInputCloudEv@Base 1.6
 (optional=templinst)_ZNK3pcl6search6SearchINS_14PointWithRangeEE14nearestKSearchERKNS_10PointCloudIS2_EERKSt6vectorIiSaIiEEiRS8_ISA_SaISA_EERS8_IS8_IfSaIfEESaISH_EE@Base 1.6
 (optional=templinst)_ZNK3pcl6search6SearchINS_14PointWithRangeEE14nearestKSearchERKNS_10PointCloudIS2_EEiiRSt6vectorIiSaIiEERS8_IfSaIfEE@Base 1.6
 (optional=templinst)_ZNK3pcl6search6SearchINS_14PointWithRangeEE14nearestKSearchEiiRSt6vectorIiSaIiEERS4_IfSaIfEE@Base 1.6
 (optional=templinst)_ZNK3pcl6search6SearchINS_14PointWithRangeEE7getNameEv@Base 1.6
 (optional=templinst)_ZNK3pcl6search6SearchINS_14PointWithScaleEE10getIndicesEv@Base 1.6
 (optional=templinst)_ZNK3pcl6search6SearchINS_14PointWithScaleEE11sortResultsERSt6vectorIiSaIiEERS4_IfSaIfEE@Base 1.6
 (optional=templinst)_ZNK3pcl6search6SearchINS_14PointWithScaleEE12radiusSearchERKNS_10PointCloudIS2_EERKSt6vectorIiSaIiEEdRS8_ISA_SaISA_EERS8_IS8_IfSaIfEESaISH_EEj@Base 1.6
 (optional=templinst)_ZNK3pcl6search6SearchINS_14PointWithScaleEE12radiusSearchERKNS_10PointCloudIS2_EEidRSt6vectorIiSaIiEERS8_IfSaIfEEj@Base 1.6
 (optional=templinst)_ZNK3pcl6search6SearchINS_14PointWithScaleEE12radiusSearchEidRSt6vectorIiSaIiEERS4_IfSaIfEEj@Base 1.6
 (optional=templinst)_ZNK3pcl6search6SearchINS_14PointWithScaleEE13getInputCloudEv@Base 1.6
 (optional=templinst)_ZNK3pcl6search6SearchINS_14PointWithScaleEE14nearestKSearchERKNS_10PointCloudIS2_EERKSt6vectorIiSaIiEEiRS8_ISA_SaISA_EERS8_IS8_IfSaIfEESaISH_EE@Base 1.6
 (optional=templinst)_ZNK3pcl6search6SearchINS_14PointWithScaleEE14nearestKSearchERKNS_10PointCloudIS2_EEiiRSt6vectorIiSaIiEERS8_IfSaIfEE@Base 1.6
 (optional=templinst)_ZNK3pcl6search6SearchINS_14PointWithScaleEE14nearestKSearchEiiRSt6vectorIiSaIiEERS4_IfSaIfEE@Base 1.6
 (optional=templinst)_ZNK3pcl6search6SearchINS_14PointWithScaleEE7getNameEv@Base 1.6
 (optional=templinst)_ZNK3pcl6search6SearchINS_14ReferenceFrameEE10getIndicesEv@Base 1.6
 (optional=templinst)_ZNK3pcl6search6SearchINS_14ReferenceFrameEE12radiusSearchERKNS_10PointCloudIS2_EERKSt6vectorIiSaIiEEdRS8_ISA_SaISA_EERS8_IS8_IfSaIfEESaISH_EEj@Base 1.6
 (optional=templinst)_ZNK3pcl6search6SearchINS_14ReferenceFrameEE12radiusSearchERKNS_10PointCloudIS2_EEidRSt6vectorIiSaIiEERS8_IfSaIfEEj@Base 1.6
 (optional=templinst)_ZNK3pcl6search6SearchINS_14ReferenceFrameEE12radiusSearchEidRSt6vectorIiSaIiEERS4_IfSaIfEEj@Base 1.6
 (optional=templinst)_ZNK3pcl6search6SearchINS_14ReferenceFrameEE13getInputCloudEv@Base 1.6
 (optional=templinst)_ZNK3pcl6search6SearchINS_14ReferenceFrameEE14nearestKSearchERKNS_10PointCloudIS2_EERKSt6vectorIiSaIiEEiRS8_ISA_SaISA_EERS8_IS8_IfSaIfEESaISH_EE@Base 1.6
 (optional=templinst)_ZNK3pcl6search6SearchINS_14ReferenceFrameEE14nearestKSearchERKNS_10PointCloudIS2_EEiiRSt6vectorIiSaIiEERS8_IfSaIfEE@Base 1.6
 (optional=templinst)_ZNK3pcl6search6SearchINS_14ReferenceFrameEE14nearestKSearchEiiRSt6vectorIiSaIiEERS4_IfSaIfEE@Base 1.6
 (optional=templinst)_ZNK3pcl6search6SearchINS_14ReferenceFrameEE7getNameEv@Base 1.6
 (optional=templinst)_ZNK3pcl6search6SearchINS_15ESFSignature640EE10getIndicesEv@Base 1.6
 (optional=templinst)_ZNK3pcl6search6SearchINS_15ESFSignature640EE12radiusSearchERKNS_10PointCloudIS2_EERKSt6vectorIiSaIiEEdRS8_ISA_SaISA_EERS8_IS8_IfSaIfEESaISH_EEj@Base 1.6
 (optional=templinst)_ZNK3pcl6search6SearchINS_15ESFSignature640EE12radiusSearchERKNS_10PointCloudIS2_EEidRSt6vectorIiSaIiEERS8_IfSaIfEEj@Base 1.6
 (optional=templinst)_ZNK3pcl6search6SearchINS_15ESFSignature640EE12radiusSearchEidRSt6vectorIiSaIiEERS4_IfSaIfEEj@Base 1.6
 (optional=templinst)_ZNK3pcl6search6SearchINS_15ESFSignature640EE13getInputCloudEv@Base 1.6
 (optional=templinst)_ZNK3pcl6search6SearchINS_15ESFSignature640EE14nearestKSearchERKNS_10PointCloudIS2_EERKSt6vectorIiSaIiEEiRS8_ISA_SaISA_EERS8_IS8_IfSaIfEESaISH_EE@Base 1.6
 (optional=templinst)_ZNK3pcl6search6SearchINS_15ESFSignature640EE14nearestKSearchERKNS_10PointCloudIS2_EEiiRSt6vectorIiSaIiEERS8_IfSaIfEE@Base 1.6
 (optional=templinst)_ZNK3pcl6search6SearchINS_15ESFSignature640EE14nearestKSearchEiiRSt6vectorIiSaIiEERS4_IfSaIfEE@Base 1.6
 (optional=templinst)_ZNK3pcl6search6SearchINS_15ESFSignature640EE7getNameEv@Base 1.6
 (optional=templinst)_ZNK3pcl6search6SearchINS_15FPFHSignature33EE10getIndicesEv@Base 1.6
 (optional=templinst)_ZNK3pcl6search6SearchINS_15FPFHSignature33EE12radiusSearchERKNS_10PointCloudIS2_EERKSt6vectorIiSaIiEEdRS8_ISA_SaISA_EERS8_IS8_IfSaIfEESaISH_EEj@Base 1.6
 (optional=templinst)_ZNK3pcl6search6SearchINS_15FPFHSignature33EE12radiusSearchERKNS_10PointCloudIS2_EEidRSt6vectorIiSaIiEERS8_IfSaIfEEj@Base 1.6
 (optional=templinst)_ZNK3pcl6search6SearchINS_15FPFHSignature33EE12radiusSearchEidRSt6vectorIiSaIiEERS4_IfSaIfEEj@Base 1.6
 (optional=templinst)_ZNK3pcl6search6SearchINS_15FPFHSignature33EE13getInputCloudEv@Base 1.6
 (optional=templinst)_ZNK3pcl6search6SearchINS_15FPFHSignature33EE14nearestKSearchERKNS_10PointCloudIS2_EERKSt6vectorIiSaIiEEiRS8_ISA_SaISA_EERS8_IS8_IfSaIfEESaISH_EE@Base 1.6
 (optional=templinst)_ZNK3pcl6search6SearchINS_15FPFHSignature33EE14nearestKSearchERKNS_10PointCloudIS2_EEiiRSt6vectorIiSaIiEERS8_IfSaIfEE@Base 1.6
 (optional=templinst)_ZNK3pcl6search6SearchINS_15FPFHSignature33EE14nearestKSearchEiiRSt6vectorIiSaIiEERS4_IfSaIfEE@Base 1.6
 (optional=templinst)_ZNK3pcl6search6SearchINS_15FPFHSignature33EE7getNameEv@Base 1.6
 (optional=templinst)_ZNK3pcl6search6SearchINS_15PFHSignature125EE10getIndicesEv@Base 1.6
 (optional=templinst)_ZNK3pcl6search6SearchINS_15PFHSignature125EE12radiusSearchERKNS_10PointCloudIS2_EERKSt6vectorIiSaIiEEdRS8_ISA_SaISA_EERS8_IS8_IfSaIfEESaISH_EEj@Base 1.6
 (optional=templinst)_ZNK3pcl6search6SearchINS_15PFHSignature125EE12radiusSearchERKNS_10PointCloudIS2_EEidRSt6vectorIiSaIiEERS8_IfSaIfEEj@Base 1.6
 (optional=templinst)_ZNK3pcl6search6SearchINS_15PFHSignature125EE12radiusSearchEidRSt6vectorIiSaIiEERS4_IfSaIfEEj@Base 1.6
 (optional=templinst)_ZNK3pcl6search6SearchINS_15PFHSignature125EE13getInputCloudEv@Base 1.6
 (optional=templinst)_ZNK3pcl6search6SearchINS_15PFHSignature125EE14nearestKSearchERKNS_10PointCloudIS2_EERKSt6vectorIiSaIiEEiRS8_ISA_SaISA_EERS8_IS8_IfSaIfEESaISH_EE@Base 1.6
 (optional=templinst)_ZNK3pcl6search6SearchINS_15PFHSignature125EE14nearestKSearchERKNS_10PointCloudIS2_EEiiRSt6vectorIiSaIiEERS8_IfSaIfEE@Base 1.6
 (optional=templinst)_ZNK3pcl6search6SearchINS_15PFHSignature125EE14nearestKSearchEiiRSt6vectorIiSaIiEERS4_IfSaIfEE@Base 1.6
 (optional=templinst)_ZNK3pcl6search6SearchINS_15PFHSignature125EE7getNameEv@Base 1.6
 (optional=templinst)_ZNK3pcl6search6SearchINS_15PPFRGBSignatureEE10getIndicesEv@Base 1.6
 (optional=templinst)_ZNK3pcl6search6SearchINS_15PPFRGBSignatureEE12radiusSearchERKNS_10PointCloudIS2_EERKSt6vectorIiSaIiEEdRS8_ISA_SaISA_EERS8_IS8_IfSaIfEESaISH_EEj@Base 1.6
 (optional=templinst)_ZNK3pcl6search6SearchINS_15PPFRGBSignatureEE12radiusSearchERKNS_10PointCloudIS2_EEidRSt6vectorIiSaIiEERS8_IfSaIfEEj@Base 1.6
 (optional=templinst)_ZNK3pcl6search6SearchINS_15PPFRGBSignatureEE12radiusSearchEidRSt6vectorIiSaIiEERS4_IfSaIfEEj@Base 1.6
 (optional=templinst)_ZNK3pcl6search6SearchINS_15PPFRGBSignatureEE13getInputCloudEv@Base 1.6
 (optional=templinst)_ZNK3pcl6search6SearchINS_15PPFRGBSignatureEE14nearestKSearchERKNS_10PointCloudIS2_EERKSt6vectorIiSaIiEEiRS8_ISA_SaISA_EERS8_IS8_IfSaIfEESaISH_EE@Base 1.6
 (optional=templinst)_ZNK3pcl6search6SearchINS_15PPFRGBSignatureEE14nearestKSearchERKNS_10PointCloudIS2_EEiiRSt6vectorIiSaIiEERS8_IfSaIfEE@Base 1.6
 (optional=templinst)_ZNK3pcl6search6SearchINS_15PPFRGBSignatureEE14nearestKSearchEiiRSt6vectorIiSaIiEERS4_IfSaIfEE@Base 1.6
 (optional=templinst)_ZNK3pcl6search6SearchINS_15PPFRGBSignatureEE7getNameEv@Base 1.6
 (optional=templinst)_ZNK3pcl6search6SearchINS_15PointXYZINormalEE10getIndicesEv@Base 1.6
 (optional=templinst)_ZNK3pcl6search6SearchINS_15PointXYZINormalEE11sortResultsERSt6vectorIiSaIiEERS4_IfSaIfEE@Base 1.6
 (optional=templinst)_ZNK3pcl6search6SearchINS_15PointXYZINormalEE12radiusSearchERKNS_10PointCloudIS2_EERKSt6vectorIiSaIiEEdRS8_ISA_SaISA_EERS8_IS8_IfSaIfEESaISH_EEj@Base 1.6
 (optional=templinst)_ZNK3pcl6search6SearchINS_15PointXYZINormalEE12radiusSearchERKNS_10PointCloudIS2_EEidRSt6vectorIiSaIiEERS8_IfSaIfEEj@Base 1.6
 (optional=templinst)_ZNK3pcl6search6SearchINS_15PointXYZINormalEE12radiusSearchEidRSt6vectorIiSaIiEERS4_IfSaIfEEj@Base 1.6
 (optional=templinst)_ZNK3pcl6search6SearchINS_15PointXYZINormalEE13getInputCloudEv@Base 1.6
 (optional=templinst)_ZNK3pcl6search6SearchINS_15PointXYZINormalEE14nearestKSearchERKNS_10PointCloudIS2_EERKSt6vectorIiSaIiEEiRS8_ISA_SaISA_EERS8_IS8_IfSaIfEESaISH_EE@Base 1.6
 (optional=templinst)_ZNK3pcl6search6SearchINS_15PointXYZINormalEE14nearestKSearchERKNS_10PointCloudIS2_EEiiRSt6vectorIiSaIiEERS8_IfSaIfEE@Base 1.6
 (optional=templinst)_ZNK3pcl6search6SearchINS_15PointXYZINormalEE14nearestKSearchEiiRSt6vectorIiSaIiEERS4_IfSaIfEE@Base 1.6
 (optional=templinst)_ZNK3pcl6search6SearchINS_15PointXYZINormalEE7getNameEv@Base 1.6
 (optional=templinst)_ZNK3pcl6search6SearchINS_15VFHSignature308EE10getIndicesEv@Base 1.6
 (optional=templinst)_ZNK3pcl6search6SearchINS_15VFHSignature308EE12radiusSearchERKNS_10PointCloudIS2_EERKSt6vectorIiSaIiEEdRS8_ISA_SaISA_EERS8_IS8_IfSaIfEESaISH_EEj@Base 1.6
 (optional=templinst)_ZNK3pcl6search6SearchINS_15VFHSignature308EE12radiusSearchERKNS_10PointCloudIS2_EEidRSt6vectorIiSaIiEERS8_IfSaIfEEj@Base 1.6
 (optional=templinst)_ZNK3pcl6search6SearchINS_15VFHSignature308EE12radiusSearchEidRSt6vectorIiSaIiEERS4_IfSaIfEEj@Base 1.6
 (optional=templinst)_ZNK3pcl6search6SearchINS_15VFHSignature308EE13getInputCloudEv@Base 1.6
 (optional=templinst)_ZNK3pcl6search6SearchINS_15VFHSignature308EE14nearestKSearchERKNS_10PointCloudIS2_EERKSt6vectorIiSaIiEEiRS8_ISA_SaISA_EERS8_IS8_IfSaIfEESaISH_EE@Base 1.6
 (optional=templinst)_ZNK3pcl6search6SearchINS_15VFHSignature308EE14nearestKSearchERKNS_10PointCloudIS2_EEiiRSt6vectorIiSaIiEERS8_IfSaIfEE@Base 1.6
 (optional=templinst)_ZNK3pcl6search6SearchINS_15VFHSignature308EE14nearestKSearchEiiRSt6vectorIiSaIiEERS4_IfSaIfEE@Base 1.6
 (optional=templinst)_ZNK3pcl6search6SearchINS_15VFHSignature308EE7getNameEv@Base 1.6
 (optional=templinst)_ZNK3pcl6search6SearchINS_16MomentInvariantsEE10getIndicesEv@Base 1.6
 (optional=templinst)_ZNK3pcl6search6SearchINS_16MomentInvariantsEE12radiusSearchERKNS_10PointCloudIS2_EERKSt6vectorIiSaIiEEdRS8_ISA_SaISA_EERS8_IS8_IfSaIfEESaISH_EEj@Base 1.6
 (optional=templinst)_ZNK3pcl6search6SearchINS_16MomentInvariantsEE12radiusSearchERKNS_10PointCloudIS2_EEidRSt6vectorIiSaIiEERS8_IfSaIfEEj@Base 1.6
 (optional=templinst)_ZNK3pcl6search6SearchINS_16MomentInvariantsEE12radiusSearchEidRSt6vectorIiSaIiEERS4_IfSaIfEEj@Base 1.6
 (optional=templinst)_ZNK3pcl6search6SearchINS_16MomentInvariantsEE13getInputCloudEv@Base 1.6
 (optional=templinst)_ZNK3pcl6search6SearchINS_16MomentInvariantsEE14nearestKSearchERKNS_10PointCloudIS2_EERKSt6vectorIiSaIiEEiRS8_ISA_SaISA_EERS8_IS8_IfSaIfEESaISH_EE@Base 1.6
 (optional=templinst)_ZNK3pcl6search6SearchINS_16MomentInvariantsEE14nearestKSearchERKNS_10PointCloudIS2_EEiiRSt6vectorIiSaIiEERS8_IfSaIfEE@Base 1.6
 (optional=templinst)_ZNK3pcl6search6SearchINS_16MomentInvariantsEE14nearestKSearchEiiRSt6vectorIiSaIiEERS4_IfSaIfEE@Base 1.6
 (optional=templinst)_ZNK3pcl6search6SearchINS_16MomentInvariantsEE7getNameEv@Base 1.6
 (optional=templinst)_ZNK3pcl6search6SearchINS_17IntensityGradientEE10getIndicesEv@Base 1.6
 (optional=templinst)_ZNK3pcl6search6SearchINS_17IntensityGradientEE12radiusSearchERKNS_10PointCloudIS2_EERKSt6vectorIiSaIiEEdRS8_ISA_SaISA_EERS8_IS8_IfSaIfEESaISH_EEj@Base 1.6
 (optional=templinst)_ZNK3pcl6search6SearchINS_17IntensityGradientEE12radiusSearchERKNS_10PointCloudIS2_EEidRSt6vectorIiSaIiEERS8_IfSaIfEEj@Base 1.6
 (optional=templinst)_ZNK3pcl6search6SearchINS_17IntensityGradientEE12radiusSearchEidRSt6vectorIiSaIiEERS4_IfSaIfEEj@Base 1.6
 (optional=templinst)_ZNK3pcl6search6SearchINS_17IntensityGradientEE13getInputCloudEv@Base 1.6
 (optional=templinst)_ZNK3pcl6search6SearchINS_17IntensityGradientEE14nearestKSearchERKNS_10PointCloudIS2_EERKSt6vectorIiSaIiEEiRS8_ISA_SaISA_EERS8_IS8_IfSaIfEESaISH_EE@Base 1.6
 (optional=templinst)_ZNK3pcl6search6SearchINS_17IntensityGradientEE14nearestKSearchERKNS_10PointCloudIS2_EEiiRSt6vectorIiSaIiEERS8_IfSaIfEE@Base 1.6
 (optional=templinst)_ZNK3pcl6search6SearchINS_17IntensityGradientEE14nearestKSearchEiiRSt6vectorIiSaIiEERS4_IfSaIfEE@Base 1.6
 (optional=templinst)_ZNK3pcl6search6SearchINS_17IntensityGradientEE7getNameEv@Base 1.6
 (optional=templinst)_ZNK3pcl6search6SearchINS_17PointXYZRGBNormalEE10getIndicesEv@Base 1.6
 (optional=templinst)_ZNK3pcl6search6SearchINS_17PointXYZRGBNormalEE11sortResultsERSt6vectorIiSaIiEERS4_IfSaIfEE@Base 1.6
 (optional=templinst)_ZNK3pcl6search6SearchINS_17PointXYZRGBNormalEE12radiusSearchERKNS_10PointCloudIS2_EERKSt6vectorIiSaIiEEdRS8_ISA_SaISA_EERS8_IS8_IfSaIfEESaISH_EEj@Base 1.6
 (optional=templinst)_ZNK3pcl6search6SearchINS_17PointXYZRGBNormalEE12radiusSearchERKNS_10PointCloudIS2_EEidRSt6vectorIiSaIiEERS8_IfSaIfEEj@Base 1.6
 (optional=templinst)_ZNK3pcl6search6SearchINS_17PointXYZRGBNormalEE12radiusSearchEidRSt6vectorIiSaIiEERS4_IfSaIfEEj@Base 1.6
 (optional=templinst)_ZNK3pcl6search6SearchINS_17PointXYZRGBNormalEE13getInputCloudEv@Base 1.6
 (optional=templinst)_ZNK3pcl6search6SearchINS_17PointXYZRGBNormalEE14nearestKSearchERKNS_10PointCloudIS2_EERKSt6vectorIiSaIiEEiRS8_ISA_SaISA_EERS8_IS8_IfSaIfEESaISH_EE@Base 1.6
 (optional=templinst)_ZNK3pcl6search6SearchINS_17PointXYZRGBNormalEE14nearestKSearchERKNS_10PointCloudIS2_EEiiRSt6vectorIiSaIiEERS8_IfSaIfEE@Base 1.6
 (optional=templinst)_ZNK3pcl6search6SearchINS_17PointXYZRGBNormalEE14nearestKSearchEiiRSt6vectorIiSaIiEERS4_IfSaIfEE@Base 1.6
 (optional=templinst)_ZNK3pcl6search6SearchINS_17PointXYZRGBNormalEE7getNameEv@Base 1.6
 (optional=templinst)_ZNK3pcl6search6SearchINS_17PrincipalRadiiRSDEE10getIndicesEv@Base 1.6
 (optional=templinst)_ZNK3pcl6search6SearchINS_17PrincipalRadiiRSDEE12radiusSearchERKNS_10PointCloudIS2_EERKSt6vectorIiSaIiEEdRS8_ISA_SaISA_EERS8_IS8_IfSaIfEESaISH_EEj@Base 1.6
 (optional=templinst)_ZNK3pcl6search6SearchINS_17PrincipalRadiiRSDEE12radiusSearchERKNS_10PointCloudIS2_EEidRSt6vectorIiSaIiEERS8_IfSaIfEEj@Base 1.6
 (optional=templinst)_ZNK3pcl6search6SearchINS_17PrincipalRadiiRSDEE12radiusSearchEidRSt6vectorIiSaIiEERS4_IfSaIfEEj@Base 1.6
 (optional=templinst)_ZNK3pcl6search6SearchINS_17PrincipalRadiiRSDEE13getInputCloudEv@Base 1.6
 (optional=templinst)_ZNK3pcl6search6SearchINS_17PrincipalRadiiRSDEE14nearestKSearchERKNS_10PointCloudIS2_EERKSt6vectorIiSaIiEEiRS8_ISA_SaISA_EERS8_IS8_IfSaIfEESaISH_EE@Base 1.6
 (optional=templinst)_ZNK3pcl6search6SearchINS_17PrincipalRadiiRSDEE14nearestKSearchERKNS_10PointCloudIS2_EEiiRSt6vectorIiSaIiEERS8_IfSaIfEE@Base 1.6
 (optional=templinst)_ZNK3pcl6search6SearchINS_17PrincipalRadiiRSDEE14nearestKSearchEiiRSt6vectorIiSaIiEERS4_IfSaIfEE@Base 1.6
 (optional=templinst)_ZNK3pcl6search6SearchINS_17PrincipalRadiiRSDEE7getNameEv@Base 1.6
 (optional=templinst)_ZNK3pcl6search6SearchINS_18PFHRGBSignature250EE10getIndicesEv@Base 1.6
 (optional=templinst)_ZNK3pcl6search6SearchINS_18PFHRGBSignature250EE12radiusSearchERKNS_10PointCloudIS2_EERKSt6vectorIiSaIiEEdRS8_ISA_SaISA_EERS8_IS8_IfSaIfEESaISH_EEj@Base 1.6
 (optional=templinst)_ZNK3pcl6search6SearchINS_18PFHRGBSignature250EE12radiusSearchERKNS_10PointCloudIS2_EEidRSt6vectorIiSaIiEERS8_IfSaIfEEj@Base 1.6
 (optional=templinst)_ZNK3pcl6search6SearchINS_18PFHRGBSignature250EE12radiusSearchEidRSt6vectorIiSaIiEERS4_IfSaIfEEj@Base 1.6
 (optional=templinst)_ZNK3pcl6search6SearchINS_18PFHRGBSignature250EE13getInputCloudEv@Base 1.6
 (optional=templinst)_ZNK3pcl6search6SearchINS_18PFHRGBSignature250EE14nearestKSearchERKNS_10PointCloudIS2_EERKSt6vectorIiSaIiEEiRS8_ISA_SaISA_EERS8_IS8_IfSaIfEESaISH_EE@Base 1.6
 (optional=templinst)_ZNK3pcl6search6SearchINS_18PFHRGBSignature250EE14nearestKSearchERKNS_10PointCloudIS2_EEiiRSt6vectorIiSaIiEERS8_IfSaIfEE@Base 1.6
 (optional=templinst)_ZNK3pcl6search6SearchINS_18PFHRGBSignature250EE14nearestKSearchEiiRSt6vectorIiSaIiEERS4_IfSaIfEE@Base 1.6
 (optional=templinst)_ZNK3pcl6search6SearchINS_18PFHRGBSignature250EE7getNameEv@Base 1.6
 (optional=templinst)_ZNK3pcl6search6SearchINS_18PointWithViewpointEE10getIndicesEv@Base 1.6
 (optional=templinst)_ZNK3pcl6search6SearchINS_18PointWithViewpointEE11sortResultsERSt6vectorIiSaIiEERS4_IfSaIfEE@Base 1.6
 (optional=templinst)_ZNK3pcl6search6SearchINS_18PointWithViewpointEE12radiusSearchERKNS_10PointCloudIS2_EERKSt6vectorIiSaIiEEdRS8_ISA_SaISA_EERS8_IS8_IfSaIfEESaISH_EEj@Base 1.6
 (optional=templinst)_ZNK3pcl6search6SearchINS_18PointWithViewpointEE12radiusSearchERKNS_10PointCloudIS2_EEidRSt6vectorIiSaIiEERS8_IfSaIfEEj@Base 1.6
 (optional=templinst)_ZNK3pcl6search6SearchINS_18PointWithViewpointEE12radiusSearchEidRSt6vectorIiSaIiEERS4_IfSaIfEEj@Base 1.6
 (optional=templinst)_ZNK3pcl6search6SearchINS_18PointWithViewpointEE13getInputCloudEv@Base 1.6
 (optional=templinst)_ZNK3pcl6search6SearchINS_18PointWithViewpointEE14nearestKSearchERKNS_10PointCloudIS2_EERKSt6vectorIiSaIiEEiRS8_ISA_SaISA_EERS8_IS8_IfSaIfEESaISH_EE@Base 1.6
 (optional=templinst)_ZNK3pcl6search6SearchINS_18PointWithViewpointEE14nearestKSearchERKNS_10PointCloudIS2_EEiiRSt6vectorIiSaIiEERS8_IfSaIfEE@Base 1.6
 (optional=templinst)_ZNK3pcl6search6SearchINS_18PointWithViewpointEE14nearestKSearchEiiRSt6vectorIiSaIiEERS4_IfSaIfEE@Base 1.6
 (optional=templinst)_ZNK3pcl6search6SearchINS_18PointWithViewpointEE7getNameEv@Base 1.6
 (optional=templinst)_ZNK3pcl6search6SearchINS_19PrincipalCurvaturesEE10getIndicesEv@Base 1.6
 (optional=templinst)_ZNK3pcl6search6SearchINS_19PrincipalCurvaturesEE12radiusSearchERKNS_10PointCloudIS2_EERKSt6vectorIiSaIiEEdRS8_ISA_SaISA_EERS8_IS8_IfSaIfEESaISH_EEj@Base 1.6
 (optional=templinst)_ZNK3pcl6search6SearchINS_19PrincipalCurvaturesEE12radiusSearchERKNS_10PointCloudIS2_EEidRSt6vectorIiSaIiEERS8_IfSaIfEEj@Base 1.6
 (optional=templinst)_ZNK3pcl6search6SearchINS_19PrincipalCurvaturesEE12radiusSearchEidRSt6vectorIiSaIiEERS4_IfSaIfEEj@Base 1.6
 (optional=templinst)_ZNK3pcl6search6SearchINS_19PrincipalCurvaturesEE13getInputCloudEv@Base 1.6
 (optional=templinst)_ZNK3pcl6search6SearchINS_19PrincipalCurvaturesEE14nearestKSearchERKNS_10PointCloudIS2_EERKSt6vectorIiSaIiEEiRS8_ISA_SaISA_EERS8_IS8_IfSaIfEESaISH_EE@Base 1.6
 (optional=templinst)_ZNK3pcl6search6SearchINS_19PrincipalCurvaturesEE14nearestKSearchERKNS_10PointCloudIS2_EEiiRSt6vectorIiSaIiEERS8_IfSaIfEE@Base 1.6
 (optional=templinst)_ZNK3pcl6search6SearchINS_19PrincipalCurvaturesEE14nearestKSearchEiiRSt6vectorIiSaIiEERS4_IfSaIfEE@Base 1.6
 (optional=templinst)_ZNK3pcl6search6SearchINS_19PrincipalCurvaturesEE7getNameEv@Base 1.6
 (optional=templinst)_ZNK3pcl6search6SearchINS_22NormalBasedSignature12EE10getIndicesEv@Base 1.6
 (optional=templinst)_ZNK3pcl6search6SearchINS_22NormalBasedSignature12EE12radiusSearchERKNS_10PointCloudIS2_EERKSt6vectorIiSaIiEEdRS8_ISA_SaISA_EERS8_IS8_IfSaIfEESaISH_EEj@Base 1.6
 (optional=templinst)_ZNK3pcl6search6SearchINS_22NormalBasedSignature12EE12radiusSearchERKNS_10PointCloudIS2_EEidRSt6vectorIiSaIiEERS8_IfSaIfEEj@Base 1.6
 (optional=templinst)_ZNK3pcl6search6SearchINS_22NormalBasedSignature12EE12radiusSearchEidRSt6vectorIiSaIiEERS4_IfSaIfEEj@Base 1.6
 (optional=templinst)_ZNK3pcl6search6SearchINS_22NormalBasedSignature12EE13getInputCloudEv@Base 1.6
 (optional=templinst)_ZNK3pcl6search6SearchINS_22NormalBasedSignature12EE14nearestKSearchERKNS_10PointCloudIS2_EERKSt6vectorIiSaIiEEiRS8_ISA_SaISA_EERS8_IS8_IfSaIfEESaISH_EE@Base 1.6
 (optional=templinst)_ZNK3pcl6search6SearchINS_22NormalBasedSignature12EE14nearestKSearchERKNS_10PointCloudIS2_EEiiRSt6vectorIiSaIiEERS8_IfSaIfEE@Base 1.6
 (optional=templinst)_ZNK3pcl6search6SearchINS_22NormalBasedSignature12EE14nearestKSearchEiiRSt6vectorIiSaIiEERS4_IfSaIfEE@Base 1.6
 (optional=templinst)_ZNK3pcl6search6SearchINS_22NormalBasedSignature12EE7getNameEv@Base 1.6
 (optional=templinst)_ZNK3pcl6search6SearchINS_4AxisEE10getIndicesEv@Base 1.6
 (optional=templinst)_ZNK3pcl6search6SearchINS_4AxisEE12radiusSearchERKNS_10PointCloudIS2_EERKSt6vectorIiSaIiEEdRS8_ISA_SaISA_EERS8_IS8_IfSaIfEESaISH_EEj@Base 1.6
 (optional=templinst)_ZNK3pcl6search6SearchINS_4AxisEE12radiusSearchERKNS_10PointCloudIS2_EEidRSt6vectorIiSaIiEERS8_IfSaIfEEj@Base 1.6
 (optional=templinst)_ZNK3pcl6search6SearchINS_4AxisEE12radiusSearchEidRSt6vectorIiSaIiEERS4_IfSaIfEEj@Base 1.6
 (optional=templinst)_ZNK3pcl6search6SearchINS_4AxisEE13getInputCloudEv@Base 1.6
 (optional=templinst)_ZNK3pcl6search6SearchINS_4AxisEE14nearestKSearchERKNS_10PointCloudIS2_EERKSt6vectorIiSaIiEEiRS8_ISA_SaISA_EERS8_IS8_IfSaIfEESaISH_EE@Base 1.6
 (optional=templinst)_ZNK3pcl6search6SearchINS_4AxisEE14nearestKSearchERKNS_10PointCloudIS2_EEiiRSt6vectorIiSaIiEERS8_IfSaIfEE@Base 1.6
 (optional=templinst)_ZNK3pcl6search6SearchINS_4AxisEE14nearestKSearchEiiRSt6vectorIiSaIiEERS4_IfSaIfEE@Base 1.6
 (optional=templinst)_ZNK3pcl6search6SearchINS_4AxisEE7getNameEv@Base 1.6
 (optional=templinst)_ZNK3pcl6search6SearchINS_5LabelEE10getIndicesEv@Base 1.6
 (optional=templinst)_ZNK3pcl6search6SearchINS_5LabelEE12radiusSearchERKNS_10PointCloudIS2_EERKSt6vectorIiSaIiEEdRS8_ISA_SaISA_EERS8_IS8_IfSaIfEESaISH_EEj@Base 1.6
 (optional=templinst)_ZNK3pcl6search6SearchINS_5LabelEE12radiusSearchERKNS_10PointCloudIS2_EEidRSt6vectorIiSaIiEERS8_IfSaIfEEj@Base 1.6
 (optional=templinst)_ZNK3pcl6search6SearchINS_5LabelEE12radiusSearchEidRSt6vectorIiSaIiEERS4_IfSaIfEEj@Base 1.6
 (optional=templinst)_ZNK3pcl6search6SearchINS_5LabelEE13getInputCloudEv@Base 1.6
 (optional=templinst)_ZNK3pcl6search6SearchINS_5LabelEE14nearestKSearchERKNS_10PointCloudIS2_EERKSt6vectorIiSaIiEEiRS8_ISA_SaISA_EERS8_IS8_IfSaIfEESaISH_EE@Base 1.6
 (optional=templinst)_ZNK3pcl6search6SearchINS_5LabelEE14nearestKSearchERKNS_10PointCloudIS2_EEiiRSt6vectorIiSaIiEERS8_IfSaIfEE@Base 1.6
 (optional=templinst)_ZNK3pcl6search6SearchINS_5LabelEE14nearestKSearchEiiRSt6vectorIiSaIiEERS4_IfSaIfEE@Base 1.6
 (optional=templinst)_ZNK3pcl6search6SearchINS_5LabelEE7getNameEv@Base 1.6
 (optional=templinst)_ZNK3pcl6search6SearchINS_6Narf36EE10getIndicesEv@Base 1.6
 (optional=templinst)_ZNK3pcl6search6SearchINS_6Narf36EE12radiusSearchERKNS_10PointCloudIS2_EERKSt6vectorIiSaIiEEdRS8_ISA_SaISA_EERS8_IS8_IfSaIfEESaISH_EEj@Base 1.6
 (optional=templinst)_ZNK3pcl6search6SearchINS_6Narf36EE12radiusSearchERKNS_10PointCloudIS2_EEidRSt6vectorIiSaIiEERS8_IfSaIfEEj@Base 1.6
 (optional=templinst)_ZNK3pcl6search6SearchINS_6Narf36EE12radiusSearchEidRSt6vectorIiSaIiEERS4_IfSaIfEEj@Base 1.6
 (optional=templinst)_ZNK3pcl6search6SearchINS_6Narf36EE13getInputCloudEv@Base 1.6
 (optional=templinst)_ZNK3pcl6search6SearchINS_6Narf36EE14nearestKSearchERKNS_10PointCloudIS2_EERKSt6vectorIiSaIiEEiRS8_ISA_SaISA_EERS8_IS8_IfSaIfEESaISH_EE@Base 1.6
 (optional=templinst)_ZNK3pcl6search6SearchINS_6Narf36EE14nearestKSearchERKNS_10PointCloudIS2_EEiiRSt6vectorIiSaIiEERS8_IfSaIfEE@Base 1.6
 (optional=templinst)_ZNK3pcl6search6SearchINS_6Narf36EE14nearestKSearchEiiRSt6vectorIiSaIiEERS4_IfSaIfEE@Base 1.6
 (optional=templinst)_ZNK3pcl6search6SearchINS_6Narf36EE7getNameEv@Base 1.6
 (optional=templinst)_ZNK3pcl6search6SearchINS_6NormalEE10getIndicesEv@Base 1.6
 (optional=templinst)_ZNK3pcl6search6SearchINS_6NormalEE12radiusSearchERKNS_10PointCloudIS2_EERKSt6vectorIiSaIiEEdRS8_ISA_SaISA_EERS8_IS8_IfSaIfEESaISH_EEj@Base 1.6
 (optional=templinst)_ZNK3pcl6search6SearchINS_6NormalEE12radiusSearchERKNS_10PointCloudIS2_EEidRSt6vectorIiSaIiEERS8_IfSaIfEEj@Base 1.6
 (optional=templinst)_ZNK3pcl6search6SearchINS_6NormalEE12radiusSearchEidRSt6vectorIiSaIiEERS4_IfSaIfEEj@Base 1.6
 (optional=templinst)_ZNK3pcl6search6SearchINS_6NormalEE13getInputCloudEv@Base 1.6
 (optional=templinst)_ZNK3pcl6search6SearchINS_6NormalEE14nearestKSearchERKNS_10PointCloudIS2_EERKSt6vectorIiSaIiEEiRS8_ISA_SaISA_EERS8_IS8_IfSaIfEESaISH_EE@Base 1.6
 (optional=templinst)_ZNK3pcl6search6SearchINS_6NormalEE14nearestKSearchERKNS_10PointCloudIS2_EEiiRSt6vectorIiSaIiEERS8_IfSaIfEE@Base 1.6
 (optional=templinst)_ZNK3pcl6search6SearchINS_6NormalEE14nearestKSearchEiiRSt6vectorIiSaIiEERS4_IfSaIfEE@Base 1.6
 (optional=templinst)_ZNK3pcl6search6SearchINS_6NormalEE7getNameEv@Base 1.6
 (optional=templinst)_ZNK3pcl6search6SearchINS_7PointXYEE10getIndicesEv@Base 1.6
 (optional=templinst)_ZNK3pcl6search6SearchINS_7PointXYEE12radiusSearchERKNS_10PointCloudIS2_EERKSt6vectorIiSaIiEEdRS8_ISA_SaISA_EERS8_IS8_IfSaIfEESaISH_EEj@Base 1.6
 (optional=templinst)_ZNK3pcl6search6SearchINS_7PointXYEE12radiusSearchERKNS_10PointCloudIS2_EEidRSt6vectorIiSaIiEERS8_IfSaIfEEj@Base 1.6
 (optional=templinst)_ZNK3pcl6search6SearchINS_7PointXYEE12radiusSearchEidRSt6vectorIiSaIiEERS4_IfSaIfEEj@Base 1.6
 (optional=templinst)_ZNK3pcl6search6SearchINS_7PointXYEE13getInputCloudEv@Base 1.6
 (optional=templinst)_ZNK3pcl6search6SearchINS_7PointXYEE14nearestKSearchERKNS_10PointCloudIS2_EERKSt6vectorIiSaIiEEiRS8_ISA_SaISA_EERS8_IS8_IfSaIfEESaISH_EE@Base 1.6
 (optional=templinst)_ZNK3pcl6search6SearchINS_7PointXYEE14nearestKSearchERKNS_10PointCloudIS2_EEiiRSt6vectorIiSaIiEERS8_IfSaIfEE@Base 1.6
 (optional=templinst)_ZNK3pcl6search6SearchINS_7PointXYEE14nearestKSearchEiiRSt6vectorIiSaIiEERS4_IfSaIfEE@Base 1.6
 (optional=templinst)_ZNK3pcl6search6SearchINS_7PointXYEE7getNameEv@Base 1.6
 (optional=templinst)_ZNK3pcl6search6SearchINS_8BoundaryEE10getIndicesEv@Base 1.6
 (optional=templinst)_ZNK3pcl6search6SearchINS_8BoundaryEE12radiusSearchERKNS_10PointCloudIS2_EERKSt6vectorIiSaIiEEdRS8_ISA_SaISA_EERS8_IS8_IfSaIfEESaISH_EEj@Base 1.6
 (optional=templinst)_ZNK3pcl6search6SearchINS_8BoundaryEE12radiusSearchERKNS_10PointCloudIS2_EEidRSt6vectorIiSaIiEERS8_IfSaIfEEj@Base 1.6
 (optional=templinst)_ZNK3pcl6search6SearchINS_8BoundaryEE12radiusSearchEidRSt6vectorIiSaIiEERS4_IfSaIfEEj@Base 1.6
 (optional=templinst)_ZNK3pcl6search6SearchINS_8BoundaryEE13getInputCloudEv@Base 1.6
 (optional=templinst)_ZNK3pcl6search6SearchINS_8BoundaryEE14nearestKSearchERKNS_10PointCloudIS2_EERKSt6vectorIiSaIiEEiRS8_ISA_SaISA_EERS8_IS8_IfSaIfEESaISH_EE@Base 1.6
 (optional=templinst)_ZNK3pcl6search6SearchINS_8BoundaryEE14nearestKSearchERKNS_10PointCloudIS2_EEiiRSt6vectorIiSaIiEERS8_IfSaIfEE@Base 1.6
 (optional=templinst)_ZNK3pcl6search6SearchINS_8BoundaryEE14nearestKSearchEiiRSt6vectorIiSaIiEERS4_IfSaIfEE@Base 1.6
 (optional=templinst)_ZNK3pcl6search6SearchINS_8BoundaryEE7getNameEv@Base 1.6
 (optional=templinst)_ZNK3pcl6search6SearchINS_8PointXYZEE10getIndicesEv@Base 1.6
 (optional=templinst)_ZNK3pcl6search6SearchINS_8PointXYZEE11sortResultsERSt6vectorIiSaIiEERS4_IfSaIfEE@Base 1.6
 (optional=templinst)_ZNK3pcl6search6SearchINS_8PointXYZEE12radiusSearchERKNS_10PointCloudIS2_EERKSt6vectorIiSaIiEEdRS8_ISA_SaISA_EERS8_IS8_IfSaIfEESaISH_EEj@Base 1.6
 (optional=templinst)_ZNK3pcl6search6SearchINS_8PointXYZEE12radiusSearchERKNS_10PointCloudIS2_EEidRSt6vectorIiSaIiEERS8_IfSaIfEEj@Base 1.6
 (optional=templinst)_ZNK3pcl6search6SearchINS_8PointXYZEE12radiusSearchEidRSt6vectorIiSaIiEERS4_IfSaIfEEj@Base 1.6
 (optional=templinst)_ZNK3pcl6search6SearchINS_8PointXYZEE13getInputCloudEv@Base 1.6
 (optional=templinst)_ZNK3pcl6search6SearchINS_8PointXYZEE14nearestKSearchERKNS_10PointCloudIS2_EERKSt6vectorIiSaIiEEiRS8_ISA_SaISA_EERS8_IS8_IfSaIfEESaISH_EE@Base 1.6
 (optional=templinst)_ZNK3pcl6search6SearchINS_8PointXYZEE14nearestKSearchERKNS_10PointCloudIS2_EEiiRSt6vectorIiSaIiEERS8_IfSaIfEE@Base 1.6
 (optional=templinst)_ZNK3pcl6search6SearchINS_8PointXYZEE14nearestKSearchEiiRSt6vectorIiSaIiEERS4_IfSaIfEE@Base 1.6
 (optional=templinst)_ZNK3pcl6search6SearchINS_8PointXYZEE7getNameEv@Base 1.6
 (optional=templinst)_ZNK3pcl6search6SearchINS_9PointXYZIEE10getIndicesEv@Base 1.6
 (optional=templinst)_ZNK3pcl6search6SearchINS_9PointXYZIEE11sortResultsERSt6vectorIiSaIiEERS4_IfSaIfEE@Base 1.6
 (optional=templinst)_ZNK3pcl6search6SearchINS_9PointXYZIEE12radiusSearchERKNS_10PointCloudIS2_EERKSt6vectorIiSaIiEEdRS8_ISA_SaISA_EERS8_IS8_IfSaIfEESaISH_EEj@Base 1.6
 (optional=templinst)_ZNK3pcl6search6SearchINS_9PointXYZIEE12radiusSearchERKNS_10PointCloudIS2_EEidRSt6vectorIiSaIiEERS8_IfSaIfEEj@Base 1.6
 (optional=templinst)_ZNK3pcl6search6SearchINS_9PointXYZIEE12radiusSearchEidRSt6vectorIiSaIiEERS4_IfSaIfEEj@Base 1.6
 (optional=templinst)_ZNK3pcl6search6SearchINS_9PointXYZIEE13getInputCloudEv@Base 1.6
 (optional=templinst)_ZNK3pcl6search6SearchINS_9PointXYZIEE14nearestKSearchERKNS_10PointCloudIS2_EERKSt6vectorIiSaIiEEiRS8_ISA_SaISA_EERS8_IS8_IfSaIfEESaISH_EE@Base 1.6
 (optional=templinst)_ZNK3pcl6search6SearchINS_9PointXYZIEE14nearestKSearchERKNS_10PointCloudIS2_EEiiRSt6vectorIiSaIiEERS8_IfSaIfEE@Base 1.6
 (optional=templinst)_ZNK3pcl6search6SearchINS_9PointXYZIEE14nearestKSearchEiiRSt6vectorIiSaIiEERS4_IfSaIfEE@Base 1.6
 (optional=templinst)_ZNK3pcl6search6SearchINS_9PointXYZIEE7getNameEv@Base 1.6
 (optional=templinst)_ZNK3pcl6search6SearchINS_9PointXYZLEE10getIndicesEv@Base 1.6
 (optional=templinst)_ZNK3pcl6search6SearchINS_9PointXYZLEE11sortResultsERSt6vectorIiSaIiEERS4_IfSaIfEE@Base 1.6
 (optional=templinst)_ZNK3pcl6search6SearchINS_9PointXYZLEE12radiusSearchERKNS_10PointCloudIS2_EERKSt6vectorIiSaIiEEdRS8_ISA_SaISA_EERS8_IS8_IfSaIfEESaISH_EEj@Base 1.6
 (optional=templinst)_ZNK3pcl6search6SearchINS_9PointXYZLEE12radiusSearchERKNS_10PointCloudIS2_EEidRSt6vectorIiSaIiEERS8_IfSaIfEEj@Base 1.6
 (optional=templinst)_ZNK3pcl6search6SearchINS_9PointXYZLEE12radiusSearchEidRSt6vectorIiSaIiEERS4_IfSaIfEEj@Base 1.6
 (optional=templinst)_ZNK3pcl6search6SearchINS_9PointXYZLEE13getInputCloudEv@Base 1.6
 (optional=templinst)_ZNK3pcl6search6SearchINS_9PointXYZLEE14nearestKSearchERKNS_10PointCloudIS2_EERKSt6vectorIiSaIiEEiRS8_ISA_SaISA_EERS8_IS8_IfSaIfEESaISH_EE@Base 1.6
 (optional=templinst)_ZNK3pcl6search6SearchINS_9PointXYZLEE14nearestKSearchERKNS_10PointCloudIS2_EEiiRSt6vectorIiSaIiEERS8_IfSaIfEE@Base 1.6
 (optional=templinst)_ZNK3pcl6search6SearchINS_9PointXYZLEE14nearestKSearchEiiRSt6vectorIiSaIiEERS4_IfSaIfEE@Base 1.6
 (optional=templinst)_ZNK3pcl6search6SearchINS_9PointXYZLEE7getNameEv@Base 1.6
 (optional=templinst)_ZNK5Eigen19HouseholderSequenceINS_6MatrixIdLi12ELi12ELi1ELi12ELi12EEENS1_IdLi11ELi1ELi0ELi11ELi1EEELi1EE6evalToIS2_NS1_IdLi12ELi1ELi0ELi12ELi1EEEEEvRT_RT0_@Base 1.6
 (optional=templinst)_ZNK5Eigen24SelfadjointProductMatrixINS_5BlockINS_6MatrixIdLi12ELi12ELi1ELi12ELi12EEELin1ELin1ELb0ELb1EEELi17ELb0ENS_12CwiseUnaryOpINS_8internal18scalar_multiple_opIdEEKNS1_INS1_IS3_Li12ELi1ELb0ELb1EEELin1ELi1ELb0ELb1EEEEELi0ELb1EE13scaleAndAddToINS1_INS2_IdLi11ELi1ELi0ELi11ELi1EEELin1ELi1ELb0ELb1EEEEEvRT_d@Base 1.6
 (optional=templinst)_ZNK5flann12KNNResultSetIfE4fullEv@Base 1.6
 (optional=templinst)_ZNK5flann12KNNResultSetIfE9worstDistEv@Base 1.6
 (optional=templinst)_ZNK5flann13KNNResultSet2IfE4fullEv@Base 1.6
 (optional=templinst)_ZNK5flann13KNNResultSet2IfE9worstDistEv@Base 1.6
 (optional=templinst)_ZNK5flann15UniqueResultSetIfE4fullEv@Base 1.6
 (optional=templinst)_ZNK5flann15UniqueResultSetIfE9worstDistEv@Base 1.6
 (optional=templinst)_ZNK5flann18KNNSimpleResultSetIfE4fullEv@Base 1.6
 (optional=templinst)_ZNK5flann18KNNSimpleResultSetIfE9worstDistEv@Base 1.6
 (optional=templinst)_ZNKSt16reverse_iteratorISt23_Rb_tree_const_iteratorIN5flann15UniqueResultSetIfE9DistIndexEEEdeEv@Base 1.6
 (optional=templinst)_ZNKSt6vectorIN3pcl6search17OrganizedNeighborINS0_11PointNormalEE5EntryESaIS5_EE12_M_check_lenEmPKc@Base 1.6
 (optional=templinst)_ZNKSt6vectorIN3pcl6search17OrganizedNeighborINS0_11PointXYZHSVEE5EntryESaIS5_EE12_M_check_lenEmPKc@Base 1.6
 (optional=templinst)_ZNKSt6vectorIN3pcl6search17OrganizedNeighborINS0_11PointXYZRGBEE5EntryESaIS5_EE12_M_check_lenEmPKc@Base 1.6
 (optional=templinst)_ZNKSt6vectorIN3pcl6search17OrganizedNeighborINS0_12PointXYZRGBAEE5EntryESaIS5_EE12_M_check_lenEmPKc@Base 1.6
 (optional=templinst)_ZNKSt6vectorIN3pcl6search17OrganizedNeighborINS0_12PointXYZRGBLEE5EntryESaIS5_EE12_M_check_lenEmPKc@Base 1.6
 (optional=templinst)_ZNKSt6vectorIN3pcl6search17OrganizedNeighborINS0_13InterestPointEE5EntryESaIS5_EE12_M_check_lenEmPKc@Base 1.6
 (optional=templinst)_ZNKSt6vectorIN3pcl6search17OrganizedNeighborINS0_14PointWithRangeEE5EntryESaIS5_EE12_M_check_lenEmPKc@Base 1.6
 (optional=templinst)_ZNKSt6vectorIN3pcl6search17OrganizedNeighborINS0_14PointWithScaleEE5EntryESaIS5_EE12_M_check_lenEmPKc@Base 1.6
 (optional=templinst)_ZNKSt6vectorIN3pcl6search17OrganizedNeighborINS0_15PointXYZINormalEE5EntryESaIS5_EE12_M_check_lenEmPKc@Base 1.6
 (optional=templinst)_ZNKSt6vectorIN3pcl6search17OrganizedNeighborINS0_17PointXYZRGBNormalEE5EntryESaIS5_EE12_M_check_lenEmPKc@Base 1.6
 (optional=templinst)_ZNKSt6vectorIN3pcl6search17OrganizedNeighborINS0_18PointWithViewpointEE5EntryESaIS5_EE12_M_check_lenEmPKc@Base 1.6
 (optional=templinst)_ZNKSt6vectorIN3pcl6search17OrganizedNeighborINS0_8PointXYZEE5EntryESaIS5_EE12_M_check_lenEmPKc@Base 1.6
 (optional=templinst)_ZNKSt6vectorIN3pcl6search17OrganizedNeighborINS0_9PointXYZIEE5EntryESaIS5_EE12_M_check_lenEmPKc@Base 1.6
 (optional=templinst)_ZNKSt6vectorIN3pcl6search17OrganizedNeighborINS0_9PointXYZLEE5EntryESaIS5_EE12_M_check_lenEmPKc@Base 1.6
 (optional=templinst)_ZNKSt6vectorIN5flann13DistanceIndexIfEESaIS2_EE12_M_check_lenEmPKc@Base 1.6
 (optional=templinst)_ZNKSt6vectorIS_IfSaIfEESaIS1_EE12_M_check_lenEmPKc@Base 1.6
 (optional=templinst)_ZNKSt6vectorIS_IiSaIiEESaIS1_EE12_M_check_lenEmPKc@Base 1.6
 (optional=templinst)_ZNKSt6vectorIfSaIfEE12_M_check_lenEmPKc@Base 1.6
 (optional=templinst)_ZNKSt6vectorIhSaIhEE12_M_check_lenEmPKc@Base 1.6
 (optional=templinst)_ZNKSt6vectorIiSaIiEE12_M_check_lenEmPKc@Base 1.6
 (optional=templinst)_ZNSt11__copy_moveILb0ELb1ESt26random_access_iterator_tagE8__copy_mIfEEPT_PKS3_S6_S4_@Base 1.6
 (optional=templinst)_ZNSt11__copy_moveILb0ELb1ESt26random_access_iterator_tagE8__copy_mIiEEPT_PKS3_S6_S4_@Base 1.6
 (optional=templinst)_ZNSt12_Destroy_auxILb0EE9__destroyIPSt6vectorIfSaIfEEEEvT_S6_@Base 1.6
 (optional=templinst)_ZNSt12_Destroy_auxILb0EE9__destroyIPSt6vectorIiSaIiEEEEvT_S6_@Base 1.6
 (optional=templinst)_ZNSt12_Vector_baseIiSaIiEED1Ev@Base 1.6
 (optional=templinst)_ZNSt12_Vector_baseIiSaIiEED2Ev@Base 1.6
 (optional=templinst)_ZNSt14priority_queueIN3pcl6search10BruteForceINS0_11PointNormalEE5EntryESt6vectorIS5_SaIS5_EESt4lessIS5_EEC1IN9__gnu_cxx17__normal_iteratorIPS5_S8_EEEET_SH_RKSA_RKS8_@Base 1.6
 (optional=templinst)_ZNSt14priority_queueIN3pcl6search10BruteForceINS0_11PointNormalEE5EntryESt6vectorIS5_SaIS5_EESt4lessIS5_EEC2IN9__gnu_cxx17__normal_iteratorIPS5_S8_EEEET_SH_RKSA_RKS8_@Base 1.6
 (optional=templinst)_ZNSt14priority_queueIN3pcl6search10BruteForceINS0_11PointNormalEE5EntryESt6vectorIS5_SaIS5_EESt4lessIS5_EED1Ev@Base 1.6
 (optional=templinst)_ZNSt14priority_queueIN3pcl6search10BruteForceINS0_11PointNormalEE5EntryESt6vectorIS5_SaIS5_EESt4lessIS5_EED2Ev@Base 1.6
 (optional=templinst)_ZNSt14priority_queueIN3pcl6search10BruteForceINS0_11PointXYZHSVEE5EntryESt6vectorIS5_SaIS5_EESt4lessIS5_EEC1IN9__gnu_cxx17__normal_iteratorIPS5_S8_EEEET_SH_RKSA_RKS8_@Base 1.6
 (optional=templinst)_ZNSt14priority_queueIN3pcl6search10BruteForceINS0_11PointXYZHSVEE5EntryESt6vectorIS5_SaIS5_EESt4lessIS5_EEC2IN9__gnu_cxx17__normal_iteratorIPS5_S8_EEEET_SH_RKSA_RKS8_@Base 1.6
 (optional=templinst)_ZNSt14priority_queueIN3pcl6search10BruteForceINS0_11PointXYZHSVEE5EntryESt6vectorIS5_SaIS5_EESt4lessIS5_EED1Ev@Base 1.6
 (optional=templinst)_ZNSt14priority_queueIN3pcl6search10BruteForceINS0_11PointXYZHSVEE5EntryESt6vectorIS5_SaIS5_EESt4lessIS5_EED2Ev@Base 1.6
 (optional=templinst)_ZNSt14priority_queueIN3pcl6search10BruteForceINS0_11PointXYZRGBEE5EntryESt6vectorIS5_SaIS5_EESt4lessIS5_EEC1IN9__gnu_cxx17__normal_iteratorIPS5_S8_EEEET_SH_RKSA_RKS8_@Base 1.6
 (optional=templinst)_ZNSt14priority_queueIN3pcl6search10BruteForceINS0_11PointXYZRGBEE5EntryESt6vectorIS5_SaIS5_EESt4lessIS5_EEC2IN9__gnu_cxx17__normal_iteratorIPS5_S8_EEEET_SH_RKSA_RKS8_@Base 1.6
 (optional=templinst)_ZNSt14priority_queueIN3pcl6search10BruteForceINS0_11PointXYZRGBEE5EntryESt6vectorIS5_SaIS5_EESt4lessIS5_EED1Ev@Base 1.6
 (optional=templinst)_ZNSt14priority_queueIN3pcl6search10BruteForceINS0_11PointXYZRGBEE5EntryESt6vectorIS5_SaIS5_EESt4lessIS5_EED2Ev@Base 1.6
 (optional=templinst)_ZNSt14priority_queueIN3pcl6search10BruteForceINS0_12PointXYZRGBAEE5EntryESt6vectorIS5_SaIS5_EESt4lessIS5_EEC1IN9__gnu_cxx17__normal_iteratorIPS5_S8_EEEET_SH_RKSA_RKS8_@Base 1.6
 (optional=templinst)_ZNSt14priority_queueIN3pcl6search10BruteForceINS0_12PointXYZRGBAEE5EntryESt6vectorIS5_SaIS5_EESt4lessIS5_EEC2IN9__gnu_cxx17__normal_iteratorIPS5_S8_EEEET_SH_RKSA_RKS8_@Base 1.6
 (optional=templinst)_ZNSt14priority_queueIN3pcl6search10BruteForceINS0_12PointXYZRGBAEE5EntryESt6vectorIS5_SaIS5_EESt4lessIS5_EED1Ev@Base 1.6
 (optional=templinst)_ZNSt14priority_queueIN3pcl6search10BruteForceINS0_12PointXYZRGBAEE5EntryESt6vectorIS5_SaIS5_EESt4lessIS5_EED2Ev@Base 1.6
 (optional=templinst)_ZNSt14priority_queueIN3pcl6search10BruteForceINS0_12PointXYZRGBLEE5EntryESt6vectorIS5_SaIS5_EESt4lessIS5_EEC1IN9__gnu_cxx17__normal_iteratorIPS5_S8_EEEET_SH_RKSA_RKS8_@Base 1.6
 (optional=templinst)_ZNSt14priority_queueIN3pcl6search10BruteForceINS0_12PointXYZRGBLEE5EntryESt6vectorIS5_SaIS5_EESt4lessIS5_EEC2IN9__gnu_cxx17__normal_iteratorIPS5_S8_EEEET_SH_RKSA_RKS8_@Base 1.6
 (optional=templinst)_ZNSt14priority_queueIN3pcl6search10BruteForceINS0_12PointXYZRGBLEE5EntryESt6vectorIS5_SaIS5_EESt4lessIS5_EED1Ev@Base 1.6
 (optional=templinst)_ZNSt14priority_queueIN3pcl6search10BruteForceINS0_12PointXYZRGBLEE5EntryESt6vectorIS5_SaIS5_EESt4lessIS5_EED2Ev@Base 1.6
 (optional=templinst)_ZNSt14priority_queueIN3pcl6search10BruteForceINS0_13InterestPointEE5EntryESt6vectorIS5_SaIS5_EESt4lessIS5_EEC1IN9__gnu_cxx17__normal_iteratorIPS5_S8_EEEET_SH_RKSA_RKS8_@Base 1.6
 (optional=templinst)_ZNSt14priority_queueIN3pcl6search10BruteForceINS0_13InterestPointEE5EntryESt6vectorIS5_SaIS5_EESt4lessIS5_EEC2IN9__gnu_cxx17__normal_iteratorIPS5_S8_EEEET_SH_RKSA_RKS8_@Base 1.6
 (optional=templinst)_ZNSt14priority_queueIN3pcl6search10BruteForceINS0_13InterestPointEE5EntryESt6vectorIS5_SaIS5_EESt4lessIS5_EED1Ev@Base 1.6
 (optional=templinst)_ZNSt14priority_queueIN3pcl6search10BruteForceINS0_13InterestPointEE5EntryESt6vectorIS5_SaIS5_EESt4lessIS5_EED2Ev@Base 1.6
 (optional=templinst)_ZNSt14priority_queueIN3pcl6search10BruteForceINS0_14PointWithRangeEE5EntryESt6vectorIS5_SaIS5_EESt4lessIS5_EEC1IN9__gnu_cxx17__normal_iteratorIPS5_S8_EEEET_SH_RKSA_RKS8_@Base 1.6
 (optional=templinst)_ZNSt14priority_queueIN3pcl6search10BruteForceINS0_14PointWithRangeEE5EntryESt6vectorIS5_SaIS5_EESt4lessIS5_EEC2IN9__gnu_cxx17__normal_iteratorIPS5_S8_EEEET_SH_RKSA_RKS8_@Base 1.6
 (optional=templinst)_ZNSt14priority_queueIN3pcl6search10BruteForceINS0_14PointWithRangeEE5EntryESt6vectorIS5_SaIS5_EESt4lessIS5_EED1Ev@Base 1.6
 (optional=templinst)_ZNSt14priority_queueIN3pcl6search10BruteForceINS0_14PointWithRangeEE5EntryESt6vectorIS5_SaIS5_EESt4lessIS5_EED2Ev@Base 1.6
 (optional=templinst)_ZNSt14priority_queueIN3pcl6search10BruteForceINS0_14PointWithScaleEE5EntryESt6vectorIS5_SaIS5_EESt4lessIS5_EEC1IN9__gnu_cxx17__normal_iteratorIPS5_S8_EEEET_SH_RKSA_RKS8_@Base 1.6
 (optional=templinst)_ZNSt14priority_queueIN3pcl6search10BruteForceINS0_14PointWithScaleEE5EntryESt6vectorIS5_SaIS5_EESt4lessIS5_EEC2IN9__gnu_cxx17__normal_iteratorIPS5_S8_EEEET_SH_RKSA_RKS8_@Base 1.6
 (optional=templinst)_ZNSt14priority_queueIN3pcl6search10BruteForceINS0_14PointWithScaleEE5EntryESt6vectorIS5_SaIS5_EESt4lessIS5_EED1Ev@Base 1.6
 (optional=templinst)_ZNSt14priority_queueIN3pcl6search10BruteForceINS0_14PointWithScaleEE5EntryESt6vectorIS5_SaIS5_EESt4lessIS5_EED2Ev@Base 1.6
 (optional=templinst)_ZNSt14priority_queueIN3pcl6search10BruteForceINS0_15PointXYZINormalEE5EntryESt6vectorIS5_SaIS5_EESt4lessIS5_EEC1IN9__gnu_cxx17__normal_iteratorIPS5_S8_EEEET_SH_RKSA_RKS8_@Base 1.6
 (optional=templinst)_ZNSt14priority_queueIN3pcl6search10BruteForceINS0_15PointXYZINormalEE5EntryESt6vectorIS5_SaIS5_EESt4lessIS5_EEC2IN9__gnu_cxx17__normal_iteratorIPS5_S8_EEEET_SH_RKSA_RKS8_@Base 1.6
 (optional=templinst)_ZNSt14priority_queueIN3pcl6search10BruteForceINS0_15PointXYZINormalEE5EntryESt6vectorIS5_SaIS5_EESt4lessIS5_EED1Ev@Base 1.6
 (optional=templinst)_ZNSt14priority_queueIN3pcl6search10BruteForceINS0_15PointXYZINormalEE5EntryESt6vectorIS5_SaIS5_EESt4lessIS5_EED2Ev@Base 1.6
 (optional=templinst)_ZNSt14priority_queueIN3pcl6search10BruteForceINS0_17PointXYZRGBNormalEE5EntryESt6vectorIS5_SaIS5_EESt4lessIS5_EEC1IN9__gnu_cxx17__normal_iteratorIPS5_S8_EEEET_SH_RKSA_RKS8_@Base 1.6
 (optional=templinst)_ZNSt14priority_queueIN3pcl6search10BruteForceINS0_17PointXYZRGBNormalEE5EntryESt6vectorIS5_SaIS5_EESt4lessIS5_EEC2IN9__gnu_cxx17__normal_iteratorIPS5_S8_EEEET_SH_RKSA_RKS8_@Base 1.6
 (optional=templinst)_ZNSt14priority_queueIN3pcl6search10BruteForceINS0_17PointXYZRGBNormalEE5EntryESt6vectorIS5_SaIS5_EESt4lessIS5_EED1Ev@Base 1.6
 (optional=templinst)_ZNSt14priority_queueIN3pcl6search10BruteForceINS0_17PointXYZRGBNormalEE5EntryESt6vectorIS5_SaIS5_EESt4lessIS5_EED2Ev@Base 1.6
 (optional=templinst)_ZNSt14priority_queueIN3pcl6search10BruteForceINS0_18PointWithViewpointEE5EntryESt6vectorIS5_SaIS5_EESt4lessIS5_EEC1IN9__gnu_cxx17__normal_iteratorIPS5_S8_EEEET_SH_RKSA_RKS8_@Base 1.6
 (optional=templinst)_ZNSt14priority_queueIN3pcl6search10BruteForceINS0_18PointWithViewpointEE5EntryESt6vectorIS5_SaIS5_EESt4lessIS5_EEC2IN9__gnu_cxx17__normal_iteratorIPS5_S8_EEEET_SH_RKSA_RKS8_@Base 1.6
 (optional=templinst)_ZNSt14priority_queueIN3pcl6search10BruteForceINS0_18PointWithViewpointEE5EntryESt6vectorIS5_SaIS5_EESt4lessIS5_EED1Ev@Base 1.6
 (optional=templinst)_ZNSt14priority_queueIN3pcl6search10BruteForceINS0_18PointWithViewpointEE5EntryESt6vectorIS5_SaIS5_EESt4lessIS5_EED2Ev@Base 1.6
 (optional=templinst)_ZNSt14priority_queueIN3pcl6search10BruteForceINS0_8PointXYZEE5EntryESt6vectorIS5_SaIS5_EESt4lessIS5_EEC1IN9__gnu_cxx17__normal_iteratorIPS5_S8_EEEET_SH_RKSA_RKS8_@Base 1.6
 (optional=templinst)_ZNSt14priority_queueIN3pcl6search10BruteForceINS0_8PointXYZEE5EntryESt6vectorIS5_SaIS5_EESt4lessIS5_EEC2IN9__gnu_cxx17__normal_iteratorIPS5_S8_EEEET_SH_RKSA_RKS8_@Base 1.6
 (optional=templinst)_ZNSt14priority_queueIN3pcl6search10BruteForceINS0_8PointXYZEE5EntryESt6vectorIS5_SaIS5_EESt4lessIS5_EED1Ev@Base 1.6
 (optional=templinst)_ZNSt14priority_queueIN3pcl6search10BruteForceINS0_8PointXYZEE5EntryESt6vectorIS5_SaIS5_EESt4lessIS5_EED2Ev@Base 1.6
 (optional=templinst)_ZNSt14priority_queueIN3pcl6search10BruteForceINS0_9PointXYZIEE5EntryESt6vectorIS5_SaIS5_EESt4lessIS5_EEC1IN9__gnu_cxx17__normal_iteratorIPS5_S8_EEEET_SH_RKSA_RKS8_@Base 1.6
 (optional=templinst)_ZNSt14priority_queueIN3pcl6search10BruteForceINS0_9PointXYZIEE5EntryESt6vectorIS5_SaIS5_EESt4lessIS5_EEC2IN9__gnu_cxx17__normal_iteratorIPS5_S8_EEEET_SH_RKSA_RKS8_@Base 1.6
 (optional=templinst)_ZNSt14priority_queueIN3pcl6search10BruteForceINS0_9PointXYZIEE5EntryESt6vectorIS5_SaIS5_EESt4lessIS5_EED1Ev@Base 1.6
 (optional=templinst)_ZNSt14priority_queueIN3pcl6search10BruteForceINS0_9PointXYZIEE5EntryESt6vectorIS5_SaIS5_EESt4lessIS5_EED2Ev@Base 1.6
 (optional=templinst)_ZNSt14priority_queueIN3pcl6search10BruteForceINS0_9PointXYZLEE5EntryESt6vectorIS5_SaIS5_EESt4lessIS5_EEC1IN9__gnu_cxx17__normal_iteratorIPS5_S8_EEEET_SH_RKSA_RKS8_@Base 1.6
 (optional=templinst)_ZNSt14priority_queueIN3pcl6search10BruteForceINS0_9PointXYZLEE5EntryESt6vectorIS5_SaIS5_EESt4lessIS5_EEC2IN9__gnu_cxx17__normal_iteratorIPS5_S8_EEEET_SH_RKSA_RKS8_@Base 1.6
 (optional=templinst)_ZNSt14priority_queueIN3pcl6search10BruteForceINS0_9PointXYZLEE5EntryESt6vectorIS5_SaIS5_EESt4lessIS5_EED1Ev@Base 1.6
 (optional=templinst)_ZNSt14priority_queueIN3pcl6search10BruteForceINS0_9PointXYZLEE5EntryESt6vectorIS5_SaIS5_EESt4lessIS5_EED2Ev@Base 1.6
 (optional=templinst)_ZNSt14priority_queueIN3pcl6search17OrganizedNeighborINS0_11PointNormalEE5EntryESt6vectorIS5_SaIS5_EESt4lessIS5_EE3popEv@Base 1.6
 (optional=templinst)_ZNSt14priority_queueIN3pcl6search17OrganizedNeighborINS0_11PointNormalEE5EntryESt6vectorIS5_SaIS5_EESt4lessIS5_EE4pushERKS5_@Base 1.6
 (optional=templinst)_ZNSt14priority_queueIN3pcl6search17OrganizedNeighborINS0_11PointNormalEE5EntryESt6vectorIS5_SaIS5_EESt4lessIS5_EED1Ev@Base 1.6
 (optional=templinst)_ZNSt14priority_queueIN3pcl6search17OrganizedNeighborINS0_11PointNormalEE5EntryESt6vectorIS5_SaIS5_EESt4lessIS5_EED2Ev@Base 1.6
 (optional=templinst)_ZNSt14priority_queueIN3pcl6search17OrganizedNeighborINS0_11PointXYZHSVEE5EntryESt6vectorIS5_SaIS5_EESt4lessIS5_EE3popEv@Base 1.6
 (optional=templinst)_ZNSt14priority_queueIN3pcl6search17OrganizedNeighborINS0_11PointXYZHSVEE5EntryESt6vectorIS5_SaIS5_EESt4lessIS5_EE4pushERKS5_@Base 1.6
 (optional=templinst)_ZNSt14priority_queueIN3pcl6search17OrganizedNeighborINS0_11PointXYZHSVEE5EntryESt6vectorIS5_SaIS5_EESt4lessIS5_EED1Ev@Base 1.6
 (optional=templinst)_ZNSt14priority_queueIN3pcl6search17OrganizedNeighborINS0_11PointXYZHSVEE5EntryESt6vectorIS5_SaIS5_EESt4lessIS5_EED2Ev@Base 1.6
 (optional=templinst)_ZNSt14priority_queueIN3pcl6search17OrganizedNeighborINS0_11PointXYZRGBEE5EntryESt6vectorIS5_SaIS5_EESt4lessIS5_EE3popEv@Base 1.6
 (optional=templinst)_ZNSt14priority_queueIN3pcl6search17OrganizedNeighborINS0_11PointXYZRGBEE5EntryESt6vectorIS5_SaIS5_EESt4lessIS5_EE4pushERKS5_@Base 1.6
 (optional=templinst)_ZNSt14priority_queueIN3pcl6search17OrganizedNeighborINS0_11PointXYZRGBEE5EntryESt6vectorIS5_SaIS5_EESt4lessIS5_EED1Ev@Base 1.6
 (optional=templinst)_ZNSt14priority_queueIN3pcl6search17OrganizedNeighborINS0_11PointXYZRGBEE5EntryESt6vectorIS5_SaIS5_EESt4lessIS5_EED2Ev@Base 1.6
 (optional=templinst)_ZNSt14priority_queueIN3pcl6search17OrganizedNeighborINS0_12PointXYZRGBAEE5EntryESt6vectorIS5_SaIS5_EESt4lessIS5_EE3popEv@Base 1.6
 (optional=templinst)_ZNSt14priority_queueIN3pcl6search17OrganizedNeighborINS0_12PointXYZRGBAEE5EntryESt6vectorIS5_SaIS5_EESt4lessIS5_EE4pushERKS5_@Base 1.6
 (optional=templinst)_ZNSt14priority_queueIN3pcl6search17OrganizedNeighborINS0_12PointXYZRGBAEE5EntryESt6vectorIS5_SaIS5_EESt4lessIS5_EED1Ev@Base 1.6
 (optional=templinst)_ZNSt14priority_queueIN3pcl6search17OrganizedNeighborINS0_12PointXYZRGBAEE5EntryESt6vectorIS5_SaIS5_EESt4lessIS5_EED2Ev@Base 1.6
 (optional=templinst)_ZNSt14priority_queueIN3pcl6search17OrganizedNeighborINS0_12PointXYZRGBLEE5EntryESt6vectorIS5_SaIS5_EESt4lessIS5_EE3popEv@Base 1.6
 (optional=templinst)_ZNSt14priority_queueIN3pcl6search17OrganizedNeighborINS0_12PointXYZRGBLEE5EntryESt6vectorIS5_SaIS5_EESt4lessIS5_EE4pushERKS5_@Base 1.6
 (optional=templinst)_ZNSt14priority_queueIN3pcl6search17OrganizedNeighborINS0_12PointXYZRGBLEE5EntryESt6vectorIS5_SaIS5_EESt4lessIS5_EED1Ev@Base 1.6
 (optional=templinst)_ZNSt14priority_queueIN3pcl6search17OrganizedNeighborINS0_12PointXYZRGBLEE5EntryESt6vectorIS5_SaIS5_EESt4lessIS5_EED2Ev@Base 1.6
 (optional=templinst)_ZNSt14priority_queueIN3pcl6search17OrganizedNeighborINS0_13InterestPointEE5EntryESt6vectorIS5_SaIS5_EESt4lessIS5_EE3popEv@Base 1.6
 (optional=templinst)_ZNSt14priority_queueIN3pcl6search17OrganizedNeighborINS0_13InterestPointEE5EntryESt6vectorIS5_SaIS5_EESt4lessIS5_EE4pushERKS5_@Base 1.6
 (optional=templinst)_ZNSt14priority_queueIN3pcl6search17OrganizedNeighborINS0_13InterestPointEE5EntryESt6vectorIS5_SaIS5_EESt4lessIS5_EED1Ev@Base 1.6
 (optional=templinst)_ZNSt14priority_queueIN3pcl6search17OrganizedNeighborINS0_13InterestPointEE5EntryESt6vectorIS5_SaIS5_EESt4lessIS5_EED2Ev@Base 1.6
 (optional=templinst)_ZNSt14priority_queueIN3pcl6search17OrganizedNeighborINS0_14PointWithRangeEE5EntryESt6vectorIS5_SaIS5_EESt4lessIS5_EE3popEv@Base 1.6
 (optional=templinst)_ZNSt14priority_queueIN3pcl6search17OrganizedNeighborINS0_14PointWithRangeEE5EntryESt6vectorIS5_SaIS5_EESt4lessIS5_EE4pushERKS5_@Base 1.6
 (optional=templinst)_ZNSt14priority_queueIN3pcl6search17OrganizedNeighborINS0_14PointWithRangeEE5EntryESt6vectorIS5_SaIS5_EESt4lessIS5_EED1Ev@Base 1.6
 (optional=templinst)_ZNSt14priority_queueIN3pcl6search17OrganizedNeighborINS0_14PointWithRangeEE5EntryESt6vectorIS5_SaIS5_EESt4lessIS5_EED2Ev@Base 1.6
 (optional=templinst)_ZNSt14priority_queueIN3pcl6search17OrganizedNeighborINS0_14PointWithScaleEE5EntryESt6vectorIS5_SaIS5_EESt4lessIS5_EE3popEv@Base 1.6
 (optional=templinst)_ZNSt14priority_queueIN3pcl6search17OrganizedNeighborINS0_14PointWithScaleEE5EntryESt6vectorIS5_SaIS5_EESt4lessIS5_EE4pushERKS5_@Base 1.6
 (optional=templinst)_ZNSt14priority_queueIN3pcl6search17OrganizedNeighborINS0_14PointWithScaleEE5EntryESt6vectorIS5_SaIS5_EESt4lessIS5_EED1Ev@Base 1.6
 (optional=templinst)_ZNSt14priority_queueIN3pcl6search17OrganizedNeighborINS0_14PointWithScaleEE5EntryESt6vectorIS5_SaIS5_EESt4lessIS5_EED2Ev@Base 1.6
 (optional=templinst)_ZNSt14priority_queueIN3pcl6search17OrganizedNeighborINS0_15PointXYZINormalEE5EntryESt6vectorIS5_SaIS5_EESt4lessIS5_EE3popEv@Base 1.6
 (optional=templinst)_ZNSt14priority_queueIN3pcl6search17OrganizedNeighborINS0_15PointXYZINormalEE5EntryESt6vectorIS5_SaIS5_EESt4lessIS5_EE4pushERKS5_@Base 1.6
 (optional=templinst)_ZNSt14priority_queueIN3pcl6search17OrganizedNeighborINS0_15PointXYZINormalEE5EntryESt6vectorIS5_SaIS5_EESt4lessIS5_EED1Ev@Base 1.6
 (optional=templinst)_ZNSt14priority_queueIN3pcl6search17OrganizedNeighborINS0_15PointXYZINormalEE5EntryESt6vectorIS5_SaIS5_EESt4lessIS5_EED2Ev@Base 1.6
 (optional=templinst)_ZNSt14priority_queueIN3pcl6search17OrganizedNeighborINS0_17PointXYZRGBNormalEE5EntryESt6vectorIS5_SaIS5_EESt4lessIS5_EE3popEv@Base 1.6
 (optional=templinst)_ZNSt14priority_queueIN3pcl6search17OrganizedNeighborINS0_17PointXYZRGBNormalEE5EntryESt6vectorIS5_SaIS5_EESt4lessIS5_EE4pushERKS5_@Base 1.6
 (optional=templinst)_ZNSt14priority_queueIN3pcl6search17OrganizedNeighborINS0_17PointXYZRGBNormalEE5EntryESt6vectorIS5_SaIS5_EESt4lessIS5_EED1Ev@Base 1.6
 (optional=templinst)_ZNSt14priority_queueIN3pcl6search17OrganizedNeighborINS0_17PointXYZRGBNormalEE5EntryESt6vectorIS5_SaIS5_EESt4lessIS5_EED2Ev@Base 1.6
 (optional=templinst)_ZNSt14priority_queueIN3pcl6search17OrganizedNeighborINS0_18PointWithViewpointEE5EntryESt6vectorIS5_SaIS5_EESt4lessIS5_EE3popEv@Base 1.6
 (optional=templinst)_ZNSt14priority_queueIN3pcl6search17OrganizedNeighborINS0_18PointWithViewpointEE5EntryESt6vectorIS5_SaIS5_EESt4lessIS5_EE4pushERKS5_@Base 1.6
 (optional=templinst)_ZNSt14priority_queueIN3pcl6search17OrganizedNeighborINS0_18PointWithViewpointEE5EntryESt6vectorIS5_SaIS5_EESt4lessIS5_EED1Ev@Base 1.6
 (optional=templinst)_ZNSt14priority_queueIN3pcl6search17OrganizedNeighborINS0_18PointWithViewpointEE5EntryESt6vectorIS5_SaIS5_EESt4lessIS5_EED2Ev@Base 1.6
 (optional=templinst)_ZNSt14priority_queueIN3pcl6search17OrganizedNeighborINS0_8PointXYZEE5EntryESt6vectorIS5_SaIS5_EESt4lessIS5_EE3popEv@Base 1.6
 (optional=templinst)_ZNSt14priority_queueIN3pcl6search17OrganizedNeighborINS0_8PointXYZEE5EntryESt6vectorIS5_SaIS5_EESt4lessIS5_EE4pushERKS5_@Base 1.6
 (optional=templinst)_ZNSt14priority_queueIN3pcl6search17OrganizedNeighborINS0_8PointXYZEE5EntryESt6vectorIS5_SaIS5_EESt4lessIS5_EED1Ev@Base 1.6
 (optional=templinst)_ZNSt14priority_queueIN3pcl6search17OrganizedNeighborINS0_8PointXYZEE5EntryESt6vectorIS5_SaIS5_EESt4lessIS5_EED2Ev@Base 1.6
 (optional=templinst)_ZNSt14priority_queueIN3pcl6search17OrganizedNeighborINS0_9PointXYZIEE5EntryESt6vectorIS5_SaIS5_EESt4lessIS5_EE3popEv@Base 1.6
 (optional=templinst)_ZNSt14priority_queueIN3pcl6search17OrganizedNeighborINS0_9PointXYZIEE5EntryESt6vectorIS5_SaIS5_EESt4lessIS5_EE4pushERKS5_@Base 1.6
 (optional=templinst)_ZNSt14priority_queueIN3pcl6search17OrganizedNeighborINS0_9PointXYZIEE5EntryESt6vectorIS5_SaIS5_EESt4lessIS5_EED1Ev@Base 1.6
 (optional=templinst)_ZNSt14priority_queueIN3pcl6search17OrganizedNeighborINS0_9PointXYZIEE5EntryESt6vectorIS5_SaIS5_EESt4lessIS5_EED2Ev@Base 1.6
 (optional=templinst)_ZNSt14priority_queueIN3pcl6search17OrganizedNeighborINS0_9PointXYZLEE5EntryESt6vectorIS5_SaIS5_EESt4lessIS5_EE3popEv@Base 1.6
 (optional=templinst)_ZNSt14priority_queueIN3pcl6search17OrganizedNeighborINS0_9PointXYZLEE5EntryESt6vectorIS5_SaIS5_EESt4lessIS5_EE4pushERKS5_@Base 1.6
 (optional=templinst)_ZNSt14priority_queueIN3pcl6search17OrganizedNeighborINS0_9PointXYZLEE5EntryESt6vectorIS5_SaIS5_EESt4lessIS5_EED1Ev@Base 1.6
 (optional=templinst)_ZNSt14priority_queueIN3pcl6search17OrganizedNeighborINS0_9PointXYZLEE5EntryESt6vectorIS5_SaIS5_EESt4lessIS5_EED2Ev@Base 1.6
 (optional=templinst)_ZNSt20__copy_move_backwardILb0ELb0ESt26random_access_iterator_tagE13__copy_move_bIPSt6vectorIfSaIfEES6_EET0_T_S8_S7_@Base 1.6
 (optional=templinst)_ZNSt20__copy_move_backwardILb0ELb0ESt26random_access_iterator_tagE13__copy_move_bIPSt6vectorIiSaIiEES6_EET0_T_S8_S7_@Base 1.6
 (optional=templinst)_ZNSt20__uninitialized_copyILb0EE13__uninit_copyIPSt6vectorIfSaIfEES5_EET0_T_S7_S6_@Base 1.6
 (optional=templinst)_ZNSt20__uninitialized_copyILb0EE13__uninit_copyIPSt6vectorIiSaIiEES5_EET0_T_S7_S6_@Base 1.6
 (optional=templinst)_ZNSt22__uninitialized_fill_nILb0EE15__uninit_fill_nIPSt6vectorIfSaIfEEmS4_EEvT_T0_RKT1_@Base 1.6
 (optional=templinst)_ZNSt22__uninitialized_fill_nILb0EE15__uninit_fill_nIPSt6vectorIiSaIiEEmS4_EEvT_T0_RKT1_@Base 1.6
 (optional=templinst)_ZNSt3setIN5flann15UniqueResultSetIfE9DistIndexESt4lessIS3_ESaIS3_EE5eraseERKS3_@Base 1.6
 (optional=templinst)_ZNSt6vectorIN3pcl6search10BruteForceINS0_11PointNormalEE5EntryESaIS5_EE13_M_insert_auxEN9__gnu_cxx17__normal_iteratorIPS5_S7_EERKS5_@Base 1.6
 (optional=templinst)_ZNSt6vectorIN3pcl6search10BruteForceINS0_11PointNormalEE5EntryESaIS5_EE15_M_range_insertIN9__gnu_cxx17__normal_iteratorIPS5_S7_EEEEvSC_T_SD_St20forward_iterator_tag@Base 1.6
 (optional=templinst)_ZNSt6vectorIN3pcl6search10BruteForceINS0_11PointNormalEE5EntryESaIS5_EE7reserveEm@Base 1.6
 (optional=templinst)_ZNSt6vectorIN3pcl6search10BruteForceINS0_11PointNormalEE5EntryESaIS5_EEC1ERKS7_@Base 1.6
 (optional=templinst)_ZNSt6vectorIN3pcl6search10BruteForceINS0_11PointNormalEE5EntryESaIS5_EEC2ERKS7_@Base 1.6
 (optional=templinst)_ZNSt6vectorIN3pcl6search10BruteForceINS0_11PointNormalEE5EntryESaIS5_EED1Ev@Base 1.6
 (optional=templinst)_ZNSt6vectorIN3pcl6search10BruteForceINS0_11PointNormalEE5EntryESaIS5_EED2Ev@Base 1.6
 (optional=templinst)_ZNSt6vectorIN3pcl6search10BruteForceINS0_11PointNormalEE5EntryESaIS5_EEaSERKS7_@Base 1.6
 (optional=templinst)_ZNSt6vectorIN3pcl6search10BruteForceINS0_11PointXYZHSVEE5EntryESaIS5_EE13_M_insert_auxEN9__gnu_cxx17__normal_iteratorIPS5_S7_EERKS5_@Base 1.6
 (optional=templinst)_ZNSt6vectorIN3pcl6search10BruteForceINS0_11PointXYZHSVEE5EntryESaIS5_EE15_M_range_insertIN9__gnu_cxx17__normal_iteratorIPS5_S7_EEEEvSC_T_SD_St20forward_iterator_tag@Base 1.6
 (optional=templinst)_ZNSt6vectorIN3pcl6search10BruteForceINS0_11PointXYZHSVEE5EntryESaIS5_EE7reserveEm@Base 1.6
 (optional=templinst)_ZNSt6vectorIN3pcl6search10BruteForceINS0_11PointXYZHSVEE5EntryESaIS5_EEC1ERKS7_@Base 1.6
 (optional=templinst)_ZNSt6vectorIN3pcl6search10BruteForceINS0_11PointXYZHSVEE5EntryESaIS5_EEC2ERKS7_@Base 1.6
 (optional=templinst)_ZNSt6vectorIN3pcl6search10BruteForceINS0_11PointXYZHSVEE5EntryESaIS5_EED1Ev@Base 1.6
 (optional=templinst)_ZNSt6vectorIN3pcl6search10BruteForceINS0_11PointXYZHSVEE5EntryESaIS5_EED2Ev@Base 1.6
 (optional=templinst)_ZNSt6vectorIN3pcl6search10BruteForceINS0_11PointXYZHSVEE5EntryESaIS5_EEaSERKS7_@Base 1.6
 (optional=templinst)_ZNSt6vectorIN3pcl6search10BruteForceINS0_11PointXYZRGBEE5EntryESaIS5_EE13_M_insert_auxEN9__gnu_cxx17__normal_iteratorIPS5_S7_EERKS5_@Base 1.6
 (optional=templinst)_ZNSt6vectorIN3pcl6search10BruteForceINS0_11PointXYZRGBEE5EntryESaIS5_EE15_M_range_insertIN9__gnu_cxx17__normal_iteratorIPS5_S7_EEEEvSC_T_SD_St20forward_iterator_tag@Base 1.6
 (optional=templinst)_ZNSt6vectorIN3pcl6search10BruteForceINS0_11PointXYZRGBEE5EntryESaIS5_EE7reserveEm@Base 1.6
 (optional=templinst)_ZNSt6vectorIN3pcl6search10BruteForceINS0_11PointXYZRGBEE5EntryESaIS5_EEC1ERKS7_@Base 1.6
 (optional=templinst)_ZNSt6vectorIN3pcl6search10BruteForceINS0_11PointXYZRGBEE5EntryESaIS5_EEC2ERKS7_@Base 1.6
 (optional=templinst)_ZNSt6vectorIN3pcl6search10BruteForceINS0_11PointXYZRGBEE5EntryESaIS5_EED1Ev@Base 1.6
 (optional=templinst)_ZNSt6vectorIN3pcl6search10BruteForceINS0_11PointXYZRGBEE5EntryESaIS5_EED2Ev@Base 1.6
 (optional=templinst)_ZNSt6vectorIN3pcl6search10BruteForceINS0_11PointXYZRGBEE5EntryESaIS5_EEaSERKS7_@Base 1.6
 (optional=templinst)_ZNSt6vectorIN3pcl6search10BruteForceINS0_12PointXYZRGBAEE5EntryESaIS5_EE13_M_insert_auxEN9__gnu_cxx17__normal_iteratorIPS5_S7_EERKS5_@Base 1.6
 (optional=templinst)_ZNSt6vectorIN3pcl6search10BruteForceINS0_12PointXYZRGBAEE5EntryESaIS5_EE15_M_range_insertIN9__gnu_cxx17__normal_iteratorIPS5_S7_EEEEvSC_T_SD_St20forward_iterator_tag@Base 1.6
 (optional=templinst)_ZNSt6vectorIN3pcl6search10BruteForceINS0_12PointXYZRGBAEE5EntryESaIS5_EE7reserveEm@Base 1.6
 (optional=templinst)_ZNSt6vectorIN3pcl6search10BruteForceINS0_12PointXYZRGBAEE5EntryESaIS5_EEC1ERKS7_@Base 1.6
 (optional=templinst)_ZNSt6vectorIN3pcl6search10BruteForceINS0_12PointXYZRGBAEE5EntryESaIS5_EEC2ERKS7_@Base 1.6
 (optional=templinst)_ZNSt6vectorIN3pcl6search10BruteForceINS0_12PointXYZRGBAEE5EntryESaIS5_EED1Ev@Base 1.6
 (optional=templinst)_ZNSt6vectorIN3pcl6search10BruteForceINS0_12PointXYZRGBAEE5EntryESaIS5_EED2Ev@Base 1.6
 (optional=templinst)_ZNSt6vectorIN3pcl6search10BruteForceINS0_12PointXYZRGBAEE5EntryESaIS5_EEaSERKS7_@Base 1.6
 (optional=templinst)_ZNSt6vectorIN3pcl6search10BruteForceINS0_12PointXYZRGBLEE5EntryESaIS5_EE13_M_insert_auxEN9__gnu_cxx17__normal_iteratorIPS5_S7_EERKS5_@Base 1.6
 (optional=templinst)_ZNSt6vectorIN3pcl6search10BruteForceINS0_12PointXYZRGBLEE5EntryESaIS5_EE15_M_range_insertIN9__gnu_cxx17__normal_iteratorIPS5_S7_EEEEvSC_T_SD_St20forward_iterator_tag@Base 1.6
 (optional=templinst)_ZNSt6vectorIN3pcl6search10BruteForceINS0_12PointXYZRGBLEE5EntryESaIS5_EE7reserveEm@Base 1.6
 (optional=templinst)_ZNSt6vectorIN3pcl6search10BruteForceINS0_12PointXYZRGBLEE5EntryESaIS5_EEC1ERKS7_@Base 1.6
 (optional=templinst)_ZNSt6vectorIN3pcl6search10BruteForceINS0_12PointXYZRGBLEE5EntryESaIS5_EEC2ERKS7_@Base 1.6
 (optional=templinst)_ZNSt6vectorIN3pcl6search10BruteForceINS0_12PointXYZRGBLEE5EntryESaIS5_EED1Ev@Base 1.6
 (optional=templinst)_ZNSt6vectorIN3pcl6search10BruteForceINS0_12PointXYZRGBLEE5EntryESaIS5_EED2Ev@Base 1.6
 (optional=templinst)_ZNSt6vectorIN3pcl6search10BruteForceINS0_12PointXYZRGBLEE5EntryESaIS5_EEaSERKS7_@Base 1.6
 (optional=templinst)_ZNSt6vectorIN3pcl6search10BruteForceINS0_13InterestPointEE5EntryESaIS5_EE13_M_insert_auxEN9__gnu_cxx17__normal_iteratorIPS5_S7_EERKS5_@Base 1.6
 (optional=templinst)_ZNSt6vectorIN3pcl6search10BruteForceINS0_13InterestPointEE5EntryESaIS5_EE15_M_range_insertIN9__gnu_cxx17__normal_iteratorIPS5_S7_EEEEvSC_T_SD_St20forward_iterator_tag@Base 1.6
 (optional=templinst)_ZNSt6vectorIN3pcl6search10BruteForceINS0_13InterestPointEE5EntryESaIS5_EE7reserveEm@Base 1.6
 (optional=templinst)_ZNSt6vectorIN3pcl6search10BruteForceINS0_13InterestPointEE5EntryESaIS5_EED1Ev@Base 1.6
 (optional=templinst)_ZNSt6vectorIN3pcl6search10BruteForceINS0_13InterestPointEE5EntryESaIS5_EED2Ev@Base 1.6
 (optional=templinst)_ZNSt6vectorIN3pcl6search10BruteForceINS0_13InterestPointEE5EntryESaIS5_EEaSERKS7_@Base 1.6
 (optional=templinst)_ZNSt6vectorIN3pcl6search10BruteForceINS0_14PointWithRangeEE5EntryESaIS5_EE13_M_insert_auxEN9__gnu_cxx17__normal_iteratorIPS5_S7_EERKS5_@Base 1.6
 (optional=templinst)_ZNSt6vectorIN3pcl6search10BruteForceINS0_14PointWithRangeEE5EntryESaIS5_EE15_M_range_insertIN9__gnu_cxx17__normal_iteratorIPS5_S7_EEEEvSC_T_SD_St20forward_iterator_tag@Base 1.6
 (optional=templinst)_ZNSt6vectorIN3pcl6search10BruteForceINS0_14PointWithRangeEE5EntryESaIS5_EE7reserveEm@Base 1.6
 (optional=templinst)_ZNSt6vectorIN3pcl6search10BruteForceINS0_14PointWithRangeEE5EntryESaIS5_EEC1ERKS7_@Base 1.6
 (optional=templinst)_ZNSt6vectorIN3pcl6search10BruteForceINS0_14PointWithRangeEE5EntryESaIS5_EEC2ERKS7_@Base 1.6
 (optional=templinst)_ZNSt6vectorIN3pcl6search10BruteForceINS0_14PointWithRangeEE5EntryESaIS5_EED1Ev@Base 1.6
 (optional=templinst)_ZNSt6vectorIN3pcl6search10BruteForceINS0_14PointWithRangeEE5EntryESaIS5_EED2Ev@Base 1.6
 (optional=templinst)_ZNSt6vectorIN3pcl6search10BruteForceINS0_14PointWithRangeEE5EntryESaIS5_EEaSERKS7_@Base 1.6
 (optional=templinst)_ZNSt6vectorIN3pcl6search10BruteForceINS0_14PointWithScaleEE5EntryESaIS5_EE13_M_insert_auxEN9__gnu_cxx17__normal_iteratorIPS5_S7_EERKS5_@Base 1.6
 (optional=templinst)_ZNSt6vectorIN3pcl6search10BruteForceINS0_14PointWithScaleEE5EntryESaIS5_EE15_M_range_insertIN9__gnu_cxx17__normal_iteratorIPS5_S7_EEEEvSC_T_SD_St20forward_iterator_tag@Base 1.6
 (optional=templinst)_ZNSt6vectorIN3pcl6search10BruteForceINS0_14PointWithScaleEE5EntryESaIS5_EE7reserveEm@Base 1.6
 (optional=templinst)_ZNSt6vectorIN3pcl6search10BruteForceINS0_14PointWithScaleEE5EntryESaIS5_EEC1ERKS7_@Base 1.6
 (optional=templinst)_ZNSt6vectorIN3pcl6search10BruteForceINS0_14PointWithScaleEE5EntryESaIS5_EEC2ERKS7_@Base 1.6
 (optional=templinst)_ZNSt6vectorIN3pcl6search10BruteForceINS0_14PointWithScaleEE5EntryESaIS5_EED1Ev@Base 1.6
 (optional=templinst)_ZNSt6vectorIN3pcl6search10BruteForceINS0_14PointWithScaleEE5EntryESaIS5_EED2Ev@Base 1.6
 (optional=templinst)_ZNSt6vectorIN3pcl6search10BruteForceINS0_14PointWithScaleEE5EntryESaIS5_EEaSERKS7_@Base 1.6
 (optional=templinst)_ZNSt6vectorIN3pcl6search10BruteForceINS0_15PointXYZINormalEE5EntryESaIS5_EE13_M_insert_auxEN9__gnu_cxx17__normal_iteratorIPS5_S7_EERKS5_@Base 1.6
 (optional=templinst)_ZNSt6vectorIN3pcl6search10BruteForceINS0_15PointXYZINormalEE5EntryESaIS5_EE15_M_range_insertIN9__gnu_cxx17__normal_iteratorIPS5_S7_EEEEvSC_T_SD_St20forward_iterator_tag@Base 1.6
 (optional=templinst)_ZNSt6vectorIN3pcl6search10BruteForceINS0_15PointXYZINormalEE5EntryESaIS5_EE7reserveEm@Base 1.6
 (optional=templinst)_ZNSt6vectorIN3pcl6search10BruteForceINS0_15PointXYZINormalEE5EntryESaIS5_EEC1ERKS7_@Base 1.6
 (optional=templinst)_ZNSt6vectorIN3pcl6search10BruteForceINS0_15PointXYZINormalEE5EntryESaIS5_EEC2ERKS7_@Base 1.6
 (optional=templinst)_ZNSt6vectorIN3pcl6search10BruteForceINS0_15PointXYZINormalEE5EntryESaIS5_EED1Ev@Base 1.6
 (optional=templinst)_ZNSt6vectorIN3pcl6search10BruteForceINS0_15PointXYZINormalEE5EntryESaIS5_EED2Ev@Base 1.6
 (optional=templinst)_ZNSt6vectorIN3pcl6search10BruteForceINS0_15PointXYZINormalEE5EntryESaIS5_EEaSERKS7_@Base 1.6
 (optional=templinst)_ZNSt6vectorIN3pcl6search10BruteForceINS0_17PointXYZRGBNormalEE5EntryESaIS5_EE13_M_insert_auxEN9__gnu_cxx17__normal_iteratorIPS5_S7_EERKS5_@Base 1.6
 (optional=templinst)_ZNSt6vectorIN3pcl6search10BruteForceINS0_17PointXYZRGBNormalEE5EntryESaIS5_EE15_M_range_insertIN9__gnu_cxx17__normal_iteratorIPS5_S7_EEEEvSC_T_SD_St20forward_iterator_tag@Base 1.6
 (optional=templinst)_ZNSt6vectorIN3pcl6search10BruteForceINS0_17PointXYZRGBNormalEE5EntryESaIS5_EE7reserveEm@Base 1.6
 (optional=templinst)_ZNSt6vectorIN3pcl6search10BruteForceINS0_17PointXYZRGBNormalEE5EntryESaIS5_EEC1ERKS7_@Base 1.6
 (optional=templinst)_ZNSt6vectorIN3pcl6search10BruteForceINS0_17PointXYZRGBNormalEE5EntryESaIS5_EEC2ERKS7_@Base 1.6
 (optional=templinst)_ZNSt6vectorIN3pcl6search10BruteForceINS0_17PointXYZRGBNormalEE5EntryESaIS5_EED1Ev@Base 1.6
 (optional=templinst)_ZNSt6vectorIN3pcl6search10BruteForceINS0_17PointXYZRGBNormalEE5EntryESaIS5_EED2Ev@Base 1.6
 (optional=templinst)_ZNSt6vectorIN3pcl6search10BruteForceINS0_17PointXYZRGBNormalEE5EntryESaIS5_EEaSERKS7_@Base 1.6
 (optional=templinst)_ZNSt6vectorIN3pcl6search10BruteForceINS0_18PointWithViewpointEE5EntryESaIS5_EE13_M_insert_auxEN9__gnu_cxx17__normal_iteratorIPS5_S7_EERKS5_@Base 1.6
 (optional=templinst)_ZNSt6vectorIN3pcl6search10BruteForceINS0_18PointWithViewpointEE5EntryESaIS5_EE15_M_range_insertIN9__gnu_cxx17__normal_iteratorIPS5_S7_EEEEvSC_T_SD_St20forward_iterator_tag@Base 1.6
 (optional=templinst)_ZNSt6vectorIN3pcl6search10BruteForceINS0_18PointWithViewpointEE5EntryESaIS5_EE7reserveEm@Base 1.6
 (optional=templinst)_ZNSt6vectorIN3pcl6search10BruteForceINS0_18PointWithViewpointEE5EntryESaIS5_EEC1ERKS7_@Base 1.6
 (optional=templinst)_ZNSt6vectorIN3pcl6search10BruteForceINS0_18PointWithViewpointEE5EntryESaIS5_EEC2ERKS7_@Base 1.6
 (optional=templinst)_ZNSt6vectorIN3pcl6search10BruteForceINS0_18PointWithViewpointEE5EntryESaIS5_EED1Ev@Base 1.6
 (optional=templinst)_ZNSt6vectorIN3pcl6search10BruteForceINS0_18PointWithViewpointEE5EntryESaIS5_EED2Ev@Base 1.6
 (optional=templinst)_ZNSt6vectorIN3pcl6search10BruteForceINS0_18PointWithViewpointEE5EntryESaIS5_EEaSERKS7_@Base 1.6
 (optional=templinst)_ZNSt6vectorIN3pcl6search10BruteForceINS0_8PointXYZEE5EntryESaIS5_EE13_M_insert_auxEN9__gnu_cxx17__normal_iteratorIPS5_S7_EERKS5_@Base 1.6
 (optional=templinst)_ZNSt6vectorIN3pcl6search10BruteForceINS0_8PointXYZEE5EntryESaIS5_EE15_M_range_insertIN9__gnu_cxx17__normal_iteratorIPS5_S7_EEEEvSC_T_SD_St20forward_iterator_tag@Base 1.6
 (optional=templinst)_ZNSt6vectorIN3pcl6search10BruteForceINS0_8PointXYZEE5EntryESaIS5_EE7reserveEm@Base 1.6
 (optional=templinst)_ZNSt6vectorIN3pcl6search10BruteForceINS0_8PointXYZEE5EntryESaIS5_EED1Ev@Base 1.6
 (optional=templinst)_ZNSt6vectorIN3pcl6search10BruteForceINS0_8PointXYZEE5EntryESaIS5_EED2Ev@Base 1.6
 (optional=templinst)_ZNSt6vectorIN3pcl6search10BruteForceINS0_8PointXYZEE5EntryESaIS5_EEaSERKS7_@Base 1.6
 (optional=templinst)_ZNSt6vectorIN3pcl6search10BruteForceINS0_9PointXYZIEE5EntryESaIS5_EE13_M_insert_auxEN9__gnu_cxx17__normal_iteratorIPS5_S7_EERKS5_@Base 1.6
 (optional=templinst)_ZNSt6vectorIN3pcl6search10BruteForceINS0_9PointXYZIEE5EntryESaIS5_EE15_M_range_insertIN9__gnu_cxx17__normal_iteratorIPS5_S7_EEEEvSC_T_SD_St20forward_iterator_tag@Base 1.6
 (optional=templinst)_ZNSt6vectorIN3pcl6search10BruteForceINS0_9PointXYZIEE5EntryESaIS5_EE7reserveEm@Base 1.6
 (optional=templinst)_ZNSt6vectorIN3pcl6search10BruteForceINS0_9PointXYZIEE5EntryESaIS5_EEC1ERKS7_@Base 1.6
 (optional=templinst)_ZNSt6vectorIN3pcl6search10BruteForceINS0_9PointXYZIEE5EntryESaIS5_EEC2ERKS7_@Base 1.6
 (optional=templinst)_ZNSt6vectorIN3pcl6search10BruteForceINS0_9PointXYZIEE5EntryESaIS5_EED1Ev@Base 1.6
 (optional=templinst)_ZNSt6vectorIN3pcl6search10BruteForceINS0_9PointXYZIEE5EntryESaIS5_EED2Ev@Base 1.6
 (optional=templinst)_ZNSt6vectorIN3pcl6search10BruteForceINS0_9PointXYZIEE5EntryESaIS5_EEaSERKS7_@Base 1.6
 (optional=templinst)_ZNSt6vectorIN3pcl6search10BruteForceINS0_9PointXYZLEE5EntryESaIS5_EE13_M_insert_auxEN9__gnu_cxx17__normal_iteratorIPS5_S7_EERKS5_@Base 1.6
 (optional=templinst)_ZNSt6vectorIN3pcl6search10BruteForceINS0_9PointXYZLEE5EntryESaIS5_EE15_M_range_insertIN9__gnu_cxx17__normal_iteratorIPS5_S7_EEEEvSC_T_SD_St20forward_iterator_tag@Base 1.6
 (optional=templinst)_ZNSt6vectorIN3pcl6search10BruteForceINS0_9PointXYZLEE5EntryESaIS5_EE7reserveEm@Base 1.6
 (optional=templinst)_ZNSt6vectorIN3pcl6search10BruteForceINS0_9PointXYZLEE5EntryESaIS5_EEC1ERKS7_@Base 1.6
 (optional=templinst)_ZNSt6vectorIN3pcl6search10BruteForceINS0_9PointXYZLEE5EntryESaIS5_EEC2ERKS7_@Base 1.6
 (optional=templinst)_ZNSt6vectorIN3pcl6search10BruteForceINS0_9PointXYZLEE5EntryESaIS5_EED1Ev@Base 1.6
 (optional=templinst)_ZNSt6vectorIN3pcl6search10BruteForceINS0_9PointXYZLEE5EntryESaIS5_EED2Ev@Base 1.6
 (optional=templinst)_ZNSt6vectorIN3pcl6search10BruteForceINS0_9PointXYZLEE5EntryESaIS5_EEaSERKS7_@Base 1.6
 (optional=templinst)_ZNSt6vectorIN3pcl6search17OrganizedNeighborINS0_11PointNormalEE5EntryESaIS5_EE13_M_insert_auxEN9__gnu_cxx17__normal_iteratorIPS5_S7_EERKS5_@Base 1.6
 (optional=templinst)_ZNSt6vectorIN3pcl6search17OrganizedNeighborINS0_11PointNormalEE5EntryESaIS5_EEC1ERKS7_@Base 1.6
 (optional=templinst)_ZNSt6vectorIN3pcl6search17OrganizedNeighborINS0_11PointNormalEE5EntryESaIS5_EEC2ERKS7_@Base 1.6
 (optional=templinst)_ZNSt6vectorIN3pcl6search17OrganizedNeighborINS0_11PointXYZHSVEE5EntryESaIS5_EE13_M_insert_auxEN9__gnu_cxx17__normal_iteratorIPS5_S7_EERKS5_@Base 1.6
 (optional=templinst)_ZNSt6vectorIN3pcl6search17OrganizedNeighborINS0_11PointXYZHSVEE5EntryESaIS5_EEC1ERKS7_@Base 1.6
 (optional=templinst)_ZNSt6vectorIN3pcl6search17OrganizedNeighborINS0_11PointXYZHSVEE5EntryESaIS5_EEC2ERKS7_@Base 1.6
 (optional=templinst)_ZNSt6vectorIN3pcl6search17OrganizedNeighborINS0_11PointXYZHSVEE5EntryESaIS5_EED1Ev@Base 1.6
 (optional=templinst)_ZNSt6vectorIN3pcl6search17OrganizedNeighborINS0_11PointXYZHSVEE5EntryESaIS5_EED2Ev@Base 1.6
 (optional=templinst)_ZNSt6vectorIN3pcl6search17OrganizedNeighborINS0_11PointXYZRGBEE5EntryESaIS5_EE13_M_insert_auxEN9__gnu_cxx17__normal_iteratorIPS5_S7_EERKS5_@Base 1.6
 (optional=templinst)_ZNSt6vectorIN3pcl6search17OrganizedNeighborINS0_11PointXYZRGBEE5EntryESaIS5_EEC1ERKS7_@Base 1.6
 (optional=templinst)_ZNSt6vectorIN3pcl6search17OrganizedNeighborINS0_11PointXYZRGBEE5EntryESaIS5_EEC2ERKS7_@Base 1.6
 (optional=templinst)_ZNSt6vectorIN3pcl6search17OrganizedNeighborINS0_11PointXYZRGBEE5EntryESaIS5_EED1Ev@Base 1.6
 (optional=templinst)_ZNSt6vectorIN3pcl6search17OrganizedNeighborINS0_11PointXYZRGBEE5EntryESaIS5_EED2Ev@Base 1.6
 (optional=templinst)_ZNSt6vectorIN3pcl6search17OrganizedNeighborINS0_12PointXYZRGBAEE5EntryESaIS5_EE13_M_insert_auxEN9__gnu_cxx17__normal_iteratorIPS5_S7_EERKS5_@Base 1.6
 (optional=templinst)_ZNSt6vectorIN3pcl6search17OrganizedNeighborINS0_12PointXYZRGBAEE5EntryESaIS5_EEC1ERKS7_@Base 1.6
 (optional=templinst)_ZNSt6vectorIN3pcl6search17OrganizedNeighborINS0_12PointXYZRGBAEE5EntryESaIS5_EEC2ERKS7_@Base 1.6
 (optional=templinst)_ZNSt6vectorIN3pcl6search17OrganizedNeighborINS0_12PointXYZRGBAEE5EntryESaIS5_EED1Ev@Base 1.6
 (optional=templinst)_ZNSt6vectorIN3pcl6search17OrganizedNeighborINS0_12PointXYZRGBAEE5EntryESaIS5_EED2Ev@Base 1.6
 (optional=templinst)_ZNSt6vectorIN3pcl6search17OrganizedNeighborINS0_12PointXYZRGBLEE5EntryESaIS5_EE13_M_insert_auxEN9__gnu_cxx17__normal_iteratorIPS5_S7_EERKS5_@Base 1.6
 (optional=templinst)_ZNSt6vectorIN3pcl6search17OrganizedNeighborINS0_12PointXYZRGBLEE5EntryESaIS5_EEC1ERKS7_@Base 1.6
 (optional=templinst)_ZNSt6vectorIN3pcl6search17OrganizedNeighborINS0_12PointXYZRGBLEE5EntryESaIS5_EEC2ERKS7_@Base 1.6
 (optional=templinst)_ZNSt6vectorIN3pcl6search17OrganizedNeighborINS0_12PointXYZRGBLEE5EntryESaIS5_EED1Ev@Base 1.6
 (optional=templinst)_ZNSt6vectorIN3pcl6search17OrganizedNeighborINS0_12PointXYZRGBLEE5EntryESaIS5_EED2Ev@Base 1.6
 (optional=templinst)_ZNSt6vectorIN3pcl6search17OrganizedNeighborINS0_13InterestPointEE5EntryESaIS5_EE13_M_insert_auxEN9__gnu_cxx17__normal_iteratorIPS5_S7_EERKS5_@Base 1.6
 (optional=templinst)_ZNSt6vectorIN3pcl6search17OrganizedNeighborINS0_13InterestPointEE5EntryESaIS5_EEC1ERKS7_@Base 1.6
 (optional=templinst)_ZNSt6vectorIN3pcl6search17OrganizedNeighborINS0_13InterestPointEE5EntryESaIS5_EEC2ERKS7_@Base 1.6
 (optional=templinst)_ZNSt6vectorIN3pcl6search17OrganizedNeighborINS0_13InterestPointEE5EntryESaIS5_EED1Ev@Base 1.6
 (optional=templinst)_ZNSt6vectorIN3pcl6search17OrganizedNeighborINS0_13InterestPointEE5EntryESaIS5_EED2Ev@Base 1.6
 (optional=templinst)_ZNSt6vectorIN3pcl6search17OrganizedNeighborINS0_14PointWithRangeEE5EntryESaIS5_EE13_M_insert_auxEN9__gnu_cxx17__normal_iteratorIPS5_S7_EERKS5_@Base 1.6
 (optional=templinst)_ZNSt6vectorIN3pcl6search17OrganizedNeighborINS0_14PointWithRangeEE5EntryESaIS5_EEC1ERKS7_@Base 1.6
 (optional=templinst)_ZNSt6vectorIN3pcl6search17OrganizedNeighborINS0_14PointWithRangeEE5EntryESaIS5_EEC2ERKS7_@Base 1.6
 (optional=templinst)_ZNSt6vectorIN3pcl6search17OrganizedNeighborINS0_14PointWithRangeEE5EntryESaIS5_EED1Ev@Base 1.6
 (optional=templinst)_ZNSt6vectorIN3pcl6search17OrganizedNeighborINS0_14PointWithRangeEE5EntryESaIS5_EED2Ev@Base 1.6
 (optional=templinst)_ZNSt6vectorIN3pcl6search17OrganizedNeighborINS0_14PointWithScaleEE5EntryESaIS5_EE13_M_insert_auxEN9__gnu_cxx17__normal_iteratorIPS5_S7_EERKS5_@Base 1.6
 (optional=templinst)_ZNSt6vectorIN3pcl6search17OrganizedNeighborINS0_14PointWithScaleEE5EntryESaIS5_EEC1ERKS7_@Base 1.6
 (optional=templinst)_ZNSt6vectorIN3pcl6search17OrganizedNeighborINS0_14PointWithScaleEE5EntryESaIS5_EEC2ERKS7_@Base 1.6
 (optional=templinst)_ZNSt6vectorIN3pcl6search17OrganizedNeighborINS0_14PointWithScaleEE5EntryESaIS5_EED1Ev@Base 1.6
 (optional=templinst)_ZNSt6vectorIN3pcl6search17OrganizedNeighborINS0_14PointWithScaleEE5EntryESaIS5_EED2Ev@Base 1.6
 (optional=templinst)_ZNSt6vectorIN3pcl6search17OrganizedNeighborINS0_15PointXYZINormalEE5EntryESaIS5_EE13_M_insert_auxEN9__gnu_cxx17__normal_iteratorIPS5_S7_EERKS5_@Base 1.6
 (optional=templinst)_ZNSt6vectorIN3pcl6search17OrganizedNeighborINS0_15PointXYZINormalEE5EntryESaIS5_EEC1ERKS7_@Base 1.6
 (optional=templinst)_ZNSt6vectorIN3pcl6search17OrganizedNeighborINS0_15PointXYZINormalEE5EntryESaIS5_EEC2ERKS7_@Base 1.6
 (optional=templinst)_ZNSt6vectorIN3pcl6search17OrganizedNeighborINS0_15PointXYZINormalEE5EntryESaIS5_EED1Ev@Base 1.6
 (optional=templinst)_ZNSt6vectorIN3pcl6search17OrganizedNeighborINS0_15PointXYZINormalEE5EntryESaIS5_EED2Ev@Base 1.6
 (optional=templinst)_ZNSt6vectorIN3pcl6search17OrganizedNeighborINS0_17PointXYZRGBNormalEE5EntryESaIS5_EE13_M_insert_auxEN9__gnu_cxx17__normal_iteratorIPS5_S7_EERKS5_@Base 1.6
 (optional=templinst)_ZNSt6vectorIN3pcl6search17OrganizedNeighborINS0_17PointXYZRGBNormalEE5EntryESaIS5_EEC1ERKS7_@Base 1.6
 (optional=templinst)_ZNSt6vectorIN3pcl6search17OrganizedNeighborINS0_17PointXYZRGBNormalEE5EntryESaIS5_EEC2ERKS7_@Base 1.6
 (optional=templinst)_ZNSt6vectorIN3pcl6search17OrganizedNeighborINS0_17PointXYZRGBNormalEE5EntryESaIS5_EED1Ev@Base 1.6
 (optional=templinst)_ZNSt6vectorIN3pcl6search17OrganizedNeighborINS0_17PointXYZRGBNormalEE5EntryESaIS5_EED2Ev@Base 1.6
 (optional=templinst)_ZNSt6vectorIN3pcl6search17OrganizedNeighborINS0_18PointWithViewpointEE5EntryESaIS5_EE13_M_insert_auxEN9__gnu_cxx17__normal_iteratorIPS5_S7_EERKS5_@Base 1.6
 (optional=templinst)_ZNSt6vectorIN3pcl6search17OrganizedNeighborINS0_18PointWithViewpointEE5EntryESaIS5_EEC1ERKS7_@Base 1.6
 (optional=templinst)_ZNSt6vectorIN3pcl6search17OrganizedNeighborINS0_18PointWithViewpointEE5EntryESaIS5_EEC2ERKS7_@Base 1.6
 (optional=templinst)_ZNSt6vectorIN3pcl6search17OrganizedNeighborINS0_18PointWithViewpointEE5EntryESaIS5_EED1Ev@Base 1.6
 (optional=templinst)_ZNSt6vectorIN3pcl6search17OrganizedNeighborINS0_18PointWithViewpointEE5EntryESaIS5_EED2Ev@Base 1.6
 (optional=templinst)_ZNSt6vectorIN3pcl6search17OrganizedNeighborINS0_8PointXYZEE5EntryESaIS5_EE13_M_insert_auxEN9__gnu_cxx17__normal_iteratorIPS5_S7_EERKS5_@Base 1.6
 (optional=templinst)_ZNSt6vectorIN3pcl6search17OrganizedNeighborINS0_8PointXYZEE5EntryESaIS5_EEC1ERKS7_@Base 1.6
 (optional=templinst)_ZNSt6vectorIN3pcl6search17OrganizedNeighborINS0_8PointXYZEE5EntryESaIS5_EEC2ERKS7_@Base 1.6
 (optional=templinst)_ZNSt6vectorIN3pcl6search17OrganizedNeighborINS0_8PointXYZEE5EntryESaIS5_EED1Ev@Base 1.6
 (optional=templinst)_ZNSt6vectorIN3pcl6search17OrganizedNeighborINS0_8PointXYZEE5EntryESaIS5_EED2Ev@Base 1.6
 (optional=templinst)_ZNSt6vectorIN3pcl6search17OrganizedNeighborINS0_9PointXYZIEE5EntryESaIS5_EE13_M_insert_auxEN9__gnu_cxx17__normal_iteratorIPS5_S7_EERKS5_@Base 1.6
 (optional=templinst)_ZNSt6vectorIN3pcl6search17OrganizedNeighborINS0_9PointXYZIEE5EntryESaIS5_EEC1ERKS7_@Base 1.6
 (optional=templinst)_ZNSt6vectorIN3pcl6search17OrganizedNeighborINS0_9PointXYZIEE5EntryESaIS5_EEC2ERKS7_@Base 1.6
 (optional=templinst)_ZNSt6vectorIN3pcl6search17OrganizedNeighborINS0_9PointXYZIEE5EntryESaIS5_EED1Ev@Base 1.6
 (optional=templinst)_ZNSt6vectorIN3pcl6search17OrganizedNeighborINS0_9PointXYZIEE5EntryESaIS5_EED2Ev@Base 1.6
 (optional=templinst)_ZNSt6vectorIN3pcl6search17OrganizedNeighborINS0_9PointXYZLEE5EntryESaIS5_EE13_M_insert_auxEN9__gnu_cxx17__normal_iteratorIPS5_S7_EERKS5_@Base 1.6
 (optional=templinst)_ZNSt6vectorIN3pcl6search17OrganizedNeighborINS0_9PointXYZLEE5EntryESaIS5_EEC1ERKS7_@Base 1.6
 (optional=templinst)_ZNSt6vectorIN3pcl6search17OrganizedNeighborINS0_9PointXYZLEE5EntryESaIS5_EEC2ERKS7_@Base 1.6
 (optional=templinst)_ZNSt6vectorIN3pcl6search17OrganizedNeighborINS0_9PointXYZLEE5EntryESaIS5_EED1Ev@Base 1.6
 (optional=templinst)_ZNSt6vectorIN3pcl6search17OrganizedNeighborINS0_9PointXYZLEE5EntryESaIS5_EED2Ev@Base 1.6
 (optional=templinst)_ZNSt6vectorIN5flann13DistanceIndexIfEESaIS2_EE13_M_insert_auxEN9__gnu_cxx17__normal_iteratorIPS2_S4_EERKS2_@Base 1.6
 (optional=templinst)_ZNSt6vectorIN5flann13DistanceIndexIfEESaIS2_EE14_M_fill_insertEN9__gnu_cxx17__normal_iteratorIPS2_S4_EEmRKS2_@Base 1.6
 (optional=templinst)_ZNSt6vectorIN5flann13DistanceIndexIfEESaIS2_EE7reserveEm@Base 1.6
 (optional=templinst)_ZNSt6vectorIN5flann13DistanceIndexIfEESaIS2_EED1Ev@Base 1.6
 (optional=templinst)_ZNSt6vectorIN5flann13DistanceIndexIfEESaIS2_EED2Ev@Base 1.6
 (optional=templinst)_ZNSt6vectorIS_IfSaIfEESaIS1_EE14_M_fill_insertEN9__gnu_cxx17__normal_iteratorIPS1_S3_EEmRKS1_@Base 1.6
 (optional=templinst)_ZNSt6vectorIS_IfSaIfEESaIS1_EE6resizeEmS1_@Base 1.6
 (optional=templinst)_ZNSt6vectorIS_IiSaIiEESaIS1_EE14_M_fill_insertEN9__gnu_cxx17__normal_iteratorIPS1_S3_EEmRKS1_@Base 1.6
 (optional=templinst)_ZNSt6vectorIS_IiSaIiEESaIS1_EE6resizeEmS1_@Base 1.6
 (optional=templinst)_ZNSt6vectorIfSaIfEE13_M_insert_auxEN9__gnu_cxx17__normal_iteratorIPfS1_EERKf@Base 1.6
 (optional=templinst)_ZNSt6vectorIfSaIfEE14_M_fill_insertEN9__gnu_cxx17__normal_iteratorIPfS1_EEmRKf@Base 1.6
 (optional=templinst)_ZNSt6vectorIfSaIfEE7reserveEm@Base 1.6
 (optional=templinst)_ZNSt6vectorIfSaIfEEC1ERKS1_@Base 1.6
 (optional=templinst)_ZNSt6vectorIfSaIfEEC2ERKS1_@Base 1.6
 (optional=templinst)_ZNSt6vectorIfSaIfEED1Ev@Base 1.6
 (optional=templinst)_ZNSt6vectorIfSaIfEED2Ev@Base 1.6
 (optional=templinst)_ZNSt6vectorIfSaIfEEaSERKS1_@Base 1.6
 (optional=templinst)_ZNSt6vectorIhSaIhEE14_M_fill_assignEmRKh@Base 1.6
 (optional=templinst)_ZNSt6vectorIhSaIhEE14_M_fill_insertEN9__gnu_cxx17__normal_iteratorIPhS1_EEmRKh@Base 1.6
 (optional=templinst)_ZNSt6vectorIhSaIhEEC1EmRKhRKS0_@Base 1.6
 (optional=templinst)_ZNSt6vectorIhSaIhEEC2EmRKhRKS0_@Base 1.6
 (optional=templinst)_ZNSt6vectorIiSaIiEE13_M_insert_auxEN9__gnu_cxx17__normal_iteratorIPiS1_EERKi@Base 1.6
 (optional=templinst)_ZNSt6vectorIiSaIiEE14_M_fill_insertEN9__gnu_cxx17__normal_iteratorIPiS1_EEmRKi@Base 1.6
 (optional=templinst)_ZNSt6vectorIiSaIiEE7reserveEm@Base 1.6
 (optional=templinst)_ZNSt6vectorIiSaIiEEC1ERKS1_@Base 1.6
 (optional=templinst)_ZNSt6vectorIiSaIiEEC1EmRKiRKS0_@Base 1.6
 (optional=templinst)_ZNSt6vectorIiSaIiEEC2ERKS1_@Base 1.6
 (optional=templinst)_ZNSt6vectorIiSaIiEEC2EmRKiRKS0_@Base 1.6
 (optional=templinst)_ZNSt6vectorIiSaIiEED1Ev@Base 1.6
 (optional=templinst)_ZNSt6vectorIiSaIiEED2Ev@Base 1.6
 (optional=templinst)_ZNSt6vectorIiSaIiEEaSERKS1_@Base 1.6
 (optional=templinst)_ZNSt8_Rb_treeIN5flann15UniqueResultSetIfE9DistIndexES3_St9_IdentityIS3_ESt4lessIS3_ESaIS3_EE10_M_insert_EPKSt18_Rb_tree_node_baseSC_RKS3_@Base 1.6
 (optional=templinst)_ZNSt8_Rb_treeIN5flann15UniqueResultSetIfE9DistIndexES3_St9_IdentityIS3_ESt4lessIS3_ESaIS3_EE11equal_rangeERKS3_@Base 1.6
 (optional=templinst)_ZNSt8_Rb_treeIN5flann15UniqueResultSetIfE9DistIndexES3_St9_IdentityIS3_ESt4lessIS3_ESaIS3_EE12_M_erase_auxESt23_Rb_tree_const_iteratorIS3_ESB_@Base 1.6
 (optional=templinst)_ZNSt8_Rb_treeIN5flann15UniqueResultSetIfE9DistIndexES3_St9_IdentityIS3_ESt4lessIS3_ESaIS3_EE16_M_insert_uniqueERKS3_@Base 1.6
 (optional=templinst)_ZNSt8_Rb_treeIN5flann15UniqueResultSetIfE9DistIndexES3_St9_IdentityIS3_ESt4lessIS3_ESaIS3_EE5clearEv@Base 1.6
 (optional=templinst)_ZNSt8_Rb_treeIN5flann15UniqueResultSetIfE9DistIndexES3_St9_IdentityIS3_ESt4lessIS3_ESaIS3_EE8_M_eraseEPSt13_Rb_tree_nodeIS3_E@Base 1.6
 (optional=templinst)_ZSt11__push_heapIN9__gnu_cxx17__normal_iteratorIPN3pcl6search10BruteForceINS2_11PointNormalEE5EntryESt6vectorIS7_SaIS7_EEEElS7_St4lessIS7_EEvT_T0_SG_T1_T2_@Base 1.6
 (optional=templinst)_ZSt11__push_heapIN9__gnu_cxx17__normal_iteratorIPN3pcl6search10BruteForceINS2_11PointXYZHSVEE5EntryESt6vectorIS7_SaIS7_EEEElS7_St4lessIS7_EEvT_T0_SG_T1_T2_@Base 1.6
 (optional=templinst)_ZSt11__push_heapIN9__gnu_cxx17__normal_iteratorIPN3pcl6search10BruteForceINS2_11PointXYZRGBEE5EntryESt6vectorIS7_SaIS7_EEEElS7_St4lessIS7_EEvT_T0_SG_T1_T2_@Base 1.6
 (optional=templinst)_ZSt11__push_heapIN9__gnu_cxx17__normal_iteratorIPN3pcl6search10BruteForceINS2_12PointXYZRGBAEE5EntryESt6vectorIS7_SaIS7_EEEElS7_St4lessIS7_EEvT_T0_SG_T1_T2_@Base 1.6
 (optional=templinst)_ZSt11__push_heapIN9__gnu_cxx17__normal_iteratorIPN3pcl6search10BruteForceINS2_12PointXYZRGBLEE5EntryESt6vectorIS7_SaIS7_EEEElS7_St4lessIS7_EEvT_T0_SG_T1_T2_@Base 1.6
 (optional=templinst)_ZSt11__push_heapIN9__gnu_cxx17__normal_iteratorIPN3pcl6search10BruteForceINS2_13InterestPointEE5EntryESt6vectorIS7_SaIS7_EEEElS7_St4lessIS7_EEvT_T0_SG_T1_T2_@Base 1.6
 (optional=templinst)_ZSt11__push_heapIN9__gnu_cxx17__normal_iteratorIPN3pcl6search10BruteForceINS2_14PointWithRangeEE5EntryESt6vectorIS7_SaIS7_EEEElS7_St4lessIS7_EEvT_T0_SG_T1_T2_@Base 1.6
 (optional=templinst)_ZSt11__push_heapIN9__gnu_cxx17__normal_iteratorIPN3pcl6search10BruteForceINS2_14PointWithScaleEE5EntryESt6vectorIS7_SaIS7_EEEElS7_St4lessIS7_EEvT_T0_SG_T1_T2_@Base 1.6
 (optional=templinst)_ZSt11__push_heapIN9__gnu_cxx17__normal_iteratorIPN3pcl6search10BruteForceINS2_15PointXYZINormalEE5EntryESt6vectorIS7_SaIS7_EEEElS7_St4lessIS7_EEvT_T0_SG_T1_T2_@Base 1.6
 (optional=templinst)_ZSt11__push_heapIN9__gnu_cxx17__normal_iteratorIPN3pcl6search10BruteForceINS2_17PointXYZRGBNormalEE5EntryESt6vectorIS7_SaIS7_EEEElS7_St4lessIS7_EEvT_T0_SG_T1_T2_@Base 1.6
 (optional=templinst)_ZSt11__push_heapIN9__gnu_cxx17__normal_iteratorIPN3pcl6search10BruteForceINS2_18PointWithViewpointEE5EntryESt6vectorIS7_SaIS7_EEEElS7_St4lessIS7_EEvT_T0_SG_T1_T2_@Base 1.6
 (optional=templinst)_ZSt11__push_heapIN9__gnu_cxx17__normal_iteratorIPN3pcl6search10BruteForceINS2_8PointXYZEE5EntryESt6vectorIS7_SaIS7_EEEElS7_St4lessIS7_EEvT_T0_SG_T1_T2_@Base 1.6
 (optional=templinst)_ZSt11__push_heapIN9__gnu_cxx17__normal_iteratorIPN3pcl6search10BruteForceINS2_9PointXYZIEE5EntryESt6vectorIS7_SaIS7_EEEElS7_St4lessIS7_EEvT_T0_SG_T1_T2_@Base 1.6
 (optional=templinst)_ZSt11__push_heapIN9__gnu_cxx17__normal_iteratorIPN3pcl6search10BruteForceINS2_9PointXYZLEE5EntryESt6vectorIS7_SaIS7_EEEElS7_St4lessIS7_EEvT_T0_SG_T1_T2_@Base 1.6
 (optional=templinst)_ZSt11__push_heapIN9__gnu_cxx17__normal_iteratorIPN3pcl6search17OrganizedNeighborINS2_11PointNormalEE5EntryESt6vectorIS7_SaIS7_EEEElS7_St4lessIS7_EEvT_T0_SG_T1_T2_@Base 1.6
 (optional=templinst)_ZSt11__push_heapIN9__gnu_cxx17__normal_iteratorIPN3pcl6search17OrganizedNeighborINS2_11PointXYZHSVEE5EntryESt6vectorIS7_SaIS7_EEEElS7_St4lessIS7_EEvT_T0_SG_T1_T2_@Base 1.6
 (optional=templinst)_ZSt11__push_heapIN9__gnu_cxx17__normal_iteratorIPN3pcl6search17OrganizedNeighborINS2_11PointXYZRGBEE5EntryESt6vectorIS7_SaIS7_EEEElS7_St4lessIS7_EEvT_T0_SG_T1_T2_@Base 1.6
 (optional=templinst)_ZSt11__push_heapIN9__gnu_cxx17__normal_iteratorIPN3pcl6search17OrganizedNeighborINS2_12PointXYZRGBAEE5EntryESt6vectorIS7_SaIS7_EEEElS7_St4lessIS7_EEvT_T0_SG_T1_T2_@Base 1.6
 (optional=templinst)_ZSt11__push_heapIN9__gnu_cxx17__normal_iteratorIPN3pcl6search17OrganizedNeighborINS2_12PointXYZRGBLEE5EntryESt6vectorIS7_SaIS7_EEEElS7_St4lessIS7_EEvT_T0_SG_T1_T2_@Base 1.6
 (optional=templinst)_ZSt11__push_heapIN9__gnu_cxx17__normal_iteratorIPN3pcl6search17OrganizedNeighborINS2_13InterestPointEE5EntryESt6vectorIS7_SaIS7_EEEElS7_St4lessIS7_EEvT_T0_SG_T1_T2_@Base 1.6
 (optional=templinst)_ZSt11__push_heapIN9__gnu_cxx17__normal_iteratorIPN3pcl6search17OrganizedNeighborINS2_14PointWithRangeEE5EntryESt6vectorIS7_SaIS7_EEEElS7_St4lessIS7_EEvT_T0_SG_T1_T2_@Base 1.6
 (optional=templinst)_ZSt11__push_heapIN9__gnu_cxx17__normal_iteratorIPN3pcl6search17OrganizedNeighborINS2_14PointWithScaleEE5EntryESt6vectorIS7_SaIS7_EEEElS7_St4lessIS7_EEvT_T0_SG_T1_T2_@Base 1.6
 (optional=templinst)_ZSt11__push_heapIN9__gnu_cxx17__normal_iteratorIPN3pcl6search17OrganizedNeighborINS2_15PointXYZINormalEE5EntryESt6vectorIS7_SaIS7_EEEElS7_St4lessIS7_EEvT_T0_SG_T1_T2_@Base 1.6
 (optional=templinst)_ZSt11__push_heapIN9__gnu_cxx17__normal_iteratorIPN3pcl6search17OrganizedNeighborINS2_17PointXYZRGBNormalEE5EntryESt6vectorIS7_SaIS7_EEEElS7_St4lessIS7_EEvT_T0_SG_T1_T2_@Base 1.6
 (optional=templinst)_ZSt11__push_heapIN9__gnu_cxx17__normal_iteratorIPN3pcl6search17OrganizedNeighborINS2_18PointWithViewpointEE5EntryESt6vectorIS7_SaIS7_EEEElS7_St4lessIS7_EEvT_T0_SG_T1_T2_@Base 1.6
 (optional=templinst)_ZSt11__push_heapIN9__gnu_cxx17__normal_iteratorIPN3pcl6search17OrganizedNeighborINS2_8PointXYZEE5EntryESt6vectorIS7_SaIS7_EEEElS7_St4lessIS7_EEvT_T0_SG_T1_T2_@Base 1.6
 (optional=templinst)_ZSt11__push_heapIN9__gnu_cxx17__normal_iteratorIPN3pcl6search17OrganizedNeighborINS2_9PointXYZIEE5EntryESt6vectorIS7_SaIS7_EEEElS7_St4lessIS7_EEvT_T0_SG_T1_T2_@Base 1.6
 (optional=templinst)_ZSt11__push_heapIN9__gnu_cxx17__normal_iteratorIPN3pcl6search17OrganizedNeighborINS2_9PointXYZLEE5EntryESt6vectorIS7_SaIS7_EEEElS7_St4lessIS7_EEvT_T0_SG_T1_T2_@Base 1.6
 (optional=templinst)_ZSt11__push_heapIN9__gnu_cxx17__normal_iteratorIPN5flann13DistanceIndexIfEESt6vectorIS4_SaIS4_EEEElS4_EvT_T0_SB_T1_@Base 1.6
 (optional=templinst)_ZSt13__adjust_heapIN9__gnu_cxx17__normal_iteratorIPN3pcl6search10BruteForceINS2_11PointNormalEE5EntryESt6vectorIS7_SaIS7_EEEElS7_St4lessIS7_EEvT_T0_SG_T1_T2_@Base 1.6
 (optional=templinst)_ZSt13__adjust_heapIN9__gnu_cxx17__normal_iteratorIPN3pcl6search10BruteForceINS2_11PointXYZHSVEE5EntryESt6vectorIS7_SaIS7_EEEElS7_St4lessIS7_EEvT_T0_SG_T1_T2_@Base 1.6
 (optional=templinst)_ZSt13__adjust_heapIN9__gnu_cxx17__normal_iteratorIPN3pcl6search10BruteForceINS2_11PointXYZRGBEE5EntryESt6vectorIS7_SaIS7_EEEElS7_St4lessIS7_EEvT_T0_SG_T1_T2_@Base 1.6
 (optional=templinst)_ZSt13__adjust_heapIN9__gnu_cxx17__normal_iteratorIPN3pcl6search10BruteForceINS2_12PointXYZRGBAEE5EntryESt6vectorIS7_SaIS7_EEEElS7_St4lessIS7_EEvT_T0_SG_T1_T2_@Base 1.6
 (optional=templinst)_ZSt13__adjust_heapIN9__gnu_cxx17__normal_iteratorIPN3pcl6search10BruteForceINS2_12PointXYZRGBLEE5EntryESt6vectorIS7_SaIS7_EEEElS7_St4lessIS7_EEvT_T0_SG_T1_T2_@Base 1.6
 (optional=templinst)_ZSt13__adjust_heapIN9__gnu_cxx17__normal_iteratorIPN3pcl6search10BruteForceINS2_13InterestPointEE5EntryESt6vectorIS7_SaIS7_EEEElS7_St4lessIS7_EEvT_T0_SG_T1_T2_@Base 1.6
 (optional=templinst)_ZSt13__adjust_heapIN9__gnu_cxx17__normal_iteratorIPN3pcl6search10BruteForceINS2_14PointWithRangeEE5EntryESt6vectorIS7_SaIS7_EEEElS7_St4lessIS7_EEvT_T0_SG_T1_T2_@Base 1.6
 (optional=templinst)_ZSt13__adjust_heapIN9__gnu_cxx17__normal_iteratorIPN3pcl6search10BruteForceINS2_14PointWithScaleEE5EntryESt6vectorIS7_SaIS7_EEEElS7_St4lessIS7_EEvT_T0_SG_T1_T2_@Base 1.6
 (optional=templinst)_ZSt13__adjust_heapIN9__gnu_cxx17__normal_iteratorIPN3pcl6search10BruteForceINS2_15PointXYZINormalEE5EntryESt6vectorIS7_SaIS7_EEEElS7_St4lessIS7_EEvT_T0_SG_T1_T2_@Base 1.6
 (optional=templinst)_ZSt13__adjust_heapIN9__gnu_cxx17__normal_iteratorIPN3pcl6search10BruteForceINS2_17PointXYZRGBNormalEE5EntryESt6vectorIS7_SaIS7_EEEElS7_St4lessIS7_EEvT_T0_SG_T1_T2_@Base 1.6
 (optional=templinst)_ZSt13__adjust_heapIN9__gnu_cxx17__normal_iteratorIPN3pcl6search10BruteForceINS2_18PointWithViewpointEE5EntryESt6vectorIS7_SaIS7_EEEElS7_St4lessIS7_EEvT_T0_SG_T1_T2_@Base 1.6
 (optional=templinst)_ZSt13__adjust_heapIN9__gnu_cxx17__normal_iteratorIPN3pcl6search10BruteForceINS2_8PointXYZEE5EntryESt6vectorIS7_SaIS7_EEEElS7_St4lessIS7_EEvT_T0_SG_T1_T2_@Base 1.6
 (optional=templinst)_ZSt13__adjust_heapIN9__gnu_cxx17__normal_iteratorIPN3pcl6search10BruteForceINS2_9PointXYZIEE5EntryESt6vectorIS7_SaIS7_EEEElS7_St4lessIS7_EEvT_T0_SG_T1_T2_@Base 1.6
 (optional=templinst)_ZSt13__adjust_heapIN9__gnu_cxx17__normal_iteratorIPN3pcl6search10BruteForceINS2_9PointXYZLEE5EntryESt6vectorIS7_SaIS7_EEEElS7_St4lessIS7_EEvT_T0_SG_T1_T2_@Base 1.6
 (optional=templinst)_ZSt13__adjust_heapIN9__gnu_cxx17__normal_iteratorIPN3pcl6search17OrganizedNeighborINS2_11PointNormalEE5EntryESt6vectorIS7_SaIS7_EEEElS7_St4lessIS7_EEvT_T0_SG_T1_T2_@Base 1.6
 (optional=templinst)_ZSt13__adjust_heapIN9__gnu_cxx17__normal_iteratorIPN3pcl6search17OrganizedNeighborINS2_11PointXYZHSVEE5EntryESt6vectorIS7_SaIS7_EEEElS7_St4lessIS7_EEvT_T0_SG_T1_T2_@Base 1.6
 (optional=templinst)_ZSt13__adjust_heapIN9__gnu_cxx17__normal_iteratorIPN3pcl6search17OrganizedNeighborINS2_11PointXYZRGBEE5EntryESt6vectorIS7_SaIS7_EEEElS7_St4lessIS7_EEvT_T0_SG_T1_T2_@Base 1.6
 (optional=templinst)_ZSt13__adjust_heapIN9__gnu_cxx17__normal_iteratorIPN3pcl6search17OrganizedNeighborINS2_12PointXYZRGBAEE5EntryESt6vectorIS7_SaIS7_EEEElS7_St4lessIS7_EEvT_T0_SG_T1_T2_@Base 1.6
 (optional=templinst)_ZSt13__adjust_heapIN9__gnu_cxx17__normal_iteratorIPN3pcl6search17OrganizedNeighborINS2_12PointXYZRGBLEE5EntryESt6vectorIS7_SaIS7_EEEElS7_St4lessIS7_EEvT_T0_SG_T1_T2_@Base 1.6
 (optional=templinst)_ZSt13__adjust_heapIN9__gnu_cxx17__normal_iteratorIPN3pcl6search17OrganizedNeighborINS2_13InterestPointEE5EntryESt6vectorIS7_SaIS7_EEEElS7_St4lessIS7_EEvT_T0_SG_T1_T2_@Base 1.6
 (optional=templinst)_ZSt13__adjust_heapIN9__gnu_cxx17__normal_iteratorIPN3pcl6search17OrganizedNeighborINS2_14PointWithRangeEE5EntryESt6vectorIS7_SaIS7_EEEElS7_St4lessIS7_EEvT_T0_SG_T1_T2_@Base 1.6
 (optional=templinst)_ZSt13__adjust_heapIN9__gnu_cxx17__normal_iteratorIPN3pcl6search17OrganizedNeighborINS2_14PointWithScaleEE5EntryESt6vectorIS7_SaIS7_EEEElS7_St4lessIS7_EEvT_T0_SG_T1_T2_@Base 1.6
 (optional=templinst)_ZSt13__adjust_heapIN9__gnu_cxx17__normal_iteratorIPN3pcl6search17OrganizedNeighborINS2_15PointXYZINormalEE5EntryESt6vectorIS7_SaIS7_EEEElS7_St4lessIS7_EEvT_T0_SG_T1_T2_@Base 1.6
 (optional=templinst)_ZSt13__adjust_heapIN9__gnu_cxx17__normal_iteratorIPN3pcl6search17OrganizedNeighborINS2_17PointXYZRGBNormalEE5EntryESt6vectorIS7_SaIS7_EEEElS7_St4lessIS7_EEvT_T0_SG_T1_T2_@Base 1.6
 (optional=templinst)_ZSt13__adjust_heapIN9__gnu_cxx17__normal_iteratorIPN3pcl6search17OrganizedNeighborINS2_18PointWithViewpointEE5EntryESt6vectorIS7_SaIS7_EEEElS7_St4lessIS7_EEvT_T0_SG_T1_T2_@Base 1.6
 (optional=templinst)_ZSt13__adjust_heapIN9__gnu_cxx17__normal_iteratorIPN3pcl6search17OrganizedNeighborINS2_8PointXYZEE5EntryESt6vectorIS7_SaIS7_EEEElS7_St4lessIS7_EEvT_T0_SG_T1_T2_@Base 1.6
 (optional=templinst)_ZSt13__adjust_heapIN9__gnu_cxx17__normal_iteratorIPN3pcl6search17OrganizedNeighborINS2_9PointXYZIEE5EntryESt6vectorIS7_SaIS7_EEEElS7_St4lessIS7_EEvT_T0_SG_T1_T2_@Base 1.6
 (optional=templinst)_ZSt13__adjust_heapIN9__gnu_cxx17__normal_iteratorIPN3pcl6search17OrganizedNeighborINS2_9PointXYZLEE5EntryESt6vectorIS7_SaIS7_EEEElS7_St4lessIS7_EEvT_T0_SG_T1_T2_@Base 1.6
 (optional=templinst)_ZSt13__adjust_heapIN9__gnu_cxx17__normal_iteratorIPN5flann13DistanceIndexIfEESt6vectorIS4_SaIS4_EEEElS4_EvT_T0_SB_T1_@Base 1.6
 (optional=templinst)_ZSt13__adjust_heapIN9__gnu_cxx17__normal_iteratorIPfSt6vectorIfSaIfEEEElfEvT_T0_S8_T1_@Base 1.6
 (optional=templinst)_ZSt13__adjust_heapIN9__gnu_cxx17__normal_iteratorIPiSt6vectorIiSaIiEEEEliN3pcl6search6SearchINS7_11PointNormalEE7CompareEEvT_T0_SE_T1_T2_@Base 1.6
 (optional=templinst)_ZSt13__adjust_heapIN9__gnu_cxx17__normal_iteratorIPiSt6vectorIiSaIiEEEEliN3pcl6search6SearchINS7_11PointXYZHSVEE7CompareEEvT_T0_SE_T1_T2_@Base 1.6
 (optional=templinst)_ZSt13__adjust_heapIN9__gnu_cxx17__normal_iteratorIPiSt6vectorIiSaIiEEEEliN3pcl6search6SearchINS7_11PointXYZRGBEE7CompareEEvT_T0_SE_T1_T2_@Base 1.6
 (optional=templinst)_ZSt13__adjust_heapIN9__gnu_cxx17__normal_iteratorIPiSt6vectorIiSaIiEEEEliN3pcl6search6SearchINS7_12PointXYZRGBAEE7CompareEEvT_T0_SE_T1_T2_@Base 1.6
 (optional=templinst)_ZSt13__adjust_heapIN9__gnu_cxx17__normal_iteratorIPiSt6vectorIiSaIiEEEEliN3pcl6search6SearchINS7_12PointXYZRGBLEE7CompareEEvT_T0_SE_T1_T2_@Base 1.6
 (optional=templinst)_ZSt13__adjust_heapIN9__gnu_cxx17__normal_iteratorIPiSt6vectorIiSaIiEEEEliN3pcl6search6SearchINS7_13InterestPointEE7CompareEEvT_T0_SE_T1_T2_@Base 1.6
 (optional=templinst)_ZSt13__adjust_heapIN9__gnu_cxx17__normal_iteratorIPiSt6vectorIiSaIiEEEEliN3pcl6search6SearchINS7_14PointWithRangeEE7CompareEEvT_T0_SE_T1_T2_@Base 1.6
 (optional=templinst)_ZSt13__adjust_heapIN9__gnu_cxx17__normal_iteratorIPiSt6vectorIiSaIiEEEEliN3pcl6search6SearchINS7_14PointWithScaleEE7CompareEEvT_T0_SE_T1_T2_@Base 1.6
 (optional=templinst)_ZSt13__adjust_heapIN9__gnu_cxx17__normal_iteratorIPiSt6vectorIiSaIiEEEEliN3pcl6search6SearchINS7_15PointXYZINormalEE7CompareEEvT_T0_SE_T1_T2_@Base 1.6
 (optional=templinst)_ZSt13__adjust_heapIN9__gnu_cxx17__normal_iteratorIPiSt6vectorIiSaIiEEEEliN3pcl6search6SearchINS7_17PointXYZRGBNormalEE7CompareEEvT_T0_SE_T1_T2_@Base 1.6
 (optional=templinst)_ZSt13__adjust_heapIN9__gnu_cxx17__normal_iteratorIPiSt6vectorIiSaIiEEEEliN3pcl6search6SearchINS7_18PointWithViewpointEE7CompareEEvT_T0_SE_T1_T2_@Base 1.6
 (optional=templinst)_ZSt13__adjust_heapIN9__gnu_cxx17__normal_iteratorIPiSt6vectorIiSaIiEEEEliN3pcl6search6SearchINS7_8PointXYZEE7CompareEEvT_T0_SE_T1_T2_@Base 1.6
 (optional=templinst)_ZSt13__adjust_heapIN9__gnu_cxx17__normal_iteratorIPiSt6vectorIiSaIiEEEEliN3pcl6search6SearchINS7_9PointXYZIEE7CompareEEvT_T0_SE_T1_T2_@Base 1.6
 (optional=templinst)_ZSt13__adjust_heapIN9__gnu_cxx17__normal_iteratorIPiSt6vectorIiSaIiEEEEliN3pcl6search6SearchINS7_9PointXYZLEE7CompareEEvT_T0_SE_T1_T2_@Base 1.6
 (optional=templinst)_ZSt13__heap_selectIN9__gnu_cxx17__normal_iteratorIPN5flann13DistanceIndexIfEESt6vectorIS4_SaIS4_EEEEEvT_SA_SA_@Base 1.6
 (optional=templinst)_ZSt13__heap_selectIN9__gnu_cxx17__normal_iteratorIPfSt6vectorIfSaIfEEEEEvT_S7_S7_@Base 1.6
 (optional=templinst)_ZSt13__heap_selectIN9__gnu_cxx17__normal_iteratorIPiSt6vectorIiSaIiEEEEN3pcl6search6SearchINS7_11PointNormalEE7CompareEEvT_SD_SD_T0_@Base 1.6
 (optional=templinst)_ZSt13__heap_selectIN9__gnu_cxx17__normal_iteratorIPiSt6vectorIiSaIiEEEEN3pcl6search6SearchINS7_11PointXYZHSVEE7CompareEEvT_SD_SD_T0_@Base 1.6
 (optional=templinst)_ZSt13__heap_selectIN9__gnu_cxx17__normal_iteratorIPiSt6vectorIiSaIiEEEEN3pcl6search6SearchINS7_11PointXYZRGBEE7CompareEEvT_SD_SD_T0_@Base 1.6
 (optional=templinst)_ZSt13__heap_selectIN9__gnu_cxx17__normal_iteratorIPiSt6vectorIiSaIiEEEEN3pcl6search6SearchINS7_12PointXYZRGBAEE7CompareEEvT_SD_SD_T0_@Base 1.6
 (optional=templinst)_ZSt13__heap_selectIN9__gnu_cxx17__normal_iteratorIPiSt6vectorIiSaIiEEEEN3pcl6search6SearchINS7_12PointXYZRGBLEE7CompareEEvT_SD_SD_T0_@Base 1.6
 (optional=templinst)_ZSt13__heap_selectIN9__gnu_cxx17__normal_iteratorIPiSt6vectorIiSaIiEEEEN3pcl6search6SearchINS7_13InterestPointEE7CompareEEvT_SD_SD_T0_@Base 1.6
 (optional=templinst)_ZSt13__heap_selectIN9__gnu_cxx17__normal_iteratorIPiSt6vectorIiSaIiEEEEN3pcl6search6SearchINS7_14PointWithRangeEE7CompareEEvT_SD_SD_T0_@Base 1.6
 (optional=templinst)_ZSt13__heap_selectIN9__gnu_cxx17__normal_iteratorIPiSt6vectorIiSaIiEEEEN3pcl6search6SearchINS7_14PointWithScaleEE7CompareEEvT_SD_SD_T0_@Base 1.6
 (optional=templinst)_ZSt13__heap_selectIN9__gnu_cxx17__normal_iteratorIPiSt6vectorIiSaIiEEEEN3pcl6search6SearchINS7_15PointXYZINormalEE7CompareEEvT_SD_SD_T0_@Base 1.6
 (optional=templinst)_ZSt13__heap_selectIN9__gnu_cxx17__normal_iteratorIPiSt6vectorIiSaIiEEEEN3pcl6search6SearchINS7_17PointXYZRGBNormalEE7CompareEEvT_SD_SD_T0_@Base 1.6
 (optional=templinst)_ZSt13__heap_selectIN9__gnu_cxx17__normal_iteratorIPiSt6vectorIiSaIiEEEEN3pcl6search6SearchINS7_18PointWithViewpointEE7CompareEEvT_SD_SD_T0_@Base 1.6
 (optional=templinst)_ZSt13__heap_selectIN9__gnu_cxx17__normal_iteratorIPiSt6vectorIiSaIiEEEEN3pcl6search6SearchINS7_8PointXYZEE7CompareEEvT_SD_SD_T0_@Base 1.6
 (optional=templinst)_ZSt13__heap_selectIN9__gnu_cxx17__normal_iteratorIPiSt6vectorIiSaIiEEEEN3pcl6search6SearchINS7_9PointXYZIEE7CompareEEvT_SD_SD_T0_@Base 1.6
 (optional=templinst)_ZSt13__heap_selectIN9__gnu_cxx17__normal_iteratorIPiSt6vectorIiSaIiEEEEN3pcl6search6SearchINS7_9PointXYZLEE7CompareEEvT_SD_SD_T0_@Base 1.6
 (optional=templinst)_ZSt13__introselectIN9__gnu_cxx17__normal_iteratorIPN5flann13DistanceIndexIfEESt6vectorIS4_SaIS4_EEEElEvT_SA_SA_T0_@Base 1.6
 (optional=templinst)_ZSt13copy_backwardIPfS0_ET0_T_S2_S1_@Base 1.6
 (optional=templinst)_ZSt13copy_backwardIPiS0_ET0_T_S2_S1_@Base 1.6
 (optional=templinst)_ZSt16__insertion_sortIN9__gnu_cxx17__normal_iteratorIPN5flann13DistanceIndexIfEESt6vectorIS4_SaIS4_EEEEEvT_SA_@Base 1.6
 (optional=templinst)_ZSt16__insertion_sortIN9__gnu_cxx17__normal_iteratorIPfSt6vectorIfSaIfEEEEEvT_S7_@Base 1.6
 (optional=templinst)_ZSt16__insertion_sortIN9__gnu_cxx17__normal_iteratorIPiSt6vectorIiSaIiEEEEN3pcl6search6SearchINS7_11PointNormalEE7CompareEEvT_SD_T0_@Base 1.6
 (optional=templinst)_ZSt16__insertion_sortIN9__gnu_cxx17__normal_iteratorIPiSt6vectorIiSaIiEEEEN3pcl6search6SearchINS7_11PointXYZHSVEE7CompareEEvT_SD_T0_@Base 1.6
 (optional=templinst)_ZSt16__insertion_sortIN9__gnu_cxx17__normal_iteratorIPiSt6vectorIiSaIiEEEEN3pcl6search6SearchINS7_11PointXYZRGBEE7CompareEEvT_SD_T0_@Base 1.6
 (optional=templinst)_ZSt16__insertion_sortIN9__gnu_cxx17__normal_iteratorIPiSt6vectorIiSaIiEEEEN3pcl6search6SearchINS7_12PointXYZRGBAEE7CompareEEvT_SD_T0_@Base 1.6
 (optional=templinst)_ZSt16__insertion_sortIN9__gnu_cxx17__normal_iteratorIPiSt6vectorIiSaIiEEEEN3pcl6search6SearchINS7_12PointXYZRGBLEE7CompareEEvT_SD_T0_@Base 1.6
 (optional=templinst)_ZSt16__insertion_sortIN9__gnu_cxx17__normal_iteratorIPiSt6vectorIiSaIiEEEEN3pcl6search6SearchINS7_13InterestPointEE7CompareEEvT_SD_T0_@Base 1.6
 (optional=templinst)_ZSt16__insertion_sortIN9__gnu_cxx17__normal_iteratorIPiSt6vectorIiSaIiEEEEN3pcl6search6SearchINS7_14PointWithRangeEE7CompareEEvT_SD_T0_@Base 1.6
 (optional=templinst)_ZSt16__insertion_sortIN9__gnu_cxx17__normal_iteratorIPiSt6vectorIiSaIiEEEEN3pcl6search6SearchINS7_14PointWithScaleEE7CompareEEvT_SD_T0_@Base 1.6
 (optional=templinst)_ZSt16__insertion_sortIN9__gnu_cxx17__normal_iteratorIPiSt6vectorIiSaIiEEEEN3pcl6search6SearchINS7_15PointXYZINormalEE7CompareEEvT_SD_T0_@Base 1.6
 (optional=templinst)_ZSt16__insertion_sortIN9__gnu_cxx17__normal_iteratorIPiSt6vectorIiSaIiEEEEN3pcl6search6SearchINS7_17PointXYZRGBNormalEE7CompareEEvT_SD_T0_@Base 1.6
 (optional=templinst)_ZSt16__insertion_sortIN9__gnu_cxx17__normal_iteratorIPiSt6vectorIiSaIiEEEEN3pcl6search6SearchINS7_18PointWithViewpointEE7CompareEEvT_SD_T0_@Base 1.6
 (optional=templinst)_ZSt16__insertion_sortIN9__gnu_cxx17__normal_iteratorIPiSt6vectorIiSaIiEEEEN3pcl6search6SearchINS7_8PointXYZEE7CompareEEvT_SD_T0_@Base 1.6
 (optional=templinst)_ZSt16__insertion_sortIN9__gnu_cxx17__normal_iteratorIPiSt6vectorIiSaIiEEEEN3pcl6search6SearchINS7_9PointXYZIEE7CompareEEvT_SD_T0_@Base 1.6
 (optional=templinst)_ZSt16__insertion_sortIN9__gnu_cxx17__normal_iteratorIPiSt6vectorIiSaIiEEEEN3pcl6search6SearchINS7_9PointXYZLEE7CompareEEvT_SD_T0_@Base 1.6
 (optional=templinst)_ZSt16__introsort_loopIN9__gnu_cxx17__normal_iteratorIPN5flann13DistanceIndexIfEESt6vectorIS4_SaIS4_EEEElEvT_SA_T0_@Base 1.6
 (optional=templinst)_ZSt16__introsort_loopIN9__gnu_cxx17__normal_iteratorIPfSt6vectorIfSaIfEEEElEvT_S7_T0_@Base 1.6
 (optional=templinst)_ZSt16__introsort_loopIN9__gnu_cxx17__normal_iteratorIPiSt6vectorIiSaIiEEEElN3pcl6search6SearchINS7_11PointNormalEE7CompareEEvT_SD_T0_T1_@Base 1.6
 (optional=templinst)_ZSt16__introsort_loopIN9__gnu_cxx17__normal_iteratorIPiSt6vectorIiSaIiEEEElN3pcl6search6SearchINS7_11PointXYZHSVEE7CompareEEvT_SD_T0_T1_@Base 1.6
 (optional=templinst)_ZSt16__introsort_loopIN9__gnu_cxx17__normal_iteratorIPiSt6vectorIiSaIiEEEElN3pcl6search6SearchINS7_11PointXYZRGBEE7CompareEEvT_SD_T0_T1_@Base 1.6
 (optional=templinst)_ZSt16__introsort_loopIN9__gnu_cxx17__normal_iteratorIPiSt6vectorIiSaIiEEEElN3pcl6search6SearchINS7_12PointXYZRGBAEE7CompareEEvT_SD_T0_T1_@Base 1.6
 (optional=templinst)_ZSt16__introsort_loopIN9__gnu_cxx17__normal_iteratorIPiSt6vectorIiSaIiEEEElN3pcl6search6SearchINS7_12PointXYZRGBLEE7CompareEEvT_SD_T0_T1_@Base 1.6
 (optional=templinst)_ZSt16__introsort_loopIN9__gnu_cxx17__normal_iteratorIPiSt6vectorIiSaIiEEEElN3pcl6search6SearchINS7_13InterestPointEE7CompareEEvT_SD_T0_T1_@Base 1.6
 (optional=templinst)_ZSt16__introsort_loopIN9__gnu_cxx17__normal_iteratorIPiSt6vectorIiSaIiEEEElN3pcl6search6SearchINS7_14PointWithRangeEE7CompareEEvT_SD_T0_T1_@Base 1.6
 (optional=templinst)_ZSt16__introsort_loopIN9__gnu_cxx17__normal_iteratorIPiSt6vectorIiSaIiEEEElN3pcl6search6SearchINS7_14PointWithScaleEE7CompareEEvT_SD_T0_T1_@Base 1.6
 (optional=templinst)_ZSt16__introsort_loopIN9__gnu_cxx17__normal_iteratorIPiSt6vectorIiSaIiEEEElN3pcl6search6SearchINS7_15PointXYZINormalEE7CompareEEvT_SD_T0_T1_@Base 1.6
 (optional=templinst)_ZSt16__introsort_loopIN9__gnu_cxx17__normal_iteratorIPiSt6vectorIiSaIiEEEElN3pcl6search6SearchINS7_17PointXYZRGBNormalEE7CompareEEvT_SD_T0_T1_@Base 1.6
 (optional=templinst)_ZSt16__introsort_loopIN9__gnu_cxx17__normal_iteratorIPiSt6vectorIiSaIiEEEElN3pcl6search6SearchINS7_18PointWithViewpointEE7CompareEEvT_SD_T0_T1_@Base 1.6
 (optional=templinst)_ZSt16__introsort_loopIN9__gnu_cxx17__normal_iteratorIPiSt6vectorIiSaIiEEEElN3pcl6search6SearchINS7_8PointXYZEE7CompareEEvT_SD_T0_T1_@Base 1.6
 (optional=templinst)_ZSt16__introsort_loopIN9__gnu_cxx17__normal_iteratorIPiSt6vectorIiSaIiEEEElN3pcl6search6SearchINS7_9PointXYZIEE7CompareEEvT_SD_T0_T1_@Base 1.6
 (optional=templinst)_ZSt16__introsort_loopIN9__gnu_cxx17__normal_iteratorIPiSt6vectorIiSaIiEEEElN3pcl6search6SearchINS7_9PointXYZLEE7CompareEEvT_SD_T0_T1_@Base 1.6
 (optional=templinst)_ZSt19__move_median_firstIN9__gnu_cxx17__normal_iteratorIPN5flann13DistanceIndexIfEESt6vectorIS4_SaIS4_EEEEEvT_SA_SA_@Base 1.6
 (optional=templinst)_ZSt21__unguarded_partitionIN9__gnu_cxx17__normal_iteratorIPN5flann13DistanceIndexIfEESt6vectorIS4_SaIS4_EEEES4_ET_SA_SA_RKT0_@Base 1.6
 (optional=templinst)_ZSt22__final_insertion_sortIN9__gnu_cxx17__normal_iteratorIPfSt6vectorIfSaIfEEEEEvT_S7_@Base 1.6
 (optional=templinst)_ZSt25__unguarded_linear_insertIN9__gnu_cxx17__normal_iteratorIPN5flann13DistanceIndexIfEESt6vectorIS4_SaIS4_EEEEEvT_@Base 1.6
 (optional=templinst)_ZSt25__unguarded_linear_insertIN9__gnu_cxx17__normal_iteratorIPiSt6vectorIiSaIiEEEEN3pcl6search6SearchINS7_11PointNormalEE7CompareEEvT_T0_@Base 1.6
 (optional=templinst)_ZSt25__unguarded_linear_insertIN9__gnu_cxx17__normal_iteratorIPiSt6vectorIiSaIiEEEEN3pcl6search6SearchINS7_11PointXYZHSVEE7CompareEEvT_T0_@Base 1.6
 (optional=templinst)_ZSt25__unguarded_linear_insertIN9__gnu_cxx17__normal_iteratorIPiSt6vectorIiSaIiEEEEN3pcl6search6SearchINS7_11PointXYZRGBEE7CompareEEvT_T0_@Base 1.6
 (optional=templinst)_ZSt25__unguarded_linear_insertIN9__gnu_cxx17__normal_iteratorIPiSt6vectorIiSaIiEEEEN3pcl6search6SearchINS7_12PointXYZRGBAEE7CompareEEvT_T0_@Base 1.6
 (optional=templinst)_ZSt25__unguarded_linear_insertIN9__gnu_cxx17__normal_iteratorIPiSt6vectorIiSaIiEEEEN3pcl6search6SearchINS7_12PointXYZRGBLEE7CompareEEvT_T0_@Base 1.6
 (optional=templinst)_ZSt25__unguarded_linear_insertIN9__gnu_cxx17__normal_iteratorIPiSt6vectorIiSaIiEEEEN3pcl6search6SearchINS7_13InterestPointEE7CompareEEvT_T0_@Base 1.6
 (optional=templinst)_ZSt25__unguarded_linear_insertIN9__gnu_cxx17__normal_iteratorIPiSt6vectorIiSaIiEEEEN3pcl6search6SearchINS7_14PointWithRangeEE7CompareEEvT_T0_@Base 1.6
 (optional=templinst)_ZSt25__unguarded_linear_insertIN9__gnu_cxx17__normal_iteratorIPiSt6vectorIiSaIiEEEEN3pcl6search6SearchINS7_14PointWithScaleEE7CompareEEvT_T0_@Base 1.6
 (optional=templinst)_ZSt25__unguarded_linear_insertIN9__gnu_cxx17__normal_iteratorIPiSt6vectorIiSaIiEEEEN3pcl6search6SearchINS7_15PointXYZINormalEE7CompareEEvT_T0_@Base 1.6
 (optional=templinst)_ZSt25__unguarded_linear_insertIN9__gnu_cxx17__normal_iteratorIPiSt6vectorIiSaIiEEEEN3pcl6search6SearchINS7_17PointXYZRGBNormalEE7CompareEEvT_T0_@Base 1.6
 (optional=templinst)_ZSt25__unguarded_linear_insertIN9__gnu_cxx17__normal_iteratorIPiSt6vectorIiSaIiEEEEN3pcl6search6SearchINS7_18PointWithViewpointEE7CompareEEvT_T0_@Base 1.6
 (optional=templinst)_ZSt25__unguarded_linear_insertIN9__gnu_cxx17__normal_iteratorIPiSt6vectorIiSaIiEEEEN3pcl6search6SearchINS7_8PointXYZEE7CompareEEvT_T0_@Base 1.6
 (optional=templinst)_ZSt25__unguarded_linear_insertIN9__gnu_cxx17__normal_iteratorIPiSt6vectorIiSaIiEEEEN3pcl6search6SearchINS7_9PointXYZIEE7CompareEEvT_T0_@Base 1.6
 (optional=templinst)_ZSt25__unguarded_linear_insertIN9__gnu_cxx17__normal_iteratorIPiSt6vectorIiSaIiEEEEN3pcl6search6SearchINS7_9PointXYZLEE7CompareEEvT_T0_@Base 1.6
 (optional=templinst)_ZSt26__unguarded_insertion_sortIN9__gnu_cxx17__normal_iteratorIPN5flann13DistanceIndexIfEESt6vectorIS4_SaIS4_EEEEEvT_SA_@Base 1.6
 (optional=templinst)_ZSt26__unguarded_insertion_sortIN9__gnu_cxx17__normal_iteratorIPiSt6vectorIiSaIiEEEEN3pcl6search6SearchINS7_11PointNormalEE7CompareEEvT_SD_T0_@Base 1.6
 (optional=templinst)_ZSt26__unguarded_insertion_sortIN9__gnu_cxx17__normal_iteratorIPiSt6vectorIiSaIiEEEEN3pcl6search6SearchINS7_11PointXYZHSVEE7CompareEEvT_SD_T0_@Base 1.6
 (optional=templinst)_ZSt26__unguarded_insertion_sortIN9__gnu_cxx17__normal_iteratorIPiSt6vectorIiSaIiEEEEN3pcl6search6SearchINS7_11PointXYZRGBEE7CompareEEvT_SD_T0_@Base 1.6
 (optional=templinst)_ZSt26__unguarded_insertion_sortIN9__gnu_cxx17__normal_iteratorIPiSt6vectorIiSaIiEEEEN3pcl6search6SearchINS7_12PointXYZRGBAEE7CompareEEvT_SD_T0_@Base 1.6
 (optional=templinst)_ZSt26__unguarded_insertion_sortIN9__gnu_cxx17__normal_iteratorIPiSt6vectorIiSaIiEEEEN3pcl6search6SearchINS7_12PointXYZRGBLEE7CompareEEvT_SD_T0_@Base 1.6
 (optional=templinst)_ZSt26__unguarded_insertion_sortIN9__gnu_cxx17__normal_iteratorIPiSt6vectorIiSaIiEEEEN3pcl6search6SearchINS7_13InterestPointEE7CompareEEvT_SD_T0_@Base 1.6
 (optional=templinst)_ZSt26__unguarded_insertion_sortIN9__gnu_cxx17__normal_iteratorIPiSt6vectorIiSaIiEEEEN3pcl6search6SearchINS7_14PointWithRangeEE7CompareEEvT_SD_T0_@Base 1.6
 (optional=templinst)_ZSt26__unguarded_insertion_sortIN9__gnu_cxx17__normal_iteratorIPiSt6vectorIiSaIiEEEEN3pcl6search6SearchINS7_14PointWithScaleEE7CompareEEvT_SD_T0_@Base 1.6
 (optional=templinst)_ZSt26__unguarded_insertion_sortIN9__gnu_cxx17__normal_iteratorIPiSt6vectorIiSaIiEEEEN3pcl6search6SearchINS7_15PointXYZINormalEE7CompareEEvT_SD_T0_@Base 1.6
 (optional=templinst)_ZSt26__unguarded_insertion_sortIN9__gnu_cxx17__normal_iteratorIPiSt6vectorIiSaIiEEEEN3pcl6search6SearchINS7_17PointXYZRGBNormalEE7CompareEEvT_SD_T0_@Base 1.6
 (optional=templinst)_ZSt26__unguarded_insertion_sortIN9__gnu_cxx17__normal_iteratorIPiSt6vectorIiSaIiEEEEN3pcl6search6SearchINS7_18PointWithViewpointEE7CompareEEvT_SD_T0_@Base 1.6
 (optional=templinst)_ZSt26__unguarded_insertion_sortIN9__gnu_cxx17__normal_iteratorIPiSt6vectorIiSaIiEEEEN3pcl6search6SearchINS7_8PointXYZEE7CompareEEvT_SD_T0_@Base 1.6
 (optional=templinst)_ZSt26__unguarded_insertion_sortIN9__gnu_cxx17__normal_iteratorIPiSt6vectorIiSaIiEEEEN3pcl6search6SearchINS7_9PointXYZIEE7CompareEEvT_SD_T0_@Base 1.6
 (optional=templinst)_ZSt26__unguarded_insertion_sortIN9__gnu_cxx17__normal_iteratorIPiSt6vectorIiSaIiEEEEN3pcl6search6SearchINS7_9PointXYZLEE7CompareEEvT_SD_T0_@Base 1.6
 (optional=templinst)_ZSt4copyIN9__gnu_cxx17__normal_iteratorIPKfSt6vectorIfSaIfEEEENS1_IPfS6_EEET0_T_SB_SA_@Base 1.6
 (optional=templinst)_ZSt4copyIN9__gnu_cxx17__normal_iteratorIPKiSt6vectorIiSaIiEEEENS1_IPiS6_EEET0_T_SB_SA_@Base 1.6
 _ZSt8__fill_aIPSt6vectorIfSaIfEES2_EN9__gnu_cxx11__enable_ifIXntsrSt11__is_scalarIT0_E7__valueEvE6__typeET_SB_RKS7_@Base 1.6
 _ZSt8__fill_aIPSt6vectorIiSaIiEES2_EN9__gnu_cxx11__enable_ifIXntsrSt11__is_scalarIT0_E7__valueEvE6__typeET_SB_RKS7_@Base 1.6
 (optional=templinst)_ZSt8pop_heapIN9__gnu_cxx17__normal_iteratorIPN5flann13DistanceIndexIfEESt6vectorIS4_SaIS4_EEEEEvT_SA_@Base 1.6
 (optional=templinst)_ZSt9make_heapIN9__gnu_cxx17__normal_iteratorIPN3pcl6search10BruteForceINS2_11PointNormalEE5EntryESt6vectorIS7_SaIS7_EEEESt4lessIS7_EEvT_SF_T0_@Base 1.6
 (optional=templinst)_ZSt9make_heapIN9__gnu_cxx17__normal_iteratorIPN3pcl6search10BruteForceINS2_11PointXYZHSVEE5EntryESt6vectorIS7_SaIS7_EEEESt4lessIS7_EEvT_SF_T0_@Base 1.6
 (optional=templinst)_ZSt9make_heapIN9__gnu_cxx17__normal_iteratorIPN3pcl6search10BruteForceINS2_11PointXYZRGBEE5EntryESt6vectorIS7_SaIS7_EEEESt4lessIS7_EEvT_SF_T0_@Base 1.6
 (optional=templinst)_ZSt9make_heapIN9__gnu_cxx17__normal_iteratorIPN3pcl6search10BruteForceINS2_12PointXYZRGBAEE5EntryESt6vectorIS7_SaIS7_EEEESt4lessIS7_EEvT_SF_T0_@Base 1.6
 (optional=templinst)_ZSt9make_heapIN9__gnu_cxx17__normal_iteratorIPN3pcl6search10BruteForceINS2_12PointXYZRGBLEE5EntryESt6vectorIS7_SaIS7_EEEESt4lessIS7_EEvT_SF_T0_@Base 1.6
 (optional=templinst)_ZSt9make_heapIN9__gnu_cxx17__normal_iteratorIPN3pcl6search10BruteForceINS2_13InterestPointEE5EntryESt6vectorIS7_SaIS7_EEEESt4lessIS7_EEvT_SF_T0_@Base 1.6
 (optional=templinst)_ZSt9make_heapIN9__gnu_cxx17__normal_iteratorIPN3pcl6search10BruteForceINS2_14PointWithRangeEE5EntryESt6vectorIS7_SaIS7_EEEESt4lessIS7_EEvT_SF_T0_@Base 1.6
 (optional=templinst)_ZSt9make_heapIN9__gnu_cxx17__normal_iteratorIPN3pcl6search10BruteForceINS2_14PointWithScaleEE5EntryESt6vectorIS7_SaIS7_EEEESt4lessIS7_EEvT_SF_T0_@Base 1.6
 (optional=templinst)_ZSt9make_heapIN9__gnu_cxx17__normal_iteratorIPN3pcl6search10BruteForceINS2_15PointXYZINormalEE5EntryESt6vectorIS7_SaIS7_EEEESt4lessIS7_EEvT_SF_T0_@Base 1.6
 (optional=templinst)_ZSt9make_heapIN9__gnu_cxx17__normal_iteratorIPN3pcl6search10BruteForceINS2_17PointXYZRGBNormalEE5EntryESt6vectorIS7_SaIS7_EEEESt4lessIS7_EEvT_SF_T0_@Base 1.6
 (optional=templinst)_ZSt9make_heapIN9__gnu_cxx17__normal_iteratorIPN3pcl6search10BruteForceINS2_18PointWithViewpointEE5EntryESt6vectorIS7_SaIS7_EEEESt4lessIS7_EEvT_SF_T0_@Base 1.6
 (optional=templinst)_ZSt9make_heapIN9__gnu_cxx17__normal_iteratorIPN3pcl6search10BruteForceINS2_8PointXYZEE5EntryESt6vectorIS7_SaIS7_EEEESt4lessIS7_EEvT_SF_T0_@Base 1.6
 (optional=templinst)_ZSt9make_heapIN9__gnu_cxx17__normal_iteratorIPN3pcl6search10BruteForceINS2_9PointXYZIEE5EntryESt6vectorIS7_SaIS7_EEEESt4lessIS7_EEvT_SF_T0_@Base 1.6
 (optional=templinst)_ZSt9make_heapIN9__gnu_cxx17__normal_iteratorIPN3pcl6search10BruteForceINS2_9PointXYZLEE5EntryESt6vectorIS7_SaIS7_EEEESt4lessIS7_EEvT_SF_T0_@Base 1.6
 (optional=templinst)_ZSt9make_heapIN9__gnu_cxx17__normal_iteratorIPN3pcl6search17OrganizedNeighborINS2_11PointNormalEE5EntryESt6vectorIS7_SaIS7_EEEESt4lessIS7_EEvT_SF_T0_@Base 1.6
 (optional=templinst)_ZSt9make_heapIN9__gnu_cxx17__normal_iteratorIPN3pcl6search17OrganizedNeighborINS2_11PointXYZHSVEE5EntryESt6vectorIS7_SaIS7_EEEESt4lessIS7_EEvT_SF_T0_@Base 1.6
 (optional=templinst)_ZSt9make_heapIN9__gnu_cxx17__normal_iteratorIPN3pcl6search17OrganizedNeighborINS2_11PointXYZRGBEE5EntryESt6vectorIS7_SaIS7_EEEESt4lessIS7_EEvT_SF_T0_@Base 1.6
 (optional=templinst)_ZSt9make_heapIN9__gnu_cxx17__normal_iteratorIPN3pcl6search17OrganizedNeighborINS2_12PointXYZRGBAEE5EntryESt6vectorIS7_SaIS7_EEEESt4lessIS7_EEvT_SF_T0_@Base 1.6
 (optional=templinst)_ZSt9make_heapIN9__gnu_cxx17__normal_iteratorIPN3pcl6search17OrganizedNeighborINS2_12PointXYZRGBLEE5EntryESt6vectorIS7_SaIS7_EEEESt4lessIS7_EEvT_SF_T0_@Base 1.6
 (optional=templinst)_ZSt9make_heapIN9__gnu_cxx17__normal_iteratorIPN3pcl6search17OrganizedNeighborINS2_13InterestPointEE5EntryESt6vectorIS7_SaIS7_EEEESt4lessIS7_EEvT_SF_T0_@Base 1.6
 (optional=templinst)_ZSt9make_heapIN9__gnu_cxx17__normal_iteratorIPN3pcl6search17OrganizedNeighborINS2_14PointWithRangeEE5EntryESt6vectorIS7_SaIS7_EEEESt4lessIS7_EEvT_SF_T0_@Base 1.6
 (optional=templinst)_ZSt9make_heapIN9__gnu_cxx17__normal_iteratorIPN3pcl6search17OrganizedNeighborINS2_14PointWithScaleEE5EntryESt6vectorIS7_SaIS7_EEEESt4lessIS7_EEvT_SF_T0_@Base 1.6
 (optional=templinst)_ZSt9make_heapIN9__gnu_cxx17__normal_iteratorIPN3pcl6search17OrganizedNeighborINS2_15PointXYZINormalEE5EntryESt6vectorIS7_SaIS7_EEEESt4lessIS7_EEvT_SF_T0_@Base 1.6
 (optional=templinst)_ZSt9make_heapIN9__gnu_cxx17__normal_iteratorIPN3pcl6search17OrganizedNeighborINS2_17PointXYZRGBNormalEE5EntryESt6vectorIS7_SaIS7_EEEESt4lessIS7_EEvT_SF_T0_@Base 1.6
 (optional=templinst)_ZSt9make_heapIN9__gnu_cxx17__normal_iteratorIPN3pcl6search17OrganizedNeighborINS2_18PointWithViewpointEE5EntryESt6vectorIS7_SaIS7_EEEESt4lessIS7_EEvT_SF_T0_@Base 1.6
 (optional=templinst)_ZSt9make_heapIN9__gnu_cxx17__normal_iteratorIPN3pcl6search17OrganizedNeighborINS2_8PointXYZEE5EntryESt6vectorIS7_SaIS7_EEEESt4lessIS7_EEvT_SF_T0_@Base 1.6
 (optional=templinst)_ZSt9make_heapIN9__gnu_cxx17__normal_iteratorIPN3pcl6search17OrganizedNeighborINS2_9PointXYZIEE5EntryESt6vectorIS7_SaIS7_EEEESt4lessIS7_EEvT_SF_T0_@Base 1.6
 (optional=templinst)_ZSt9make_heapIN9__gnu_cxx17__normal_iteratorIPN3pcl6search17OrganizedNeighborINS2_9PointXYZLEE5EntryESt6vectorIS7_SaIS7_EEEESt4lessIS7_EEvT_SF_T0_@Base 1.6
 (optional=templinst)_ZSt9make_heapIN9__gnu_cxx17__normal_iteratorIPN5flann13DistanceIndexIfEESt6vectorIS4_SaIS4_EEEEEvT_SA_@Base 1.6
 (optional=templinst)_ZSt9make_heapIN9__gnu_cxx17__normal_iteratorIPfSt6vectorIfSaIfEEEEEvT_S7_@Base 1.6
 (optional=templinst)_ZSt9make_heapIN9__gnu_cxx17__normal_iteratorIPiSt6vectorIiSaIiEEEEN3pcl6search6SearchINS7_11PointNormalEE7CompareEEvT_SD_T0_@Base 1.6
 (optional=templinst)_ZSt9make_heapIN9__gnu_cxx17__normal_iteratorIPiSt6vectorIiSaIiEEEEN3pcl6search6SearchINS7_11PointXYZHSVEE7CompareEEvT_SD_T0_@Base 1.6
 (optional=templinst)_ZSt9make_heapIN9__gnu_cxx17__normal_iteratorIPiSt6vectorIiSaIiEEEEN3pcl6search6SearchINS7_11PointXYZRGBEE7CompareEEvT_SD_T0_@Base 1.6
 (optional=templinst)_ZSt9make_heapIN9__gnu_cxx17__normal_iteratorIPiSt6vectorIiSaIiEEEEN3pcl6search6SearchINS7_12PointXYZRGBAEE7CompareEEvT_SD_T0_@Base 1.6
 (optional=templinst)_ZSt9make_heapIN9__gnu_cxx17__normal_iteratorIPiSt6vectorIiSaIiEEEEN3pcl6search6SearchINS7_12PointXYZRGBLEE7CompareEEvT_SD_T0_@Base 1.6
 (optional=templinst)_ZSt9make_heapIN9__gnu_cxx17__normal_iteratorIPiSt6vectorIiSaIiEEEEN3pcl6search6SearchINS7_13InterestPointEE7CompareEEvT_SD_T0_@Base 1.6
 (optional=templinst)_ZSt9make_heapIN9__gnu_cxx17__normal_iteratorIPiSt6vectorIiSaIiEEEEN3pcl6search6SearchINS7_14PointWithRangeEE7CompareEEvT_SD_T0_@Base 1.6
 (optional=templinst)_ZSt9make_heapIN9__gnu_cxx17__normal_iteratorIPiSt6vectorIiSaIiEEEEN3pcl6search6SearchINS7_14PointWithScaleEE7CompareEEvT_SD_T0_@Base 1.6
 (optional=templinst)_ZSt9make_heapIN9__gnu_cxx17__normal_iteratorIPiSt6vectorIiSaIiEEEEN3pcl6search6SearchINS7_15PointXYZINormalEE7CompareEEvT_SD_T0_@Base 1.6
 (optional=templinst)_ZSt9make_heapIN9__gnu_cxx17__normal_iteratorIPiSt6vectorIiSaIiEEEEN3pcl6search6SearchINS7_17PointXYZRGBNormalEE7CompareEEvT_SD_T0_@Base 1.6
 (optional=templinst)_ZSt9make_heapIN9__gnu_cxx17__normal_iteratorIPiSt6vectorIiSaIiEEEEN3pcl6search6SearchINS7_18PointWithViewpointEE7CompareEEvT_SD_T0_@Base 1.6
 (optional=templinst)_ZSt9make_heapIN9__gnu_cxx17__normal_iteratorIPiSt6vectorIiSaIiEEEEN3pcl6search6SearchINS7_8PointXYZEE7CompareEEvT_SD_T0_@Base 1.6
 (optional=templinst)_ZSt9make_heapIN9__gnu_cxx17__normal_iteratorIPiSt6vectorIiSaIiEEEEN3pcl6search6SearchINS7_9PointXYZIEE7CompareEEvT_SD_T0_@Base 1.6
 (optional=templinst)_ZSt9make_heapIN9__gnu_cxx17__normal_iteratorIPiSt6vectorIiSaIiEEEEN3pcl6search6SearchINS7_9PointXYZLEE7CompareEEvT_SD_T0_@Base 1.6
 (optional=templinst)_ZSt9push_heapIN9__gnu_cxx17__normal_iteratorIPN5flann13DistanceIndexIfEESt6vectorIS4_SaIS4_EEEEEvT_SA_@Base 1.6
 (optional=templinst)_ZSt9sort_heapIN9__gnu_cxx17__normal_iteratorIPN5flann13DistanceIndexIfEESt6vectorIS4_SaIS4_EEEEEvT_SA_@Base 1.6
 (optional=templinst)_ZSt9sort_heapIN9__gnu_cxx17__normal_iteratorIPfSt6vectorIfSaIfEEEEEvT_S7_@Base 1.6
 (optional=templinst)_ZSt9sort_heapIN9__gnu_cxx17__normal_iteratorIPiSt6vectorIiSaIiEEEEN3pcl6search6SearchINS7_11PointNormalEE7CompareEEvT_SD_T0_@Base 1.6
 (optional=templinst)_ZSt9sort_heapIN9__gnu_cxx17__normal_iteratorIPiSt6vectorIiSaIiEEEEN3pcl6search6SearchINS7_11PointXYZHSVEE7CompareEEvT_SD_T0_@Base 1.6
 (optional=templinst)_ZSt9sort_heapIN9__gnu_cxx17__normal_iteratorIPiSt6vectorIiSaIiEEEEN3pcl6search6SearchINS7_11PointXYZRGBEE7CompareEEvT_SD_T0_@Base 1.6
 (optional=templinst)_ZSt9sort_heapIN9__gnu_cxx17__normal_iteratorIPiSt6vectorIiSaIiEEEEN3pcl6search6SearchINS7_12PointXYZRGBAEE7CompareEEvT_SD_T0_@Base 1.6
 (optional=templinst)_ZSt9sort_heapIN9__gnu_cxx17__normal_iteratorIPiSt6vectorIiSaIiEEEEN3pcl6search6SearchINS7_12PointXYZRGBLEE7CompareEEvT_SD_T0_@Base 1.6
 (optional=templinst)_ZSt9sort_heapIN9__gnu_cxx17__normal_iteratorIPiSt6vectorIiSaIiEEEEN3pcl6search6SearchINS7_13InterestPointEE7CompareEEvT_SD_T0_@Base 1.6
 (optional=templinst)_ZSt9sort_heapIN9__gnu_cxx17__normal_iteratorIPiSt6vectorIiSaIiEEEEN3pcl6search6SearchINS7_14PointWithRangeEE7CompareEEvT_SD_T0_@Base 1.6
 (optional=templinst)_ZSt9sort_heapIN9__gnu_cxx17__normal_iteratorIPiSt6vectorIiSaIiEEEEN3pcl6search6SearchINS7_14PointWithScaleEE7CompareEEvT_SD_T0_@Base 1.6
 (optional=templinst)_ZSt9sort_heapIN9__gnu_cxx17__normal_iteratorIPiSt6vectorIiSaIiEEEEN3pcl6search6SearchINS7_15PointXYZINormalEE7CompareEEvT_SD_T0_@Base 1.6
 (optional=templinst)_ZSt9sort_heapIN9__gnu_cxx17__normal_iteratorIPiSt6vectorIiSaIiEEEEN3pcl6search6SearchINS7_17PointXYZRGBNormalEE7CompareEEvT_SD_T0_@Base 1.6
 (optional=templinst)_ZSt9sort_heapIN9__gnu_cxx17__normal_iteratorIPiSt6vectorIiSaIiEEEEN3pcl6search6SearchINS7_18PointWithViewpointEE7CompareEEvT_SD_T0_@Base 1.6
 (optional=templinst)_ZSt9sort_heapIN9__gnu_cxx17__normal_iteratorIPiSt6vectorIiSaIiEEEEN3pcl6search6SearchINS7_8PointXYZEE7CompareEEvT_SD_T0_@Base 1.6
 (optional=templinst)_ZSt9sort_heapIN9__gnu_cxx17__normal_iteratorIPiSt6vectorIiSaIiEEEEN3pcl6search6SearchINS7_9PointXYZIEE7CompareEEvT_SD_T0_@Base 1.6
 (optional=templinst)_ZSt9sort_heapIN9__gnu_cxx17__normal_iteratorIPiSt6vectorIiSaIiEEEEN3pcl6search6SearchINS7_9PointXYZLEE7CompareEEvT_SD_T0_@Base 1.6
 _ZTIN3pcl11KdTreeFLANNINS_11PointNormalEN5flann9L2_SimpleIfEEEE@Base 1.6
 _ZTIN3pcl11KdTreeFLANNINS_11PointXYZHSVEN5flann9L2_SimpleIfEEEE@Base 1.6
 _ZTIN3pcl11KdTreeFLANNINS_11PointXYZRGBEN5flann9L2_SimpleIfEEEE@Base 1.6
 _ZTIN3pcl11KdTreeFLANNINS_12PPFSignatureEN5flann9L2_SimpleIfEEEE@Base 1.6
 _ZTIN3pcl11KdTreeFLANNINS_12PointXYZRGBAEN5flann9L2_SimpleIfEEEE@Base 1.6
 _ZTIN3pcl11KdTreeFLANNINS_12PointXYZRGBLEN5flann9L2_SimpleIfEEEE@Base 1.6
 _ZTIN3pcl11KdTreeFLANNINS_13InterestPointEN5flann9L2_SimpleIfEEEE@Base 1.6
 _ZTIN3pcl11KdTreeFLANNINS_14PointWithRangeEN5flann9L2_SimpleIfEEEE@Base 1.6
 _ZTIN3pcl11KdTreeFLANNINS_14PointWithScaleEN5flann9L2_SimpleIfEEEE@Base 1.6
 _ZTIN3pcl11KdTreeFLANNINS_14ReferenceFrameEN5flann9L2_SimpleIfEEEE@Base 1.6
 _ZTIN3pcl11KdTreeFLANNINS_15ESFSignature640EN5flann9L2_SimpleIfEEEE@Base 1.6
 _ZTIN3pcl11KdTreeFLANNINS_15FPFHSignature33EN5flann9L2_SimpleIfEEEE@Base 1.6
 _ZTIN3pcl11KdTreeFLANNINS_15PFHSignature125EN5flann9L2_SimpleIfEEEE@Base 1.6
 _ZTIN3pcl11KdTreeFLANNINS_15PPFRGBSignatureEN5flann9L2_SimpleIfEEEE@Base 1.6
 _ZTIN3pcl11KdTreeFLANNINS_15PointXYZINormalEN5flann9L2_SimpleIfEEEE@Base 1.6
 _ZTIN3pcl11KdTreeFLANNINS_15VFHSignature308EN5flann9L2_SimpleIfEEEE@Base 1.6
 _ZTIN3pcl11KdTreeFLANNINS_16MomentInvariantsEN5flann9L2_SimpleIfEEEE@Base 1.6
 _ZTIN3pcl11KdTreeFLANNINS_17IntensityGradientEN5flann9L2_SimpleIfEEEE@Base 1.6
 _ZTIN3pcl11KdTreeFLANNINS_17PointXYZRGBNormalEN5flann9L2_SimpleIfEEEE@Base 1.6
 _ZTIN3pcl11KdTreeFLANNINS_17PrincipalRadiiRSDEN5flann9L2_SimpleIfEEEE@Base 1.6
 _ZTIN3pcl11KdTreeFLANNINS_18PFHRGBSignature250EN5flann9L2_SimpleIfEEEE@Base 1.6
 _ZTIN3pcl11KdTreeFLANNINS_18PointWithViewpointEN5flann9L2_SimpleIfEEEE@Base 1.6
 _ZTIN3pcl11KdTreeFLANNINS_19PrincipalCurvaturesEN5flann9L2_SimpleIfEEEE@Base 1.6
 _ZTIN3pcl11KdTreeFLANNINS_22NormalBasedSignature12EN5flann9L2_SimpleIfEEEE@Base 1.6
 _ZTIN3pcl11KdTreeFLANNINS_4AxisEN5flann9L2_SimpleIfEEEE@Base 1.6
 _ZTIN3pcl11KdTreeFLANNINS_5LabelEN5flann9L2_SimpleIfEEEE@Base 1.6
 _ZTIN3pcl11KdTreeFLANNINS_6Narf36EN5flann9L2_SimpleIfEEEE@Base 1.6
 _ZTIN3pcl11KdTreeFLANNINS_6NormalEN5flann9L2_SimpleIfEEEE@Base 1.6
 _ZTIN3pcl11KdTreeFLANNINS_7PointXYEN5flann9L2_SimpleIfEEEE@Base 1.6
 _ZTIN3pcl11KdTreeFLANNINS_8BoundaryEN5flann9L2_SimpleIfEEEE@Base 1.6
 _ZTIN3pcl11KdTreeFLANNINS_8PointXYZEN5flann9L2_SimpleIfEEEE@Base 1.6
 _ZTIN3pcl11KdTreeFLANNINS_9PointXYZIEN5flann9L2_SimpleIfEEEE@Base 1.6
 _ZTIN3pcl11KdTreeFLANNINS_9PointXYZLEN5flann9L2_SimpleIfEEEE@Base 1.6
 _ZTIN3pcl19PointRepresentationINS_11PointNormalEEE@Base 1.6
 _ZTIN3pcl19PointRepresentationINS_11PointXYZHSVEEE@Base 1.6
 _ZTIN3pcl19PointRepresentationINS_11PointXYZRGBEEE@Base 1.6
 _ZTIN3pcl19PointRepresentationINS_12PPFSignatureEEE@Base 1.6
 _ZTIN3pcl19PointRepresentationINS_12PointXYZRGBAEEE@Base 1.6
 _ZTIN3pcl19PointRepresentationINS_12PointXYZRGBLEEE@Base 1.6
 _ZTIN3pcl19PointRepresentationINS_13InterestPointEEE@Base 1.6
 _ZTIN3pcl19PointRepresentationINS_14PointWithRangeEEE@Base 1.6
 _ZTIN3pcl19PointRepresentationINS_14PointWithScaleEEE@Base 1.6
 _ZTIN3pcl19PointRepresentationINS_14ReferenceFrameEEE@Base 1.6
 _ZTIN3pcl19PointRepresentationINS_15ESFSignature640EEE@Base 1.6
 _ZTIN3pcl19PointRepresentationINS_15FPFHSignature33EEE@Base 1.6
 _ZTIN3pcl19PointRepresentationINS_15PFHSignature125EEE@Base 1.6
 _ZTIN3pcl19PointRepresentationINS_15PPFRGBSignatureEEE@Base 1.6
 _ZTIN3pcl19PointRepresentationINS_15PointXYZINormalEEE@Base 1.6
 _ZTIN3pcl19PointRepresentationINS_15VFHSignature308EEE@Base 1.6
 _ZTIN3pcl19PointRepresentationINS_16MomentInvariantsEEE@Base 1.6
 _ZTIN3pcl19PointRepresentationINS_17IntensityGradientEEE@Base 1.6
 _ZTIN3pcl19PointRepresentationINS_17PointXYZRGBNormalEEE@Base 1.6
 _ZTIN3pcl19PointRepresentationINS_17PrincipalRadiiRSDEEE@Base 1.6
 _ZTIN3pcl19PointRepresentationINS_18PFHRGBSignature250EEE@Base 1.6
 _ZTIN3pcl19PointRepresentationINS_18PointWithViewpointEEE@Base 1.6
 _ZTIN3pcl19PointRepresentationINS_19PrincipalCurvaturesEEE@Base 1.6
 _ZTIN3pcl19PointRepresentationINS_22NormalBasedSignature12EEE@Base 1.6
 _ZTIN3pcl19PointRepresentationINS_4AxisEEE@Base 1.6
 _ZTIN3pcl19PointRepresentationINS_5LabelEEE@Base 1.6
 _ZTIN3pcl19PointRepresentationINS_6Narf36EEE@Base 1.6
 _ZTIN3pcl19PointRepresentationINS_6NormalEEE@Base 1.6
 _ZTIN3pcl19PointRepresentationINS_7PointXYEEE@Base 1.6
 _ZTIN3pcl19PointRepresentationINS_8BoundaryEEE@Base 1.6
 _ZTIN3pcl19PointRepresentationINS_8PointXYZEEE@Base 1.6
 _ZTIN3pcl19PointRepresentationINS_9PointXYZIEEE@Base 1.6
 _ZTIN3pcl19PointRepresentationINS_9PointXYZLEEE@Base 1.6
 _ZTIN3pcl26DefaultPointRepresentationINS_11PointNormalEEE@Base 1.6
 _ZTIN3pcl26DefaultPointRepresentationINS_11PointXYZHSVEEE@Base 1.6
 _ZTIN3pcl26DefaultPointRepresentationINS_11PointXYZRGBEEE@Base 1.6
 _ZTIN3pcl26DefaultPointRepresentationINS_12PPFSignatureEEE@Base 1.6
 _ZTIN3pcl26DefaultPointRepresentationINS_12PointXYZRGBAEEE@Base 1.6
 _ZTIN3pcl26DefaultPointRepresentationINS_12PointXYZRGBLEEE@Base 1.6
 _ZTIN3pcl26DefaultPointRepresentationINS_13InterestPointEEE@Base 1.6
 _ZTIN3pcl26DefaultPointRepresentationINS_14PointWithRangeEEE@Base 1.6
 _ZTIN3pcl26DefaultPointRepresentationINS_14PointWithScaleEEE@Base 1.6
 _ZTIN3pcl26DefaultPointRepresentationINS_14ReferenceFrameEEE@Base 1.6
 _ZTIN3pcl26DefaultPointRepresentationINS_15ESFSignature640EEE@Base 1.6
 _ZTIN3pcl26DefaultPointRepresentationINS_15FPFHSignature33EEE@Base 1.6
 _ZTIN3pcl26DefaultPointRepresentationINS_15PFHSignature125EEE@Base 1.6
 _ZTIN3pcl26DefaultPointRepresentationINS_15PPFRGBSignatureEEE@Base 1.6
 _ZTIN3pcl26DefaultPointRepresentationINS_15PointXYZINormalEEE@Base 1.6
 _ZTIN3pcl26DefaultPointRepresentationINS_15VFHSignature308EEE@Base 1.6
 _ZTIN3pcl26DefaultPointRepresentationINS_16MomentInvariantsEEE@Base 1.6
 _ZTIN3pcl26DefaultPointRepresentationINS_17IntensityGradientEEE@Base 1.6
 _ZTIN3pcl26DefaultPointRepresentationINS_17PointXYZRGBNormalEEE@Base 1.6
 _ZTIN3pcl26DefaultPointRepresentationINS_17PrincipalRadiiRSDEEE@Base 1.6
 _ZTIN3pcl26DefaultPointRepresentationINS_18PFHRGBSignature250EEE@Base 1.6
 _ZTIN3pcl26DefaultPointRepresentationINS_18PointWithViewpointEEE@Base 1.6
 _ZTIN3pcl26DefaultPointRepresentationINS_19PrincipalCurvaturesEEE@Base 1.6
 _ZTIN3pcl26DefaultPointRepresentationINS_22NormalBasedSignature12EEE@Base 1.6
 _ZTIN3pcl26DefaultPointRepresentationINS_4AxisEEE@Base 1.6
 _ZTIN3pcl26DefaultPointRepresentationINS_5LabelEEE@Base 1.6
 _ZTIN3pcl26DefaultPointRepresentationINS_6Narf36EEE@Base 1.6
 _ZTIN3pcl26DefaultPointRepresentationINS_6NormalEEE@Base 1.6
 _ZTIN3pcl26DefaultPointRepresentationINS_7PointXYEEE@Base 1.6
 _ZTIN3pcl26DefaultPointRepresentationINS_8BoundaryEEE@Base 1.6
 _ZTIN3pcl26DefaultPointRepresentationINS_8PointXYZEEE@Base 1.6
 _ZTIN3pcl26DefaultPointRepresentationINS_9PointXYZIEEE@Base 1.6
 _ZTIN3pcl26DefaultPointRepresentationINS_9PointXYZLEEE@Base 1.6
 _ZTIN3pcl28DefaultFeatureRepresentationINS_12PPFSignatureEEE@Base 1.6
 _ZTIN3pcl28DefaultFeatureRepresentationINS_15FPFHSignature33EEE@Base 1.6
 _ZTIN3pcl28DefaultFeatureRepresentationINS_15PFHSignature125EEE@Base 1.6
 _ZTIN3pcl28DefaultFeatureRepresentationINS_15VFHSignature308EEE@Base 1.6
 _ZTIN3pcl28DefaultFeatureRepresentationINS_18PFHRGBSignature250EEE@Base 1.6
 _ZTIN3pcl28DefaultFeatureRepresentationINS_22NormalBasedSignature12EEE@Base 1.6
 _ZTIN3pcl6KdTreeINS_11PointNormalEEE@Base 1.6
 _ZTIN3pcl6KdTreeINS_11PointXYZHSVEEE@Base 1.6
 _ZTIN3pcl6KdTreeINS_11PointXYZRGBEEE@Base 1.6
 _ZTIN3pcl6KdTreeINS_12PPFSignatureEEE@Base 1.6
 _ZTIN3pcl6KdTreeINS_12PointXYZRGBAEEE@Base 1.6
 _ZTIN3pcl6KdTreeINS_12PointXYZRGBLEEE@Base 1.6
 _ZTIN3pcl6KdTreeINS_13InterestPointEEE@Base 1.6
 _ZTIN3pcl6KdTreeINS_14PointWithRangeEEE@Base 1.6
 _ZTIN3pcl6KdTreeINS_14PointWithScaleEEE@Base 1.6
 _ZTIN3pcl6KdTreeINS_14ReferenceFrameEEE@Base 1.6
 _ZTIN3pcl6KdTreeINS_15ESFSignature640EEE@Base 1.6
 _ZTIN3pcl6KdTreeINS_15FPFHSignature33EEE@Base 1.6
 _ZTIN3pcl6KdTreeINS_15PFHSignature125EEE@Base 1.6
 _ZTIN3pcl6KdTreeINS_15PPFRGBSignatureEEE@Base 1.6
 _ZTIN3pcl6KdTreeINS_15PointXYZINormalEEE@Base 1.6
 _ZTIN3pcl6KdTreeINS_15VFHSignature308EEE@Base 1.6
 _ZTIN3pcl6KdTreeINS_16MomentInvariantsEEE@Base 1.6
 _ZTIN3pcl6KdTreeINS_17IntensityGradientEEE@Base 1.6
 _ZTIN3pcl6KdTreeINS_17PointXYZRGBNormalEEE@Base 1.6
 _ZTIN3pcl6KdTreeINS_17PrincipalRadiiRSDEEE@Base 1.6
 _ZTIN3pcl6KdTreeINS_18PFHRGBSignature250EEE@Base 1.6
 _ZTIN3pcl6KdTreeINS_18PointWithViewpointEEE@Base 1.6
 _ZTIN3pcl6KdTreeINS_19PrincipalCurvaturesEEE@Base 1.6
 _ZTIN3pcl6KdTreeINS_22NormalBasedSignature12EEE@Base 1.6
 _ZTIN3pcl6KdTreeINS_4AxisEEE@Base 1.6
 _ZTIN3pcl6KdTreeINS_5LabelEEE@Base 1.6
 _ZTIN3pcl6KdTreeINS_6Narf36EEE@Base 1.6
 _ZTIN3pcl6KdTreeINS_6NormalEEE@Base 1.6
 _ZTIN3pcl6KdTreeINS_7PointXYEEE@Base 1.6
 _ZTIN3pcl6KdTreeINS_8BoundaryEEE@Base 1.6
 _ZTIN3pcl6KdTreeINS_8PointXYZEEE@Base 1.6
 _ZTIN3pcl6KdTreeINS_9PointXYZIEEE@Base 1.6
 _ZTIN3pcl6KdTreeINS_9PointXYZLEEE@Base 1.6
 _ZTIN3pcl6octree10OctreeBaseIiNS0_26OctreeContainerDataTVectorIiEENS0_20OctreeContainerEmptyIiEEEE@Base 1.6
 _ZTIN3pcl6octree16OctreePointCloudINS_11PointNormalENS0_26OctreeContainerDataTVectorIiEENS0_20OctreeContainerEmptyIiEENS0_10OctreeBaseIiS4_S6_EEEE@Base 1.6
 _ZTIN3pcl6octree16OctreePointCloudINS_11PointXYZHSVENS0_26OctreeContainerDataTVectorIiEENS0_20OctreeContainerEmptyIiEENS0_10OctreeBaseIiS4_S6_EEEE@Base 1.6
 _ZTIN3pcl6octree16OctreePointCloudINS_11PointXYZRGBENS0_26OctreeContainerDataTVectorIiEENS0_20OctreeContainerEmptyIiEENS0_10OctreeBaseIiS4_S6_EEEE@Base 1.6
 _ZTIN3pcl6octree16OctreePointCloudINS_12PointXYZRGBAENS0_26OctreeContainerDataTVectorIiEENS0_20OctreeContainerEmptyIiEENS0_10OctreeBaseIiS4_S6_EEEE@Base 1.6
 _ZTIN3pcl6octree16OctreePointCloudINS_12PointXYZRGBLENS0_26OctreeContainerDataTVectorIiEENS0_20OctreeContainerEmptyIiEENS0_10OctreeBaseIiS4_S6_EEEE@Base 1.6
 _ZTIN3pcl6octree16OctreePointCloudINS_13InterestPointENS0_26OctreeContainerDataTVectorIiEENS0_20OctreeContainerEmptyIiEENS0_10OctreeBaseIiS4_S6_EEEE@Base 1.6
 _ZTIN3pcl6octree16OctreePointCloudINS_14PointWithRangeENS0_26OctreeContainerDataTVectorIiEENS0_20OctreeContainerEmptyIiEENS0_10OctreeBaseIiS4_S6_EEEE@Base 1.6
 _ZTIN3pcl6octree16OctreePointCloudINS_14PointWithScaleENS0_26OctreeContainerDataTVectorIiEENS0_20OctreeContainerEmptyIiEENS0_10OctreeBaseIiS4_S6_EEEE@Base 1.6
 _ZTIN3pcl6octree16OctreePointCloudINS_15PointXYZINormalENS0_26OctreeContainerDataTVectorIiEENS0_20OctreeContainerEmptyIiEENS0_10OctreeBaseIiS4_S6_EEEE@Base 1.6
 _ZTIN3pcl6octree16OctreePointCloudINS_17PointXYZRGBNormalENS0_26OctreeContainerDataTVectorIiEENS0_20OctreeContainerEmptyIiEENS0_10OctreeBaseIiS4_S6_EEEE@Base 1.6
 _ZTIN3pcl6octree16OctreePointCloudINS_18PointWithViewpointENS0_26OctreeContainerDataTVectorIiEENS0_20OctreeContainerEmptyIiEENS0_10OctreeBaseIiS4_S6_EEEE@Base 1.6
 _ZTIN3pcl6octree16OctreePointCloudINS_8PointXYZENS0_26OctreeContainerDataTVectorIiEENS0_20OctreeContainerEmptyIiEENS0_10OctreeBaseIiS4_S6_EEEE@Base 1.6
 _ZTIN3pcl6octree16OctreePointCloudINS_9PointXYZIENS0_26OctreeContainerDataTVectorIiEENS0_20OctreeContainerEmptyIiEENS0_10OctreeBaseIiS4_S6_EEEE@Base 1.6
 _ZTIN3pcl6octree16OctreePointCloudINS_9PointXYZLENS0_26OctreeContainerDataTVectorIiEENS0_20OctreeContainerEmptyIiEENS0_10OctreeBaseIiS4_S6_EEEE@Base 1.6
 _ZTIN3pcl6octree22OctreePointCloudSearchINS_11PointNormalENS0_26OctreeContainerDataTVectorIiEENS0_20OctreeContainerEmptyIiEEEE@Base 1.6
 _ZTIN3pcl6octree22OctreePointCloudSearchINS_11PointXYZHSVENS0_26OctreeContainerDataTVectorIiEENS0_20OctreeContainerEmptyIiEEEE@Base 1.6
 _ZTIN3pcl6octree22OctreePointCloudSearchINS_11PointXYZRGBENS0_26OctreeContainerDataTVectorIiEENS0_20OctreeContainerEmptyIiEEEE@Base 1.6
 _ZTIN3pcl6octree22OctreePointCloudSearchINS_12PointXYZRGBAENS0_26OctreeContainerDataTVectorIiEENS0_20OctreeContainerEmptyIiEEEE@Base 1.6
 _ZTIN3pcl6octree22OctreePointCloudSearchINS_12PointXYZRGBLENS0_26OctreeContainerDataTVectorIiEENS0_20OctreeContainerEmptyIiEEEE@Base 1.6
 _ZTIN3pcl6octree22OctreePointCloudSearchINS_13InterestPointENS0_26OctreeContainerDataTVectorIiEENS0_20OctreeContainerEmptyIiEEEE@Base 1.6
 _ZTIN3pcl6octree22OctreePointCloudSearchINS_14PointWithRangeENS0_26OctreeContainerDataTVectorIiEENS0_20OctreeContainerEmptyIiEEEE@Base 1.6
 _ZTIN3pcl6octree22OctreePointCloudSearchINS_14PointWithScaleENS0_26OctreeContainerDataTVectorIiEENS0_20OctreeContainerEmptyIiEEEE@Base 1.6
 _ZTIN3pcl6octree22OctreePointCloudSearchINS_15PointXYZINormalENS0_26OctreeContainerDataTVectorIiEENS0_20OctreeContainerEmptyIiEEEE@Base 1.6
 _ZTIN3pcl6octree22OctreePointCloudSearchINS_17PointXYZRGBNormalENS0_26OctreeContainerDataTVectorIiEENS0_20OctreeContainerEmptyIiEEEE@Base 1.6
 _ZTIN3pcl6octree22OctreePointCloudSearchINS_18PointWithViewpointENS0_26OctreeContainerDataTVectorIiEENS0_20OctreeContainerEmptyIiEEEE@Base 1.6
 _ZTIN3pcl6octree22OctreePointCloudSearchINS_8PointXYZENS0_26OctreeContainerDataTVectorIiEENS0_20OctreeContainerEmptyIiEEEE@Base 1.6
 _ZTIN3pcl6octree22OctreePointCloudSearchINS_9PointXYZIENS0_26OctreeContainerDataTVectorIiEENS0_20OctreeContainerEmptyIiEEEE@Base 1.6
 _ZTIN3pcl6octree22OctreePointCloudSearchINS_9PointXYZLENS0_26OctreeContainerDataTVectorIiEENS0_20OctreeContainerEmptyIiEEEE@Base 1.6
 _ZTIN3pcl6search10BruteForceINS_11PointNormalEEE@Base 1.6
 _ZTIN3pcl6search10BruteForceINS_11PointXYZHSVEEE@Base 1.6
 _ZTIN3pcl6search10BruteForceINS_11PointXYZRGBEEE@Base 1.6
 _ZTIN3pcl6search10BruteForceINS_12PointXYZRGBAEEE@Base 1.6
 _ZTIN3pcl6search10BruteForceINS_12PointXYZRGBLEEE@Base 1.6
 _ZTIN3pcl6search10BruteForceINS_13InterestPointEEE@Base 1.6
 _ZTIN3pcl6search10BruteForceINS_14PointWithRangeEEE@Base 1.6
 _ZTIN3pcl6search10BruteForceINS_14PointWithScaleEEE@Base 1.6
 _ZTIN3pcl6search10BruteForceINS_15PointXYZINormalEEE@Base 1.6
 _ZTIN3pcl6search10BruteForceINS_17PointXYZRGBNormalEEE@Base 1.6
 _ZTIN3pcl6search10BruteForceINS_18PointWithViewpointEEE@Base 1.6
 _ZTIN3pcl6search10BruteForceINS_8PointXYZEEE@Base 1.6
 _ZTIN3pcl6search10BruteForceINS_9PointXYZIEEE@Base 1.6
 _ZTIN3pcl6search10BruteForceINS_9PointXYZLEEE@Base 1.6
 _ZTIN3pcl6search17OrganizedNeighborINS_11PointNormalEEE@Base 1.6
 _ZTIN3pcl6search17OrganizedNeighborINS_11PointXYZHSVEEE@Base 1.6
 _ZTIN3pcl6search17OrganizedNeighborINS_11PointXYZRGBEEE@Base 1.6
 _ZTIN3pcl6search17OrganizedNeighborINS_12PointXYZRGBAEEE@Base 1.6
 _ZTIN3pcl6search17OrganizedNeighborINS_12PointXYZRGBLEEE@Base 1.6
 _ZTIN3pcl6search17OrganizedNeighborINS_13InterestPointEEE@Base 1.6
 _ZTIN3pcl6search17OrganizedNeighborINS_14PointWithRangeEEE@Base 1.6
 _ZTIN3pcl6search17OrganizedNeighborINS_14PointWithScaleEEE@Base 1.6
 _ZTIN3pcl6search17OrganizedNeighborINS_15PointXYZINormalEEE@Base 1.6
 _ZTIN3pcl6search17OrganizedNeighborINS_17PointXYZRGBNormalEEE@Base 1.6
 _ZTIN3pcl6search17OrganizedNeighborINS_18PointWithViewpointEEE@Base 1.6
 _ZTIN3pcl6search17OrganizedNeighborINS_8PointXYZEEE@Base 1.6
 _ZTIN3pcl6search17OrganizedNeighborINS_9PointXYZIEEE@Base 1.6
 _ZTIN3pcl6search17OrganizedNeighborINS_9PointXYZLEEE@Base 1.6
 _ZTIN3pcl6search6KdTreeINS_11PointNormalEEE@Base 1.6
 _ZTIN3pcl6search6KdTreeINS_11PointXYZHSVEEE@Base 1.6
 _ZTIN3pcl6search6KdTreeINS_11PointXYZRGBEEE@Base 1.6
 _ZTIN3pcl6search6KdTreeINS_12PPFSignatureEEE@Base 1.6
 _ZTIN3pcl6search6KdTreeINS_12PointXYZRGBAEEE@Base 1.6
 _ZTIN3pcl6search6KdTreeINS_12PointXYZRGBLEEE@Base 1.6
 _ZTIN3pcl6search6KdTreeINS_13InterestPointEEE@Base 1.6
 _ZTIN3pcl6search6KdTreeINS_14PointWithRangeEEE@Base 1.6
 _ZTIN3pcl6search6KdTreeINS_14PointWithScaleEEE@Base 1.6
 _ZTIN3pcl6search6KdTreeINS_14ReferenceFrameEEE@Base 1.6
 _ZTIN3pcl6search6KdTreeINS_15ESFSignature640EEE@Base 1.6
 _ZTIN3pcl6search6KdTreeINS_15FPFHSignature33EEE@Base 1.6
 _ZTIN3pcl6search6KdTreeINS_15PFHSignature125EEE@Base 1.6
 _ZTIN3pcl6search6KdTreeINS_15PPFRGBSignatureEEE@Base 1.6
 _ZTIN3pcl6search6KdTreeINS_15PointXYZINormalEEE@Base 1.6
 _ZTIN3pcl6search6KdTreeINS_15VFHSignature308EEE@Base 1.6
 _ZTIN3pcl6search6KdTreeINS_16MomentInvariantsEEE@Base 1.6
 _ZTIN3pcl6search6KdTreeINS_17IntensityGradientEEE@Base 1.6
 _ZTIN3pcl6search6KdTreeINS_17PointXYZRGBNormalEEE@Base 1.6
 _ZTIN3pcl6search6KdTreeINS_17PrincipalRadiiRSDEEE@Base 1.6
 _ZTIN3pcl6search6KdTreeINS_18PFHRGBSignature250EEE@Base 1.6
 _ZTIN3pcl6search6KdTreeINS_18PointWithViewpointEEE@Base 1.6
 _ZTIN3pcl6search6KdTreeINS_19PrincipalCurvaturesEEE@Base 1.6
 _ZTIN3pcl6search6KdTreeINS_22NormalBasedSignature12EEE@Base 1.6
 _ZTIN3pcl6search6KdTreeINS_4AxisEEE@Base 1.6
 _ZTIN3pcl6search6KdTreeINS_5LabelEEE@Base 1.6
 _ZTIN3pcl6search6KdTreeINS_6Narf36EEE@Base 1.6
 _ZTIN3pcl6search6KdTreeINS_6NormalEEE@Base 1.6
 _ZTIN3pcl6search6KdTreeINS_7PointXYEEE@Base 1.6
 _ZTIN3pcl6search6KdTreeINS_8BoundaryEEE@Base 1.6
 _ZTIN3pcl6search6KdTreeINS_8PointXYZEEE@Base 1.6
 _ZTIN3pcl6search6KdTreeINS_9PointXYZIEEE@Base 1.6
 _ZTIN3pcl6search6KdTreeINS_9PointXYZLEEE@Base 1.6
 _ZTIN3pcl6search6OctreeINS_11PointNormalENS_6octree26OctreeContainerDataTVectorIiEENS3_20OctreeContainerEmptyIiEENS3_10OctreeBaseIiS5_S7_EEEE@Base 1.6
 _ZTIN3pcl6search6OctreeINS_11PointXYZHSVENS_6octree26OctreeContainerDataTVectorIiEENS3_20OctreeContainerEmptyIiEENS3_10OctreeBaseIiS5_S7_EEEE@Base 1.6
 _ZTIN3pcl6search6OctreeINS_11PointXYZRGBENS_6octree26OctreeContainerDataTVectorIiEENS3_20OctreeContainerEmptyIiEENS3_10OctreeBaseIiS5_S7_EEEE@Base 1.6
 _ZTIN3pcl6search6OctreeINS_12PointXYZRGBAENS_6octree26OctreeContainerDataTVectorIiEENS3_20OctreeContainerEmptyIiEENS3_10OctreeBaseIiS5_S7_EEEE@Base 1.6
 _ZTIN3pcl6search6OctreeINS_12PointXYZRGBLENS_6octree26OctreeContainerDataTVectorIiEENS3_20OctreeContainerEmptyIiEENS3_10OctreeBaseIiS5_S7_EEEE@Base 1.6
 _ZTIN3pcl6search6OctreeINS_13InterestPointENS_6octree26OctreeContainerDataTVectorIiEENS3_20OctreeContainerEmptyIiEENS3_10OctreeBaseIiS5_S7_EEEE@Base 1.6
 _ZTIN3pcl6search6OctreeINS_14PointWithRangeENS_6octree26OctreeContainerDataTVectorIiEENS3_20OctreeContainerEmptyIiEENS3_10OctreeBaseIiS5_S7_EEEE@Base 1.6
 _ZTIN3pcl6search6OctreeINS_14PointWithScaleENS_6octree26OctreeContainerDataTVectorIiEENS3_20OctreeContainerEmptyIiEENS3_10OctreeBaseIiS5_S7_EEEE@Base 1.6
 _ZTIN3pcl6search6OctreeINS_15PointXYZINormalENS_6octree26OctreeContainerDataTVectorIiEENS3_20OctreeContainerEmptyIiEENS3_10OctreeBaseIiS5_S7_EEEE@Base 1.6
 _ZTIN3pcl6search6OctreeINS_17PointXYZRGBNormalENS_6octree26OctreeContainerDataTVectorIiEENS3_20OctreeContainerEmptyIiEENS3_10OctreeBaseIiS5_S7_EEEE@Base 1.6
 _ZTIN3pcl6search6OctreeINS_18PointWithViewpointENS_6octree26OctreeContainerDataTVectorIiEENS3_20OctreeContainerEmptyIiEENS3_10OctreeBaseIiS5_S7_EEEE@Base 1.6
 _ZTIN3pcl6search6OctreeINS_8PointXYZENS_6octree26OctreeContainerDataTVectorIiEENS3_20OctreeContainerEmptyIiEENS3_10OctreeBaseIiS5_S7_EEEE@Base 1.6
 _ZTIN3pcl6search6OctreeINS_9PointXYZIENS_6octree26OctreeContainerDataTVectorIiEENS3_20OctreeContainerEmptyIiEENS3_10OctreeBaseIiS5_S7_EEEE@Base 1.6
 _ZTIN3pcl6search6OctreeINS_9PointXYZLENS_6octree26OctreeContainerDataTVectorIiEENS3_20OctreeContainerEmptyIiEENS3_10OctreeBaseIiS5_S7_EEEE@Base 1.6
 _ZTIN3pcl6search6SearchINS_11PointNormalEEE@Base 1.6
 _ZTIN3pcl6search6SearchINS_11PointXYZHSVEEE@Base 1.6
 _ZTIN3pcl6search6SearchINS_11PointXYZRGBEEE@Base 1.6
 _ZTIN3pcl6search6SearchINS_12PPFSignatureEEE@Base 1.6
 _ZTIN3pcl6search6SearchINS_12PointXYZRGBAEEE@Base 1.6
 _ZTIN3pcl6search6SearchINS_12PointXYZRGBLEEE@Base 1.6
 _ZTIN3pcl6search6SearchINS_13InterestPointEEE@Base 1.6
 _ZTIN3pcl6search6SearchINS_14PointWithRangeEEE@Base 1.6
 _ZTIN3pcl6search6SearchINS_14PointWithScaleEEE@Base 1.6
 _ZTIN3pcl6search6SearchINS_14ReferenceFrameEEE@Base 1.6
 _ZTIN3pcl6search6SearchINS_15ESFSignature640EEE@Base 1.6
 _ZTIN3pcl6search6SearchINS_15FPFHSignature33EEE@Base 1.6
 _ZTIN3pcl6search6SearchINS_15PFHSignature125EEE@Base 1.6
 _ZTIN3pcl6search6SearchINS_15PPFRGBSignatureEEE@Base 1.6
 _ZTIN3pcl6search6SearchINS_15PointXYZINormalEEE@Base 1.6
 _ZTIN3pcl6search6SearchINS_15VFHSignature308EEE@Base 1.6
 _ZTIN3pcl6search6SearchINS_16MomentInvariantsEEE@Base 1.6
 _ZTIN3pcl6search6SearchINS_17IntensityGradientEEE@Base 1.6
 _ZTIN3pcl6search6SearchINS_17PointXYZRGBNormalEEE@Base 1.6
 _ZTIN3pcl6search6SearchINS_17PrincipalRadiiRSDEEE@Base 1.6
 _ZTIN3pcl6search6SearchINS_18PFHRGBSignature250EEE@Base 1.6
 _ZTIN3pcl6search6SearchINS_18PointWithViewpointEEE@Base 1.6
 _ZTIN3pcl6search6SearchINS_19PrincipalCurvaturesEEE@Base 1.6
 _ZTIN3pcl6search6SearchINS_22NormalBasedSignature12EEE@Base 1.6
 _ZTIN3pcl6search6SearchINS_4AxisEEE@Base 1.6
 _ZTIN3pcl6search6SearchINS_5LabelEEE@Base 1.6
 _ZTIN3pcl6search6SearchINS_6Narf36EEE@Base 1.6
 _ZTIN3pcl6search6SearchINS_6NormalEEE@Base 1.6
 _ZTIN3pcl6search6SearchINS_7PointXYEEE@Base 1.6
 _ZTIN3pcl6search6SearchINS_8BoundaryEEE@Base 1.6
 _ZTIN3pcl6search6SearchINS_8PointXYZEEE@Base 1.6
 _ZTIN3pcl6search6SearchINS_9PointXYZIEEE@Base 1.6
 _ZTIN3pcl6search6SearchINS_9PointXYZLEEE@Base 1.6
 _ZTIN5boost6detail15sp_counted_baseE@Base 1.6
 _ZTIN5boost6detail17sp_counted_impl_pIN3pcl11KdTreeFLANNINS2_11PointNormalEN5flann9L2_SimpleIfEEEEEE@Base 1.6
 _ZTIN5boost6detail17sp_counted_impl_pIN3pcl11KdTreeFLANNINS2_11PointXYZHSVEN5flann9L2_SimpleIfEEEEEE@Base 1.6
 _ZTIN5boost6detail17sp_counted_impl_pIN3pcl11KdTreeFLANNINS2_11PointXYZRGBEN5flann9L2_SimpleIfEEEEEE@Base 1.6
 _ZTIN5boost6detail17sp_counted_impl_pIN3pcl11KdTreeFLANNINS2_12PPFSignatureEN5flann9L2_SimpleIfEEEEEE@Base 1.6
 _ZTIN5boost6detail17sp_counted_impl_pIN3pcl11KdTreeFLANNINS2_12PointXYZRGBAEN5flann9L2_SimpleIfEEEEEE@Base 1.6
 _ZTIN5boost6detail17sp_counted_impl_pIN3pcl11KdTreeFLANNINS2_12PointXYZRGBLEN5flann9L2_SimpleIfEEEEEE@Base 1.6
 _ZTIN5boost6detail17sp_counted_impl_pIN3pcl11KdTreeFLANNINS2_13InterestPointEN5flann9L2_SimpleIfEEEEEE@Base 1.6
 _ZTIN5boost6detail17sp_counted_impl_pIN3pcl11KdTreeFLANNINS2_14PointWithRangeEN5flann9L2_SimpleIfEEEEEE@Base 1.6
 _ZTIN5boost6detail17sp_counted_impl_pIN3pcl11KdTreeFLANNINS2_14PointWithScaleEN5flann9L2_SimpleIfEEEEEE@Base 1.6
 _ZTIN5boost6detail17sp_counted_impl_pIN3pcl11KdTreeFLANNINS2_14ReferenceFrameEN5flann9L2_SimpleIfEEEEEE@Base 1.6
 _ZTIN5boost6detail17sp_counted_impl_pIN3pcl11KdTreeFLANNINS2_15ESFSignature640EN5flann9L2_SimpleIfEEEEEE@Base 1.6
 _ZTIN5boost6detail17sp_counted_impl_pIN3pcl11KdTreeFLANNINS2_15FPFHSignature33EN5flann9L2_SimpleIfEEEEEE@Base 1.6
 _ZTIN5boost6detail17sp_counted_impl_pIN3pcl11KdTreeFLANNINS2_15PFHSignature125EN5flann9L2_SimpleIfEEEEEE@Base 1.6
 _ZTIN5boost6detail17sp_counted_impl_pIN3pcl11KdTreeFLANNINS2_15PPFRGBSignatureEN5flann9L2_SimpleIfEEEEEE@Base 1.6
 _ZTIN5boost6detail17sp_counted_impl_pIN3pcl11KdTreeFLANNINS2_15PointXYZINormalEN5flann9L2_SimpleIfEEEEEE@Base 1.6
 _ZTIN5boost6detail17sp_counted_impl_pIN3pcl11KdTreeFLANNINS2_15VFHSignature308EN5flann9L2_SimpleIfEEEEEE@Base 1.6
 _ZTIN5boost6detail17sp_counted_impl_pIN3pcl11KdTreeFLANNINS2_16MomentInvariantsEN5flann9L2_SimpleIfEEEEEE@Base 1.6
 _ZTIN5boost6detail17sp_counted_impl_pIN3pcl11KdTreeFLANNINS2_17IntensityGradientEN5flann9L2_SimpleIfEEEEEE@Base 1.6
 _ZTIN5boost6detail17sp_counted_impl_pIN3pcl11KdTreeFLANNINS2_17PointXYZRGBNormalEN5flann9L2_SimpleIfEEEEEE@Base 1.6
 _ZTIN5boost6detail17sp_counted_impl_pIN3pcl11KdTreeFLANNINS2_17PrincipalRadiiRSDEN5flann9L2_SimpleIfEEEEEE@Base 1.6
 _ZTIN5boost6detail17sp_counted_impl_pIN3pcl11KdTreeFLANNINS2_18PFHRGBSignature250EN5flann9L2_SimpleIfEEEEEE@Base 1.6
 _ZTIN5boost6detail17sp_counted_impl_pIN3pcl11KdTreeFLANNINS2_18PointWithViewpointEN5flann9L2_SimpleIfEEEEEE@Base 1.6
 _ZTIN5boost6detail17sp_counted_impl_pIN3pcl11KdTreeFLANNINS2_19PrincipalCurvaturesEN5flann9L2_SimpleIfEEEEEE@Base 1.6
 _ZTIN5boost6detail17sp_counted_impl_pIN3pcl11KdTreeFLANNINS2_22NormalBasedSignature12EN5flann9L2_SimpleIfEEEEEE@Base 1.6
 _ZTIN5boost6detail17sp_counted_impl_pIN3pcl11KdTreeFLANNINS2_4AxisEN5flann9L2_SimpleIfEEEEEE@Base 1.6
 _ZTIN5boost6detail17sp_counted_impl_pIN3pcl11KdTreeFLANNINS2_5LabelEN5flann9L2_SimpleIfEEEEEE@Base 1.6
 _ZTIN5boost6detail17sp_counted_impl_pIN3pcl11KdTreeFLANNINS2_6Narf36EN5flann9L2_SimpleIfEEEEEE@Base 1.6
 _ZTIN5boost6detail17sp_counted_impl_pIN3pcl11KdTreeFLANNINS2_6NormalEN5flann9L2_SimpleIfEEEEEE@Base 1.6
 _ZTIN5boost6detail17sp_counted_impl_pIN3pcl11KdTreeFLANNINS2_7PointXYEN5flann9L2_SimpleIfEEEEEE@Base 1.6
 _ZTIN5boost6detail17sp_counted_impl_pIN3pcl11KdTreeFLANNINS2_8BoundaryEN5flann9L2_SimpleIfEEEEEE@Base 1.6
 _ZTIN5boost6detail17sp_counted_impl_pIN3pcl11KdTreeFLANNINS2_8PointXYZEN5flann9L2_SimpleIfEEEEEE@Base 1.6
 _ZTIN5boost6detail17sp_counted_impl_pIN3pcl11KdTreeFLANNINS2_9PointXYZIEN5flann9L2_SimpleIfEEEEEE@Base 1.6
 _ZTIN5boost6detail17sp_counted_impl_pIN3pcl11KdTreeFLANNINS2_9PointXYZLEN5flann9L2_SimpleIfEEEEEE@Base 1.6
 _ZTIN5boost6detail17sp_counted_impl_pIN3pcl26DefaultPointRepresentationINS2_11PointNormalEEEEE@Base 1.6
 _ZTIN5boost6detail17sp_counted_impl_pIN3pcl26DefaultPointRepresentationINS2_11PointXYZHSVEEEEE@Base 1.6
