# SymbolsHelper-Confirmed: 1.6 amd64
libpcl_kdtree.so.1.6 libpcl-kdtree1.6 #MINVER#
 _ZGVZN5flann6Logger8instanceEvE6logger@Base 1.6
 _ZGVZN5flann7anyimpl10get_policyINS0_9empty_anyEEEPNS0_15base_any_policyEvE6policy@Base 1.6
 _ZGVZN5flann7anyimpl10get_policyINS_17flann_algorithm_tEEEPNS0_15base_any_policyEvE6policy@Base 1.6
 _ZGVZN5flann7anyimpl10get_policyINS_20flann_centers_init_tEEEPNS0_15base_any_policyEvE6policy@Base 1.6
 _ZGVZN5flann7anyimpl10get_policyIPPNS_11KDTreeIndexINS_9L2_SimpleIfEEE4NodeEEEPNS0_15base_any_policyEvE6policy@Base 1.6
 _ZGVZN5flann7anyimpl10get_policyIbEEPNS0_15base_any_policyEvE6policy@Base 1.6
 _ZGVZN5flann7anyimpl10get_policyIfEEPNS0_15base_any_policyEvE6policy@Base 1.6
 _ZGVZN5flann7anyimpl10get_policyIiEEPNS0_15base_any_policyEvE6policy@Base 1.6
 _ZGVZN5flann7anyimpl10get_policyIjEEPNS0_15base_any_policyEvE6policy@Base 1.6
 (optional=templinst)_ZN3pcl11KdTreeFLANNINS_11PointNormalEN5flann9L2_SimpleIfEEE10makeSharedEv@Base 1.6
 (optional=templinst)_ZN3pcl11KdTreeFLANNINS_11PointNormalEN5flann9L2_SimpleIfEEE10setEpsilonEf@Base 1.6
 (optional=templinst)_ZN3pcl11KdTreeFLANNINS_11PointNormalEN5flann9L2_SimpleIfEEE13setInputCloudERKN5boost10shared_ptrIKNS_10PointCloudIS1_EEEERKNS7_IKSt6vectorIiSaIiEEEE@Base 1.6
 (optional=templinst)_ZN3pcl11KdTreeFLANNINS_11PointNormalEN5flann9L2_SimpleIfEEE16setSortedResultsEb@Base 1.6
 (optional=templinst)_ZN3pcl11KdTreeFLANNINS_11PointNormalEN5flann9L2_SimpleIfEEE19convertCloudToArrayERKNS_10PointCloudIS1_EE@Base 1.6
 (optional=templinst)_ZN3pcl11KdTreeFLANNINS_11PointNormalEN5flann9L2_SimpleIfEEE19convertCloudToArrayERKNS_10PointCloudIS1_EERKSt6vectorIiSaIiEE@Base 1.6
 (optional=templinst)_ZN3pcl11KdTreeFLANNINS_11PointNormalEN5flann9L2_SimpleIfEEE7cleanupEv@Base 1.6
 (optional=templinst)_ZN3pcl11KdTreeFLANNINS_11PointNormalEN5flann9L2_SimpleIfEEEC1ERKS5_@Base 1.6
 (optional=templinst)_ZN3pcl11KdTreeFLANNINS_11PointNormalEN5flann9L2_SimpleIfEEEC1Eb@Base 1.6
 (optional=templinst)_ZN3pcl11KdTreeFLANNINS_11PointNormalEN5flann9L2_SimpleIfEEEC2ERKS5_@Base 1.6
 (optional=templinst)_ZN3pcl11KdTreeFLANNINS_11PointNormalEN5flann9L2_SimpleIfEEEC2Eb@Base 1.6
 (optional=templinst)_ZN3pcl11KdTreeFLANNINS_11PointNormalEN5flann9L2_SimpleIfEEED0Ev@Base 1.6
 (optional=templinst)_ZN3pcl11KdTreeFLANNINS_11PointNormalEN5flann9L2_SimpleIfEEED1Ev@Base 1.6
 (optional=templinst)_ZN3pcl11KdTreeFLANNINS_11PointNormalEN5flann9L2_SimpleIfEEED2Ev@Base 1.6
 (optional=templinst)_ZN3pcl11KdTreeFLANNINS_11PointNormalEN5flann9L2_SimpleIfEEEaSERKS5_@Base 1.6
 (optional=templinst)_ZN3pcl11KdTreeFLANNINS_11PointXYZHSVEN5flann9L2_SimpleIfEEE10makeSharedEv@Base 1.6
 (optional=templinst)_ZN3pcl11KdTreeFLANNINS_11PointXYZHSVEN5flann9L2_SimpleIfEEE10setEpsilonEf@Base 1.6
 (optional=templinst)_ZN3pcl11KdTreeFLANNINS_11PointXYZHSVEN5flann9L2_SimpleIfEEE13setInputCloudERKN5boost10shared_ptrIKNS_10PointCloudIS1_EEEERKNS7_IKSt6vectorIiSaIiEEEE@Base 1.6
 (optional=templinst)_ZN3pcl11KdTreeFLANNINS_11PointXYZHSVEN5flann9L2_SimpleIfEEE16setSortedResultsEb@Base 1.6
 (optional=templinst)_ZN3pcl11KdTreeFLANNINS_11PointXYZHSVEN5flann9L2_SimpleIfEEE19convertCloudToArrayERKNS_10PointCloudIS1_EE@Base 1.6
 (optional=templinst)_ZN3pcl11KdTreeFLANNINS_11PointXYZHSVEN5flann9L2_SimpleIfEEE19convertCloudToArrayERKNS_10PointCloudIS1_EERKSt6vectorIiSaIiEE@Base 1.6
 (optional=templinst)_ZN3pcl11KdTreeFLANNINS_11PointXYZHSVEN5flann9L2_SimpleIfEEE7cleanupEv@Base 1.6
 (optional=templinst)_ZN3pcl11KdTreeFLANNINS_11PointXYZHSVEN5flann9L2_SimpleIfEEEC1ERKS5_@Base 1.6
 (optional=templinst)_ZN3pcl11KdTreeFLANNINS_11PointXYZHSVEN5flann9L2_SimpleIfEEEC1Eb@Base 1.6
 (optional=templinst)_ZN3pcl11KdTreeFLANNINS_11PointXYZHSVEN5flann9L2_SimpleIfEEEC2ERKS5_@Base 1.6
 (optional=templinst)_ZN3pcl11KdTreeFLANNINS_11PointXYZHSVEN5flann9L2_SimpleIfEEEC2Eb@Base 1.6
 (optional=templinst)_ZN3pcl11KdTreeFLANNINS_11PointXYZHSVEN5flann9L2_SimpleIfEEED0Ev@Base 1.6
 (optional=templinst)_ZN3pcl11KdTreeFLANNINS_11PointXYZHSVEN5flann9L2_SimpleIfEEED1Ev@Base 1.6
 (optional=templinst)_ZN3pcl11KdTreeFLANNINS_11PointXYZHSVEN5flann9L2_SimpleIfEEED2Ev@Base 1.6
 (optional=templinst)_ZN3pcl11KdTreeFLANNINS_11PointXYZHSVEN5flann9L2_SimpleIfEEEaSERKS5_@Base 1.6
 (optional=templinst)_ZN3pcl11KdTreeFLANNINS_11PointXYZRGBEN5flann9L2_SimpleIfEEE10makeSharedEv@Base 1.6
 (optional=templinst)_ZN3pcl11KdTreeFLANNINS_11PointXYZRGBEN5flann9L2_SimpleIfEEE10setEpsilonEf@Base 1.6
 (optional=templinst)_ZN3pcl11KdTreeFLANNINS_11PointXYZRGBEN5flann9L2_SimpleIfEEE13setInputCloudERKN5boost10shared_ptrIKNS_10PointCloudIS1_EEEERKNS7_IKSt6vectorIiSaIiEEEE@Base 1.6
 (optional=templinst)_ZN3pcl11KdTreeFLANNINS_11PointXYZRGBEN5flann9L2_SimpleIfEEE16setSortedResultsEb@Base 1.6
 (optional=templinst)_ZN3pcl11KdTreeFLANNINS_11PointXYZRGBEN5flann9L2_SimpleIfEEE19convertCloudToArrayERKNS_10PointCloudIS1_EE@Base 1.6
 (optional=templinst)_ZN3pcl11KdTreeFLANNINS_11PointXYZRGBEN5flann9L2_SimpleIfEEE19convertCloudToArrayERKNS_10PointCloudIS1_EERKSt6vectorIiSaIiEE@Base 1.6
 (optional=templinst)_ZN3pcl11KdTreeFLANNINS_11PointXYZRGBEN5flann9L2_SimpleIfEEE7cleanupEv@Base 1.6
 (optional=templinst)_ZN3pcl11KdTreeFLANNINS_11PointXYZRGBEN5flann9L2_SimpleIfEEEC1ERKS5_@Base 1.6
 (optional=templinst)_ZN3pcl11KdTreeFLANNINS_11PointXYZRGBEN5flann9L2_SimpleIfEEEC1Eb@Base 1.6
 (optional=templinst)_ZN3pcl11KdTreeFLANNINS_11PointXYZRGBEN5flann9L2_SimpleIfEEEC2ERKS5_@Base 1.6
 (optional=templinst)_ZN3pcl11KdTreeFLANNINS_11PointXYZRGBEN5flann9L2_SimpleIfEEEC2Eb@Base 1.6
 (optional=templinst)_ZN3pcl11KdTreeFLANNINS_11PointXYZRGBEN5flann9L2_SimpleIfEEED0Ev@Base 1.6
 (optional=templinst)_ZN3pcl11KdTreeFLANNINS_11PointXYZRGBEN5flann9L2_SimpleIfEEED1Ev@Base 1.6
 (optional=templinst)_ZN3pcl11KdTreeFLANNINS_11PointXYZRGBEN5flann9L2_SimpleIfEEED2Ev@Base 1.6
 (optional=templinst)_ZN3pcl11KdTreeFLANNINS_11PointXYZRGBEN5flann9L2_SimpleIfEEEaSERKS5_@Base 1.6
 (optional=templinst)_ZN3pcl11KdTreeFLANNINS_12PPFSignatureEN5flann9L2_SimpleIfEEE10makeSharedEv@Base 1.6
 (optional=templinst)_ZN3pcl11KdTreeFLANNINS_12PPFSignatureEN5flann9L2_SimpleIfEEE10setEpsilonEf@Base 1.6
 (optional=templinst)_ZN3pcl11KdTreeFLANNINS_12PPFSignatureEN5flann9L2_SimpleIfEEE13setInputCloudERKN5boost10shared_ptrIKNS_10PointCloudIS1_EEEERKNS7_IKSt6vectorIiSaIiEEEE@Base 1.6
 (optional=templinst)_ZN3pcl11KdTreeFLANNINS_12PPFSignatureEN5flann9L2_SimpleIfEEE16setSortedResultsEb@Base 1.6
 (optional=templinst)_ZN3pcl11KdTreeFLANNINS_12PPFSignatureEN5flann9L2_SimpleIfEEE19convertCloudToArrayERKNS_10PointCloudIS1_EE@Base 1.6
 (optional=templinst)_ZN3pcl11KdTreeFLANNINS_12PPFSignatureEN5flann9L2_SimpleIfEEE19convertCloudToArrayERKNS_10PointCloudIS1_EERKSt6vectorIiSaIiEE@Base 1.6
 (optional=templinst)_ZN3pcl11KdTreeFLANNINS_12PPFSignatureEN5flann9L2_SimpleIfEEE7cleanupEv@Base 1.6
 (optional=templinst)_ZN3pcl11KdTreeFLANNINS_12PPFSignatureEN5flann9L2_SimpleIfEEEC1ERKS5_@Base 1.6
 (optional=templinst)_ZN3pcl11KdTreeFLANNINS_12PPFSignatureEN5flann9L2_SimpleIfEEEC1Eb@Base 1.6
 (optional=templinst)_ZN3pcl11KdTreeFLANNINS_12PPFSignatureEN5flann9L2_SimpleIfEEEC2ERKS5_@Base 1.6
 (optional=templinst)_ZN3pcl11KdTreeFLANNINS_12PPFSignatureEN5flann9L2_SimpleIfEEEC2Eb@Base 1.6
 (optional=templinst)_ZN3pcl11KdTreeFLANNINS_12PPFSignatureEN5flann9L2_SimpleIfEEED0Ev@Base 1.6
 (optional=templinst)_ZN3pcl11KdTreeFLANNINS_12PPFSignatureEN5flann9L2_SimpleIfEEED1Ev@Base 1.6
 (optional=templinst)_ZN3pcl11KdTreeFLANNINS_12PPFSignatureEN5flann9L2_SimpleIfEEED2Ev@Base 1.6
 (optional=templinst)_ZN3pcl11KdTreeFLANNINS_12PPFSignatureEN5flann9L2_SimpleIfEEEaSERKS5_@Base 1.6
 (optional=templinst)_ZN3pcl11KdTreeFLANNINS_12PointXYZRGBAEN5flann9L2_SimpleIfEEE10makeSharedEv@Base 1.6
 (optional=templinst)_ZN3pcl11KdTreeFLANNINS_12PointXYZRGBAEN5flann9L2_SimpleIfEEE10setEpsilonEf@Base 1.6
 (optional=templinst)_ZN3pcl11KdTreeFLANNINS_12PointXYZRGBAEN5flann9L2_SimpleIfEEE13setInputCloudERKN5boost10shared_ptrIKNS_10PointCloudIS1_EEEERKNS7_IKSt6vectorIiSaIiEEEE@Base 1.6
 (optional=templinst)_ZN3pcl11KdTreeFLANNINS_12PointXYZRGBAEN5flann9L2_SimpleIfEEE16setSortedResultsEb@Base 1.6
 (optional=templinst)_ZN3pcl11KdTreeFLANNINS_12PointXYZRGBAEN5flann9L2_SimpleIfEEE19convertCloudToArrayERKNS_10PointCloudIS1_EE@Base 1.6
 (optional=templinst)_ZN3pcl11KdTreeFLANNINS_12PointXYZRGBAEN5flann9L2_SimpleIfEEE19convertCloudToArrayERKNS_10PointCloudIS1_EERKSt6vectorIiSaIiEE@Base 1.6
 (optional=templinst)_ZN3pcl11KdTreeFLANNINS_12PointXYZRGBAEN5flann9L2_SimpleIfEEE7cleanupEv@Base 1.6
 (optional=templinst)_ZN3pcl11KdTreeFLANNINS_12PointXYZRGBAEN5flann9L2_SimpleIfEEEC1ERKS5_@Base 1.6
 (optional=templinst)_ZN3pcl11KdTreeFLANNINS_12PointXYZRGBAEN5flann9L2_SimpleIfEEEC1Eb@Base 1.6
 (optional=templinst)_ZN3pcl11KdTreeFLANNINS_12PointXYZRGBAEN5flann9L2_SimpleIfEEEC2ERKS5_@Base 1.6
 (optional=templinst)_ZN3pcl11KdTreeFLANNINS_12PointXYZRGBAEN5flann9L2_SimpleIfEEEC2Eb@Base 1.6
 (optional=templinst)_ZN3pcl11KdTreeFLANNINS_12PointXYZRGBAEN5flann9L2_SimpleIfEEED0Ev@Base 1.6
 (optional=templinst)_ZN3pcl11KdTreeFLANNINS_12PointXYZRGBAEN5flann9L2_SimpleIfEEED1Ev@Base 1.6
 (optional=templinst)_ZN3pcl11KdTreeFLANNINS_12PointXYZRGBAEN5flann9L2_SimpleIfEEED2Ev@Base 1.6
 (optional=templinst)_ZN3pcl11KdTreeFLANNINS_12PointXYZRGBAEN5flann9L2_SimpleIfEEEaSERKS5_@Base 1.6
 (optional=templinst)_ZN3pcl11KdTreeFLANNINS_12PointXYZRGBLEN5flann9L2_SimpleIfEEE10makeSharedEv@Base 1.6
 (optional=templinst)_ZN3pcl11KdTreeFLANNINS_12PointXYZRGBLEN5flann9L2_SimpleIfEEE10setEpsilonEf@Base 1.6
 (optional=templinst)_ZN3pcl11KdTreeFLANNINS_12PointXYZRGBLEN5flann9L2_SimpleIfEEE13setInputCloudERKN5boost10shared_ptrIKNS_10PointCloudIS1_EEEERKNS7_IKSt6vectorIiSaIiEEEE@Base 1.6
 (optional=templinst)_ZN3pcl11KdTreeFLANNINS_12PointXYZRGBLEN5flann9L2_SimpleIfEEE16setSortedResultsEb@Base 1.6
 (optional=templinst)_ZN3pcl11KdTreeFLANNINS_12PointXYZRGBLEN5flann9L2_SimpleIfEEE19convertCloudToArrayERKNS_10PointCloudIS1_EE@Base 1.6
 (optional=templinst)_ZN3pcl11KdTreeFLANNINS_12PointXYZRGBLEN5flann9L2_SimpleIfEEE19convertCloudToArrayERKNS_10PointCloudIS1_EERKSt6vectorIiSaIiEE@Base 1.6
 (optional=templinst)_ZN3pcl11KdTreeFLANNINS_12PointXYZRGBLEN5flann9L2_SimpleIfEEE7cleanupEv@Base 1.6
 (optional=templinst)_ZN3pcl11KdTreeFLANNINS_12PointXYZRGBLEN5flann9L2_SimpleIfEEEC1ERKS5_@Base 1.6
 (optional=templinst)_ZN3pcl11KdTreeFLANNINS_12PointXYZRGBLEN5flann9L2_SimpleIfEEEC1Eb@Base 1.6
 (optional=templinst)_ZN3pcl11KdTreeFLANNINS_12PointXYZRGBLEN5flann9L2_SimpleIfEEEC2ERKS5_@Base 1.6
 (optional=templinst)_ZN3pcl11KdTreeFLANNINS_12PointXYZRGBLEN5flann9L2_SimpleIfEEEC2Eb@Base 1.6
 (optional=templinst)_ZN3pcl11KdTreeFLANNINS_12PointXYZRGBLEN5flann9L2_SimpleIfEEED0Ev@Base 1.6
 (optional=templinst)_ZN3pcl11KdTreeFLANNINS_12PointXYZRGBLEN5flann9L2_SimpleIfEEED1Ev@Base 1.6
 (optional=templinst)_ZN3pcl11KdTreeFLANNINS_12PointXYZRGBLEN5flann9L2_SimpleIfEEED2Ev@Base 1.6
 (optional=templinst)_ZN3pcl11KdTreeFLANNINS_12PointXYZRGBLEN5flann9L2_SimpleIfEEEaSERKS5_@Base 1.6
 (optional=templinst)_ZN3pcl11KdTreeFLANNINS_13InterestPointEN5flann9L2_SimpleIfEEE10makeSharedEv@Base 1.6
 (optional=templinst)_ZN3pcl11KdTreeFLANNINS_13InterestPointEN5flann9L2_SimpleIfEEE10setEpsilonEf@Base 1.6
 (optional=templinst)_ZN3pcl11KdTreeFLANNINS_13InterestPointEN5flann9L2_SimpleIfEEE13setInputCloudERKN5boost10shared_ptrIKNS_10PointCloudIS1_EEEERKNS7_IKSt6vectorIiSaIiEEEE@Base 1.6
 (optional=templinst)_ZN3pcl11KdTreeFLANNINS_13InterestPointEN5flann9L2_SimpleIfEEE16setSortedResultsEb@Base 1.6
 (optional=templinst)_ZN3pcl11KdTreeFLANNINS_13InterestPointEN5flann9L2_SimpleIfEEE19convertCloudToArrayERKNS_10PointCloudIS1_EE@Base 1.6
 (optional=templinst)_ZN3pcl11KdTreeFLANNINS_13InterestPointEN5flann9L2_SimpleIfEEE19convertCloudToArrayERKNS_10PointCloudIS1_EERKSt6vectorIiSaIiEE@Base 1.6
 (optional=templinst)_ZN3pcl11KdTreeFLANNINS_13InterestPointEN5flann9L2_SimpleIfEEE7cleanupEv@Base 1.6
 (optional=templinst)_ZN3pcl11KdTreeFLANNINS_13InterestPointEN5flann9L2_SimpleIfEEEC1ERKS5_@Base 1.6
 (optional=templinst)_ZN3pcl11KdTreeFLANNINS_13InterestPointEN5flann9L2_SimpleIfEEEC1Eb@Base 1.6
 (optional=templinst)_ZN3pcl11KdTreeFLANNINS_13InterestPointEN5flann9L2_SimpleIfEEEC2ERKS5_@Base 1.6
 (optional=templinst)_ZN3pcl11KdTreeFLANNINS_13InterestPointEN5flann9L2_SimpleIfEEEC2Eb@Base 1.6
 (optional=templinst)_ZN3pcl11KdTreeFLANNINS_13InterestPointEN5flann9L2_SimpleIfEEED0Ev@Base 1.6
 (optional=templinst)_ZN3pcl11KdTreeFLANNINS_13InterestPointEN5flann9L2_SimpleIfEEED1Ev@Base 1.6
 (optional=templinst)_ZN3pcl11KdTreeFLANNINS_13InterestPointEN5flann9L2_SimpleIfEEED2Ev@Base 1.6
 (optional=templinst)_ZN3pcl11KdTreeFLANNINS_13InterestPointEN5flann9L2_SimpleIfEEEaSERKS5_@Base 1.6
 (optional=templinst)_ZN3pcl11KdTreeFLANNINS_14PointWithRangeEN5flann9L2_SimpleIfEEE10makeSharedEv@Base 1.6
 (optional=templinst)_ZN3pcl11KdTreeFLANNINS_14PointWithRangeEN5flann9L2_SimpleIfEEE10setEpsilonEf@Base 1.6
 (optional=templinst)_ZN3pcl11KdTreeFLANNINS_14PointWithRangeEN5flann9L2_SimpleIfEEE13setInputCloudERKN5boost10shared_ptrIKNS_10PointCloudIS1_EEEERKNS7_IKSt6vectorIiSaIiEEEE@Base 1.6
 (optional=templinst)_ZN3pcl11KdTreeFLANNINS_14PointWithRangeEN5flann9L2_SimpleIfEEE16setSortedResultsEb@Base 1.6
 (optional=templinst)_ZN3pcl11KdTreeFLANNINS_14PointWithRangeEN5flann9L2_SimpleIfEEE19convertCloudToArrayERKNS_10PointCloudIS1_EE@Base 1.6
 (optional=templinst)_ZN3pcl11KdTreeFLANNINS_14PointWithRangeEN5flann9L2_SimpleIfEEE19convertCloudToArrayERKNS_10PointCloudIS1_EERKSt6vectorIiSaIiEE@Base 1.6
 (optional=templinst)_ZN3pcl11KdTreeFLANNINS_14PointWithRangeEN5flann9L2_SimpleIfEEE7cleanupEv@Base 1.6
 (optional=templinst)_ZN3pcl11KdTreeFLANNINS_14PointWithRangeEN5flann9L2_SimpleIfEEEC1ERKS5_@Base 1.6
 (optional=templinst)_ZN3pcl11KdTreeFLANNINS_14PointWithRangeEN5flann9L2_SimpleIfEEEC1Eb@Base 1.6
 (optional=templinst)_ZN3pcl11KdTreeFLANNINS_14PointWithRangeEN5flann9L2_SimpleIfEEEC2ERKS5_@Base 1.6
 (optional=templinst)_ZN3pcl11KdTreeFLANNINS_14PointWithRangeEN5flann9L2_SimpleIfEEEC2Eb@Base 1.6
 (optional=templinst)_ZN3pcl11KdTreeFLANNINS_14PointWithRangeEN5flann9L2_SimpleIfEEED0Ev@Base 1.6
 (optional=templinst)_ZN3pcl11KdTreeFLANNINS_14PointWithRangeEN5flann9L2_SimpleIfEEED1Ev@Base 1.6
 (optional=templinst)_ZN3pcl11KdTreeFLANNINS_14PointWithRangeEN5flann9L2_SimpleIfEEED2Ev@Base 1.6
 (optional=templinst)_ZN3pcl11KdTreeFLANNINS_14PointWithRangeEN5flann9L2_SimpleIfEEEaSERKS5_@Base 1.6
 (optional=templinst)_ZN3pcl11KdTreeFLANNINS_14PointWithScaleEN5flann9L2_SimpleIfEEE10makeSharedEv@Base 1.6
 (optional=templinst)_ZN3pcl11KdTreeFLANNINS_14PointWithScaleEN5flann9L2_SimpleIfEEE10setEpsilonEf@Base 1.6
 (optional=templinst)_ZN3pcl11KdTreeFLANNINS_14PointWithScaleEN5flann9L2_SimpleIfEEE13setInputCloudERKN5boost10shared_ptrIKNS_10PointCloudIS1_EEEERKNS7_IKSt6vectorIiSaIiEEEE@Base 1.6
 (optional=templinst)_ZN3pcl11KdTreeFLANNINS_14PointWithScaleEN5flann9L2_SimpleIfEEE16setSortedResultsEb@Base 1.6
 (optional=templinst)_ZN3pcl11KdTreeFLANNINS_14PointWithScaleEN5flann9L2_SimpleIfEEE19convertCloudToArrayERKNS_10PointCloudIS1_EE@Base 1.6
 (optional=templinst)_ZN3pcl11KdTreeFLANNINS_14PointWithScaleEN5flann9L2_SimpleIfEEE19convertCloudToArrayERKNS_10PointCloudIS1_EERKSt6vectorIiSaIiEE@Base 1.6
 (optional=templinst)_ZN3pcl11KdTreeFLANNINS_14PointWithScaleEN5flann9L2_SimpleIfEEE7cleanupEv@Base 1.6
 (optional=templinst)_ZN3pcl11KdTreeFLANNINS_14PointWithScaleEN5flann9L2_SimpleIfEEEC1ERKS5_@Base 1.6
 (optional=templinst)_ZN3pcl11KdTreeFLANNINS_14PointWithScaleEN5flann9L2_SimpleIfEEEC1Eb@Base 1.6
 (optional=templinst)_ZN3pcl11KdTreeFLANNINS_14PointWithScaleEN5flann9L2_SimpleIfEEEC2ERKS5_@Base 1.6
 (optional=templinst)_ZN3pcl11KdTreeFLANNINS_14PointWithScaleEN5flann9L2_SimpleIfEEEC2Eb@Base 1.6
 (optional=templinst)_ZN3pcl11KdTreeFLANNINS_14PointWithScaleEN5flann9L2_SimpleIfEEED0Ev@Base 1.6
 (optional=templinst)_ZN3pcl11KdTreeFLANNINS_14PointWithScaleEN5flann9L2_SimpleIfEEED1Ev@Base 1.6
 (optional=templinst)_ZN3pcl11KdTreeFLANNINS_14PointWithScaleEN5flann9L2_SimpleIfEEED2Ev@Base 1.6
 (optional=templinst)_ZN3pcl11KdTreeFLANNINS_14PointWithScaleEN5flann9L2_SimpleIfEEEaSERKS5_@Base 1.6
 (optional=templinst)_ZN3pcl11KdTreeFLANNINS_14ReferenceFrameEN5flann9L2_SimpleIfEEE10makeSharedEv@Base 1.6
 (optional=templinst)_ZN3pcl11KdTreeFLANNINS_14ReferenceFrameEN5flann9L2_SimpleIfEEE10setEpsilonEf@Base 1.6
 (optional=templinst)_ZN3pcl11KdTreeFLANNINS_14ReferenceFrameEN5flann9L2_SimpleIfEEE13setInputCloudERKN5boost10shared_ptrIKNS_10PointCloudIS1_EEEERKNS7_IKSt6vectorIiSaIiEEEE@Base 1.6
 (optional=templinst)_ZN3pcl11KdTreeFLANNINS_14ReferenceFrameEN5flann9L2_SimpleIfEEE16setSortedResultsEb@Base 1.6
 (optional=templinst)_ZN3pcl11KdTreeFLANNINS_14ReferenceFrameEN5flann9L2_SimpleIfEEE19convertCloudToArrayERKNS_10PointCloudIS1_EE@Base 1.6
 (optional=templinst)_ZN3pcl11KdTreeFLANNINS_14ReferenceFrameEN5flann9L2_SimpleIfEEE19convertCloudToArrayERKNS_10PointCloudIS1_EERKSt6vectorIiSaIiEE@Base 1.6
 (optional=templinst)_ZN3pcl11KdTreeFLANNINS_14ReferenceFrameEN5flann9L2_SimpleIfEEE7cleanupEv@Base 1.6
 (optional=templinst)_ZN3pcl11KdTreeFLANNINS_14ReferenceFrameEN5flann9L2_SimpleIfEEEC1ERKS5_@Base 1.6
 (optional=templinst)_ZN3pcl11KdTreeFLANNINS_14ReferenceFrameEN5flann9L2_SimpleIfEEEC1Eb@Base 1.6
 (optional=templinst)_ZN3pcl11KdTreeFLANNINS_14ReferenceFrameEN5flann9L2_SimpleIfEEEC2ERKS5_@Base 1.6
 (optional=templinst)_ZN3pcl11KdTreeFLANNINS_14ReferenceFrameEN5flann9L2_SimpleIfEEEC2Eb@Base 1.6
 (optional=templinst)_ZN3pcl11KdTreeFLANNINS_14ReferenceFrameEN5flann9L2_SimpleIfEEED0Ev@Base 1.6
 (optional=templinst)_ZN3pcl11KdTreeFLANNINS_14ReferenceFrameEN5flann9L2_SimpleIfEEED1Ev@Base 1.6
 (optional=templinst)_ZN3pcl11KdTreeFLANNINS_14ReferenceFrameEN5flann9L2_SimpleIfEEED2Ev@Base 1.6
 (optional=templinst)_ZN3pcl11KdTreeFLANNINS_14ReferenceFrameEN5flann9L2_SimpleIfEEEaSERKS5_@Base 1.6
 (optional=templinst)_ZN3pcl11KdTreeFLANNINS_15ESFSignature640EN5flann9L2_SimpleIfEEE10makeSharedEv@Base 1.6
 (optional=templinst)_ZN3pcl11KdTreeFLANNINS_15ESFSignature640EN5flann9L2_SimpleIfEEE10setEpsilonEf@Base 1.6
 (optional=templinst)_ZN3pcl11KdTreeFLANNINS_15ESFSignature640EN5flann9L2_SimpleIfEEE13setInputCloudERKN5boost10shared_ptrIKNS_10PointCloudIS1_EEEERKNS7_IKSt6vectorIiSaIiEEEE@Base 1.6
 (optional=templinst)_ZN3pcl11KdTreeFLANNINS_15ESFSignature640EN5flann9L2_SimpleIfEEE16setSortedResultsEb@Base 1.6
 (optional=templinst)_ZN3pcl11KdTreeFLANNINS_15ESFSignature640EN5flann9L2_SimpleIfEEE19convertCloudToArrayERKNS_10PointCloudIS1_EE@Base 1.6
 (optional=templinst)_ZN3pcl11KdTreeFLANNINS_15ESFSignature640EN5flann9L2_SimpleIfEEE19convertCloudToArrayERKNS_10PointCloudIS1_EERKSt6vectorIiSaIiEE@Base 1.6
 (optional=templinst)_ZN3pcl11KdTreeFLANNINS_15ESFSignature640EN5flann9L2_SimpleIfEEE7cleanupEv@Base 1.6
 (optional=templinst)_ZN3pcl11KdTreeFLANNINS_15ESFSignature640EN5flann9L2_SimpleIfEEEC1ERKS5_@Base 1.6
 (optional=templinst)_ZN3pcl11KdTreeFLANNINS_15ESFSignature640EN5flann9L2_SimpleIfEEEC1Eb@Base 1.6
 (optional=templinst)_ZN3pcl11KdTreeFLANNINS_15ESFSignature640EN5flann9L2_SimpleIfEEEC2ERKS5_@Base 1.6
 (optional=templinst)_ZN3pcl11KdTreeFLANNINS_15ESFSignature640EN5flann9L2_SimpleIfEEEC2Eb@Base 1.6
 (optional=templinst)_ZN3pcl11KdTreeFLANNINS_15ESFSignature640EN5flann9L2_SimpleIfEEED0Ev@Base 1.6
 (optional=templinst)_ZN3pcl11KdTreeFLANNINS_15ESFSignature640EN5flann9L2_SimpleIfEEED1Ev@Base 1.6
 (optional=templinst)_ZN3pcl11KdTreeFLANNINS_15ESFSignature640EN5flann9L2_SimpleIfEEED2Ev@Base 1.6
 (optional=templinst)_ZN3pcl11KdTreeFLANNINS_15ESFSignature640EN5flann9L2_SimpleIfEEEaSERKS5_@Base 1.6
 (optional=templinst)_ZN3pcl11KdTreeFLANNINS_15FPFHSignature33EN5flann9L2_SimpleIfEEE10makeSharedEv@Base 1.6
 (optional=templinst)_ZN3pcl11KdTreeFLANNINS_15FPFHSignature33EN5flann9L2_SimpleIfEEE10setEpsilonEf@Base 1.6
 (optional=templinst)_ZN3pcl11KdTreeFLANNINS_15FPFHSignature33EN5flann9L2_SimpleIfEEE13setInputCloudERKN5boost10shared_ptrIKNS_10PointCloudIS1_EEEERKNS7_IKSt6vectorIiSaIiEEEE@Base 1.6
 (optional=templinst)_ZN3pcl11KdTreeFLANNINS_15FPFHSignature33EN5flann9L2_SimpleIfEEE16setSortedResultsEb@Base 1.6
 (optional=templinst)_ZN3pcl11KdTreeFLANNINS_15FPFHSignature33EN5flann9L2_SimpleIfEEE19convertCloudToArrayERKNS_10PointCloudIS1_EE@Base 1.6
 (optional=templinst)_ZN3pcl11KdTreeFLANNINS_15FPFHSignature33EN5flann9L2_SimpleIfEEE19convertCloudToArrayERKNS_10PointCloudIS1_EERKSt6vectorIiSaIiEE@Base 1.6
 (optional=templinst)_ZN3pcl11KdTreeFLANNINS_15FPFHSignature33EN5flann9L2_SimpleIfEEE7cleanupEv@Base 1.6
 (optional=templinst)_ZN3pcl11KdTreeFLANNINS_15FPFHSignature33EN5flann9L2_SimpleIfEEEC1ERKS5_@Base 1.6
 (optional=templinst)_ZN3pcl11KdTreeFLANNINS_15FPFHSignature33EN5flann9L2_SimpleIfEEEC1Eb@Base 1.6
 (optional=templinst)_ZN3pcl11KdTreeFLANNINS_15FPFHSignature33EN5flann9L2_SimpleIfEEEC2ERKS5_@Base 1.6
 (optional=templinst)_ZN3pcl11KdTreeFLANNINS_15FPFHSignature33EN5flann9L2_SimpleIfEEEC2Eb@Base 1.6
 (optional=templinst)_ZN3pcl11KdTreeFLANNINS_15FPFHSignature33EN5flann9L2_SimpleIfEEED0Ev@Base 1.6
 (optional=templinst)_ZN3pcl11KdTreeFLANNINS_15FPFHSignature33EN5flann9L2_SimpleIfEEED1Ev@Base 1.6
 (optional=templinst)_ZN3pcl11KdTreeFLANNINS_15FPFHSignature33EN5flann9L2_SimpleIfEEED2Ev@Base 1.6
 (optional=templinst)_ZN3pcl11KdTreeFLANNINS_15FPFHSignature33EN5flann9L2_SimpleIfEEEaSERKS5_@Base 1.6
 (optional=templinst)_ZN3pcl11KdTreeFLANNINS_15PFHSignature125EN5flann9L2_SimpleIfEEE10makeSharedEv@Base 1.6
 (optional=templinst)_ZN3pcl11KdTreeFLANNINS_15PFHSignature125EN5flann9L2_SimpleIfEEE10setEpsilonEf@Base 1.6
 (optional=templinst)_ZN3pcl11KdTreeFLANNINS_15PFHSignature125EN5flann9L2_SimpleIfEEE13setInputCloudERKN5boost10shared_ptrIKNS_10PointCloudIS1_EEEERKNS7_IKSt6vectorIiSaIiEEEE@Base 1.6
 (optional=templinst)_ZN3pcl11KdTreeFLANNINS_15PFHSignature125EN5flann9L2_SimpleIfEEE16setSortedResultsEb@Base 1.6
 (optional=templinst)_ZN3pcl11KdTreeFLANNINS_15PFHSignature125EN5flann9L2_SimpleIfEEE19convertCloudToArrayERKNS_10PointCloudIS1_EE@Base 1.6
 (optional=templinst)_ZN3pcl11KdTreeFLANNINS_15PFHSignature125EN5flann9L2_SimpleIfEEE19convertCloudToArrayERKNS_10PointCloudIS1_EERKSt6vectorIiSaIiEE@Base 1.6
 (optional=templinst)_ZN3pcl11KdTreeFLANNINS_15PFHSignature125EN5flann9L2_SimpleIfEEE7cleanupEv@Base 1.6
 (optional=templinst)_ZN3pcl11KdTreeFLANNINS_15PFHSignature125EN5flann9L2_SimpleIfEEEC1ERKS5_@Base 1.6
 (optional=templinst)_ZN3pcl11KdTreeFLANNINS_15PFHSignature125EN5flann9L2_SimpleIfEEEC1Eb@Base 1.6
 (optional=templinst)_ZN3pcl11KdTreeFLANNINS_15PFHSignature125EN5flann9L2_SimpleIfEEEC2ERKS5_@Base 1.6
 (optional=templinst)_ZN3pcl11KdTreeFLANNINS_15PFHSignature125EN5flann9L2_SimpleIfEEEC2Eb@Base 1.6
 (optional=templinst)_ZN3pcl11KdTreeFLANNINS_15PFHSignature125EN5flann9L2_SimpleIfEEED0Ev@Base 1.6
 (optional=templinst)_ZN3pcl11KdTreeFLANNINS_15PFHSignature125EN5flann9L2_SimpleIfEEED1Ev@Base 1.6
 (optional=templinst)_ZN3pcl11KdTreeFLANNINS_15PFHSignature125EN5flann9L2_SimpleIfEEED2Ev@Base 1.6
 (optional=templinst)_ZN3pcl11KdTreeFLANNINS_15PFHSignature125EN5flann9L2_SimpleIfEEEaSERKS5_@Base 1.6
 (optional=templinst)_ZN3pcl11KdTreeFLANNINS_15PPFRGBSignatureEN5flann9L2_SimpleIfEEE10makeSharedEv@Base 1.6
 (optional=templinst)_ZN3pcl11KdTreeFLANNINS_15PPFRGBSignatureEN5flann9L2_SimpleIfEEE10setEpsilonEf@Base 1.6
 (optional=templinst)_ZN3pcl11KdTreeFLANNINS_15PPFRGBSignatureEN5flann9L2_SimpleIfEEE13setInputCloudERKN5boost10shared_ptrIKNS_10PointCloudIS1_EEEERKNS7_IKSt6vectorIiSaIiEEEE@Base 1.6
 (optional=templinst)_ZN3pcl11KdTreeFLANNINS_15PPFRGBSignatureEN5flann9L2_SimpleIfEEE16setSortedResultsEb@Base 1.6
 (optional=templinst)_ZN3pcl11KdTreeFLANNINS_15PPFRGBSignatureEN5flann9L2_SimpleIfEEE19convertCloudToArrayERKNS_10PointCloudIS1_EE@Base 1.6
 (optional=templinst)_ZN3pcl11KdTreeFLANNINS_15PPFRGBSignatureEN5flann9L2_SimpleIfEEE19convertCloudToArrayERKNS_10PointCloudIS1_EERKSt6vectorIiSaIiEE@Base 1.6
 (optional=templinst)_ZN3pcl11KdTreeFLANNINS_15PPFRGBSignatureEN5flann9L2_SimpleIfEEE7cleanupEv@Base 1.6
 (optional=templinst)_ZN3pcl11KdTreeFLANNINS_15PPFRGBSignatureEN5flann9L2_SimpleIfEEEC1ERKS5_@Base 1.6
 (optional=templinst)_ZN3pcl11KdTreeFLANNINS_15PPFRGBSignatureEN5flann9L2_SimpleIfEEEC1Eb@Base 1.6
 (optional=templinst)_ZN3pcl11KdTreeFLANNINS_15PPFRGBSignatureEN5flann9L2_SimpleIfEEEC2ERKS5_@Base 1.6
 (optional=templinst)_ZN3pcl11KdTreeFLANNINS_15PPFRGBSignatureEN5flann9L2_SimpleIfEEEC2Eb@Base 1.6
 (optional=templinst)_ZN3pcl11KdTreeFLANNINS_15PPFRGBSignatureEN5flann9L2_SimpleIfEEED0Ev@Base 1.6
 (optional=templinst)_ZN3pcl11KdTreeFLANNINS_15PPFRGBSignatureEN5flann9L2_SimpleIfEEED1Ev@Base 1.6
 (optional=templinst)_ZN3pcl11KdTreeFLANNINS_15PPFRGBSignatureEN5flann9L2_SimpleIfEEED2Ev@Base 1.6
 (optional=templinst)_ZN3pcl11KdTreeFLANNINS_15PPFRGBSignatureEN5flann9L2_SimpleIfEEEaSERKS5_@Base 1.6
 (optional=templinst)_ZN3pcl11KdTreeFLANNINS_15PointXYZINormalEN5flann9L2_SimpleIfEEE10makeSharedEv@Base 1.6
 (optional=templinst)_ZN3pcl11KdTreeFLANNINS_15PointXYZINormalEN5flann9L2_SimpleIfEEE10setEpsilonEf@Base 1.6
 (optional=templinst)_ZN3pcl11KdTreeFLANNINS_15PointXYZINormalEN5flann9L2_SimpleIfEEE13setInputCloudERKN5boost10shared_ptrIKNS_10PointCloudIS1_EEEERKNS7_IKSt6vectorIiSaIiEEEE@Base 1.6
 (optional=templinst)_ZN3pcl11KdTreeFLANNINS_15PointXYZINormalEN5flann9L2_SimpleIfEEE16setSortedResultsEb@Base 1.6
 (optional=templinst)_ZN3pcl11KdTreeFLANNINS_15PointXYZINormalEN5flann9L2_SimpleIfEEE19convertCloudToArrayERKNS_10PointCloudIS1_EE@Base 1.6
 (optional=templinst)_ZN3pcl11KdTreeFLANNINS_15PointXYZINormalEN5flann9L2_SimpleIfEEE19convertCloudToArrayERKNS_10PointCloudIS1_EERKSt6vectorIiSaIiEE@Base 1.6
 (optional=templinst)_ZN3pcl11KdTreeFLANNINS_15PointXYZINormalEN5flann9L2_SimpleIfEEE7cleanupEv@Base 1.6
 (optional=templinst)_ZN3pcl11KdTreeFLANNINS_15PointXYZINormalEN5flann9L2_SimpleIfEEEC1ERKS5_@Base 1.6
 (optional=templinst)_ZN3pcl11KdTreeFLANNINS_15PointXYZINormalEN5flann9L2_SimpleIfEEEC1Eb@Base 1.6
 (optional=templinst)_ZN3pcl11KdTreeFLANNINS_15PointXYZINormalEN5flann9L2_SimpleIfEEEC2ERKS5_@Base 1.6
 (optional=templinst)_ZN3pcl11KdTreeFLANNINS_15PointXYZINormalEN5flann9L2_SimpleIfEEEC2Eb@Base 1.6
 (optional=templinst)_ZN3pcl11KdTreeFLANNINS_15PointXYZINormalEN5flann9L2_SimpleIfEEED0Ev@Base 1.6
 (optional=templinst)_ZN3pcl11KdTreeFLANNINS_15PointXYZINormalEN5flann9L2_SimpleIfEEED1Ev@Base 1.6
 (optional=templinst)_ZN3pcl11KdTreeFLANNINS_15PointXYZINormalEN5flann9L2_SimpleIfEEED2Ev@Base 1.6
 (optional=templinst)_ZN3pcl11KdTreeFLANNINS_15PointXYZINormalEN5flann9L2_SimpleIfEEEaSERKS5_@Base 1.6
 (optional=templinst)_ZN3pcl11KdTreeFLANNINS_15VFHSignature308EN5flann9L2_SimpleIfEEE10makeSharedEv@Base 1.6
 (optional=templinst)_ZN3pcl11KdTreeFLANNINS_15VFHSignature308EN5flann9L2_SimpleIfEEE10setEpsilonEf@Base 1.6
 (optional=templinst)_ZN3pcl11KdTreeFLANNINS_15VFHSignature308EN5flann9L2_SimpleIfEEE13setInputCloudERKN5boost10shared_ptrIKNS_10PointCloudIS1_EEEERKNS7_IKSt6vectorIiSaIiEEEE@Base 1.6
 (optional=templinst)_ZN3pcl11KdTreeFLANNINS_15VFHSignature308EN5flann9L2_SimpleIfEEE16setSortedResultsEb@Base 1.6
 (optional=templinst)_ZN3pcl11KdTreeFLANNINS_15VFHSignature308EN5flann9L2_SimpleIfEEE19convertCloudToArrayERKNS_10PointCloudIS1_EE@Base 1.6
 (optional=templinst)_ZN3pcl11KdTreeFLANNINS_15VFHSignature308EN5flann9L2_SimpleIfEEE19convertCloudToArrayERKNS_10PointCloudIS1_EERKSt6vectorIiSaIiEE@Base 1.6
 (optional=templinst)_ZN3pcl11KdTreeFLANNINS_15VFHSignature308EN5flann9L2_SimpleIfEEE7cleanupEv@Base 1.6
 (optional=templinst)_ZN3pcl11KdTreeFLANNINS_15VFHSignature308EN5flann9L2_SimpleIfEEEC1ERKS5_@Base 1.6
 (optional=templinst)_ZN3pcl11KdTreeFLANNINS_15VFHSignature308EN5flann9L2_SimpleIfEEEC1Eb@Base 1.6
 (optional=templinst)_ZN3pcl11KdTreeFLANNINS_15VFHSignature308EN5flann9L2_SimpleIfEEEC2ERKS5_@Base 1.6
 (optional=templinst)_ZN3pcl11KdTreeFLANNINS_15VFHSignature308EN5flann9L2_SimpleIfEEEC2Eb@Base 1.6
 (optional=templinst)_ZN3pcl11KdTreeFLANNINS_15VFHSignature308EN5flann9L2_SimpleIfEEED0Ev@Base 1.6
 (optional=templinst)_ZN3pcl11KdTreeFLANNINS_15VFHSignature308EN5flann9L2_SimpleIfEEED1Ev@Base 1.6
 (optional=templinst)_ZN3pcl11KdTreeFLANNINS_15VFHSignature308EN5flann9L2_SimpleIfEEED2Ev@Base 1.6
 (optional=templinst)_ZN3pcl11KdTreeFLANNINS_15VFHSignature308EN5flann9L2_SimpleIfEEEaSERKS5_@Base 1.6
 (optional=templinst)_ZN3pcl11KdTreeFLANNINS_16MomentInvariantsEN5flann9L2_SimpleIfEEE10makeSharedEv@Base 1.6
 (optional=templinst)_ZN3pcl11KdTreeFLANNINS_16MomentInvariantsEN5flann9L2_SimpleIfEEE10setEpsilonEf@Base 1.6
 (optional=templinst)_ZN3pcl11KdTreeFLANNINS_16MomentInvariantsEN5flann9L2_SimpleIfEEE13setInputCloudERKN5boost10shared_ptrIKNS_10PointCloudIS1_EEEERKNS7_IKSt6vectorIiSaIiEEEE@Base 1.6
 (optional=templinst)_ZN3pcl11KdTreeFLANNINS_16MomentInvariantsEN5flann9L2_SimpleIfEEE16setSortedResultsEb@Base 1.6
 (optional=templinst)_ZN3pcl11KdTreeFLANNINS_16MomentInvariantsEN5flann9L2_SimpleIfEEE19convertCloudToArrayERKNS_10PointCloudIS1_EE@Base 1.6
 (optional=templinst)_ZN3pcl11KdTreeFLANNINS_16MomentInvariantsEN5flann9L2_SimpleIfEEE19convertCloudToArrayERKNS_10PointCloudIS1_EERKSt6vectorIiSaIiEE@Base 1.6
 (optional=templinst)_ZN3pcl11KdTreeFLANNINS_16MomentInvariantsEN5flann9L2_SimpleIfEEE7cleanupEv@Base 1.6
 (optional=templinst)_ZN3pcl11KdTreeFLANNINS_16MomentInvariantsEN5flann9L2_SimpleIfEEEC1ERKS5_@Base 1.6
 (optional=templinst)_ZN3pcl11KdTreeFLANNINS_16MomentInvariantsEN5flann9L2_SimpleIfEEEC1Eb@Base 1.6
 (optional=templinst)_ZN3pcl11KdTreeFLANNINS_16MomentInvariantsEN5flann9L2_SimpleIfEEEC2ERKS5_@Base 1.6
 (optional=templinst)_ZN3pcl11KdTreeFLANNINS_16MomentInvariantsEN5flann9L2_SimpleIfEEEC2Eb@Base 1.6
 (optional=templinst)_ZN3pcl11KdTreeFLANNINS_16MomentInvariantsEN5flann9L2_SimpleIfEEED0Ev@Base 1.6
 (optional=templinst)_ZN3pcl11KdTreeFLANNINS_16MomentInvariantsEN5flann9L2_SimpleIfEEED1Ev@Base 1.6
 (optional=templinst)_ZN3pcl11KdTreeFLANNINS_16MomentInvariantsEN5flann9L2_SimpleIfEEED2Ev@Base 1.6
 (optional=templinst)_ZN3pcl11KdTreeFLANNINS_16MomentInvariantsEN5flann9L2_SimpleIfEEEaSERKS5_@Base 1.6
 (optional=templinst)_ZN3pcl11KdTreeFLANNINS_17IntensityGradientEN5flann9L2_SimpleIfEEE10makeSharedEv@Base 1.6
 (optional=templinst)_ZN3pcl11KdTreeFLANNINS_17IntensityGradientEN5flann9L2_SimpleIfEEE10setEpsilonEf@Base 1.6
 (optional=templinst)_ZN3pcl11KdTreeFLANNINS_17IntensityGradientEN5flann9L2_SimpleIfEEE13setInputCloudERKN5boost10shared_ptrIKNS_10PointCloudIS1_EEEERKNS7_IKSt6vectorIiSaIiEEEE@Base 1.6
 (optional=templinst)_ZN3pcl11KdTreeFLANNINS_17IntensityGradientEN5flann9L2_SimpleIfEEE16setSortedResultsEb@Base 1.6
 (optional=templinst)_ZN3pcl11KdTreeFLANNINS_17IntensityGradientEN5flann9L2_SimpleIfEEE19convertCloudToArrayERKNS_10PointCloudIS1_EE@Base 1.6
 (optional=templinst)_ZN3pcl11KdTreeFLANNINS_17IntensityGradientEN5flann9L2_SimpleIfEEE19convertCloudToArrayERKNS_10PointCloudIS1_EERKSt6vectorIiSaIiEE@Base 1.6
 (optional=templinst)_ZN3pcl11KdTreeFLANNINS_17IntensityGradientEN5flann9L2_SimpleIfEEE7cleanupEv@Base 1.6
 (optional=templinst)_ZN3pcl11KdTreeFLANNINS_17IntensityGradientEN5flann9L2_SimpleIfEEEC1ERKS5_@Base 1.6
 (optional=templinst)_ZN3pcl11KdTreeFLANNINS_17IntensityGradientEN5flann9L2_SimpleIfEEEC1Eb@Base 1.6
 (optional=templinst)_ZN3pcl11KdTreeFLANNINS_17IntensityGradientEN5flann9L2_SimpleIfEEEC2ERKS5_@Base 1.6
 (optional=templinst)_ZN3pcl11KdTreeFLANNINS_17IntensityGradientEN5flann9L2_SimpleIfEEEC2Eb@Base 1.6
 (optional=templinst)_ZN3pcl11KdTreeFLANNINS_17IntensityGradientEN5flann9L2_SimpleIfEEED0Ev@Base 1.6
 (optional=templinst)_ZN3pcl11KdTreeFLANNINS_17IntensityGradientEN5flann9L2_SimpleIfEEED1Ev@Base 1.6
 (optional=templinst)_ZN3pcl11KdTreeFLANNINS_17IntensityGradientEN5flann9L2_SimpleIfEEED2Ev@Base 1.6
 (optional=templinst)_ZN3pcl11KdTreeFLANNINS_17IntensityGradientEN5flann9L2_SimpleIfEEEaSERKS5_@Base 1.6
 (optional=templinst)_ZN3pcl11KdTreeFLANNINS_17PointXYZRGBNormalEN5flann9L2_SimpleIfEEE10makeSharedEv@Base 1.6
 (optional=templinst)_ZN3pcl11KdTreeFLANNINS_17PointXYZRGBNormalEN5flann9L2_SimpleIfEEE10setEpsilonEf@Base 1.6
 (optional=templinst)_ZN3pcl11KdTreeFLANNINS_17PointXYZRGBNormalEN5flann9L2_SimpleIfEEE13setInputCloudERKN5boost10shared_ptrIKNS_10PointCloudIS1_EEEERKNS7_IKSt6vectorIiSaIiEEEE@Base 1.6
 (optional=templinst)_ZN3pcl11KdTreeFLANNINS_17PointXYZRGBNormalEN5flann9L2_SimpleIfEEE16setSortedResultsEb@Base 1.6
 (optional=templinst)_ZN3pcl11KdTreeFLANNINS_17PointXYZRGBNormalEN5flann9L2_SimpleIfEEE19convertCloudToArrayERKNS_10PointCloudIS1_EE@Base 1.6
 (optional=templinst)_ZN3pcl11KdTreeFLANNINS_17PointXYZRGBNormalEN5flann9L2_SimpleIfEEE19convertCloudToArrayERKNS_10PointCloudIS1_EERKSt6vectorIiSaIiEE@Base 1.6
 (optional=templinst)_ZN3pcl11KdTreeFLANNINS_17PointXYZRGBNormalEN5flann9L2_SimpleIfEEE7cleanupEv@Base 1.6
 (optional=templinst)_ZN3pcl11KdTreeFLANNINS_17PointXYZRGBNormalEN5flann9L2_SimpleIfEEEC1ERKS5_@Base 1.6
 (optional=templinst)_ZN3pcl11KdTreeFLANNINS_17PointXYZRGBNormalEN5flann9L2_SimpleIfEEEC1Eb@Base 1.6
 (optional=templinst)_ZN3pcl11KdTreeFLANNINS_17PointXYZRGBNormalEN5flann9L2_SimpleIfEEEC2ERKS5_@Base 1.6
 (optional=templinst)_ZN3pcl11KdTreeFLANNINS_17PointXYZRGBNormalEN5flann9L2_SimpleIfEEEC2Eb@Base 1.6
 (optional=templinst)_ZN3pcl11KdTreeFLANNINS_17PointXYZRGBNormalEN5flann9L2_SimpleIfEEED0Ev@Base 1.6
 (optional=templinst)_ZN3pcl11KdTreeFLANNINS_17PointXYZRGBNormalEN5flann9L2_SimpleIfEEED1Ev@Base 1.6
 (optional=templinst)_ZN3pcl11KdTreeFLANNINS_17PointXYZRGBNormalEN5flann9L2_SimpleIfEEED2Ev@Base 1.6
 (optional=templinst)_ZN3pcl11KdTreeFLANNINS_17PointXYZRGBNormalEN5flann9L2_SimpleIfEEEaSERKS5_@Base 1.6
 (optional=templinst)_ZN3pcl11KdTreeFLANNINS_17PrincipalRadiiRSDEN5flann9L2_SimpleIfEEE10makeSharedEv@Base 1.6
 (optional=templinst)_ZN3pcl11KdTreeFLANNINS_17PrincipalRadiiRSDEN5flann9L2_SimpleIfEEE10setEpsilonEf@Base 1.6
 (optional=templinst)_ZN3pcl11KdTreeFLANNINS_17PrincipalRadiiRSDEN5flann9L2_SimpleIfEEE13setInputCloudERKN5boost10shared_ptrIKNS_10PointCloudIS1_EEEERKNS7_IKSt6vectorIiSaIiEEEE@Base 1.6
 (optional=templinst)_ZN3pcl11KdTreeFLANNINS_17PrincipalRadiiRSDEN5flann9L2_SimpleIfEEE16setSortedResultsEb@Base 1.6
 (optional=templinst)_ZN3pcl11KdTreeFLANNINS_17PrincipalRadiiRSDEN5flann9L2_SimpleIfEEE19convertCloudToArrayERKNS_10PointCloudIS1_EE@Base 1.6
 (optional=templinst)_ZN3pcl11KdTreeFLANNINS_17PrincipalRadiiRSDEN5flann9L2_SimpleIfEEE19convertCloudToArrayERKNS_10PointCloudIS1_EERKSt6vectorIiSaIiEE@Base 1.6
 (optional=templinst)_ZN3pcl11KdTreeFLANNINS_17PrincipalRadiiRSDEN5flann9L2_SimpleIfEEE7cleanupEv@Base 1.6
 (optional=templinst)_ZN3pcl11KdTreeFLANNINS_17PrincipalRadiiRSDEN5flann9L2_SimpleIfEEEC1ERKS5_@Base 1.6
 (optional=templinst)_ZN3pcl11KdTreeFLANNINS_17PrincipalRadiiRSDEN5flann9L2_SimpleIfEEEC1Eb@Base 1.6
 (optional=templinst)_ZN3pcl11KdTreeFLANNINS_17PrincipalRadiiRSDEN5flann9L2_SimpleIfEEEC2ERKS5_@Base 1.6
 (optional=templinst)_ZN3pcl11KdTreeFLANNINS_17PrincipalRadiiRSDEN5flann9L2_SimpleIfEEEC2Eb@Base 1.6
 (optional=templinst)_ZN3pcl11KdTreeFLANNINS_17PrincipalRadiiRSDEN5flann9L2_SimpleIfEEED0Ev@Base 1.6
 (optional=templinst)_ZN3pcl11KdTreeFLANNINS_17PrincipalRadiiRSDEN5flann9L2_SimpleIfEEED1Ev@Base 1.6
 (optional=templinst)_ZN3pcl11KdTreeFLANNINS_17PrincipalRadiiRSDEN5flann9L2_SimpleIfEEED2Ev@Base 1.6
 (optional=templinst)_ZN3pcl11KdTreeFLANNINS_17PrincipalRadiiRSDEN5flann9L2_SimpleIfEEEaSERKS5_@Base 1.6
 (optional=templinst)_ZN3pcl11KdTreeFLANNINS_18PFHRGBSignature250EN5flann9L2_SimpleIfEEE10makeSharedEv@Base 1.6
 (optional=templinst)_ZN3pcl11KdTreeFLANNINS_18PFHRGBSignature250EN5flann9L2_SimpleIfEEE10setEpsilonEf@Base 1.6
 (optional=templinst)_ZN3pcl11KdTreeFLANNINS_18PFHRGBSignature250EN5flann9L2_SimpleIfEEE13setInputCloudERKN5boost10shared_ptrIKNS_10PointCloudIS1_EEEERKNS7_IKSt6vectorIiSaIiEEEE@Base 1.6
 (optional=templinst)_ZN3pcl11KdTreeFLANNINS_18PFHRGBSignature250EN5flann9L2_SimpleIfEEE16setSortedResultsEb@Base 1.6
 (optional=templinst)_ZN3pcl11KdTreeFLANNINS_18PFHRGBSignature250EN5flann9L2_SimpleIfEEE19convertCloudToArrayERKNS_10PointCloudIS1_EE@Base 1.6
 (optional=templinst)_ZN3pcl11KdTreeFLANNINS_18PFHRGBSignature250EN5flann9L2_SimpleIfEEE19convertCloudToArrayERKNS_10PointCloudIS1_EERKSt6vectorIiSaIiEE@Base 1.6
 (optional=templinst)_ZN3pcl11KdTreeFLANNINS_18PFHRGBSignature250EN5flann9L2_SimpleIfEEE7cleanupEv@Base 1.6
 (optional=templinst)_ZN3pcl11KdTreeFLANNINS_18PFHRGBSignature250EN5flann9L2_SimpleIfEEEC1ERKS5_@Base 1.6
 (optional=templinst)_ZN3pcl11KdTreeFLANNINS_18PFHRGBSignature250EN5flann9L2_SimpleIfEEEC1Eb@Base 1.6
 (optional=templinst)_ZN3pcl11KdTreeFLANNINS_18PFHRGBSignature250EN5flann9L2_SimpleIfEEEC2ERKS5_@Base 1.6
 (optional=templinst)_ZN3pcl11KdTreeFLANNINS_18PFHRGBSignature250EN5flann9L2_SimpleIfEEEC2Eb@Base 1.6
 (optional=templinst)_ZN3pcl11KdTreeFLANNINS_18PFHRGBSignature250EN5flann9L2_SimpleIfEEED0Ev@Base 1.6
 (optional=templinst)_ZN3pcl11KdTreeFLANNINS_18PFHRGBSignature250EN5flann9L2_SimpleIfEEED1Ev@Base 1.6
 (optional=templinst)_ZN3pcl11KdTreeFLANNINS_18PFHRGBSignature250EN5flann9L2_SimpleIfEEED2Ev@Base 1.6
 (optional=templinst)_ZN3pcl11KdTreeFLANNINS_18PFHRGBSignature250EN5flann9L2_SimpleIfEEEaSERKS5_@Base 1.6
 (optional=templinst)_ZN3pcl11KdTreeFLANNINS_18PointWithViewpointEN5flann9L2_SimpleIfEEE10makeSharedEv@Base 1.6
 (optional=templinst)_ZN3pcl11KdTreeFLANNINS_18PointWithViewpointEN5flann9L2_SimpleIfEEE10setEpsilonEf@Base 1.6
 (optional=templinst)_ZN3pcl11KdTreeFLANNINS_18PointWithViewpointEN5flann9L2_SimpleIfEEE13setInputCloudERKN5boost10shared_ptrIKNS_10PointCloudIS1_EEEERKNS7_IKSt6vectorIiSaIiEEEE@Base 1.6
 (optional=templinst)_ZN3pcl11KdTreeFLANNINS_18PointWithViewpointEN5flann9L2_SimpleIfEEE16setSortedResultsEb@Base 1.6
 (optional=templinst)_ZN3pcl11KdTreeFLANNINS_18PointWithViewpointEN5flann9L2_SimpleIfEEE19convertCloudToArrayERKNS_10PointCloudIS1_EE@Base 1.6
 (optional=templinst)_ZN3pcl11KdTreeFLANNINS_18PointWithViewpointEN5flann9L2_SimpleIfEEE19convertCloudToArrayERKNS_10PointCloudIS1_EERKSt6vectorIiSaIiEE@Base 1.6
 (optional=templinst)_ZN3pcl11KdTreeFLANNINS_18PointWithViewpointEN5flann9L2_SimpleIfEEE7cleanupEv@Base 1.6
 (optional=templinst)_ZN3pcl11KdTreeFLANNINS_18PointWithViewpointEN5flann9L2_SimpleIfEEEC1ERKS5_@Base 1.6
 (optional=templinst)_ZN3pcl11KdTreeFLANNINS_18PointWithViewpointEN5flann9L2_SimpleIfEEEC1Eb@Base 1.6
 (optional=templinst)_ZN3pcl11KdTreeFLANNINS_18PointWithViewpointEN5flann9L2_SimpleIfEEEC2ERKS5_@Base 1.6
 (optional=templinst)_ZN3pcl11KdTreeFLANNINS_18PointWithViewpointEN5flann9L2_SimpleIfEEEC2Eb@Base 1.6
 (optional=templinst)_ZN3pcl11KdTreeFLANNINS_18PointWithViewpointEN5flann9L2_SimpleIfEEED0Ev@Base 1.6
 (optional=templinst)_ZN3pcl11KdTreeFLANNINS_18PointWithViewpointEN5flann9L2_SimpleIfEEED1Ev@Base 1.6
 (optional=templinst)_ZN3pcl11KdTreeFLANNINS_18PointWithViewpointEN5flann9L2_SimpleIfEEED2Ev@Base 1.6
 (optional=templinst)_ZN3pcl11KdTreeFLANNINS_18PointWithViewpointEN5flann9L2_SimpleIfEEEaSERKS5_@Base 1.6
 (optional=templinst)_ZN3pcl11KdTreeFLANNINS_19PrincipalCurvaturesEN5flann9L2_SimpleIfEEE10makeSharedEv@Base 1.6
 (optional=templinst)_ZN3pcl11KdTreeFLANNINS_19PrincipalCurvaturesEN5flann9L2_SimpleIfEEE10setEpsilonEf@Base 1.6
 (optional=templinst)_ZN3pcl11KdTreeFLANNINS_19PrincipalCurvaturesEN5flann9L2_SimpleIfEEE13setInputCloudERKN5boost10shared_ptrIKNS_10PointCloudIS1_EEEERKNS7_IKSt6vectorIiSaIiEEEE@Base 1.6
 (optional=templinst)_ZN3pcl11KdTreeFLANNINS_19PrincipalCurvaturesEN5flann9L2_SimpleIfEEE16setSortedResultsEb@Base 1.6
 (optional=templinst)_ZN3pcl11KdTreeFLANNINS_19PrincipalCurvaturesEN5flann9L2_SimpleIfEEE19convertCloudToArrayERKNS_10PointCloudIS1_EE@Base 1.6
 (optional=templinst)_ZN3pcl11KdTreeFLANNINS_19PrincipalCurvaturesEN5flann9L2_SimpleIfEEE19convertCloudToArrayERKNS_10PointCloudIS1_EERKSt6vectorIiSaIiEE@Base 1.6
 (optional=templinst)_ZN3pcl11KdTreeFLANNINS_19PrincipalCurvaturesEN5flann9L2_SimpleIfEEE7cleanupEv@Base 1.6
 (optional=templinst)_ZN3pcl11KdTreeFLANNINS_19PrincipalCurvaturesEN5flann9L2_SimpleIfEEEC1ERKS5_@Base 1.6
 (optional=templinst)_ZN3pcl11KdTreeFLANNINS_19PrincipalCurvaturesEN5flann9L2_SimpleIfEEEC1Eb@Base 1.6
 (optional=templinst)_ZN3pcl11KdTreeFLANNINS_19PrincipalCurvaturesEN5flann9L2_SimpleIfEEEC2ERKS5_@Base 1.6
 (optional=templinst)_ZN3pcl11KdTreeFLANNINS_19PrincipalCurvaturesEN5flann9L2_SimpleIfEEEC2Eb@Base 1.6
 (optional=templinst)_ZN3pcl11KdTreeFLANNINS_19PrincipalCurvaturesEN5flann9L2_SimpleIfEEED0Ev@Base 1.6
 (optional=templinst)_ZN3pcl11KdTreeFLANNINS_19PrincipalCurvaturesEN5flann9L2_SimpleIfEEED1Ev@Base 1.6
 (optional=templinst)_ZN3pcl11KdTreeFLANNINS_19PrincipalCurvaturesEN5flann9L2_SimpleIfEEED2Ev@Base 1.6
 (optional=templinst)_ZN3pcl11KdTreeFLANNINS_19PrincipalCurvaturesEN5flann9L2_SimpleIfEEEaSERKS5_@Base 1.6
 (optional=templinst)_ZN3pcl11KdTreeFLANNINS_22NormalBasedSignature12EN5flann9L2_SimpleIfEEE10makeSharedEv@Base 1.6
 (optional=templinst)_ZN3pcl11KdTreeFLANNINS_22NormalBasedSignature12EN5flann9L2_SimpleIfEEE10setEpsilonEf@Base 1.6
 (optional=templinst)_ZN3pcl11KdTreeFLANNINS_22NormalBasedSignature12EN5flann9L2_SimpleIfEEE13setInputCloudERKN5boost10shared_ptrIKNS_10PointCloudIS1_EEEERKNS7_IKSt6vectorIiSaIiEEEE@Base 1.6
 (optional=templinst)_ZN3pcl11KdTreeFLANNINS_22NormalBasedSignature12EN5flann9L2_SimpleIfEEE16setSortedResultsEb@Base 1.6
 (optional=templinst)_ZN3pcl11KdTreeFLANNINS_22NormalBasedSignature12EN5flann9L2_SimpleIfEEE19convertCloudToArrayERKNS_10PointCloudIS1_EE@Base 1.6
 (optional=templinst)_ZN3pcl11KdTreeFLANNINS_22NormalBasedSignature12EN5flann9L2_SimpleIfEEE19convertCloudToArrayERKNS_10PointCloudIS1_EERKSt6vectorIiSaIiEE@Base 1.6
 (optional=templinst)_ZN3pcl11KdTreeFLANNINS_22NormalBasedSignature12EN5flann9L2_SimpleIfEEE7cleanupEv@Base 1.6
 (optional=templinst)_ZN3pcl11KdTreeFLANNINS_22NormalBasedSignature12EN5flann9L2_SimpleIfEEEC1ERKS5_@Base 1.6
 (optional=templinst)_ZN3pcl11KdTreeFLANNINS_22NormalBasedSignature12EN5flann9L2_SimpleIfEEEC1Eb@Base 1.6
 (optional=templinst)_ZN3pcl11KdTreeFLANNINS_22NormalBasedSignature12EN5flann9L2_SimpleIfEEEC2ERKS5_@Base 1.6
 (optional=templinst)_ZN3pcl11KdTreeFLANNINS_22NormalBasedSignature12EN5flann9L2_SimpleIfEEEC2Eb@Base 1.6
 (optional=templinst)_ZN3pcl11KdTreeFLANNINS_22NormalBasedSignature12EN5flann9L2_SimpleIfEEED0Ev@Base 1.6
 (optional=templinst)_ZN3pcl11KdTreeFLANNINS_22NormalBasedSignature12EN5flann9L2_SimpleIfEEED1Ev@Base 1.6
 (optional=templinst)_ZN3pcl11KdTreeFLANNINS_22NormalBasedSignature12EN5flann9L2_SimpleIfEEED2Ev@Base 1.6
 (optional=templinst)_ZN3pcl11KdTreeFLANNINS_22NormalBasedSignature12EN5flann9L2_SimpleIfEEEaSERKS5_@Base 1.6
 (optional=templinst)_ZN3pcl11KdTreeFLANNINS_4AxisEN5flann9L2_SimpleIfEEE10makeSharedEv@Base 1.6
 (optional=templinst)_ZN3pcl11KdTreeFLANNINS_4AxisEN5flann9L2_SimpleIfEEE10setEpsilonEf@Base 1.6
 (optional=templinst)_ZN3pcl11KdTreeFLANNINS_4AxisEN5flann9L2_SimpleIfEEE13setInputCloudERKN5boost10shared_ptrIKNS_10PointCloudIS1_EEEERKNS7_IKSt6vectorIiSaIiEEEE@Base 1.6
 (optional=templinst)_ZN3pcl11KdTreeFLANNINS_4AxisEN5flann9L2_SimpleIfEEE16setSortedResultsEb@Base 1.6
 (optional=templinst)_ZN3pcl11KdTreeFLANNINS_4AxisEN5flann9L2_SimpleIfEEE19convertCloudToArrayERKNS_10PointCloudIS1_EE@Base 1.6
 (optional=templinst)_ZN3pcl11KdTreeFLANNINS_4AxisEN5flann9L2_SimpleIfEEE19convertCloudToArrayERKNS_10PointCloudIS1_EERKSt6vectorIiSaIiEE@Base 1.6
 (optional=templinst)_ZN3pcl11KdTreeFLANNINS_4AxisEN5flann9L2_SimpleIfEEE7cleanupEv@Base 1.6
 (optional=templinst)_ZN3pcl11KdTreeFLANNINS_4AxisEN5flann9L2_SimpleIfEEEC1ERKS5_@Base 1.6
 (optional=templinst)_ZN3pcl11KdTreeFLANNINS_4AxisEN5flann9L2_SimpleIfEEEC1Eb@Base 1.6
 (optional=templinst)_ZN3pcl11KdTreeFLANNINS_4AxisEN5flann9L2_SimpleIfEEEC2ERKS5_@Base 1.6
 (optional=templinst)_ZN3pcl11KdTreeFLANNINS_4AxisEN5flann9L2_SimpleIfEEEC2Eb@Base 1.6
 (optional=templinst)_ZN3pcl11KdTreeFLANNINS_4AxisEN5flann9L2_SimpleIfEEED0Ev@Base 1.6
 (optional=templinst)_ZN3pcl11KdTreeFLANNINS_4AxisEN5flann9L2_SimpleIfEEED1Ev@Base 1.6
 (optional=templinst)_ZN3pcl11KdTreeFLANNINS_4AxisEN5flann9L2_SimpleIfEEED2Ev@Base 1.6
 (optional=templinst)_ZN3pcl11KdTreeFLANNINS_4AxisEN5flann9L2_SimpleIfEEEaSERKS5_@Base 1.6
 (optional=templinst)_ZN3pcl11KdTreeFLANNINS_5LabelEN5flann9L2_SimpleIfEEE10makeSharedEv@Base 1.6
 (optional=templinst)_ZN3pcl11KdTreeFLANNINS_5LabelEN5flann9L2_SimpleIfEEE10setEpsilonEf@Base 1.6
 (optional=templinst)_ZN3pcl11KdTreeFLANNINS_5LabelEN5flann9L2_SimpleIfEEE13setInputCloudERKN5boost10shared_ptrIKNS_10PointCloudIS1_EEEERKNS7_IKSt6vectorIiSaIiEEEE@Base 1.6
 (optional=templinst)_ZN3pcl11KdTreeFLANNINS_5LabelEN5flann9L2_SimpleIfEEE16setSortedResultsEb@Base 1.6
 (optional=templinst)_ZN3pcl11KdTreeFLANNINS_5LabelEN5flann9L2_SimpleIfEEE19convertCloudToArrayERKNS_10PointCloudIS1_EE@Base 1.6
 (optional=templinst)_ZN3pcl11KdTreeFLANNINS_5LabelEN5flann9L2_SimpleIfEEE19convertCloudToArrayERKNS_10PointCloudIS1_EERKSt6vectorIiSaIiEE@Base 1.6
 (optional=templinst)_ZN3pcl11KdTreeFLANNINS_5LabelEN5flann9L2_SimpleIfEEE7cleanupEv@Base 1.6
 (optional=templinst)_ZN3pcl11KdTreeFLANNINS_5LabelEN5flann9L2_SimpleIfEEEC1ERKS5_@Base 1.6
 (optional=templinst)_ZN3pcl11KdTreeFLANNINS_5LabelEN5flann9L2_SimpleIfEEEC1Eb@Base 1.6
 (optional=templinst)_ZN3pcl11KdTreeFLANNINS_5LabelEN5flann9L2_SimpleIfEEEC2ERKS5_@Base 1.6
 (optional=templinst)_ZN3pcl11KdTreeFLANNINS_5LabelEN5flann9L2_SimpleIfEEEC2Eb@Base 1.6
 (optional=templinst)_ZN3pcl11KdTreeFLANNINS_5LabelEN5flann9L2_SimpleIfEEED0Ev@Base 1.6
 (optional=templinst)_ZN3pcl11KdTreeFLANNINS_5LabelEN5flann9L2_SimpleIfEEED1Ev@Base 1.6
 (optional=templinst)_ZN3pcl11KdTreeFLANNINS_5LabelEN5flann9L2_SimpleIfEEED2Ev@Base 1.6
 (optional=templinst)_ZN3pcl11KdTreeFLANNINS_5LabelEN5flann9L2_SimpleIfEEEaSERKS5_@Base 1.6
 (optional=templinst)_ZN3pcl11KdTreeFLANNINS_6Narf36EN5flann9L2_SimpleIfEEE10makeSharedEv@Base 1.6
 (optional=templinst)_ZN3pcl11KdTreeFLANNINS_6Narf36EN5flann9L2_SimpleIfEEE10setEpsilonEf@Base 1.6
 (optional=templinst)_ZN3pcl11KdTreeFLANNINS_6Narf36EN5flann9L2_SimpleIfEEE13setInputCloudERKN5boost10shared_ptrIKNS_10PointCloudIS1_EEEERKNS7_IKSt6vectorIiSaIiEEEE@Base 1.6
 (optional=templinst)_ZN3pcl11KdTreeFLANNINS_6Narf36EN5flann9L2_SimpleIfEEE16setSortedResultsEb@Base 1.6
 (optional=templinst)_ZN3pcl11KdTreeFLANNINS_6Narf36EN5flann9L2_SimpleIfEEE19convertCloudToArrayERKNS_10PointCloudIS1_EE@Base 1.6
 (optional=templinst)_ZN3pcl11KdTreeFLANNINS_6Narf36EN5flann9L2_SimpleIfEEE19convertCloudToArrayERKNS_10PointCloudIS1_EERKSt6vectorIiSaIiEE@Base 1.6
 (optional=templinst)_ZN3pcl11KdTreeFLANNINS_6Narf36EN5flann9L2_SimpleIfEEE7cleanupEv@Base 1.6
 (optional=templinst)_ZN3pcl11KdTreeFLANNINS_6Narf36EN5flann9L2_SimpleIfEEEC1ERKS5_@Base 1.6
 (optional=templinst)_ZN3pcl11KdTreeFLANNINS_6Narf36EN5flann9L2_SimpleIfEEEC1Eb@Base 1.6
 (optional=templinst)_ZN3pcl11KdTreeFLANNINS_6Narf36EN5flann9L2_SimpleIfEEEC2ERKS5_@Base 1.6
 (optional=templinst)_ZN3pcl11KdTreeFLANNINS_6Narf36EN5flann9L2_SimpleIfEEEC2Eb@Base 1.6
 (optional=templinst)_ZN3pcl11KdTreeFLANNINS_6Narf36EN5flann9L2_SimpleIfEEED0Ev@Base 1.6
 (optional=templinst)_ZN3pcl11KdTreeFLANNINS_6Narf36EN5flann9L2_SimpleIfEEED1Ev@Base 1.6
 (optional=templinst)_ZN3pcl11KdTreeFLANNINS_6Narf36EN5flann9L2_SimpleIfEEED2Ev@Base 1.6
 (optional=templinst)_ZN3pcl11KdTreeFLANNINS_6Narf36EN5flann9L2_SimpleIfEEEaSERKS5_@Base 1.6
 (optional=templinst)_ZN3pcl11KdTreeFLANNINS_6NormalEN5flann9L2_SimpleIfEEE10makeSharedEv@Base 1.6
 (optional=templinst)_ZN3pcl11KdTreeFLANNINS_6NormalEN5flann9L2_SimpleIfEEE10setEpsilonEf@Base 1.6
 (optional=templinst)_ZN3pcl11KdTreeFLANNINS_6NormalEN5flann9L2_SimpleIfEEE13setInputCloudERKN5boost10shared_ptrIKNS_10PointCloudIS1_EEEERKNS7_IKSt6vectorIiSaIiEEEE@Base 1.6
 (optional=templinst)_ZN3pcl11KdTreeFLANNINS_6NormalEN5flann9L2_SimpleIfEEE16setSortedResultsEb@Base 1.6
 (optional=templinst)_ZN3pcl11KdTreeFLANNINS_6NormalEN5flann9L2_SimpleIfEEE19convertCloudToArrayERKNS_10PointCloudIS1_EE@Base 1.6
 (optional=templinst)_ZN3pcl11KdTreeFLANNINS_6NormalEN5flann9L2_SimpleIfEEE19convertCloudToArrayERKNS_10PointCloudIS1_EERKSt6vectorIiSaIiEE@Base 1.6
 (optional=templinst)_ZN3pcl11KdTreeFLANNINS_6NormalEN5flann9L2_SimpleIfEEE7cleanupEv@Base 1.6
 (optional=templinst)_ZN3pcl11KdTreeFLANNINS_6NormalEN5flann9L2_SimpleIfEEEC1ERKS5_@Base 1.6
 (optional=templinst)_ZN3pcl11KdTreeFLANNINS_6NormalEN5flann9L2_SimpleIfEEEC1Eb@Base 1.6
 (optional=templinst)_ZN3pcl11KdTreeFLANNINS_6NormalEN5flann9L2_SimpleIfEEEC2ERKS5_@Base 1.6
 (optional=templinst)_ZN3pcl11KdTreeFLANNINS_6NormalEN5flann9L2_SimpleIfEEEC2Eb@Base 1.6
 (optional=templinst)_ZN3pcl11KdTreeFLANNINS_6NormalEN5flann9L2_SimpleIfEEED0Ev@Base 1.6
 (optional=templinst)_ZN3pcl11KdTreeFLANNINS_6NormalEN5flann9L2_SimpleIfEEED1Ev@Base 1.6
 (optional=templinst)_ZN3pcl11KdTreeFLANNINS_6NormalEN5flann9L2_SimpleIfEEED2Ev@Base 1.6
 (optional=templinst)_ZN3pcl11KdTreeFLANNINS_6NormalEN5flann9L2_SimpleIfEEEaSERKS5_@Base 1.6
 (optional=templinst)_ZN3pcl11KdTreeFLANNINS_7PointXYEN5flann9L2_SimpleIfEEE10makeSharedEv@Base 1.6
 (optional=templinst)_ZN3pcl11KdTreeFLANNINS_7PointXYEN5flann9L2_SimpleIfEEE10setEpsilonEf@Base 1.6
 (optional=templinst)_ZN3pcl11KdTreeFLANNINS_7PointXYEN5flann9L2_SimpleIfEEE13setInputCloudERKN5boost10shared_ptrIKNS_10PointCloudIS1_EEEERKNS7_IKSt6vectorIiSaIiEEEE@Base 1.6
 (optional=templinst)_ZN3pcl11KdTreeFLANNINS_7PointXYEN5flann9L2_SimpleIfEEE16setSortedResultsEb@Base 1.6
 (optional=templinst)_ZN3pcl11KdTreeFLANNINS_7PointXYEN5flann9L2_SimpleIfEEE19convertCloudToArrayERKNS_10PointCloudIS1_EE@Base 1.6
 (optional=templinst)_ZN3pcl11KdTreeFLANNINS_7PointXYEN5flann9L2_SimpleIfEEE19convertCloudToArrayERKNS_10PointCloudIS1_EERKSt6vectorIiSaIiEE@Base 1.6
 (optional=templinst)_ZN3pcl11KdTreeFLANNINS_7PointXYEN5flann9L2_SimpleIfEEE7cleanupEv@Base 1.6
 (optional=templinst)_ZN3pcl11KdTreeFLANNINS_7PointXYEN5flann9L2_SimpleIfEEEC1ERKS5_@Base 1.6
 (optional=templinst)_ZN3pcl11KdTreeFLANNINS_7PointXYEN5flann9L2_SimpleIfEEEC1Eb@Base 1.6
 (optional=templinst)_ZN3pcl11KdTreeFLANNINS_7PointXYEN5flann9L2_SimpleIfEEEC2ERKS5_@Base 1.6
 (optional=templinst)_ZN3pcl11KdTreeFLANNINS_7PointXYEN5flann9L2_SimpleIfEEEC2Eb@Base 1.6
 (optional=templinst)_ZN3pcl11KdTreeFLANNINS_7PointXYEN5flann9L2_SimpleIfEEED0Ev@Base 1.6
 (optional=templinst)_ZN3pcl11KdTreeFLANNINS_7PointXYEN5flann9L2_SimpleIfEEED1Ev@Base 1.6
 (optional=templinst)_ZN3pcl11KdTreeFLANNINS_7PointXYEN5flann9L2_SimpleIfEEED2Ev@Base 1.6
 (optional=templinst)_ZN3pcl11KdTreeFLANNINS_7PointXYEN5flann9L2_SimpleIfEEEaSERKS5_@Base 1.6
 (optional=templinst)_ZN3pcl11KdTreeFLANNINS_8BoundaryEN5flann9L2_SimpleIfEEE10makeSharedEv@Base 1.6
 (optional=templinst)_ZN3pcl11KdTreeFLANNINS_8BoundaryEN5flann9L2_SimpleIfEEE10setEpsilonEf@Base 1.6
 (optional=templinst)_ZN3pcl11KdTreeFLANNINS_8BoundaryEN5flann9L2_SimpleIfEEE13setInputCloudERKN5boost10shared_ptrIKNS_10PointCloudIS1_EEEERKNS7_IKSt6vectorIiSaIiEEEE@Base 1.6
 (optional=templinst)_ZN3pcl11KdTreeFLANNINS_8BoundaryEN5flann9L2_SimpleIfEEE16setSortedResultsEb@Base 1.6
 (optional=templinst)_ZN3pcl11KdTreeFLANNINS_8BoundaryEN5flann9L2_SimpleIfEEE19convertCloudToArrayERKNS_10PointCloudIS1_EE@Base 1.6
 (optional=templinst)_ZN3pcl11KdTreeFLANNINS_8BoundaryEN5flann9L2_SimpleIfEEE19convertCloudToArrayERKNS_10PointCloudIS1_EERKSt6vectorIiSaIiEE@Base 1.6
 (optional=templinst)_ZN3pcl11KdTreeFLANNINS_8BoundaryEN5flann9L2_SimpleIfEEE7cleanupEv@Base 1.6
 (optional=templinst)_ZN3pcl11KdTreeFLANNINS_8BoundaryEN5flann9L2_SimpleIfEEEC1ERKS5_@Base 1.6
 (optional=templinst)_ZN3pcl11KdTreeFLANNINS_8BoundaryEN5flann9L2_SimpleIfEEEC1Eb@Base 1.6
 (optional=templinst)_ZN3pcl11KdTreeFLANNINS_8BoundaryEN5flann9L2_SimpleIfEEEC2ERKS5_@Base 1.6
 (optional=templinst)_ZN3pcl11KdTreeFLANNINS_8BoundaryEN5flann9L2_SimpleIfEEEC2Eb@Base 1.6
 (optional=templinst)_ZN3pcl11KdTreeFLANNINS_8BoundaryEN5flann9L2_SimpleIfEEED0Ev@Base 1.6
 (optional=templinst)_ZN3pcl11KdTreeFLANNINS_8BoundaryEN5flann9L2_SimpleIfEEED1Ev@Base 1.6
 (optional=templinst)_ZN3pcl11KdTreeFLANNINS_8BoundaryEN5flann9L2_SimpleIfEEED2Ev@Base 1.6
 (optional=templinst)_ZN3pcl11KdTreeFLANNINS_8BoundaryEN5flann9L2_SimpleIfEEEaSERKS5_@Base 1.6
 (optional=templinst)_ZN3pcl11KdTreeFLANNINS_8PointXYZEN5flann9L2_SimpleIfEEE10makeSharedEv@Base 1.6
 (optional=templinst)_ZN3pcl11KdTreeFLANNINS_8PointXYZEN5flann9L2_SimpleIfEEE10setEpsilonEf@Base 1.6
 (optional=templinst)_ZN3pcl11KdTreeFLANNINS_8PointXYZEN5flann9L2_SimpleIfEEE13setInputCloudERKN5boost10shared_ptrIKNS_10PointCloudIS1_EEEERKNS7_IKSt6vectorIiSaIiEEEE@Base 1.6
 (optional=templinst)_ZN3pcl11KdTreeFLANNINS_8PointXYZEN5flann9L2_SimpleIfEEE16setSortedResultsEb@Base 1.6
 (optional=templinst)_ZN3pcl11KdTreeFLANNINS_8PointXYZEN5flann9L2_SimpleIfEEE19convertCloudToArrayERKNS_10PointCloudIS1_EE@Base 1.6
 (optional=templinst)_ZN3pcl11KdTreeFLANNINS_8PointXYZEN5flann9L2_SimpleIfEEE19convertCloudToArrayERKNS_10PointCloudIS1_EERKSt6vectorIiSaIiEE@Base 1.6
 (optional=templinst)_ZN3pcl11KdTreeFLANNINS_8PointXYZEN5flann9L2_SimpleIfEEE7cleanupEv@Base 1.6
 (optional=templinst)_ZN3pcl11KdTreeFLANNINS_8PointXYZEN5flann9L2_SimpleIfEEEC1ERKS5_@Base 1.6
 (optional=templinst)_ZN3pcl11KdTreeFLANNINS_8PointXYZEN5flann9L2_SimpleIfEEEC1Eb@Base 1.6
 (optional=templinst)_ZN3pcl11KdTreeFLANNINS_8PointXYZEN5flann9L2_SimpleIfEEEC2ERKS5_@Base 1.6
 (optional=templinst)_ZN3pcl11KdTreeFLANNINS_8PointXYZEN5flann9L2_SimpleIfEEEC2Eb@Base 1.6
 (optional=templinst)_ZN3pcl11KdTreeFLANNINS_8PointXYZEN5flann9L2_SimpleIfEEED0Ev@Base 1.6
 (optional=templinst)_ZN3pcl11KdTreeFLANNINS_8PointXYZEN5flann9L2_SimpleIfEEED1Ev@Base 1.6
 (optional=templinst)_ZN3pcl11KdTreeFLANNINS_8PointXYZEN5flann9L2_SimpleIfEEED2Ev@Base 1.6
 (optional=templinst)_ZN3pcl11KdTreeFLANNINS_8PointXYZEN5flann9L2_SimpleIfEEEaSERKS5_@Base 1.6
 (optional=templinst)_ZN3pcl11KdTreeFLANNINS_9PointXYZIEN5flann9L2_SimpleIfEEE10makeSharedEv@Base 1.6
 (optional=templinst)_ZN3pcl11KdTreeFLANNINS_9PointXYZIEN5flann9L2_SimpleIfEEE10setEpsilonEf@Base 1.6
 (optional=templinst)_ZN3pcl11KdTreeFLANNINS_9PointXYZIEN5flann9L2_SimpleIfEEE13setInputCloudERKN5boost10shared_ptrIKNS_10PointCloudIS1_EEEERKNS7_IKSt6vectorIiSaIiEEEE@Base 1.6
 (optional=templinst)_ZN3pcl11KdTreeFLANNINS_9PointXYZIEN5flann9L2_SimpleIfEEE16setSortedResultsEb@Base 1.6
 (optional=templinst)_ZN3pcl11KdTreeFLANNINS_9PointXYZIEN5flann9L2_SimpleIfEEE19convertCloudToArrayERKNS_10PointCloudIS1_EE@Base 1.6
 (optional=templinst)_ZN3pcl11KdTreeFLANNINS_9PointXYZIEN5flann9L2_SimpleIfEEE19convertCloudToArrayERKNS_10PointCloudIS1_EERKSt6vectorIiSaIiEE@Base 1.6
 (optional=templinst)_ZN3pcl11KdTreeFLANNINS_9PointXYZIEN5flann9L2_SimpleIfEEE7cleanupEv@Base 1.6
 (optional=templinst)_ZN3pcl11KdTreeFLANNINS_9PointXYZIEN5flann9L2_SimpleIfEEEC1ERKS5_@Base 1.6
 (optional=templinst)_ZN3pcl11KdTreeFLANNINS_9PointXYZIEN5flann9L2_SimpleIfEEEC1Eb@Base 1.6
 (optional=templinst)_ZN3pcl11KdTreeFLANNINS_9PointXYZIEN5flann9L2_SimpleIfEEEC2ERKS5_@Base 1.6
 (optional=templinst)_ZN3pcl11KdTreeFLANNINS_9PointXYZIEN5flann9L2_SimpleIfEEEC2Eb@Base 1.6
 (optional=templinst)_ZN3pcl11KdTreeFLANNINS_9PointXYZIEN5flann9L2_SimpleIfEEED0Ev@Base 1.6
 (optional=templinst)_ZN3pcl11KdTreeFLANNINS_9PointXYZIEN5flann9L2_SimpleIfEEED1Ev@Base 1.6
 (optional=templinst)_ZN3pcl11KdTreeFLANNINS_9PointXYZIEN5flann9L2_SimpleIfEEED2Ev@Base 1.6
 (optional=templinst)_ZN3pcl11KdTreeFLANNINS_9PointXYZIEN5flann9L2_SimpleIfEEEaSERKS5_@Base 1.6
 (optional=templinst)_ZN3pcl11KdTreeFLANNINS_9PointXYZLEN5flann9L2_SimpleIfEEE10makeSharedEv@Base 1.6
 (optional=templinst)_ZN3pcl11KdTreeFLANNINS_9PointXYZLEN5flann9L2_SimpleIfEEE10setEpsilonEf@Base 1.6
 (optional=templinst)_ZN3pcl11KdTreeFLANNINS_9PointXYZLEN5flann9L2_SimpleIfEEE13setInputCloudERKN5boost10shared_ptrIKNS_10PointCloudIS1_EEEERKNS7_IKSt6vectorIiSaIiEEEE@Base 1.6
 (optional=templinst)_ZN3pcl11KdTreeFLANNINS_9PointXYZLEN5flann9L2_SimpleIfEEE16setSortedResultsEb@Base 1.6
 (optional=templinst)_ZN3pcl11KdTreeFLANNINS_9PointXYZLEN5flann9L2_SimpleIfEEE19convertCloudToArrayERKNS_10PointCloudIS1_EE@Base 1.6
 (optional=templinst)_ZN3pcl11KdTreeFLANNINS_9PointXYZLEN5flann9L2_SimpleIfEEE19convertCloudToArrayERKNS_10PointCloudIS1_EERKSt6vectorIiSaIiEE@Base 1.6
 (optional=templinst)_ZN3pcl11KdTreeFLANNINS_9PointXYZLEN5flann9L2_SimpleIfEEE7cleanupEv@Base 1.6
 (optional=templinst)_ZN3pcl11KdTreeFLANNINS_9PointXYZLEN5flann9L2_SimpleIfEEEC1ERKS5_@Base 1.6
 (optional=templinst)_ZN3pcl11KdTreeFLANNINS_9PointXYZLEN5flann9L2_SimpleIfEEEC1Eb@Base 1.6
 (optional=templinst)_ZN3pcl11KdTreeFLANNINS_9PointXYZLEN5flann9L2_SimpleIfEEEC2ERKS5_@Base 1.6
 (optional=templinst)_ZN3pcl11KdTreeFLANNINS_9PointXYZLEN5flann9L2_SimpleIfEEEC2Eb@Base 1.6
 (optional=templinst)_ZN3pcl11KdTreeFLANNINS_9PointXYZLEN5flann9L2_SimpleIfEEED0Ev@Base 1.6
 (optional=templinst)_ZN3pcl11KdTreeFLANNINS_9PointXYZLEN5flann9L2_SimpleIfEEED1Ev@Base 1.6
 (optional=templinst)_ZN3pcl11KdTreeFLANNINS_9PointXYZLEN5flann9L2_SimpleIfEEED2Ev@Base 1.6
 (optional=templinst)_ZN3pcl11KdTreeFLANNINS_9PointXYZLEN5flann9L2_SimpleIfEEEaSERKS5_@Base 1.6
 (optional=templinst)_ZN3pcl19PointRepresentationINS_11PointNormalEED0Ev@Base 1.6
 (optional=templinst)_ZN3pcl19PointRepresentationINS_11PointNormalEED1Ev@Base 1.6
 (optional=templinst)_ZN3pcl19PointRepresentationINS_11PointNormalEED2Ev@Base 1.6
 (optional=templinst)_ZN3pcl19PointRepresentationINS_11PointXYZHSVEED0Ev@Base 1.6
 (optional=templinst)_ZN3pcl19PointRepresentationINS_11PointXYZHSVEED1Ev@Base 1.6
 (optional=templinst)_ZN3pcl19PointRepresentationINS_11PointXYZHSVEED2Ev@Base 1.6
 (optional=templinst)_ZN3pcl19PointRepresentationINS_11PointXYZRGBEED0Ev@Base 1.6
 (optional=templinst)_ZN3pcl19PointRepresentationINS_11PointXYZRGBEED1Ev@Base 1.6
 (optional=templinst)_ZN3pcl19PointRepresentationINS_11PointXYZRGBEED2Ev@Base 1.6
 (optional=templinst)_ZN3pcl19PointRepresentationINS_12PPFSignatureEED0Ev@Base 1.6
 (optional=templinst)_ZN3pcl19PointRepresentationINS_12PPFSignatureEED1Ev@Base 1.6
 (optional=templinst)_ZN3pcl19PointRepresentationINS_12PPFSignatureEED2Ev@Base 1.6
 (optional=templinst)_ZN3pcl19PointRepresentationINS_12PointXYZRGBAEED0Ev@Base 1.6
 (optional=templinst)_ZN3pcl19PointRepresentationINS_12PointXYZRGBAEED1Ev@Base 1.6
 (optional=templinst)_ZN3pcl19PointRepresentationINS_12PointXYZRGBAEED2Ev@Base 1.6
 (optional=templinst)_ZN3pcl19PointRepresentationINS_12PointXYZRGBLEED0Ev@Base 1.6
 (optional=templinst)_ZN3pcl19PointRepresentationINS_12PointXYZRGBLEED1Ev@Base 1.6
 (optional=templinst)_ZN3pcl19PointRepresentationINS_12PointXYZRGBLEED2Ev@Base 1.6
 (optional=templinst)_ZN3pcl19PointRepresentationINS_13InterestPointEED0Ev@Base 1.6
 (optional=templinst)_ZN3pcl19PointRepresentationINS_13InterestPointEED1Ev@Base 1.6
 (optional=templinst)_ZN3pcl19PointRepresentationINS_13InterestPointEED2Ev@Base 1.6
 (optional=templinst)_ZN3pcl19PointRepresentationINS_14PointWithRangeEED0Ev@Base 1.6
 (optional=templinst)_ZN3pcl19PointRepresentationINS_14PointWithRangeEED1Ev@Base 1.6
 (optional=templinst)_ZN3pcl19PointRepresentationINS_14PointWithRangeEED2Ev@Base 1.6
 (optional=templinst)_ZN3pcl19PointRepresentationINS_14PointWithScaleEED0Ev@Base 1.6
 (optional=templinst)_ZN3pcl19PointRepresentationINS_14PointWithScaleEED1Ev@Base 1.6
 (optional=templinst)_ZN3pcl19PointRepresentationINS_14PointWithScaleEED2Ev@Base 1.6
 (optional=templinst)_ZN3pcl19PointRepresentationINS_14ReferenceFrameEED0Ev@Base 1.6
 (optional=templinst)_ZN3pcl19PointRepresentationINS_14ReferenceFrameEED1Ev@Base 1.6
 (optional=templinst)_ZN3pcl19PointRepresentationINS_14ReferenceFrameEED2Ev@Base 1.6
 (optional=templinst)_ZN3pcl19PointRepresentationINS_15ESFSignature640EED0Ev@Base 1.6
 (optional=templinst)_ZN3pcl19PointRepresentationINS_15ESFSignature640EED1Ev@Base 1.6
 (optional=templinst)_ZN3pcl19PointRepresentationINS_15ESFSignature640EED2Ev@Base 1.6
 (optional=templinst)_ZN3pcl19PointRepresentationINS_15FPFHSignature33EED0Ev@Base 1.6
 (optional=templinst)_ZN3pcl19PointRepresentationINS_15FPFHSignature33EED1Ev@Base 1.6
 (optional=templinst)_ZN3pcl19PointRepresentationINS_15FPFHSignature33EED2Ev@Base 1.6
 (optional=templinst)_ZN3pcl19PointRepresentationINS_15PFHSignature125EED0Ev@Base 1.6
 (optional=templinst)_ZN3pcl19PointRepresentationINS_15PFHSignature125EED1Ev@Base 1.6
 (optional=templinst)_ZN3pcl19PointRepresentationINS_15PFHSignature125EED2Ev@Base 1.6
 (optional=templinst)_ZN3pcl19PointRepresentationINS_15PPFRGBSignatureEED0Ev@Base 1.6
 (optional=templinst)_ZN3pcl19PointRepresentationINS_15PPFRGBSignatureEED1Ev@Base 1.6
 (optional=templinst)_ZN3pcl19PointRepresentationINS_15PPFRGBSignatureEED2Ev@Base 1.6
 (optional=templinst)_ZN3pcl19PointRepresentationINS_15PointXYZINormalEED0Ev@Base 1.6
 (optional=templinst)_ZN3pcl19PointRepresentationINS_15PointXYZINormalEED1Ev@Base 1.6
 (optional=templinst)_ZN3pcl19PointRepresentationINS_15PointXYZINormalEED2Ev@Base 1.6
 (optional=templinst)_ZN3pcl19PointRepresentationINS_15VFHSignature308EED0Ev@Base 1.6
 (optional=templinst)_ZN3pcl19PointRepresentationINS_15VFHSignature308EED1Ev@Base 1.6
 (optional=templinst)_ZN3pcl19PointRepresentationINS_15VFHSignature308EED2Ev@Base 1.6
 (optional=templinst)_ZN3pcl19PointRepresentationINS_16MomentInvariantsEED0Ev@Base 1.6
 (optional=templinst)_ZN3pcl19PointRepresentationINS_16MomentInvariantsEED1Ev@Base 1.6
 (optional=templinst)_ZN3pcl19PointRepresentationINS_16MomentInvariantsEED2Ev@Base 1.6
 (optional=templinst)_ZN3pcl19PointRepresentationINS_17IntensityGradientEED0Ev@Base 1.6
 (optional=templinst)_ZN3pcl19PointRepresentationINS_17IntensityGradientEED1Ev@Base 1.6
 (optional=templinst)_ZN3pcl19PointRepresentationINS_17IntensityGradientEED2Ev@Base 1.6
 (optional=templinst)_ZN3pcl19PointRepresentationINS_17PointXYZRGBNormalEED0Ev@Base 1.6
 (optional=templinst)_ZN3pcl19PointRepresentationINS_17PointXYZRGBNormalEED1Ev@Base 1.6
 (optional=templinst)_ZN3pcl19PointRepresentationINS_17PointXYZRGBNormalEED2Ev@Base 1.6
 (optional=templinst)_ZN3pcl19PointRepresentationINS_17PrincipalRadiiRSDEED0Ev@Base 1.6
 (optional=templinst)_ZN3pcl19PointRepresentationINS_17PrincipalRadiiRSDEED1Ev@Base 1.6
 (optional=templinst)_ZN3pcl19PointRepresentationINS_17PrincipalRadiiRSDEED2Ev@Base 1.6
 (optional=templinst)_ZN3pcl19PointRepresentationINS_18PFHRGBSignature250EED0Ev@Base 1.6
 (optional=templinst)_ZN3pcl19PointRepresentationINS_18PFHRGBSignature250EED1Ev@Base 1.6
 (optional=templinst)_ZN3pcl19PointRepresentationINS_18PFHRGBSignature250EED2Ev@Base 1.6
 (optional=templinst)_ZN3pcl19PointRepresentationINS_18PointWithViewpointEED0Ev@Base 1.6
 (optional=templinst)_ZN3pcl19PointRepresentationINS_18PointWithViewpointEED1Ev@Base 1.6
 (optional=templinst)_ZN3pcl19PointRepresentationINS_18PointWithViewpointEED2Ev@Base 1.6
 (optional=templinst)_ZN3pcl19PointRepresentationINS_19PrincipalCurvaturesEED0Ev@Base 1.6
 (optional=templinst)_ZN3pcl19PointRepresentationINS_19PrincipalCurvaturesEED1Ev@Base 1.6
 (optional=templinst)_ZN3pcl19PointRepresentationINS_19PrincipalCurvaturesEED2Ev@Base 1.6
 (optional=templinst)_ZN3pcl19PointRepresentationINS_22NormalBasedSignature12EED0Ev@Base 1.6
 (optional=templinst)_ZN3pcl19PointRepresentationINS_22NormalBasedSignature12EED1Ev@Base 1.6
 (optional=templinst)_ZN3pcl19PointRepresentationINS_22NormalBasedSignature12EED2Ev@Base 1.6
 (optional=templinst)_ZN3pcl19PointRepresentationINS_4AxisEED0Ev@Base 1.6
 (optional=templinst)_ZN3pcl19PointRepresentationINS_4AxisEED1Ev@Base 1.6
 (optional=templinst)_ZN3pcl19PointRepresentationINS_4AxisEED2Ev@Base 1.6
 (optional=templinst)_ZN3pcl19PointRepresentationINS_5LabelEED0Ev@Base 1.6
 (optional=templinst)_ZN3pcl19PointRepresentationINS_5LabelEED1Ev@Base 1.6
 (optional=templinst)_ZN3pcl19PointRepresentationINS_5LabelEED2Ev@Base 1.6
 (optional=templinst)_ZN3pcl19PointRepresentationINS_6Narf36EED0Ev@Base 1.6
 (optional=templinst)_ZN3pcl19PointRepresentationINS_6Narf36EED1Ev@Base 1.6
 (optional=templinst)_ZN3pcl19PointRepresentationINS_6Narf36EED2Ev@Base 1.6
 (optional=templinst)_ZN3pcl19PointRepresentationINS_6NormalEED0Ev@Base 1.6
 (optional=templinst)_ZN3pcl19PointRepresentationINS_6NormalEED1Ev@Base 1.6
 (optional=templinst)_ZN3pcl19PointRepresentationINS_6NormalEED2Ev@Base 1.6
 (optional=templinst)_ZN3pcl19PointRepresentationINS_7PointXYEED0Ev@Base 1.6
 (optional=templinst)_ZN3pcl19PointRepresentationINS_7PointXYEED1Ev@Base 1.6
 (optional=templinst)_ZN3pcl19PointRepresentationINS_7PointXYEED2Ev@Base 1.6
 (optional=templinst)_ZN3pcl19PointRepresentationINS_8BoundaryEED0Ev@Base 1.6
 (optional=templinst)_ZN3pcl19PointRepresentationINS_8BoundaryEED1Ev@Base 1.6
 (optional=templinst)_ZN3pcl19PointRepresentationINS_8BoundaryEED2Ev@Base 1.6
 (optional=templinst)_ZN3pcl19PointRepresentationINS_8PointXYZEED0Ev@Base 1.6
 (optional=templinst)_ZN3pcl19PointRepresentationINS_8PointXYZEED1Ev@Base 1.6
 (optional=templinst)_ZN3pcl19PointRepresentationINS_8PointXYZEED2Ev@Base 1.6
 (optional=templinst)_ZN3pcl19PointRepresentationINS_9PointXYZIEED0Ev@Base 1.6
 (optional=templinst)_ZN3pcl19PointRepresentationINS_9PointXYZIEED1Ev@Base 1.6
 (optional=templinst)_ZN3pcl19PointRepresentationINS_9PointXYZIEED2Ev@Base 1.6
 (optional=templinst)_ZN3pcl19PointRepresentationINS_9PointXYZLEED0Ev@Base 1.6
 (optional=templinst)_ZN3pcl19PointRepresentationINS_9PointXYZLEED1Ev@Base 1.6
 (optional=templinst)_ZN3pcl19PointRepresentationINS_9PointXYZLEED2Ev@Base 1.6
 (optional=templinst)_ZN3pcl26DefaultPointRepresentationINS_11PointNormalEED0Ev@Base 1.6
 (optional=templinst)_ZN3pcl26DefaultPointRepresentationINS_11PointNormalEED1Ev@Base 1.6
 (optional=templinst)_ZN3pcl26DefaultPointRepresentationINS_11PointNormalEED2Ev@Base 1.6
 (optional=templinst)_ZN3pcl26DefaultPointRepresentationINS_11PointXYZHSVEED0Ev@Base 1.6
 (optional=templinst)_ZN3pcl26DefaultPointRepresentationINS_11PointXYZHSVEED1Ev@Base 1.6
 (optional=templinst)_ZN3pcl26DefaultPointRepresentationINS_11PointXYZHSVEED2Ev@Base 1.6
 (optional=templinst)_ZN3pcl26DefaultPointRepresentationINS_11PointXYZRGBEED0Ev@Base 1.6
 (optional=templinst)_ZN3pcl26DefaultPointRepresentationINS_11PointXYZRGBEED1Ev@Base 1.6
 (optional=templinst)_ZN3pcl26DefaultPointRepresentationINS_11PointXYZRGBEED2Ev@Base 1.6
 (optional=templinst)_ZN3pcl26DefaultPointRepresentationINS_12PPFSignatureEED0Ev@Base 1.6
 (optional=templinst)_ZN3pcl26DefaultPointRepresentationINS_12PPFSignatureEED1Ev@Base 1.6
 (optional=templinst)_ZN3pcl26DefaultPointRepresentationINS_12PPFSignatureEED2Ev@Base 1.6
 (optional=templinst)_ZN3pcl26DefaultPointRepresentationINS_12PointXYZRGBAEED0Ev@Base 1.6
 (optional=templinst)_ZN3pcl26DefaultPointRepresentationINS_12PointXYZRGBAEED1Ev@Base 1.6
 (optional=templinst)_ZN3pcl26DefaultPointRepresentationINS_12PointXYZRGBAEED2Ev@Base 1.6
 (optional=templinst)_ZN3pcl26DefaultPointRepresentationINS_12PointXYZRGBLEED0Ev@Base 1.6
 (optional=templinst)_ZN3pcl26DefaultPointRepresentationINS_12PointXYZRGBLEED1Ev@Base 1.6
 (optional=templinst)_ZN3pcl26DefaultPointRepresentationINS_12PointXYZRGBLEED2Ev@Base 1.6
 (optional=templinst)_ZN3pcl26DefaultPointRepresentationINS_13InterestPointEED0Ev@Base 1.6
 (optional=templinst)_ZN3pcl26DefaultPointRepresentationINS_13InterestPointEED1Ev@Base 1.6
 (optional=templinst)_ZN3pcl26DefaultPointRepresentationINS_13InterestPointEED2Ev@Base 1.6
 (optional=templinst)_ZN3pcl26DefaultPointRepresentationINS_14PointWithRangeEED0Ev@Base 1.6
 (optional=templinst)_ZN3pcl26DefaultPointRepresentationINS_14PointWithRangeEED1Ev@Base 1.6
 (optional=templinst)_ZN3pcl26DefaultPointRepresentationINS_14PointWithRangeEED2Ev@Base 1.6
 (optional=templinst)_ZN3pcl26DefaultPointRepresentationINS_14PointWithScaleEED0Ev@Base 1.6
 (optional=templinst)_ZN3pcl26DefaultPointRepresentationINS_14PointWithScaleEED1Ev@Base 1.6
 (optional=templinst)_ZN3pcl26DefaultPointRepresentationINS_14PointWithScaleEED2Ev@Base 1.6
 (optional=templinst)_ZN3pcl26DefaultPointRepresentationINS_14ReferenceFrameEED0Ev@Base 1.6
 (optional=templinst)_ZN3pcl26DefaultPointRepresentationINS_14ReferenceFrameEED1Ev@Base 1.6
 (optional=templinst)_ZN3pcl26DefaultPointRepresentationINS_14ReferenceFrameEED2Ev@Base 1.6
 (optional=templinst)_ZN3pcl26DefaultPointRepresentationINS_15ESFSignature640EED0Ev@Base 1.6
 (optional=templinst)_ZN3pcl26DefaultPointRepresentationINS_15ESFSignature640EED1Ev@Base 1.6
 (optional=templinst)_ZN3pcl26DefaultPointRepresentationINS_15ESFSignature640EED2Ev@Base 1.6
 (optional=templinst)_ZN3pcl26DefaultPointRepresentationINS_15FPFHSignature33EED0Ev@Base 1.6
 (optional=templinst)_ZN3pcl26DefaultPointRepresentationINS_15FPFHSignature33EED1Ev@Base 1.6
 (optional=templinst)_ZN3pcl26DefaultPointRepresentationINS_15FPFHSignature33EED2Ev@Base 1.6
 (optional=templinst)_ZN3pcl26DefaultPointRepresentationINS_15PFHSignature125EED0Ev@Base 1.6
 (optional=templinst)_ZN3pcl26DefaultPointRepresentationINS_15PFHSignature125EED1Ev@Base 1.6
 (optional=templinst)_ZN3pcl26DefaultPointRepresentationINS_15PFHSignature125EED2Ev@Base 1.6
 (optional=templinst)_ZN3pcl26DefaultPointRepresentationINS_15PPFRGBSignatureEED0Ev@Base 1.6
 (optional=templinst)_ZN3pcl26DefaultPointRepresentationINS_15PPFRGBSignatureEED1Ev@Base 1.6
 (optional=templinst)_ZN3pcl26DefaultPointRepresentationINS_15PPFRGBSignatureEED2Ev@Base 1.6
 (optional=templinst)_ZN3pcl26DefaultPointRepresentationINS_15PointXYZINormalEED0Ev@Base 1.6
 (optional=templinst)_ZN3pcl26DefaultPointRepresentationINS_15PointXYZINormalEED1Ev@Base 1.6
 (optional=templinst)_ZN3pcl26DefaultPointRepresentationINS_15PointXYZINormalEED2Ev@Base 1.6
 (optional=templinst)_ZN3pcl26DefaultPointRepresentationINS_15VFHSignature308EED0Ev@Base 1.6
 (optional=templinst)_ZN3pcl26DefaultPointRepresentationINS_15VFHSignature308EED1Ev@Base 1.6
 (optional=templinst)_ZN3pcl26DefaultPointRepresentationINS_15VFHSignature308EED2Ev@Base 1.6
 (optional=templinst)_ZN3pcl26DefaultPointRepresentationINS_16MomentInvariantsEED0Ev@Base 1.6
 (optional=templinst)_ZN3pcl26DefaultPointRepresentationINS_16MomentInvariantsEED1Ev@Base 1.6
 (optional=templinst)_ZN3pcl26DefaultPointRepresentationINS_16MomentInvariantsEED2Ev@Base 1.6
 (optional=templinst)_ZN3pcl26DefaultPointRepresentationINS_17IntensityGradientEED0Ev@Base 1.6
 (optional=templinst)_ZN3pcl26DefaultPointRepresentationINS_17IntensityGradientEED1Ev@Base 1.6
 (optional=templinst)_ZN3pcl26DefaultPointRepresentationINS_17IntensityGradientEED2Ev@Base 1.6
 (optional=templinst)_ZN3pcl26DefaultPointRepresentationINS_17PointXYZRGBNormalEED0Ev@Base 1.6
 (optional=templinst)_ZN3pcl26DefaultPointRepresentationINS_17PointXYZRGBNormalEED1Ev@Base 1.6
 (optional=templinst)_ZN3pcl26DefaultPointRepresentationINS_17PointXYZRGBNormalEED2Ev@Base 1.6
 (optional=templinst)_ZN3pcl26DefaultPointRepresentationINS_17PrincipalRadiiRSDEED0Ev@Base 1.6
 (optional=templinst)_ZN3pcl26DefaultPointRepresentationINS_17PrincipalRadiiRSDEED1Ev@Base 1.6
 (optional=templinst)_ZN3pcl26DefaultPointRepresentationINS_17PrincipalRadiiRSDEED2Ev@Base 1.6
 (optional=templinst)_ZN3pcl26DefaultPointRepresentationINS_18PFHRGBSignature250EED0Ev@Base 1.6
 (optional=templinst)_ZN3pcl26DefaultPointRepresentationINS_18PFHRGBSignature250EED1Ev@Base 1.6
 (optional=templinst)_ZN3pcl26DefaultPointRepresentationINS_18PFHRGBSignature250EED2Ev@Base 1.6
 (optional=templinst)_ZN3pcl26DefaultPointRepresentationINS_18PointWithViewpointEED0Ev@Base 1.6
 (optional=templinst)_ZN3pcl26DefaultPointRepresentationINS_18PointWithViewpointEED1Ev@Base 1.6
 (optional=templinst)_ZN3pcl26DefaultPointRepresentationINS_18PointWithViewpointEED2Ev@Base 1.6
 (optional=templinst)_ZN3pcl26DefaultPointRepresentationINS_19PrincipalCurvaturesEED0Ev@Base 1.6
 (optional=templinst)_ZN3pcl26DefaultPointRepresentationINS_19PrincipalCurvaturesEED1Ev@Base 1.6
 (optional=templinst)_ZN3pcl26DefaultPointRepresentationINS_19PrincipalCurvaturesEED2Ev@Base 1.6
 (optional=templinst)_ZN3pcl26DefaultPointRepresentationINS_22NormalBasedSignature12EED0Ev@Base 1.6
 (optional=templinst)_ZN3pcl26DefaultPointRepresentationINS_22NormalBasedSignature12EED1Ev@Base 1.6
 (optional=templinst)_ZN3pcl26DefaultPointRepresentationINS_22NormalBasedSignature12EED2Ev@Base 1.6
 (optional=templinst)_ZN3pcl26DefaultPointRepresentationINS_4AxisEED0Ev@Base 1.6
 (optional=templinst)_ZN3pcl26DefaultPointRepresentationINS_4AxisEED1Ev@Base 1.6
 (optional=templinst)_ZN3pcl26DefaultPointRepresentationINS_4AxisEED2Ev@Base 1.6
 (optional=templinst)_ZN3pcl26DefaultPointRepresentationINS_5LabelEED0Ev@Base 1.6
 (optional=templinst)_ZN3pcl26DefaultPointRepresentationINS_5LabelEED1Ev@Base 1.6
 (optional=templinst)_ZN3pcl26DefaultPointRepresentationINS_5LabelEED2Ev@Base 1.6
 (optional=templinst)_ZN3pcl26DefaultPointRepresentationINS_6Narf36EED0Ev@Base 1.6
 (optional=templinst)_ZN3pcl26DefaultPointRepresentationINS_6Narf36EED1Ev@Base 1.6
 (optional=templinst)_ZN3pcl26DefaultPointRepresentationINS_6Narf36EED2Ev@Base 1.6
 (optional=templinst)_ZN3pcl26DefaultPointRepresentationINS_6NormalEED0Ev@Base 1.6
 (optional=templinst)_ZN3pcl26DefaultPointRepresentationINS_6NormalEED1Ev@Base 1.6
 (optional=templinst)_ZN3pcl26DefaultPointRepresentationINS_6NormalEED2Ev@Base 1.6
 (optional=templinst)_ZN3pcl26DefaultPointRepresentationINS_7PointXYEED0Ev@Base 1.6
 (optional=templinst)_ZN3pcl26DefaultPointRepresentationINS_7PointXYEED1Ev@Base 1.6
 (optional=templinst)_ZN3pcl26DefaultPointRepresentationINS_7PointXYEED2Ev@Base 1.6
 (optional=templinst)_ZN3pcl26DefaultPointRepresentationINS_8BoundaryEED0Ev@Base 1.6
 (optional=templinst)_ZN3pcl26DefaultPointRepresentationINS_8BoundaryEED1Ev@Base 1.6
 (optional=templinst)_ZN3pcl26DefaultPointRepresentationINS_8BoundaryEED2Ev@Base 1.6
 (optional=templinst)_ZN3pcl26DefaultPointRepresentationINS_8PointXYZEED0Ev@Base 1.6
 (optional=templinst)_ZN3pcl26DefaultPointRepresentationINS_8PointXYZEED1Ev@Base 1.6
 (optional=templinst)_ZN3pcl26DefaultPointRepresentationINS_8PointXYZEED2Ev@Base 1.6
 (optional=templinst)_ZN3pcl26DefaultPointRepresentationINS_9PointXYZIEED0Ev@Base 1.6
 (optional=templinst)_ZN3pcl26DefaultPointRepresentationINS_9PointXYZIEED1Ev@Base 1.6
 (optional=templinst)_ZN3pcl26DefaultPointRepresentationINS_9PointXYZIEED2Ev@Base 1.6
 (optional=templinst)_ZN3pcl26DefaultPointRepresentationINS_9PointXYZLEED0Ev@Base 1.6
 (optional=templinst)_ZN3pcl26DefaultPointRepresentationINS_9PointXYZLEED1Ev@Base 1.6
 (optional=templinst)_ZN3pcl26DefaultPointRepresentationINS_9PointXYZLEED2Ev@Base 1.6
 (optional=templinst)_ZN3pcl28DefaultFeatureRepresentationINS_12PPFSignatureEEC1Ev@Base 1.6
 (optional=templinst)_ZN3pcl28DefaultFeatureRepresentationINS_12PPFSignatureEEC2Ev@Base 1.6
 (optional=templinst)_ZN3pcl28DefaultFeatureRepresentationINS_12PPFSignatureEED0Ev@Base 1.6
 (optional=templinst)_ZN3pcl28DefaultFeatureRepresentationINS_12PPFSignatureEED1Ev@Base 1.6
 (optional=templinst)_ZN3pcl28DefaultFeatureRepresentationINS_12PPFSignatureEED2Ev@Base 1.6
 (optional=templinst)_ZN3pcl28DefaultFeatureRepresentationINS_15FPFHSignature33EED0Ev@Base 1.6
 (optional=templinst)_ZN3pcl28DefaultFeatureRepresentationINS_15FPFHSignature33EED1Ev@Base 1.6
 (optional=templinst)_ZN3pcl28DefaultFeatureRepresentationINS_15FPFHSignature33EED2Ev@Base 1.6
 (optional=templinst)_ZN3pcl28DefaultFeatureRepresentationINS_15PFHSignature125EED0Ev@Base 1.6
 (optional=templinst)_ZN3pcl28DefaultFeatureRepresentationINS_15PFHSignature125EED1Ev@Base 1.6
 (optional=templinst)_ZN3pcl28DefaultFeatureRepresentationINS_15PFHSignature125EED2Ev@Base 1.6
 (optional=templinst)_ZN3pcl28DefaultFeatureRepresentationINS_15VFHSignature308EED0Ev@Base 1.6
 (optional=templinst)_ZN3pcl28DefaultFeatureRepresentationINS_15VFHSignature308EED1Ev@Base 1.6
 (optional=templinst)_ZN3pcl28DefaultFeatureRepresentationINS_15VFHSignature308EED2Ev@Base 1.6
 (optional=templinst)_ZN3pcl28DefaultFeatureRepresentationINS_18PFHRGBSignature250EED0Ev@Base 1.6
 (optional=templinst)_ZN3pcl28DefaultFeatureRepresentationINS_18PFHRGBSignature250EED1Ev@Base 1.6
 (optional=templinst)_ZN3pcl28DefaultFeatureRepresentationINS_18PFHRGBSignature250EED2Ev@Base 1.6
 (optional=templinst)_ZN3pcl28DefaultFeatureRepresentationINS_22NormalBasedSignature12EED0Ev@Base 1.6
 (optional=templinst)_ZN3pcl28DefaultFeatureRepresentationINS_22NormalBasedSignature12EED1Ev@Base 1.6
 (optional=templinst)_ZN3pcl28DefaultFeatureRepresentationINS_22NormalBasedSignature12EED2Ev@Base 1.6
 (optional=templinst)_ZN3pcl6KdTreeINS_11PointNormalEE10setEpsilonEf@Base 1.6
 (optional=templinst)_ZN3pcl6KdTreeINS_11PointNormalEE13setInputCloudERKN5boost10shared_ptrIKNS_10PointCloudIS1_EEEERKNS4_IKSt6vectorIiSaIiEEEE@Base 1.6
 (optional=templinst)_ZN3pcl6KdTreeINS_11PointNormalEEC1Eb@Base 1.6
 (optional=templinst)_ZN3pcl6KdTreeINS_11PointNormalEEC2Eb@Base 1.6
 (optional=templinst)_ZN3pcl6KdTreeINS_11PointNormalEED0Ev@Base 1.6
 (optional=templinst)_ZN3pcl6KdTreeINS_11PointNormalEED1Ev@Base 1.6
 (optional=templinst)_ZN3pcl6KdTreeINS_11PointNormalEED2Ev@Base 1.6
 (optional=templinst)_ZN3pcl6KdTreeINS_11PointNormalEEaSERKS2_@Base 1.6
 (optional=templinst)_ZN3pcl6KdTreeINS_11PointXYZHSVEE10setEpsilonEf@Base 1.6
 (optional=templinst)_ZN3pcl6KdTreeINS_11PointXYZHSVEE13setInputCloudERKN5boost10shared_ptrIKNS_10PointCloudIS1_EEEERKNS4_IKSt6vectorIiSaIiEEEE@Base 1.6
 (optional=templinst)_ZN3pcl6KdTreeINS_11PointXYZHSVEEC1Eb@Base 1.6
 (optional=templinst)_ZN3pcl6KdTreeINS_11PointXYZHSVEEC2Eb@Base 1.6
 (optional=templinst)_ZN3pcl6KdTreeINS_11PointXYZHSVEED0Ev@Base 1.6
 (optional=templinst)_ZN3pcl6KdTreeINS_11PointXYZHSVEED1Ev@Base 1.6
 (optional=templinst)_ZN3pcl6KdTreeINS_11PointXYZHSVEED2Ev@Base 1.6
 (optional=templinst)_ZN3pcl6KdTreeINS_11PointXYZHSVEEaSERKS2_@Base 1.6
 (optional=templinst)_ZN3pcl6KdTreeINS_11PointXYZRGBEE10setEpsilonEf@Base 1.6
 (optional=templinst)_ZN3pcl6KdTreeINS_11PointXYZRGBEE13setInputCloudERKN5boost10shared_ptrIKNS_10PointCloudIS1_EEEERKNS4_IKSt6vectorIiSaIiEEEE@Base 1.6
 (optional=templinst)_ZN3pcl6KdTreeINS_11PointXYZRGBEEC1Eb@Base 1.6
 (optional=templinst)_ZN3pcl6KdTreeINS_11PointXYZRGBEEC2Eb@Base 1.6
 (optional=templinst)_ZN3pcl6KdTreeINS_11PointXYZRGBEED0Ev@Base 1.6
 (optional=templinst)_ZN3pcl6KdTreeINS_11PointXYZRGBEED1Ev@Base 1.6
 (optional=templinst)_ZN3pcl6KdTreeINS_11PointXYZRGBEED2Ev@Base 1.6
 (optional=templinst)_ZN3pcl6KdTreeINS_11PointXYZRGBEEaSERKS2_@Base 1.6
 (optional=templinst)_ZN3pcl6KdTreeINS_12PPFSignatureEE10setEpsilonEf@Base 1.6
 (optional=templinst)_ZN3pcl6KdTreeINS_12PPFSignatureEE13setInputCloudERKN5boost10shared_ptrIKNS_10PointCloudIS1_EEEERKNS4_IKSt6vectorIiSaIiEEEE@Base 1.6
 (optional=templinst)_ZN3pcl6KdTreeINS_12PPFSignatureEEC1Eb@Base 1.6
 (optional=templinst)_ZN3pcl6KdTreeINS_12PPFSignatureEEC2Eb@Base 1.6
 (optional=templinst)_ZN3pcl6KdTreeINS_12PPFSignatureEED0Ev@Base 1.6
 (optional=templinst)_ZN3pcl6KdTreeINS_12PPFSignatureEED1Ev@Base 1.6
 (optional=templinst)_ZN3pcl6KdTreeINS_12PPFSignatureEED2Ev@Base 1.6
 (optional=templinst)_ZN3pcl6KdTreeINS_12PPFSignatureEEaSERKS2_@Base 1.6
 (optional=templinst)_ZN3pcl6KdTreeINS_12PointXYZRGBAEE10setEpsilonEf@Base 1.6
 (optional=templinst)_ZN3pcl6KdTreeINS_12PointXYZRGBAEE13setInputCloudERKN5boost10shared_ptrIKNS_10PointCloudIS1_EEEERKNS4_IKSt6vectorIiSaIiEEEE@Base 1.6
 (optional=templinst)_ZN3pcl6KdTreeINS_12PointXYZRGBAEEC1Eb@Base 1.6
 (optional=templinst)_ZN3pcl6KdTreeINS_12PointXYZRGBAEEC2Eb@Base 1.6
 (optional=templinst)_ZN3pcl6KdTreeINS_12PointXYZRGBAEED0Ev@Base 1.6
 (optional=templinst)_ZN3pcl6KdTreeINS_12PointXYZRGBAEED1Ev@Base 1.6
 (optional=templinst)_ZN3pcl6KdTreeINS_12PointXYZRGBAEED2Ev@Base 1.6
 (optional=templinst)_ZN3pcl6KdTreeINS_12PointXYZRGBAEEaSERKS2_@Base 1.6
 (optional=templinst)_ZN3pcl6KdTreeINS_12PointXYZRGBLEE10setEpsilonEf@Base 1.6
 (optional=templinst)_ZN3pcl6KdTreeINS_12PointXYZRGBLEE13setInputCloudERKN5boost10shared_ptrIKNS_10PointCloudIS1_EEEERKNS4_IKSt6vectorIiSaIiEEEE@Base 1.6
 (optional=templinst)_ZN3pcl6KdTreeINS_12PointXYZRGBLEEC1Eb@Base 1.6
 (optional=templinst)_ZN3pcl6KdTreeINS_12PointXYZRGBLEEC2Eb@Base 1.6
 (optional=templinst)_ZN3pcl6KdTreeINS_12PointXYZRGBLEED0Ev@Base 1.6
 (optional=templinst)_ZN3pcl6KdTreeINS_12PointXYZRGBLEED1Ev@Base 1.6
 (optional=templinst)_ZN3pcl6KdTreeINS_12PointXYZRGBLEED2Ev@Base 1.6
 (optional=templinst)_ZN3pcl6KdTreeINS_12PointXYZRGBLEEaSERKS2_@Base 1.6
 (optional=templinst)_ZN3pcl6KdTreeINS_13InterestPointEE10setEpsilonEf@Base 1.6
 (optional=templinst)_ZN3pcl6KdTreeINS_13InterestPointEE13setInputCloudERKN5boost10shared_ptrIKNS_10PointCloudIS1_EEEERKNS4_IKSt6vectorIiSaIiEEEE@Base 1.6
 (optional=templinst)_ZN3pcl6KdTreeINS_13InterestPointEEC1Eb@Base 1.6
 (optional=templinst)_ZN3pcl6KdTreeINS_13InterestPointEEC2Eb@Base 1.6
 (optional=templinst)_ZN3pcl6KdTreeINS_13InterestPointEED0Ev@Base 1.6
 (optional=templinst)_ZN3pcl6KdTreeINS_13InterestPointEED1Ev@Base 1.6
 (optional=templinst)_ZN3pcl6KdTreeINS_13InterestPointEED2Ev@Base 1.6
 (optional=templinst)_ZN3pcl6KdTreeINS_13InterestPointEEaSERKS2_@Base 1.6
 (optional=templinst)_ZN3pcl6KdTreeINS_14PointWithRangeEE10setEpsilonEf@Base 1.6
 (optional=templinst)_ZN3pcl6KdTreeINS_14PointWithRangeEE13setInputCloudERKN5boost10shared_ptrIKNS_10PointCloudIS1_EEEERKNS4_IKSt6vectorIiSaIiEEEE@Base 1.6
 (optional=templinst)_ZN3pcl6KdTreeINS_14PointWithRangeEEC1Eb@Base 1.6
 (optional=templinst)_ZN3pcl6KdTreeINS_14PointWithRangeEEC2Eb@Base 1.6
 (optional=templinst)_ZN3pcl6KdTreeINS_14PointWithRangeEED0Ev@Base 1.6
 (optional=templinst)_ZN3pcl6KdTreeINS_14PointWithRangeEED1Ev@Base 1.6
 (optional=templinst)_ZN3pcl6KdTreeINS_14PointWithRangeEED2Ev@Base 1.6
 (optional=templinst)_ZN3pcl6KdTreeINS_14PointWithRangeEEaSERKS2_@Base 1.6
 (optional=templinst)_ZN3pcl6KdTreeINS_14PointWithScaleEE10setEpsilonEf@Base 1.6
 (optional=templinst)_ZN3pcl6KdTreeINS_14PointWithScaleEE13setInputCloudERKN5boost10shared_ptrIKNS_10PointCloudIS1_EEEERKNS4_IKSt6vectorIiSaIiEEEE@Base 1.6
 (optional=templinst)_ZN3pcl6KdTreeINS_14PointWithScaleEEC1Eb@Base 1.6
 (optional=templinst)_ZN3pcl6KdTreeINS_14PointWithScaleEEC2Eb@Base 1.6
 (optional=templinst)_ZN3pcl6KdTreeINS_14PointWithScaleEED0Ev@Base 1.6
 (optional=templinst)_ZN3pcl6KdTreeINS_14PointWithScaleEED1Ev@Base 1.6
 (optional=templinst)_ZN3pcl6KdTreeINS_14PointWithScaleEED2Ev@Base 1.6
 (optional=templinst)_ZN3pcl6KdTreeINS_14PointWithScaleEEaSERKS2_@Base 1.6
 (optional=templinst)_ZN3pcl6KdTreeINS_14ReferenceFrameEE10setEpsilonEf@Base 1.6
 (optional=templinst)_ZN3pcl6KdTreeINS_14ReferenceFrameEE13setInputCloudERKN5boost10shared_ptrIKNS_10PointCloudIS1_EEEERKNS4_IKSt6vectorIiSaIiEEEE@Base 1.6
 (optional=templinst)_ZN3pcl6KdTreeINS_14ReferenceFrameEEC1Eb@Base 1.6
 (optional=templinst)_ZN3pcl6KdTreeINS_14ReferenceFrameEEC2Eb@Base 1.6
 (optional=templinst)_ZN3pcl6KdTreeINS_14ReferenceFrameEED0Ev@Base 1.6
 (optional=templinst)_ZN3pcl6KdTreeINS_14ReferenceFrameEED1Ev@Base 1.6
 (optional=templinst)_ZN3pcl6KdTreeINS_14ReferenceFrameEED2Ev@Base 1.6
 (optional=templinst)_ZN3pcl6KdTreeINS_14ReferenceFrameEEaSERKS2_@Base 1.6
 (optional=templinst)_ZN3pcl6KdTreeINS_15ESFSignature640EE10setEpsilonEf@Base 1.6
 (optional=templinst)_ZN3pcl6KdTreeINS_15ESFSignature640EE13setInputCloudERKN5boost10shared_ptrIKNS_10PointCloudIS1_EEEERKNS4_IKSt6vectorIiSaIiEEEE@Base 1.6
 (optional=templinst)_ZN3pcl6KdTreeINS_15ESFSignature640EEC1Eb@Base 1.6
 (optional=templinst)_ZN3pcl6KdTreeINS_15ESFSignature640EEC2Eb@Base 1.6
 (optional=templinst)_ZN3pcl6KdTreeINS_15ESFSignature640EED0Ev@Base 1.6
 (optional=templinst)_ZN3pcl6KdTreeINS_15ESFSignature640EED1Ev@Base 1.6
 (optional=templinst)_ZN3pcl6KdTreeINS_15ESFSignature640EED2Ev@Base 1.6
 (optional=templinst)_ZN3pcl6KdTreeINS_15ESFSignature640EEaSERKS2_@Base 1.6
 (optional=templinst)_ZN3pcl6KdTreeINS_15FPFHSignature33EE10setEpsilonEf@Base 1.6
 (optional=templinst)_ZN3pcl6KdTreeINS_15FPFHSignature33EE13setInputCloudERKN5boost10shared_ptrIKNS_10PointCloudIS1_EEEERKNS4_IKSt6vectorIiSaIiEEEE@Base 1.6
 (optional=templinst)_ZN3pcl6KdTreeINS_15FPFHSignature33EEC1Eb@Base 1.6
 (optional=templinst)_ZN3pcl6KdTreeINS_15FPFHSignature33EEC2Eb@Base 1.6
 (optional=templinst)_ZN3pcl6KdTreeINS_15FPFHSignature33EED0Ev@Base 1.6
 (optional=templinst)_ZN3pcl6KdTreeINS_15FPFHSignature33EED1Ev@Base 1.6
 (optional=templinst)_ZN3pcl6KdTreeINS_15FPFHSignature33EED2Ev@Base 1.6
 (optional=templinst)_ZN3pcl6KdTreeINS_15FPFHSignature33EEaSERKS2_@Base 1.6
 (optional=templinst)_ZN3pcl6KdTreeINS_15PFHSignature125EE10setEpsilonEf@Base 1.6
 (optional=templinst)_ZN3pcl6KdTreeINS_15PFHSignature125EE13setInputCloudERKN5boost10shared_ptrIKNS_10PointCloudIS1_EEEERKNS4_IKSt6vectorIiSaIiEEEE@Base 1.6
 (optional=templinst)_ZN3pcl6KdTreeINS_15PFHSignature125EEC1Eb@Base 1.6
 (optional=templinst)_ZN3pcl6KdTreeINS_15PFHSignature125EEC2Eb@Base 1.6
 (optional=templinst)_ZN3pcl6KdTreeINS_15PFHSignature125EED0Ev@Base 1.6
 (optional=templinst)_ZN3pcl6KdTreeINS_15PFHSignature125EED1Ev@Base 1.6
 (optional=templinst)_ZN3pcl6KdTreeINS_15PFHSignature125EED2Ev@Base 1.6
 (optional=templinst)_ZN3pcl6KdTreeINS_15PFHSignature125EEaSERKS2_@Base 1.6
 (optional=templinst)_ZN3pcl6KdTreeINS_15PPFRGBSignatureEE10setEpsilonEf@Base 1.6
 (optional=templinst)_ZN3pcl6KdTreeINS_15PPFRGBSignatureEE13setInputCloudERKN5boost10shared_ptrIKNS_10PointCloudIS1_EEEERKNS4_IKSt6vectorIiSaIiEEEE@Base 1.6
 (optional=templinst)_ZN3pcl6KdTreeINS_15PPFRGBSignatureEEC1Eb@Base 1.6
 (optional=templinst)_ZN3pcl6KdTreeINS_15PPFRGBSignatureEEC2Eb@Base 1.6
 (optional=templinst)_ZN3pcl6KdTreeINS_15PPFRGBSignatureEED0Ev@Base 1.6
 (optional=templinst)_ZN3pcl6KdTreeINS_15PPFRGBSignatureEED1Ev@Base 1.6
 (optional=templinst)_ZN3pcl6KdTreeINS_15PPFRGBSignatureEED2Ev@Base 1.6
 (optional=templinst)_ZN3pcl6KdTreeINS_15PPFRGBSignatureEEaSERKS2_@Base 1.6
 (optional=templinst)_ZN3pcl6KdTreeINS_15PointXYZINormalEE10setEpsilonEf@Base 1.6
 (optional=templinst)_ZN3pcl6KdTreeINS_15PointXYZINormalEE13setInputCloudERKN5boost10shared_ptrIKNS_10PointCloudIS1_EEEERKNS4_IKSt6vectorIiSaIiEEEE@Base 1.6
 (optional=templinst)_ZN3pcl6KdTreeINS_15PointXYZINormalEEC1Eb@Base 1.6
 (optional=templinst)_ZN3pcl6KdTreeINS_15PointXYZINormalEEC2Eb@Base 1.6
 (optional=templinst)_ZN3pcl6KdTreeINS_15PointXYZINormalEED0Ev@Base 1.6
 (optional=templinst)_ZN3pcl6KdTreeINS_15PointXYZINormalEED1Ev@Base 1.6
 (optional=templinst)_ZN3pcl6KdTreeINS_15PointXYZINormalEED2Ev@Base 1.6
 (optional=templinst)_ZN3pcl6KdTreeINS_15PointXYZINormalEEaSERKS2_@Base 1.6
 (optional=templinst)_ZN3pcl6KdTreeINS_15VFHSignature308EE10setEpsilonEf@Base 1.6
 (optional=templinst)_ZN3pcl6KdTreeINS_15VFHSignature308EE13setInputCloudERKN5boost10shared_ptrIKNS_10PointCloudIS1_EEEERKNS4_IKSt6vectorIiSaIiEEEE@Base 1.6
 (optional=templinst)_ZN3pcl6KdTreeINS_15VFHSignature308EEC1Eb@Base 1.6
 (optional=templinst)_ZN3pcl6KdTreeINS_15VFHSignature308EEC2Eb@Base 1.6
 (optional=templinst)_ZN3pcl6KdTreeINS_15VFHSignature308EED0Ev@Base 1.6
 (optional=templinst)_ZN3pcl6KdTreeINS_15VFHSignature308EED1Ev@Base 1.6
 (optional=templinst)_ZN3pcl6KdTreeINS_15VFHSignature308EED2Ev@Base 1.6
 (optional=templinst)_ZN3pcl6KdTreeINS_15VFHSignature308EEaSERKS2_@Base 1.6
 (optional=templinst)_ZN3pcl6KdTreeINS_16MomentInvariantsEE10setEpsilonEf@Base 1.6
 (optional=templinst)_ZN3pcl6KdTreeINS_16MomentInvariantsEE13setInputCloudERKN5boost10shared_ptrIKNS_10PointCloudIS1_EEEERKNS4_IKSt6vectorIiSaIiEEEE@Base 1.6
 (optional=templinst)_ZN3pcl6KdTreeINS_16MomentInvariantsEEC1Eb@Base 1.6
 (optional=templinst)_ZN3pcl6KdTreeINS_16MomentInvariantsEEC2Eb@Base 1.6
 (optional=templinst)_ZN3pcl6KdTreeINS_16MomentInvariantsEED0Ev@Base 1.6
 (optional=templinst)_ZN3pcl6KdTreeINS_16MomentInvariantsEED1Ev@Base 1.6
 (optional=templinst)_ZN3pcl6KdTreeINS_16MomentInvariantsEED2Ev@Base 1.6
 (optional=templinst)_ZN3pcl6KdTreeINS_16MomentInvariantsEEaSERKS2_@Base 1.6
 (optional=templinst)_ZN3pcl6KdTreeINS_17IntensityGradientEE10setEpsilonEf@Base 1.6
 (optional=templinst)_ZN3pcl6KdTreeINS_17IntensityGradientEE13setInputCloudERKN5boost10shared_ptrIKNS_10PointCloudIS1_EEEERKNS4_IKSt6vectorIiSaIiEEEE@Base 1.6
 (optional=templinst)_ZN3pcl6KdTreeINS_17IntensityGradientEEC1Eb@Base 1.6
 (optional=templinst)_ZN3pcl6KdTreeINS_17IntensityGradientEEC2Eb@Base 1.6
 (optional=templinst)_ZN3pcl6KdTreeINS_17IntensityGradientEED0Ev@Base 1.6
 (optional=templinst)_ZN3pcl6KdTreeINS_17IntensityGradientEED1Ev@Base 1.6
 (optional=templinst)_ZN3pcl6KdTreeINS_17IntensityGradientEED2Ev@Base 1.6
 (optional=templinst)_ZN3pcl6KdTreeINS_17IntensityGradientEEaSERKS2_@Base 1.6
 (optional=templinst)_ZN3pcl6KdTreeINS_17PointXYZRGBNormalEE10setEpsilonEf@Base 1.6
 (optional=templinst)_ZN3pcl6KdTreeINS_17PointXYZRGBNormalEE13setInputCloudERKN5boost10shared_ptrIKNS_10PointCloudIS1_EEEERKNS4_IKSt6vectorIiSaIiEEEE@Base 1.6
 (optional=templinst)_ZN3pcl6KdTreeINS_17PointXYZRGBNormalEEC1Eb@Base 1.6
 (optional=templinst)_ZN3pcl6KdTreeINS_17PointXYZRGBNormalEEC2Eb@Base 1.6
 (optional=templinst)_ZN3pcl6KdTreeINS_17PointXYZRGBNormalEED0Ev@Base 1.6
 (optional=templinst)_ZN3pcl6KdTreeINS_17PointXYZRGBNormalEED1Ev@Base 1.6
 (optional=templinst)_ZN3pcl6KdTreeINS_17PointXYZRGBNormalEED2Ev@Base 1.6
 (optional=templinst)_ZN3pcl6KdTreeINS_17PointXYZRGBNormalEEaSERKS2_@Base 1.6
 (optional=templinst)_ZN3pcl6KdTreeINS_17PrincipalRadiiRSDEE10setEpsilonEf@Base 1.6
 (optional=templinst)_ZN3pcl6KdTreeINS_17PrincipalRadiiRSDEE13setInputCloudERKN5boost10shared_ptrIKNS_10PointCloudIS1_EEEERKNS4_IKSt6vectorIiSaIiEEEE@Base 1.6
 (optional=templinst)_ZN3pcl6KdTreeINS_17PrincipalRadiiRSDEEC1Eb@Base 1.6
 (optional=templinst)_ZN3pcl6KdTreeINS_17PrincipalRadiiRSDEEC2Eb@Base 1.6
 (optional=templinst)_ZN3pcl6KdTreeINS_17PrincipalRadiiRSDEED0Ev@Base 1.6
 (optional=templinst)_ZN3pcl6KdTreeINS_17PrincipalRadiiRSDEED1Ev@Base 1.6
 (optional=templinst)_ZN3pcl6KdTreeINS_17PrincipalRadiiRSDEED2Ev@Base 1.6
 (optional=templinst)_ZN3pcl6KdTreeINS_17PrincipalRadiiRSDEEaSERKS2_@Base 1.6
 (optional=templinst)_ZN3pcl6KdTreeINS_18PFHRGBSignature250EE10setEpsilonEf@Base 1.6
 (optional=templinst)_ZN3pcl6KdTreeINS_18PFHRGBSignature250EE13setInputCloudERKN5boost10shared_ptrIKNS_10PointCloudIS1_EEEERKNS4_IKSt6vectorIiSaIiEEEE@Base 1.6
 (optional=templinst)_ZN3pcl6KdTreeINS_18PFHRGBSignature250EEC1Eb@Base 1.6
 (optional=templinst)_ZN3pcl6KdTreeINS_18PFHRGBSignature250EEC2Eb@Base 1.6
 (optional=templinst)_ZN3pcl6KdTreeINS_18PFHRGBSignature250EED0Ev@Base 1.6
 (optional=templinst)_ZN3pcl6KdTreeINS_18PFHRGBSignature250EED1Ev@Base 1.6
 (optional=templinst)_ZN3pcl6KdTreeINS_18PFHRGBSignature250EED2Ev@Base 1.6
 (optional=templinst)_ZN3pcl6KdTreeINS_18PFHRGBSignature250EEaSERKS2_@Base 1.6
 (optional=templinst)_ZN3pcl6KdTreeINS_18PointWithViewpointEE10setEpsilonEf@Base 1.6
 (optional=templinst)_ZN3pcl6KdTreeINS_18PointWithViewpointEE13setInputCloudERKN5boost10shared_ptrIKNS_10PointCloudIS1_EEEERKNS4_IKSt6vectorIiSaIiEEEE@Base 1.6
 (optional=templinst)_ZN3pcl6KdTreeINS_18PointWithViewpointEEC1Eb@Base 1.6
 (optional=templinst)_ZN3pcl6KdTreeINS_18PointWithViewpointEEC2Eb@Base 1.6
 (optional=templinst)_ZN3pcl6KdTreeINS_18PointWithViewpointEED0Ev@Base 1.6
 (optional=templinst)_ZN3pcl6KdTreeINS_18PointWithViewpointEED1Ev@Base 1.6
 (optional=templinst)_ZN3pcl6KdTreeINS_18PointWithViewpointEED2Ev@Base 1.6
 (optional=templinst)_ZN3pcl6KdTreeINS_18PointWithViewpointEEaSERKS2_@Base 1.6
 (optional=templinst)_ZN3pcl6KdTreeINS_19PrincipalCurvaturesEE10setEpsilonEf@Base 1.6
 (optional=templinst)_ZN3pcl6KdTreeINS_19PrincipalCurvaturesEE13setInputCloudERKN5boost10shared_ptrIKNS_10PointCloudIS1_EEEERKNS4_IKSt6vectorIiSaIiEEEE@Base 1.6
 (optional=templinst)_ZN3pcl6KdTreeINS_19PrincipalCurvaturesEEC1Eb@Base 1.6
 (optional=templinst)_ZN3pcl6KdTreeINS_19PrincipalCurvaturesEEC2Eb@Base 1.6
 (optional=templinst)_ZN3pcl6KdTreeINS_19PrincipalCurvaturesEED0Ev@Base 1.6
 (optional=templinst)_ZN3pcl6KdTreeINS_19PrincipalCurvaturesEED1Ev@Base 1.6
 (optional=templinst)_ZN3pcl6KdTreeINS_19PrincipalCurvaturesEED2Ev@Base 1.6
 (optional=templinst)_ZN3pcl6KdTreeINS_19PrincipalCurvaturesEEaSERKS2_@Base 1.6
 (optional=templinst)_ZN3pcl6KdTreeINS_22NormalBasedSignature12EE10setEpsilonEf@Base 1.6
 (optional=templinst)_ZN3pcl6KdTreeINS_22NormalBasedSignature12EE13setInputCloudERKN5boost10shared_ptrIKNS_10PointCloudIS1_EEEERKNS4_IKSt6vectorIiSaIiEEEE@Base 1.6
 (optional=templinst)_ZN3pcl6KdTreeINS_22NormalBasedSignature12EEC1Eb@Base 1.6
 (optional=templinst)_ZN3pcl6KdTreeINS_22NormalBasedSignature12EEC2Eb@Base 1.6
 (optional=templinst)_ZN3pcl6KdTreeINS_22NormalBasedSignature12EED0Ev@Base 1.6
 (optional=templinst)_ZN3pcl6KdTreeINS_22NormalBasedSignature12EED1Ev@Base 1.6
 (optional=templinst)_ZN3pcl6KdTreeINS_22NormalBasedSignature12EED2Ev@Base 1.6
 (optional=templinst)_ZN3pcl6KdTreeINS_22NormalBasedSignature12EEaSERKS2_@Base 1.6
 (optional=templinst)_ZN3pcl6KdTreeINS_4AxisEE10setEpsilonEf@Base 1.6
 (optional=templinst)_ZN3pcl6KdTreeINS_4AxisEE13setInputCloudERKN5boost10shared_ptrIKNS_10PointCloudIS1_EEEERKNS4_IKSt6vectorIiSaIiEEEE@Base 1.6
 (optional=templinst)_ZN3pcl6KdTreeINS_4AxisEEC1Eb@Base 1.6
 (optional=templinst)_ZN3pcl6KdTreeINS_4AxisEEC2Eb@Base 1.6
 (optional=templinst)_ZN3pcl6KdTreeINS_4AxisEED0Ev@Base 1.6
 (optional=templinst)_ZN3pcl6KdTreeINS_4AxisEED1Ev@Base 1.6
 (optional=templinst)_ZN3pcl6KdTreeINS_4AxisEED2Ev@Base 1.6
 (optional=templinst)_ZN3pcl6KdTreeINS_4AxisEEaSERKS2_@Base 1.6
 (optional=templinst)_ZN3pcl6KdTreeINS_5LabelEE10setEpsilonEf@Base 1.6
 (optional=templinst)_ZN3pcl6KdTreeINS_5LabelEE13setInputCloudERKN5boost10shared_ptrIKNS_10PointCloudIS1_EEEERKNS4_IKSt6vectorIiSaIiEEEE@Base 1.6
 (optional=templinst)_ZN3pcl6KdTreeINS_5LabelEEC1Eb@Base 1.6
 (optional=templinst)_ZN3pcl6KdTreeINS_5LabelEEC2Eb@Base 1.6
 (optional=templinst)_ZN3pcl6KdTreeINS_5LabelEED0Ev@Base 1.6
 (optional=templinst)_ZN3pcl6KdTreeINS_5LabelEED1Ev@Base 1.6
 (optional=templinst)_ZN3pcl6KdTreeINS_5LabelEED2Ev@Base 1.6
 (optional=templinst)_ZN3pcl6KdTreeINS_5LabelEEaSERKS2_@Base 1.6
 (optional=templinst)_ZN3pcl6KdTreeINS_6Narf36EE10setEpsilonEf@Base 1.6
 (optional=templinst)_ZN3pcl6KdTreeINS_6Narf36EE13setInputCloudERKN5boost10shared_ptrIKNS_10PointCloudIS1_EEEERKNS4_IKSt6vectorIiSaIiEEEE@Base 1.6
 (optional=templinst)_ZN3pcl6KdTreeINS_6Narf36EEC1Eb@Base 1.6
 (optional=templinst)_ZN3pcl6KdTreeINS_6Narf36EEC2Eb@Base 1.6
 (optional=templinst)_ZN3pcl6KdTreeINS_6Narf36EED0Ev@Base 1.6
 (optional=templinst)_ZN3pcl6KdTreeINS_6Narf36EED1Ev@Base 1.6
 (optional=templinst)_ZN3pcl6KdTreeINS_6Narf36EED2Ev@Base 1.6
 (optional=templinst)_ZN3pcl6KdTreeINS_6Narf36EEaSERKS2_@Base 1.6
 (optional=templinst)_ZN3pcl6KdTreeINS_6NormalEE10setEpsilonEf@Base 1.6
 (optional=templinst)_ZN3pcl6KdTreeINS_6NormalEE13setInputCloudERKN5boost10shared_ptrIKNS_10PointCloudIS1_EEEERKNS4_IKSt6vectorIiSaIiEEEE@Base 1.6
 (optional=templinst)_ZN3pcl6KdTreeINS_6NormalEEC1Eb@Base 1.6
 (optional=templinst)_ZN3pcl6KdTreeINS_6NormalEEC2Eb@Base 1.6
 (optional=templinst)_ZN3pcl6KdTreeINS_6NormalEED0Ev@Base 1.6
 (optional=templinst)_ZN3pcl6KdTreeINS_6NormalEED1Ev@Base 1.6
 (optional=templinst)_ZN3pcl6KdTreeINS_6NormalEED2Ev@Base 1.6
 (optional=templinst)_ZN3pcl6KdTreeINS_6NormalEEaSERKS2_@Base 1.6
 (optional=templinst)_ZN3pcl6KdTreeINS_7PointXYEE10setEpsilonEf@Base 1.6
 (optional=templinst)_ZN3pcl6KdTreeINS_7PointXYEE13setInputCloudERKN5boost10shared_ptrIKNS_10PointCloudIS1_EEEERKNS4_IKSt6vectorIiSaIiEEEE@Base 1.6
 (optional=templinst)_ZN3pcl6KdTreeINS_7PointXYEEC1Eb@Base 1.6
 (optional=templinst)_ZN3pcl6KdTreeINS_7PointXYEEC2Eb@Base 1.6
 (optional=templinst)_ZN3pcl6KdTreeINS_7PointXYEED0Ev@Base 1.6
 (optional=templinst)_ZN3pcl6KdTreeINS_7PointXYEED1Ev@Base 1.6
 (optional=templinst)_ZN3pcl6KdTreeINS_7PointXYEED2Ev@Base 1.6
 (optional=templinst)_ZN3pcl6KdTreeINS_7PointXYEEaSERKS2_@Base 1.6
 (optional=templinst)_ZN3pcl6KdTreeINS_8BoundaryEE10setEpsilonEf@Base 1.6
 (optional=templinst)_ZN3pcl6KdTreeINS_8BoundaryEE13setInputCloudERKN5boost10shared_ptrIKNS_10PointCloudIS1_EEEERKNS4_IKSt6vectorIiSaIiEEEE@Base 1.6
 (optional=templinst)_ZN3pcl6KdTreeINS_8BoundaryEEC1Eb@Base 1.6
 (optional=templinst)_ZN3pcl6KdTreeINS_8BoundaryEEC2Eb@Base 1.6
 (optional=templinst)_ZN3pcl6KdTreeINS_8BoundaryEED0Ev@Base 1.6
 (optional=templinst)_ZN3pcl6KdTreeINS_8BoundaryEED1Ev@Base 1.6
 (optional=templinst)_ZN3pcl6KdTreeINS_8BoundaryEED2Ev@Base 1.6
 (optional=templinst)_ZN3pcl6KdTreeINS_8BoundaryEEaSERKS2_@Base 1.6
 (optional=templinst)_ZN3pcl6KdTreeINS_8PointXYZEE10setEpsilonEf@Base 1.6
 (optional=templinst)_ZN3pcl6KdTreeINS_8PointXYZEE13setInputCloudERKN5boost10shared_ptrIKNS_10PointCloudIS1_EEEERKNS4_IKSt6vectorIiSaIiEEEE@Base 1.6
 (optional=templinst)_ZN3pcl6KdTreeINS_8PointXYZEEC1Eb@Base 1.6
 (optional=templinst)_ZN3pcl6KdTreeINS_8PointXYZEEC2Eb@Base 1.6
 (optional=templinst)_ZN3pcl6KdTreeINS_8PointXYZEED0Ev@Base 1.6
 (optional=templinst)_ZN3pcl6KdTreeINS_8PointXYZEED1Ev@Base 1.6
 (optional=templinst)_ZN3pcl6KdTreeINS_8PointXYZEED2Ev@Base 1.6
 (optional=templinst)_ZN3pcl6KdTreeINS_8PointXYZEEaSERKS2_@Base 1.6
 (optional=templinst)_ZN3pcl6KdTreeINS_9PointXYZIEE10setEpsilonEf@Base 1.6
 (optional=templinst)_ZN3pcl6KdTreeINS_9PointXYZIEE13setInputCloudERKN5boost10shared_ptrIKNS_10PointCloudIS1_EEEERKNS4_IKSt6vectorIiSaIiEEEE@Base 1.6
 (optional=templinst)_ZN3pcl6KdTreeINS_9PointXYZIEEC1Eb@Base 1.6
 (optional=templinst)_ZN3pcl6KdTreeINS_9PointXYZIEEC2Eb@Base 1.6
 (optional=templinst)_ZN3pcl6KdTreeINS_9PointXYZIEED0Ev@Base 1.6
 (optional=templinst)_ZN3pcl6KdTreeINS_9PointXYZIEED1Ev@Base 1.6
 (optional=templinst)_ZN3pcl6KdTreeINS_9PointXYZIEED2Ev@Base 1.6
 (optional=templinst)_ZN3pcl6KdTreeINS_9PointXYZIEEaSERKS2_@Base 1.6
 (optional=templinst)_ZN3pcl6KdTreeINS_9PointXYZLEE10setEpsilonEf@Base 1.6
 (optional=templinst)_ZN3pcl6KdTreeINS_9PointXYZLEE13setInputCloudERKN5boost10shared_ptrIKNS_10PointCloudIS1_EEEERKNS4_IKSt6vectorIiSaIiEEEE@Base 1.6
 (optional=templinst)_ZN3pcl6KdTreeINS_9PointXYZLEEC1Eb@Base 1.6
 (optional=templinst)_ZN3pcl6KdTreeINS_9PointXYZLEEC2Eb@Base 1.6
 (optional=templinst)_ZN3pcl6KdTreeINS_9PointXYZLEED0Ev@Base 1.6
 (optional=templinst)_ZN3pcl6KdTreeINS_9PointXYZLEED1Ev@Base 1.6
 (optional=templinst)_ZN3pcl6KdTreeINS_9PointXYZLEED2Ev@Base 1.6
 (optional=templinst)_ZN3pcl6KdTreeINS_9PointXYZLEEaSERKS2_@Base 1.6
 (optional=templinst)_ZN5boost10shared_ptrIKN3pcl10PointCloudINS1_11PointNormalEEEED1Ev@Base 1.6
 (optional=templinst)_ZN5boost10shared_ptrIKN3pcl10PointCloudINS1_11PointNormalEEEED2Ev@Base 1.6
 (optional=templinst)_ZN5boost10shared_ptrIKN3pcl10PointCloudINS1_11PointXYZHSVEEEED1Ev@Base 1.6
 (optional=templinst)_ZN5boost10shared_ptrIKN3pcl10PointCloudINS1_11PointXYZHSVEEEED2Ev@Base 1.6
 (optional=templinst)_ZN5boost10shared_ptrIKN3pcl10PointCloudINS1_11PointXYZRGBEEEED1Ev@Base 1.6
 (optional=templinst)_ZN5boost10shared_ptrIKN3pcl10PointCloudINS1_11PointXYZRGBEEEED2Ev@Base 1.6
 (optional=templinst)_ZN5boost10shared_ptrIKN3pcl10PointCloudINS1_12PPFSignatureEEEED1Ev@Base 1.6
 (optional=templinst)_ZN5boost10shared_ptrIKN3pcl10PointCloudINS1_12PPFSignatureEEEED2Ev@Base 1.6
 (optional=templinst)_ZN5boost10shared_ptrIKN3pcl10PointCloudINS1_12PointXYZRGBAEEEED1Ev@Base 1.6
 (optional=templinst)_ZN5boost10shared_ptrIKN3pcl10PointCloudINS1_12PointXYZRGBAEEEED2Ev@Base 1.6
 (optional=templinst)_ZN5boost10shared_ptrIKN3pcl10PointCloudINS1_12PointXYZRGBLEEEED1Ev@Base 1.6
 (optional=templinst)_ZN5boost10shared_ptrIKN3pcl10PointCloudINS1_12PointXYZRGBLEEEED2Ev@Base 1.6
 (optional=templinst)_ZN5boost10shared_ptrIKN3pcl10PointCloudINS1_13InterestPointEEEED1Ev@Base 1.6
 (optional=templinst)_ZN5boost10shared_ptrIKN3pcl10PointCloudINS1_13InterestPointEEEED2Ev@Base 1.6
 (optional=templinst)_ZN5boost10shared_ptrIKN3pcl10PointCloudINS1_14PointWithRangeEEEED1Ev@Base 1.6
 (optional=templinst)_ZN5boost10shared_ptrIKN3pcl10PointCloudINS1_14PointWithRangeEEEED2Ev@Base 1.6
 (optional=templinst)_ZN5boost10shared_ptrIKN3pcl10PointCloudINS1_14PointWithScaleEEEED1Ev@Base 1.6
 (optional=templinst)_ZN5boost10shared_ptrIKN3pcl10PointCloudINS1_14PointWithScaleEEEED2Ev@Base 1.6
 (optional=templinst)_ZN5boost10shared_ptrIKN3pcl10PointCloudINS1_14ReferenceFrameEEEED1Ev@Base 1.6
 (optional=templinst)_ZN5boost10shared_ptrIKN3pcl10PointCloudINS1_14ReferenceFrameEEEED2Ev@Base 1.6
 (optional=templinst)_ZN5boost10shared_ptrIKN3pcl10PointCloudINS1_15ESFSignature640EEEED1Ev@Base 1.6
 (optional=templinst)_ZN5boost10shared_ptrIKN3pcl10PointCloudINS1_15ESFSignature640EEEED2Ev@Base 1.6
 (optional=templinst)_ZN5boost10shared_ptrIKN3pcl10PointCloudINS1_15FPFHSignature33EEEED1Ev@Base 1.6
 (optional=templinst)_ZN5boost10shared_ptrIKN3pcl10PointCloudINS1_15FPFHSignature33EEEED2Ev@Base 1.6
 (optional=templinst)_ZN5boost10shared_ptrIKN3pcl10PointCloudINS1_15PFHSignature125EEEED1Ev@Base 1.6
 (optional=templinst)_ZN5boost10shared_ptrIKN3pcl10PointCloudINS1_15PFHSignature125EEEED2Ev@Base 1.6
 (optional=templinst)_ZN5boost10shared_ptrIKN3pcl10PointCloudINS1_15PPFRGBSignatureEEEED1Ev@Base 1.6
 (optional=templinst)_ZN5boost10shared_ptrIKN3pcl10PointCloudINS1_15PPFRGBSignatureEEEED2Ev@Base 1.6
 (optional=templinst)_ZN5boost10shared_ptrIKN3pcl10PointCloudINS1_15PointXYZINormalEEEED1Ev@Base 1.6
 (optional=templinst)_ZN5boost10shared_ptrIKN3pcl10PointCloudINS1_15PointXYZINormalEEEED2Ev@Base 1.6
 (optional=templinst)_ZN5boost10shared_ptrIKN3pcl10PointCloudINS1_15VFHSignature308EEEED1Ev@Base 1.6
 (optional=templinst)_ZN5boost10shared_ptrIKN3pcl10PointCloudINS1_15VFHSignature308EEEED2Ev@Base 1.6
 (optional=templinst)_ZN5boost10shared_ptrIKN3pcl10PointCloudINS1_16MomentInvariantsEEEED1Ev@Base 1.6
 (optional=templinst)_ZN5boost10shared_ptrIKN3pcl10PointCloudINS1_16MomentInvariantsEEEED2Ev@Base 1.6
 (optional=templinst)_ZN5boost10shared_ptrIKN3pcl10PointCloudINS1_17IntensityGradientEEEED1Ev@Base 1.6
 (optional=templinst)_ZN5boost10shared_ptrIKN3pcl10PointCloudINS1_17IntensityGradientEEEED2Ev@Base 1.6
 (optional=templinst)_ZN5boost10shared_ptrIKN3pcl10PointCloudINS1_17PointXYZRGBNormalEEEED1Ev@Base 1.6
 (optional=templinst)_ZN5boost10shared_ptrIKN3pcl10PointCloudINS1_17PointXYZRGBNormalEEEED2Ev@Base 1.6
 (optional=templinst)_ZN5boost10shared_ptrIKN3pcl10PointCloudINS1_17PrincipalRadiiRSDEEEED1Ev@Base 1.6
 (optional=templinst)_ZN5boost10shared_ptrIKN3pcl10PointCloudINS1_17PrincipalRadiiRSDEEEED2Ev@Base 1.6
 (optional=templinst)_ZN5boost10shared_ptrIKN3pcl10PointCloudINS1_18PFHRGBSignature250EEEED1Ev@Base 1.6
 (optional=templinst)_ZN5boost10shared_ptrIKN3pcl10PointCloudINS1_18PFHRGBSignature250EEEED2Ev@Base 1.6
 (optional=templinst)_ZN5boost10shared_ptrIKN3pcl10PointCloudINS1_18PointWithViewpointEEEED1Ev@Base 1.6
 (optional=templinst)_ZN5boost10shared_ptrIKN3pcl10PointCloudINS1_18PointWithViewpointEEEED2Ev@Base 1.6
 (optional=templinst)_ZN5boost10shared_ptrIKN3pcl10PointCloudINS1_19PrincipalCurvaturesEEEED1Ev@Base 1.6
 (optional=templinst)_ZN5boost10shared_ptrIKN3pcl10PointCloudINS1_19PrincipalCurvaturesEEEED2Ev@Base 1.6
 (optional=templinst)_ZN5boost10shared_ptrIKN3pcl10PointCloudINS1_22NormalBasedSignature12EEEED1Ev@Base 1.6
 (optional=templinst)_ZN5boost10shared_ptrIKN3pcl10PointCloudINS1_22NormalBasedSignature12EEEED2Ev@Base 1.6
 (optional=templinst)_ZN5boost10shared_ptrIKN3pcl10PointCloudINS1_4AxisEEEED1Ev@Base 1.6
 (optional=templinst)_ZN5boost10shared_ptrIKN3pcl10PointCloudINS1_4AxisEEEED2Ev@Base 1.6
 (optional=templinst)_ZN5boost10shared_ptrIKN3pcl10PointCloudINS1_5LabelEEEED1Ev@Base 1.6
 (optional=templinst)_ZN5boost10shared_ptrIKN3pcl10PointCloudINS1_5LabelEEEED2Ev@Base 1.6
 (optional=templinst)_ZN5boost10shared_ptrIKN3pcl10PointCloudINS1_6Narf36EEEED1Ev@Base 1.6
 (optional=templinst)_ZN5boost10shared_ptrIKN3pcl10PointCloudINS1_6Narf36EEEED2Ev@Base 1.6
 (optional=templinst)_ZN5boost10shared_ptrIKN3pcl10PointCloudINS1_6NormalEEEED1Ev@Base 1.6
 (optional=templinst)_ZN5boost10shared_ptrIKN3pcl10PointCloudINS1_6NormalEEEED2Ev@Base 1.6
 (optional=templinst)_ZN5boost10shared_ptrIKN3pcl10PointCloudINS1_7PointXYEEEED1Ev@Base 1.6
 (optional=templinst)_ZN5boost10shared_ptrIKN3pcl10PointCloudINS1_7PointXYEEEED2Ev@Base 1.6
 (optional=templinst)_ZN5boost10shared_ptrIKN3pcl10PointCloudINS1_8BoundaryEEEED1Ev@Base 1.6
 (optional=templinst)_ZN5boost10shared_ptrIKN3pcl10PointCloudINS1_8BoundaryEEEED2Ev@Base 1.6
 (optional=templinst)_ZN5boost10shared_ptrIKN3pcl10PointCloudINS1_8PointXYZEEEED1Ev@Base 1.6
 (optional=templinst)_ZN5boost10shared_ptrIKN3pcl10PointCloudINS1_8PointXYZEEEED2Ev@Base 1.6
 (optional=templinst)_ZN5boost10shared_ptrIKN3pcl10PointCloudINS1_9PointXYZIEEEED1Ev@Base 1.6
 (optional=templinst)_ZN5boost10shared_ptrIKN3pcl10PointCloudINS1_9PointXYZIEEEED2Ev@Base 1.6
 (optional=templinst)_ZN5boost10shared_ptrIKN3pcl10PointCloudINS1_9PointXYZLEEEED1Ev@Base 1.6
 (optional=templinst)_ZN5boost10shared_ptrIKN3pcl10PointCloudINS1_9PointXYZLEEEED2Ev@Base 1.6
 (optional=templinst)_ZN5boost10shared_ptrIKSt6vectorIiSaIiEEED1Ev@Base 1.6
 (optional=templinst)_ZN5boost10shared_ptrIKSt6vectorIiSaIiEEED2Ev@Base 1.6
 (optional=templinst)_ZN5boost6detail12shared_countC1IN3pcl11KdTreeFLANNINS3_11PointNormalEN5flann9L2_SimpleIfEEEEEEPT_@Base 1.6
 (optional=templinst)_ZN5boost6detail12shared_countC1IN3pcl11KdTreeFLANNINS3_11PointXYZHSVEN5flann9L2_SimpleIfEEEEEEPT_@Base 1.6
 (optional=templinst)_ZN5boost6detail12shared_countC1IN3pcl11KdTreeFLANNINS3_11PointXYZRGBEN5flann9L2_SimpleIfEEEEEEPT_@Base 1.6
 (optional=templinst)_ZN5boost6detail12shared_countC1IN3pcl11KdTreeFLANNINS3_12PPFSignatureEN5flann9L2_SimpleIfEEEEEEPT_@Base 1.6
 (optional=templinst)_ZN5boost6detail12shared_countC1IN3pcl11KdTreeFLANNINS3_12PointXYZRGBAEN5flann9L2_SimpleIfEEEEEEPT_@Base 1.6
 (optional=templinst)_ZN5boost6detail12shared_countC1IN3pcl11KdTreeFLANNINS3_12PointXYZRGBLEN5flann9L2_SimpleIfEEEEEEPT_@Base 1.6
 (optional=templinst)_ZN5boost6detail12shared_countC1IN3pcl11KdTreeFLANNINS3_13InterestPointEN5flann9L2_SimpleIfEEEEEEPT_@Base 1.6
 (optional=templinst)_ZN5boost6detail12shared_countC1IN3pcl11KdTreeFLANNINS3_14PointWithRangeEN5flann9L2_SimpleIfEEEEEEPT_@Base 1.6
 (optional=templinst)_ZN5boost6detail12shared_countC1IN3pcl11KdTreeFLANNINS3_14PointWithScaleEN5flann9L2_SimpleIfEEEEEEPT_@Base 1.6
 (optional=templinst)_ZN5boost6detail12shared_countC1IN3pcl11KdTreeFLANNINS3_14ReferenceFrameEN5flann9L2_SimpleIfEEEEEEPT_@Base 1.6
 (optional=templinst)_ZN5boost6detail12shared_countC1IN3pcl11KdTreeFLANNINS3_15ESFSignature640EN5flann9L2_SimpleIfEEEEEEPT_@Base 1.6
 (optional=templinst)_ZN5boost6detail12shared_countC1IN3pcl11KdTreeFLANNINS3_15FPFHSignature33EN5flann9L2_SimpleIfEEEEEEPT_@Base 1.6
 (optional=templinst)_ZN5boost6detail12shared_countC1IN3pcl11KdTreeFLANNINS3_15PFHSignature125EN5flann9L2_SimpleIfEEEEEEPT_@Base 1.6
 (optional=templinst)_ZN5boost6detail12shared_countC1IN3pcl11KdTreeFLANNINS3_15PPFRGBSignatureEN5flann9L2_SimpleIfEEEEEEPT_@Base 1.6
 (optional=templinst)_ZN5boost6detail12shared_countC1IN3pcl11KdTreeFLANNINS3_15PointXYZINormalEN5flann9L2_SimpleIfEEEEEEPT_@Base 1.6
 (optional=templinst)_ZN5boost6detail12shared_countC1IN3pcl11KdTreeFLANNINS3_15VFHSignature308EN5flann9L2_SimpleIfEEEEEEPT_@Base 1.6
 (optional=templinst)_ZN5boost6detail12shared_countC1IN3pcl11KdTreeFLANNINS3_16MomentInvariantsEN5flann9L2_SimpleIfEEEEEEPT_@Base 1.6
 (optional=templinst)_ZN5boost6detail12shared_countC1IN3pcl11KdTreeFLANNINS3_17IntensityGradientEN5flann9L2_SimpleIfEEEEEEPT_@Base 1.6
 (optional=templinst)_ZN5boost6detail12shared_countC1IN3pcl11KdTreeFLANNINS3_17PointXYZRGBNormalEN5flann9L2_SimpleIfEEEEEEPT_@Base 1.6
 (optional=templinst)_ZN5boost6detail12shared_countC1IN3pcl11KdTreeFLANNINS3_17PrincipalRadiiRSDEN5flann9L2_SimpleIfEEEEEEPT_@Base 1.6
 (optional=templinst)_ZN5boost6detail12shared_countC1IN3pcl11KdTreeFLANNINS3_18PFHRGBSignature250EN5flann9L2_SimpleIfEEEEEEPT_@Base 1.6
 (optional=templinst)_ZN5boost6detail12shared_countC1IN3pcl11KdTreeFLANNINS3_18PointWithViewpointEN5flann9L2_SimpleIfEEEEEEPT_@Base 1.6
 (optional=templinst)_ZN5boost6detail12shared_countC1IN3pcl11KdTreeFLANNINS3_19PrincipalCurvaturesEN5flann9L2_SimpleIfEEEEEEPT_@Base 1.6
 (optional=templinst)_ZN5boost6detail12shared_countC1IN3pcl11KdTreeFLANNINS3_22NormalBasedSignature12EN5flann9L2_SimpleIfEEEEEEPT_@Base 1.6
 (optional=templinst)_ZN5boost6detail12shared_countC1IN3pcl11KdTreeFLANNINS3_4AxisEN5flann9L2_SimpleIfEEEEEEPT_@Base 1.6
 (optional=templinst)_ZN5boost6detail12shared_countC1IN3pcl11KdTreeFLANNINS3_5LabelEN5flann9L2_SimpleIfEEEEEEPT_@Base 1.6
 (optional=templinst)_ZN5boost6detail12shared_countC1IN3pcl11KdTreeFLANNINS3_6Narf36EN5flann9L2_SimpleIfEEEEEEPT_@Base 1.6
 (optional=templinst)_ZN5boost6detail12shared_countC1IN3pcl11KdTreeFLANNINS3_6NormalEN5flann9L2_SimpleIfEEEEEEPT_@Base 1.6
 (optional=templinst)_ZN5boost6detail12shared_countC1IN3pcl11KdTreeFLANNINS3_7PointXYEN5flann9L2_SimpleIfEEEEEEPT_@Base 1.6
 (optional=templinst)_ZN5boost6detail12shared_countC1IN3pcl11KdTreeFLANNINS3_8BoundaryEN5flann9L2_SimpleIfEEEEEEPT_@Base 1.6
 (optional=templinst)_ZN5boost6detail12shared_countC1IN3pcl11KdTreeFLANNINS3_8PointXYZEN5flann9L2_SimpleIfEEEEEEPT_@Base 1.6
 (optional=templinst)_ZN5boost6detail12shared_countC1IN3pcl11KdTreeFLANNINS3_9PointXYZIEN5flann9L2_SimpleIfEEEEEEPT_@Base 1.6
 (optional=templinst)_ZN5boost6detail12shared_countC1IN3pcl11KdTreeFLANNINS3_9PointXYZLEN5flann9L2_SimpleIfEEEEEEPT_@Base 1.6
 (optional=templinst)_ZN5boost6detail12shared_countC1IN3pcl26DefaultPointRepresentationINS3_11PointNormalEEEEEPT_@Base 1.6
 (optional=templinst)_ZN5boost6detail12shared_countC1IN3pcl26DefaultPointRepresentationINS3_11PointXYZHSVEEEEEPT_@Base 1.6
 (optional=templinst)_ZN5boost6detail12shared_countC1IN3pcl26DefaultPointRepresentationINS3_11PointXYZRGBEEEEEPT_@Base 1.6
 (optional=templinst)_ZN5boost6detail12shared_countC1IN3pcl26DefaultPointRepresentationINS3_12PPFSignatureEEEEEPT_@Base 1.6
 (optional=templinst)_ZN5boost6detail12shared_countC1IN3pcl26DefaultPointRepresentationINS3_12PointXYZRGBAEEEEEPT_@Base 1.6
 (optional=templinst)_ZN5boost6detail12shared_countC1IN3pcl26DefaultPointRepresentationINS3_12PointXYZRGBLEEEEEPT_@Base 1.6
 (optional=templinst)_ZN5boost6detail12shared_countC1IN3pcl26DefaultPointRepresentationINS3_13InterestPointEEEEEPT_@Base 1.6
 (optional=templinst)_ZN5boost6detail12shared_countC1IN3pcl26DefaultPointRepresentationINS3_14PointWithRangeEEEEEPT_@Base 1.6
 (optional=templinst)_ZN5boost6detail12shared_countC1IN3pcl26DefaultPointRepresentationINS3_14PointWithScaleEEEEEPT_@Base 1.6
 (optional=templinst)_ZN5boost6detail12shared_countC1IN3pcl26DefaultPointRepresentationINS3_14ReferenceFrameEEEEEPT_@Base 1.6
 (optional=templinst)_ZN5boost6detail12shared_countC1IN3pcl26DefaultPointRepresentationINS3_15ESFSignature640EEEEEPT_@Base 1.6
 (optional=templinst)_ZN5boost6detail12shared_countC1IN3pcl26DefaultPointRepresentationINS3_15FPFHSignature33EEEEEPT_@Base 1.6
 (optional=templinst)_ZN5boost6detail12shared_countC1IN3pcl26DefaultPointRepresentationINS3_15PFHSignature125EEEEEPT_@Base 1.6
 (optional=templinst)_ZN5boost6detail12shared_countC1IN3pcl26DefaultPointRepresentationINS3_15PPFRGBSignatureEEEEEPT_@Base 1.6
 (optional=templinst)_ZN5boost6detail12shared_countC1IN3pcl26DefaultPointRepresentationINS3_15PointXYZINormalEEEEEPT_@Base 1.6
 (optional=templinst)_ZN5boost6detail12shared_countC1IN3pcl26DefaultPointRepresentationINS3_15VFHSignature308EEEEEPT_@Base 1.6
 (optional=templinst)_ZN5boost6detail12shared_countC1IN3pcl26DefaultPointRepresentationINS3_16MomentInvariantsEEEEEPT_@Base 1.6
 (optional=templinst)_ZN5boost6detail12shared_countC1IN3pcl26DefaultPointRepresentationINS3_17IntensityGradientEEEEEPT_@Base 1.6
 (optional=templinst)_ZN5boost6detail12shared_countC1IN3pcl26DefaultPointRepresentationINS3_17PointXYZRGBNormalEEEEEPT_@Base 1.6
 (optional=templinst)_ZN5boost6detail12shared_countC1IN3pcl26DefaultPointRepresentationINS3_17PrincipalRadiiRSDEEEEEPT_@Base 1.6
 (optional=templinst)_ZN5boost6detail12shared_countC1IN3pcl26DefaultPointRepresentationINS3_18PFHRGBSignature250EEEEEPT_@Base 1.6
 (optional=templinst)_ZN5boost6detail12shared_countC1IN3pcl26DefaultPointRepresentationINS3_18PointWithViewpointEEEEEPT_@Base 1.6
 (optional=templinst)_ZN5boost6detail12shared_countC1IN3pcl26DefaultPointRepresentationINS3_19PrincipalCurvaturesEEEEEPT_@Base 1.6
 (optional=templinst)_ZN5boost6detail12shared_countC1IN3pcl26DefaultPointRepresentationINS3_22NormalBasedSignature12EEEEEPT_@Base 1.6
 (optional=templinst)_ZN5boost6detail12shared_countC1IN3pcl26DefaultPointRepresentationINS3_4AxisEEEEEPT_@Base 1.6
 (optional=templinst)_ZN5boost6detail12shared_countC1IN3pcl26DefaultPointRepresentationINS3_5LabelEEEEEPT_@Base 1.6
 (optional=templinst)_ZN5boost6detail12shared_countC1IN3pcl26DefaultPointRepresentationINS3_6Narf36EEEEEPT_@Base 1.6
 (optional=templinst)_ZN5boost6detail12shared_countC1IN3pcl26DefaultPointRepresentationINS3_6NormalEEEEEPT_@Base 1.6
 (optional=templinst)_ZN5boost6detail12shared_countC1IN3pcl26DefaultPointRepresentationINS3_7PointXYEEEEEPT_@Base 1.6
 (optional=templinst)_ZN5boost6detail12shared_countC1IN3pcl26DefaultPointRepresentationINS3_8BoundaryEEEEEPT_@Base 1.6
 (optional=templinst)_ZN5boost6detail12shared_countC1IN3pcl26DefaultPointRepresentationINS3_8PointXYZEEEEEPT_@Base 1.6
 (optional=templinst)_ZN5boost6detail12shared_countC1IN3pcl26DefaultPointRepresentationINS3_9PointXYZIEEEEEPT_@Base 1.6
 (optional=templinst)_ZN5boost6detail12shared_countC1IN3pcl26DefaultPointRepresentationINS3_9PointXYZLEEEEEPT_@Base 1.6
 (optional=templinst)_ZN5boost6detail12shared_countC2IN3pcl11KdTreeFLANNINS3_11PointNormalEN5flann9L2_SimpleIfEEEEEEPT_@Base 1.6
 (optional=templinst)_ZN5boost6detail12shared_countC2IN3pcl11KdTreeFLANNINS3_11PointXYZHSVEN5flann9L2_SimpleIfEEEEEEPT_@Base 1.6
 (optional=templinst)_ZN5boost6detail12shared_countC2IN3pcl11KdTreeFLANNINS3_11PointXYZRGBEN5flann9L2_SimpleIfEEEEEEPT_@Base 1.6
 (optional=templinst)_ZN5boost6detail12shared_countC2IN3pcl11KdTreeFLANNINS3_12PPFSignatureEN5flann9L2_SimpleIfEEEEEEPT_@Base 1.6
 (optional=templinst)_ZN5boost6detail12shared_countC2IN3pcl11KdTreeFLANNINS3_12PointXYZRGBAEN5flann9L2_SimpleIfEEEEEEPT_@Base 1.6
 (optional=templinst)_ZN5boost6detail12shared_countC2IN3pcl11KdTreeFLANNINS3_12PointXYZRGBLEN5flann9L2_SimpleIfEEEEEEPT_@Base 1.6
 (optional=templinst)_ZN5boost6detail12shared_countC2IN3pcl11KdTreeFLANNINS3_13InterestPointEN5flann9L2_SimpleIfEEEEEEPT_@Base 1.6
 (optional=templinst)_ZN5boost6detail12shared_countC2IN3pcl11KdTreeFLANNINS3_14PointWithRangeEN5flann9L2_SimpleIfEEEEEEPT_@Base 1.6
 (optional=templinst)_ZN5boost6detail12shared_countC2IN3pcl11KdTreeFLANNINS3_14PointWithScaleEN5flann9L2_SimpleIfEEEEEEPT_@Base 1.6
 (optional=templinst)_ZN5boost6detail12shared_countC2IN3pcl11KdTreeFLANNINS3_14ReferenceFrameEN5flann9L2_SimpleIfEEEEEEPT_@Base 1.6
 (optional=templinst)_ZN5boost6detail12shared_countC2IN3pcl11KdTreeFLANNINS3_15ESFSignature640EN5flann9L2_SimpleIfEEEEEEPT_@Base 1.6
 (optional=templinst)_ZN5boost6detail12shared_countC2IN3pcl11KdTreeFLANNINS3_15FPFHSignature33EN5flann9L2_SimpleIfEEEEEEPT_@Base 1.6
 (optional=templinst)_ZN5boost6detail12shared_countC2IN3pcl11KdTreeFLANNINS3_15PFHSignature125EN5flann9L2_SimpleIfEEEEEEPT_@Base 1.6
 (optional=templinst)_ZN5boost6detail12shared_countC2IN3pcl11KdTreeFLANNINS3_15PPFRGBSignatureEN5flann9L2_SimpleIfEEEEEEPT_@Base 1.6
 (optional=templinst)_ZN5boost6detail12shared_countC2IN3pcl11KdTreeFLANNINS3_15PointXYZINormalEN5flann9L2_SimpleIfEEEEEEPT_@Base 1.6
 (optional=templinst)_ZN5boost6detail12shared_countC2IN3pcl11KdTreeFLANNINS3_15VFHSignature308EN5flann9L2_SimpleIfEEEEEEPT_@Base 1.6
 (optional=templinst)_ZN5boost6detail12shared_countC2IN3pcl11KdTreeFLANNINS3_16MomentInvariantsEN5flann9L2_SimpleIfEEEEEEPT_@Base 1.6
 (optional=templinst)_ZN5boost6detail12shared_countC2IN3pcl11KdTreeFLANNINS3_17IntensityGradientEN5flann9L2_SimpleIfEEEEEEPT_@Base 1.6
 (optional=templinst)_ZN5boost6detail12shared_countC2IN3pcl11KdTreeFLANNINS3_17PointXYZRGBNormalEN5flann9L2_SimpleIfEEEEEEPT_@Base 1.6
 (optional=templinst)_ZN5boost6detail12shared_countC2IN3pcl11KdTreeFLANNINS3_17PrincipalRadiiRSDEN5flann9L2_SimpleIfEEEEEEPT_@Base 1.6
 (optional=templinst)_ZN5boost6detail12shared_countC2IN3pcl11KdTreeFLANNINS3_18PFHRGBSignature250EN5flann9L2_SimpleIfEEEEEEPT_@Base 1.6
 (optional=templinst)_ZN5boost6detail12shared_countC2IN3pcl11KdTreeFLANNINS3_18PointWithViewpointEN5flann9L2_SimpleIfEEEEEEPT_@Base 1.6
 (optional=templinst)_ZN5boost6detail12shared_countC2IN3pcl11KdTreeFLANNINS3_19PrincipalCurvaturesEN5flann9L2_SimpleIfEEEEEEPT_@Base 1.6
 (optional=templinst)_ZN5boost6detail12shared_countC2IN3pcl11KdTreeFLANNINS3_22NormalBasedSignature12EN5flann9L2_SimpleIfEEEEEEPT_@Base 1.6
 (optional=templinst)_ZN5boost6detail12shared_countC2IN3pcl11KdTreeFLANNINS3_4AxisEN5flann9L2_SimpleIfEEEEEEPT_@Base 1.6
 (optional=templinst)_ZN5boost6detail12shared_countC2IN3pcl11KdTreeFLANNINS3_5LabelEN5flann9L2_SimpleIfEEEEEEPT_@Base 1.6
 (optional=templinst)_ZN5boost6detail12shared_countC2IN3pcl11KdTreeFLANNINS3_6Narf36EN5flann9L2_SimpleIfEEEEEEPT_@Base 1.6
 (optional=templinst)_ZN5boost6detail12shared_countC2IN3pcl11KdTreeFLANNINS3_6NormalEN5flann9L2_SimpleIfEEEEEEPT_@Base 1.6
 (optional=templinst)_ZN5boost6detail12shared_countC2IN3pcl11KdTreeFLANNINS3_7PointXYEN5flann9L2_SimpleIfEEEEEEPT_@Base 1.6
 (optional=templinst)_ZN5boost6detail12shared_countC2IN3pcl11KdTreeFLANNINS3_8BoundaryEN5flann9L2_SimpleIfEEEEEEPT_@Base 1.6
 (optional=templinst)_ZN5boost6detail12shared_countC2IN3pcl11KdTreeFLANNINS3_8PointXYZEN5flann9L2_SimpleIfEEEEEEPT_@Base 1.6
 (optional=templinst)_ZN5boost6detail12shared_countC2IN3pcl11KdTreeFLANNINS3_9PointXYZIEN5flann9L2_SimpleIfEEEEEEPT_@Base 1.6
 (optional=templinst)_ZN5boost6detail12shared_countC2IN3pcl11KdTreeFLANNINS3_9PointXYZLEN5flann9L2_SimpleIfEEEEEEPT_@Base 1.6
 (optional=templinst)_ZN5boost6detail12shared_countC2IN3pcl26DefaultPointRepresentationINS3_11PointNormalEEEEEPT_@Base 1.6
 (optional=templinst)_ZN5boost6detail12shared_countC2IN3pcl26DefaultPointRepresentationINS3_11PointXYZHSVEEEEEPT_@Base 1.6
 (optional=templinst)_ZN5boost6detail12shared_countC2IN3pcl26DefaultPointRepresentationINS3_11PointXYZRGBEEEEEPT_@Base 1.6
 (optional=templinst)_ZN5boost6detail12shared_countC2IN3pcl26DefaultPointRepresentationINS3_12PPFSignatureEEEEEPT_@Base 1.6
 (optional=templinst)_ZN5boost6detail12shared_countC2IN3pcl26DefaultPointRepresentationINS3_12PointXYZRGBAEEEEEPT_@Base 1.6
 (optional=templinst)_ZN5boost6detail12shared_countC2IN3pcl26DefaultPointRepresentationINS3_12PointXYZRGBLEEEEEPT_@Base 1.6
 (optional=templinst)_ZN5boost6detail12shared_countC2IN3pcl26DefaultPointRepresentationINS3_13InterestPointEEEEEPT_@Base 1.6
 (optional=templinst)_ZN5boost6detail12shared_countC2IN3pcl26DefaultPointRepresentationINS3_14PointWithRangeEEEEEPT_@Base 1.6
 (optional=templinst)_ZN5boost6detail12shared_countC2IN3pcl26DefaultPointRepresentationINS3_14PointWithScaleEEEEEPT_@Base 1.6
 (optional=templinst)_ZN5boost6detail12shared_countC2IN3pcl26DefaultPointRepresentationINS3_14ReferenceFrameEEEEEPT_@Base 1.6
 (optional=templinst)_ZN5boost6detail12shared_countC2IN3pcl26DefaultPointRepresentationINS3_15ESFSignature640EEEEEPT_@Base 1.6
 (optional=templinst)_ZN5boost6detail12shared_countC2IN3pcl26DefaultPointRepresentationINS3_15FPFHSignature33EEEEEPT_@Base 1.6
 (optional=templinst)_ZN5boost6detail12shared_countC2IN3pcl26DefaultPointRepresentationINS3_15PFHSignature125EEEEEPT_@Base 1.6
 (optional=templinst)_ZN5boost6detail12shared_countC2IN3pcl26DefaultPointRepresentationINS3_15PPFRGBSignatureEEEEEPT_@Base 1.6
 (optional=templinst)_ZN5boost6detail12shared_countC2IN3pcl26DefaultPointRepresentationINS3_15PointXYZINormalEEEEEPT_@Base 1.6
 (optional=templinst)_ZN5boost6detail12shared_countC2IN3pcl26DefaultPointRepresentationINS3_15VFHSignature308EEEEEPT_@Base 1.6
 (optional=templinst)_ZN5boost6detail12shared_countC2IN3pcl26DefaultPointRepresentationINS3_16MomentInvariantsEEEEEPT_@Base 1.6
 (optional=templinst)_ZN5boost6detail12shared_countC2IN3pcl26DefaultPointRepresentationINS3_17IntensityGradientEEEEEPT_@Base 1.6
 (optional=templinst)_ZN5boost6detail12shared_countC2IN3pcl26DefaultPointRepresentationINS3_17PointXYZRGBNormalEEEEEPT_@Base 1.6
 (optional=templinst)_ZN5boost6detail12shared_countC2IN3pcl26DefaultPointRepresentationINS3_17PrincipalRadiiRSDEEEEEPT_@Base 1.6
 (optional=templinst)_ZN5boost6detail12shared_countC2IN3pcl26DefaultPointRepresentationINS3_18PFHRGBSignature250EEEEEPT_@Base 1.6
 (optional=templinst)_ZN5boost6detail12shared_countC2IN3pcl26DefaultPointRepresentationINS3_18PointWithViewpointEEEEEPT_@Base 1.6
 (optional=templinst)_ZN5boost6detail12shared_countC2IN3pcl26DefaultPointRepresentationINS3_19PrincipalCurvaturesEEEEEPT_@Base 1.6
 (optional=templinst)_ZN5boost6detail12shared_countC2IN3pcl26DefaultPointRepresentationINS3_22NormalBasedSignature12EEEEEPT_@Base 1.6
 (optional=templinst)_ZN5boost6detail12shared_countC2IN3pcl26DefaultPointRepresentationINS3_4AxisEEEEEPT_@Base 1.6
 (optional=templinst)_ZN5boost6detail12shared_countC2IN3pcl26DefaultPointRepresentationINS3_5LabelEEEEEPT_@Base 1.6
 (optional=templinst)_ZN5boost6detail12shared_countC2IN3pcl26DefaultPointRepresentationINS3_6Narf36EEEEEPT_@Base 1.6
 (optional=templinst)_ZN5boost6detail12shared_countC2IN3pcl26DefaultPointRepresentationINS3_6NormalEEEEEPT_@Base 1.6
 (optional=templinst)_ZN5boost6detail12shared_countC2IN3pcl26DefaultPointRepresentationINS3_7PointXYEEEEEPT_@Base 1.6
 (optional=templinst)_ZN5boost6detail12shared_countC2IN3pcl26DefaultPointRepresentationINS3_8BoundaryEEEEEPT_@Base 1.6
 (optional=templinst)_ZN5boost6detail12shared_countC2IN3pcl26DefaultPointRepresentationINS3_8PointXYZEEEEEPT_@Base 1.6
 (optional=templinst)_ZN5boost6detail12shared_countC2IN3pcl26DefaultPointRepresentationINS3_9PointXYZIEEEEEPT_@Base 1.6
 (optional=templinst)_ZN5boost6detail12shared_countC2IN3pcl26DefaultPointRepresentationINS3_9PointXYZLEEEEEPT_@Base 1.6
 _ZN5boost6detail15sp_counted_base7destroyEv@Base 1.6
 _ZN5boost6detail15sp_counted_base7releaseEv@Base 1.6
 _ZN5boost6detail15sp_counted_baseD0Ev@Base 1.6
 _ZN5boost6detail15sp_counted_baseD1Ev@Base 1.6
 _ZN5boost6detail15sp_counted_baseD2Ev@Base 1.6
 (optional=templinst)_ZN5boost6detail17sp_counted_impl_pIN3pcl11KdTreeFLANNINS2_11PointNormalEN5flann9L2_SimpleIfEEEEE11get_deleterERKSt9type_info@Base 1.6
 (optional=templinst)_ZN5boost6detail17sp_counted_impl_pIN3pcl11KdTreeFLANNINS2_11PointNormalEN5flann9L2_SimpleIfEEEEE7disposeEv@Base 1.6
 (optional=templinst)_ZN5boost6detail17sp_counted_impl_pIN3pcl11KdTreeFLANNINS2_11PointNormalEN5flann9L2_SimpleIfEEEEED0Ev@Base 1.6
 (optional=templinst)_ZN5boost6detail17sp_counted_impl_pIN3pcl11KdTreeFLANNINS2_11PointNormalEN5flann9L2_SimpleIfEEEEED1Ev@Base 1.6
 (optional=templinst)_ZN5boost6detail17sp_counted_impl_pIN3pcl11KdTreeFLANNINS2_11PointNormalEN5flann9L2_SimpleIfEEEEED2Ev@Base 1.6
 (optional=templinst)_ZN5boost6detail17sp_counted_impl_pIN3pcl11KdTreeFLANNINS2_11PointXYZHSVEN5flann9L2_SimpleIfEEEEE11get_deleterERKSt9type_info@Base 1.6
 (optional=templinst)_ZN5boost6detail17sp_counted_impl_pIN3pcl11KdTreeFLANNINS2_11PointXYZHSVEN5flann9L2_SimpleIfEEEEE7disposeEv@Base 1.6
 (optional=templinst)_ZN5boost6detail17sp_counted_impl_pIN3pcl11KdTreeFLANNINS2_11PointXYZHSVEN5flann9L2_SimpleIfEEEEED0Ev@Base 1.6
 (optional=templinst)_ZN5boost6detail17sp_counted_impl_pIN3pcl11KdTreeFLANNINS2_11PointXYZHSVEN5flann9L2_SimpleIfEEEEED1Ev@Base 1.6
 (optional=templinst)_ZN5boost6detail17sp_counted_impl_pIN3pcl11KdTreeFLANNINS2_11PointXYZHSVEN5flann9L2_SimpleIfEEEEED2Ev@Base 1.6
 (optional=templinst)_ZN5boost6detail17sp_counted_impl_pIN3pcl11KdTreeFLANNINS2_11PointXYZRGBEN5flann9L2_SimpleIfEEEEE11get_deleterERKSt9type_info@Base 1.6
 (optional=templinst)_ZN5boost6detail17sp_counted_impl_pIN3pcl11KdTreeFLANNINS2_11PointXYZRGBEN5flann9L2_SimpleIfEEEEE7disposeEv@Base 1.6
 (optional=templinst)_ZN5boost6detail17sp_counted_impl_pIN3pcl11KdTreeFLANNINS2_11PointXYZRGBEN5flann9L2_SimpleIfEEEEED0Ev@Base 1.6
 (optional=templinst)_ZN5boost6detail17sp_counted_impl_pIN3pcl11KdTreeFLANNINS2_11PointXYZRGBEN5flann9L2_SimpleIfEEEEED1Ev@Base 1.6
 (optional=templinst)_ZN5boost6detail17sp_counted_impl_pIN3pcl11KdTreeFLANNINS2_11PointXYZRGBEN5flann9L2_SimpleIfEEEEED2Ev@Base 1.6
 (optional=templinst)_ZN5boost6detail17sp_counted_impl_pIN3pcl11KdTreeFLANNINS2_12PPFSignatureEN5flann9L2_SimpleIfEEEEE11get_deleterERKSt9type_info@Base 1.6
 (optional=templinst)_ZN5boost6detail17sp_counted_impl_pIN3pcl11KdTreeFLANNINS2_12PPFSignatureEN5flann9L2_SimpleIfEEEEE7disposeEv@Base 1.6
 (optional=templinst)_ZN5boost6detail17sp_counted_impl_pIN3pcl11KdTreeFLANNINS2_12PPFSignatureEN5flann9L2_SimpleIfEEEEED0Ev@Base 1.6
 (optional=templinst)_ZN5boost6detail17sp_counted_impl_pIN3pcl11KdTreeFLANNINS2_12PPFSignatureEN5flann9L2_SimpleIfEEEEED1Ev@Base 1.6
 (optional=templinst)_ZN5boost6detail17sp_counted_impl_pIN3pcl11KdTreeFLANNINS2_12PPFSignatureEN5flann9L2_SimpleIfEEEEED2Ev@Base 1.6
 (optional=templinst)_ZN5boost6detail17sp_counted_impl_pIN3pcl11KdTreeFLANNINS2_12PointXYZRGBAEN5flann9L2_SimpleIfEEEEE11get_deleterERKSt9type_info@Base 1.6
 (optional=templinst)_ZN5boost6detail17sp_counted_impl_pIN3pcl11KdTreeFLANNINS2_12PointXYZRGBAEN5flann9L2_SimpleIfEEEEE7disposeEv@Base 1.6
 (optional=templinst)_ZN5boost6detail17sp_counted_impl_pIN3pcl11KdTreeFLANNINS2_12PointXYZRGBAEN5flann9L2_SimpleIfEEEEED0Ev@Base 1.6
 (optional=templinst)_ZN5boost6detail17sp_counted_impl_pIN3pcl11KdTreeFLANNINS2_12PointXYZRGBAEN5flann9L2_SimpleIfEEEEED1Ev@Base 1.6
 (optional=templinst)_ZN5boost6detail17sp_counted_impl_pIN3pcl11KdTreeFLANNINS2_12PointXYZRGBAEN5flann9L2_SimpleIfEEEEED2Ev@Base 1.6
 (optional=templinst)_ZN5boost6detail17sp_counted_impl_pIN3pcl11KdTreeFLANNINS2_12PointXYZRGBLEN5flann9L2_SimpleIfEEEEE11get_deleterERKSt9type_info@Base 1.6
 (optional=templinst)_ZN5boost6detail17sp_counted_impl_pIN3pcl11KdTreeFLANNINS2_12PointXYZRGBLEN5flann9L2_SimpleIfEEEEE7disposeEv@Base 1.6
 (optional=templinst)_ZN5boost6detail17sp_counted_impl_pIN3pcl11KdTreeFLANNINS2_12PointXYZRGBLEN5flann9L2_SimpleIfEEEEED0Ev@Base 1.6
 (optional=templinst)_ZN5boost6detail17sp_counted_impl_pIN3pcl11KdTreeFLANNINS2_12PointXYZRGBLEN5flann9L2_SimpleIfEEEEED1Ev@Base 1.6
 (optional=templinst)_ZN5boost6detail17sp_counted_impl_pIN3pcl11KdTreeFLANNINS2_12PointXYZRGBLEN5flann9L2_SimpleIfEEEEED2Ev@Base 1.6
 (optional=templinst)_ZN5boost6detail17sp_counted_impl_pIN3pcl11KdTreeFLANNINS2_13InterestPointEN5flann9L2_SimpleIfEEEEE11get_deleterERKSt9type_info@Base 1.6
 (optional=templinst)_ZN5boost6detail17sp_counted_impl_pIN3pcl11KdTreeFLANNINS2_13InterestPointEN5flann9L2_SimpleIfEEEEE7disposeEv@Base 1.6
 (optional=templinst)_ZN5boost6detail17sp_counted_impl_pIN3pcl11KdTreeFLANNINS2_13InterestPointEN5flann9L2_SimpleIfEEEEED0Ev@Base 1.6
 (optional=templinst)_ZN5boost6detail17sp_counted_impl_pIN3pcl11KdTreeFLANNINS2_13InterestPointEN5flann9L2_SimpleIfEEEEED1Ev@Base 1.6
 (optional=templinst)_ZN5boost6detail17sp_counted_impl_pIN3pcl11KdTreeFLANNINS2_13InterestPointEN5flann9L2_SimpleIfEEEEED2Ev@Base 1.6
 (optional=templinst)_ZN5boost6detail17sp_counted_impl_pIN3pcl11KdTreeFLANNINS2_14PointWithRangeEN5flann9L2_SimpleIfEEEEE11get_deleterERKSt9type_info@Base 1.6
 (optional=templinst)_ZN5boost6detail17sp_counted_impl_pIN3pcl11KdTreeFLANNINS2_14PointWithRangeEN5flann9L2_SimpleIfEEEEE7disposeEv@Base 1.6
 (optional=templinst)_ZN5boost6detail17sp_counted_impl_pIN3pcl11KdTreeFLANNINS2_14PointWithRangeEN5flann9L2_SimpleIfEEEEED0Ev@Base 1.6
 (optional=templinst)_ZN5boost6detail17sp_counted_impl_pIN3pcl11KdTreeFLANNINS2_14PointWithRangeEN5flann9L2_SimpleIfEEEEED1Ev@Base 1.6
 (optional=templinst)_ZN5boost6detail17sp_counted_impl_pIN3pcl11KdTreeFLANNINS2_14PointWithRangeEN5flann9L2_SimpleIfEEEEED2Ev@Base 1.6
 (optional=templinst)_ZN5boost6detail17sp_counted_impl_pIN3pcl11KdTreeFLANNINS2_14PointWithScaleEN5flann9L2_SimpleIfEEEEE11get_deleterERKSt9type_info@Base 1.6
 (optional=templinst)_ZN5boost6detail17sp_counted_impl_pIN3pcl11KdTreeFLANNINS2_14PointWithScaleEN5flann9L2_SimpleIfEEEEE7disposeEv@Base 1.6
 (optional=templinst)_ZN5boost6detail17sp_counted_impl_pIN3pcl11KdTreeFLANNINS2_14PointWithScaleEN5flann9L2_SimpleIfEEEEED0Ev@Base 1.6
 (optional=templinst)_ZN5boost6detail17sp_counted_impl_pIN3pcl11KdTreeFLANNINS2_14PointWithScaleEN5flann9L2_SimpleIfEEEEED1Ev@Base 1.6
 (optional=templinst)_ZN5boost6detail17sp_counted_impl_pIN3pcl11KdTreeFLANNINS2_14PointWithScaleEN5flann9L2_SimpleIfEEEEED2Ev@Base 1.6
 (optional=templinst)_ZN5boost6detail17sp_counted_impl_pIN3pcl11KdTreeFLANNINS2_14ReferenceFrameEN5flann9L2_SimpleIfEEEEE11get_deleterERKSt9type_info@Base 1.6
 (optional=templinst)_ZN5boost6detail17sp_counted_impl_pIN3pcl11KdTreeFLANNINS2_14ReferenceFrameEN5flann9L2_SimpleIfEEEEE7disposeEv@Base 1.6
 (optional=templinst)_ZN5boost6detail17sp_counted_impl_pIN3pcl11KdTreeFLANNINS2_14ReferenceFrameEN5flann9L2_SimpleIfEEEEED0Ev@Base 1.6
 (optional=templinst)_ZN5boost6detail17sp_counted_impl_pIN3pcl11KdTreeFLANNINS2_14ReferenceFrameEN5flann9L2_SimpleIfEEEEED1Ev@Base 1.6
 (optional=templinst)_ZN5boost6detail17sp_counted_impl_pIN3pcl11KdTreeFLANNINS2_14ReferenceFrameEN5flann9L2_SimpleIfEEEEED2Ev@Base 1.6
 (optional=templinst)_ZN5boost6detail17sp_counted_impl_pIN3pcl11KdTreeFLANNINS2_15ESFSignature640EN5flann9L2_SimpleIfEEEEE11get_deleterERKSt9type_info@Base 1.6
 (optional=templinst)_ZN5boost6detail17sp_counted_impl_pIN3pcl11KdTreeFLANNINS2_15ESFSignature640EN5flann9L2_SimpleIfEEEEE7disposeEv@Base 1.6
 (optional=templinst)_ZN5boost6detail17sp_counted_impl_pIN3pcl11KdTreeFLANNINS2_15ESFSignature640EN5flann9L2_SimpleIfEEEEED0Ev@Base 1.6
 (optional=templinst)_ZN5boost6detail17sp_counted_impl_pIN3pcl11KdTreeFLANNINS2_15ESFSignature640EN5flann9L2_SimpleIfEEEEED1Ev@Base 1.6
 (optional=templinst)_ZN5boost6detail17sp_counted_impl_pIN3pcl11KdTreeFLANNINS2_15ESFSignature640EN5flann9L2_SimpleIfEEEEED2Ev@Base 1.6
 (optional=templinst)_ZN5boost6detail17sp_counted_impl_pIN3pcl11KdTreeFLANNINS2_15FPFHSignature33EN5flann9L2_SimpleIfEEEEE11get_deleterERKSt9type_info@Base 1.6
 (optional=templinst)_ZN5boost6detail17sp_counted_impl_pIN3pcl11KdTreeFLANNINS2_15FPFHSignature33EN5flann9L2_SimpleIfEEEEE7disposeEv@Base 1.6
 (optional=templinst)_ZN5boost6detail17sp_counted_impl_pIN3pcl11KdTreeFLANNINS2_15FPFHSignature33EN5flann9L2_SimpleIfEEEEED0Ev@Base 1.6
 (optional=templinst)_ZN5boost6detail17sp_counted_impl_pIN3pcl11KdTreeFLANNINS2_15FPFHSignature33EN5flann9L2_SimpleIfEEEEED1Ev@Base 1.6
 (optional=templinst)_ZN5boost6detail17sp_counted_impl_pIN3pcl11KdTreeFLANNINS2_15FPFHSignature33EN5flann9L2_SimpleIfEEEEED2Ev@Base 1.6
 (optional=templinst)_ZN5boost6detail17sp_counted_impl_pIN3pcl11KdTreeFLANNINS2_15PFHSignature125EN5flann9L2_SimpleIfEEEEE11get_deleterERKSt9type_info@Base 1.6
 (optional=templinst)_ZN5boost6detail17sp_counted_impl_pIN3pcl11KdTreeFLANNINS2_15PFHSignature125EN5flann9L2_SimpleIfEEEEE7disposeEv@Base 1.6
 (optional=templinst)_ZN5boost6detail17sp_counted_impl_pIN3pcl11KdTreeFLANNINS2_15PFHSignature125EN5flann9L2_SimpleIfEEEEED0Ev@Base 1.6
 (optional=templinst)_ZN5boost6detail17sp_counted_impl_pIN3pcl11KdTreeFLANNINS2_15PFHSignature125EN5flann9L2_SimpleIfEEEEED1Ev@Base 1.6
 (optional=templinst)_ZN5boost6detail17sp_counted_impl_pIN3pcl11KdTreeFLANNINS2_15PFHSignature125EN5flann9L2_SimpleIfEEEEED2Ev@Base 1.6
 (optional=templinst)_ZN5boost6detail17sp_counted_impl_pIN3pcl11KdTreeFLANNINS2_15PPFRGBSignatureEN5flann9L2_SimpleIfEEEEE11get_deleterERKSt9type_info@Base 1.6
 (optional=templinst)_ZN5boost6detail17sp_counted_impl_pIN3pcl11KdTreeFLANNINS2_15PPFRGBSignatureEN5flann9L2_SimpleIfEEEEE7disposeEv@Base 1.6
 (optional=templinst)_ZN5boost6detail17sp_counted_impl_pIN3pcl11KdTreeFLANNINS2_15PPFRGBSignatureEN5flann9L2_SimpleIfEEEEED0Ev@Base 1.6
 (optional=templinst)_ZN5boost6detail17sp_counted_impl_pIN3pcl11KdTreeFLANNINS2_15PPFRGBSignatureEN5flann9L2_SimpleIfEEEEED1Ev@Base 1.6
 (optional=templinst)_ZN5boost6detail17sp_counted_impl_pIN3pcl11KdTreeFLANNINS2_15PPFRGBSignatureEN5flann9L2_SimpleIfEEEEED2Ev@Base 1.6
 (optional=templinst)_ZN5boost6detail17sp_counted_impl_pIN3pcl11KdTreeFLANNINS2_15PointXYZINormalEN5flann9L2_SimpleIfEEEEE11get_deleterERKSt9type_info@Base 1.6
 (optional=templinst)_ZN5boost6detail17sp_counted_impl_pIN3pcl11KdTreeFLANNINS2_15PointXYZINormalEN5flann9L2_SimpleIfEEEEE7disposeEv@Base 1.6
 (optional=templinst)_ZN5boost6detail17sp_counted_impl_pIN3pcl11KdTreeFLANNINS2_15PointXYZINormalEN5flann9L2_SimpleIfEEEEED0Ev@Base 1.6
 (optional=templinst)_ZN5boost6detail17sp_counted_impl_pIN3pcl11KdTreeFLANNINS2_15PointXYZINormalEN5flann9L2_SimpleIfEEEEED1Ev@Base 1.6
 (optional=templinst)_ZN5boost6detail17sp_counted_impl_pIN3pcl11KdTreeFLANNINS2_15PointXYZINormalEN5flann9L2_SimpleIfEEEEED2Ev@Base 1.6
 (optional=templinst)_ZN5boost6detail17sp_counted_impl_pIN3pcl11KdTreeFLANNINS2_15VFHSignature308EN5flann9L2_SimpleIfEEEEE11get_deleterERKSt9type_info@Base 1.6
 (optional=templinst)_ZN5boost6detail17sp_counted_impl_pIN3pcl11KdTreeFLANNINS2_15VFHSignature308EN5flann9L2_SimpleIfEEEEE7disposeEv@Base 1.6
 (optional=templinst)_ZN5boost6detail17sp_counted_impl_pIN3pcl11KdTreeFLANNINS2_15VFHSignature308EN5flann9L2_SimpleIfEEEEED0Ev@Base 1.6
 (optional=templinst)_ZN5boost6detail17sp_counted_impl_pIN3pcl11KdTreeFLANNINS2_15VFHSignature308EN5flann9L2_SimpleIfEEEEED1Ev@Base 1.6
 (optional=templinst)_ZN5boost6detail17sp_counted_impl_pIN3pcl11KdTreeFLANNINS2_15VFHSignature308EN5flann9L2_SimpleIfEEEEED2Ev@Base 1.6
 (optional=templinst)_ZN5boost6detail17sp_counted_impl_pIN3pcl11KdTreeFLANNINS2_16MomentInvariantsEN5flann9L2_SimpleIfEEEEE11get_deleterERKSt9type_info@Base 1.6
 (optional=templinst)_ZN5boost6detail17sp_counted_impl_pIN3pcl11KdTreeFLANNINS2_16MomentInvariantsEN5flann9L2_SimpleIfEEEEE7disposeEv@Base 1.6
 (optional=templinst)_ZN5boost6detail17sp_counted_impl_pIN3pcl11KdTreeFLANNINS2_16MomentInvariantsEN5flann9L2_SimpleIfEEEEED0Ev@Base 1.6
 (optional=templinst)_ZN5boost6detail17sp_counted_impl_pIN3pcl11KdTreeFLANNINS2_16MomentInvariantsEN5flann9L2_SimpleIfEEEEED1Ev@Base 1.6
 (optional=templinst)_ZN5boost6detail17sp_counted_impl_pIN3pcl11KdTreeFLANNINS2_16MomentInvariantsEN5flann9L2_SimpleIfEEEEED2Ev@Base 1.6
 (optional=templinst)_ZN5boost6detail17sp_counted_impl_pIN3pcl11KdTreeFLANNINS2_17IntensityGradientEN5flann9L2_SimpleIfEEEEE11get_deleterERKSt9type_info@Base 1.6
 (optional=templinst)_ZN5boost6detail17sp_counted_impl_pIN3pcl11KdTreeFLANNINS2_17IntensityGradientEN5flann9L2_SimpleIfEEEEE7disposeEv@Base 1.6
 (optional=templinst)_ZN5boost6detail17sp_counted_impl_pIN3pcl11KdTreeFLANNINS2_17IntensityGradientEN5flann9L2_SimpleIfEEEEED0Ev@Base 1.6
 (optional=templinst)_ZN5boost6detail17sp_counted_impl_pIN3pcl11KdTreeFLANNINS2_17IntensityGradientEN5flann9L2_SimpleIfEEEEED1Ev@Base 1.6
 (optional=templinst)_ZN5boost6detail17sp_counted_impl_pIN3pcl11KdTreeFLANNINS2_17IntensityGradientEN5flann9L2_SimpleIfEEEEED2Ev@Base 1.6
 (optional=templinst)_ZN5boost6detail17sp_counted_impl_pIN3pcl11KdTreeFLANNINS2_17PointXYZRGBNormalEN5flann9L2_SimpleIfEEEEE11get_deleterERKSt9type_info@Base 1.6
 (optional=templinst)_ZN5boost6detail17sp_counted_impl_pIN3pcl11KdTreeFLANNINS2_17PointXYZRGBNormalEN5flann9L2_SimpleIfEEEEE7disposeEv@Base 1.6
 (optional=templinst)_ZN5boost6detail17sp_counted_impl_pIN3pcl11KdTreeFLANNINS2_17PointXYZRGBNormalEN5flann9L2_SimpleIfEEEEED0Ev@Base 1.6
 (optional=templinst)_ZN5boost6detail17sp_counted_impl_pIN3pcl11KdTreeFLANNINS2_17PointXYZRGBNormalEN5flann9L2_SimpleIfEEEEED1Ev@Base 1.6
 (optional=templinst)_ZN5boost6detail17sp_counted_impl_pIN3pcl11KdTreeFLANNINS2_17PointXYZRGBNormalEN5flann9L2_SimpleIfEEEEED2Ev@Base 1.6
 (optional=templinst)_ZN5boost6detail17sp_counted_impl_pIN3pcl11KdTreeFLANNINS2_17PrincipalRadiiRSDEN5flann9L2_SimpleIfEEEEE11get_deleterERKSt9type_info@Base 1.6
 (optional=templinst)_ZN5boost6detail17sp_counted_impl_pIN3pcl11KdTreeFLANNINS2_17PrincipalRadiiRSDEN5flann9L2_SimpleIfEEEEE7disposeEv@Base 1.6
 (optional=templinst)_ZN5boost6detail17sp_counted_impl_pIN3pcl11KdTreeFLANNINS2_17PrincipalRadiiRSDEN5flann9L2_SimpleIfEEEEED0Ev@Base 1.6
 (optional=templinst)_ZN5boost6detail17sp_counted_impl_pIN3pcl11KdTreeFLANNINS2_17PrincipalRadiiRSDEN5flann9L2_SimpleIfEEEEED1Ev@Base 1.6
 (optional=templinst)_ZN5boost6detail17sp_counted_impl_pIN3pcl11KdTreeFLANNINS2_17PrincipalRadiiRSDEN5flann9L2_SimpleIfEEEEED2Ev@Base 1.6
 (optional=templinst)_ZN5boost6detail17sp_counted_impl_pIN3pcl11KdTreeFLANNINS2_18PFHRGBSignature250EN5flann9L2_SimpleIfEEEEE11get_deleterERKSt9type_info@Base 1.6
 (optional=templinst)_ZN5boost6detail17sp_counted_impl_pIN3pcl11KdTreeFLANNINS2_18PFHRGBSignature250EN5flann9L2_SimpleIfEEEEE7disposeEv@Base 1.6
 (optional=templinst)_ZN5boost6detail17sp_counted_impl_pIN3pcl11KdTreeFLANNINS2_18PFHRGBSignature250EN5flann9L2_SimpleIfEEEEED0Ev@Base 1.6
 (optional=templinst)_ZN5boost6detail17sp_counted_impl_pIN3pcl11KdTreeFLANNINS2_18PFHRGBSignature250EN5flann9L2_SimpleIfEEEEED1Ev@Base 1.6
 (optional=templinst)_ZN5boost6detail17sp_counted_impl_pIN3pcl11KdTreeFLANNINS2_18PFHRGBSignature250EN5flann9L2_SimpleIfEEEEED2Ev@Base 1.6
 (optional=templinst)_ZN5boost6detail17sp_counted_impl_pIN3pcl11KdTreeFLANNINS2_18PointWithViewpointEN5flann9L2_SimpleIfEEEEE11get_deleterERKSt9type_info@Base 1.6
 (optional=templinst)_ZN5boost6detail17sp_counted_impl_pIN3pcl11KdTreeFLANNINS2_18PointWithViewpointEN5flann9L2_SimpleIfEEEEE7disposeEv@Base 1.6
 (optional=templinst)_ZN5boost6detail17sp_counted_impl_pIN3pcl11KdTreeFLANNINS2_18PointWithViewpointEN5flann9L2_SimpleIfEEEEED0Ev@Base 1.6
 (optional=templinst)_ZN5boost6detail17sp_counted_impl_pIN3pcl11KdTreeFLANNINS2_18PointWithViewpointEN5flann9L2_SimpleIfEEEEED1Ev@Base 1.6
 (optional=templinst)_ZN5boost6detail17sp_counted_impl_pIN3pcl11KdTreeFLANNINS2_18PointWithViewpointEN5flann9L2_SimpleIfEEEEED2Ev@Base 1.6
 (optional=templinst)_ZN5boost6detail17sp_counted_impl_pIN3pcl11KdTreeFLANNINS2_19PrincipalCurvaturesEN5flann9L2_SimpleIfEEEEE11get_deleterERKSt9type_info@Base 1.6
 (optional=templinst)_ZN5boost6detail17sp_counted_impl_pIN3pcl11KdTreeFLANNINS2_19PrincipalCurvaturesEN5flann9L2_SimpleIfEEEEE7disposeEv@Base 1.6
 (optional=templinst)_ZN5boost6detail17sp_counted_impl_pIN3pcl11KdTreeFLANNINS2_19PrincipalCurvaturesEN5flann9L2_SimpleIfEEEEED0Ev@Base 1.6
 (optional=templinst)_ZN5boost6detail17sp_counted_impl_pIN3pcl11KdTreeFLANNINS2_19PrincipalCurvaturesEN5flann9L2_SimpleIfEEEEED1Ev@Base 1.6
 (optional=templinst)_ZN5boost6detail17sp_counted_impl_pIN3pcl11KdTreeFLANNINS2_19PrincipalCurvaturesEN5flann9L2_SimpleIfEEEEED2Ev@Base 1.6
 (optional=templinst)_ZN5boost6detail17sp_counted_impl_pIN3pcl11KdTreeFLANNINS2_22NormalBasedSignature12EN5flann9L2_SimpleIfEEEEE11get_deleterERKSt9type_info@Base 1.6
 (optional=templinst)_ZN5boost6detail17sp_counted_impl_pIN3pcl11KdTreeFLANNINS2_22NormalBasedSignature12EN5flann9L2_SimpleIfEEEEE7disposeEv@Base 1.6
 (optional=templinst)_ZN5boost6detail17sp_counted_impl_pIN3pcl11KdTreeFLANNINS2_22NormalBasedSignature12EN5flann9L2_SimpleIfEEEEED0Ev@Base 1.6
 (optional=templinst)_ZN5boost6detail17sp_counted_impl_pIN3pcl11KdTreeFLANNINS2_22NormalBasedSignature12EN5flann9L2_SimpleIfEEEEED1Ev@Base 1.6
 (optional=templinst)_ZN5boost6detail17sp_counted_impl_pIN3pcl11KdTreeFLANNINS2_22NormalBasedSignature12EN5flann9L2_SimpleIfEEEEED2Ev@Base 1.6
 (optional=templinst)_ZN5boost6detail17sp_counted_impl_pIN3pcl11KdTreeFLANNINS2_4AxisEN5flann9L2_SimpleIfEEEEE11get_deleterERKSt9type_info@Base 1.6
 (optional=templinst)_ZN5boost6detail17sp_counted_impl_pIN3pcl11KdTreeFLANNINS2_4AxisEN5flann9L2_SimpleIfEEEEE7disposeEv@Base 1.6
 (optional=templinst)_ZN5boost6detail17sp_counted_impl_pIN3pcl11KdTreeFLANNINS2_4AxisEN5flann9L2_SimpleIfEEEEED0Ev@Base 1.6
 (optional=templinst)_ZN5boost6detail17sp_counted_impl_pIN3pcl11KdTreeFLANNINS2_4AxisEN5flann9L2_SimpleIfEEEEED1Ev@Base 1.6
 (optional=templinst)_ZN5boost6detail17sp_counted_impl_pIN3pcl11KdTreeFLANNINS2_4AxisEN5flann9L2_SimpleIfEEEEED2Ev@Base 1.6
 (optional=templinst)_ZN5boost6detail17sp_counted_impl_pIN3pcl11KdTreeFLANNINS2_5LabelEN5flann9L2_SimpleIfEEEEE11get_deleterERKSt9type_info@Base 1.6
 (optional=templinst)_ZN5boost6detail17sp_counted_impl_pIN3pcl11KdTreeFLANNINS2_5LabelEN5flann9L2_SimpleIfEEEEE7disposeEv@Base 1.6
 (optional=templinst)_ZN5boost6detail17sp_counted_impl_pIN3pcl11KdTreeFLANNINS2_5LabelEN5flann9L2_SimpleIfEEEEED0Ev@Base 1.6
 (optional=templinst)_ZN5boost6detail17sp_counted_impl_pIN3pcl11KdTreeFLANNINS2_5LabelEN5flann9L2_SimpleIfEEEEED1Ev@Base 1.6
 (optional=templinst)_ZN5boost6detail17sp_counted_impl_pIN3pcl11KdTreeFLANNINS2_5LabelEN5flann9L2_SimpleIfEEEEED2Ev@Base 1.6
 (optional=templinst)_ZN5boost6detail17sp_counted_impl_pIN3pcl11KdTreeFLANNINS2_6Narf36EN5flann9L2_SimpleIfEEEEE11get_deleterERKSt9type_info@Base 1.6
 (optional=templinst)_ZN5boost6detail17sp_counted_impl_pIN3pcl11KdTreeFLANNINS2_6Narf36EN5flann9L2_SimpleIfEEEEE7disposeEv@Base 1.6
 (optional=templinst)_ZN5boost6detail17sp_counted_impl_pIN3pcl11KdTreeFLANNINS2_6Narf36EN5flann9L2_SimpleIfEEEEED0Ev@Base 1.6
 (optional=templinst)_ZN5boost6detail17sp_counted_impl_pIN3pcl11KdTreeFLANNINS2_6Narf36EN5flann9L2_SimpleIfEEEEED1Ev@Base 1.6
 (optional=templinst)_ZN5boost6detail17sp_counted_impl_pIN3pcl11KdTreeFLANNINS2_6Narf36EN5flann9L2_SimpleIfEEEEED2Ev@Base 1.6
 (optional=templinst)_ZN5boost6detail17sp_counted_impl_pIN3pcl11KdTreeFLANNINS2_6NormalEN5flann9L2_SimpleIfEEEEE11get_deleterERKSt9type_info@Base 1.6
 (optional=templinst)_ZN5boost6detail17sp_counted_impl_pIN3pcl11KdTreeFLANNINS2_6NormalEN5flann9L2_SimpleIfEEEEE7disposeEv@Base 1.6
 (optional=templinst)_ZN5boost6detail17sp_counted_impl_pIN3pcl11KdTreeFLANNINS2_6NormalEN5flann9L2_SimpleIfEEEEED0Ev@Base 1.6
 (optional=templinst)_ZN5boost6detail17sp_counted_impl_pIN3pcl11KdTreeFLANNINS2_6NormalEN5flann9L2_SimpleIfEEEEED1Ev@Base 1.6
 (optional=templinst)_ZN5boost6detail17sp_counted_impl_pIN3pcl11KdTreeFLANNINS2_6NormalEN5flann9L2_SimpleIfEEEEED2Ev@Base 1.6
 (optional=templinst)_ZN5boost6detail17sp_counted_impl_pIN3pcl11KdTreeFLANNINS2_7PointXYEN5flann9L2_SimpleIfEEEEE11get_deleterERKSt9type_info@Base 1.6
 (optional=templinst)_ZN5boost6detail17sp_counted_impl_pIN3pcl11KdTreeFLANNINS2_7PointXYEN5flann9L2_SimpleIfEEEEE7disposeEv@Base 1.6
 (optional=templinst)_ZN5boost6detail17sp_counted_impl_pIN3pcl11KdTreeFLANNINS2_7PointXYEN5flann9L2_SimpleIfEEEEED0Ev@Base 1.6
 (optional=templinst)_ZN5boost6detail17sp_counted_impl_pIN3pcl11KdTreeFLANNINS2_7PointXYEN5flann9L2_SimpleIfEEEEED1Ev@Base 1.6
 (optional=templinst)_ZN5boost6detail17sp_counted_impl_pIN3pcl11KdTreeFLANNINS2_7PointXYEN5flann9L2_SimpleIfEEEEED2Ev@Base 1.6
 (optional=templinst)_ZN5boost6detail17sp_counted_impl_pIN3pcl11KdTreeFLANNINS2_8BoundaryEN5flann9L2_SimpleIfEEEEE11get_deleterERKSt9type_info@Base 1.6
 (optional=templinst)_ZN5boost6detail17sp_counted_impl_pIN3pcl11KdTreeFLANNINS2_8BoundaryEN5flann9L2_SimpleIfEEEEE7disposeEv@Base 1.6
 (optional=templinst)_ZN5boost6detail17sp_counted_impl_pIN3pcl11KdTreeFLANNINS2_8BoundaryEN5flann9L2_SimpleIfEEEEED0Ev@Base 1.6
 (optional=templinst)_ZN5boost6detail17sp_counted_impl_pIN3pcl11KdTreeFLANNINS2_8BoundaryEN5flann9L2_SimpleIfEEEEED1Ev@Base 1.6
 (optional=templinst)_ZN5boost6detail17sp_counted_impl_pIN3pcl11KdTreeFLANNINS2_8BoundaryEN5flann9L2_SimpleIfEEEEED2Ev@Base 1.6
 (optional=templinst)_ZN5boost6detail17sp_counted_impl_pIN3pcl11KdTreeFLANNINS2_8PointXYZEN5flann9L2_SimpleIfEEEEE11get_deleterERKSt9type_info@Base 1.6
 (optional=templinst)_ZN5boost6detail17sp_counted_impl_pIN3pcl11KdTreeFLANNINS2_8PointXYZEN5flann9L2_SimpleIfEEEEE7disposeEv@Base 1.6
 (optional=templinst)_ZN5boost6detail17sp_counted_impl_pIN3pcl11KdTreeFLANNINS2_8PointXYZEN5flann9L2_SimpleIfEEEEED0Ev@Base 1.6
 (optional=templinst)_ZN5boost6detail17sp_counted_impl_pIN3pcl11KdTreeFLANNINS2_8PointXYZEN5flann9L2_SimpleIfEEEEED1Ev@Base 1.6
 (optional=templinst)_ZN5boost6detail17sp_counted_impl_pIN3pcl11KdTreeFLANNINS2_8PointXYZEN5flann9L2_SimpleIfEEEEED2Ev@Base 1.6
 (optional=templinst)_ZN5boost6detail17sp_counted_impl_pIN3pcl11KdTreeFLANNINS2_9PointXYZIEN5flann9L2_SimpleIfEEEEE11get_deleterERKSt9type_info@Base 1.6
 (optional=templinst)_ZN5boost6detail17sp_counted_impl_pIN3pcl11KdTreeFLANNINS2_9PointXYZIEN5flann9L2_SimpleIfEEEEE7disposeEv@Base 1.6
 (optional=templinst)_ZN5boost6detail17sp_counted_impl_pIN3pcl11KdTreeFLANNINS2_9PointXYZIEN5flann9L2_SimpleIfEEEEED0Ev@Base 1.6
 (optional=templinst)_ZN5boost6detail17sp_counted_impl_pIN3pcl11KdTreeFLANNINS2_9PointXYZIEN5flann9L2_SimpleIfEEEEED1Ev@Base 1.6
 (optional=templinst)_ZN5boost6detail17sp_counted_impl_pIN3pcl11KdTreeFLANNINS2_9PointXYZIEN5flann9L2_SimpleIfEEEEED2Ev@Base 1.6
 (optional=templinst)_ZN5boost6detail17sp_counted_impl_pIN3pcl11KdTreeFLANNINS2_9PointXYZLEN5flann9L2_SimpleIfEEEEE11get_deleterERKSt9type_info@Base 1.6
 (optional=templinst)_ZN5boost6detail17sp_counted_impl_pIN3pcl11KdTreeFLANNINS2_9PointXYZLEN5flann9L2_SimpleIfEEEEE7disposeEv@Base 1.6
 (optional=templinst)_ZN5boost6detail17sp_counted_impl_pIN3pcl11KdTreeFLANNINS2_9PointXYZLEN5flann9L2_SimpleIfEEEEED0Ev@Base 1.6
 (optional=templinst)_ZN5boost6detail17sp_counted_impl_pIN3pcl11KdTreeFLANNINS2_9PointXYZLEN5flann9L2_SimpleIfEEEEED1Ev@Base 1.6
 (optional=templinst)_ZN5boost6detail17sp_counted_impl_pIN3pcl11KdTreeFLANNINS2_9PointXYZLEN5flann9L2_SimpleIfEEEEED2Ev@Base 1.6
 (optional=templinst)_ZN5boost6detail17sp_counted_impl_pIN3pcl26DefaultPointRepresentationINS2_11PointNormalEEEE11get_deleterERKSt9type_info@Base 1.6
 (optional=templinst)_ZN5boost6detail17sp_counted_impl_pIN3pcl26DefaultPointRepresentationINS2_11PointNormalEEEE7disposeEv@Base 1.6
 (optional=templinst)_ZN5boost6detail17sp_counted_impl_pIN3pcl26DefaultPointRepresentationINS2_11PointNormalEEEED0Ev@Base 1.6
 (optional=templinst)_ZN5boost6detail17sp_counted_impl_pIN3pcl26DefaultPointRepresentationINS2_11PointNormalEEEED1Ev@Base 1.6
 (optional=templinst)_ZN5boost6detail17sp_counted_impl_pIN3pcl26DefaultPointRepresentationINS2_11PointNormalEEEED2Ev@Base 1.6
 (optional=templinst)_ZN5boost6detail17sp_counted_impl_pIN3pcl26DefaultPointRepresentationINS2_11PointXYZHSVEEEE11get_deleterERKSt9type_info@Base 1.6
 (optional=templinst)_ZN5boost6detail17sp_counted_impl_pIN3pcl26DefaultPointRepresentationINS2_11PointXYZHSVEEEE7disposeEv@Base 1.6
 (optional=templinst)_ZN5boost6detail17sp_counted_impl_pIN3pcl26DefaultPointRepresentationINS2_11PointXYZHSVEEEED0Ev@Base 1.6
 (optional=templinst)_ZN5boost6detail17sp_counted_impl_pIN3pcl26DefaultPointRepresentationINS2_11PointXYZHSVEEEED1Ev@Base 1.6
 (optional=templinst)_ZN5boost6detail17sp_counted_impl_pIN3pcl26DefaultPointRepresentationINS2_11PointXYZHSVEEEED2Ev@Base 1.6
 (optional=templinst)_ZN5boost6detail17sp_counted_impl_pIN3pcl26DefaultPointRepresentationINS2_11PointXYZRGBEEEE11get_deleterERKSt9type_info@Base 1.6
 (optional=templinst)_ZN5boost6detail17sp_counted_impl_pIN3pcl26DefaultPointRepresentationINS2_11PointXYZRGBEEEE7disposeEv@Base 1.6
 (optional=templinst)_ZN5boost6detail17sp_counted_impl_pIN3pcl26DefaultPointRepresentationINS2_11PointXYZRGBEEEED0Ev@Base 1.6
 (optional=templinst)_ZN5boost6detail17sp_counted_impl_pIN3pcl26DefaultPointRepresentationINS2_11PointXYZRGBEEEED1Ev@Base 1.6
 (optional=templinst)_ZN5boost6detail17sp_counted_impl_pIN3pcl26DefaultPointRepresentationINS2_11PointXYZRGBEEEED2Ev@Base 1.6
 (optional=templinst)_ZN5boost6detail17sp_counted_impl_pIN3pcl26DefaultPointRepresentationINS2_12PPFSignatureEEEE11get_deleterERKSt9type_info@Base 1.6
 (optional=templinst)_ZN5boost6detail17sp_counted_impl_pIN3pcl26DefaultPointRepresentationINS2_12PPFSignatureEEEE7disposeEv@Base 1.6
 (optional=templinst)_ZN5boost6detail17sp_counted_impl_pIN3pcl26DefaultPointRepresentationINS2_12PPFSignatureEEEED0Ev@Base 1.6
 (optional=templinst)_ZN5boost6detail17sp_counted_impl_pIN3pcl26DefaultPointRepresentationINS2_12PPFSignatureEEEED1Ev@Base 1.6
 (optional=templinst)_ZN5boost6detail17sp_counted_impl_pIN3pcl26DefaultPointRepresentationINS2_12PPFSignatureEEEED2Ev@Base 1.6
 (optional=templinst)_ZN5boost6detail17sp_counted_impl_pIN3pcl26DefaultPointRepresentationINS2_12PointXYZRGBAEEEE11get_deleterERKSt9type_info@Base 1.6
 (optional=templinst)_ZN5boost6detail17sp_counted_impl_pIN3pcl26DefaultPointRepresentationINS2_12PointXYZRGBAEEEE7disposeEv@Base 1.6
 (optional=templinst)_ZN5boost6detail17sp_counted_impl_pIN3pcl26DefaultPointRepresentationINS2_12PointXYZRGBAEEEED0Ev@Base 1.6
 (optional=templinst)_ZN5boost6detail17sp_counted_impl_pIN3pcl26DefaultPointRepresentationINS2_12PointXYZRGBAEEEED1Ev@Base 1.6
 (optional=templinst)_ZN5boost6detail17sp_counted_impl_pIN3pcl26DefaultPointRepresentationINS2_12PointXYZRGBAEEEED2Ev@Base 1.6
 (optional=templinst)_ZN5boost6detail17sp_counted_impl_pIN3pcl26DefaultPointRepresentationINS2_12PointXYZRGBLEEEE11get_deleterERKSt9type_info@Base 1.6
 (optional=templinst)_ZN5boost6detail17sp_counted_impl_pIN3pcl26DefaultPointRepresentationINS2_12PointXYZRGBLEEEE7disposeEv@Base 1.6
 (optional=templinst)_ZN5boost6detail17sp_counted_impl_pIN3pcl26DefaultPointRepresentationINS2_12PointXYZRGBLEEEED0Ev@Base 1.6
 (optional=templinst)_ZN5boost6detail17sp_counted_impl_pIN3pcl26DefaultPointRepresentationINS2_12PointXYZRGBLEEEED1Ev@Base 1.6
 (optional=templinst)_ZN5boost6detail17sp_counted_impl_pIN3pcl26DefaultPointRepresentationINS2_12PointXYZRGBLEEEED2Ev@Base 1.6
 (optional=templinst)_ZN5boost6detail17sp_counted_impl_pIN3pcl26DefaultPointRepresentationINS2_13InterestPointEEEE11get_deleterERKSt9type_info@Base 1.6
 (optional=templinst)_ZN5boost6detail17sp_counted_impl_pIN3pcl26DefaultPointRepresentationINS2_13InterestPointEEEE7disposeEv@Base 1.6
 (optional=templinst)_ZN5boost6detail17sp_counted_impl_pIN3pcl26DefaultPointRepresentationINS2_13InterestPointEEEED0Ev@Base 1.6
 (optional=templinst)_ZN5boost6detail17sp_counted_impl_pIN3pcl26DefaultPointRepresentationINS2_13InterestPointEEEED1Ev@Base 1.6
 (optional=templinst)_ZN5boost6detail17sp_counted_impl_pIN3pcl26DefaultPointRepresentationINS2_13InterestPointEEEED2Ev@Base 1.6
 (optional=templinst)_ZN5boost6detail17sp_counted_impl_pIN3pcl26DefaultPointRepresentationINS2_14PointWithRangeEEEE11get_deleterERKSt9type_info@Base 1.6
 (optional=templinst)_ZN5boost6detail17sp_counted_impl_pIN3pcl26DefaultPointRepresentationINS2_14PointWithRangeEEEE7disposeEv@Base 1.6
 (optional=templinst)_ZN5boost6detail17sp_counted_impl_pIN3pcl26DefaultPointRepresentationINS2_14PointWithRangeEEEED0Ev@Base 1.6
 (optional=templinst)_ZN5boost6detail17sp_counted_impl_pIN3pcl26DefaultPointRepresentationINS2_14PointWithRangeEEEED1Ev@Base 1.6
 (optional=templinst)_ZN5boost6detail17sp_counted_impl_pIN3pcl26DefaultPointRepresentationINS2_14PointWithRangeEEEED2Ev@Base 1.6
 (optional=templinst)_ZN5boost6detail17sp_counted_impl_pIN3pcl26DefaultPointRepresentationINS2_14PointWithScaleEEEE11get_deleterERKSt9type_info@Base 1.6
 (optional=templinst)_ZN5boost6detail17sp_counted_impl_pIN3pcl26DefaultPointRepresentationINS2_14PointWithScaleEEEE7disposeEv@Base 1.6
 (optional=templinst)_ZN5boost6detail17sp_counted_impl_pIN3pcl26DefaultPointRepresentationINS2_14PointWithScaleEEEED0Ev@Base 1.6
 (optional=templinst)_ZN5boost6detail17sp_counted_impl_pIN3pcl26DefaultPointRepresentationINS2_14PointWithScaleEEEED1Ev@Base 1.6
 (optional=templinst)_ZN5boost6detail17sp_counted_impl_pIN3pcl26DefaultPointRepresentationINS2_14PointWithScaleEEEED2Ev@Base 1.6
 (optional=templinst)_ZN5boost6detail17sp_counted_impl_pIN3pcl26DefaultPointRepresentationINS2_14ReferenceFrameEEEE11get_deleterERKSt9type_info@Base 1.6
 (optional=templinst)_ZN5boost6detail17sp_counted_impl_pIN3pcl26DefaultPointRepresentationINS2_14ReferenceFrameEEEE7disposeEv@Base 1.6
 (optional=templinst)_ZN5boost6detail17sp_counted_impl_pIN3pcl26DefaultPointRepresentationINS2_14ReferenceFrameEEEED0Ev@Base 1.6
 (optional=templinst)_ZN5boost6detail17sp_counted_impl_pIN3pcl26DefaultPointRepresentationINS2_14ReferenceFrameEEEED1Ev@Base 1.6
 (optional=templinst)_ZN5boost6detail17sp_counted_impl_pIN3pcl26DefaultPointRepresentationINS2_14ReferenceFrameEEEED2Ev@Base 1.6
 (optional=templinst)_ZN5boost6detail17sp_counted_impl_pIN3pcl26DefaultPointRepresentationINS2_15ESFSignature640EEEE11get_deleterERKSt9type_info@Base 1.6
 (optional=templinst)_ZN5boost6detail17sp_counted_impl_pIN3pcl26DefaultPointRepresentationINS2_15ESFSignature640EEEE7disposeEv@Base 1.6
 (optional=templinst)_ZN5boost6detail17sp_counted_impl_pIN3pcl26DefaultPointRepresentationINS2_15ESFSignature640EEEED0Ev@Base 1.6
 (optional=templinst)_ZN5boost6detail17sp_counted_impl_pIN3pcl26DefaultPointRepresentationINS2_15ESFSignature640EEEED1Ev@Base 1.6
 (optional=templinst)_ZN5boost6detail17sp_counted_impl_pIN3pcl26DefaultPointRepresentationINS2_15ESFSignature640EEEED2Ev@Base 1.6
 (optional=templinst)_ZN5boost6detail17sp_counted_impl_pIN3pcl26DefaultPointRepresentationINS2_15FPFHSignature33EEEE11get_deleterERKSt9type_info@Base 1.6
 (optional=templinst)_ZN5boost6detail17sp_counted_impl_pIN3pcl26DefaultPointRepresentationINS2_15FPFHSignature33EEEE7disposeEv@Base 1.6
 (optional=templinst)_ZN5boost6detail17sp_counted_impl_pIN3pcl26DefaultPointRepresentationINS2_15FPFHSignature33EEEED0Ev@Base 1.6
 (optional=templinst)_ZN5boost6detail17sp_counted_impl_pIN3pcl26DefaultPointRepresentationINS2_15FPFHSignature33EEEED1Ev@Base 1.6
 (optional=templinst)_ZN5boost6detail17sp_counted_impl_pIN3pcl26DefaultPointRepresentationINS2_15FPFHSignature33EEEED2Ev@Base 1.6
 (optional=templinst)_ZN5boost6detail17sp_counted_impl_pIN3pcl26DefaultPointRepresentationINS2_15PFHSignature125EEEE11get_deleterERKSt9type_info@Base 1.6
 (optional=templinst)_ZN5boost6detail17sp_counted_impl_pIN3pcl26DefaultPointRepresentationINS2_15PFHSignature125EEEE7disposeEv@Base 1.6
 (optional=templinst)_ZN5boost6detail17sp_counted_impl_pIN3pcl26DefaultPointRepresentationINS2_15PFHSignature125EEEED0Ev@Base 1.6
 (optional=templinst)_ZN5boost6detail17sp_counted_impl_pIN3pcl26DefaultPointRepresentationINS2_15PFHSignature125EEEED1Ev@Base 1.6
 (optional=templinst)_ZN5boost6detail17sp_counted_impl_pIN3pcl26DefaultPointRepresentationINS2_15PFHSignature125EEEED2Ev@Base 1.6
 (optional=templinst)_ZN5boost6detail17sp_counted_impl_pIN3pcl26DefaultPointRepresentationINS2_15PPFRGBSignatureEEEE11get_deleterERKSt9type_info@Base 1.6
 (optional=templinst)_ZN5boost6detail17sp_counted_impl_pIN3pcl26DefaultPointRepresentationINS2_15PPFRGBSignatureEEEE7disposeEv@Base 1.6
 (optional=templinst)_ZN5boost6detail17sp_counted_impl_pIN3pcl26DefaultPointRepresentationINS2_15PPFRGBSignatureEEEED0Ev@Base 1.6
 (optional=templinst)_ZN5boost6detail17sp_counted_impl_pIN3pcl26DefaultPointRepresentationINS2_15PPFRGBSignatureEEEED1Ev@Base 1.6
 (optional=templinst)_ZN5boost6detail17sp_counted_impl_pIN3pcl26DefaultPointRepresentationINS2_15PPFRGBSignatureEEEED2Ev@Base 1.6
 (optional=templinst)_ZN5boost6detail17sp_counted_impl_pIN3pcl26DefaultPointRepresentationINS2_15PointXYZINormalEEEE11get_deleterERKSt9type_info@Base 1.6
 (optional=templinst)_ZN5boost6detail17sp_counted_impl_pIN3pcl26DefaultPointRepresentationINS2_15PointXYZINormalEEEE7disposeEv@Base 1.6
 (optional=templinst)_ZN5boost6detail17sp_counted_impl_pIN3pcl26DefaultPointRepresentationINS2_15PointXYZINormalEEEED0Ev@Base 1.6
 (optional=templinst)_ZN5boost6detail17sp_counted_impl_pIN3pcl26DefaultPointRepresentationINS2_15PointXYZINormalEEEED1Ev@Base 1.6
 (optional=templinst)_ZN5boost6detail17sp_counted_impl_pIN3pcl26DefaultPointRepresentationINS2_15PointXYZINormalEEEED2Ev@Base 1.6
 (optional=templinst)_ZN5boost6detail17sp_counted_impl_pIN3pcl26DefaultPointRepresentationINS2_15VFHSignature308EEEE11get_deleterERKSt9type_info@Base 1.6
 (optional=templinst)_ZN5boost6detail17sp_counted_impl_pIN3pcl26DefaultPointRepresentationINS2_15VFHSignature308EEEE7disposeEv@Base 1.6
 (optional=templinst)_ZN5boost6detail17sp_counted_impl_pIN3pcl26DefaultPointRepresentationINS2_15VFHSignature308EEEED0Ev@Base 1.6
 (optional=templinst)_ZN5boost6detail17sp_counted_impl_pIN3pcl26DefaultPointRepresentationINS2_15VFHSignature308EEEED1Ev@Base 1.6
 (optional=templinst)_ZN5boost6detail17sp_counted_impl_pIN3pcl26DefaultPointRepresentationINS2_15VFHSignature308EEEED2Ev@Base 1.6
 (optional=templinst)_ZN5boost6detail17sp_counted_impl_pIN3pcl26DefaultPointRepresentationINS2_16MomentInvariantsEEEE11get_deleterERKSt9type_info@Base 1.6
 (optional=templinst)_ZN5boost6detail17sp_counted_impl_pIN3pcl26DefaultPointRepresentationINS2_16MomentInvariantsEEEE7disposeEv@Base 1.6
 (optional=templinst)_ZN5boost6detail17sp_counted_impl_pIN3pcl26DefaultPointRepresentationINS2_16MomentInvariantsEEEED0Ev@Base 1.6
 (optional=templinst)_ZN5boost6detail17sp_counted_impl_pIN3pcl26DefaultPointRepresentationINS2_16MomentInvariantsEEEED1Ev@Base 1.6
 (optional=templinst)_ZN5boost6detail17sp_counted_impl_pIN3pcl26DefaultPointRepresentationINS2_16MomentInvariantsEEEED2Ev@Base 1.6
 (optional=templinst)_ZN5boost6detail17sp_counted_impl_pIN3pcl26DefaultPointRepresentationINS2_17IntensityGradientEEEE11get_deleterERKSt9type_info@Base 1.6
 (optional=templinst)_ZN5boost6detail17sp_counted_impl_pIN3pcl26DefaultPointRepresentationINS2_17IntensityGradientEEEE7disposeEv@Base 1.6
 (optional=templinst)_ZN5boost6detail17sp_counted_impl_pIN3pcl26DefaultPointRepresentationINS2_17IntensityGradientEEEED0Ev@Base 1.6
 (optional=templinst)_ZN5boost6detail17sp_counted_impl_pIN3pcl26DefaultPointRepresentationINS2_17IntensityGradientEEEED1Ev@Base 1.6
 (optional=templinst)_ZN5boost6detail17sp_counted_impl_pIN3pcl26DefaultPointRepresentationINS2_17IntensityGradientEEEED2Ev@Base 1.6
 (optional=templinst)_ZN5boost6detail17sp_counted_impl_pIN3pcl26DefaultPointRepresentationINS2_17PointXYZRGBNormalEEEE11get_deleterERKSt9type_info@Base 1.6
 (optional=templinst)_ZN5boost6detail17sp_counted_impl_pIN3pcl26DefaultPointRepresentationINS2_17PointXYZRGBNormalEEEE7disposeEv@Base 1.6
 (optional=templinst)_ZN5boost6detail17sp_counted_impl_pIN3pcl26DefaultPointRepresentationINS2_17PointXYZRGBNormalEEEED0Ev@Base 1.6
 (optional=templinst)_ZN5boost6detail17sp_counted_impl_pIN3pcl26DefaultPointRepresentationINS2_17PointXYZRGBNormalEEEED1Ev@Base 1.6
 (optional=templinst)_ZN5boost6detail17sp_counted_impl_pIN3pcl26DefaultPointRepresentationINS2_17PointXYZRGBNormalEEEED2Ev@Base 1.6
 (optional=templinst)_ZN5boost6detail17sp_counted_impl_pIN3pcl26DefaultPointRepresentationINS2_17PrincipalRadiiRSDEEEE11get_deleterERKSt9type_info@Base 1.6
 (optional=templinst)_ZN5boost6detail17sp_counted_impl_pIN3pcl26DefaultPointRepresentationINS2_17PrincipalRadiiRSDEEEE7disposeEv@Base 1.6
 (optional=templinst)_ZN5boost6detail17sp_counted_impl_pIN3pcl26DefaultPointRepresentationINS2_17PrincipalRadiiRSDEEEED0Ev@Base 1.6
 (optional=templinst)_ZN5boost6detail17sp_counted_impl_pIN3pcl26DefaultPointRepresentationINS2_17PrincipalRadiiRSDEEEED1Ev@Base 1.6
 (optional=templinst)_ZN5boost6detail17sp_counted_impl_pIN3pcl26DefaultPointRepresentationINS2_17PrincipalRadiiRSDEEEED2Ev@Base 1.6
 (optional=templinst)_ZN5boost6detail17sp_counted_impl_pIN3pcl26DefaultPointRepresentationINS2_18PFHRGBSignature250EEEE11get_deleterERKSt9type_info@Base 1.6
 (optional=templinst)_ZN5boost6detail17sp_counted_impl_pIN3pcl26DefaultPointRepresentationINS2_18PFHRGBSignature250EEEE7disposeEv@Base 1.6
 (optional=templinst)_ZN5boost6detail17sp_counted_impl_pIN3pcl26DefaultPointRepresentationINS2_18PFHRGBSignature250EEEED0Ev@Base 1.6
 (optional=templinst)_ZN5boost6detail17sp_counted_impl_pIN3pcl26DefaultPointRepresentationINS2_18PFHRGBSignature250EEEED1Ev@Base 1.6
 (optional=templinst)_ZN5boost6detail17sp_counted_impl_pIN3pcl26DefaultPointRepresentationINS2_18PFHRGBSignature250EEEED2Ev@Base 1.6
 (optional=templinst)_ZN5boost6detail17sp_counted_impl_pIN3pcl26DefaultPointRepresentationINS2_18PointWithViewpointEEEE11get_deleterERKSt9type_info@Base 1.6
 (optional=templinst)_ZN5boost6detail17sp_counted_impl_pIN3pcl26DefaultPointRepresentationINS2_18PointWithViewpointEEEE7disposeEv@Base 1.6
 (optional=templinst)_ZN5boost6detail17sp_counted_impl_pIN3pcl26DefaultPointRepresentationINS2_18PointWithViewpointEEEED0Ev@Base 1.6
 (optional=templinst)_ZN5boost6detail17sp_counted_impl_pIN3pcl26DefaultPointRepresentationINS2_18PointWithViewpointEEEED1Ev@Base 1.6
 (optional=templinst)_ZN5boost6detail17sp_counted_impl_pIN3pcl26DefaultPointRepresentationINS2_18PointWithViewpointEEEED2Ev@Base 1.6
 (optional=templinst)_ZN5boost6detail17sp_counted_impl_pIN3pcl26DefaultPointRepresentationINS2_19PrincipalCurvaturesEEEE11get_deleterERKSt9type_info@Base 1.6
 (optional=templinst)_ZN5boost6detail17sp_counted_impl_pIN3pcl26DefaultPointRepresentationINS2_19PrincipalCurvaturesEEEE7disposeEv@Base 1.6
 (optional=templinst)_ZN5boost6detail17sp_counted_impl_pIN3pcl26DefaultPointRepresentationINS2_19PrincipalCurvaturesEEEED0Ev@Base 1.6
 (optional=templinst)_ZN5boost6detail17sp_counted_impl_pIN3pcl26DefaultPointRepresentationINS2_19PrincipalCurvaturesEEEED1Ev@Base 1.6
 (optional=templinst)_ZN5boost6detail17sp_counted_impl_pIN3pcl26DefaultPointRepresentationINS2_19PrincipalCurvaturesEEEED2Ev@Base 1.6
 (optional=templinst)_ZN5boost6detail17sp_counted_impl_pIN3pcl26DefaultPointRepresentationINS2_22NormalBasedSignature12EEEE11get_deleterERKSt9type_info@Base 1.6
 (optional=templinst)_ZN5boost6detail17sp_counted_impl_pIN3pcl26DefaultPointRepresentationINS2_22NormalBasedSignature12EEEE7disposeEv@Base 1.6
 (optional=templinst)_ZN5boost6detail17sp_counted_impl_pIN3pcl26DefaultPointRepresentationINS2_22NormalBasedSignature12EEEED0Ev@Base 1.6
 (optional=templinst)_ZN5boost6detail17sp_counted_impl_pIN3pcl26DefaultPointRepresentationINS2_22NormalBasedSignature12EEEED1Ev@Base 1.6
 (optional=templinst)_ZN5boost6detail17sp_counted_impl_pIN3pcl26DefaultPointRepresentationINS2_22NormalBasedSignature12EEEED2Ev@Base 1.6
 (optional=templinst)_ZN5boost6detail17sp_counted_impl_pIN3pcl26DefaultPointRepresentationINS2_4AxisEEEE11get_deleterERKSt9type_info@Base 1.6
 (optional=templinst)_ZN5boost6detail17sp_counted_impl_pIN3pcl26DefaultPointRepresentationINS2_4AxisEEEE7disposeEv@Base 1.6
 (optional=templinst)_ZN5boost6detail17sp_counted_impl_pIN3pcl26DefaultPointRepresentationINS2_4AxisEEEED0Ev@Base 1.6
 (optional=templinst)_ZN5boost6detail17sp_counted_impl_pIN3pcl26DefaultPointRepresentationINS2_4AxisEEEED1Ev@Base 1.6
 (optional=templinst)_ZN5boost6detail17sp_counted_impl_pIN3pcl26DefaultPointRepresentationINS2_4AxisEEEED2Ev@Base 1.6
 (optional=templinst)_ZN5boost6detail17sp_counted_impl_pIN3pcl26DefaultPointRepresentationINS2_5LabelEEEE11get_deleterERKSt9type_info@Base 1.6
 (optional=templinst)_ZN5boost6detail17sp_counted_impl_pIN3pcl26DefaultPointRepresentationINS2_5LabelEEEE7disposeEv@Base 1.6
 (optional=templinst)_ZN5boost6detail17sp_counted_impl_pIN3pcl26DefaultPointRepresentationINS2_5LabelEEEED0Ev@Base 1.6
 (optional=templinst)_ZN5boost6detail17sp_counted_impl_pIN3pcl26DefaultPointRepresentationINS2_5LabelEEEED1Ev@Base 1.6
 (optional=templinst)_ZN5boost6detail17sp_counted_impl_pIN3pcl26DefaultPointRepresentationINS2_5LabelEEEED2Ev@Base 1.6
 (optional=templinst)_ZN5boost6detail17sp_counted_impl_pIN3pcl26DefaultPointRepresentationINS2_6Narf36EEEE11get_deleterERKSt9type_info@Base 1.6
 (optional=templinst)_ZN5boost6detail17sp_counted_impl_pIN3pcl26DefaultPointRepresentationINS2_6Narf36EEEE7disposeEv@Base 1.6
 (optional=templinst)_ZN5boost6detail17sp_counted_impl_pIN3pcl26DefaultPointRepresentationINS2_6Narf36EEEED0Ev@Base 1.6
 (optional=templinst)_ZN5boost6detail17sp_counted_impl_pIN3pcl26DefaultPointRepresentationINS2_6Narf36EEEED1Ev@Base 1.6
 (optional=templinst)_ZN5boost6detail17sp_counted_impl_pIN3pcl26DefaultPointRepresentationINS2_6Narf36EEEED2Ev@Base 1.6
 (optional=templinst)_ZN5boost6detail17sp_counted_impl_pIN3pcl26DefaultPointRepresentationINS2_6NormalEEEE11get_deleterERKSt9type_info@Base 1.6
 (optional=templinst)_ZN5boost6detail17sp_counted_impl_pIN3pcl26DefaultPointRepresentationINS2_6NormalEEEE7disposeEv@Base 1.6
 (optional=templinst)_ZN5boost6detail17sp_counted_impl_pIN3pcl26DefaultPointRepresentationINS2_6NormalEEEED0Ev@Base 1.6
 (optional=templinst)_ZN5boost6detail17sp_counted_impl_pIN3pcl26DefaultPointRepresentationINS2_6NormalEEEED1Ev@Base 1.6
 (optional=templinst)_ZN5boost6detail17sp_counted_impl_pIN3pcl26DefaultPointRepresentationINS2_6NormalEEEED2Ev@Base 1.6
 (optional=templinst)_ZN5boost6detail17sp_counted_impl_pIN3pcl26DefaultPointRepresentationINS2_7PointXYEEEE11get_deleterERKSt9type_info@Base 1.6
 (optional=templinst)_ZN5boost6detail17sp_counted_impl_pIN3pcl26DefaultPointRepresentationINS2_7PointXYEEEE7disposeEv@Base 1.6
 (optional=templinst)_ZN5boost6detail17sp_counted_impl_pIN3pcl26DefaultPointRepresentationINS2_7PointXYEEEED0Ev@Base 1.6
 (optional=templinst)_ZN5boost6detail17sp_counted_impl_pIN3pcl26DefaultPointRepresentationINS2_7PointXYEEEED1Ev@Base 1.6
 (optional=templinst)_ZN5boost6detail17sp_counted_impl_pIN3pcl26DefaultPointRepresentationINS2_7PointXYEEEED2Ev@Base 1.6
 (optional=templinst)_ZN5boost6detail17sp_counted_impl_pIN3pcl26DefaultPointRepresentationINS2_8BoundaryEEEE11get_deleterERKSt9type_info@Base 1.6
 (optional=templinst)_ZN5boost6detail17sp_counted_impl_pIN3pcl26DefaultPointRepresentationINS2_8BoundaryEEEE7disposeEv@Base 1.6
 (optional=templinst)_ZN5boost6detail17sp_counted_impl_pIN3pcl26DefaultPointRepresentationINS2_8BoundaryEEEED0Ev@Base 1.6
 (optional=templinst)_ZN5boost6detail17sp_counted_impl_pIN3pcl26DefaultPointRepresentationINS2_8BoundaryEEEED1Ev@Base 1.6
 (optional=templinst)_ZN5boost6detail17sp_counted_impl_pIN3pcl26DefaultPointRepresentationINS2_8BoundaryEEEED2Ev@Base 1.6
 (optional=templinst)_ZN5boost6detail17sp_counted_impl_pIN3pcl26DefaultPointRepresentationINS2_8PointXYZEEEE11get_deleterERKSt9type_info@Base 1.6
 (optional=templinst)_ZN5boost6detail17sp_counted_impl_pIN3pcl26DefaultPointRepresentationINS2_8PointXYZEEEE7disposeEv@Base 1.6
 (optional=templinst)_ZN5boost6detail17sp_counted_impl_pIN3pcl26DefaultPointRepresentationINS2_8PointXYZEEEED0Ev@Base 1.6
 (optional=templinst)_ZN5boost6detail17sp_counted_impl_pIN3pcl26DefaultPointRepresentationINS2_8PointXYZEEEED1Ev@Base 1.6
 (optional=templinst)_ZN5boost6detail17sp_counted_impl_pIN3pcl26DefaultPointRepresentationINS2_8PointXYZEEEED2Ev@Base 1.6
 (optional=templinst)_ZN5boost6detail17sp_counted_impl_pIN3pcl26DefaultPointRepresentationINS2_9PointXYZIEEEE11get_deleterERKSt9type_info@Base 1.6
 (optional=templinst)_ZN5boost6detail17sp_counted_impl_pIN3pcl26DefaultPointRepresentationINS2_9PointXYZIEEEE7disposeEv@Base 1.6
 (optional=templinst)_ZN5boost6detail17sp_counted_impl_pIN3pcl26DefaultPointRepresentationINS2_9PointXYZIEEEED0Ev@Base 1.6
 (optional=templinst)_ZN5boost6detail17sp_counted_impl_pIN3pcl26DefaultPointRepresentationINS2_9PointXYZIEEEED1Ev@Base 1.6
 (optional=templinst)_ZN5boost6detail17sp_counted_impl_pIN3pcl26DefaultPointRepresentationINS2_9PointXYZIEEEED2Ev@Base 1.6
 (optional=templinst)_ZN5boost6detail17sp_counted_impl_pIN3pcl26DefaultPointRepresentationINS2_9PointXYZLEEEE11get_deleterERKSt9type_info@Base 1.6
 (optional=templinst)_ZN5boost6detail17sp_counted_impl_pIN3pcl26DefaultPointRepresentationINS2_9PointXYZLEEEE7disposeEv@Base 1.6
 (optional=templinst)_ZN5boost6detail17sp_counted_impl_pIN3pcl26DefaultPointRepresentationINS2_9PointXYZLEEEED0Ev@Base 1.6
 (optional=templinst)_ZN5boost6detail17sp_counted_impl_pIN3pcl26DefaultPointRepresentationINS2_9PointXYZLEEEED1Ev@Base 1.6
 (optional=templinst)_ZN5boost6detail17sp_counted_impl_pIN3pcl26DefaultPointRepresentationINS2_9PointXYZLEEEED2Ev@Base 1.6
 (optional=templinst)_ZN5flann10load_valueINS_11KMeansIndexINS_9L2_SimpleIfEEE10KMeansNodeEEEvP8_IO_FILERT_m@Base 1.6
 (optional=templinst)_ZN5flann10load_valueINS_17KDTreeSingleIndexINS_9L2_SimpleIfEEE8IntervalEEEvP8_IO_FILERSt6vectorIT_SaIS9_EE@Base 1.6
 (optional=templinst)_ZN5flann10load_valueINS_20flann_centers_init_tEEEvP8_IO_FILERT_m@Base 1.6
 (optional=templinst)_ZN5flann10load_valueINS_27HierarchicalClusteringIndexINS_9L2_SimpleIfEEE4NodeEEEvP8_IO_FILERT_m@Base 1.6
 (optional=templinst)_ZN5flann10load_valueIbEEvP8_IO_FILERT_m@Base 1.6
 (optional=templinst)_ZN5flann10load_valueIfEEvP8_IO_FILERNS_6MatrixIT_EE@Base 1.6
 (optional=templinst)_ZN5flann10load_valueIfEEvP8_IO_FILERT_m@Base 1.6
 (optional=templinst)_ZN5flann10load_valueIiEEvP8_IO_FILERSt6vectorIT_SaIS4_EE@Base 1.6
 (optional=templinst)_ZN5flann10load_valueIiEEvP8_IO_FILERT_m@Base 1.6
 (optional=templinst)_ZN5flann10load_valueIjEEvP8_IO_FILERT_m@Base 1.6
 (optional=templinst)_ZN5flann10load_valueImEEvP8_IO_FILERT_m@Base 1.6
 (optional=templinst)_ZN5flann10save_valueIfEEvP8_IO_FILERKNS_6MatrixIT_EE@Base 1.6
 (optional=templinst)_ZN5flann10save_valueIiEEvP8_IO_FILERKT_m@Base 1.6
 (optional=templinst)_ZN5flann11KDTreeIndexINS_9L2_SimpleIfEEE10buildIndexEv@Base 1.6
 (optional=templinst)_ZN5flann11KDTreeIndexINS_9L2_SimpleIfEEE10divideTreeEPii@Base 1.6
 (optional=templinst)_ZN5flann11KDTreeIndexINS_9L2_SimpleIfEEE10planeSplitEPiiifRiS5_@Base 1.6
 (optional=templinst)_ZN5flann11KDTreeIndexINS_9L2_SimpleIfEEE11searchLevelERNS_9ResultSetIfEEPKfPNS3_4NodeEfRiifPNS_4HeapINS_12BranchStructISA_fEEEERNS_13DynamicBitsetE@Base 1.6
 (optional=templinst)_ZN5flann11KDTreeIndexINS_9L2_SimpleIfEEE12getNeighborsERNS_9ResultSetIfEEPKfif@Base 1.6
 (optional=templinst)_ZN5flann11KDTreeIndexINS_9L2_SimpleIfEEE13findNeighborsERNS_9ResultSetIfEEPKfRKNS_12SearchParamsE@Base 1.6
 (optional=templinst)_ZN5flann11KDTreeIndexINS_9L2_SimpleIfEEE14selectDivisionEPf@Base 1.6
 (optional=templinst)_ZN5flann11KDTreeIndexINS_9L2_SimpleIfEEE16searchLevelExactERNS_9ResultSetIfEEPKfPNS3_4NodeEff@Base 1.6
 (optional=templinst)_ZN5flann11KDTreeIndexINS_9L2_SimpleIfEEE17getExactNeighborsERNS_9ResultSetIfEEPKff@Base 1.6
 (optional=templinst)_ZN5flann11KDTreeIndexINS_9L2_SimpleIfEEE9loadIndexEP8_IO_FILE@Base 1.6
 (optional=templinst)_ZN5flann11KDTreeIndexINS_9L2_SimpleIfEEE9load_treeEP8_IO_FILERPNS3_4NodeE@Base 1.6
 (optional=templinst)_ZN5flann11KDTreeIndexINS_9L2_SimpleIfEEE9meanSplitEPiiRiS5_Rf@Base 1.6
 (optional=templinst)_ZN5flann11KDTreeIndexINS_9L2_SimpleIfEEE9saveIndexEP8_IO_FILE@Base 1.6
 (optional=templinst)_ZN5flann11KDTreeIndexINS_9L2_SimpleIfEEE9save_treeEP8_IO_FILEPNS3_4NodeE@Base 1.6
 (optional=templinst)_ZN5flann11KDTreeIndexINS_9L2_SimpleIfEEEC1ERKNS_6MatrixIfEERKSt3mapISsNS_3anyESt4lessISsESaISt4pairIKSsS9_EEES2_@Base 1.6
 (optional=templinst)_ZN5flann11KDTreeIndexINS_9L2_SimpleIfEEEC2ERKNS_6MatrixIfEERKSt3mapISsNS_3anyESt4lessISsESaISt4pairIKSsS9_EEES2_@Base 1.6
 (optional=templinst)_ZN5flann11KDTreeIndexINS_9L2_SimpleIfEEED0Ev@Base 1.6
 (optional=templinst)_ZN5flann11KDTreeIndexINS_9L2_SimpleIfEEED1Ev@Base 1.6
 (optional=templinst)_ZN5flann11KDTreeIndexINS_9L2_SimpleIfEEED2Ev@Base 1.6
 (optional=templinst)_ZN5flann11KMeansIndexINS_9L2_SimpleIfEEE10buildIndexEv@Base 1.6
 (optional=templinst)_ZN5flann11KMeansIndexINS_9L2_SimpleIfEEE11findExactNNEPNS3_10KMeansNodeERNS_9ResultSetIfEEPKf@Base 1.6
 (optional=templinst)_ZN5flann11KMeansIndexINS_9L2_SimpleIfEEE13findNeighborsERNS_9ResultSetIfEEPKfRKNS_12SearchParamsE@Base 1.6
 (optional=templinst)_ZN5flann11KMeansIndexINS_9L2_SimpleIfEEE17computeClusteringEPNS3_10KMeansNodeEPiiii@Base 1.6
 (optional=templinst)_ZN5flann11KMeansIndexINS_9L2_SimpleIfEEE17getCenterOrderingEPNS3_10KMeansNodeEPKfPi@Base 1.6
 (optional=templinst)_ZN5flann11KMeansIndexINS_9L2_SimpleIfEEE19chooseCentersRandomEiPiiS4_Ri@Base 1.6
 (optional=templinst)_ZN5flann11KMeansIndexINS_9L2_SimpleIfEEE21chooseCentersGonzalesEiPiiS4_Ri@Base 1.6
 (optional=templinst)_ZN5flann11KMeansIndexINS_9L2_SimpleIfEEE21chooseCentersKMeansppEiPiiS4_Ri@Base 1.6
 (optional=templinst)_ZN5flann11KMeansIndexINS_9L2_SimpleIfEEE21computeNodeStatisticsEPNS3_10KMeansNodeEPii@Base 1.6
 (optional=templinst)_ZN5flann11KMeansIndexINS_9L2_SimpleIfEEE6findNNEPNS3_10KMeansNodeERNS_9ResultSetIfEEPKfRiiPNS_4HeapINS_12BranchStructIS5_fEEEE@Base 1.6
 (optional=templinst)_ZN5flann11KMeansIndexINS_9L2_SimpleIfEEE9loadIndexEP8_IO_FILE@Base 1.6
 (optional=templinst)_ZN5flann11KMeansIndexINS_9L2_SimpleIfEEE9load_treeEP8_IO_FILERPNS3_10KMeansNodeE@Base 1.6
 (optional=templinst)_ZN5flann11KMeansIndexINS_9L2_SimpleIfEEE9saveIndexEP8_IO_FILE@Base 1.6
 (optional=templinst)_ZN5flann11KMeansIndexINS_9L2_SimpleIfEEE9save_treeEP8_IO_FILEPNS3_10KMeansNodeE@Base 1.6
 (optional=templinst)_ZN5flann11KMeansIndexINS_9L2_SimpleIfEEEC1ERKNS_6MatrixIfEERKSt3mapISsNS_3anyESt4lessISsESaISt4pairIKSsS9_EEES2_@Base 1.6
 (optional=templinst)_ZN5flann11KMeansIndexINS_9L2_SimpleIfEEEC2ERKNS_6MatrixIfEERKSt3mapISsNS_3anyESt4lessISsESaISt4pairIKSsS9_EEES2_@Base 1.6
 (optional=templinst)_ZN5flann11KMeansIndexINS_9L2_SimpleIfEEED0Ev@Base 1.6
 (optional=templinst)_ZN5flann11KMeansIndexINS_9L2_SimpleIfEEED1Ev@Base 1.6
 (optional=templinst)_ZN5flann11KMeansIndexINS_9L2_SimpleIfEEED2Ev@Base 1.6
 (optional=templinst)_ZN5flann11LinearIndexINS_9L2_SimpleIfEEE10buildIndexEv@Base 1.6
 (optional=templinst)_ZN5flann11LinearIndexINS_9L2_SimpleIfEEE13findNeighborsERNS_9ResultSetIfEEPKfRKNS_12SearchParamsE@Base 1.6
 (optional=templinst)_ZN5flann11LinearIndexINS_9L2_SimpleIfEEE9loadIndexEP8_IO_FILE@Base 1.6
 (optional=templinst)_ZN5flann11LinearIndexINS_9L2_SimpleIfEEE9saveIndexEP8_IO_FILE@Base 1.6
 (optional=templinst)_ZN5flann11LinearIndexINS_9L2_SimpleIfEEED0Ev@Base 1.6
 (optional=templinst)_ZN5flann11LinearIndexINS_9L2_SimpleIfEEED1Ev@Base 1.6
 (optional=templinst)_ZN5flann11LinearIndexINS_9L2_SimpleIfEEED2Ev@Base 1.6
 _ZN5flann11load_headerEP8_IO_FILE@Base 1.6
 (optional=templinst)_ZN5flann12KNNResultSetIfE8addPointEfm@Base 1.6
 (optional=templinst)_ZN5flann12KNNResultSetIfEC1Ei@Base 1.6
 (optional=templinst)_ZN5flann12KNNResultSetIfEC2Ei@Base 1.6
 (optional=templinst)_ZN5flann12KNNResultSetIfED0Ev@Base 1.6
 (optional=templinst)_ZN5flann12KNNResultSetIfED1Ev@Base 1.6
 (optional=templinst)_ZN5flann12KNNResultSetIfED2Ev@Base 1.6
 _ZN5flann12UniqueRandom4initEi@Base 1.6
 _ZN5flann12UniqueRandomD1Ev@Base 1.6
 _ZN5flann12UniqueRandomD2Ev@Base 1.6
 (optional=templinst)_ZN5flann12find_nearestINS_9L2_SimpleIfEEEEvRKNS_6MatrixINT_11ElementTypeEEEPS5_PiiiS4_@Base 1.6
 _ZN5flann12print_paramsERKNS_12SearchParamsE@Base 1.6
 _ZN5flann12print_paramsERKSt3mapISsNS_3anyESt4lessISsESaISt4pairIKSsS1_EEE@Base 1.6
 _ZN5flann13DynamicBitsetC1Em@Base 1.6
 _ZN5flann13DynamicBitsetC2Em@Base 1.6
 _ZN5flann13DynamicBitsetD1Ev@Base 1.6
 _ZN5flann13DynamicBitsetD2Ev@Base 1.6
 (optional=templinst)_ZN5flann13KNNResultSet2IfE8addPointEfm@Base 1.6
 (optional=templinst)_ZN5flann13KNNResultSet2IfEC1Em@Base 1.6
 (optional=templinst)_ZN5flann13KNNResultSet2IfEC2Em@Base 1.6
 (optional=templinst)_ZN5flann13KNNResultSet2IfED0Ev@Base 1.6
 (optional=templinst)_ZN5flann13KNNResultSet2IfED1Ev@Base 1.6
 (optional=templinst)_ZN5flann13KNNResultSet2IfED2Ev@Base 1.6
 (optional=templinst)_ZN5flann13random_sampleIfEENS_6MatrixIT_EERKS3_m@Base 1.6
 (optional=templinst)_ZN5flann13random_sampleIfEENS_6MatrixIT_EERS3_lb@Base 1.6
 (optional=templinst)_ZN5flann14AutotunedIndexINS_9L2_SimpleIfEEE10buildIndexEv@Base 1.6
 (optional=templinst)_ZN5flann14AutotunedIndexINS_9L2_SimpleIfEEE13findNeighborsERNS_9ResultSetIfEEPKfRKNS_12SearchParamsE@Base 1.6
 (optional=templinst)_ZN5flann14AutotunedIndexINS_9L2_SimpleIfEEE14optimizeKDTreeERSt6vectorINS3_8CostDataESaIS5_EE@Base 1.6
 (optional=templinst)_ZN5flann14AutotunedIndexINS_9L2_SimpleIfEEE14optimizeKMeansERSt6vectorINS3_8CostDataESaIS5_EE@Base 1.6
 (optional=templinst)_ZN5flann14AutotunedIndexINS_9L2_SimpleIfEEE15evaluate_kdtreeERNS3_8CostDataE@Base 1.6
 (optional=templinst)_ZN5flann14AutotunedIndexINS_9L2_SimpleIfEEE15evaluate_kmeansERNS3_8CostDataE@Base 1.6
 (optional=templinst)_ZN5flann14AutotunedIndexINS_9L2_SimpleIfEEE19estimateBuildParamsEv@Base 1.6
 (optional=templinst)_ZN5flann14AutotunedIndexINS_9L2_SimpleIfEEE20estimateSearchParamsERNS_12SearchParamsE@Base 1.6
 (optional=templinst)_ZN5flann14AutotunedIndexINS_9L2_SimpleIfEEE8CostDataD1Ev@Base 1.6
 (optional=templinst)_ZN5flann14AutotunedIndexINS_9L2_SimpleIfEEE8CostDataD2Ev@Base 1.6
 (optional=templinst)_ZN5flann14AutotunedIndexINS_9L2_SimpleIfEEE9loadIndexEP8_IO_FILE@Base 1.6
 (optional=templinst)_ZN5flann14AutotunedIndexINS_9L2_SimpleIfEEE9saveIndexEP8_IO_FILE@Base 1.6
 (optional=templinst)_ZN5flann14AutotunedIndexINS_9L2_SimpleIfEEEC1ERKNS_6MatrixIfEERKSt3mapISsNS_3anyESt4lessISsESaISt4pairIKSsS9_EEES2_@Base 1.6
 (optional=templinst)_ZN5flann14AutotunedIndexINS_9L2_SimpleIfEEEC2ERKNS_6MatrixIfEERKSt3mapISsNS_3anyESt4lessISsESaISt4pairIKSsS9_EEES2_@Base 1.6
 (optional=templinst)_ZN5flann14AutotunedIndexINS_9L2_SimpleIfEEED0Ev@Base 1.6
 (optional=templinst)_ZN5flann14AutotunedIndexINS_9L2_SimpleIfEEED1Ev@Base 1.6
 (optional=templinst)_ZN5flann14AutotunedIndexINS_9L2_SimpleIfEEED2Ev@Base 1.6
 (optional=templinst)_ZN5flann14CompositeIndexINS_9L2_SimpleIfEEE10buildIndexEv@Base 1.6
 (optional=templinst)_ZN5flann14CompositeIndexINS_9L2_SimpleIfEEE13findNeighborsERNS_9ResultSetIfEEPKfRKNS_12SearchParamsE@Base 1.6
 (optional=templinst)_ZN5flann14CompositeIndexINS_9L2_SimpleIfEEE9loadIndexEP8_IO_FILE@Base 1.6
 (optional=templinst)_ZN5flann14CompositeIndexINS_9L2_SimpleIfEEE9saveIndexEP8_IO_FILE@Base 1.6
 (optional=templinst)_ZN5flann14CompositeIndexINS_9L2_SimpleIfEEEC1ERKNS_6MatrixIfEERKSt3mapISsNS_3anyESt4lessISsESaISt4pairIKSsS9_EEES2_@Base 1.6
 (optional=templinst)_ZN5flann14CompositeIndexINS_9L2_SimpleIfEEEC2ERKNS_6MatrixIfEERKSt3mapISsNS_3anyESt4lessISsESaISt4pairIKSsS9_EEES2_@Base 1.6
 (optional=templinst)_ZN5flann14CompositeIndexINS_9L2_SimpleIfEEED0Ev@Base 1.6
 (optional=templinst)_ZN5flann14CompositeIndexINS_9L2_SimpleIfEEED1Ev@Base 1.6
 (optional=templinst)_ZN5flann14CompositeIndexINS_9L2_SimpleIfEEED2Ev@Base 1.6
 _ZN5flann14FLANNExceptionC1EPKc@Base 1.6
 _ZN5flann14FLANNExceptionC2EPKc@Base 1.6
 _ZN5flann14FLANNExceptionD0Ev@Base 1.6
 _ZN5flann14FLANNExceptionD1Ev@Base 1.6
 _ZN5flann14FLANNExceptionD2Ev@Base 1.6
 _ZN5flann15PooledAllocator14allocateMemoryEi@Base 1.6
 _ZN5flann15PooledAllocatorD1Ev@Base 1.6
 _ZN5flann15PooledAllocatorD2Ev@Base 1.6
 (optional=templinst)_ZN5flann15RadiusResultSetIfE8addPointEfm@Base 1.6
 (optional=templinst)_ZN5flann15RadiusResultSetIfEC1Ef@Base 1.6
 (optional=templinst)_ZN5flann15RadiusResultSetIfEC2Ef@Base 1.6
 (optional=templinst)_ZN5flann15RadiusResultSetIfED0Ev@Base 1.6
 (optional=templinst)_ZN5flann15RadiusResultSetIfED1Ev@Base 1.6
 (optional=templinst)_ZN5flann15RadiusResultSetIfED2Ev@Base 1.6
 (optional=templinst)_ZN5flann15UniqueResultSetIfE4copyEPiPfib@Base 1.6
 (optional=templinst)_ZN5flann15UniqueResultSetIfED0Ev@Base 1.6
 (optional=templinst)_ZN5flann15UniqueResultSetIfED1Ev@Base 1.6
 (optional=templinst)_ZN5flann15UniqueResultSetIfED2Ev@Base 1.6
 (optional=templinst)_ZN5flann16load_saved_indexINS_9L2_SimpleIfEEEEPNS_7NNIndexIT_EERKNS_6MatrixINS4_11ElementTypeEEERKSsS4_@Base 1.6
 (optional=templinst)_ZN5flann17KDTreeSingleIndexINS_9L2_SimpleIfEEE10buildIndexEv@Base 1.6
 (optional=templinst)_ZN5flann17KDTreeSingleIndexINS_9L2_SimpleIfEEE10divideTreeEiiRSt6vectorINS3_8IntervalESaIS5_EE@Base 1.6
 (optional=templinst)_ZN5flann17KDTreeSingleIndexINS_9L2_SimpleIfEEE10planeSplitEPiiifRiS5_@Base 1.6
 (optional=templinst)_ZN5flann17KDTreeSingleIndexINS_9L2_SimpleIfEEE11middleSplitEPiiRiS5_RfRKSt6vectorINS3_8IntervalESaIS8_EE@Base 1.6
 (optional=templinst)_ZN5flann17KDTreeSingleIndexINS_9L2_SimpleIfEEE11searchLevelERNS_9ResultSetIfEEPKfPNS3_4NodeEfRSt6vectorIfSaIfEEf@Base 1.6
 (optional=templinst)_ZN5flann17KDTreeSingleIndexINS_9L2_SimpleIfEEE13findNeighborsERNS_9ResultSetIfEEPKfRKNS_12SearchParamsE@Base 1.6
 (optional=templinst)_ZN5flann17KDTreeSingleIndexINS_9L2_SimpleIfEEE18computeBoundingBoxERSt6vectorINS3_8IntervalESaIS5_EE@Base 1.6
 (optional=templinst)_ZN5flann17KDTreeSingleIndexINS_9L2_SimpleIfEEE23computeInitialDistancesEPKfRSt6vectorIfSaIfEE@Base 1.6
 (optional=templinst)_ZN5flann17KDTreeSingleIndexINS_9L2_SimpleIfEEE9loadIndexEP8_IO_FILE@Base 1.6
 (optional=templinst)_ZN5flann17KDTreeSingleIndexINS_9L2_SimpleIfEEE9load_treeEP8_IO_FILERPNS3_4NodeE@Base 1.6
 (optional=templinst)_ZN5flann17KDTreeSingleIndexINS_9L2_SimpleIfEEE9saveIndexEP8_IO_FILE@Base 1.6
 (optional=templinst)_ZN5flann17KDTreeSingleIndexINS_9L2_SimpleIfEEE9save_treeEP8_IO_FILEPNS3_4NodeE@Base 1.6
 (optional=templinst)_ZN5flann17KDTreeSingleIndexINS_9L2_SimpleIfEEEC1ERKNS_6MatrixIfEERKSt3mapISsNS_3anyESt4lessISsESaISt4pairIKSsS9_EEES2_@Base 1.6
 (optional=templinst)_ZN5flann17KDTreeSingleIndexINS_9L2_SimpleIfEEEC2ERKNS_6MatrixIfEERKSt3mapISsNS_3anyESt4lessISsESaISt4pairIKSsS9_EEES2_@Base 1.6
 (optional=templinst)_ZN5flann17KDTreeSingleIndexINS_9L2_SimpleIfEEED0Ev@Base 1.6
 (optional=templinst)_ZN5flann17KDTreeSingleIndexINS_9L2_SimpleIfEEED1Ev@Base 1.6
 (optional=templinst)_ZN5flann17KDTreeSingleIndexINS_9L2_SimpleIfEEED2Ev@Base 1.6
 _ZN5flann17LinearIndexParamsC1Ev@Base 1.6
 _ZN5flann17LinearIndexParamsC2Ev@Base 1.6
 _ZN5flann17LinearIndexParamsD1Ev@Base 1.6
 _ZN5flann17LinearIndexParamsD2Ev@Base 1.6
 (optional=templinst)_ZN5flann18KNNRadiusResultSetIfE8addPointEfm@Base 1.6
 (optional=templinst)_ZN5flann18KNNRadiusResultSetIfEC1Efm@Base 1.6
 (optional=templinst)_ZN5flann18KNNRadiusResultSetIfEC2Efm@Base 1.6
 (optional=templinst)_ZN5flann18KNNRadiusResultSetIfED0Ev@Base 1.6
 (optional=templinst)_ZN5flann18KNNRadiusResultSetIfED1Ev@Base 1.6
 (optional=templinst)_ZN5flann18KNNRadiusResultSetIfED2Ev@Base 1.6
 (optional=templinst)_ZN5flann18KNNSimpleResultSetIfE8addPointEfm@Base 1.6
 (optional=templinst)_ZN5flann18KNNSimpleResultSetIfEC1Em@Base 1.6
 (optional=templinst)_ZN5flann18KNNSimpleResultSetIfEC2Em@Base 1.6
 (optional=templinst)_ZN5flann18KNNSimpleResultSetIfED0Ev@Base 1.6
 (optional=templinst)_ZN5flann18KNNSimpleResultSetIfED1Ev@Base 1.6
 (optional=templinst)_ZN5flann18KNNSimpleResultSetIfED2Ev@Base 1.6
 (optional=templinst)_ZN5flann18KNNUniqueResultSetIfE5clearEv@Base 1.6
 (optional=templinst)_ZN5flann18KNNUniqueResultSetIfE8addPointEfm@Base 1.6
 (optional=templinst)_ZN5flann18KNNUniqueResultSetIfEC1Ej@Base 1.6
 (optional=templinst)_ZN5flann18KNNUniqueResultSetIfEC2Ej@Base 1.6
 (optional=templinst)_ZN5flann18KNNUniqueResultSetIfED0Ev@Base 1.6
 (optional=templinst)_ZN5flann18KNNUniqueResultSetIfED1Ev@Base 1.6
 (optional=templinst)_ZN5flann18KNNUniqueResultSetIfED2Ev@Base 1.6
 (optional=templinst)_ZN5flann20CountRadiusResultSetIfE8addPointEfm@Base 1.6
 (optional=templinst)_ZN5flann20CountRadiusResultSetIfED0Ev@Base 1.6
 (optional=templinst)_ZN5flann20CountRadiusResultSetIfED1Ev@Base 1.6
 (optional=templinst)_ZN5flann20CountRadiusResultSetIfED2Ev@Base 1.6
 (optional=templinst)_ZN5flann20compute_ground_truthINS_9L2_SimpleIfEEEEvRKNS_6MatrixINT_11ElementTypeEEES8_RNS3_IiEEiS4_@Base 1.6
 (optional=templinst)_ZN5flann20create_index_by_typeINS_9L2_SimpleIfEEEEPNS_7NNIndexIT_EERKNS_6MatrixINS4_11ElementTypeEEERKSt3mapISsNS_3anyESt4lessISsESaISt4pairIKSsSD_EEERKS4_@Base 1.6
 (optional=templinst)_ZN5flann20test_index_precisionINS_9L2_SimpleIfEEEEfRNS_7NNIndexIT_EERKNS_6MatrixINS4_11ElementTypeEEESB_RKNS7_IiEEfRiRKS4_ii@Base 1.6
 _ZN5flann23KDTreeSingleIndexParamsC1Eib@Base 1.6
 _ZN5flann23KDTreeSingleIndexParamsC2Eib@Base 1.6
 _ZN5flann23KDTreeSingleIndexParamsD1Ev@Base 1.6
 _ZN5flann23KDTreeSingleIndexParamsD2Ev@Base 1.6
 (optional=templinst)_ZN5flann24search_with_ground_truthINS_9L2_SimpleIfEEEEfRNS_7NNIndexIT_EERKNS_6MatrixINS4_11ElementTypeEEESB_RKNS7_IiEEiiRfRNS4_10ResultTypeERKS4_i@Base 1.6
 (optional=templinst)_ZN5flann27HierarchicalClusteringIndexINS_9L2_SimpleIfEEE10buildIndexEv@Base 1.6
 (optional=templinst)_ZN5flann27HierarchicalClusteringIndexINS_9L2_SimpleIfEEE13computeLabelsEPiiS4_iS4_Rf@Base 1.6
 (optional=templinst)_ZN5flann27HierarchicalClusteringIndexINS_9L2_SimpleIfEEE13findNeighborsERNS_9ResultSetIfEEPKfRKNS_12SearchParamsE@Base 1.6
 (optional=templinst)_ZN5flann27HierarchicalClusteringIndexINS_9L2_SimpleIfEEE17computeClusteringEPNS3_4NodeEPiiii@Base 1.6
 (optional=templinst)_ZN5flann27HierarchicalClusteringIndexINS_9L2_SimpleIfEEE19chooseCentersRandomEiPiiS4_Ri@Base 1.6
 (optional=templinst)_ZN5flann27HierarchicalClusteringIndexINS_9L2_SimpleIfEEE21chooseCentersGonzalesEiPiiS4_Ri@Base 1.6
 (optional=templinst)_ZN5flann27HierarchicalClusteringIndexINS_9L2_SimpleIfEEE21chooseCentersKMeansppEiPiiS4_Ri@Base 1.6
 (optional=templinst)_ZN5flann27HierarchicalClusteringIndexINS_9L2_SimpleIfEEE9loadIndexEP8_IO_FILE@Base 1.6
 (optional=templinst)_ZN5flann27HierarchicalClusteringIndexINS_9L2_SimpleIfEEE9load_treeEP8_IO_FILERPNS3_4NodeEi@Base 1.6
 (optional=templinst)_ZN5flann27HierarchicalClusteringIndexINS_9L2_SimpleIfEEE9saveIndexEP8_IO_FILE@Base 1.6
 (optional=templinst)_ZN5flann27HierarchicalClusteringIndexINS_9L2_SimpleIfEEE9save_treeEP8_IO_FILEPNS3_4NodeEi@Base 1.6
 (optional=templinst)_ZN5flann27HierarchicalClusteringIndexINS_9L2_SimpleIfEEEC1ERKNS_6MatrixIfEERKSt3mapISsNS_3anyESt4lessISsESaISt4pairIKSsS9_EEES2_@Base 1.6
 (optional=templinst)_ZN5flann27HierarchicalClusteringIndexINS_9L2_SimpleIfEEEC2ERKNS_6MatrixIfEERKSt3mapISsNS_3anyESt4lessISsESaISt4pairIKSsS9_EEES2_@Base 1.6
 (optional=templinst)_ZN5flann27HierarchicalClusteringIndexINS_9L2_SimpleIfEEED0Ev@Base 1.6
 (optional=templinst)_ZN5flann27HierarchicalClusteringIndexINS_9L2_SimpleIfEEED1Ev@Base 1.6
 (optional=templinst)_ZN5flann27HierarchicalClusteringIndexINS_9L2_SimpleIfEEED2Ev@Base 1.6
 _ZN5flann3any6assignERKS0_@Base 1.6
 (optional=templinst)_ZN5flann3any6assignINS_17flann_algorithm_tEEERS0_RKT_@Base 1.6
 (optional=templinst)_ZN5flann3any6assignINS_20flann_centers_init_tEEERS0_RKT_@Base 1.6
 (optional=templinst)_ZN5flann3any6assignIPPNS_11KDTreeIndexINS_9L2_SimpleIfEEE4NodeEEERS0_RKT_@Base 1.6
 (optional=templinst)_ZN5flann3any6assignIbEERS0_RKT_@Base 1.6
 (optional=templinst)_ZN5flann3any6assignIfEERS0_RKT_@Base 1.6
 (optional=templinst)_ZN5flann3any6assignIiEERS0_RKT_@Base 1.6
 (optional=templinst)_ZN5flann3any6assignIjEERS0_RKT_@Base 1.6
 (optional=templinst)_ZN5flann3lsh8LshTableIfEC1ERKS2_@Base 1.6
 (optional=templinst)_ZN5flann3lsh8LshTableIfEC2ERKS2_@Base 1.6
 (optional=templinst)_ZN5flann3lsh8LshTableIfED1Ev@Base 1.6
 (optional=templinst)_ZN5flann3lsh8LshTableIfED2Ev@Base 1.6
 (optional=templinst)_ZN5flann4HeapINS_12BranchStructIPNS_11KDTreeIndexINS_9L2_SimpleIfEEE4NodeEfEEE6insertES8_@Base 1.6
 (optional=templinst)_ZN5flann5IndexINS_9L2_SimpleIfEEEC1ERKNS_6MatrixIfEERKSt3mapISsNS_3anyESt4lessISsESaISt4pairIKSsS9_EEES2_@Base 1.6
 (optional=templinst)_ZN5flann5IndexINS_9L2_SimpleIfEEEC2ERKNS_6MatrixIfEERKSt3mapISsNS_3anyESt4lessISsESaISt4pairIKSsS9_EEES2_@Base 1.6
 (optional=templinst)_ZN5flann5IndexINS_9L2_SimpleIfEEED0Ev@Base 1.6
 (optional=templinst)_ZN5flann5IndexINS_9L2_SimpleIfEEED1Ev@Base 1.6
 (optional=templinst)_ZN5flann5IndexINS_9L2_SimpleIfEEED2Ev@Base 1.6
 _ZN5flann6Logger4infoEPKcz@Base 1.6
 _ZN5flann6LoggerD1Ev@Base 1.6
 _ZN5flann6LoggerD2Ev@Base 1.6
 (optional=templinst)_ZN5flann7NNIndexINS_9L2_SimpleIfEEE12radiusSearchERKNS_6MatrixIfEERNS4_IiEERS5_fRKNS_12SearchParamsE@Base 1.6
 (optional=templinst)_ZN5flann7NNIndexINS_9L2_SimpleIfEEE12radiusSearchERKNS_6MatrixIfEERSt6vectorIS8_IiSaIiEESaISA_EERS8_IS8_IfSaIfEESaISF_EEfRKNS_12SearchParamsE@Base 1.6
 (optional=templinst)_ZN5flann7NNIndexINS_9L2_SimpleIfEEE9knnSearchERKNS_6MatrixIfEERNS4_IiEERS5_mRKNS_12SearchParamsE@Base 1.6
 (optional=templinst)_ZN5flann7NNIndexINS_9L2_SimpleIfEEE9knnSearchERKNS_6MatrixIfEERSt6vectorIS8_IiSaIiEESaISA_EERS8_IS8_IfSaIfEESaISF_EEmRKNS_12SearchParamsE@Base 1.6
 (optional=templinst)_ZN5flann7NNIndexINS_9L2_SimpleIfEEED0Ev@Base 1.6
 (optional=templinst)_ZN5flann7NNIndexINS_9L2_SimpleIfEEED1Ev@Base 1.6
 (optional=templinst)_ZN5flann7NNIndexINS_9L2_SimpleIfEEED2Ev@Base 1.6
 (optional=templinst)_ZN5flann7anyimpl10get_policyINS0_9empty_anyEEEPNS0_15base_any_policyEv@Base 1.6
 _ZN5flann7anyimpl12bad_any_castC1Ev@Base 1.6
 _ZN5flann7anyimpl12bad_any_castC2Ev@Base 1.6
 _ZN5flann7anyimpl12bad_any_castD0Ev@Base 1.6
 _ZN5flann7anyimpl12bad_any_castD1Ev@Base 1.6
 _ZN5flann7anyimpl12bad_any_castD2Ev@Base 1.6
 (optional=templinst)_ZN5flann7anyimpl14big_any_policyINS0_9empty_anyEE13static_deleteEPPv@Base 1.6
 (optional=templinst)_ZN5flann7anyimpl14big_any_policyINS0_9empty_anyEE15copy_from_valueEPKvPPv@Base 1.6
 (optional=templinst)_ZN5flann7anyimpl14big_any_policyINS0_9empty_anyEE4moveEPKPvPS4_@Base 1.6
 (optional=templinst)_ZN5flann7anyimpl14big_any_policyINS0_9empty_anyEE5cloneEPKPvPS4_@Base 1.6
 (optional=templinst)_ZN5flann7anyimpl14big_any_policyINS0_9empty_anyEE5printERSoPKPv@Base 1.6
 (optional=templinst)_ZN5flann7anyimpl14big_any_policyINS0_9empty_anyEE9get_valueEPPv@Base 1.6
 (optional=templinst)_ZN5flann7anyimpl14big_any_policyINS_17flann_algorithm_tEE13static_deleteEPPv@Base 1.6
 (optional=templinst)_ZN5flann7anyimpl14big_any_policyINS_17flann_algorithm_tEE15copy_from_valueEPKvPPv@Base 1.6
 (optional=templinst)_ZN5flann7anyimpl14big_any_policyINS_17flann_algorithm_tEE4moveEPKPvPS4_@Base 1.6
 (optional=templinst)_ZN5flann7anyimpl14big_any_policyINS_17flann_algorithm_tEE5cloneEPKPvPS4_@Base 1.6
 (optional=templinst)_ZN5flann7anyimpl14big_any_policyINS_17flann_algorithm_tEE5printERSoPKPv@Base 1.6
 (optional=templinst)_ZN5flann7anyimpl14big_any_policyINS_17flann_algorithm_tEE9get_valueEPPv@Base 1.6
 (optional=templinst)_ZN5flann7anyimpl14big_any_policyINS_20flann_centers_init_tEE13static_deleteEPPv@Base 1.6
 (optional=templinst)_ZN5flann7anyimpl14big_any_policyINS_20flann_centers_init_tEE15copy_from_valueEPKvPPv@Base 1.6
 (optional=templinst)_ZN5flann7anyimpl14big_any_policyINS_20flann_centers_init_tEE4moveEPKPvPS4_@Base 1.6
 (optional=templinst)_ZN5flann7anyimpl14big_any_policyINS_20flann_centers_init_tEE5cloneEPKPvPS4_@Base 1.6
 (optional=templinst)_ZN5flann7anyimpl14big_any_policyINS_20flann_centers_init_tEE5printERSoPKPv@Base 1.6
 (optional=templinst)_ZN5flann7anyimpl14big_any_policyINS_20flann_centers_init_tEE9get_valueEPPv@Base 1.6
 (optional=templinst)_ZN5flann7anyimpl16small_any_policyIPPNS_11KDTreeIndexINS_9L2_SimpleIfEEE4NodeEE13static_deleteEPPv@Base 1.6
 (optional=templinst)_ZN5flann7anyimpl16small_any_policyIPPNS_11KDTreeIndexINS_9L2_SimpleIfEEE4NodeEE15copy_from_valueEPKvPPv@Base 1.6
 (optional=templinst)_ZN5flann7anyimpl16small_any_policyIPPNS_11KDTreeIndexINS_9L2_SimpleIfEEE4NodeEE4moveEPKPvPSA_@Base 1.6
 (optional=templinst)_ZN5flann7anyimpl16small_any_policyIPPNS_11KDTreeIndexINS_9L2_SimpleIfEEE4NodeEE5cloneEPKPvPSA_@Base 1.6
 (optional=templinst)_ZN5flann7anyimpl16small_any_policyIPPNS_11KDTreeIndexINS_9L2_SimpleIfEEE4NodeEE5printERSoPKPv@Base 1.6
 (optional=templinst)_ZN5flann7anyimpl16small_any_policyIPPNS_11KDTreeIndexINS_9L2_SimpleIfEEE4NodeEE9get_valueEPPv@Base 1.6
 (optional=templinst)_ZN5flann7anyimpl16small_any_policyIbE13static_deleteEPPv@Base 1.6
 (optional=templinst)_ZN5flann7anyimpl16small_any_policyIbE15copy_from_valueEPKvPPv@Base 1.6
 (optional=templinst)_ZN5flann7anyimpl16small_any_policyIbE4moveEPKPvPS3_@Base 1.6
 (optional=templinst)_ZN5flann7anyimpl16small_any_policyIbE5cloneEPKPvPS3_@Base 1.6
 (optional=templinst)_ZN5flann7anyimpl16small_any_policyIbE5printERSoPKPv@Base 1.6
 (optional=templinst)_ZN5flann7anyimpl16small_any_policyIbE9get_valueEPPv@Base 1.6
 (optional=templinst)_ZN5flann7anyimpl16small_any_policyIfE13static_deleteEPPv@Base 1.6
 (optional=templinst)_ZN5flann7anyimpl16small_any_policyIfE15copy_from_valueEPKvPPv@Base 1.6
 (optional=templinst)_ZN5flann7anyimpl16small_any_policyIfE4moveEPKPvPS3_@Base 1.6
 (optional=templinst)_ZN5flann7anyimpl16small_any_policyIfE5cloneEPKPvPS3_@Base 1.6
 (optional=templinst)_ZN5flann7anyimpl16small_any_policyIfE5printERSoPKPv@Base 1.6
 (optional=templinst)_ZN5flann7anyimpl16small_any_policyIfE9get_valueEPPv@Base 1.6
 (optional=templinst)_ZN5flann7anyimpl16small_any_policyIiE13static_deleteEPPv@Base 1.6
 (optional=templinst)_ZN5flann7anyimpl16small_any_policyIiE15copy_from_valueEPKvPPv@Base 1.6
 (optional=templinst)_ZN5flann7anyimpl16small_any_policyIiE4moveEPKPvPS3_@Base 1.6
 (optional=templinst)_ZN5flann7anyimpl16small_any_policyIiE5cloneEPKPvPS3_@Base 1.6
 (optional=templinst)_ZN5flann7anyimpl16small_any_policyIiE5printERSoPKPv@Base 1.6
 (optional=templinst)_ZN5flann7anyimpl16small_any_policyIiE9get_valueEPPv@Base 1.6
 (optional=templinst)_ZN5flann7anyimpl16small_any_policyIjE13static_deleteEPPv@Base 1.6
 (optional=templinst)_ZN5flann7anyimpl16small_any_policyIjE15copy_from_valueEPKvPPv@Base 1.6
 (optional=templinst)_ZN5flann7anyimpl16small_any_policyIjE4moveEPKPvPS3_@Base 1.6
 (optional=templinst)_ZN5flann7anyimpl16small_any_policyIjE5cloneEPKPvPS3_@Base 1.6
 (optional=templinst)_ZN5flann7anyimpl16small_any_policyIjE5printERSoPKPv@Base 1.6
 (optional=templinst)_ZN5flann7anyimpl16small_any_policyIjE9get_valueEPPv@Base 1.6
 (optional=templinst)_ZN5flann7anyimpl21typed_base_any_policyINS0_9empty_anyEE4typeEv@Base 1.6
 (optional=templinst)_ZN5flann7anyimpl21typed_base_any_policyINS0_9empty_anyEE8get_sizeEv@Base 1.6
 (optional=templinst)_ZN5flann7anyimpl21typed_base_any_policyINS_17flann_algorithm_tEE4typeEv@Base 1.6
 (optional=templinst)_ZN5flann7anyimpl21typed_base_any_policyINS_17flann_algorithm_tEE8get_sizeEv@Base 1.6
 (optional=templinst)_ZN5flann7anyimpl21typed_base_any_policyINS_20flann_centers_init_tEE4typeEv@Base 1.6
 (optional=templinst)_ZN5flann7anyimpl21typed_base_any_policyINS_20flann_centers_init_tEE8get_sizeEv@Base 1.6
 (optional=templinst)_ZN5flann7anyimpl21typed_base_any_policyIPPNS_11KDTreeIndexINS_9L2_SimpleIfEEE4NodeEE4typeEv@Base 1.6
 (optional=templinst)_ZN5flann7anyimpl21typed_base_any_policyIPPNS_11KDTreeIndexINS_9L2_SimpleIfEEE4NodeEE8get_sizeEv@Base 1.6
 (optional=templinst)_ZN5flann7anyimpl21typed_base_any_policyIbE4typeEv@Base 1.6
 (optional=templinst)_ZN5flann7anyimpl21typed_base_any_policyIbE8get_sizeEv@Base 1.6
 (optional=templinst)_ZN5flann7anyimpl21typed_base_any_policyIfE4typeEv@Base 1.6
 (optional=templinst)_ZN5flann7anyimpl21typed_base_any_policyIfE8get_sizeEv@Base 1.6
 (optional=templinst)_ZN5flann7anyimpl21typed_base_any_policyIiE4typeEv@Base 1.6
 (optional=templinst)_ZN5flann7anyimpl21typed_base_any_policyIiE8get_sizeEv@Base 1.6
 (optional=templinst)_ZN5flann7anyimpl21typed_base_any_policyIjE4typeEv@Base 1.6
 (optional=templinst)_ZN5flann7anyimpl21typed_base_any_policyIjE8get_sizeEv@Base 1.6
 (optional=templinst)_ZN5flann8LshIndexINS_9L2_SimpleIfEEE10buildIndexEv@Base 1.6
 (optional=templinst)_ZN5flann8LshIndexINS_9L2_SimpleIfEEE13fill_xor_maskEjijRSt6vectorIjSaIjEE@Base 1.6
 (optional=templinst)_ZN5flann8LshIndexINS_9L2_SimpleIfEEE13findNeighborsERNS_9ResultSetIfEEPKfRKNS_12SearchParamsE@Base 1.6
 (optional=templinst)_ZN5flann8LshIndexINS_9L2_SimpleIfEEE9knnSearchERKNS_6MatrixIfEERNS4_IiEERS5_mRKNS_12SearchParamsE@Base 1.6
 (optional=templinst)_ZN5flann8LshIndexINS_9L2_SimpleIfEEE9knnSearchERKNS_6MatrixIfEERSt6vectorIS8_IiSaIiEESaISA_EERS8_IS8_IfSaIfEESaISF_EEmRKNS_12SearchParamsE@Base 1.6
 (optional=templinst)_ZN5flann8LshIndexINS_9L2_SimpleIfEEE9loadIndexEP8_IO_FILE@Base 1.6
 (optional=templinst)_ZN5flann8LshIndexINS_9L2_SimpleIfEEE9saveIndexEP8_IO_FILE@Base 1.6
 (optional=templinst)_ZN5flann8LshIndexINS_9L2_SimpleIfEEEC1ERKNS_6MatrixIfEERKSt3mapISsNS_3anyESt4lessISsESaISt4pairIKSsS9_EEES2_@Base 1.6
 (optional=templinst)_ZN5flann8LshIndexINS_9L2_SimpleIfEEEC2ERKNS_6MatrixIfEERKSt3mapISsNS_3anyESt4lessISsESaISt4pairIKSsS9_EEES2_@Base 1.6
 (optional=templinst)_ZN5flann8LshIndexINS_9L2_SimpleIfEEED0Ev@Base 1.6
 (optional=templinst)_ZN5flann8LshIndexINS_9L2_SimpleIfEEED1Ev@Base 1.6
 (optional=templinst)_ZN5flann8LshIndexINS_9L2_SimpleIfEEED2Ev@Base 1.6
 (optional=templinst)_ZN5flann9ResultSetIfED0Ev@Base 1.6
 (optional=templinst)_ZN5flann9ResultSetIfED1Ev@Base 1.6
 (optional=templinst)_ZN5flann9ResultSetIfED2Ev@Base 1.6
 (optional=templinst)_ZN5flann9get_paramINS_17flann_algorithm_tEEET_RKSt3mapISsNS_3anyESt4lessISsESaISt4pairIKSsS4_EEESs@Base 1.6
 (optional=templinst)_ZN5flann9get_paramINS_20flann_centers_init_tEEET_RKSt3mapISsNS_3anyESt4lessISsESaISt4pairIKSsS4_EEESsRKS2_@Base 1.6
 (optional=templinst)_ZN5flann9get_paramISsEET_RKSt3mapISsNS_3anyESt4lessISsESaISt4pairIKSsS3_EEESs@Base 1.6
 (optional=templinst)_ZN5flann9get_paramIfEET_RKSt3mapISsNS_3anyESt4lessISsESaISt4pairIKSsS3_EEESsRKS1_@Base 1.6
 (optional=templinst)_ZN5flann9get_paramIiEET_RKSt3mapISsNS_3anyESt4lessISsESaISt4pairIKSsS3_EEESs@Base 1.6
 (optional=templinst)_ZN5flann9get_paramIiEET_RKSt3mapISsNS_3anyESt4lessISsESaISt4pairIKSsS3_EEESsRKS1_@Base 1.6
 (optional=templinst)_ZN5flann9get_paramIjEET_RKSt3mapISsNS_3anyESt4lessISsESaISt4pairIKSsS3_EEESsRKS1_@Base 1.6
 (optional=templinst)_ZNK3pcl11KdTreeFLANNINS_11PointNormalEN5flann9L2_SimpleIfEEE12radiusSearchERKS1_dRSt6vectorIiSaIiEERS8_IfSaIfEEj@Base 1.6
 (optional=templinst)_ZNK3pcl11KdTreeFLANNINS_11PointNormalEN5flann9L2_SimpleIfEEE14nearestKSearchERKS1_iRSt6vectorIiSaIiEERS8_IfSaIfEE@Base 1.6
 (optional=templinst)_ZNK3pcl11KdTreeFLANNINS_11PointNormalEN5flann9L2_SimpleIfEEE7getNameEv@Base 1.6
 (optional=templinst)_ZNK3pcl11KdTreeFLANNINS_11PointXYZHSVEN5flann9L2_SimpleIfEEE12radiusSearchERKS1_dRSt6vectorIiSaIiEERS8_IfSaIfEEj@Base 1.6
 (optional=templinst)_ZNK3pcl11KdTreeFLANNINS_11PointXYZHSVEN5flann9L2_SimpleIfEEE14nearestKSearchERKS1_iRSt6vectorIiSaIiEERS8_IfSaIfEE@Base 1.6
 (optional=templinst)_ZNK3pcl11KdTreeFLANNINS_11PointXYZHSVEN5flann9L2_SimpleIfEEE7getNameEv@Base 1.6
 (optional=templinst)_ZNK3pcl11KdTreeFLANNINS_11PointXYZRGBEN5flann9L2_SimpleIfEEE12radiusSearchERKS1_dRSt6vectorIiSaIiEERS8_IfSaIfEEj@Base 1.6
 (optional=templinst)_ZNK3pcl11KdTreeFLANNINS_11PointXYZRGBEN5flann9L2_SimpleIfEEE14nearestKSearchERKS1_iRSt6vectorIiSaIiEERS8_IfSaIfEE@Base 1.6
 (optional=templinst)_ZNK3pcl11KdTreeFLANNINS_11PointXYZRGBEN5flann9L2_SimpleIfEEE7getNameEv@Base 1.6
 (optional=templinst)_ZNK3pcl11KdTreeFLANNINS_12PPFSignatureEN5flann9L2_SimpleIfEEE12radiusSearchERKS1_dRSt6vectorIiSaIiEERS8_IfSaIfEEj@Base 1.6
 (optional=templinst)_ZNK3pcl11KdTreeFLANNINS_12PPFSignatureEN5flann9L2_SimpleIfEEE14nearestKSearchERKS1_iRSt6vectorIiSaIiEERS8_IfSaIfEE@Base 1.6
 (optional=templinst)_ZNK3pcl11KdTreeFLANNINS_12PPFSignatureEN5flann9L2_SimpleIfEEE7getNameEv@Base 1.6
 (optional=templinst)_ZNK3pcl11KdTreeFLANNINS_12PointXYZRGBAEN5flann9L2_SimpleIfEEE12radiusSearchERKS1_dRSt6vectorIiSaIiEERS8_IfSaIfEEj@Base 1.6
 (optional=templinst)_ZNK3pcl11KdTreeFLANNINS_12PointXYZRGBAEN5flann9L2_SimpleIfEEE14nearestKSearchERKS1_iRSt6vectorIiSaIiEERS8_IfSaIfEE@Base 1.6
 (optional=templinst)_ZNK3pcl11KdTreeFLANNINS_12PointXYZRGBAEN5flann9L2_SimpleIfEEE7getNameEv@Base 1.6
 (optional=templinst)_ZNK3pcl11KdTreeFLANNINS_12PointXYZRGBLEN5flann9L2_SimpleIfEEE12radiusSearchERKS1_dRSt6vectorIiSaIiEERS8_IfSaIfEEj@Base 1.6
 (optional=templinst)_ZNK3pcl11KdTreeFLANNINS_12PointXYZRGBLEN5flann9L2_SimpleIfEEE14nearestKSearchERKS1_iRSt6vectorIiSaIiEERS8_IfSaIfEE@Base 1.6
 (optional=templinst)_ZNK3pcl11KdTreeFLANNINS_12PointXYZRGBLEN5flann9L2_SimpleIfEEE7getNameEv@Base 1.6
 (optional=templinst)_ZNK3pcl11KdTreeFLANNINS_13InterestPointEN5flann9L2_SimpleIfEEE12radiusSearchERKS1_dRSt6vectorIiSaIiEERS8_IfSaIfEEj@Base 1.6
 (optional=templinst)_ZNK3pcl11KdTreeFLANNINS_13InterestPointEN5flann9L2_SimpleIfEEE14nearestKSearchERKS1_iRSt6vectorIiSaIiEERS8_IfSaIfEE@Base 1.6
 (optional=templinst)_ZNK3pcl11KdTreeFLANNINS_13InterestPointEN5flann9L2_SimpleIfEEE7getNameEv@Base 1.6
 (optional=templinst)_ZNK3pcl11KdTreeFLANNINS_14PointWithRangeEN5flann9L2_SimpleIfEEE12radiusSearchERKS1_dRSt6vectorIiSaIiEERS8_IfSaIfEEj@Base 1.6
 (optional=templinst)_ZNK3pcl11KdTreeFLANNINS_14PointWithRangeEN5flann9L2_SimpleIfEEE14nearestKSearchERKS1_iRSt6vectorIiSaIiEERS8_IfSaIfEE@Base 1.6
 (optional=templinst)_ZNK3pcl11KdTreeFLANNINS_14PointWithRangeEN5flann9L2_SimpleIfEEE7getNameEv@Base 1.6
 (optional=templinst)_ZNK3pcl11KdTreeFLANNINS_14PointWithScaleEN5flann9L2_SimpleIfEEE12radiusSearchERKS1_dRSt6vectorIiSaIiEERS8_IfSaIfEEj@Base 1.6
 (optional=templinst)_ZNK3pcl11KdTreeFLANNINS_14PointWithScaleEN5flann9L2_SimpleIfEEE14nearestKSearchERKS1_iRSt6vectorIiSaIiEERS8_IfSaIfEE@Base 1.6
 (optional=templinst)_ZNK3pcl11KdTreeFLANNINS_14PointWithScaleEN5flann9L2_SimpleIfEEE7getNameEv@Base 1.6
 (optional=templinst)_ZNK3pcl11KdTreeFLANNINS_14ReferenceFrameEN5flann9L2_SimpleIfEEE12radiusSearchERKS1_dRSt6vectorIiSaIiEERS8_IfSaIfEEj@Base 1.6
 (optional=templinst)_ZNK3pcl11KdTreeFLANNINS_14ReferenceFrameEN5flann9L2_SimpleIfEEE14nearestKSearchERKS1_iRSt6vectorIiSaIiEERS8_IfSaIfEE@Base 1.6
 (optional=templinst)_ZNK3pcl11KdTreeFLANNINS_14ReferenceFrameEN5flann9L2_SimpleIfEEE7getNameEv@Base 1.6
 (optional=templinst)_ZNK3pcl11KdTreeFLANNINS_15ESFSignature640EN5flann9L2_SimpleIfEEE12radiusSearchERKS1_dRSt6vectorIiSaIiEERS8_IfSaIfEEj@Base 1.6
 (optional=templinst)_ZNK3pcl11KdTreeFLANNINS_15ESFSignature640EN5flann9L2_SimpleIfEEE14nearestKSearchERKS1_iRSt6vectorIiSaIiEERS8_IfSaIfEE@Base 1.6
 (optional=templinst)_ZNK3pcl11KdTreeFLANNINS_15ESFSignature640EN5flann9L2_SimpleIfEEE7getNameEv@Base 1.6
 (optional=templinst)_ZNK3pcl11KdTreeFLANNINS_15FPFHSignature33EN5flann9L2_SimpleIfEEE12radiusSearchERKS1_dRSt6vectorIiSaIiEERS8_IfSaIfEEj@Base 1.6
 (optional=templinst)_ZNK3pcl11KdTreeFLANNINS_15FPFHSignature33EN5flann9L2_SimpleIfEEE14nearestKSearchERKS1_iRSt6vectorIiSaIiEERS8_IfSaIfEE@Base 1.6
 (optional=templinst)_ZNK3pcl11KdTreeFLANNINS_15FPFHSignature33EN5flann9L2_SimpleIfEEE7getNameEv@Base 1.6
 (optional=templinst)_ZNK3pcl11KdTreeFLANNINS_15PFHSignature125EN5flann9L2_SimpleIfEEE12radiusSearchERKS1_dRSt6vectorIiSaIiEERS8_IfSaIfEEj@Base 1.6
 (optional=templinst)_ZNK3pcl11KdTreeFLANNINS_15PFHSignature125EN5flann9L2_SimpleIfEEE14nearestKSearchERKS1_iRSt6vectorIiSaIiEERS8_IfSaIfEE@Base 1.6
 (optional=templinst)_ZNK3pcl11KdTreeFLANNINS_15PFHSignature125EN5flann9L2_SimpleIfEEE7getNameEv@Base 1.6
 (optional=templinst)_ZNK3pcl11KdTreeFLANNINS_15PPFRGBSignatureEN5flann9L2_SimpleIfEEE12radiusSearchERKS1_dRSt6vectorIiSaIiEERS8_IfSaIfEEj@Base 1.6
 (optional=templinst)_ZNK3pcl11KdTreeFLANNINS_15PPFRGBSignatureEN5flann9L2_SimpleIfEEE14nearestKSearchERKS1_iRSt6vectorIiSaIiEERS8_IfSaIfEE@Base 1.6
 (optional=templinst)_ZNK3pcl11KdTreeFLANNINS_15PPFRGBSignatureEN5flann9L2_SimpleIfEEE7getNameEv@Base 1.6
 (optional=templinst)_ZNK3pcl11KdTreeFLANNINS_15PointXYZINormalEN5flann9L2_SimpleIfEEE12radiusSearchERKS1_dRSt6vectorIiSaIiEERS8_IfSaIfEEj@Base 1.6
 (optional=templinst)_ZNK3pcl11KdTreeFLANNINS_15PointXYZINormalEN5flann9L2_SimpleIfEEE14nearestKSearchERKS1_iRSt6vectorIiSaIiEERS8_IfSaIfEE@Base 1.6
 (optional=templinst)_ZNK3pcl11KdTreeFLANNINS_15PointXYZINormalEN5flann9L2_SimpleIfEEE7getNameEv@Base 1.6
 (optional=templinst)_ZNK3pcl11KdTreeFLANNINS_15VFHSignature308EN5flann9L2_SimpleIfEEE12radiusSearchERKS1_dRSt6vectorIiSaIiEERS8_IfSaIfEEj@Base 1.6
 (optional=templinst)_ZNK3pcl11KdTreeFLANNINS_15VFHSignature308EN5flann9L2_SimpleIfEEE14nearestKSearchERKS1_iRSt6vectorIiSaIiEERS8_IfSaIfEE@Base 1.6
 (optional=templinst)_ZNK3pcl11KdTreeFLANNINS_15VFHSignature308EN5flann9L2_SimpleIfEEE7getNameEv@Base 1.6
 (optional=templinst)_ZNK3pcl11KdTreeFLANNINS_16MomentInvariantsEN5flann9L2_SimpleIfEEE12radiusSearchERKS1_dRSt6vectorIiSaIiEERS8_IfSaIfEEj@Base 1.6
 (optional=templinst)_ZNK3pcl11KdTreeFLANNINS_16MomentInvariantsEN5flann9L2_SimpleIfEEE14nearestKSearchERKS1_iRSt6vectorIiSaIiEERS8_IfSaIfEE@Base 1.6
 (optional=templinst)_ZNK3pcl11KdTreeFLANNINS_16MomentInvariantsEN5flann9L2_SimpleIfEEE7getNameEv@Base 1.6
 (optional=templinst)_ZNK3pcl11KdTreeFLANNINS_17IntensityGradientEN5flann9L2_SimpleIfEEE12radiusSearchERKS1_dRSt6vectorIiSaIiEERS8_IfSaIfEEj@Base 1.6
 (optional=templinst)_ZNK3pcl11KdTreeFLANNINS_17IntensityGradientEN5flann9L2_SimpleIfEEE14nearestKSearchERKS1_iRSt6vectorIiSaIiEERS8_IfSaIfEE@Base 1.6
 (optional=templinst)_ZNK3pcl11KdTreeFLANNINS_17IntensityGradientEN5flann9L2_SimpleIfEEE7getNameEv@Base 1.6
 (optional=templinst)_ZNK3pcl11KdTreeFLANNINS_17PointXYZRGBNormalEN5flann9L2_SimpleIfEEE12radiusSearchERKS1_dRSt6vectorIiSaIiEERS8_IfSaIfEEj@Base 1.6
 (optional=templinst)_ZNK3pcl11KdTreeFLANNINS_17PointXYZRGBNormalEN5flann9L2_SimpleIfEEE14nearestKSearchERKS1_iRSt6vectorIiSaIiEERS8_IfSaIfEE@Base 1.6
 (optional=templinst)_ZNK3pcl11KdTreeFLANNINS_17PointXYZRGBNormalEN5flann9L2_SimpleIfEEE7getNameEv@Base 1.6
 (optional=templinst)_ZNK3pcl11KdTreeFLANNINS_17PrincipalRadiiRSDEN5flann9L2_SimpleIfEEE12radiusSearchERKS1_dRSt6vectorIiSaIiEERS8_IfSaIfEEj@Base 1.6
 (optional=templinst)_ZNK3pcl11KdTreeFLANNINS_17PrincipalRadiiRSDEN5flann9L2_SimpleIfEEE14nearestKSearchERKS1_iRSt6vectorIiSaIiEERS8_IfSaIfEE@Base 1.6
 (optional=templinst)_ZNK3pcl11KdTreeFLANNINS_17PrincipalRadiiRSDEN5flann9L2_SimpleIfEEE7getNameEv@Base 1.6
 (optional=templinst)_ZNK3pcl11KdTreeFLANNINS_18PFHRGBSignature250EN5flann9L2_SimpleIfEEE12radiusSearchERKS1_dRSt6vectorIiSaIiEERS8_IfSaIfEEj@Base 1.6
 (optional=templinst)_ZNK3pcl11KdTreeFLANNINS_18PFHRGBSignature250EN5flann9L2_SimpleIfEEE14nearestKSearchERKS1_iRSt6vectorIiSaIiEERS8_IfSaIfEE@Base 1.6
 (optional=templinst)_ZNK3pcl11KdTreeFLANNINS_18PFHRGBSignature250EN5flann9L2_SimpleIfEEE7getNameEv@Base 1.6
 (optional=templinst)_ZNK3pcl11KdTreeFLANNINS_18PointWithViewpointEN5flann9L2_SimpleIfEEE12radiusSearchERKS1_dRSt6vectorIiSaIiEERS8_IfSaIfEEj@Base 1.6
 (optional=templinst)_ZNK3pcl11KdTreeFLANNINS_18PointWithViewpointEN5flann9L2_SimpleIfEEE14nearestKSearchERKS1_iRSt6vectorIiSaIiEERS8_IfSaIfEE@Base 1.6
 (optional=templinst)_ZNK3pcl11KdTreeFLANNINS_18PointWithViewpointEN5flann9L2_SimpleIfEEE7getNameEv@Base 1.6
 (optional=templinst)_ZNK3pcl11KdTreeFLANNINS_19PrincipalCurvaturesEN5flann9L2_SimpleIfEEE12radiusSearchERKS1_dRSt6vectorIiSaIiEERS8_IfSaIfEEj@Base 1.6
 (optional=templinst)_ZNK3pcl11KdTreeFLANNINS_19PrincipalCurvaturesEN5flann9L2_SimpleIfEEE14nearestKSearchERKS1_iRSt6vectorIiSaIiEERS8_IfSaIfEE@Base 1.6
 (optional=templinst)_ZNK3pcl11KdTreeFLANNINS_19PrincipalCurvaturesEN5flann9L2_SimpleIfEEE7getNameEv@Base 1.6
 (optional=templinst)_ZNK3pcl11KdTreeFLANNINS_22NormalBasedSignature12EN5flann9L2_SimpleIfEEE12radiusSearchERKS1_dRSt6vectorIiSaIiEERS8_IfSaIfEEj@Base 1.6
 (optional=templinst)_ZNK3pcl11KdTreeFLANNINS_22NormalBasedSignature12EN5flann9L2_SimpleIfEEE14nearestKSearchERKS1_iRSt6vectorIiSaIiEERS8_IfSaIfEE@Base 1.6
 (optional=templinst)_ZNK3pcl11KdTreeFLANNINS_22NormalBasedSignature12EN5flann9L2_SimpleIfEEE7getNameEv@Base 1.6
 (optional=templinst)_ZNK3pcl11KdTreeFLANNINS_4AxisEN5flann9L2_SimpleIfEEE12radiusSearchERKS1_dRSt6vectorIiSaIiEERS8_IfSaIfEEj@Base 1.6
 (optional=templinst)_ZNK3pcl11KdTreeFLANNINS_4AxisEN5flann9L2_SimpleIfEEE14nearestKSearchERKS1_iRSt6vectorIiSaIiEERS8_IfSaIfEE@Base 1.6
 (optional=templinst)_ZNK3pcl11KdTreeFLANNINS_4AxisEN5flann9L2_SimpleIfEEE7getNameEv@Base 1.6
 (optional=templinst)_ZNK3pcl11KdTreeFLANNINS_5LabelEN5flann9L2_SimpleIfEEE12radiusSearchERKS1_dRSt6vectorIiSaIiEERS8_IfSaIfEEj@Base 1.6
 (optional=templinst)_ZNK3pcl11KdTreeFLANNINS_5LabelEN5flann9L2_SimpleIfEEE14nearestKSearchERKS1_iRSt6vectorIiSaIiEERS8_IfSaIfEE@Base 1.6
 (optional=templinst)_ZNK3pcl11KdTreeFLANNINS_5LabelEN5flann9L2_SimpleIfEEE7getNameEv@Base 1.6
 (optional=templinst)_ZNK3pcl11KdTreeFLANNINS_6Narf36EN5flann9L2_SimpleIfEEE12radiusSearchERKS1_dRSt6vectorIiSaIiEERS8_IfSaIfEEj@Base 1.6
 (optional=templinst)_ZNK3pcl11KdTreeFLANNINS_6Narf36EN5flann9L2_SimpleIfEEE14nearestKSearchERKS1_iRSt6vectorIiSaIiEERS8_IfSaIfEE@Base 1.6
 (optional=templinst)_ZNK3pcl11KdTreeFLANNINS_6Narf36EN5flann9L2_SimpleIfEEE7getNameEv@Base 1.6
 (optional=templinst)_ZNK3pcl11KdTreeFLANNINS_6NormalEN5flann9L2_SimpleIfEEE12radiusSearchERKS1_dRSt6vectorIiSaIiEERS8_IfSaIfEEj@Base 1.6
 (optional=templinst)_ZNK3pcl11KdTreeFLANNINS_6NormalEN5flann9L2_SimpleIfEEE14nearestKSearchERKS1_iRSt6vectorIiSaIiEERS8_IfSaIfEE@Base 1.6
 (optional=templinst)_ZNK3pcl11KdTreeFLANNINS_6NormalEN5flann9L2_SimpleIfEEE7getNameEv@Base 1.6
 (optional=templinst)_ZNK3pcl11KdTreeFLANNINS_7PointXYEN5flann9L2_SimpleIfEEE12radiusSearchERKS1_dRSt6vectorIiSaIiEERS8_IfSaIfEEj@Base 1.6
 (optional=templinst)_ZNK3pcl11KdTreeFLANNINS_7PointXYEN5flann9L2_SimpleIfEEE14nearestKSearchERKS1_iRSt6vectorIiSaIiEERS8_IfSaIfEE@Base 1.6
 (optional=templinst)_ZNK3pcl11KdTreeFLANNINS_7PointXYEN5flann9L2_SimpleIfEEE7getNameEv@Base 1.6
 (optional=templinst)_ZNK3pcl11KdTreeFLANNINS_8BoundaryEN5flann9L2_SimpleIfEEE12radiusSearchERKS1_dRSt6vectorIiSaIiEERS8_IfSaIfEEj@Base 1.6
 (optional=templinst)_ZNK3pcl11KdTreeFLANNINS_8BoundaryEN5flann9L2_SimpleIfEEE14nearestKSearchERKS1_iRSt6vectorIiSaIiEERS8_IfSaIfEE@Base 1.6
 (optional=templinst)_ZNK3pcl11KdTreeFLANNINS_8BoundaryEN5flann9L2_SimpleIfEEE7getNameEv@Base 1.6
 (optional=templinst)_ZNK3pcl11KdTreeFLANNINS_8PointXYZEN5flann9L2_SimpleIfEEE12radiusSearchERKS1_dRSt6vectorIiSaIiEERS8_IfSaIfEEj@Base 1.6
 (optional=templinst)_ZNK3pcl11KdTreeFLANNINS_8PointXYZEN5flann9L2_SimpleIfEEE14nearestKSearchERKS1_iRSt6vectorIiSaIiEERS8_IfSaIfEE@Base 1.6
 (optional=templinst)_ZNK3pcl11KdTreeFLANNINS_8PointXYZEN5flann9L2_SimpleIfEEE7getNameEv@Base 1.6
 (optional=templinst)_ZNK3pcl11KdTreeFLANNINS_9PointXYZIEN5flann9L2_SimpleIfEEE12radiusSearchERKS1_dRSt6vectorIiSaIiEERS8_IfSaIfEEj@Base 1.6
 (optional=templinst)_ZNK3pcl11KdTreeFLANNINS_9PointXYZIEN5flann9L2_SimpleIfEEE14nearestKSearchERKS1_iRSt6vectorIiSaIiEERS8_IfSaIfEE@Base 1.6
 (optional=templinst)_ZNK3pcl11KdTreeFLANNINS_9PointXYZIEN5flann9L2_SimpleIfEEE7getNameEv@Base 1.6
 (optional=templinst)_ZNK3pcl11KdTreeFLANNINS_9PointXYZLEN5flann9L2_SimpleIfEEE12radiusSearchERKS1_dRSt6vectorIiSaIiEERS8_IfSaIfEEj@Base 1.6
 (optional=templinst)_ZNK3pcl11KdTreeFLANNINS_9PointXYZLEN5flann9L2_SimpleIfEEE14nearestKSearchERKS1_iRSt6vectorIiSaIiEERS8_IfSaIfEE@Base 1.6
 (optional=templinst)_ZNK3pcl11KdTreeFLANNINS_9PointXYZLEN5flann9L2_SimpleIfEEE7getNameEv@Base 1.6
 (optional=templinst)_ZNK3pcl19PointRepresentationINS_11PointNormalEE7isValidERKS1_@Base 1.6
 (optional=templinst)_ZNK3pcl19PointRepresentationINS_11PointNormalEE9vectorizeISt6vectorIfSaIfEEEEvRKS1_RT_@Base 1.6
 (optional=templinst)_ZNK3pcl19PointRepresentationINS_11PointXYZHSVEE7isValidERKS1_@Base 1.6
 (optional=templinst)_ZNK3pcl19PointRepresentationINS_11PointXYZHSVEE9vectorizeISt6vectorIfSaIfEEEEvRKS1_RT_@Base 1.6
 (optional=templinst)_ZNK3pcl19PointRepresentationINS_11PointXYZRGBEE7isValidERKS1_@Base 1.6
 (optional=templinst)_ZNK3pcl19PointRepresentationINS_11PointXYZRGBEE9vectorizeISt6vectorIfSaIfEEEEvRKS1_RT_@Base 1.6
 (optional=templinst)_ZNK3pcl19PointRepresentationINS_12PPFSignatureEE7isValidERKS1_@Base 1.6
 (optional=templinst)_ZNK3pcl19PointRepresentationINS_12PPFSignatureEE9vectorizeISt6vectorIfSaIfEEEEvRKS1_RT_@Base 1.6
 (optional=templinst)_ZNK3pcl19PointRepresentationINS_12PointXYZRGBAEE7isValidERKS1_@Base 1.6
 (optional=templinst)_ZNK3pcl19PointRepresentationINS_12PointXYZRGBAEE9vectorizeISt6vectorIfSaIfEEEEvRKS1_RT_@Base 1.6
 (optional=templinst)_ZNK3pcl19PointRepresentationINS_12PointXYZRGBLEE7isValidERKS1_@Base 1.6
 (optional=templinst)_ZNK3pcl19PointRepresentationINS_12PointXYZRGBLEE9vectorizeISt6vectorIfSaIfEEEEvRKS1_RT_@Base 1.6
 (optional=templinst)_ZNK3pcl19PointRepresentationINS_13InterestPointEE7isValidERKS1_@Base 1.6
 (optional=templinst)_ZNK3pcl19PointRepresentationINS_13InterestPointEE9vectorizeISt6vectorIfSaIfEEEEvRKS1_RT_@Base 1.6
 (optional=templinst)_ZNK3pcl19PointRepresentationINS_14PointWithRangeEE7isValidERKS1_@Base 1.6
 (optional=templinst)_ZNK3pcl19PointRepresentationINS_14PointWithRangeEE9vectorizeISt6vectorIfSaIfEEEEvRKS1_RT_@Base 1.6
 (optional=templinst)_ZNK3pcl19PointRepresentationINS_14PointWithScaleEE7isValidERKS1_@Base 1.6
 (optional=templinst)_ZNK3pcl19PointRepresentationINS_14PointWithScaleEE9vectorizeISt6vectorIfSaIfEEEEvRKS1_RT_@Base 1.6
 (optional=templinst)_ZNK3pcl19PointRepresentationINS_14ReferenceFrameEE7isValidERKS1_@Base 1.6
 (optional=templinst)_ZNK3pcl19PointRepresentationINS_14ReferenceFrameEE9vectorizeISt6vectorIfSaIfEEEEvRKS1_RT_@Base 1.6
 (optional=templinst)_ZNK3pcl19PointRepresentationINS_15ESFSignature640EE7isValidERKS1_@Base 1.6
 (optional=templinst)_ZNK3pcl19PointRepresentationINS_15ESFSignature640EE9vectorizeISt6vectorIfSaIfEEEEvRKS1_RT_@Base 1.6
 (optional=templinst)_ZNK3pcl19PointRepresentationINS_15FPFHSignature33EE7isValidERKS1_@Base 1.6
 (optional=templinst)_ZNK3pcl19PointRepresentationINS_15FPFHSignature33EE9vectorizeISt6vectorIfSaIfEEEEvRKS1_RT_@Base 1.6
 (optional=templinst)_ZNK3pcl19PointRepresentationINS_15PFHSignature125EE7isValidERKS1_@Base 1.6
 (optional=templinst)_ZNK3pcl19PointRepresentationINS_15PFHSignature125EE9vectorizeISt6vectorIfSaIfEEEEvRKS1_RT_@Base 1.6
 (optional=templinst)_ZNK3pcl19PointRepresentationINS_15PPFRGBSignatureEE7isValidERKS1_@Base 1.6
 (optional=templinst)_ZNK3pcl19PointRepresentationINS_15PPFRGBSignatureEE9vectorizeISt6vectorIfSaIfEEEEvRKS1_RT_@Base 1.6
 (optional=templinst)_ZNK3pcl19PointRepresentationINS_15PointXYZINormalEE7isValidERKS1_@Base 1.6
 (optional=templinst)_ZNK3pcl19PointRepresentationINS_15PointXYZINormalEE9vectorizeISt6vectorIfSaIfEEEEvRKS1_RT_@Base 1.6
 (optional=templinst)_ZNK3pcl19PointRepresentationINS_15VFHSignature308EE7isValidERKS1_@Base 1.6
 (optional=templinst)_ZNK3pcl19PointRepresentationINS_15VFHSignature308EE9vectorizeISt6vectorIfSaIfEEEEvRKS1_RT_@Base 1.6
 (optional=templinst)_ZNK3pcl19PointRepresentationINS_16MomentInvariantsEE7isValidERKS1_@Base 1.6
 (optional=templinst)_ZNK3pcl19PointRepresentationINS_16MomentInvariantsEE9vectorizeISt6vectorIfSaIfEEEEvRKS1_RT_@Base 1.6
 (optional=templinst)_ZNK3pcl19PointRepresentationINS_17IntensityGradientEE7isValidERKS1_@Base 1.6
 (optional=templinst)_ZNK3pcl19PointRepresentationINS_17IntensityGradientEE9vectorizeISt6vectorIfSaIfEEEEvRKS1_RT_@Base 1.6
 (optional=templinst)_ZNK3pcl19PointRepresentationINS_17PointXYZRGBNormalEE7isValidERKS1_@Base 1.6
 (optional=templinst)_ZNK3pcl19PointRepresentationINS_17PointXYZRGBNormalEE9vectorizeISt6vectorIfSaIfEEEEvRKS1_RT_@Base 1.6
 (optional=templinst)_ZNK3pcl19PointRepresentationINS_17PrincipalRadiiRSDEE7isValidERKS1_@Base 1.6
 (optional=templinst)_ZNK3pcl19PointRepresentationINS_17PrincipalRadiiRSDEE9vectorizeISt6vectorIfSaIfEEEEvRKS1_RT_@Base 1.6
 (optional=templinst)_ZNK3pcl19PointRepresentationINS_18PFHRGBSignature250EE7isValidERKS1_@Base 1.6
 (optional=templinst)_ZNK3pcl19PointRepresentationINS_18PFHRGBSignature250EE9vectorizeISt6vectorIfSaIfEEEEvRKS1_RT_@Base 1.6
 (optional=templinst)_ZNK3pcl19PointRepresentationINS_18PointWithViewpointEE7isValidERKS1_@Base 1.6
 (optional=templinst)_ZNK3pcl19PointRepresentationINS_18PointWithViewpointEE9vectorizeISt6vectorIfSaIfEEEEvRKS1_RT_@Base 1.6
 (optional=templinst)_ZNK3pcl19PointRepresentationINS_19PrincipalCurvaturesEE7isValidERKS1_@Base 1.6
 (optional=templinst)_ZNK3pcl19PointRepresentationINS_19PrincipalCurvaturesEE9vectorizeISt6vectorIfSaIfEEEEvRKS1_RT_@Base 1.6
 (optional=templinst)_ZNK3pcl19PointRepresentationINS_22NormalBasedSignature12EE7isValidERKS1_@Base 1.6
 (optional=templinst)_ZNK3pcl19PointRepresentationINS_22NormalBasedSignature12EE9vectorizeISt6vectorIfSaIfEEEEvRKS1_RT_@Base 1.6
 (optional=templinst)_ZNK3pcl19PointRepresentationINS_4AxisEE7isValidERKS1_@Base 1.6
 (optional=templinst)_ZNK3pcl19PointRepresentationINS_4AxisEE9vectorizeISt6vectorIfSaIfEEEEvRKS1_RT_@Base 1.6
 (optional=templinst)_ZNK3pcl19PointRepresentationINS_5LabelEE7isValidERKS1_@Base 1.6
 (optional=templinst)_ZNK3pcl19PointRepresentationINS_5LabelEE9vectorizeISt6vectorIfSaIfEEEEvRKS1_RT_@Base 1.6
 (optional=templinst)_ZNK3pcl19PointRepresentationINS_6Narf36EE7isValidERKS1_@Base 1.6
 (optional=templinst)_ZNK3pcl19PointRepresentationINS_6Narf36EE9vectorizeISt6vectorIfSaIfEEEEvRKS1_RT_@Base 1.6
 (optional=templinst)_ZNK3pcl19PointRepresentationINS_6NormalEE7isValidERKS1_@Base 1.6
 (optional=templinst)_ZNK3pcl19PointRepresentationINS_6NormalEE9vectorizeISt6vectorIfSaIfEEEEvRKS1_RT_@Base 1.6
 (optional=templinst)_ZNK3pcl19PointRepresentationINS_7PointXYEE7isValidERKS1_@Base 1.6
 (optional=templinst)_ZNK3pcl19PointRepresentationINS_7PointXYEE9vectorizeISt6vectorIfSaIfEEEEvRKS1_RT_@Base 1.6
 (optional=templinst)_ZNK3pcl19PointRepresentationINS_8BoundaryEE7isValidERKS1_@Base 1.6
 (optional=templinst)_ZNK3pcl19PointRepresentationINS_8BoundaryEE9vectorizeISt6vectorIfSaIfEEEEvRKS1_RT_@Base 1.6
 (optional=templinst)_ZNK3pcl19PointRepresentationINS_8PointXYZEE7isValidERKS1_@Base 1.6
 (optional=templinst)_ZNK3pcl19PointRepresentationINS_8PointXYZEE9vectorizeISt6vectorIfSaIfEEEEvRKS1_RT_@Base 1.6
 (optional=templinst)_ZNK3pcl19PointRepresentationINS_9PointXYZIEE7isValidERKS1_@Base 1.6
 (optional=templinst)_ZNK3pcl19PointRepresentationINS_9PointXYZIEE9vectorizeISt6vectorIfSaIfEEEEvRKS1_RT_@Base 1.6
 (optional=templinst)_ZNK3pcl19PointRepresentationINS_9PointXYZLEE7isValidERKS1_@Base 1.6
 (optional=templinst)_ZNK3pcl19PointRepresentationINS_9PointXYZLEE9vectorizeISt6vectorIfSaIfEEEEvRKS1_RT_@Base 1.6
 (optional=templinst)_ZNK3pcl26DefaultPointRepresentationINS_11PointNormalEE16copyToFloatArrayERKS1_Pf@Base 1.6
 (optional=templinst)_ZNK3pcl26DefaultPointRepresentationINS_11PointXYZHSVEE16copyToFloatArrayERKS1_Pf@Base 1.6
 (optional=templinst)_ZNK3pcl26DefaultPointRepresentationINS_11PointXYZRGBEE16copyToFloatArrayERKS1_Pf@Base 1.6
 (optional=templinst)_ZNK3pcl26DefaultPointRepresentationINS_12PPFSignatureEE16copyToFloatArrayERKS1_Pf@Base 1.6
 (optional=templinst)_ZNK3pcl26DefaultPointRepresentationINS_12PointXYZRGBAEE16copyToFloatArrayERKS1_Pf@Base 1.6
 (optional=templinst)_ZNK3pcl26DefaultPointRepresentationINS_12PointXYZRGBLEE16copyToFloatArrayERKS1_Pf@Base 1.6
 (optional=templinst)_ZNK3pcl26DefaultPointRepresentationINS_13InterestPointEE16copyToFloatArrayERKS1_Pf@Base 1.6
 (optional=templinst)_ZNK3pcl26DefaultPointRepresentationINS_14PointWithRangeEE16copyToFloatArrayERKS1_Pf@Base 1.6
 (optional=templinst)_ZNK3pcl26DefaultPointRepresentationINS_14PointWithScaleEE16copyToFloatArrayERKS1_Pf@Base 1.6
 (optional=templinst)_ZNK3pcl26DefaultPointRepresentationINS_14ReferenceFrameEE16copyToFloatArrayERKS1_Pf@Base 1.6
 (optional=templinst)_ZNK3pcl26DefaultPointRepresentationINS_15ESFSignature640EE16copyToFloatArrayERKS1_Pf@Base 1.6
 (optional=templinst)_ZNK3pcl26DefaultPointRepresentationINS_15PPFRGBSignatureEE16copyToFloatArrayERKS1_Pf@Base 1.6
 (optional=templinst)_ZNK3pcl26DefaultPointRepresentationINS_15PointXYZINormalEE16copyToFloatArrayERKS1_Pf@Base 1.6
 (optional=templinst)_ZNK3pcl26DefaultPointRepresentationINS_16MomentInvariantsEE16copyToFloatArrayERKS1_Pf@Base 1.6
 (optional=templinst)_ZNK3pcl26DefaultPointRepresentationINS_17IntensityGradientEE16copyToFloatArrayERKS1_Pf@Base 1.6
 (optional=templinst)_ZNK3pcl26DefaultPointRepresentationINS_17PointXYZRGBNormalEE16copyToFloatArrayERKS1_Pf@Base 1.6
 (optional=templinst)_ZNK3pcl26DefaultPointRepresentationINS_17PrincipalRadiiRSDEE16copyToFloatArrayERKS1_Pf@Base 1.6
 (optional=templinst)_ZNK3pcl26DefaultPointRepresentationINS_18PointWithViewpointEE16copyToFloatArrayERKS1_Pf@Base 1.6
 (optional=templinst)_ZNK3pcl26DefaultPointRepresentationINS_19PrincipalCurvaturesEE16copyToFloatArrayERKS1_Pf@Base 1.6
 (optional=templinst)_ZNK3pcl26DefaultPointRepresentationINS_4AxisEE16copyToFloatArrayERKS1_Pf@Base 1.6
 (optional=templinst)_ZNK3pcl26DefaultPointRepresentationINS_5LabelEE16copyToFloatArrayERKS1_Pf@Base 1.6
 (optional=templinst)_ZNK3pcl26DefaultPointRepresentationINS_6Narf36EE16copyToFloatArrayERKS1_Pf@Base 1.6
 (optional=templinst)_ZNK3pcl26DefaultPointRepresentationINS_6NormalEE16copyToFloatArrayERKS1_Pf@Base 1.6
 (optional=templinst)_ZNK3pcl26DefaultPointRepresentationINS_7PointXYEE16copyToFloatArrayERKS1_Pf@Base 1.6
 (optional=templinst)_ZNK3pcl26DefaultPointRepresentationINS_8BoundaryEE16copyToFloatArrayERKS1_Pf@Base 1.6
 (optional=templinst)_ZNK3pcl26DefaultPointRepresentationINS_8PointXYZEE16copyToFloatArrayERKS1_Pf@Base 1.6
 (optional=templinst)_ZNK3pcl26DefaultPointRepresentationINS_9PointXYZIEE16copyToFloatArrayERKS1_Pf@Base 1.6
 (optional=templinst)_ZNK3pcl26DefaultPointRepresentationINS_9PointXYZLEE16copyToFloatArrayERKS1_Pf@Base 1.6
 (optional=templinst)_ZNK3pcl28DefaultFeatureRepresentationINS_12PPFSignatureEE16copyToFloatArrayERKS1_Pf@Base 1.6
 (optional=templinst)_ZNK3pcl28DefaultFeatureRepresentationINS_15FPFHSignature33EE16copyToFloatArrayERKS1_Pf@Base 1.6
 (optional=templinst)_ZNK3pcl28DefaultFeatureRepresentationINS_15PFHSignature125EE16copyToFloatArrayERKS1_Pf@Base 1.6
 (optional=templinst)_ZNK3pcl28DefaultFeatureRepresentationINS_15VFHSignature308EE16copyToFloatArrayERKS1_Pf@Base 1.6
 (optional=templinst)_ZNK3pcl28DefaultFeatureRepresentationINS_18PFHRGBSignature250EE16copyToFloatArrayERKS1_Pf@Base 1.6
 (optional=templinst)_ZNK3pcl28DefaultFeatureRepresentationINS_22NormalBasedSignature12EE16copyToFloatArrayERKS1_Pf@Base 1.6
 (optional=templinst)_ZNK3pcl6KdTreeINS_11PointNormalEE12radiusSearchERKNS_10PointCloudIS1_EEidRSt6vectorIiSaIiEERS7_IfSaIfEEj@Base 1.6
 (optional=templinst)_ZNK3pcl6KdTreeINS_11PointNormalEE12radiusSearchEidRSt6vectorIiSaIiEERS3_IfSaIfEEj@Base 1.6
 (optional=templinst)_ZNK3pcl6KdTreeINS_11PointNormalEE14nearestKSearchERKNS_10PointCloudIS1_EEiiRSt6vectorIiSaIiEERS7_IfSaIfEE@Base 1.6
 (optional=templinst)_ZNK3pcl6KdTreeINS_11PointNormalEE14nearestKSearchEiiRSt6vectorIiSaIiEERS3_IfSaIfEE@Base 1.6
 (optional=templinst)_ZNK3pcl6KdTreeINS_11PointXYZHSVEE12radiusSearchERKNS_10PointCloudIS1_EEidRSt6vectorIiSaIiEERS7_IfSaIfEEj@Base 1.6
 (optional=templinst)_ZNK3pcl6KdTreeINS_11PointXYZHSVEE12radiusSearchEidRSt6vectorIiSaIiEERS3_IfSaIfEEj@Base 1.6
 (optional=templinst)_ZNK3pcl6KdTreeINS_11PointXYZHSVEE14nearestKSearchERKNS_10PointCloudIS1_EEiiRSt6vectorIiSaIiEERS7_IfSaIfEE@Base 1.6
 (optional=templinst)_ZNK3pcl6KdTreeINS_11PointXYZHSVEE14nearestKSearchEiiRSt6vectorIiSaIiEERS3_IfSaIfEE@Base 1.6
 (optional=templinst)_ZNK3pcl6KdTreeINS_11PointXYZRGBEE12radiusSearchERKNS_10PointCloudIS1_EEidRSt6vectorIiSaIiEERS7_IfSaIfEEj@Base 1.6
 (optional=templinst)_ZNK3pcl6KdTreeINS_11PointXYZRGBEE12radiusSearchEidRSt6vectorIiSaIiEERS3_IfSaIfEEj@Base 1.6
 (optional=templinst)_ZNK3pcl6KdTreeINS_11PointXYZRGBEE14nearestKSearchERKNS_10PointCloudIS1_EEiiRSt6vectorIiSaIiEERS7_IfSaIfEE@Base 1.6
 (optional=templinst)_ZNK3pcl6KdTreeINS_11PointXYZRGBEE14nearestKSearchEiiRSt6vectorIiSaIiEERS3_IfSaIfEE@Base 1.6
 (optional=templinst)_ZNK3pcl6KdTreeINS_12PPFSignatureEE12radiusSearchERKNS_10PointCloudIS1_EEidRSt6vectorIiSaIiEERS7_IfSaIfEEj@Base 1.6
 (optional=templinst)_ZNK3pcl6KdTreeINS_12PPFSignatureEE12radiusSearchEidRSt6vectorIiSaIiEERS3_IfSaIfEEj@Base 1.6
 (optional=templinst)_ZNK3pcl6KdTreeINS_12PPFSignatureEE14nearestKSearchERKNS_10PointCloudIS1_EEiiRSt6vectorIiSaIiEERS7_IfSaIfEE@Base 1.6
 (optional=templinst)_ZNK3pcl6KdTreeINS_12PPFSignatureEE14nearestKSearchEiiRSt6vectorIiSaIiEERS3_IfSaIfEE@Base 1.6
 (optional=templinst)_ZNK3pcl6KdTreeINS_12PointXYZRGBAEE12radiusSearchERKNS_10PointCloudIS1_EEidRSt6vectorIiSaIiEERS7_IfSaIfEEj@Base 1.6
 (optional=templinst)_ZNK3pcl6KdTreeINS_12PointXYZRGBAEE12radiusSearchEidRSt6vectorIiSaIiEERS3_IfSaIfEEj@Base 1.6
 (optional=templinst)_ZNK3pcl6KdTreeINS_12PointXYZRGBAEE14nearestKSearchERKNS_10PointCloudIS1_EEiiRSt6vectorIiSaIiEERS7_IfSaIfEE@Base 1.6
 (optional=templinst)_ZNK3pcl6KdTreeINS_12PointXYZRGBAEE14nearestKSearchEiiRSt6vectorIiSaIiEERS3_IfSaIfEE@Base 1.6
 (optional=templinst)_ZNK3pcl6KdTreeINS_12PointXYZRGBLEE12radiusSearchERKNS_10PointCloudIS1_EEidRSt6vectorIiSaIiEERS7_IfSaIfEEj@Base 1.6
 (optional=templinst)_ZNK3pcl6KdTreeINS_12PointXYZRGBLEE12radiusSearchEidRSt6vectorIiSaIiEERS3_IfSaIfEEj@Base 1.6
 (optional=templinst)_ZNK3pcl6KdTreeINS_12PointXYZRGBLEE14nearestKSearchERKNS_10PointCloudIS1_EEiiRSt6vectorIiSaIiEERS7_IfSaIfEE@Base 1.6
 (optional=templinst)_ZNK3pcl6KdTreeINS_12PointXYZRGBLEE14nearestKSearchEiiRSt6vectorIiSaIiEERS3_IfSaIfEE@Base 1.6
 (optional=templinst)_ZNK3pcl6KdTreeINS_13InterestPointEE12radiusSearchERKNS_10PointCloudIS1_EEidRSt6vectorIiSaIiEERS7_IfSaIfEEj@Base 1.6
 (optional=templinst)_ZNK3pcl6KdTreeINS_13InterestPointEE12radiusSearchEidRSt6vectorIiSaIiEERS3_IfSaIfEEj@Base 1.6
 (optional=templinst)_ZNK3pcl6KdTreeINS_13InterestPointEE14nearestKSearchERKNS_10PointCloudIS1_EEiiRSt6vectorIiSaIiEERS7_IfSaIfEE@Base 1.6
 (optional=templinst)_ZNK3pcl6KdTreeINS_13InterestPointEE14nearestKSearchEiiRSt6vectorIiSaIiEERS3_IfSaIfEE@Base 1.6
 (optional=templinst)_ZNK3pcl6KdTreeINS_14PointWithRangeEE12radiusSearchERKNS_10PointCloudIS1_EEidRSt6vectorIiSaIiEERS7_IfSaIfEEj@Base 1.6
 (optional=templinst)_ZNK3pcl6KdTreeINS_14PointWithRangeEE12radiusSearchEidRSt6vectorIiSaIiEERS3_IfSaIfEEj@Base 1.6
 (optional=templinst)_ZNK3pcl6KdTreeINS_14PointWithRangeEE14nearestKSearchERKNS_10PointCloudIS1_EEiiRSt6vectorIiSaIiEERS7_IfSaIfEE@Base 1.6
 (optional=templinst)_ZNK3pcl6KdTreeINS_14PointWithRangeEE14nearestKSearchEiiRSt6vectorIiSaIiEERS3_IfSaIfEE@Base 1.6
 (optional=templinst)_ZNK3pcl6KdTreeINS_14PointWithScaleEE12radiusSearchERKNS_10PointCloudIS1_EEidRSt6vectorIiSaIiEERS7_IfSaIfEEj@Base 1.6
 (optional=templinst)_ZNK3pcl6KdTreeINS_14PointWithScaleEE12radiusSearchEidRSt6vectorIiSaIiEERS3_IfSaIfEEj@Base 1.6
 (optional=templinst)_ZNK3pcl6KdTreeINS_14PointWithScaleEE14nearestKSearchERKNS_10PointCloudIS1_EEiiRSt6vectorIiSaIiEERS7_IfSaIfEE@Base 1.6
 (optional=templinst)_ZNK3pcl6KdTreeINS_14PointWithScaleEE14nearestKSearchEiiRSt6vectorIiSaIiEERS3_IfSaIfEE@Base 1.6
 (optional=templinst)_ZNK3pcl6KdTreeINS_14ReferenceFrameEE12radiusSearchERKNS_10PointCloudIS1_EEidRSt6vectorIiSaIiEERS7_IfSaIfEEj@Base 1.6
 (optional=templinst)_ZNK3pcl6KdTreeINS_14ReferenceFrameEE12radiusSearchEidRSt6vectorIiSaIiEERS3_IfSaIfEEj@Base 1.6
 (optional=templinst)_ZNK3pcl6KdTreeINS_14ReferenceFrameEE14nearestKSearchERKNS_10PointCloudIS1_EEiiRSt6vectorIiSaIiEERS7_IfSaIfEE@Base 1.6
 (optional=templinst)_ZNK3pcl6KdTreeINS_14ReferenceFrameEE14nearestKSearchEiiRSt6vectorIiSaIiEERS3_IfSaIfEE@Base 1.6
 (optional=templinst)_ZNK3pcl6KdTreeINS_15ESFSignature640EE12radiusSearchERKNS_10PointCloudIS1_EEidRSt6vectorIiSaIiEERS7_IfSaIfEEj@Base 1.6
 (optional=templinst)_ZNK3pcl6KdTreeINS_15ESFSignature640EE12radiusSearchEidRSt6vectorIiSaIiEERS3_IfSaIfEEj@Base 1.6
 (optional=templinst)_ZNK3pcl6KdTreeINS_15ESFSignature640EE14nearestKSearchERKNS_10PointCloudIS1_EEiiRSt6vectorIiSaIiEERS7_IfSaIfEE@Base 1.6
 (optional=templinst)_ZNK3pcl6KdTreeINS_15ESFSignature640EE14nearestKSearchEiiRSt6vectorIiSaIiEERS3_IfSaIfEE@Base 1.6
 (optional=templinst)_ZNK3pcl6KdTreeINS_15FPFHSignature33EE12radiusSearchERKNS_10PointCloudIS1_EEidRSt6vectorIiSaIiEERS7_IfSaIfEEj@Base 1.6
 (optional=templinst)_ZNK3pcl6KdTreeINS_15FPFHSignature33EE12radiusSearchEidRSt6vectorIiSaIiEERS3_IfSaIfEEj@Base 1.6
 (optional=templinst)_ZNK3pcl6KdTreeINS_15FPFHSignature33EE14nearestKSearchERKNS_10PointCloudIS1_EEiiRSt6vectorIiSaIiEERS7_IfSaIfEE@Base 1.6
 (optional=templinst)_ZNK3pcl6KdTreeINS_15FPFHSignature33EE14nearestKSearchEiiRSt6vectorIiSaIiEERS3_IfSaIfEE@Base 1.6
 (optional=templinst)_ZNK3pcl6KdTreeINS_15PFHSignature125EE12radiusSearchERKNS_10PointCloudIS1_EEidRSt6vectorIiSaIiEERS7_IfSaIfEEj@Base 1.6
 (optional=templinst)_ZNK3pcl6KdTreeINS_15PFHSignature125EE12radiusSearchEidRSt6vectorIiSaIiEERS3_IfSaIfEEj@Base 1.6
 (optional=templinst)_ZNK3pcl6KdTreeINS_15PFHSignature125EE14nearestKSearchERKNS_10PointCloudIS1_EEiiRSt6vectorIiSaIiEERS7_IfSaIfEE@Base 1.6
 (optional=templinst)_ZNK3pcl6KdTreeINS_15PFHSignature125EE14nearestKSearchEiiRSt6vectorIiSaIiEERS3_IfSaIfEE@Base 1.6
 (optional=templinst)_ZNK3pcl6KdTreeINS_15PPFRGBSignatureEE12radiusSearchERKNS_10PointCloudIS1_EEidRSt6vectorIiSaIiEERS7_IfSaIfEEj@Base 1.6
 (optional=templinst)_ZNK3pcl6KdTreeINS_15PPFRGBSignatureEE12radiusSearchEidRSt6vectorIiSaIiEERS3_IfSaIfEEj@Base 1.6
 (optional=templinst)_ZNK3pcl6KdTreeINS_15PPFRGBSignatureEE14nearestKSearchERKNS_10PointCloudIS1_EEiiRSt6vectorIiSaIiEERS7_IfSaIfEE@Base 1.6
 (optional=templinst)_ZNK3pcl6KdTreeINS_15PPFRGBSignatureEE14nearestKSearchEiiRSt6vectorIiSaIiEERS3_IfSaIfEE@Base 1.6
 (optional=templinst)_ZNK3pcl6KdTreeINS_15PointXYZINormalEE12radiusSearchERKNS_10PointCloudIS1_EEidRSt6vectorIiSaIiEERS7_IfSaIfEEj@Base 1.6
 (optional=templinst)_ZNK3pcl6KdTreeINS_15PointXYZINormalEE12radiusSearchEidRSt6vectorIiSaIiEERS3_IfSaIfEEj@Base 1.6
 (optional=templinst)_ZNK3pcl6KdTreeINS_15PointXYZINormalEE14nearestKSearchERKNS_10PointCloudIS1_EEiiRSt6vectorIiSaIiEERS7_IfSaIfEE@Base 1.6
 (optional=templinst)_ZNK3pcl6KdTreeINS_15PointXYZINormalEE14nearestKSearchEiiRSt6vectorIiSaIiEERS3_IfSaIfEE@Base 1.6
 (optional=templinst)_ZNK3pcl6KdTreeINS_15VFHSignature308EE12radiusSearchERKNS_10PointCloudIS1_EEidRSt6vectorIiSaIiEERS7_IfSaIfEEj@Base 1.6
 (optional=templinst)_ZNK3pcl6KdTreeINS_15VFHSignature308EE12radiusSearchEidRSt6vectorIiSaIiEERS3_IfSaIfEEj@Base 1.6
 (optional=templinst)_ZNK3pcl6KdTreeINS_15VFHSignature308EE14nearestKSearchERKNS_10PointCloudIS1_EEiiRSt6vectorIiSaIiEERS7_IfSaIfEE@Base 1.6
 (optional=templinst)_ZNK3pcl6KdTreeINS_15VFHSignature308EE14nearestKSearchEiiRSt6vectorIiSaIiEERS3_IfSaIfEE@Base 1.6
 (optional=templinst)_ZNK3pcl6KdTreeINS_16MomentInvariantsEE12radiusSearchERKNS_10PointCloudIS1_EEidRSt6vectorIiSaIiEERS7_IfSaIfEEj@Base 1.6
 (optional=templinst)_ZNK3pcl6KdTreeINS_16MomentInvariantsEE12radiusSearchEidRSt6vectorIiSaIiEERS3_IfSaIfEEj@Base 1.6
 (optional=templinst)_ZNK3pcl6KdTreeINS_16MomentInvariantsEE14nearestKSearchERKNS_10PointCloudIS1_EEiiRSt6vectorIiSaIiEERS7_IfSaIfEE@Base 1.6
 (optional=templinst)_ZNK3pcl6KdTreeINS_16MomentInvariantsEE14nearestKSearchEiiRSt6vectorIiSaIiEERS3_IfSaIfEE@Base 1.6
 (optional=templinst)_ZNK3pcl6KdTreeINS_17IntensityGradientEE12radiusSearchERKNS_10PointCloudIS1_EEidRSt6vectorIiSaIiEERS7_IfSaIfEEj@Base 1.6
 (optional=templinst)_ZNK3pcl6KdTreeINS_17IntensityGradientEE12radiusSearchEidRSt6vectorIiSaIiEERS3_IfSaIfEEj@Base 1.6
 (optional=templinst)_ZNK3pcl6KdTreeINS_17IntensityGradientEE14nearestKSearchERKNS_10PointCloudIS1_EEiiRSt6vectorIiSaIiEERS7_IfSaIfEE@Base 1.6
 (optional=templinst)_ZNK3pcl6KdTreeINS_17IntensityGradientEE14nearestKSearchEiiRSt6vectorIiSaIiEERS3_IfSaIfEE@Base 1.6
 (optional=templinst)_ZNK3pcl6KdTreeINS_17PointXYZRGBNormalEE12radiusSearchERKNS_10PointCloudIS1_EEidRSt6vectorIiSaIiEERS7_IfSaIfEEj@Base 1.6
 (optional=templinst)_ZNK3pcl6KdTreeINS_17PointXYZRGBNormalEE12radiusSearchEidRSt6vectorIiSaIiEERS3_IfSaIfEEj@Base 1.6
 (optional=templinst)_ZNK3pcl6KdTreeINS_17PointXYZRGBNormalEE14nearestKSearchERKNS_10PointCloudIS1_EEiiRSt6vectorIiSaIiEERS7_IfSaIfEE@Base 1.6
 (optional=templinst)_ZNK3pcl6KdTreeINS_17PointXYZRGBNormalEE14nearestKSearchEiiRSt6vectorIiSaIiEERS3_IfSaIfEE@Base 1.6
 (optional=templinst)_ZNK3pcl6KdTreeINS_17PrincipalRadiiRSDEE12radiusSearchERKNS_10PointCloudIS1_EEidRSt6vectorIiSaIiEERS7_IfSaIfEEj@Base 1.6
 (optional=templinst)_ZNK3pcl6KdTreeINS_17PrincipalRadiiRSDEE12radiusSearchEidRSt6vectorIiSaIiEERS3_IfSaIfEEj@Base 1.6
 (optional=templinst)_ZNK3pcl6KdTreeINS_17PrincipalRadiiRSDEE14nearestKSearchERKNS_10PointCloudIS1_EEiiRSt6vectorIiSaIiEERS7_IfSaIfEE@Base 1.6
 (optional=templinst)_ZNK3pcl6KdTreeINS_17PrincipalRadiiRSDEE14nearestKSearchEiiRSt6vectorIiSaIiEERS3_IfSaIfEE@Base 1.6
 (optional=templinst)_ZNK3pcl6KdTreeINS_18PFHRGBSignature250EE12radiusSearchERKNS_10PointCloudIS1_EEidRSt6vectorIiSaIiEERS7_IfSaIfEEj@Base 1.6
 (optional=templinst)_ZNK3pcl6KdTreeINS_18PFHRGBSignature250EE12radiusSearchEidRSt6vectorIiSaIiEERS3_IfSaIfEEj@Base 1.6
 (optional=templinst)_ZNK3pcl6KdTreeINS_18PFHRGBSignature250EE14nearestKSearchERKNS_10PointCloudIS1_EEiiRSt6vectorIiSaIiEERS7_IfSaIfEE@Base 1.6
 (optional=templinst)_ZNK3pcl6KdTreeINS_18PFHRGBSignature250EE14nearestKSearchEiiRSt6vectorIiSaIiEERS3_IfSaIfEE@Base 1.6
 (optional=templinst)_ZNK3pcl6KdTreeINS_18PointWithViewpointEE12radiusSearchERKNS_10PointCloudIS1_EEidRSt6vectorIiSaIiEERS7_IfSaIfEEj@Base 1.6
 (optional=templinst)_ZNK3pcl6KdTreeINS_18PointWithViewpointEE12radiusSearchEidRSt6vectorIiSaIiEERS3_IfSaIfEEj@Base 1.6
 (optional=templinst)_ZNK3pcl6KdTreeINS_18PointWithViewpointEE14nearestKSearchERKNS_10PointCloudIS1_EEiiRSt6vectorIiSaIiEERS7_IfSaIfEE@Base 1.6
 (optional=templinst)_ZNK3pcl6KdTreeINS_18PointWithViewpointEE14nearestKSearchEiiRSt6vectorIiSaIiEERS3_IfSaIfEE@Base 1.6
 (optional=templinst)_ZNK3pcl6KdTreeINS_19PrincipalCurvaturesEE12radiusSearchERKNS_10PointCloudIS1_EEidRSt6vectorIiSaIiEERS7_IfSaIfEEj@Base 1.6
 (optional=templinst)_ZNK3pcl6KdTreeINS_19PrincipalCurvaturesEE12radiusSearchEidRSt6vectorIiSaIiEERS3_IfSaIfEEj@Base 1.6
 (optional=templinst)_ZNK3pcl6KdTreeINS_19PrincipalCurvaturesEE14nearestKSearchERKNS_10PointCloudIS1_EEiiRSt6vectorIiSaIiEERS7_IfSaIfEE@Base 1.6
 (optional=templinst)_ZNK3pcl6KdTreeINS_19PrincipalCurvaturesEE14nearestKSearchEiiRSt6vectorIiSaIiEERS3_IfSaIfEE@Base 1.6
 (optional=templinst)_ZNK3pcl6KdTreeINS_22NormalBasedSignature12EE12radiusSearchERKNS_10PointCloudIS1_EEidRSt6vectorIiSaIiEERS7_IfSaIfEEj@Base 1.6
 (optional=templinst)_ZNK3pcl6KdTreeINS_22NormalBasedSignature12EE12radiusSearchEidRSt6vectorIiSaIiEERS3_IfSaIfEEj@Base 1.6
 (optional=templinst)_ZNK3pcl6KdTreeINS_22NormalBasedSignature12EE14nearestKSearchERKNS_10PointCloudIS1_EEiiRSt6vectorIiSaIiEERS7_IfSaIfEE@Base 1.6
 (optional=templinst)_ZNK3pcl6KdTreeINS_22NormalBasedSignature12EE14nearestKSearchEiiRSt6vectorIiSaIiEERS3_IfSaIfEE@Base 1.6
 (optional=templinst)_ZNK3pcl6KdTreeINS_4AxisEE12radiusSearchERKNS_10PointCloudIS1_EEidRSt6vectorIiSaIiEERS7_IfSaIfEEj@Base 1.6
 (optional=templinst)_ZNK3pcl6KdTreeINS_4AxisEE12radiusSearchEidRSt6vectorIiSaIiEERS3_IfSaIfEEj@Base 1.6
 (optional=templinst)_ZNK3pcl6KdTreeINS_4AxisEE14nearestKSearchERKNS_10PointCloudIS1_EEiiRSt6vectorIiSaIiEERS7_IfSaIfEE@Base 1.6
 (optional=templinst)_ZNK3pcl6KdTreeINS_4AxisEE14nearestKSearchEiiRSt6vectorIiSaIiEERS3_IfSaIfEE@Base 1.6
 (optional=templinst)_ZNK3pcl6KdTreeINS_5LabelEE12radiusSearchERKNS_10PointCloudIS1_EEidRSt6vectorIiSaIiEERS7_IfSaIfEEj@Base 1.6
 (optional=templinst)_ZNK3pcl6KdTreeINS_5LabelEE12radiusSearchEidRSt6vectorIiSaIiEERS3_IfSaIfEEj@Base 1.6
 (optional=templinst)_ZNK3pcl6KdTreeINS_5LabelEE14nearestKSearchERKNS_10PointCloudIS1_EEiiRSt6vectorIiSaIiEERS7_IfSaIfEE@Base 1.6
 (optional=templinst)_ZNK3pcl6KdTreeINS_5LabelEE14nearestKSearchEiiRSt6vectorIiSaIiEERS3_IfSaIfEE@Base 1.6
 (optional=templinst)_ZNK3pcl6KdTreeINS_6Narf36EE12radiusSearchERKNS_10PointCloudIS1_EEidRSt6vectorIiSaIiEERS7_IfSaIfEEj@Base 1.6
 (optional=templinst)_ZNK3pcl6KdTreeINS_6Narf36EE12radiusSearchEidRSt6vectorIiSaIiEERS3_IfSaIfEEj@Base 1.6
 (optional=templinst)_ZNK3pcl6KdTreeINS_6Narf36EE14nearestKSearchERKNS_10PointCloudIS1_EEiiRSt6vectorIiSaIiEERS7_IfSaIfEE@Base 1.6
 (optional=templinst)_ZNK3pcl6KdTreeINS_6Narf36EE14nearestKSearchEiiRSt6vectorIiSaIiEERS3_IfSaIfEE@Base 1.6
 (optional=templinst)_ZNK3pcl6KdTreeINS_6NormalEE12radiusSearchERKNS_10PointCloudIS1_EEidRSt6vectorIiSaIiEERS7_IfSaIfEEj@Base 1.6
 (optional=templinst)_ZNK3pcl6KdTreeINS_6NormalEE12radiusSearchEidRSt6vectorIiSaIiEERS3_IfSaIfEEj@Base 1.6
 (optional=templinst)_ZNK3pcl6KdTreeINS_6NormalEE14nearestKSearchERKNS_10PointCloudIS1_EEiiRSt6vectorIiSaIiEERS7_IfSaIfEE@Base 1.6
 (optional=templinst)_ZNK3pcl6KdTreeINS_6NormalEE14nearestKSearchEiiRSt6vectorIiSaIiEERS3_IfSaIfEE@Base 1.6
 (optional=templinst)_ZNK3pcl6KdTreeINS_7PointXYEE12radiusSearchERKNS_10PointCloudIS1_EEidRSt6vectorIiSaIiEERS7_IfSaIfEEj@Base 1.6
 (optional=templinst)_ZNK3pcl6KdTreeINS_7PointXYEE12radiusSearchEidRSt6vectorIiSaIiEERS3_IfSaIfEEj@Base 1.6
 (optional=templinst)_ZNK3pcl6KdTreeINS_7PointXYEE14nearestKSearchERKNS_10PointCloudIS1_EEiiRSt6vectorIiSaIiEERS7_IfSaIfEE@Base 1.6
 (optional=templinst)_ZNK3pcl6KdTreeINS_7PointXYEE14nearestKSearchEiiRSt6vectorIiSaIiEERS3_IfSaIfEE@Base 1.6
 (optional=templinst)_ZNK3pcl6KdTreeINS_8BoundaryEE12radiusSearchERKNS_10PointCloudIS1_EEidRSt6vectorIiSaIiEERS7_IfSaIfEEj@Base 1.6
 (optional=templinst)_ZNK3pcl6KdTreeINS_8BoundaryEE12radiusSearchEidRSt6vectorIiSaIiEERS3_IfSaIfEEj@Base 1.6
 (optional=templinst)_ZNK3pcl6KdTreeINS_8BoundaryEE14nearestKSearchERKNS_10PointCloudIS1_EEiiRSt6vectorIiSaIiEERS7_IfSaIfEE@Base 1.6
 (optional=templinst)_ZNK3pcl6KdTreeINS_8BoundaryEE14nearestKSearchEiiRSt6vectorIiSaIiEERS3_IfSaIfEE@Base 1.6
 (optional=templinst)_ZNK3pcl6KdTreeINS_8PointXYZEE12radiusSearchERKNS_10PointCloudIS1_EEidRSt6vectorIiSaIiEERS7_IfSaIfEEj@Base 1.6
 (optional=templinst)_ZNK3pcl6KdTreeINS_8PointXYZEE12radiusSearchEidRSt6vectorIiSaIiEERS3_IfSaIfEEj@Base 1.6
 (optional=templinst)_ZNK3pcl6KdTreeINS_8PointXYZEE14nearestKSearchERKNS_10PointCloudIS1_EEiiRSt6vectorIiSaIiEERS7_IfSaIfEE@Base 1.6
 (optional=templinst)_ZNK3pcl6KdTreeINS_8PointXYZEE14nearestKSearchEiiRSt6vectorIiSaIiEERS3_IfSaIfEE@Base 1.6
 (optional=templinst)_ZNK3pcl6KdTreeINS_9PointXYZIEE12radiusSearchERKNS_10PointCloudIS1_EEidRSt6vectorIiSaIiEERS7_IfSaIfEEj@Base 1.6
 (optional=templinst)_ZNK3pcl6KdTreeINS_9PointXYZIEE12radiusSearchEidRSt6vectorIiSaIiEERS3_IfSaIfEEj@Base 1.6
 (optional=templinst)_ZNK3pcl6KdTreeINS_9PointXYZIEE14nearestKSearchERKNS_10PointCloudIS1_EEiiRSt6vectorIiSaIiEERS7_IfSaIfEE@Base 1.6
 (optional=templinst)_ZNK3pcl6KdTreeINS_9PointXYZIEE14nearestKSearchEiiRSt6vectorIiSaIiEERS3_IfSaIfEE@Base 1.6
 (optional=templinst)_ZNK3pcl6KdTreeINS_9PointXYZLEE12radiusSearchERKNS_10PointCloudIS1_EEidRSt6vectorIiSaIiEERS7_IfSaIfEEj@Base 1.6
 (optional=templinst)_ZNK3pcl6KdTreeINS_9PointXYZLEE12radiusSearchEidRSt6vectorIiSaIiEERS3_IfSaIfEEj@Base 1.6
 (optional=templinst)_ZNK3pcl6KdTreeINS_9PointXYZLEE14nearestKSearchERKNS_10PointCloudIS1_EEiiRSt6vectorIiSaIiEERS7_IfSaIfEE@Base 1.6
 (optional=templinst)_ZNK3pcl6KdTreeINS_9PointXYZLEE14nearestKSearchEiiRSt6vectorIiSaIiEERS3_IfSaIfEE@Base 1.6
 (optional=templinst)_ZNK5flann11KDTreeIndexINS_9L2_SimpleIfEEE10usedMemoryEv@Base 1.6
 (optional=templinst)_ZNK5flann11KDTreeIndexINS_9L2_SimpleIfEEE13getParametersEv@Base 1.6
 (optional=templinst)_ZNK5flann11KDTreeIndexINS_9L2_SimpleIfEEE4sizeEv@Base 1.6
 (optional=templinst)_ZNK5flann11KDTreeIndexINS_9L2_SimpleIfEEE6veclenEv@Base 1.6
 (optional=templinst)_ZNK5flann11KDTreeIndexINS_9L2_SimpleIfEEE7getTypeEv@Base 1.6
 (optional=templinst)_ZNK5flann11KMeansIndexINS_9L2_SimpleIfEEE10usedMemoryEv@Base 1.6
 (optional=templinst)_ZNK5flann11KMeansIndexINS_9L2_SimpleIfEEE13getParametersEv@Base 1.6
 (optional=templinst)_ZNK5flann11KMeansIndexINS_9L2_SimpleIfEEE4sizeEv@Base 1.6
 (optional=templinst)_ZNK5flann11KMeansIndexINS_9L2_SimpleIfEEE6veclenEv@Base 1.6
 (optional=templinst)_ZNK5flann11KMeansIndexINS_9L2_SimpleIfEEE7getTypeEv@Base 1.6
 (optional=templinst)_ZNK5flann11LinearIndexINS_9L2_SimpleIfEEE10usedMemoryEv@Base 1.6
 (optional=templinst)_ZNK5flann11LinearIndexINS_9L2_SimpleIfEEE13getParametersEv@Base 1.6
 (optional=templinst)_ZNK5flann11LinearIndexINS_9L2_SimpleIfEEE4sizeEv@Base 1.6
 (optional=templinst)_ZNK5flann11LinearIndexINS_9L2_SimpleIfEEE6veclenEv@Base 1.6
 (optional=templinst)_ZNK5flann11LinearIndexINS_9L2_SimpleIfEEE7getTypeEv@Base 1.6
 (optional=templinst)_ZNK5flann12KNNResultSetIfE4fullEv@Base 1.6
 (optional=templinst)_ZNK5flann12KNNResultSetIfE9worstDistEv@Base 1.6
 (optional=templinst)_ZNK5flann13KNNResultSet2IfE4fullEv@Base 1.6
 (optional=templinst)_ZNK5flann13KNNResultSet2IfE9worstDistEv@Base 1.6
 (optional=templinst)_ZNK5flann14AutotunedIndexINS_9L2_SimpleIfEEE10usedMemoryEv@Base 1.6
 (optional=templinst)_ZNK5flann14AutotunedIndexINS_9L2_SimpleIfEEE13getParametersEv@Base 1.6
 (optional=templinst)_ZNK5flann14AutotunedIndexINS_9L2_SimpleIfEEE4sizeEv@Base 1.6
 (optional=templinst)_ZNK5flann14AutotunedIndexINS_9L2_SimpleIfEEE6veclenEv@Base 1.6
 (optional=templinst)_ZNK5flann14AutotunedIndexINS_9L2_SimpleIfEEE7getTypeEv@Base 1.6
 (optional=templinst)_ZNK5flann14CompositeIndexINS_9L2_SimpleIfEEE10usedMemoryEv@Base 1.6
 (optional=templinst)_ZNK5flann14CompositeIndexINS_9L2_SimpleIfEEE13getParametersEv@Base 1.6
 (optional=templinst)_ZNK5flann14CompositeIndexINS_9L2_SimpleIfEEE4sizeEv@Base 1.6
 (optional=templinst)_ZNK5flann14CompositeIndexINS_9L2_SimpleIfEEE6veclenEv@Base 1.6
 (optional=templinst)_ZNK5flann14CompositeIndexINS_9L2_SimpleIfEEE7getTypeEv@Base 1.6
 (optional=templinst)_ZNK5flann15RadiusResultSetIfE4fullEv@Base 1.6
 (optional=templinst)_ZNK5flann15RadiusResultSetIfE9worstDistEv@Base 1.6
 (optional=templinst)_ZNK5flann15UniqueResultSetIfE4fullEv@Base 1.6
 (optional=templinst)_ZNK5flann15UniqueResultSetIfE9worstDistEv@Base 1.6
 (optional=templinst)_ZNK5flann17KDTreeSingleIndexINS_9L2_SimpleIfEEE10usedMemoryEv@Base 1.6
 (optional=templinst)_ZNK5flann17KDTreeSingleIndexINS_9L2_SimpleIfEEE13getParametersEv@Base 1.6
 (optional=templinst)_ZNK5flann17KDTreeSingleIndexINS_9L2_SimpleIfEEE4sizeEv@Base 1.6
 (optional=templinst)_ZNK5flann17KDTreeSingleIndexINS_9L2_SimpleIfEEE6veclenEv@Base 1.6
 (optional=templinst)_ZNK5flann17KDTreeSingleIndexINS_9L2_SimpleIfEEE7getTypeEv@Base 1.6
 (optional=templinst)_ZNK5flann18KNNRadiusResultSetIfE4fullEv@Base 1.6
 (optional=templinst)_ZNK5flann18KNNRadiusResultSetIfE9worstDistEv@Base 1.6
 (optional=templinst)_ZNK5flann18KNNSimpleResultSetIfE4fullEv@Base 1.6
 (optional=templinst)_ZNK5flann18KNNSimpleResultSetIfE9worstDistEv@Base 1.6
 (optional=templinst)_ZNK5flann20CountRadiusResultSetIfE4fullEv@Base 1.6
 (optional=templinst)_ZNK5flann20CountRadiusResultSetIfE9worstDistEv@Base 1.6
 (optional=templinst)_ZNK5flann27HierarchicalClusteringIndexINS_9L2_SimpleIfEEE10usedMemoryEv@Base 1.6
 (optional=templinst)_ZNK5flann27HierarchicalClusteringIndexINS_9L2_SimpleIfEEE13getParametersEv@Base 1.6
 (optional=templinst)_ZNK5flann27HierarchicalClusteringIndexINS_9L2_SimpleIfEEE4sizeEv@Base 1.6
 (optional=templinst)_ZNK5flann27HierarchicalClusteringIndexINS_9L2_SimpleIfEEE6veclenEv@Base 1.6
 (optional=templinst)_ZNK5flann27HierarchicalClusteringIndexINS_9L2_SimpleIfEEE7getTypeEv@Base 1.6
 (optional=templinst)_ZNK5flann3any4castINS_17flann_algorithm_tEEERKT_v@Base 1.6
 (optional=templinst)_ZNK5flann3any4castINS_20flann_centers_init_tEEERKT_v@Base 1.6
 (optional=templinst)_ZNK5flann3any4castISsEERKT_v@Base 1.6
 (optional=templinst)_ZNK5flann3any4castIbEERKT_v@Base 1.6
 (optional=templinst)_ZNK5flann3any4castIfEERKT_v@Base 1.6
 (optional=templinst)_ZNK5flann3any4castIiEERKT_v@Base 1.6
 (optional=templinst)_ZNK5flann3any4castIjEERKT_v@Base 1.6
 (optional=templinst)_ZNK5flann8LshIndexINS_9L2_SimpleIfEEE10usedMemoryEv@Base 1.6
 (optional=templinst)_ZNK5flann8LshIndexINS_9L2_SimpleIfEEE13getParametersEv@Base 1.6
 (optional=templinst)_ZNK5flann8LshIndexINS_9L2_SimpleIfEEE4sizeEv@Base 1.6
 (optional=templinst)_ZNK5flann8LshIndexINS_9L2_SimpleIfEEE6veclenEv@Base 1.6
 (optional=templinst)_ZNK5flann8LshIndexINS_9L2_SimpleIfEEE7getTypeEv@Base 1.6
 (optional=templinst)_ZNKSt16reverse_iteratorISt23_Rb_tree_const_iteratorIN5flann15UniqueResultSetIfE9DistIndexEEEdeEv@Base 1.6
 (optional=templinst)_ZNKSt6vectorIN5flann12BranchStructIPNS0_11KDTreeIndexINS0_9L2_SimpleIfEEE4NodeEfEESaIS8_EE12_M_check_lenEmPKc@Base 1.6
 (optional=templinst)_ZNKSt6vectorIN5flann12BranchStructIPNS0_11KMeansIndexINS0_9L2_SimpleIfEEE10KMeansNodeEfEESaIS8_EE12_M_check_lenEmPKc@Base 1.6
 (optional=templinst)_ZNKSt6vectorIN5flann12BranchStructIPNS0_27HierarchicalClusteringIndexINS0_9L2_SimpleIfEEE4NodeEfEESaIS8_EE12_M_check_lenEmPKc@Base 1.6
 (optional=templinst)_ZNKSt6vectorIN5flann13DistanceIndexIfEESaIS2_EE12_M_check_lenEmPKc@Base 1.6
 (optional=templinst)_ZNKSt6vectorIN5flann14AutotunedIndexINS0_9L2_SimpleIfEEE8CostDataESaIS5_EE12_M_check_lenEmPKc@Base 1.6
 (optional=templinst)_ZNKSt6vectorIN5flann17KDTreeSingleIndexINS0_9L2_SimpleIfEEE8IntervalESaIS5_EE12_M_check_lenEmPKc@Base 1.6
 (optional=templinst)_ZNKSt6vectorIN5flann3lsh8LshTableIfEESaIS3_EE12_M_check_lenEmPKc@Base 1.6
 (optional=templinst)_ZNKSt6vectorIS_IfSaIfEESaIS1_EE12_M_check_lenEmPKc@Base 1.6
 (optional=templinst)_ZNKSt6vectorIS_IiSaIiEESaIS1_EE12_M_check_lenEmPKc@Base 1.6
 (optional=templinst)_ZNKSt6vectorIS_IjSaIjEESaIS1_EE12_M_check_lenEmPKc@Base 1.6
 (optional=templinst)_ZNKSt6vectorIfSaIfEE12_M_check_lenEmPKc@Base 1.6
 (optional=templinst)_ZNKSt6vectorIiSaIiEE12_M_check_lenEmPKc@Base 1.6
 (optional=templinst)_ZNKSt6vectorIjSaIjEE12_M_check_lenEmPKc@Base 1.6
 (optional=templinst)_ZNKSt6vectorImSaImEE12_M_check_lenEmPKc@Base 1.6
 (optional=templinst)_ZNKSt8_Rb_treeISsSt4pairIKSsN5flann3anyEESt10_Select1stIS4_ESt4lessISsESaIS4_EE4findERS1_@Base 1.6
 (optional=templinst)_ZNSt11__copy_moveILb0ELb0ESt26random_access_iterator_tagE8__copy_mIPKSt6vectorIjSaIjEEPS5_EET0_T_SA_S9_@Base 1.6
 (optional=templinst)_ZNSt11__copy_moveILb0ELb0ESt26random_access_iterator_tagE8__copy_mIPSt6vectorIjSaIjEES6_EET0_T_S8_S7_@Base 1.6
 (optional=templinst)_ZNSt11__copy_moveILb0ELb1ESt26random_access_iterator_tagE8__copy_mIN5flann17KDTreeSingleIndexINS3_9L2_SimpleIfEEE8IntervalEEEPT_PKS9_SC_SA_@Base 1.6
 (optional=templinst)_ZNSt11__copy_moveILb0ELb1ESt26random_access_iterator_tagE8__copy_mIfEEPT_PKS3_S6_S4_@Base 1.6
 (optional=templinst)_ZNSt11__copy_moveILb0ELb1ESt26random_access_iterator_tagE8__copy_mIiEEPT_PKS3_S6_S4_@Base 1.6
 (optional=templinst)_ZNSt11__copy_moveILb0ELb1ESt26random_access_iterator_tagE8__copy_mIjEEPT_PKS3_S6_S4_@Base 1.6
 (optional=templinst)_ZNSt11__copy_moveILb0ELb1ESt26random_access_iterator_tagE8__copy_mImEEPT_PKS3_S6_S4_@Base 1.6
 (optional=templinst)_ZNSt12_Destroy_auxILb0EE9__destroyIN9__gnu_cxx17__normal_iteratorIPSt6vectorIjSaIjEES4_IS6_SaIS6_EEEEEEvT_SB_@Base 1.6
 (optional=templinst)_ZNSt12_Destroy_auxILb0EE9__destroyIPN5flann14AutotunedIndexINS2_9L2_SimpleIfEEE8CostDataEEEvT_S9_@Base 1.6
 (optional=templinst)_ZNSt12_Destroy_auxILb0EE9__destroyIPN5flann3lsh8LshTableIfEEEEvT_S7_@Base 1.6
 (optional=templinst)_ZNSt12_Destroy_auxILb0EE9__destroyIPSt6vectorIfSaIfEEEEvT_S6_@Base 1.6
 (optional=templinst)_ZNSt12_Destroy_auxILb0EE9__destroyIPSt6vectorIiSaIiEEEEvT_S6_@Base 1.6
 (optional=templinst)_ZNSt12_Destroy_auxILb0EE9__destroyIPSt6vectorIjSaIjEEEEvT_S6_@Base 1.6
 (optional=templinst)_ZNSt12_Vector_baseISt6vectorIfSaIfEESaIS2_EED1Ev@Base 1.6
 (optional=templinst)_ZNSt12_Vector_baseISt6vectorIfSaIfEESaIS2_EED2Ev@Base 1.6
 (optional=templinst)_ZNSt12_Vector_baseISt6vectorIiSaIiEESaIS2_EED1Ev@Base 1.6
 (optional=templinst)_ZNSt12_Vector_baseISt6vectorIiSaIiEESaIS2_EED2Ev@Base 1.6
 (optional=templinst)_ZNSt12_Vector_baseISt6vectorIjSaIjEESaIS2_EED1Ev@Base 1.6
 (optional=templinst)_ZNSt12_Vector_baseISt6vectorIjSaIjEESaIS2_EED2Ev@Base 1.6
 (optional=templinst)_ZNSt12_Vector_baseIiSaIiEED1Ev@Base 1.6
 (optional=templinst)_ZNSt12_Vector_baseIiSaIiEED2Ev@Base 1.6
 (optional=templinst)_ZNSt13_Bvector_baseISaIbEED1Ev@Base 1.6
 (optional=templinst)_ZNSt13_Bvector_baseISaIbEED2Ev@Base 1.6
 (optional=templinst)_ZNSt20__copy_move_backwardILb0ELb0ESt26random_access_iterator_tagE13__copy_move_bIPN5flann3lsh8LshTableIfEES7_EET0_T_S9_S8_@Base 1.6
 (optional=templinst)_ZNSt20__copy_move_backwardILb0ELb0ESt26random_access_iterator_tagE13__copy_move_bIPSt6vectorIfSaIfEES6_EET0_T_S8_S7_@Base 1.6
 (optional=templinst)_ZNSt20__copy_move_backwardILb0ELb0ESt26random_access_iterator_tagE13__copy_move_bIPSt6vectorIiSaIiEES6_EET0_T_S8_S7_@Base 1.6
 (optional=templinst)_ZNSt20__copy_move_backwardILb0ELb0ESt26random_access_iterator_tagE13__copy_move_bIPSt6vectorIjSaIjEES6_EET0_T_S8_S7_@Base 1.6
 (optional=templinst)_ZNSt20__uninitialized_copyILb0EE13__uninit_copyIN9__gnu_cxx17__normal_iteratorIPKSt6vectorIjSaIjEES4_IS6_SaIS6_EEEEPS6_EET0_T_SE_SD_@Base 1.6
 (optional=templinst)_ZNSt20__uninitialized_copyILb0EE13__uninit_copyIPN5flann14AutotunedIndexINS2_9L2_SimpleIfEEE8CostDataES8_EET0_T_SA_S9_@Base 1.6
 (optional=templinst)_ZNSt20__uninitialized_copyILb0EE13__uninit_copyIPN5flann3lsh8LshTableIfEES6_EET0_T_S8_S7_@Base 1.6
 (optional=templinst)_ZNSt20__uninitialized_copyILb0EE13__uninit_copyIPSt6vectorIfSaIfEES5_EET0_T_S7_S6_@Base 1.6
 (optional=templinst)_ZNSt20__uninitialized_copyILb0EE13__uninit_copyIPSt6vectorIiSaIiEES5_EET0_T_S7_S6_@Base 1.6
 (optional=templinst)_ZNSt20__uninitialized_copyILb0EE13__uninit_copyIPSt6vectorIjSaIjEES5_EET0_T_S7_S6_@Base 1.6
 (optional=templinst)_ZNSt22__uninitialized_fill_nILb0EE15__uninit_fill_nIPN5flann3lsh8LshTableIfEEmS5_EEvT_T0_RKT1_@Base 1.6
 (optional=templinst)_ZNSt22__uninitialized_fill_nILb0EE15__uninit_fill_nIPSt6vectorIfSaIfEEmS4_EEvT_T0_RKT1_@Base 1.6
 (optional=templinst)_ZNSt22__uninitialized_fill_nILb0EE15__uninit_fill_nIPSt6vectorIiSaIiEEmS4_EEvT_T0_RKT1_@Base 1.6
 (optional=templinst)_ZNSt22__uninitialized_fill_nILb0EE15__uninit_fill_nIPSt6vectorIjSaIjEEmS4_EEvT_T0_RKT1_@Base 1.6
 (optional=templinst)_ZNSt3mapISsN5flann3anyESt4lessISsESaISt4pairIKSsS1_EEED1Ev@Base 1.6
 (optional=templinst)_ZNSt3mapISsN5flann3anyESt4lessISsESaISt4pairIKSsS1_EEED2Ev@Base 1.6
 (optional=templinst)_ZNSt3mapISsN5flann3anyESt4lessISsESaISt4pairIKSsS1_EEEixERS5_@Base 1.6
 (optional=templinst)_ZNSt3mapIjSt6vectorIjSaIjEESt4lessIjESaISt4pairIKjS2_EEED1Ev@Base 1.6
 (optional=templinst)_ZNSt3mapIjSt6vectorIjSaIjEESt4lessIjESaISt4pairIKjS2_EEED2Ev@Base 1.6
 (optional=templinst)_ZNSt3setIN5flann15UniqueResultSetIfE9DistIndexESt4lessIS3_ESaIS3_EE5eraseERKS3_@Base 1.6
 (optional=templinst)_ZNSt4pairIKSsN5flann3anyEEC1ERKS3_@Base 1.6
 (optional=templinst)_ZNSt4pairIKSsN5flann3anyEEC1ERS0_RKS2_@Base 1.6
 (optional=templinst)_ZNSt4pairIKSsN5flann3anyEEC2ERKS3_@Base 1.6
 (optional=templinst)_ZNSt4pairIKSsN5flann3anyEEC2ERS0_RKS2_@Base 1.6
 (optional=templinst)_ZNSt4pairIKSsN5flann3anyEED1Ev@Base 1.6
 (optional=templinst)_ZNSt4pairIKSsN5flann3anyEED2Ev@Base 1.6
 (optional=templinst)_ZNSt6vectorIN5flann12BranchStructIPNS0_11KDTreeIndexINS0_9L2_SimpleIfEEE4NodeEfEESaIS8_EE13_M_insert_auxEN9__gnu_cxx17__normal_iteratorIPS8_SA_EERKS8_@Base 1.6
 (optional=templinst)_ZNSt6vectorIN5flann12BranchStructIPNS0_11KDTreeIndexINS0_9L2_SimpleIfEEE4NodeEfEESaIS8_EE7reserveEm@Base 1.6
 (optional=templinst)_ZNSt6vectorIN5flann12BranchStructIPNS0_11KDTreeIndexINS0_9L2_SimpleIfEEE4NodeEfEESaIS8_EED1Ev@Base 1.6
 (optional=templinst)_ZNSt6vectorIN5flann12BranchStructIPNS0_11KDTreeIndexINS0_9L2_SimpleIfEEE4NodeEfEESaIS8_EED2Ev@Base 1.6
 (optional=templinst)_ZNSt6vectorIN5flann12BranchStructIPNS0_11KMeansIndexINS0_9L2_SimpleIfEEE10KMeansNodeEfEESaIS8_EE13_M_insert_auxEN9__gnu_cxx17__normal_iteratorIPS8_SA_EERKS8_@Base 1.6
 (optional=templinst)_ZNSt6vectorIN5flann12BranchStructIPNS0_11KMeansIndexINS0_9L2_SimpleIfEEE10KMeansNodeEfEESaIS8_EE7reserveEm@Base 1.6
 (optional=templinst)_ZNSt6vectorIN5flann12BranchStructIPNS0_11KMeansIndexINS0_9L2_SimpleIfEEE10KMeansNodeEfEESaIS8_EED1Ev@Base 1.6
 (optional=templinst)_ZNSt6vectorIN5flann12BranchStructIPNS0_11KMeansIndexINS0_9L2_SimpleIfEEE10KMeansNodeEfEESaIS8_EED2Ev@Base 1.6
 (optional=templinst)_ZNSt6vectorIN5flann12BranchStructIPNS0_27HierarchicalClusteringIndexINS0_9L2_SimpleIfEEE4NodeEfEESaIS8_EE13_M_insert_auxEN9__gnu_cxx17__normal_iteratorIPS8_SA_EERKS8_@Base 1.6
 (optional=templinst)_ZNSt6vectorIN5flann12BranchStructIPNS0_27HierarchicalClusteringIndexINS0_9L2_SimpleIfEEE4NodeEfEESaIS8_EE7reserveEm@Base 1.6
 (optional=templinst)_ZNSt6vectorIN5flann12BranchStructIPNS0_27HierarchicalClusteringIndexINS0_9L2_SimpleIfEEE4NodeEfEESaIS8_EED1Ev@Base 1.6
 (optional=templinst)_ZNSt6vectorIN5flann12BranchStructIPNS0_27HierarchicalClusteringIndexINS0_9L2_SimpleIfEEE4NodeEfEESaIS8_EED2Ev@Base 1.6
 (optional=templinst)_ZNSt6vectorIN5flann13DistanceIndexIfEESaIS2_EE13_M_insert_auxEN9__gnu_cxx17__normal_iteratorIPS2_S4_EERKS2_@Base 1.6
 (optional=templinst)_ZNSt6vectorIN5flann13DistanceIndexIfEESaIS2_EE14_M_fill_insertEN9__gnu_cxx17__normal_iteratorIPS2_S4_EEmRKS2_@Base 1.6
 (optional=templinst)_ZNSt6vectorIN5flann13DistanceIndexIfEESaIS2_EE7reserveEm@Base 1.6
 (optional=templinst)_ZNSt6vectorIN5flann13DistanceIndexIfEESaIS2_EE9push_backERKS2_@Base 1.6
 (optional=templinst)_ZNSt6vectorIN5flann13DistanceIndexIfEESaIS2_EED1Ev@Base 1.6
 (optional=templinst)_ZNSt6vectorIN5flann13DistanceIndexIfEESaIS2_EED2Ev@Base 1.6
 (optional=templinst)_ZNSt6vectorIN5flann14AutotunedIndexINS0_9L2_SimpleIfEEE8CostDataESaIS5_EE13_M_insert_auxEN9__gnu_cxx17__normal_iteratorIPS5_S7_EERKS5_@Base 1.6
 (optional=templinst)_ZNSt6vectorIN5flann14AutotunedIndexINS0_9L2_SimpleIfEEE8CostDataESaIS5_EE7reserveEm@Base 1.6
 (optional=templinst)_ZNSt6vectorIN5flann14AutotunedIndexINS0_9L2_SimpleIfEEE8CostDataESaIS5_EE9push_backERKS5_@Base 1.6
 (optional=templinst)_ZNSt6vectorIN5flann14AutotunedIndexINS0_9L2_SimpleIfEEE8CostDataESaIS5_EED1Ev@Base 1.6
 (optional=templinst)_ZNSt6vectorIN5flann14AutotunedIndexINS0_9L2_SimpleIfEEE8CostDataESaIS5_EED2Ev@Base 1.6
 (optional=templinst)_ZNSt6vectorIN5flann17KDTreeSingleIndexINS0_9L2_SimpleIfEEE8IntervalESaIS5_EE14_M_fill_insertEN9__gnu_cxx17__normal_iteratorIPS5_S7_EEmRKS5_@Base 1.6
 (optional=templinst)_ZNSt6vectorIN5flann17KDTreeSingleIndexINS0_9L2_SimpleIfEEE8IntervalESaIS5_EEC1ERKS7_@Base 1.6
 (optional=templinst)_ZNSt6vectorIN5flann17KDTreeSingleIndexINS0_9L2_SimpleIfEEE8IntervalESaIS5_EEC2ERKS7_@Base 1.6
 (optional=templinst)_ZNSt6vectorIN5flann17KDTreeSingleIndexINS0_9L2_SimpleIfEEE8IntervalESaIS5_EED1Ev@Base 1.6
 (optional=templinst)_ZNSt6vectorIN5flann17KDTreeSingleIndexINS0_9L2_SimpleIfEEE8IntervalESaIS5_EED2Ev@Base 1.6
 (optional=templinst)_ZNSt6vectorIN5flann3lsh8LshTableIfEESaIS3_EE14_M_fill_insertEN9__gnu_cxx17__normal_iteratorIPS3_S5_EEmRKS3_@Base 1.6
 (optional=templinst)_ZNSt6vectorIN5flann3lsh8LshTableIfEESaIS3_EED1Ev@Base 1.6
 (optional=templinst)_ZNSt6vectorIN5flann3lsh8LshTableIfEESaIS3_EED2Ev@Base 1.6
 (optional=templinst)_ZNSt6vectorIS_IfSaIfEESaIS1_EE14_M_fill_insertEN9__gnu_cxx17__normal_iteratorIPS1_S3_EEmRKS1_@Base 1.6
 (optional=templinst)_ZNSt6vectorIS_IfSaIfEESaIS1_EE6resizeEmS1_@Base 1.6
 (optional=templinst)_ZNSt6vectorIS_IfSaIfEESaIS1_EED1Ev@Base 1.6
 (optional=templinst)_ZNSt6vectorIS_IfSaIfEESaIS1_EED2Ev@Base 1.6
 (optional=templinst)_ZNSt6vectorIS_IiSaIiEESaIS1_EE14_M_fill_insertEN9__gnu_cxx17__normal_iteratorIPS1_S3_EEmRKS1_@Base 1.6
 (optional=templinst)_ZNSt6vectorIS_IiSaIiEESaIS1_EE6resizeEmS1_@Base 1.6
 (optional=templinst)_ZNSt6vectorIS_IiSaIiEESaIS1_EED1Ev@Base 1.6
 (optional=templinst)_ZNSt6vectorIS_IiSaIiEESaIS1_EED2Ev@Base 1.6
 (optional=templinst)_ZNSt6vectorIS_IjSaIjEESaIS1_EE14_M_fill_insertEN9__gnu_cxx17__normal_iteratorIPS1_S3_EEmRKS1_@Base 1.6
 (optional=templinst)_ZNSt6vectorIS_IjSaIjEESaIS1_EEC1ERKS3_@Base 1.6
 (optional=templinst)_ZNSt6vectorIS_IjSaIjEESaIS1_EEC2ERKS3_@Base 1.6
 (optional=templinst)_ZNSt6vectorIS_IjSaIjEESaIS1_EED1Ev@Base 1.6
 (optional=templinst)_ZNSt6vectorIS_IjSaIjEESaIS1_EED2Ev@Base 1.6
 (optional=templinst)_ZNSt6vectorIS_IjSaIjEESaIS1_EEaSERKS3_@Base 1.6
 (optional=templinst)_ZNSt6vectorIbSaIbEE13_M_initializeEm@Base 1.6
 (optional=templinst)_ZNSt6vectorIbSaIbEEC1EmRKbRKS0_@Base 1.6
 (optional=templinst)_ZNSt6vectorIbSaIbEEC2EmRKbRKS0_@Base 1.6
 (optional=templinst)_ZNSt6vectorIbSaIbEED1Ev@Base 1.6
 (optional=templinst)_ZNSt6vectorIbSaIbEED2Ev@Base 1.6
 (optional=templinst)_ZNSt6vectorIfSaIfEE14_M_fill_insertEN9__gnu_cxx17__normal_iteratorIPfS1_EEmRKf@Base 1.6
 (optional=templinst)_ZNSt6vectorIfSaIfEEC1ERKS1_@Base 1.6
 (optional=templinst)_ZNSt6vectorIfSaIfEEC1EmRKfRKS0_@Base 1.6
 (optional=templinst)_ZNSt6vectorIfSaIfEEC2ERKS1_@Base 1.6
 (optional=templinst)_ZNSt6vectorIfSaIfEEC2EmRKfRKS0_@Base 1.6
 (optional=templinst)_ZNSt6vectorIfSaIfEED1Ev@Base 1.6
 (optional=templinst)_ZNSt6vectorIfSaIfEED2Ev@Base 1.6
 (optional=templinst)_ZNSt6vectorIfSaIfEEaSERKS1_@Base 1.6
 (optional=templinst)_ZNSt6vectorIiSaIiEE13_M_insert_auxEN9__gnu_cxx17__normal_iteratorIPiS1_EERKi@Base 1.6
 (optional=templinst)_ZNSt6vectorIiSaIiEE14_M_fill_insertEN9__gnu_cxx17__normal_iteratorIPiS1_EEmRKi@Base 1.6
 (optional=templinst)_ZNSt6vectorIiSaIiEE7reserveEm@Base 1.6
 (optional=templinst)_ZNSt6vectorIiSaIiEEC1ERKS1_@Base 1.6
 (optional=templinst)_ZNSt6vectorIiSaIiEEC1EmRKiRKS0_@Base 1.6
 (optional=templinst)_ZNSt6vectorIiSaIiEEC2ERKS1_@Base 1.6
 (optional=templinst)_ZNSt6vectorIiSaIiEEC2EmRKiRKS0_@Base 1.6
 (optional=templinst)_ZNSt6vectorIiSaIiEED1Ev@Base 1.6
 (optional=templinst)_ZNSt6vectorIiSaIiEED2Ev@Base 1.6
 (optional=templinst)_ZNSt6vectorIiSaIiEEaSERKS1_@Base 1.6
 (optional=templinst)_ZNSt6vectorIjSaIjEE13_M_insert_auxEN9__gnu_cxx17__normal_iteratorIPjS1_EERKj@Base 1.6
 (optional=templinst)_ZNSt6vectorIjSaIjEEC1ERKS1_@Base 1.6
 (optional=templinst)_ZNSt6vectorIjSaIjEEC2ERKS1_@Base 1.6
 (optional=templinst)_ZNSt6vectorIjSaIjEED1Ev@Base 1.6
 (optional=templinst)_ZNSt6vectorIjSaIjEED2Ev@Base 1.6
 (optional=templinst)_ZNSt6vectorIjSaIjEEaSERKS1_@Base 1.6
 (optional=templinst)_ZNSt6vectorImSaImEE14_M_fill_insertEN9__gnu_cxx17__normal_iteratorIPmS1_EEmRKm@Base 1.6
 (optional=templinst)_ZNSt6vectorImSaImEEC1ERKS1_@Base 1.6
 (optional=templinst)_ZNSt6vectorImSaImEEC2ERKS1_@Base 1.6
 (optional=templinst)_ZNSt6vectorImSaImEED1Ev@Base 1.6
 (optional=templinst)_ZNSt6vectorImSaImEED2Ev@Base 1.6
 (optional=templinst)_ZNSt6vectorImSaImEEaSERKS1_@Base 1.6
 (optional=templinst)_ZNSt8_Rb_treeIN5flann15UniqueResultSetIfE9DistIndexES3_St9_IdentityIS3_ESt4lessIS3_ESaIS3_EE10_M_insert_EPKSt18_Rb_tree_node_baseSC_RKS3_@Base 1.6
 (optional=templinst)_ZNSt8_Rb_treeIN5flann15UniqueResultSetIfE9DistIndexES3_St9_IdentityIS3_ESt4lessIS3_ESaIS3_EE11equal_rangeERKS3_@Base 1.6
 (optional=templinst)_ZNSt8_Rb_treeIN5flann15UniqueResultSetIfE9DistIndexES3_St9_IdentityIS3_ESt4lessIS3_ESaIS3_EE12_M_erase_auxESt23_Rb_tree_const_iteratorIS3_ESB_@Base 1.6
 (optional=templinst)_ZNSt8_Rb_treeIN5flann15UniqueResultSetIfE9DistIndexES3_St9_IdentityIS3_ESt4lessIS3_ESaIS3_EE16_M_insert_uniqueERKS3_@Base 1.6
 (optional=templinst)_ZNSt8_Rb_treeIN5flann15UniqueResultSetIfE9DistIndexES3_St9_IdentityIS3_ESt4lessIS3_ESaIS3_EE5clearEv@Base 1.6
 (optional=templinst)_ZNSt8_Rb_treeIN5flann15UniqueResultSetIfE9DistIndexES3_St9_IdentityIS3_ESt4lessIS3_ESaIS3_EE8_M_eraseEPSt13_Rb_tree_nodeIS3_E@Base 1.6
 (optional=templinst)_ZNSt8_Rb_treeISsSt4pairIKSsN5flann3anyEESt10_Select1stIS4_ESt4lessISsESaIS4_EE10_M_insert_EPKSt18_Rb_tree_node_baseSD_RKS4_@Base 1.6
 (optional=templinst)_ZNSt8_Rb_treeISsSt4pairIKSsN5flann3anyEESt10_Select1stIS4_ESt4lessISsESaIS4_EE16_M_insert_uniqueERKS4_@Base 1.6
 (optional=templinst)_ZNSt8_Rb_treeISsSt4pairIKSsN5flann3anyEESt10_Select1stIS4_ESt4lessISsESaIS4_EE17_M_insert_unique_ESt23_Rb_tree_const_iteratorIS4_ERKS4_@Base 1.6
 (optional=templinst)_ZNSt8_Rb_treeISsSt4pairIKSsN5flann3anyEESt10_Select1stIS4_ESt4lessISsESaIS4_EE7_M_copyEPKSt13_Rb_tree_nodeIS4_EPSC_@Base 1.6
 (optional=templinst)_ZNSt8_Rb_treeISsSt4pairIKSsN5flann3anyEESt10_Select1stIS4_ESt4lessISsESaIS4_EE8_M_eraseEPSt13_Rb_tree_nodeIS4_E@Base 1.6
 (optional=templinst)_ZNSt8_Rb_treeISsSt4pairIKSsN5flann3anyEESt10_Select1stIS4_ESt4lessISsESaIS4_EEC1ERKSA_@Base 1.6
 (optional=templinst)_ZNSt8_Rb_treeISsSt4pairIKSsN5flann3anyEESt10_Select1stIS4_ESt4lessISsESaIS4_EEC2ERKSA_@Base 1.6
 (optional=templinst)_ZNSt8_Rb_treeISsSt4pairIKSsN5flann3anyEESt10_Select1stIS4_ESt4lessISsESaIS4_EEaSERKSA_@Base 1.6
 (optional=templinst)_ZNSt8_Rb_treeIjSt4pairIKjSt6vectorIjSaIjEEESt10_Select1stIS5_ESt4lessIjESaIS5_EE7_M_copyEPKSt13_Rb_tree_nodeIS5_EPSD_@Base 1.6
 (optional=templinst)_ZNSt8_Rb_treeIjSt4pairIKjSt6vectorIjSaIjEEESt10_Select1stIS5_ESt4lessIjESaIS5_EE8_M_eraseEPSt13_Rb_tree_nodeIS5_E@Base 1.6
 (optional=templinst)_ZNSt8_Rb_treeIjSt4pairIKjSt6vectorIjSaIjEEESt10_Select1stIS5_ESt4lessIjESaIS5_EEC1ERKSB_@Base 1.6
 (optional=templinst)_ZNSt8_Rb_treeIjSt4pairIKjSt6vectorIjSaIjEEESt10_Select1stIS5_ESt4lessIjESaIS5_EEC2ERKSB_@Base 1.6
 (optional=templinst)_ZNSt8_Rb_treeIjSt4pairIKjSt6vectorIjSaIjEEESt10_Select1stIS5_ESt4lessIjESaIS5_EEaSERKSB_@Base 1.6
 (optional=templinst)_ZSt11__push_heapIN9__gnu_cxx17__normal_iteratorIPN5flann12BranchStructIPNS2_11KDTreeIndexINS2_9L2_SimpleIfEEE4NodeEfEESt6vectorISA_SaISA_EEEElSA_NS2_4HeapISA_E8CompareTEEvT_T0_SK_T1_T2_@Base 1.6
 (optional=templinst)_ZSt11__push_heapIN9__gnu_cxx17__normal_iteratorIPN5flann12BranchStructIPNS2_11KMeansIndexINS2_9L2_SimpleIfEEE10KMeansNodeEfEESt6vectorISA_SaISA_EEEElSA_NS2_4HeapISA_E8CompareTEEvT_T0_SK_T1_T2_@Base 1.6
 (optional=templinst)_ZSt11__push_heapIN9__gnu_cxx17__normal_iteratorIPN5flann12BranchStructIPNS2_27HierarchicalClusteringIndexINS2_9L2_SimpleIfEEE4NodeEfEESt6vectorISA_SaISA_EEEElSA_NS2_4HeapISA_E8CompareTEEvT_T0_SK_T1_T2_@Base 1.6
 (optional=templinst)_ZSt11__push_heapIN9__gnu_cxx17__normal_iteratorIPN5flann13DistanceIndexIfEESt6vectorIS4_SaIS4_EEEElS4_EvT_T0_SB_T1_@Base 1.6
 (optional=templinst)_ZSt13__adjust_heapIN9__gnu_cxx17__normal_iteratorIPN5flann13DistanceIndexIfEESt6vectorIS4_SaIS4_EEEElS4_EvT_T0_SB_T1_@Base 1.6
 (optional=templinst)_ZSt13__adjust_heapIPiliEvT_T0_S2_T1_@Base 1.6
 (optional=templinst)_ZSt13__heap_selectIN9__gnu_cxx17__normal_iteratorIPN5flann13DistanceIndexIfEESt6vectorIS4_SaIS4_EEEEEvT_SA_SA_@Base 1.6
 (optional=templinst)_ZSt13__heap_selectIPiEvT_S1_S1_@Base 1.6
 (optional=templinst)_ZSt13__introselectIN9__gnu_cxx17__normal_iteratorIPN5flann13DistanceIndexIfEESt6vectorIS4_SaIS4_EEEElEvT_SA_SA_T0_@Base 1.6
 (optional=templinst)_ZSt13copy_backwardIPN5flann17KDTreeSingleIndexINS0_9L2_SimpleIfEEE8IntervalES6_ET0_T_S8_S7_@Base 1.6
 (optional=templinst)_ZSt13copy_backwardIPfS0_ET0_T_S2_S1_@Base 1.6
 (optional=templinst)_ZSt13copy_backwardIPiS0_ET0_T_S2_S1_@Base 1.6
 (optional=templinst)_ZSt13copy_backwardIPmS0_ET0_T_S2_S1_@Base 1.6
 (optional=templinst)_ZSt16__insertion_sortIN9__gnu_cxx17__normal_iteratorIPN5flann13DistanceIndexIfEESt6vectorIS4_SaIS4_EEEEEvT_SA_@Base 1.6
 (optional=templinst)_ZSt16__insertion_sortIPiEvT_S1_@Base 1.6
 (optional=templinst)_ZSt16__introsort_loopIN9__gnu_cxx17__normal_iteratorIPN5flann13DistanceIndexIfEESt6vectorIS4_SaIS4_EEEElEvT_SA_T0_@Base 1.6
 (optional=templinst)_ZSt16__introsort_loopIPilEvT_S1_T0_@Base 1.6
 (optional=templinst)_ZSt19__move_median_firstIN9__gnu_cxx17__normal_iteratorIPN5flann13DistanceIndexIfEESt6vectorIS4_SaIS4_EEEEEvT_SA_SA_@Base 1.6
 (optional=templinst)_ZSt21__unguarded_partitionIN9__gnu_cxx17__normal_iteratorIPN5flann13DistanceIndexIfEESt6vectorIS4_SaIS4_EEEES4_ET_SA_SA_RKT0_@Base 1.6
 (optional=templinst)_ZSt22__final_insertion_sortIN9__gnu_cxx17__normal_iteratorIPN5flann13DistanceIndexIfEESt6vectorIS4_SaIS4_EEEEEvT_SA_@Base 1.6
 (optional=templinst)_ZSt22__final_insertion_sortIPiEvT_S1_@Base 1.6
 (optional=templinst)_ZSt25__unguarded_linear_insertIN9__gnu_cxx17__normal_iteratorIPN5flann13DistanceIndexIfEESt6vectorIS4_SaIS4_EEEEEvT_@Base 1.6
 (optional=templinst)_ZSt26__unguarded_insertion_sortIN9__gnu_cxx17__normal_iteratorIPN5flann13DistanceIndexIfEESt6vectorIS4_SaIS4_EEEEEvT_SA_@Base 1.6
 (optional=templinst)_ZSt4copyIN9__gnu_cxx17__normal_iteratorIPKfSt6vectorIfSaIfEEEENS1_IPfS6_EEET0_T_SB_SA_@Base 1.6
 (optional=templinst)_ZSt4copyIN9__gnu_cxx17__normal_iteratorIPKiSt6vectorIiSaIiEEEENS1_IPiS6_EEET0_T_SB_SA_@Base 1.6
 (optional=templinst)_ZSt4copyIN9__gnu_cxx17__normal_iteratorIPKjSt6vectorIjSaIjEEEENS1_IPjS6_EEET0_T_SB_SA_@Base 1.6
 (optional=templinst)_ZSt4copyIN9__gnu_cxx17__normal_iteratorIPKmSt6vectorImSaImEEEENS1_IPmS6_EEET0_T_SB_SA_@Base 1.6
 (optional=templinst)_ZSt4sortIPiEvT_S1_@Base 1.6
 _ZSt8__fill_aIPN5flann3lsh8LshTableIfEES3_EN9__gnu_cxx11__enable_ifIXntsrSt11__is_scalarIT0_E7__valueEvE6__typeET_SC_RKS8_@Base 1.6
 _ZSt8__fill_aIPSt6vectorIfSaIfEES2_EN9__gnu_cxx11__enable_ifIXntsrSt11__is_scalarIT0_E7__valueEvE6__typeET_SB_RKS7_@Base 1.6
 _ZSt8__fill_aIPSt6vectorIiSaIiEES2_EN9__gnu_cxx11__enable_ifIXntsrSt11__is_scalarIT0_E7__valueEvE6__typeET_SB_RKS7_@Base 1.6
 _ZSt8__fill_aIPSt6vectorIjSaIjEES2_EN9__gnu_cxx11__enable_ifIXntsrSt11__is_scalarIT0_E7__valueEvE6__typeET_SB_RKS7_@Base 1.6
 (optional=templinst)_ZSt8pop_heapIN9__gnu_cxx17__normal_iteratorIPN5flann13DistanceIndexIfEESt6vectorIS4_SaIS4_EEEEEvT_SA_@Base 1.6
 (optional=templinst)_ZSt9make_heapIN9__gnu_cxx17__normal_iteratorIPN5flann13DistanceIndexIfEESt6vectorIS4_SaIS4_EEEEEvT_SA_@Base 1.6
 (optional=templinst)_ZSt9make_heapIPiEvT_S1_@Base 1.6
 (optional=templinst)_ZSt9push_heapIN9__gnu_cxx17__normal_iteratorIPN5flann12BranchStructIPNS2_11KDTreeIndexINS2_9L2_SimpleIfEEE4NodeEfEESt6vectorISA_SaISA_EEEENS2_4HeapISA_E8CompareTEEvT_SJ_T0_@Base 1.6
 (optional=templinst)_ZSt9push_heapIN9__gnu_cxx17__normal_iteratorIPN5flann13DistanceIndexIfEESt6vectorIS4_SaIS4_EEEEEvT_SA_@Base 1.6
 (optional=templinst)_ZSt9sort_heapIN9__gnu_cxx17__normal_iteratorIPN5flann13DistanceIndexIfEESt6vectorIS4_SaIS4_EEEEEvT_SA_@Base 1.6
 (optional=templinst)_ZSt9sort_heapIPiEvT_S1_@Base 1.6
 (optional=templinst)_ZStplIcSt11char_traitsIcESaIcEESbIT_T0_T1_ERKS6_S8_@Base 1.6
 _ZTIN3pcl11KdTreeFLANNINS_11PointNormalEN5flann9L2_SimpleIfEEEE@Base 1.6
 _ZTIN3pcl11KdTreeFLANNINS_11PointXYZHSVEN5flann9L2_SimpleIfEEEE@Base 1.6
 _ZTIN3pcl11KdTreeFLANNINS_11PointXYZRGBEN5flann9L2_SimpleIfEEEE@Base 1.6
 _ZTIN3pcl11KdTreeFLANNINS_12PPFSignatureEN5flann9L2_SimpleIfEEEE@Base 1.6
 _ZTIN3pcl11KdTreeFLANNINS_12PointXYZRGBAEN5flann9L2_SimpleIfEEEE@Base 1.6
 _ZTIN3pcl11KdTreeFLANNINS_12PointXYZRGBLEN5flann9L2_SimpleIfEEEE@Base 1.6
 _ZTIN3pcl11KdTreeFLANNINS_13InterestPointEN5flann9L2_SimpleIfEEEE@Base 1.6
 _ZTIN3pcl11KdTreeFLANNINS_14PointWithRangeEN5flann9L2_SimpleIfEEEE@Base 1.6
 _ZTIN3pcl11KdTreeFLANNINS_14PointWithScaleEN5flann9L2_SimpleIfEEEE@Base 1.6
 _ZTIN3pcl11KdTreeFLANNINS_14ReferenceFrameEN5flann9L2_SimpleIfEEEE@Base 1.6
 _ZTIN3pcl11KdTreeFLANNINS_15ESFSignature640EN5flann9L2_SimpleIfEEEE@Base 1.6
 _ZTIN3pcl11KdTreeFLANNINS_15FPFHSignature33EN5flann9L2_SimpleIfEEEE@Base 1.6
 _ZTIN3pcl11KdTreeFLANNINS_15PFHSignature125EN5flann9L2_SimpleIfEEEE@Base 1.6
 _ZTIN3pcl11KdTreeFLANNINS_15PPFRGBSignatureEN5flann9L2_SimpleIfEEEE@Base 1.6
 _ZTIN3pcl11KdTreeFLANNINS_15PointXYZINormalEN5flann9L2_SimpleIfEEEE@Base 1.6
 _ZTIN3pcl11KdTreeFLANNINS_15VFHSignature308EN5flann9L2_SimpleIfEEEE@Base 1.6
 _ZTIN3pcl11KdTreeFLANNINS_16MomentInvariantsEN5flann9L2_SimpleIfEEEE@Base 1.6
 _ZTIN3pcl11KdTreeFLANNINS_17IntensityGradientEN5flann9L2_SimpleIfEEEE@Base 1.6
 _ZTIN3pcl11KdTreeFLANNINS_17PointXYZRGBNormalEN5flann9L2_SimpleIfEEEE@Base 1.6
 _ZTIN3pcl11KdTreeFLANNINS_17PrincipalRadiiRSDEN5flann9L2_SimpleIfEEEE@Base 1.6
 _ZTIN3pcl11KdTreeFLANNINS_18PFHRGBSignature250EN5flann9L2_SimpleIfEEEE@Base 1.6
 _ZTIN3pcl11KdTreeFLANNINS_18PointWithViewpointEN5flann9L2_SimpleIfEEEE@Base 1.6
 _ZTIN3pcl11KdTreeFLANNINS_19PrincipalCurvaturesEN5flann9L2_SimpleIfEEEE@Base 1.6
 _ZTIN3pcl11KdTreeFLANNINS_22NormalBasedSignature12EN5flann9L2_SimpleIfEEEE@Base 1.6
 _ZTIN3pcl11KdTreeFLANNINS_4AxisEN5flann9L2_SimpleIfEEEE@Base 1.6
 _ZTIN3pcl11KdTreeFLANNINS_5LabelEN5flann9L2_SimpleIfEEEE@Base 1.6
 _ZTIN3pcl11KdTreeFLANNINS_6Narf36EN5flann9L2_SimpleIfEEEE@Base 1.6
 _ZTIN3pcl11KdTreeFLANNINS_6NormalEN5flann9L2_SimpleIfEEEE@Base 1.6
 _ZTIN3pcl11KdTreeFLANNINS_7PointXYEN5flann9L2_SimpleIfEEEE@Base 1.6
 _ZTIN3pcl11KdTreeFLANNINS_8BoundaryEN5flann9L2_SimpleIfEEEE@Base 1.6
 _ZTIN3pcl11KdTreeFLANNINS_8PointXYZEN5flann9L2_SimpleIfEEEE@Base 1.6
 _ZTIN3pcl11KdTreeFLANNINS_9PointXYZIEN5flann9L2_SimpleIfEEEE@Base 1.6
 _ZTIN3pcl11KdTreeFLANNINS_9PointXYZLEN5flann9L2_SimpleIfEEEE@Base 1.6
 _ZTIN3pcl19PointRepresentationINS_11PointNormalEEE@Base 1.6
 _ZTIN3pcl19PointRepresentationINS_11PointXYZHSVEEE@Base 1.6
 _ZTIN3pcl19PointRepresentationINS_11PointXYZRGBEEE@Base 1.6
 _ZTIN3pcl19PointRepresentationINS_12PPFSignatureEEE@Base 1.6
 _ZTIN3pcl19PointRepresentationINS_12PointXYZRGBAEEE@Base 1.6
 _ZTIN3pcl19PointRepresentationINS_12PointXYZRGBLEEE@Base 1.6
 _ZTIN3pcl19PointRepresentationINS_13InterestPointEEE@Base 1.6
 _ZTIN3pcl19PointRepresentationINS_14PointWithRangeEEE@Base 1.6
 _ZTIN3pcl19PointRepresentationINS_14PointWithScaleEEE@Base 1.6
 _ZTIN3pcl19PointRepresentationINS_14ReferenceFrameEEE@Base 1.6
 _ZTIN3pcl19PointRepresentationINS_15ESFSignature640EEE@Base 1.6
 _ZTIN3pcl19PointRepresentationINS_15FPFHSignature33EEE@Base 1.6
 _ZTIN3pcl19PointRepresentationINS_15PFHSignature125EEE@Base 1.6
 _ZTIN3pcl19PointRepresentationINS_15PPFRGBSignatureEEE@Base 1.6
 _ZTIN3pcl19PointRepresentationINS_15PointXYZINormalEEE@Base 1.6
 _ZTIN3pcl19PointRepresentationINS_15VFHSignature308EEE@Base 1.6
 _ZTIN3pcl19PointRepresentationINS_16MomentInvariantsEEE@Base 1.6
 _ZTIN3pcl19PointRepresentationINS_17IntensityGradientEEE@Base 1.6
 _ZTIN3pcl19PointRepresentationINS_17PointXYZRGBNormalEEE@Base 1.6
 _ZTIN3pcl19PointRepresentationINS_17PrincipalRadiiRSDEEE@Base 1.6
 _ZTIN3pcl19PointRepresentationINS_18PFHRGBSignature250EEE@Base 1.6
 _ZTIN3pcl19PointRepresentationINS_18PointWithViewpointEEE@Base 1.6
 _ZTIN3pcl19PointRepresentationINS_19PrincipalCurvaturesEEE@Base 1.6
 _ZTIN3pcl19PointRepresentationINS_22NormalBasedSignature12EEE@Base 1.6
 _ZTIN3pcl19PointRepresentationINS_4AxisEEE@Base 1.6
 _ZTIN3pcl19PointRepresentationINS_5LabelEEE@Base 1.6
 _ZTIN3pcl19PointRepresentationINS_6Narf36EEE@Base 1.6
 _ZTIN3pcl19PointRepresentationINS_6NormalEEE@Base 1.6
 _ZTIN3pcl19PointRepresentationINS_7PointXYEEE@Base 1.6
 _ZTIN3pcl19PointRepresentationINS_8BoundaryEEE@Base 1.6
 _ZTIN3pcl19PointRepresentationINS_8PointXYZEEE@Base 1.6
 _ZTIN3pcl19PointRepresentationINS_9PointXYZIEEE@Base 1.6
 _ZTIN3pcl19PointRepresentationINS_9PointXYZLEEE@Base 1.6
 _ZTIN3pcl26DefaultPointRepresentationINS_11PointNormalEEE@Base 1.6
 _ZTIN3pcl26DefaultPointRepresentationINS_11PointXYZHSVEEE@Base 1.6
 _ZTIN3pcl26DefaultPointRepresentationINS_11PointXYZRGBEEE@Base 1.6
 _ZTIN3pcl26DefaultPointRepresentationINS_12PPFSignatureEEE@Base 1.6
 _ZTIN3pcl26DefaultPointRepresentationINS_12PointXYZRGBAEEE@Base 1.6
 _ZTIN3pcl26DefaultPointRepresentationINS_12PointXYZRGBLEEE@Base 1.6
 _ZTIN3pcl26DefaultPointRepresentationINS_13InterestPointEEE@Base 1.6
 _ZTIN3pcl26DefaultPointRepresentationINS_14PointWithRangeEEE@Base 1.6
 _ZTIN3pcl26DefaultPointRepresentationINS_14PointWithScaleEEE@Base 1.6
 _ZTIN3pcl26DefaultPointRepresentationINS_14ReferenceFrameEEE@Base 1.6
 _ZTIN3pcl26DefaultPointRepresentationINS_15ESFSignature640EEE@Base 1.6
 _ZTIN3pcl26DefaultPointRepresentationINS_15FPFHSignature33EEE@Base 1.6
 _ZTIN3pcl26DefaultPointRepresentationINS_15PFHSignature125EEE@Base 1.6
 _ZTIN3pcl26DefaultPointRepresentationINS_15PPFRGBSignatureEEE@Base 1.6
 _ZTIN3pcl26DefaultPointRepresentationINS_15PointXYZINormalEEE@Base 1.6
 _ZTIN3pcl26DefaultPointRepresentationINS_15VFHSignature308EEE@Base 1.6
 _ZTIN3pcl26DefaultPointRepresentationINS_16MomentInvariantsEEE@Base 1.6
 _ZTIN3pcl26DefaultPointRepresentationINS_17IntensityGradientEEE@Base 1.6
 _ZTIN3pcl26DefaultPointRepresentationINS_17PointXYZRGBNormalEEE@Base 1.6
 _ZTIN3pcl26DefaultPointRepresentationINS_17PrincipalRadiiRSDEEE@Base 1.6
 _ZTIN3pcl26DefaultPointRepresentationINS_18PFHRGBSignature250EEE@Base 1.6
 _ZTIN3pcl26DefaultPointRepresentationINS_18PointWithViewpointEEE@Base 1.6
 _ZTIN3pcl26DefaultPointRepresentationINS_19PrincipalCurvaturesEEE@Base 1.6
 _ZTIN3pcl26DefaultPointRepresentationINS_22NormalBasedSignature12EEE@Base 1.6
 _ZTIN3pcl26DefaultPointRepresentationINS_4AxisEEE@Base 1.6
 _ZTIN3pcl26DefaultPointRepresentationINS_5LabelEEE@Base 1.6
 _ZTIN3pcl26DefaultPointRepresentationINS_6Narf36EEE@Base 1.6
 _ZTIN3pcl26DefaultPointRepresentationINS_6NormalEEE@Base 1.6
 _ZTIN3pcl26DefaultPointRepresentationINS_7PointXYEEE@Base 1.6
 _ZTIN3pcl26DefaultPointRepresentationINS_8BoundaryEEE@Base 1.6
 _ZTIN3pcl26DefaultPointRepresentationINS_8PointXYZEEE@Base 1.6
 _ZTIN3pcl26DefaultPointRepresentationINS_9PointXYZIEEE@Base 1.6
 _ZTIN3pcl26DefaultPointRepresentationINS_9PointXYZLEEE@Base 1.6
 _ZTIN3pcl28DefaultFeatureRepresentationINS_12PPFSignatureEEE@Base 1.6
 _ZTIN3pcl28DefaultFeatureRepresentationINS_15FPFHSignature33EEE@Base 1.6
 _ZTIN3pcl28DefaultFeatureRepresentationINS_15PFHSignature125EEE@Base 1.6
 _ZTIN3pcl28DefaultFeatureRepresentationINS_15VFHSignature308EEE@Base 1.6
 _ZTIN3pcl28DefaultFeatureRepresentationINS_18PFHRGBSignature250EEE@Base 1.6
 _ZTIN3pcl28DefaultFeatureRepresentationINS_22NormalBasedSignature12EEE@Base 1.6
 _ZTIN3pcl6KdTreeINS_11PointNormalEEE@Base 1.6
 _ZTIN3pcl6KdTreeINS_11PointXYZHSVEEE@Base 1.6
 _ZTIN3pcl6KdTreeINS_11PointXYZRGBEEE@Base 1.6
 _ZTIN3pcl6KdTreeINS_12PPFSignatureEEE@Base 1.6
 _ZTIN3pcl6KdTreeINS_12PointXYZRGBAEEE@Base 1.6
 _ZTIN3pcl6KdTreeINS_12PointXYZRGBLEEE@Base 1.6
 _ZTIN3pcl6KdTreeINS_13InterestPointEEE@Base 1.6
 _ZTIN3pcl6KdTreeINS_14PointWithRangeEEE@Base 1.6
 _ZTIN3pcl6KdTreeINS_14PointWithScaleEEE@Base 1.6
 _ZTIN3pcl6KdTreeINS_14ReferenceFrameEEE@Base 1.6
 _ZTIN3pcl6KdTreeINS_15ESFSignature640EEE@Base 1.6
 _ZTIN3pcl6KdTreeINS_15FPFHSignature33EEE@Base 1.6
 _ZTIN3pcl6KdTreeINS_15PFHSignature125EEE@Base 1.6
 _ZTIN3pcl6KdTreeINS_15PPFRGBSignatureEEE@Base 1.6
 _ZTIN3pcl6KdTreeINS_15PointXYZINormalEEE@Base 1.6
 _ZTIN3pcl6KdTreeINS_15VFHSignature308EEE@Base 1.6
 _ZTIN3pcl6KdTreeINS_16MomentInvariantsEEE@Base 1.6
 _ZTIN3pcl6KdTreeINS_17IntensityGradientEEE@Base 1.6
 _ZTIN3pcl6KdTreeINS_17PointXYZRGBNormalEEE@Base 1.6
 _ZTIN3pcl6KdTreeINS_17PrincipalRadiiRSDEEE@Base 1.6
 _ZTIN3pcl6KdTreeINS_18PFHRGBSignature250EEE@Base 1.6
 _ZTIN3pcl6KdTreeINS_18PointWithViewpointEEE@Base 1.6
 _ZTIN3pcl6KdTreeINS_19PrincipalCurvaturesEEE@Base 1.6
 _ZTIN3pcl6KdTreeINS_22NormalBasedSignature12EEE@Base 1.6
 _ZTIN3pcl6KdTreeINS_4AxisEEE@Base 1.6
 _ZTIN3pcl6KdTreeINS_5LabelEEE@Base 1.6
 _ZTIN3pcl6KdTreeINS_6Narf36EEE@Base 1.6
 _ZTIN3pcl6KdTreeINS_6NormalEEE@Base 1.6
 _ZTIN3pcl6KdTreeINS_7PointXYEEE@Base 1.6
 _ZTIN3pcl6KdTreeINS_8BoundaryEEE@Base 1.6
 _ZTIN3pcl6KdTreeINS_8PointXYZEEE@Base 1.6
 _ZTIN3pcl6KdTreeINS_9PointXYZIEEE@Base 1.6
 _ZTIN3pcl6KdTreeINS_9PointXYZLEEE@Base 1.6
 _ZTIN5boost6detail15sp_counted_baseE@Base 1.6
 _ZTIN5boost6detail17sp_counted_impl_pIN3pcl11KdTreeFLANNINS2_11PointNormalEN5flann9L2_SimpleIfEEEEEE@Base 1.6
 _ZTIN5boost6detail17sp_counted_impl_pIN3pcl11KdTreeFLANNINS2_11PointXYZHSVEN5flann9L2_SimpleIfEEEEEE@Base 1.6
 _ZTIN5boost6detail17sp_counted_impl_pIN3pcl11KdTreeFLANNINS2_11PointXYZRGBEN5flann9L2_SimpleIfEEEEEE@Base 1.6
 _ZTIN5boost6detail17sp_counted_impl_pIN3pcl11KdTreeFLANNINS2_12PPFSignatureEN5flann9L2_SimpleIfEEEEEE@Base 1.6
 _ZTIN5boost6detail17sp_counted_impl_pIN3pcl11KdTreeFLANNINS2_12PointXYZRGBAEN5flann9L2_SimpleIfEEEEEE@Base 1.6
 _ZTIN5boost6detail17sp_counted_impl_pIN3pcl11KdTreeFLANNINS2_12PointXYZRGBLEN5flann9L2_SimpleIfEEEEEE@Base 1.6
 _ZTIN5boost6detail17sp_counted_impl_pIN3pcl11KdTreeFLANNINS2_13InterestPointEN5flann9L2_SimpleIfEEEEEE@Base 1.6
 _ZTIN5boost6detail17sp_counted_impl_pIN3pcl11KdTreeFLANNINS2_14PointWithRangeEN5flann9L2_SimpleIfEEEEEE@Base 1.6
 _ZTIN5boost6detail17sp_counted_impl_pIN3pcl11KdTreeFLANNINS2_14PointWithScaleEN5flann9L2_SimpleIfEEEEEE@Base 1.6
 _ZTIN5boost6detail17sp_counted_impl_pIN3pcl11KdTreeFLANNINS2_14ReferenceFrameEN5flann9L2_SimpleIfEEEEEE@Base 1.6
 _ZTIN5boost6detail17sp_counted_impl_pIN3pcl11KdTreeFLANNINS2_15ESFSignature640EN5flann9L2_SimpleIfEEEEEE@Base 1.6
 _ZTIN5boost6detail17sp_counted_impl_pIN3pcl11KdTreeFLANNINS2_15FPFHSignature33EN5flann9L2_SimpleIfEEEEEE@Base 1.6
 _ZTIN5boost6detail17sp_counted_impl_pIN3pcl11KdTreeFLANNINS2_15PFHSignature125EN5flann9L2_SimpleIfEEEEEE@Base 1.6
 _ZTIN5boost6detail17sp_counted_impl_pIN3pcl11KdTreeFLANNINS2_15PPFRGBSignatureEN5flann9L2_SimpleIfEEEEEE@Base 1.6
 _ZTIN5boost6detail17sp_counted_impl_pIN3pcl11KdTreeFLANNINS2_15PointXYZINormalEN5flann9L2_SimpleIfEEEEEE@Base 1.6
 _ZTIN5boost6detail17sp_counted_impl_pIN3pcl11KdTreeFLANNINS2_15VFHSignature308EN5flann9L2_SimpleIfEEEEEE@Base 1.6
 _ZTIN5boost6detail17sp_counted_impl_pIN3pcl11KdTreeFLANNINS2_16MomentInvariantsEN5flann9L2_SimpleIfEEEEEE@Base 1.6
 _ZTIN5boost6detail17sp_counted_impl_pIN3pcl11KdTreeFLANNINS2_17IntensityGradientEN5flann9L2_SimpleIfEEEEEE@Base 1.6
 _ZTIN5boost6detail17sp_counted_impl_pIN3pcl11KdTreeFLANNINS2_17PointXYZRGBNormalEN5flann9L2_SimpleIfEEEEEE@Base 1.6
 _ZTIN5boost6detail17sp_counted_impl_pIN3pcl11KdTreeFLANNINS2_17PrincipalRadiiRSDEN5flann9L2_SimpleIfEEEEEE@Base 1.6
 _ZTIN5boost6detail17sp_counted_impl_pIN3pcl11KdTreeFLANNINS2_18PFHRGBSignature250EN5flann9L2_SimpleIfEEEEEE@Base 1.6
 _ZTIN5boost6detail17sp_counted_impl_pIN3pcl11KdTreeFLANNINS2_18PointWithViewpointEN5flann9L2_SimpleIfEEEEEE@Base 1.6
 _ZTIN5boost6detail17sp_counted_impl_pIN3pcl11KdTreeFLANNINS2_19PrincipalCurvaturesEN5flann9L2_SimpleIfEEEEEE@Base 1.6
 _ZTIN5boost6detail17sp_counted_impl_pIN3pcl11KdTreeFLANNINS2_22NormalBasedSignature12EN5flann9L2_SimpleIfEEEEEE@Base 1.6
 _ZTIN5boost6detail17sp_counted_impl_pIN3pcl11KdTreeFLANNINS2_4AxisEN5flann9L2_SimpleIfEEEEEE@Base 1.6
 _ZTIN5boost6detail17sp_counted_impl_pIN3pcl11KdTreeFLANNINS2_5LabelEN5flann9L2_SimpleIfEEEEEE@Base 1.6
 _ZTIN5boost6detail17sp_counted_impl_pIN3pcl11KdTreeFLANNINS2_6Narf36EN5flann9L2_SimpleIfEEEEEE@Base 1.6
 _ZTIN5boost6detail17sp_counted_impl_pIN3pcl11KdTreeFLANNINS2_6NormalEN5flann9L2_SimpleIfEEEEEE@Base 1.6
 _ZTIN5boost6detail17sp_counted_impl_pIN3pcl11KdTreeFLANNINS2_7PointXYEN5flann9L2_SimpleIfEEEEEE@Base 1.6
 _ZTIN5boost6detail17sp_counted_impl_pIN3pcl11KdTreeFLANNINS2_8BoundaryEN5flann9L2_SimpleIfEEEEEE@Base 1.6
 _ZTIN5boost6detail17sp_counted_impl_pIN3pcl11KdTreeFLANNINS2_8PointXYZEN5flann9L2_SimpleIfEEEEEE@Base 1.6
 _ZTIN5boost6detail17sp_counted_impl_pIN3pcl11KdTreeFLANNINS2_9PointXYZIEN5flann9L2_SimpleIfEEEEEE@Base 1.6
 _ZTIN5boost6detail17sp_counted_impl_pIN3pcl11KdTreeFLANNINS2_9PointXYZLEN5flann9L2_SimpleIfEEEEEE@Base 1.6
 _ZTIN5boost6detail17sp_counted_impl_pIN3pcl26DefaultPointRepresentationINS2_11PointNormalEEEEE@Base 1.6
 _ZTIN5boost6detail17sp_counted_impl_pIN3pcl26DefaultPointRepresentationINS2_11PointXYZHSVEEEEE@Base 1.6
 _ZTIN5boost6detail17sp_counted_impl_pIN3pcl26DefaultPointRepresentationINS2_11PointXYZRGBEEEEE@Base 1.6
 _ZTIN5boost6detail17sp_counted_impl_pIN3pcl26DefaultPointRepresentationINS2_12PPFSignatureEEEEE@Base 1.6
 _ZTIN5boost6detail17sp_counted_impl_pIN3pcl26DefaultPointRepresentationINS2_12PointXYZRGBAEEEEE@Base 1.6
 _ZTIN5boost6detail17sp_counted_impl_pIN3pcl26DefaultPointRepresentationINS2_12PointXYZRGBLEEEEE@Base 1.6
 _ZTIN5boost6detail17sp_counted_impl_pIN3pcl26DefaultPointRepresentationINS2_13InterestPointEEEEE@Base 1.6
 _ZTIN5boost6detail17sp_counted_impl_pIN3pcl26DefaultPointRepresentationINS2_14PointWithRangeEEEEE@Base 1.6
 _ZTIN5boost6detail17sp_counted_impl_pIN3pcl26DefaultPointRepresentationINS2_14PointWithScaleEEEEE@Base 1.6
 _ZTIN5boost6detail17sp_counted_impl_pIN3pcl26DefaultPointRepresentationINS2_14ReferenceFrameEEEEE@Base 1.6
 _ZTIN5boost6detail17sp_counted_impl_pIN3pcl26DefaultPointRepresentationINS2_15ESFSignature640EEEEE@Base 1.6
 _ZTIN5boost6detail17sp_counted_impl_pIN3pcl26DefaultPointRepresentationINS2_15FPFHSignature33EEEEE@Base 1.6
 _ZTIN5boost6detail17sp_counted_impl_pIN3pcl26DefaultPointRepresentationINS2_15PFHSignature125EEEEE@Base 1.6
 _ZTIN5boost6detail17sp_counted_impl_pIN3pcl26DefaultPointRepresentationINS2_15PPFRGBSignatureEEEEE@Base 1.6
 _ZTIN5boost6detail17sp_counted_impl_pIN3pcl26DefaultPointRepresentationINS2_15PointXYZINormalEEEEE@Base 1.6
 _ZTIN5boost6detail17sp_counted_impl_pIN3pcl26DefaultPointRepresentationINS2_15VFHSignature308EEEEE@Base 1.6
 _ZTIN5boost6detail17sp_counted_impl_pIN3pcl26DefaultPointRepresentationINS2_16MomentInvariantsEEEEE@Base 1.6
 _ZTIN5boost6detail17sp_counted_impl_pIN3pcl26DefaultPointRepresentationINS2_17IntensityGradientEEEEE@Base 1.6
 _ZTIN5boost6detail17sp_counted_impl_pIN3pcl26DefaultPointRepresentationINS2_17PointXYZRGBNormalEEEEE@Base 1.6
 _ZTIN5boost6detail17sp_counted_impl_pIN3pcl26DefaultPointRepresentationINS2_17PrincipalRadiiRSDEEEEE@Base 1.6
 _ZTIN5boost6detail17sp_counted_impl_pIN3pcl26DefaultPointRepresentationINS2_18PFHRGBSignature250EEEEE@Base 1.6
 _ZTIN5boost6detail17sp_counted_impl_pIN3pcl26DefaultPointRepresentationINS2_18PointWithViewpointEEEEE@Base 1.6
 _ZTIN5boost6detail17sp_counted_impl_pIN3pcl26DefaultPointRepresentationINS2_19PrincipalCurvaturesEEEEE@Base 1.6
 _ZTIN5boost6detail17sp_counted_impl_pIN3pcl26DefaultPointRepresentationINS2_22NormalBasedSignature12EEEEE@Base 1.6
 _ZTIN5boost6detail17sp_counted_impl_pIN3pcl26DefaultPointRepresentationINS2_4AxisEEEEE@Base 1.6
 _ZTIN5boost6detail17sp_counted_impl_pIN3pcl26DefaultPointRepresentationINS2_5LabelEEEEE@Base 1.6
 _ZTIN5boost6detail17sp_counted_impl_pIN3pcl26DefaultPointRepresentationINS2_6Narf36EEEEE@Base 1.6
 _ZTIN5boost6detail17sp_counted_impl_pIN3pcl26DefaultPointRepresentationINS2_6NormalEEEEE@Base 1.6
 _ZTIN5boost6detail17sp_counted_impl_pIN3pcl26DefaultPointRepresentationINS2_7PointXYEEEEE@Base 1.6
 _ZTIN5boost6detail17sp_counted_impl_pIN3pcl26DefaultPointRepresentationINS2_8BoundaryEEEEE@Base 1.6
 _ZTIN5boost6detail17sp_counted_impl_pIN3pcl26DefaultPointRepresentationINS2_8PointXYZEEEEE@Base 1.6
 _ZTIN5boost6detail17sp_counted_impl_pIN3pcl26DefaultPointRepresentationINS2_9PointXYZIEEEEE@Base 1.6
 _ZTIN5boost6detail17sp_counted_impl_pIN3pcl26DefaultPointRepresentationINS2_9PointXYZLEEEEE@Base 1.6
 _ZTIN5flann11KDTreeIndexINS_9L2_SimpleIfEEE4NodeE@Base 1.6
 _ZTIN5flann11KDTreeIndexINS_9L2_SimpleIfEEEE@Base 1.6
 _ZTIN5flann11KMeansIndexINS_9L2_SimpleIfEEEE@Base 1.6
 _ZTIN5flann11LinearIndexINS_9L2_SimpleIfEEEE@Base 1.6
 _ZTIN5flann12KNNResultSetIfEE@Base 1.6
 _ZTIN5flann13KNNResultSet2IfEE@Base 1.6
 _ZTIN5flann14AutotunedIndexINS_9L2_SimpleIfEEEE@Base 1.6
 _ZTIN5flann14CompositeIndexINS_9L2_SimpleIfEEEE@Base 1.6
 _ZTIN5flann14FLANNExceptionE@Base 1.6
 _ZTIN5flann15RadiusResultSetIfEE@Base 1.6
 _ZTIN5flann15UniqueResultSetIfEE@Base 1.6
 _ZTIN5flann17KDTreeSingleIndexINS_9L2_SimpleIfEEEE@Base 1.6
 _ZTIN5flann17flann_algorithm_tE@Base 1.6
 _ZTIN5flann18KNNRadiusResultSetIfEE@Base 1.6
 _ZTIN5flann18KNNSimpleResultSetIfEE@Base 1.6
 _ZTIN5flann18KNNUniqueResultSetIfEE@Base 1.6
 _ZTIN5flann20CountRadiusResultSetIfEE@Base 1.6
 _ZTIN5flann20flann_centers_init_tE@Base 1.6
 _ZTIN5flann27HierarchicalClusteringIndexINS_9L2_SimpleIfEEEE@Base 1.6
 _ZTIN5flann5IndexINS_9L2_SimpleIfEEEE@Base 1.6
 _ZTIN5flann7NNIndexINS_9L2_SimpleIfEEEE@Base 1.6
 _ZTIN5flann7anyimpl12bad_any_castE@Base 1.6
 _ZTIN5flann7anyimpl14big_any_policyINS0_9empty_anyEEE@Base 1.6
 _ZTIN5flann7anyimpl14big_any_policyINS_17flann_algorithm_tEEE@Base 1.6
 _ZTIN5flann7anyimpl14big_any_policyINS_20flann_centers_init_tEEE@Base 1.6
 _ZTIN5flann7anyimpl15base_any_policyE@Base 1.6
 _ZTIN5flann7anyimpl16small_any_policyIPPNS_11KDTreeIndexINS_9L2_SimpleIfEEE4NodeEEE@Base 1.6
 _ZTIN5flann7anyimpl16small_any_policyIbEE@Base 1.6
 _ZTIN5flann7anyimpl16small_any_policyIfEE@Base 1.6
 _ZTIN5flann7anyimpl16small_any_policyIiEE@Base 1.6
 _ZTIN5flann7anyimpl16small_any_policyIjEE@Base 1.6
 _ZTIN5flann7anyimpl21typed_base_any_policyINS0_9empty_anyEEE@Base 1.6
 _ZTIN5flann7anyimpl21typed_base_any_policyINS_17flann_algorithm_tEEE@Base 1.6
 _ZTIN5flann7anyimpl21typed_base_any_policyINS_20flann_centers_init_tEEE@Base 1.6
 _ZTIN5flann7anyimpl21typed_base_any_policyIPPNS_11KDTreeIndexINS_9L2_SimpleIfEEE4NodeEEE@Base 1.6
 _ZTIN5flann7anyimpl21typed_base_any_policyIbEE@Base 1.6
 _ZTIN5flann7anyimpl21typed_base_any_policyIfEE@Base 1.6
 _ZTIN5flann7anyimpl21typed_base_any_policyIiEE@Base 1.6
 _ZTIN5flann7anyimpl21typed_base_any_policyIjEE@Base 1.6
 _ZTIN5flann7anyimpl9empty_anyE@Base 1.6
 _ZTIN5flann8LshIndexINS_9L2_SimpleIfEEEE@Base 1.6
 _ZTIN5flann9ResultSetIfEE@Base 1.6
 _ZTIPN5flann11KDTreeIndexINS_9L2_SimpleIfEEE4NodeE@Base 1.6
 _ZTIPPN5flann11KDTreeIndexINS_9L2_SimpleIfEEE4NodeE@Base 1.6
 _ZTISs@Base 1.6
 _ZTSN3pcl11KdTreeFLANNINS_11PointNormalEN5flann9L2_SimpleIfEEEE@Base 1.6
 _ZTSN3pcl11KdTreeFLANNINS_11PointXYZHSVEN5flann9L2_SimpleIfEEEE@Base 1.6
 _ZTSN3pcl11KdTreeFLANNINS_11PointXYZRGBEN5flann9L2_SimpleIfEEEE@Base 1.6
 _ZTSN3pcl11KdTreeFLANNINS_12PPFSignatureEN5flann9L2_SimpleIfEEEE@Base 1.6
 _ZTSN3pcl11KdTreeFLANNINS_12PointXYZRGBAEN5flann9L2_SimpleIfEEEE@Base 1.6
 _ZTSN3pcl11KdTreeFLANNINS_12PointXYZRGBLEN5flann9L2_SimpleIfEEEE@Base 1.6
 _ZTSN3pcl11KdTreeFLANNINS_13InterestPointEN5flann9L2_SimpleIfEEEE@Base 1.6
 _ZTSN3pcl11KdTreeFLANNINS_14PointWithRangeEN5flann9L2_SimpleIfEEEE@Base 1.6
 _ZTSN3pcl11KdTreeFLANNINS_14PointWithScaleEN5flann9L2_SimpleIfEEEE@Base 1.6
 _ZTSN3pcl11KdTreeFLANNINS_14ReferenceFrameEN5flann9L2_SimpleIfEEEE@Base 1.6
 _ZTSN3pcl11KdTreeFLANNINS_15ESFSignature640EN5flann9L2_SimpleIfEEEE@Base 1.6
 _ZTSN3pcl11KdTreeFLANNINS_15FPFHSignature33EN5flann9L2_SimpleIfEEEE@Base 1.6
 _ZTSN3pcl11KdTreeFLANNINS_15PFHSignature125EN5flann9L2_SimpleIfEEEE@Base 1.6
 _ZTSN3pcl11KdTreeFLANNINS_15PPFRGBSignatureEN5flann9L2_SimpleIfEEEE@Base 1.6
 _ZTSN3pcl11KdTreeFLANNINS_15PointXYZINormalEN5flann9L2_SimpleIfEEEE@Base 1.6
 _ZTSN3pcl11KdTreeFLANNINS_15VFHSignature308EN5flann9L2_SimpleIfEEEE@Base 1.6
 _ZTSN3pcl11KdTreeFLANNINS_16MomentInvariantsEN5flann9L2_SimpleIfEEEE@Base 1.6
 _ZTSN3pcl11KdTreeFLANNINS_17IntensityGradientEN5flann9L2_SimpleIfEEEE@Base 1.6
 _ZTSN3pcl11KdTreeFLANNINS_17PointXYZRGBNormalEN5flann9L2_SimpleIfEEEE@Base 1.6
 _ZTSN3pcl11KdTreeFLANNINS_17PrincipalRadiiRSDEN5flann9L2_SimpleIfEEEE@Base 1.6
 _ZTSN3pcl11KdTreeFLANNINS_18PFHRGBSignature250EN5flann9L2_SimpleIfEEEE@Base 1.6
 _ZTSN3pcl11KdTreeFLANNINS_18PointWithViewpointEN5flann9L2_SimpleIfEEEE@Base 1.6
 _ZTSN3pcl11KdTreeFLANNINS_19PrincipalCurvaturesEN5flann9L2_SimpleIfEEEE@Base 1.6
 _ZTSN3pcl11KdTreeFLANNINS_22NormalBasedSignature12EN5flann9L2_SimpleIfEEEE@Base 1.6
 _ZTSN3pcl11KdTreeFLANNINS_4AxisEN5flann9L2_SimpleIfEEEE@Base 1.6
 _ZTSN3pcl11KdTreeFLANNINS_5LabelEN5flann9L2_SimpleIfEEEE@Base 1.6
 _ZTSN3pcl11KdTreeFLANNINS_6Narf36EN5flann9L2_SimpleIfEEEE@Base 1.6
 _ZTSN3pcl11KdTreeFLANNINS_6NormalEN5flann9L2_SimpleIfEEEE@Base 1.6
 _ZTSN3pcl11KdTreeFLANNINS_7PointXYEN5flann9L2_SimpleIfEEEE@Base 1.6
 _ZTSN3pcl11KdTreeFLANNINS_8BoundaryEN5flann9L2_SimpleIfEEEE@Base 1.6
 _ZTSN3pcl11KdTreeFLANNINS_8PointXYZEN5flann9L2_SimpleIfEEEE@Base 1.6
 _ZTSN3pcl11KdTreeFLANNINS_9PointXYZIEN5flann9L2_SimpleIfEEEE@Base 1.6
 _ZTSN3pcl11KdTreeFLANNINS_9PointXYZLEN5flann9L2_SimpleIfEEEE@Base 1.6
 _ZTSN3pcl19PointRepresentationINS_11PointNormalEEE@Base 1.6
 _ZTSN3pcl19PointRepresentationINS_11PointXYZHSVEEE@Base 1.6
 _ZTSN3pcl19PointRepresentationINS_11PointXYZRGBEEE@Base 1.6
 _ZTSN3pcl19PointRepresentationINS_12PPFSignatureEEE@Base 1.6
 _ZTSN3pcl19PointRepresentationINS_12PointXYZRGBAEEE@Base 1.6
 _ZTSN3pcl19PointRepresentationINS_12PointXYZRGBLEEE@Base 1.6
 _ZTSN3pcl19PointRepresentationINS_13InterestPointEEE@Base 1.6
 _ZTSN3pcl19PointRepresentationINS_14PointWithRangeEEE@Base 1.6
 _ZTSN3pcl19PointRepresentationINS_14PointWithScaleEEE@Base 1.6
 _ZTSN3pcl19PointRepresentationINS_14ReferenceFrameEEE@Base 1.6
 _ZTSN3pcl19PointRepresentationINS_15ESFSignature640EEE@Base 1.6
 _ZTSN3pcl19PointRepresentationINS_15FPFHSignature33EEE@Base 1.6
 _ZTSN3pcl19PointRepresentationINS_15PFHSignature125EEE@Base 1.6
 _ZTSN3pcl19PointRepresentationINS_15PPFRGBSignatureEEE@Base 1.6
 _ZTSN3pcl19PointRepresentationINS_15PointXYZINormalEEE@Base 1.6
 _ZTSN3pcl19PointRepresentationINS_15VFHSignature308EEE@Base 1.6
 _ZTSN3pcl19PointRepresentationINS_16MomentInvariantsEEE@Base 1.6
 _ZTSN3pcl19PointRepresentationINS_17IntensityGradientEEE@Base 1.6
 _ZTSN3pcl19PointRepresentationINS_17PointXYZRGBNormalEEE@Base 1.6
 _ZTSN3pcl19PointRepresentationINS_17PrincipalRadiiRSDEEE@Base 1.6
 _ZTSN3pcl19PointRepresentationINS_18PFHRGBSignature250EEE@Base 1.6
 _ZTSN3pcl19PointRepresentationINS_18PointWithViewpointEEE@Base 1.6
 _ZTSN3pcl19PointRepresentationINS_19PrincipalCurvaturesEEE@Base 1.6
 _ZTSN3pcl19PointRepresentationINS_22NormalBasedSignature12EEE@Base 1.6
 _ZTSN3pcl19PointRepresentationINS_4AxisEEE@Base 1.6
 _ZTSN3pcl19PointRepresentationINS_5LabelEEE@Base 1.6
 _ZTSN3pcl19PointRepresentationINS_6Narf36EEE@Base 1.6
 _ZTSN3pcl19PointRepresentationINS_6NormalEEE@Base 1.6
 _ZTSN3pcl19PointRepresentationINS_7PointXYEEE@Base 1.6
 _ZTSN3pcl19PointRepresentationINS_8BoundaryEEE@Base 1.6
 _ZTSN3pcl19PointRepresentationINS_8PointXYZEEE@Base 1.6
 _ZTSN3pcl19PointRepresentationINS_9PointXYZIEEE@Base 1.6
 _ZTSN3pcl19PointRepresentationINS_9PointXYZLEEE@Base 1.6
 _ZTSN3pcl26DefaultPointRepresentationINS_11PointNormalEEE@Base 1.6
 _ZTSN3pcl26DefaultPointRepresentationINS_11PointXYZHSVEEE@Base 1.6
 _ZTSN3pcl26DefaultPointRepresentationINS_11PointXYZRGBEEE@Base 1.6
 _ZTSN3pcl26DefaultPointRepresentationINS_12PPFSignatureEEE@Base 1.6
 _ZTSN3pcl26DefaultPointRepresentationINS_12PointXYZRGBAEEE@Base 1.6
 _ZTSN3pcl26DefaultPointRepresentationINS_12PointXYZRGBLEEE@Base 1.6
 _ZTSN3pcl26DefaultPointRepresentationINS_13InterestPointEEE@Base 1.6
 _ZTSN3pcl26DefaultPointRepresentationINS_14PointWithRangeEEE@Base 1.6
 _ZTSN3pcl26DefaultPointRepresentationINS_14PointWithScaleEEE@Base 1.6
 _ZTSN3pcl26DefaultPointRepresentationINS_14ReferenceFrameEEE@Base 1.6
 _ZTSN3pcl26DefaultPointRepresentationINS_15ESFSignature640EEE@Base 1.6
 _ZTSN3pcl26DefaultPointRepresentationINS_15FPFHSignature33EEE@Base 1.6
 _ZTSN3pcl26DefaultPointRepresentationINS_15PFHSignature125EEE@Base 1.6
 _ZTSN3pcl26DefaultPointRepresentationINS_15PPFRGBSignatureEEE@Base 1.6
 _ZTSN3pcl26DefaultPointRepresentationINS_15PointXYZINormalEEE@Base 1.6
 _ZTSN3pcl26DefaultPointRepresentationINS_15VFHSignature308EEE@Base 1.6
 _ZTSN3pcl26DefaultPointRepresentationINS_16MomentInvariantsEEE@Base 1.6
 _ZTSN3pcl26DefaultPointRepresentationINS_17IntensityGradientEEE@Base 1.6
 _ZTSN3pcl26DefaultPointRepresentationINS_17PointXYZRGBNormalEEE@Base 1.6
 _ZTSN3pcl26DefaultPointRepresentationINS_17PrincipalRadiiRSDEEE@Base 1.6
 _ZTSN3pcl26DefaultPointRepresentationINS_18PFHRGBSignature250EEE@Base 1.6
 _ZTSN3pcl26DefaultPointRepresentationINS_18PointWithViewpointEEE@Base 1.6
 _ZTSN3pcl26DefaultPointRepresentationINS_19PrincipalCurvaturesEEE@Base 1.6
 _ZTSN3pcl26DefaultPointRepresentationINS_22NormalBasedSignature12EEE@Base 1.6
 _ZTSN3pcl26DefaultPointRepresentationINS_4AxisEEE@Base 1.6
 _ZTSN3pcl26DefaultPointRepresentationINS_5LabelEEE@Base 1.6
 _ZTSN3pcl26DefaultPointRepresentationINS_6Narf36EEE@Base 1.6
 _ZTSN3pcl26DefaultPointRepresentationINS_6NormalEEE@Base 1.6
 _ZTSN3pcl26DefaultPointRepresentationINS_7PointXYEEE@Base 1.6
 _ZTSN3pcl26DefaultPointRepresentationINS_8BoundaryEEE@Base 1.6
 _ZTSN3pcl26DefaultPointRepresentationINS_8PointXYZEEE@Base 1.6
 _ZTSN3pcl26DefaultPointRepresentationINS_9PointXYZIEEE@Base 1.6
 _ZTSN3pcl26DefaultPointRepresentationINS_9PointXYZLEEE@Base 1.6
 _ZTSN3pcl28DefaultFeatureRepresentationINS_12PPFSignatureEEE@Base 1.6
 _ZTSN3pcl28DefaultFeatureRepresentationINS_15FPFHSignature33EEE@Base 1.6
 _ZTSN3pcl28DefaultFeatureRepresentationINS_15PFHSignature125EEE@Base 1.6
 _ZTSN3pcl28DefaultFeatureRepresentationINS_15VFHSignature308EEE@Base 1.6
 _ZTSN3pcl28DefaultFeatureRepresentationINS_18PFHRGBSignature250EEE@Base 1.6
 _ZTSN3pcl28DefaultFeatureRepresentationINS_22NormalBasedSignature12EEE@Base 1.6
 _ZTSN3pcl6KdTreeINS_11PointNormalEEE@Base 1.6
 _ZTSN3pcl6KdTreeINS_11PointXYZHSVEEE@Base 1.6
 _ZTSN3pcl6KdTreeINS_11PointXYZRGBEEE@Base 1.6
 _ZTSN3pcl6KdTreeINS_12PPFSignatureEEE@Base 1.6
 _ZTSN3pcl6KdTreeINS_12PointXYZRGBAEEE@Base 1.6
 _ZTSN3pcl6KdTreeINS_12PointXYZRGBLEEE@Base 1.6
 _ZTSN3pcl6KdTreeINS_13InterestPointEEE@Base 1.6
 _ZTSN3pcl6KdTreeINS_14PointWithRangeEEE@Base 1.6
 _ZTSN3pcl6KdTreeINS_14PointWithScaleEEE@Base 1.6
 _ZTSN3pcl6KdTreeINS_14ReferenceFrameEEE@Base 1.6
 _ZTSN3pcl6KdTreeINS_15ESFSignature640EEE@Base 1.6
 _ZTSN3pcl6KdTreeINS_15FPFHSignature33EEE@Base 1.6
 _ZTSN3pcl6KdTreeINS_15PFHSignature125EEE@Base 1.6
 _ZTSN3pcl6KdTreeINS_15PPFRGBSignatureEEE@Base 1.6
 _ZTSN3pcl6KdTreeINS_15PointXYZINormalEEE@Base 1.6
 _ZTSN3pcl6KdTreeINS_15VFHSignature308EEE@Base 1.6
 _ZTSN3pcl6KdTreeINS_16MomentInvariantsEEE@Base 1.6
 _ZTSN3pcl6KdTreeINS_17IntensityGradientEEE@Base 1.6
 _ZTSN3pcl6KdTreeINS_17PointXYZRGBNormalEEE@Base 1.6
 _ZTSN3pcl6KdTreeINS_17PrincipalRadiiRSDEEE@Base 1.6
 _ZTSN3pcl6KdTreeINS_18PFHRGBSignature250EEE@Base 1.6
 _ZTSN3pcl6KdTreeINS_18PointWithViewpointEEE@Base 1.6
 _ZTSN3pcl6KdTreeINS_19PrincipalCurvaturesEEE@Base 1.6
 _ZTSN3pcl6KdTreeINS_22NormalBasedSignature12EEE@Base 1.6
 _ZTSN3pcl6KdTreeINS_4AxisEEE@Base 1.6
 _ZTSN3pcl6KdTreeINS_5LabelEEE@Base 1.6
 _ZTSN3pcl6KdTreeINS_6Narf36EEE@Base 1.6
 _ZTSN3pcl6KdTreeINS_6NormalEEE@Base 1.6
 _ZTSN3pcl6KdTreeINS_7PointXYEEE@Base 1.6
 _ZTSN3pcl6KdTreeINS_8BoundaryEEE@Base 1.6
 _ZTSN3pcl6KdTreeINS_8PointXYZEEE@Base 1.6
 _ZTSN3pcl6KdTreeINS_9PointXYZIEEE@Base 1.6
 _ZTSN3pcl6KdTreeINS_9PointXYZLEEE@Base 1.6
 _ZTSN5boost6detail15sp_counted_baseE@Base 1.6
 _ZTSN5boost6detail17sp_counted_impl_pIN3pcl11KdTreeFLANNINS2_11PointNormalEN5flann9L2_SimpleIfEEEEEE@Base 1.6
 _ZTSN5boost6detail17sp_counted_impl_pIN3pcl11KdTreeFLANNINS2_11PointXYZHSVEN5flann9L2_SimpleIfEEEEEE@Base 1.6
 _ZTSN5boost6detail17sp_counted_impl_pIN3pcl11KdTreeFLANNINS2_11PointXYZRGBEN5flann9L2_SimpleIfEEEEEE@Base 1.6
 _ZTSN5boost6detail17sp_counted_impl_pIN3pcl11KdTreeFLANNINS2_12PPFSignatureEN5flann9L2_SimpleIfEEEEEE@Base 1.6
 _ZTSN5boost6detail17sp_counted_impl_pIN3pcl11KdTreeFLANNINS2_12PointXYZRGBAEN5flann9L2_SimpleIfEEEEEE@Base 1.6
 _ZTSN5boost6detail17sp_counted_impl_pIN3pcl11KdTreeFLANNINS2_12PointXYZRGBLEN5flann9L2_SimpleIfEEEEEE@Base 1.6
 _ZTSN5boost6detail17sp_counted_impl_pIN3pcl11KdTreeFLANNINS2_13InterestPointEN5flann9L2_SimpleIfEEEEEE@Base 1.6
 _ZTSN5boost6detail17sp_counted_impl_pIN3pcl11KdTreeFLANNINS2_14PointWithRangeEN5flann9L2_SimpleIfEEEEEE@Base 1.6
 _ZTSN5boost6detail17sp_counted_impl_pIN3pcl11KdTreeFLANNINS2_14PointWithScaleEN5flann9L2_SimpleIfEEEEEE@Base 1.6
 _ZTSN5boost6detail17sp_counted_impl_pIN3pcl11KdTreeFLANNINS2_14ReferenceFrameEN5flann9L2_SimpleIfEEEEEE@Base 1.6
 _ZTSN5boost6detail17sp_counted_impl_pIN3pcl11KdTreeFLANNINS2_15ESFSignature640EN5flann9L2_SimpleIfEEEEEE@Base 1.6
 _ZTSN5boost6detail17sp_counted_impl_pIN3pcl11KdTreeFLANNINS2_15FPFHSignature33EN5flann9L2_SimpleIfEEEEEE@Base 1.6
 _ZTSN5boost6detail17sp_counted_impl_pIN3pcl11KdTreeFLANNINS2_15PFHSignature125EN5flann9L2_SimpleIfEEEEEE@Base 1.6
 _ZTSN5boost6detail17sp_counted_impl_pIN3pcl11KdTreeFLANNINS2_15PPFRGBSignatureEN5flann9L2_SimpleIfEEEEEE@Base 1.6
 _ZTSN5boost6detail17sp_counted_impl_pIN3pcl11KdTreeFLANNINS2_15PointXYZINormalEN5flann9L2_SimpleIfEEEEEE@Base 1.6
 _ZTSN5boost6detail17sp_counted_impl_pIN3pcl11KdTreeFLANNINS2_15VFHSignature308EN5flann9L2_SimpleIfEEEEEE@Base 1.6
 _ZTSN5boost6detail17sp_counted_impl_pIN3pcl11KdTreeFLANNINS2_16MomentInvariantsEN5flann9L2_SimpleIfEEEEEE@Base 1.6
 _ZTSN5boost6detail17sp_counted_impl_pIN3pcl11KdTreeFLANNINS2_17IntensityGradientEN5flann9L2_SimpleIfEEEEEE@Base 1.6
 _ZTSN5boost6detail17sp_counted_impl_pIN3pcl11KdTreeFLANNINS2_17PointXYZRGBNormalEN5flann9L2_SimpleIfEEEEEE@Base 1.6
 _ZTSN5boost6detail17sp_counted_impl_pIN3pcl11KdTreeFLANNINS2_17PrincipalRadiiRSDEN5flann9L2_SimpleIfEEEEEE@Base 1.6
 _ZTSN5boost6detail17sp_counted_impl_pIN3pcl11KdTreeFLANNINS2_18PFHRGBSignature250EN5flann9L2_SimpleIfEEEEEE@Base 1.6
 _ZTSN5boost6detail17sp_counted_impl_pIN3pcl11KdTreeFLANNINS2_18PointWithViewpointEN5flann9L2_SimpleIfEEEEEE@Base 1.6
 _ZTSN5boost6detail17sp_counted_impl_pIN3pcl11KdTreeFLANNINS2_19PrincipalCurvaturesEN5flann9L2_SimpleIfEEEEEE@Base 1.6
 _ZTSN5boost6detail17sp_counted_impl_pIN3pcl11KdTreeFLANNINS2_22NormalBasedSignature12EN5flann9L2_SimpleIfEEEEEE@Base 1.6
 _ZTSN5boost6detail17sp_counted_impl_pIN3pcl11KdTreeFLANNINS2_4AxisEN5flann9L2_SimpleIfEEEEEE@Base 1.6
 _ZTSN5boost6detail17sp_counted_impl_pIN3pcl11KdTreeFLANNINS2_5LabelEN5flann9L2_SimpleIfEEEEEE@Base 1.6
 _ZTSN5boost6detail17sp_counted_impl_pIN3pcl11KdTreeFLANNINS2_6Narf36EN5flann9L2_SimpleIfEEEEEE@Base 1.6
 _ZTSN5boost6detail17sp_counted_impl_pIN3pcl11KdTreeFLANNINS2_6NormalEN5flann9L2_SimpleIfEEEEEE@Base 1.6
 _ZTSN5boost6detail17sp_counted_impl_pIN3pcl11KdTreeFLANNINS2_7PointXYEN5flann9L2_SimpleIfEEEEEE@Base 1.6
 _ZTSN5boost6detail17sp_counted_impl_pIN3pcl11KdTreeFLANNINS2_8BoundaryEN5flann9L2_SimpleIfEEEEEE@Base 1.6
 _ZTSN5boost6detail17sp_counted_impl_pIN3pcl11KdTreeFLANNINS2_8PointXYZEN5flann9L2_SimpleIfEEEEEE@Base 1.6
 _ZTSN5boost6detail17sp_counted_impl_pIN3pcl11KdTreeFLANNINS2_9PointXYZIEN5flann9L2_SimpleIfEEEEEE@Base 1.6
 _ZTSN5boost6detail17sp_counted_impl_pIN3pcl11KdTreeFLANNINS2_9PointXYZLEN5flann9L2_SimpleIfEEEEEE@Base 1.6
 _ZTSN5boost6detail17sp_counted_impl_pIN3pcl26DefaultPointRepresentationINS2_11PointNormalEEEEE@Base 1.6
 _ZTSN5boost6detail17sp_counted_impl_pIN3pcl26DefaultPointRepresentationINS2_11PointXYZHSVEEEEE@Base 1.6
 _ZTSN5boost6detail17sp_counted_impl_pIN3pcl26DefaultPointRepresentationINS2_11PointXYZRGBEEEEE@Base 1.6
 _ZTSN5boost6detail17sp_counted_impl_pIN3pcl26DefaultPointRepresentationINS2_12PPFSignatureEEEEE@Base 1.6
 _ZTSN5boost6detail17sp_counted_impl_pIN3pcl26DefaultPointRepresentationINS2_12PointXYZRGBAEEEEE@Base 1.6
 _ZTSN5boost6detail17sp_counted_impl_pIN3pcl26DefaultPointRepresentationINS2_12PointXYZRGBLEEEEE@Base 1.6
 _ZTSN5boost6detail17sp_counted_impl_pIN3pcl26DefaultPointRepresentationINS2_13InterestPointEEEEE@Base 1.6
 _ZTSN5boost6detail17sp_counted_impl_pIN3pcl26DefaultPointRepresentationINS2_14PointWithRangeEEEEE@Base 1.6
 _ZTSN5boost6detail17sp_counted_impl_pIN3pcl26DefaultPointRepresentationINS2_14PointWithScaleEEEEE@Base 1.6
 _ZTSN5boost6detail17sp_counted_impl_pIN3pcl26DefaultPointRepresentationINS2_14ReferenceFrameEEEEE@Base 1.6
 _ZTSN5boost6detail17sp_counted_impl_pIN3pcl26DefaultPointRepresentationINS2_15ESFSignature640EEEEE@Base 1.6
 _ZTSN5boost6detail17sp_counted_impl_pIN3pcl26DefaultPointRepresentationINS2_15FPFHSignature33EEEEE@Base 1.6
 _ZTSN5boost6detail17sp_counted_impl_pIN3pcl26DefaultPointRepresentationINS2_15PFHSignature125EEEEE@Base 1.6
 _ZTSN5boost6detail17sp_counted_impl_pIN3pcl26DefaultPointRepresentationINS2_15PPFRGBSignatureEEEEE@Base 1.6
 _ZTSN5boost6detail17sp_counted_impl_pIN3pcl26DefaultPointRepresentationINS2_15PointXYZINormalEEEEE@Base 1.6
 _ZTSN5boost6detail17sp_counted_impl_pIN3pcl26DefaultPointRepresentationINS2_15VFHSignature308EEEEE@Base 1.6
 _ZTSN5boost6detail17sp_counted_impl_pIN3pcl26DefaultPointRepresentationINS2_16MomentInvariantsEEEEE@Base 1.6
 _ZTSN5boost6detail17sp_counted_impl_pIN3pcl26DefaultPointRepresentationINS2_17IntensityGradientEEEEE@Base 1.6
 _ZTSN5boost6detail17sp_counted_impl_pIN3pcl26DefaultPointRepresentationINS2_17PointXYZRGBNormalEEEEE@Base 1.6
 _ZTSN5boost6detail17sp_counted_impl_pIN3pcl26DefaultPointRepresentationINS2_17PrincipalRadiiRSDEEEEE@Base 1.6
 _ZTSN5boost6detail17sp_counted_impl_pIN3pcl26DefaultPointRepresentationINS2_18PFHRGBSignature250EEEEE@Base 1.6
 _ZTSN5boost6detail17sp_counted_impl_pIN3pcl26DefaultPointRepresentationINS2_18PointWithViewpointEEEEE@Base 1.6
 _ZTSN5boost6detail17sp_counted_impl_pIN3pcl26DefaultPointRepresentationINS2_19PrincipalCurvaturesEEEEE@Base 1.6
 _ZTSN5boost6detail17sp_counted_impl_pIN3pcl26DefaultPointRepresentationINS2_22NormalBasedSignature12EEEEE@Base 1.6
 _ZTSN5boost6detail17sp_counted_impl_pIN3pcl26DefaultPointRepresentationINS2_4AxisEEEEE@Base 1.6
 _ZTSN5boost6detail17sp_counted_impl_pIN3pcl26DefaultPointRepresentationINS2_5LabelEEEEE@Base 1.6
 _ZTSN5boost6detail17sp_counted_impl_pIN3pcl26DefaultPointRepresentationINS2_6Narf36EEEEE@Base 1.6
 _ZTSN5boost6detail17sp_counted_impl_pIN3pcl26DefaultPointRepresentationINS2_6NormalEEEEE@Base 1.6
 _ZTSN5boost6detail17sp_counted_impl_pIN3pcl26DefaultPointRepresentationINS2_7PointXYEEEEE@Base 1.6
 _ZTSN5boost6detail17sp_counted_impl_pIN3pcl26DefaultPointRepresentationINS2_8BoundaryEEEEE@Base 1.6
 _ZTSN5boost6detail17sp_counted_impl_pIN3pcl26DefaultPointRepresentationINS2_8PointXYZEEEEE@Base 1.6
 _ZTSN5boost6detail17sp_counted_impl_pIN3pcl26DefaultPointRepresentationINS2_9PointXYZIEEEEE@Base 1.6
 _ZTSN5boost6detail17sp_counted_impl_pIN3pcl26DefaultPointRepresentationINS2_9PointXYZLEEEEE@Base 1.6
 _ZTSN5flann11KDTreeIndexINS_9L2_SimpleIfEEE4NodeE@Base 1.6
 _ZTSN5flann11KDTreeIndexINS_9L2_SimpleIfEEEE@Base 1.6
 _ZTSN5flann11KMeansIndexINS_9L2_SimpleIfEEEE@Base 1.6
 _ZTSN5flann11LinearIndexINS_9L2_SimpleIfEEEE@Base 1.6
 _ZTSN5flann12KNNResultSetIfEE@Base 1.6
 _ZTSN5flann13KNNResultSet2IfEE@Base 1.6
 _ZTSN5flann14AutotunedIndexINS_9L2_SimpleIfEEEE@Base 1.6
 _ZTSN5flann14CompositeIndexINS_9L2_SimpleIfEEEE@Base 1.6
 _ZTSN5flann14FLANNExceptionE@Base 1.6
 _ZTSN5flann15RadiusResultSetIfEE@Base 1.6
 _ZTSN5flann15UniqueResultSetIfEE@Base 1.6
 _ZTSN5flann17KDTreeSingleIndexINS_9L2_SimpleIfEEEE@Base 1.6
 _ZTSN5flann17flann_algorithm_tE@Base 1.6
 _ZTSN5flann18KNNRadiusResultSetIfEE@Base 1.6
 _ZTSN5flann18KNNSimpleResultSetIfEE@Base 1.6
 _ZTSN5flann18KNNUniqueResultSetIfEE@Base 1.6
 _ZTSN5flann20CountRadiusResultSetIfEE@Base 1.6
 _ZTSN5flann20flann_centers_init_tE@Base 1.6
 _ZTSN5flann27HierarchicalClusteringIndexINS_9L2_SimpleIfEEEE@Base 1.6
 _ZTSN5flann5IndexINS_9L2_SimpleIfEEEE@Base 1.6
 _ZTSN5flann7NNIndexINS_9L2_SimpleIfEEEE@Base 1.6
 _ZTSN5flann7anyimpl12bad_any_castE@Base 1.6
 _ZTSN5flann7anyimpl14big_any_policyINS0_9empty_anyEEE@Base 1.6
 _ZTSN5flann7anyimpl14big_any_policyINS_17flann_algorithm_tEEE@Base 1.6
 _ZTSN5flann7anyimpl14big_any_policyINS_20flann_centers_init_tEEE@Base 1.6
 _ZTSN5flann7anyimpl15base_any_policyE@Base 1.6
 _ZTSN5flann7anyimpl16small_any_policyIPPNS_11KDTreeIndexINS_9L2_SimpleIfEEE4NodeEEE@Base 1.6
 _ZTSN5flann7anyimpl16small_any_policyIbEE@Base 1.6
 _ZTSN5flann7anyimpl16small_any_policyIfEE@Base 1.6
 _ZTSN5flann7anyimpl16small_any_policyIiEE@Base 1.6
 _ZTSN5flann7anyimpl16small_any_policyIjEE@Base 1.6
 _ZTSN5flann7anyimpl21typed_base_any_policyINS0_9empty_anyEEE@Base 1.6
 _ZTSN5flann7anyimpl21typed_base_any_policyINS_17flann_algorithm_tEEE@Base 1.6
 _ZTSN5flann7anyimpl21typed_base_any_policyINS_20flann_centers_init_tEEE@Base 1.6
 _ZTSN5flann7anyimpl21typed_base_any_policyIPPNS_11KDTreeIndexINS_9L2_SimpleIfEEE4NodeEEE@Base 1.6
 _ZTSN5flann7anyimpl21typed_base_any_policyIbEE@Base 1.6
 _ZTSN5flann7anyimpl21typed_base_any_policyIfEE@Base 1.6
 _ZTSN5flann7anyimpl21typed_base_any_policyIiEE@Base 1.6
 _ZTSN5flann7anyimpl21typed_base_any_policyIjEE@Base 1.6
 _ZTSN5flann7anyimpl9empty_anyE@Base 1.6
 _ZTSN5flann8LshIndexINS_9L2_SimpleIfEEEE@Base 1.6
 _ZTSN5flann9ResultSetIfEE@Base 1.6
 _ZTSPN5flann11KDTreeIndexINS_9L2_SimpleIfEEE4NodeE@Base 1.6
 _ZTSPPN5flann11KDTreeIndexINS_9L2_SimpleIfEEE4NodeE@Base 1.6
 _ZTSSs@Base 1.6
 _ZTVN3pcl11KdTreeFLANNINS_11PointNormalEN5flann9L2_SimpleIfEEEE@Base 1.6
 _ZTVN3pcl11KdTreeFLANNINS_11PointXYZHSVEN5flann9L2_SimpleIfEEEE@Base 1.6
 _ZTVN3pcl11KdTreeFLANNINS_11PointXYZRGBEN5flann9L2_SimpleIfEEEE@Base 1.6
 _ZTVN3pcl11KdTreeFLANNINS_12PPFSignatureEN5flann9L2_SimpleIfEEEE@Base 1.6
 _ZTVN3pcl11KdTreeFLANNINS_12PointXYZRGBAEN5flann9L2_SimpleIfEEEE@Base 1.6
 _ZTVN3pcl11KdTreeFLANNINS_12PointXYZRGBLEN5flann9L2_SimpleIfEEEE@Base 1.6
 _ZTVN3pcl11KdTreeFLANNINS_13InterestPointEN5flann9L2_SimpleIfEEEE@Base 1.6
 _ZTVN3pcl11KdTreeFLANNINS_14PointWithRangeEN5flann9L2_SimpleIfEEEE@Base 1.6
 _ZTVN3pcl11KdTreeFLANNINS_14PointWithScaleEN5flann9L2_SimpleIfEEEE@Base 1.6
 _ZTVN3pcl11KdTreeFLANNINS_14ReferenceFrameEN5flann9L2_SimpleIfEEEE@Base 1.6
 _ZTVN3pcl11KdTreeFLANNINS_15ESFSignature640EN5flann9L2_SimpleIfEEEE@Base 1.6
 _ZTVN3pcl11KdTreeFLANNINS_15FPFHSignature33EN5flann9L2_SimpleIfEEEE@Base 1.6
 _ZTVN3pcl11KdTreeFLANNINS_15PFHSignature125EN5flann9L2_SimpleIfEEEE@Base 1.6
 _ZTVN3pcl11KdTreeFLANNINS_15PPFRGBSignatureEN5flann9L2_SimpleIfEEEE@Base 1.6
 _ZTVN3pcl11KdTreeFLANNINS_15PointXYZINormalEN5flann9L2_SimpleIfEEEE@Base 1.6
 _ZTVN3pcl11KdTreeFLANNINS_15VFHSignature308EN5flann9L2_SimpleIfEEEE@Base 1.6
 _ZTVN3pcl11KdTreeFLANNINS_16MomentInvariantsEN5flann9L2_SimpleIfEEEE@Base 1.6
 _ZTVN3pcl11KdTreeFLANNINS_17IntensityGradientEN5flann9L2_SimpleIfEEEE@Base 1.6
 _ZTVN3pcl11KdTreeFLANNINS_17PointXYZRGBNormalEN5flann9L2_SimpleIfEEEE@Base 1.6
 _ZTVN3pcl11KdTreeFLANNINS_17PrincipalRadiiRSDEN5flann9L2_SimpleIfEEEE@Base 1.6
 _ZTVN3pcl11KdTreeFLANNINS_18PFHRGBSignature250EN5flann9L2_SimpleIfEEEE@Base 1.6
 _ZTVN3pcl11KdTreeFLANNINS_18PointWithViewpointEN5flann9L2_SimpleIfEEEE@Base 1.6
 _ZTVN3pcl11KdTreeFLANNINS_19PrincipalCurvaturesEN5flann9L2_SimpleIfEEEE@Base 1.6
 _ZTVN3pcl11KdTreeFLANNINS_22NormalBasedSignature12EN5flann9L2_SimpleIfEEEE@Base 1.6
 _ZTVN3pcl11KdTreeFLANNINS_4AxisEN5flann9L2_SimpleIfEEEE@Base 1.6
 _ZTVN3pcl11KdTreeFLANNINS_5LabelEN5flann9L2_SimpleIfEEEE@Base 1.6
 _ZTVN3pcl11KdTreeFLANNINS_6Narf36EN5flann9L2_SimpleIfEEEE@Base 1.6
 _ZTVN3pcl11KdTreeFLANNINS_6NormalEN5flann9L2_SimpleIfEEEE@Base 1.6
 _ZTVN3pcl11KdTreeFLANNINS_7PointXYEN5flann9L2_SimpleIfEEEE@Base 1.6
 _ZTVN3pcl11KdTreeFLANNINS_8BoundaryEN5flann9L2_SimpleIfEEEE@Base 1.6
 _ZTVN3pcl11KdTreeFLANNINS_8PointXYZEN5flann9L2_SimpleIfEEEE@Base 1.6
 _ZTVN3pcl11KdTreeFLANNINS_9PointXYZIEN5flann9L2_SimpleIfEEEE@Base 1.6
 _ZTVN3pcl11KdTreeFLANNINS_9PointXYZLEN5flann9L2_SimpleIfEEEE@Base 1.6
 _ZTVN3pcl19PointRepresentationINS_11PointNormalEEE@Base 1.6
 _ZTVN3pcl19PointRepresentationINS_11PointXYZHSVEEE@Base 1.6
 _ZTVN3pcl19PointRepresentationINS_11PointXYZRGBEEE@Base 1.6
 _ZTVN3pcl19PointRepresentationINS_12PPFSignatureEEE@Base 1.6
 _ZTVN3pcl19PointRepresentationINS_12PointXYZRGBAEEE@Base 1.6
 _ZTVN3pcl19PointRepresentationINS_12PointXYZRGBLEEE@Base 1.6
 _ZTVN3pcl19PointRepresentationINS_13InterestPointEEE@Base 1.6
 _ZTVN3pcl19PointRepresentationINS_14PointWithRangeEEE@Base 1.6
 _ZTVN3pcl19PointRepresentationINS_14PointWithScaleEEE@Base 1.6
 _ZTVN3pcl19PointRepresentationINS_14ReferenceFrameEEE@Base 1.6
 _ZTVN3pcl19PointRepresentationINS_15ESFSignature640EEE@Base 1.6
 _ZTVN3pcl19PointRepresentationINS_15FPFHSignature33EEE@Base 1.6
 _ZTVN3pcl19PointRepresentationINS_15PFHSignature125EEE@Base 1.6
 _ZTVN3pcl19PointRepresentationINS_15PPFRGBSignatureEEE@Base 1.6
 _ZTVN3pcl19PointRepresentationINS_15PointXYZINormalEEE@Base 1.6
 _ZTVN3pcl19PointRepresentationINS_15VFHSignature308EEE@Base 1.6
 _ZTVN3pcl19PointRepresentationINS_16MomentInvariantsEEE@Base 1.6
 _ZTVN3pcl19PointRepresentationINS_17IntensityGradientEEE@Base 1.6
 _ZTVN3pcl19PointRepresentationINS_17PointXYZRGBNormalEEE@Base 1.6
 _ZTVN3pcl19PointRepresentationINS_17PrincipalRadiiRSDEEE@Base 1.6
 _ZTVN3pcl19PointRepresentationINS_18PFHRGBSignature250EEE@Base 1.6
 _ZTVN3pcl19PointRepresentationINS_18PointWithViewpointEEE@Base 1.6
 _ZTVN3pcl19PointRepresentationINS_19PrincipalCurvaturesEEE@Base 1.6
 _ZTVN3pcl19PointRepresentationINS_22NormalBasedSignature12EEE@Base 1.6
 _ZTVN3pcl19PointRepresentationINS_4AxisEEE@Base 1.6
 _ZTVN3pcl19PointRepresentationINS_5LabelEEE@Base 1.6
 _ZTVN3pcl19PointRepresentationINS_6Narf36EEE@Base 1.6
 _ZTVN3pcl19PointRepresentationINS_6NormalEEE@Base 1.6
 _ZTVN3pcl19PointRepresentationINS_7PointXYEEE@Base 1.6
 _ZTVN3pcl19PointRepresentationINS_8BoundaryEEE@Base 1.6
 _ZTVN3pcl19PointRepresentationINS_8PointXYZEEE@Base 1.6
 _ZTVN3pcl19PointRepresentationINS_9PointXYZIEEE@Base 1.6
 _ZTVN3pcl19PointRepresentationINS_9PointXYZLEEE@Base 1.6
 _ZTVN3pcl26DefaultPointRepresentationINS_11PointNormalEEE@Base 1.6
 _ZTVN3pcl26DefaultPointRepresentationINS_11PointXYZHSVEEE@Base 1.6
 _ZTVN3pcl26DefaultPointRepresentationINS_11PointXYZRGBEEE@Base 1.6
 _ZTVN3pcl26DefaultPointRepresentationINS_12PPFSignatureEEE@Base 1.6
 _ZTVN3pcl26DefaultPointRepresentationINS_12PointXYZRGBAEEE@Base 1.6
 _ZTVN3pcl26DefaultPointRepresentationINS_12PointXYZRGBLEEE@Base 1.6
 _ZTVN3pcl26DefaultPointRepresentationINS_13InterestPointEEE@Base 1.6
 _ZTVN3pcl26DefaultPointRepresentationINS_14PointWithRangeEEE@Base 1.6
 _ZTVN3pcl26DefaultPointRepresentationINS_14PointWithScaleEEE@Base 1.6
 _ZTVN3pcl26DefaultPointRepresentationINS_14ReferenceFrameEEE@Base 1.6
 _ZTVN3pcl26DefaultPointRepresentationINS_15ESFSignature640EEE@Base 1.6
 _ZTVN3pcl26DefaultPointRepresentationINS_15FPFHSignature33EEE@Base 1.6
 _ZTVN3pcl26DefaultPointRepresentationINS_15PFHSignature125EEE@Base 1.6
 _ZTVN3pcl26DefaultPointRepresentationINS_15PPFRGBSignatureEEE@Base 1.6
 _ZTVN3pcl26DefaultPointRepresentationINS_15PointXYZINormalEEE@Base 1.6
 _ZTVN3pcl26DefaultPointRepresentationINS_15VFHSignature308EEE@Base 1.6
 _ZTVN3pcl26DefaultPointRepresentationINS_16MomentInvariantsEEE@Base 1.6
 _ZTVN3pcl26DefaultPointRepresentationINS_17IntensityGradientEEE@Base 1.6
 _ZTVN3pcl26DefaultPointRepresentationINS_17PointXYZRGBNormalEEE@Base 1.6
 _ZTVN3pcl26DefaultPointRepresentationINS_17PrincipalRadiiRSDEEE@Base 1.6
 _ZTVN3pcl26DefaultPointRepresentationINS_18PFHRGBSignature250EEE@Base 1.6
 _ZTVN3pcl26DefaultPointRepresentationINS_18PointWithViewpointEEE@Base 1.6
 _ZTVN3pcl26DefaultPointRepresentationINS_19PrincipalCurvaturesEEE@Base 1.6
 _ZTVN3pcl26DefaultPointRepresentationINS_22NormalBasedSignature12EEE@Base 1.6
 _ZTVN3pcl26DefaultPointRepresentationINS_4AxisEEE@Base 1.6
 _ZTVN3pcl26DefaultPointRepresentationINS_5LabelEEE@Base 1.6
 _ZTVN3pcl26DefaultPointRepresentationINS_6Narf36EEE@Base 1.6
 _ZTVN3pcl26DefaultPointRepresentationINS_6NormalEEE@Base 1.6
 _ZTVN3pcl26DefaultPointRepresentationINS_7PointXYEEE@Base 1.6
 _ZTVN3pcl26DefaultPointRepresentationINS_8BoundaryEEE@Base 1.6
 _ZTVN3pcl26DefaultPointRepresentationINS_8PointXYZEEE@Base 1.6
 _ZTVN3pcl26DefaultPointRepresentationINS_9PointXYZIEEE@Base 1.6
 _ZTVN3pcl26DefaultPointRepresentationINS_9PointXYZLEEE@Base 1.6
 _ZTVN3pcl28DefaultFeatureRepresentationINS_12PPFSignatureEEE@Base 1.6
 _ZTVN3pcl28DefaultFeatureRepresentationINS_15FPFHSignature33EEE@Base 1.6
 _ZTVN3pcl28DefaultFeatureRepresentationINS_15PFHSignature125EEE@Base 1.6
 _ZTVN3pcl28DefaultFeatureRepresentationINS_15VFHSignature308EEE@Base 1.6
 _ZTVN3pcl28DefaultFeatureRepresentationINS_18PFHRGBSignature250EEE@Base 1.6
 _ZTVN3pcl28DefaultFeatureRepresentationINS_22NormalBasedSignature12EEE@Base 1.6
 _ZTVN3pcl6KdTreeINS_11PointNormalEEE@Base 1.6
 _ZTVN3pcl6KdTreeINS_11PointXYZHSVEEE@Base 1.6
 _ZTVN3pcl6KdTreeINS_11PointXYZRGBEEE@Base 1.6
 _ZTVN3pcl6KdTreeINS_12PPFSignatureEEE@Base 1.6
 _ZTVN3pcl6KdTreeINS_12PointXYZRGBAEEE@Base 1.6
 _ZTVN3pcl6KdTreeINS_12PointXYZRGBLEEE@Base 1.6
 _ZTVN3pcl6KdTreeINS_13InterestPointEEE@Base 1.6
 _ZTVN3pcl6KdTreeINS_14PointWithRangeEEE@Base 1.6
 _ZTVN3pcl6KdTreeINS_14PointWithScaleEEE@Base 1.6
 _ZTVN3pcl6KdTreeINS_14ReferenceFrameEEE@Base 1.6
 _ZTVN3pcl6KdTreeINS_15ESFSignature640EEE@Base 1.6
 _ZTVN3pcl6KdTreeINS_15FPFHSignature33EEE@Base 1.6
 _ZTVN3pcl6KdTreeINS_15PFHSignature125EEE@Base 1.6
 _ZTVN3pcl6KdTreeINS_15PPFRGBSignatureEEE@Base 1.6
 _ZTVN3pcl6KdTreeINS_15PointXYZINormalEEE@Base 1.6
 _ZTVN3pcl6KdTreeINS_15VFHSignature308EEE@Base 1.6
 _ZTVN3pcl6KdTreeINS_16MomentInvariantsEEE@Base 1.6
 _ZTVN3pcl6KdTreeINS_17IntensityGradientEEE@Base 1.6
 _ZTVN3pcl6KdTreeINS_17PointXYZRGBNormalEEE@Base 1.6
 _ZTVN3pcl6KdTreeINS_17PrincipalRadiiRSDEEE@Base 1.6
 _ZTVN3pcl6KdTreeINS_18PFHRGBSignature250EEE@Base 1.6
 _ZTVN3pcl6KdTreeINS_18PointWithViewpointEEE@Base 1.6
 _ZTVN3pcl6KdTreeINS_19PrincipalCurvaturesEEE@Base 1.6
 _ZTVN3pcl6KdTreeINS_22NormalBasedSignature12EEE@Base 1.6
 _ZTVN3pcl6KdTreeINS_4AxisEEE@Base 1.6
 _ZTVN3pcl6KdTreeINS_5LabelEEE@Base 1.6
 _ZTVN3pcl6KdTreeINS_6Narf36EEE@Base 1.6
 _ZTVN3pcl6KdTreeINS_6NormalEEE@Base 1.6
 _ZTVN3pcl6KdTreeINS_7PointXYEEE@Base 1.6
 _ZTVN3pcl6KdTreeINS_8BoundaryEEE@Base 1.6
 _ZTVN3pcl6KdTreeINS_8PointXYZEEE@Base 1.6
 _ZTVN3pcl6KdTreeINS_9PointXYZIEEE@Base 1.6
 _ZTVN3pcl6KdTreeINS_9PointXYZLEEE@Base 1.6
 _ZTVN5boost6detail15sp_counted_baseE@Base 1.6
 _ZTVN5boost6detail17sp_counted_impl_pIN3pcl11KdTreeFLANNINS2_11PointNormalEN5flann9L2_SimpleIfEEEEEE@Base 1.6
 _ZTVN5boost6detail17sp_counted_impl_pIN3pcl11KdTreeFLANNINS2_11PointXYZHSVEN5flann9L2_SimpleIfEEEEEE@Base 1.6
 _ZTVN5boost6detail17sp_counted_impl_pIN3pcl11KdTreeFLANNINS2_11PointXYZRGBEN5flann9L2_SimpleIfEEEEEE@Base 1.6
 _ZTVN5boost6detail17sp_counted_impl_pIN3pcl11KdTreeFLANNINS2_12PPFSignatureEN5flann9L2_SimpleIfEEEEEE@Base 1.6
 _ZTVN5boost6detail17sp_counted_impl_pIN3pcl11KdTreeFLANNINS2_12PointXYZRGBAEN5flann9L2_SimpleIfEEEEEE@Base 1.6
 _ZTVN5boost6detail17sp_counted_impl_pIN3pcl11KdTreeFLANNINS2_12PointXYZRGBLEN5flann9L2_SimpleIfEEEEEE@Base 1.6
 _ZTVN5boost6detail17sp_counted_impl_pIN3pcl11KdTreeFLANNINS2_13InterestPointEN5flann9L2_SimpleIfEEEEEE@Base 1.6
 _ZTVN5boost6detail17sp_counted_impl_pIN3pcl11KdTreeFLANNINS2_14PointWithRangeEN5flann9L2_SimpleIfEEEEEE@Base 1.6
 _ZTVN5boost6detail17sp_counted_impl_pIN3pcl11KdTreeFLANNINS2_14PointWithScaleEN5flann9L2_SimpleIfEEEEEE@Base 1.6
 _ZTVN5boost6detail17sp_counted_impl_pIN3pcl11KdTreeFLANNINS2_14ReferenceFrameEN5flann9L2_SimpleIfEEEEEE@Base 1.6
 _ZTVN5boost6detail17sp_counted_impl_pIN3pcl11KdTreeFLANNINS2_15ESFSignature640EN5flann9L2_SimpleIfEEEEEE@Base 1.6
 _ZTVN5boost6detail17sp_counted_impl_pIN3pcl11KdTreeFLANNINS2_15FPFHSignature33EN5flann9L2_SimpleIfEEEEEE@Base 1.6
 _ZTVN5boost6detail17sp_counted_impl_pIN3pcl11KdTreeFLANNINS2_15PFHSignature125EN5flann9L2_SimpleIfEEEEEE@Base 1.6
 _ZTVN5boost6detail17sp_counted_impl_pIN3pcl11KdTreeFLANNINS2_15PPFRGBSignatureEN5flann9L2_SimpleIfEEEEEE@Base 1.6
 _ZTVN5boost6detail17sp_counted_impl_pIN3pcl11KdTreeFLANNINS2_15PointXYZINormalEN5flann9L2_SimpleIfEEEEEE@Base 1.6
 _ZTVN5boost6detail17sp_counted_impl_pIN3pcl11KdTreeFLANNINS2_15VFHSignature308EN5flann9L2_SimpleIfEEEEEE@Base 1.6
 _ZTVN5boost6detail17sp_counted_impl_pIN3pcl11KdTreeFLANNINS2_16MomentInvariantsEN5flann9L2_SimpleIfEEEEEE@Base 1.6
 _ZTVN5boost6detail17sp_counted_impl_pIN3pcl11KdTreeFLANNINS2_17IntensityGradientEN5flann9L2_SimpleIfEEEEEE@Base 1.6
 _ZTVN5boost6detail17sp_counted_impl_pIN3pcl11KdTreeFLANNINS2_17PointXYZRGBNormalEN5flann9L2_SimpleIfEEEEEE@Base 1.6
 _ZTVN5boost6detail17sp_counted_impl_pIN3pcl11KdTreeFLANNINS2_17PrincipalRadiiRSDEN5flann9L2_SimpleIfEEEEEE@Base 1.6
 _ZTVN5boost6detail17sp_counted_impl_pIN3pcl11KdTreeFLANNINS2_18PFHRGBSignature250EN5flann9L2_SimpleIfEEEEEE@Base 1.6
 _ZTVN5boost6detail17sp_counted_impl_pIN3pcl11KdTreeFLANNINS2_18PointWithViewpointEN5flann9L2_SimpleIfEEEEEE@Base 1.6
 _ZTVN5boost6detail17sp_counted_impl_pIN3pcl11KdTreeFLANNINS2_19PrincipalCurvaturesEN5flann9L2_SimpleIfEEEEEE@Base 1.6
 _ZTVN5boost6detail17sp_counted_impl_pIN3pcl11KdTreeFLANNINS2_22NormalBasedSignature12EN5flann9L2_SimpleIfEEEEEE@Base 1.6
 _ZTVN5boost6detail17sp_counted_impl_pIN3pcl11KdTreeFLANNINS2_4AxisEN5flann9L2_SimpleIfEEEEEE@Base 1.6
 _ZTVN5boost6detail17sp_counted_impl_pIN3pcl11KdTreeFLANNINS2_5LabelEN5flann9L2_SimpleIfEEEEEE@Base 1.6
 _ZTVN5boost6detail17sp_counted_impl_pIN3pcl11KdTreeFLANNINS2_6Narf36EN5flann9L2_SimpleIfEEEEEE@Base 1.6
 _ZTVN5boost6detail17sp_counted_impl_pIN3pcl11KdTreeFLANNINS2_6NormalEN5flann9L2_SimpleIfEEEEEE@Base 1.6
 _ZTVN5boost6detail17sp_counted_impl_pIN3pcl11KdTreeFLANNINS2_7PointXYEN5flann9L2_SimpleIfEEEEEE@Base 1.6
 _ZTVN5boost6detail17sp_counted_impl_pIN3pcl11KdTreeFLANNINS2_8BoundaryEN5flann9L2_SimpleIfEEEEEE@Base 1.6
 _ZTVN5boost6detail17sp_counted_impl_pIN3pcl11KdTreeFLANNINS2_8PointXYZEN5flann9L2_SimpleIfEEEEEE@Base 1.6
 _ZTVN5boost6detail17sp_counted_impl_pIN3pcl11KdTreeFLANNINS2_9PointXYZIEN5flann9L2_SimpleIfEEEEEE@Base 1.6
 _ZTVN5boost6detail17sp_counted_impl_pIN3pcl11KdTreeFLANNINS2_9PointXYZLEN5flann9L2_SimpleIfEEEEEE@Base 1.6
 _ZTVN5boost6detail17sp_counted_impl_pIN3pcl26DefaultPointRepresentationINS2_11PointNormalEEEEE@Base 1.6
 _ZTVN5boost6detail17sp_counted_impl_pIN3pcl26DefaultPointRepresentationINS2_11PointXYZHSVEEEEE@Base 1.6
 _ZTVN5boost6detail17sp_counted_impl_pIN3pcl26DefaultPointRepresentationINS2_11PointXYZRGBEEEEE@Base 1.6
 _ZTVN5boost6detail17sp_counted_impl_pIN3pcl26DefaultPointRepresentationINS2_12PPFSignatureEEEEE@Base 1.6
 _ZTVN5boost6detail17sp_counted_impl_pIN3pcl26DefaultPointRepresentationINS2_12PointXYZRGBAEEEEE@Base 1.6
 _ZTVN5boost6detail17sp_counted_impl_pIN3pcl26DefaultPointRepresentationINS2_12PointXYZRGBLEEEEE@Base 1.6
 _ZTVN5boost6detail17sp_counted_impl_pIN3pcl26DefaultPointRepresentationINS2_13InterestPointEEEEE@Base 1.6
 _ZTVN5boost6detail17sp_counted_impl_pIN3pcl26DefaultPointRepresentationINS2_14PointWithRangeEEEEE@Base 1.6
 _ZTVN5boost6detail17sp_counted_impl_pIN3pcl26DefaultPointRepresentationINS2_14PointWithScaleEEEEE@Base 1.6
 _ZTVN5boost6detail17sp_counted_impl_pIN3pcl26DefaultPointRepresentationINS2_14ReferenceFrameEEEEE@Base 1.6
 _ZTVN5boost6detail17sp_counted_impl_pIN3pcl26DefaultPointRepresentationINS2_15ESFSignature640EEEEE@Base 1.6
 _ZTVN5boost6detail17sp_counted_impl_pIN3pcl26DefaultPointRepresentationINS2_15FPFHSignature33EEEEE@Base 1.6
 _ZTVN5boost6detail17sp_counted_impl_pIN3pcl26DefaultPointRepresentationINS2_15PFHSignature125EEEEE@Base 1.6
 _ZTVN5boost6detail17sp_counted_impl_pIN3pcl26DefaultPointRepresentationINS2_15PPFRGBSignatureEEEEE@Base 1.6
 _ZTVN5boost6detail17sp_counted_impl_pIN3pcl26DefaultPointRepresentationINS2_15PointXYZINormalEEEEE@Base 1.6
 _ZTVN5boost6detail17sp_counted_impl_pIN3pcl26DefaultPointRepresentationINS2_15VFHSignature308EEEEE@Base 1.6
 _ZTVN5boost6detail17sp_counted_impl_pIN3pcl26DefaultPointRepresentationINS2_16MomentInvariantsEEEEE@Base 1.6
 _ZTVN5boost6detail17sp_counted_impl_pIN3pcl26DefaultPointRepresentationINS2_17IntensityGradientEEEEE@Base 1.6
 _ZTVN5boost6detail17sp_counted_impl_pIN3pcl26DefaultPointRepresentationINS2_17PointXYZRGBNormalEEEEE@Base 1.6
 _ZTVN5boost6detail17sp_counted_impl_pIN3pcl26DefaultPointRepresentationINS2_17PrincipalRadiiRSDEEEEE@Base 1.6
 _ZTVN5boost6detail17sp_counted_impl_pIN3pcl26DefaultPointRepresentationINS2_18PFHRGBSignature250EEEEE@Base 1.6
 _ZTVN5boost6detail17sp_counted_impl_pIN3pcl26DefaultPointRepresentationINS2_18PointWithViewpointEEEEE@Base 1.6
 _ZTVN5boost6detail17sp_counted_impl_pIN3pcl26DefaultPointRepresentationINS2_19PrincipalCurvaturesEEEEE@Base 1.6
 _ZTVN5boost6detail17sp_counted_impl_pIN3pcl26DefaultPointRepresentationINS2_22NormalBasedSignature12EEEEE@Base 1.6
 _ZTVN5boost6detail17sp_counted_impl_pIN3pcl26DefaultPointRepresentationINS2_4AxisEEEEE@Base 1.6
 _ZTVN5boost6detail17sp_counted_impl_pIN3pcl26DefaultPointRepresentationINS2_5LabelEEEEE@Base 1.6
 _ZTVN5boost6detail17sp_counted_impl_pIN3pcl26DefaultPointRepresentationINS2_6Narf36EEEEE@Base 1.6
 _ZTVN5boost6detail17sp_counted_impl_pIN3pcl26DefaultPointRepresentationINS2_6NormalEEEEE@Base 1.6
 _ZTVN5boost6detail17sp_counted_impl_pIN3pcl26DefaultPointRepresentationINS2_7PointXYEEEEE@Base 1.6
 _ZTVN5boost6detail17sp_counted_impl_pIN3pcl26DefaultPointRepresentationINS2_8BoundaryEEEEE@Base 1.6
 _ZTVN5boost6detail17sp_counted_impl_pIN3pcl26DefaultPointRepresentationINS2_8PointXYZEEEEE@Base 1.6
 _ZTVN5boost6detail17sp_counted_impl_pIN3pcl26DefaultPointRepresentationINS2_9PointXYZIEEEEE@Base 1.6
 _ZTVN5boost6detail17sp_counted_impl_pIN3pcl26DefaultPointRepresentationINS2_9PointXYZLEEEEE@Base 1.6
 _ZTVN5flann11KDTreeIndexINS_9L2_SimpleIfEEEE@Base 1.6
 _ZTVN5flann11KMeansIndexINS_9L2_SimpleIfEEEE@Base 1.6
 _ZTVN5flann11LinearIndexINS_9L2_SimpleIfEEEE@Base 1.6
 _ZTVN5flann12KNNResultSetIfEE@Base 1.6
 _ZTVN5flann13KNNResultSet2IfEE@Base 1.6
 _ZTVN5flann14AutotunedIndexINS_9L2_SimpleIfEEEE@Base 1.6
 _ZTVN5flann14CompositeIndexINS_9L2_SimpleIfEEEE@Base 1.6
 _ZTVN5flann14FLANNExceptionE@Base 1.6
 _ZTVN5flann15RadiusResultSetIfEE@Base 1.6
 _ZTVN5flann15UniqueResultSetIfEE@Base 1.6
 _ZTVN5flann17KDTreeSingleIndexINS_9L2_SimpleIfEEEE@Base 1.6
 _ZTVN5flann18KNNRadiusResultSetIfEE@Base 1.6
 _ZTVN5flann18KNNSimpleResultSetIfEE@Base 1.6
 _ZTVN5flann18KNNUniqueResultSetIfEE@Base 1.6
 _ZTVN5flann20CountRadiusResultSetIfEE@Base 1.6
 _ZTVN5flann27HierarchicalClusteringIndexINS_9L2_SimpleIfEEEE@Base 1.6
 _ZTVN5flann5IndexINS_9L2_SimpleIfEEEE@Base 1.6
 _ZTVN5flann7NNIndexINS_9L2_SimpleIfEEEE@Base 1.6
 _ZTVN5flann7anyimpl12bad_any_castE@Base 1.6
 _ZTVN5flann7anyimpl14big_any_policyINS0_9empty_anyEEE@Base 1.6
 _ZTVN5flann7anyimpl14big_any_policyINS_17flann_algorithm_tEEE@Base 1.6
 _ZTVN5flann7anyimpl14big_any_policyINS_20flann_centers_init_tEEE@Base 1.6
 _ZTVN5flann7anyimpl15base_any_policyE@Base 1.6
 _ZTVN5flann7anyimpl16small_any_policyIPPNS_11KDTreeIndexINS_9L2_SimpleIfEEE4NodeEEE@Base 1.6
 _ZTVN5flann7anyimpl16small_any_policyIbEE@Base 1.6
 _ZTVN5flann7anyimpl16small_any_policyIfEE@Base 1.6
 _ZTVN5flann7anyimpl16small_any_policyIiEE@Base 1.6
 _ZTVN5flann7anyimpl16small_any_policyIjEE@Base 1.6
 _ZTVN5flann7anyimpl21typed_base_any_policyINS0_9empty_anyEEE@Base 1.6
 _ZTVN5flann7anyimpl21typed_base_any_policyINS_17flann_algorithm_tEEE@Base 1.6
 _ZTVN5flann7anyimpl21typed_base_any_policyINS_20flann_centers_init_tEEE@Base 1.6
 _ZTVN5flann7anyimpl21typed_base_any_policyIPPNS_11KDTreeIndexINS_9L2_SimpleIfEEE4NodeEEE@Base 1.6
 _ZTVN5flann7anyimpl21typed_base_any_policyIbEE@Base 1.6
 _ZTVN5flann7anyimpl21typed_base_any_policyIfEE@Base 1.6
 _ZTVN5flann7anyimpl21typed_base_any_policyIiEE@Base 1.6
 _ZTVN5flann7anyimpl21typed_base_any_policyIjEE@Base 1.6
 _ZTVN5flann8LshIndexINS_9L2_SimpleIfEEEE@Base 1.6
 _ZTVN5flann9ResultSetIfEE@Base 1.6
 _ZZN5flann6Logger8instanceEvE6logger@Base 1.6
 (optional=templinst)_ZZN5flann7anyimpl10get_policyINS0_9empty_anyEEEPNS0_15base_any_policyEvE6policy@Base 1.6
 (optional=templinst)_ZZN5flann7anyimpl10get_policyINS_17flann_algorithm_tEEEPNS0_15base_any_policyEvE6policy@Base 1.6
 (optional=templinst)_ZZN5flann7anyimpl10get_policyINS_20flann_centers_init_tEEEPNS0_15base_any_policyEvE6policy@Base 1.6
 (optional=templinst)_ZZN5flann7anyimpl10get_policyIPPNS_11KDTreeIndexINS_9L2_SimpleIfEEE4NodeEEEPNS0_15base_any_policyEvE6policy@Base 1.6
 (optional=templinst)_ZZN5flann7anyimpl10get_policyIbEEPNS0_15base_any_policyEvE6policy@Base 1.6
 (optional=templinst)_ZZN5flann7anyimpl10get_policyIfEEPNS0_15base_any_policyEvE6policy@Base 1.6
 (optional=templinst)_ZZN5flann7anyimpl10get_policyIiEEPNS0_15base_any_policyEvE6policy@Base 1.6
 (optional=templinst)_ZZN5flann7anyimpl10get_policyIjEEPNS0_15base_any_policyEvE6policy@Base 1.6
