# SymbolsHelper-Confirmed: 1.6 amd64
libpcl_surface.so.1.6 libpcl-surface1.6 #MINVER#
 _ZGVN3pcl7poisson12SparseMatrixIfE20AllocatorMatrixEntryE@Base 1.6
 _ZGVN3pcl7poisson7OctNodeINS0_12TreeNodeDataEfE16AllocatorOctNodeE@Base 1.6
 _ZGVZN5flann6Logger8instanceEvE6logger@Base 1.6
 _ZGVZN5flann7anyimpl10get_policyINS0_9empty_anyEEEPNS0_15base_any_policyEvE6policy@Base 1.6
 _ZGVZN5flann7anyimpl10get_policyINS_12SearchParamsEEEPNS0_15base_any_policyEvE6policy@Base 1.6
 _ZGVZN5flann7anyimpl10get_policyINS_17flann_algorithm_tEEEPNS0_15base_any_policyEvE6policy@Base 1.6
 _ZGVZN5flann7anyimpl10get_policyINS_20flann_centers_init_tEEEPNS0_15base_any_policyEvE6policy@Base 1.6
 _ZGVZN5flann7anyimpl10get_policyIbEEPNS0_15base_any_policyEvE6policy@Base 1.6
 _ZGVZN5flann7anyimpl10get_policyIfEEPNS0_15base_any_policyEvE6policy@Base 1.6
 _ZGVZN5flann7anyimpl10get_policyIiEEPNS0_15base_any_policyEvE6policy@Base 1.6
 _ZGVZN5flann7anyimpl10get_policyIjEEPNS0_15base_any_policyEvE6policy@Base 1.6
 _ZN11sensor_msgs10PointFieldD1Ev@Base 1.6
 _ZN11sensor_msgs10PointFieldD2Ev@Base 1.6
 _ZN11sensor_msgs11PointCloud2aSERKS0_@Base 1.6
 (optional=templinst)_ZN3pcl10ConvexHullINS_11PointNormalEE11reconstructERNS_10PointCloudIS1_EE@Base 1.6
 (optional=templinst)_ZN3pcl10ConvexHullINS_11PointNormalEE11reconstructERNS_10PointCloudIS1_EERSt6vectorINS_8VerticesESaIS7_EE@Base 1.6
 (optional=templinst)_ZN3pcl10ConvexHullINS_11PointNormalEE12setDimensionEi@Base 1.6
 (optional=templinst)_ZN3pcl10ConvexHullINS_11PointNormalEE20setComputeAreaVolumeEb@Base 1.6
 (optional=templinst)_ZN3pcl10ConvexHullINS_11PointNormalEE21performReconstructionERNS_10PointCloudIS1_EERSt6vectorINS_8VerticesESaIS7_EEb@Base 1.6
 (optional=templinst)_ZN3pcl10ConvexHullINS_11PointNormalEE21performReconstructionERNS_11PolygonMeshE@Base 1.6
 (optional=templinst)_ZN3pcl10ConvexHullINS_11PointNormalEE21performReconstructionERSt6vectorINS_8VerticesESaIS4_EE@Base 1.6
 (optional=templinst)_ZN3pcl10ConvexHullINS_11PointNormalEE23calculateInputDimensionEv@Base 1.6
 (optional=templinst)_ZN3pcl10ConvexHullINS_11PointNormalEE23performReconstruction2DERNS_10PointCloudIS1_EERSt6vectorINS_8VerticesESaIS7_EEb@Base 1.6
 (optional=templinst)_ZN3pcl10ConvexHullINS_11PointNormalEE23performReconstruction3DERNS_10PointCloudIS1_EERSt6vectorINS_8VerticesESaIS7_EEb@Base 1.6
 (optional=templinst)_ZN3pcl10ConvexHullINS_11PointNormalEEC1Ev@Base 1.6
 (optional=templinst)_ZN3pcl10ConvexHullINS_11PointNormalEEC2Ev@Base 1.6
 (optional=templinst)_ZN3pcl10ConvexHullINS_11PointNormalEED0Ev@Base 1.6
 (optional=templinst)_ZN3pcl10ConvexHullINS_11PointNormalEED1Ev@Base 1.6
 (optional=templinst)_ZN3pcl10ConvexHullINS_11PointNormalEED2Ev@Base 1.6
 _ZN3pcl10ConvexHullINS_11PointNormalEEdaEPv@Base 1.6
 _ZN3pcl10ConvexHullINS_11PointNormalEEdlEPv@Base 1.6
 _ZN3pcl10ConvexHullINS_11PointNormalEEdlEPvRKSt9nothrow_t@Base 1.6
 _ZN3pcl10ConvexHullINS_11PointNormalEEdlEPvS3_@Base 1.6
 _ZN3pcl10ConvexHullINS_11PointNormalEEnaEm@Base 1.6
 _ZN3pcl10ConvexHullINS_11PointNormalEEnwEm@Base 1.6
 _ZN3pcl10ConvexHullINS_11PointNormalEEnwEmPv@Base 1.6
 _ZN3pcl10ConvexHullINS_11PointNormalEEnwEmRKSt9nothrow_t@Base 1.6
 (optional=templinst)_ZN3pcl10ConvexHullINS_11PointXYZHSVEE11reconstructERNS_10PointCloudIS1_EE@Base 1.6
 (optional=templinst)_ZN3pcl10ConvexHullINS_11PointXYZHSVEE11reconstructERNS_10PointCloudIS1_EERSt6vectorINS_8VerticesESaIS7_EE@Base 1.6
 (optional=templinst)_ZN3pcl10ConvexHullINS_11PointXYZHSVEE12setDimensionEi@Base 1.6
 (optional=templinst)_ZN3pcl10ConvexHullINS_11PointXYZHSVEE20setComputeAreaVolumeEb@Base 1.6
 (optional=templinst)_ZN3pcl10ConvexHullINS_11PointXYZHSVEE21performReconstructionERNS_10PointCloudIS1_EERSt6vectorINS_8VerticesESaIS7_EEb@Base 1.6
 (optional=templinst)_ZN3pcl10ConvexHullINS_11PointXYZHSVEE21performReconstructionERNS_11PolygonMeshE@Base 1.6
 (optional=templinst)_ZN3pcl10ConvexHullINS_11PointXYZHSVEE21performReconstructionERSt6vectorINS_8VerticesESaIS4_EE@Base 1.6
 (optional=templinst)_ZN3pcl10ConvexHullINS_11PointXYZHSVEE23calculateInputDimensionEv@Base 1.6
 (optional=templinst)_ZN3pcl10ConvexHullINS_11PointXYZHSVEE23performReconstruction2DERNS_10PointCloudIS1_EERSt6vectorINS_8VerticesESaIS7_EEb@Base 1.6
 (optional=templinst)_ZN3pcl10ConvexHullINS_11PointXYZHSVEE23performReconstruction3DERNS_10PointCloudIS1_EERSt6vectorINS_8VerticesESaIS7_EEb@Base 1.6
 (optional=templinst)_ZN3pcl10ConvexHullINS_11PointXYZHSVEEC1Ev@Base 1.6
 (optional=templinst)_ZN3pcl10ConvexHullINS_11PointXYZHSVEEC2Ev@Base 1.6
 (optional=templinst)_ZN3pcl10ConvexHullINS_11PointXYZHSVEED0Ev@Base 1.6
 (optional=templinst)_ZN3pcl10ConvexHullINS_11PointXYZHSVEED1Ev@Base 1.6
 (optional=templinst)_ZN3pcl10ConvexHullINS_11PointXYZHSVEED2Ev@Base 1.6
 _ZN3pcl10ConvexHullINS_11PointXYZHSVEEdaEPv@Base 1.6
 _ZN3pcl10ConvexHullINS_11PointXYZHSVEEdlEPv@Base 1.6
 _ZN3pcl10ConvexHullINS_11PointXYZHSVEEdlEPvRKSt9nothrow_t@Base 1.6
 _ZN3pcl10ConvexHullINS_11PointXYZHSVEEdlEPvS3_@Base 1.6
 _ZN3pcl10ConvexHullINS_11PointXYZHSVEEnaEm@Base 1.6
 _ZN3pcl10ConvexHullINS_11PointXYZHSVEEnwEm@Base 1.6
 _ZN3pcl10ConvexHullINS_11PointXYZHSVEEnwEmPv@Base 1.6
 _ZN3pcl10ConvexHullINS_11PointXYZHSVEEnwEmRKSt9nothrow_t@Base 1.6
 (optional=templinst)_ZN3pcl10ConvexHullINS_11PointXYZRGBEE11reconstructERNS_10PointCloudIS1_EE@Base 1.6
 (optional=templinst)_ZN3pcl10ConvexHullINS_11PointXYZRGBEE11reconstructERNS_10PointCloudIS1_EERSt6vectorINS_8VerticesESaIS7_EE@Base 1.6
 (optional=templinst)_ZN3pcl10ConvexHullINS_11PointXYZRGBEE12setDimensionEi@Base 1.6
 (optional=templinst)_ZN3pcl10ConvexHullINS_11PointXYZRGBEE20setComputeAreaVolumeEb@Base 1.6
 (optional=templinst)_ZN3pcl10ConvexHullINS_11PointXYZRGBEE21performReconstructionERNS_10PointCloudIS1_EERSt6vectorINS_8VerticesESaIS7_EEb@Base 1.6
 (optional=templinst)_ZN3pcl10ConvexHullINS_11PointXYZRGBEE21performReconstructionERNS_11PolygonMeshE@Base 1.6
 (optional=templinst)_ZN3pcl10ConvexHullINS_11PointXYZRGBEE21performReconstructionERSt6vectorINS_8VerticesESaIS4_EE@Base 1.6
 (optional=templinst)_ZN3pcl10ConvexHullINS_11PointXYZRGBEE23calculateInputDimensionEv@Base 1.6
 (optional=templinst)_ZN3pcl10ConvexHullINS_11PointXYZRGBEE23performReconstruction2DERNS_10PointCloudIS1_EERSt6vectorINS_8VerticesESaIS7_EEb@Base 1.6
 (optional=templinst)_ZN3pcl10ConvexHullINS_11PointXYZRGBEE23performReconstruction3DERNS_10PointCloudIS1_EERSt6vectorINS_8VerticesESaIS7_EEb@Base 1.6
 (optional=templinst)_ZN3pcl10ConvexHullINS_11PointXYZRGBEEC1Ev@Base 1.6
 (optional=templinst)_ZN3pcl10ConvexHullINS_11PointXYZRGBEEC2Ev@Base 1.6
 (optional=templinst)_ZN3pcl10ConvexHullINS_11PointXYZRGBEED0Ev@Base 1.6
 (optional=templinst)_ZN3pcl10ConvexHullINS_11PointXYZRGBEED1Ev@Base 1.6
 (optional=templinst)_ZN3pcl10ConvexHullINS_11PointXYZRGBEED2Ev@Base 1.6
 _ZN3pcl10ConvexHullINS_11PointXYZRGBEEdaEPv@Base 1.6
 _ZN3pcl10ConvexHullINS_11PointXYZRGBEEdlEPv@Base 1.6
 _ZN3pcl10ConvexHullINS_11PointXYZRGBEEdlEPvRKSt9nothrow_t@Base 1.6
 _ZN3pcl10ConvexHullINS_11PointXYZRGBEEdlEPvS3_@Base 1.6
 _ZN3pcl10ConvexHullINS_11PointXYZRGBEEnaEm@Base 1.6
 _ZN3pcl10ConvexHullINS_11PointXYZRGBEEnwEm@Base 1.6
 _ZN3pcl10ConvexHullINS_11PointXYZRGBEEnwEmPv@Base 1.6
 _ZN3pcl10ConvexHullINS_11PointXYZRGBEEnwEmRKSt9nothrow_t@Base 1.6
 (optional=templinst)_ZN3pcl10ConvexHullINS_12PointXYZRGBAEE11reconstructERNS_10PointCloudIS1_EE@Base 1.6
 (optional=templinst)_ZN3pcl10ConvexHullINS_12PointXYZRGBAEE11reconstructERNS_10PointCloudIS1_EERSt6vectorINS_8VerticesESaIS7_EE@Base 1.6
 (optional=templinst)_ZN3pcl10ConvexHullINS_12PointXYZRGBAEE12setDimensionEi@Base 1.6
 (optional=templinst)_ZN3pcl10ConvexHullINS_12PointXYZRGBAEE20setComputeAreaVolumeEb@Base 1.6
 (optional=templinst)_ZN3pcl10ConvexHullINS_12PointXYZRGBAEE21performReconstructionERNS_10PointCloudIS1_EERSt6vectorINS_8VerticesESaIS7_EEb@Base 1.6
 (optional=templinst)_ZN3pcl10ConvexHullINS_12PointXYZRGBAEE21performReconstructionERNS_11PolygonMeshE@Base 1.6
 (optional=templinst)_ZN3pcl10ConvexHullINS_12PointXYZRGBAEE21performReconstructionERSt6vectorINS_8VerticesESaIS4_EE@Base 1.6
 (optional=templinst)_ZN3pcl10ConvexHullINS_12PointXYZRGBAEE23calculateInputDimensionEv@Base 1.6
 (optional=templinst)_ZN3pcl10ConvexHullINS_12PointXYZRGBAEE23performReconstruction2DERNS_10PointCloudIS1_EERSt6vectorINS_8VerticesESaIS7_EEb@Base 1.6
 (optional=templinst)_ZN3pcl10ConvexHullINS_12PointXYZRGBAEE23performReconstruction3DERNS_10PointCloudIS1_EERSt6vectorINS_8VerticesESaIS7_EEb@Base 1.6
 (optional=templinst)_ZN3pcl10ConvexHullINS_12PointXYZRGBAEEC1Ev@Base 1.6
 (optional=templinst)_ZN3pcl10ConvexHullINS_12PointXYZRGBAEEC2Ev@Base 1.6
 (optional=templinst)_ZN3pcl10ConvexHullINS_12PointXYZRGBAEED0Ev@Base 1.6
 (optional=templinst)_ZN3pcl10ConvexHullINS_12PointXYZRGBAEED1Ev@Base 1.6
 (optional=templinst)_ZN3pcl10ConvexHullINS_12PointXYZRGBAEED2Ev@Base 1.6
 _ZN3pcl10ConvexHullINS_12PointXYZRGBAEEdaEPv@Base 1.6
 _ZN3pcl10ConvexHullINS_12PointXYZRGBAEEdlEPv@Base 1.6
 _ZN3pcl10ConvexHullINS_12PointXYZRGBAEEdlEPvRKSt9nothrow_t@Base 1.6
 _ZN3pcl10ConvexHullINS_12PointXYZRGBAEEdlEPvS3_@Base 1.6
 _ZN3pcl10ConvexHullINS_12PointXYZRGBAEEnaEm@Base 1.6
 _ZN3pcl10ConvexHullINS_12PointXYZRGBAEEnwEm@Base 1.6
 _ZN3pcl10ConvexHullINS_12PointXYZRGBAEEnwEmPv@Base 1.6
 _ZN3pcl10ConvexHullINS_12PointXYZRGBAEEnwEmRKSt9nothrow_t@Base 1.6
 (optional=templinst)_ZN3pcl10ConvexHullINS_12PointXYZRGBLEE11reconstructERNS_10PointCloudIS1_EE@Base 1.6
 (optional=templinst)_ZN3pcl10ConvexHullINS_12PointXYZRGBLEE11reconstructERNS_10PointCloudIS1_EERSt6vectorINS_8VerticesESaIS7_EE@Base 1.6
 (optional=templinst)_ZN3pcl10ConvexHullINS_12PointXYZRGBLEE12setDimensionEi@Base 1.6
 (optional=templinst)_ZN3pcl10ConvexHullINS_12PointXYZRGBLEE20setComputeAreaVolumeEb@Base 1.6
 (optional=templinst)_ZN3pcl10ConvexHullINS_12PointXYZRGBLEE21performReconstructionERNS_10PointCloudIS1_EERSt6vectorINS_8VerticesESaIS7_EEb@Base 1.6
 (optional=templinst)_ZN3pcl10ConvexHullINS_12PointXYZRGBLEE21performReconstructionERNS_11PolygonMeshE@Base 1.6
 (optional=templinst)_ZN3pcl10ConvexHullINS_12PointXYZRGBLEE21performReconstructionERSt6vectorINS_8VerticesESaIS4_EE@Base 1.6
 (optional=templinst)_ZN3pcl10ConvexHullINS_12PointXYZRGBLEE23calculateInputDimensionEv@Base 1.6
 (optional=templinst)_ZN3pcl10ConvexHullINS_12PointXYZRGBLEE23performReconstruction2DERNS_10PointCloudIS1_EERSt6vectorINS_8VerticesESaIS7_EEb@Base 1.6
 (optional=templinst)_ZN3pcl10ConvexHullINS_12PointXYZRGBLEE23performReconstruction3DERNS_10PointCloudIS1_EERSt6vectorINS_8VerticesESaIS7_EEb@Base 1.6
 (optional=templinst)_ZN3pcl10ConvexHullINS_12PointXYZRGBLEEC1Ev@Base 1.6
 (optional=templinst)_ZN3pcl10ConvexHullINS_12PointXYZRGBLEEC2Ev@Base 1.6
 (optional=templinst)_ZN3pcl10ConvexHullINS_12PointXYZRGBLEED0Ev@Base 1.6
 (optional=templinst)_ZN3pcl10ConvexHullINS_12PointXYZRGBLEED1Ev@Base 1.6
 (optional=templinst)_ZN3pcl10ConvexHullINS_12PointXYZRGBLEED2Ev@Base 1.6
 _ZN3pcl10ConvexHullINS_12PointXYZRGBLEEdaEPv@Base 1.6
 _ZN3pcl10ConvexHullINS_12PointXYZRGBLEEdlEPv@Base 1.6
 _ZN3pcl10ConvexHullINS_12PointXYZRGBLEEdlEPvRKSt9nothrow_t@Base 1.6
 _ZN3pcl10ConvexHullINS_12PointXYZRGBLEEdlEPvS3_@Base 1.6
 _ZN3pcl10ConvexHullINS_12PointXYZRGBLEEnaEm@Base 1.6
 _ZN3pcl10ConvexHullINS_12PointXYZRGBLEEnwEm@Base 1.6
 _ZN3pcl10ConvexHullINS_12PointXYZRGBLEEnwEmPv@Base 1.6
 _ZN3pcl10ConvexHullINS_12PointXYZRGBLEEnwEmRKSt9nothrow_t@Base 1.6
 (optional=templinst)_ZN3pcl10ConvexHullINS_13InterestPointEE11reconstructERNS_10PointCloudIS1_EE@Base 1.6
 (optional=templinst)_ZN3pcl10ConvexHullINS_13InterestPointEE11reconstructERNS_10PointCloudIS1_EERSt6vectorINS_8VerticesESaIS7_EE@Base 1.6
 (optional=templinst)_ZN3pcl10ConvexHullINS_13InterestPointEE12setDimensionEi@Base 1.6
 (optional=templinst)_ZN3pcl10ConvexHullINS_13InterestPointEE20setComputeAreaVolumeEb@Base 1.6
 (optional=templinst)_ZN3pcl10ConvexHullINS_13InterestPointEE21performReconstructionERNS_10PointCloudIS1_EERSt6vectorINS_8VerticesESaIS7_EEb@Base 1.6
 (optional=templinst)_ZN3pcl10ConvexHullINS_13InterestPointEE21performReconstructionERNS_11PolygonMeshE@Base 1.6
 (optional=templinst)_ZN3pcl10ConvexHullINS_13InterestPointEE21performReconstructionERSt6vectorINS_8VerticesESaIS4_EE@Base 1.6
 (optional=templinst)_ZN3pcl10ConvexHullINS_13InterestPointEE23calculateInputDimensionEv@Base 1.6
 (optional=templinst)_ZN3pcl10ConvexHullINS_13InterestPointEE23performReconstruction2DERNS_10PointCloudIS1_EERSt6vectorINS_8VerticesESaIS7_EEb@Base 1.6
 (optional=templinst)_ZN3pcl10ConvexHullINS_13InterestPointEE23performReconstruction3DERNS_10PointCloudIS1_EERSt6vectorINS_8VerticesESaIS7_EEb@Base 1.6
 (optional=templinst)_ZN3pcl10ConvexHullINS_13InterestPointEEC1Ev@Base 1.6
 (optional=templinst)_ZN3pcl10ConvexHullINS_13InterestPointEEC2Ev@Base 1.6
 (optional=templinst)_ZN3pcl10ConvexHullINS_13InterestPointEED0Ev@Base 1.6
 (optional=templinst)_ZN3pcl10ConvexHullINS_13InterestPointEED1Ev@Base 1.6
 (optional=templinst)_ZN3pcl10ConvexHullINS_13InterestPointEED2Ev@Base 1.6
 _ZN3pcl10ConvexHullINS_13InterestPointEEdaEPv@Base 1.6
 _ZN3pcl10ConvexHullINS_13InterestPointEEdlEPv@Base 1.6
 _ZN3pcl10ConvexHullINS_13InterestPointEEdlEPvRKSt9nothrow_t@Base 1.6
 _ZN3pcl10ConvexHullINS_13InterestPointEEdlEPvS3_@Base 1.6
 _ZN3pcl10ConvexHullINS_13InterestPointEEnaEm@Base 1.6
 _ZN3pcl10ConvexHullINS_13InterestPointEEnwEm@Base 1.6
 _ZN3pcl10ConvexHullINS_13InterestPointEEnwEmPv@Base 1.6
 _ZN3pcl10ConvexHullINS_13InterestPointEEnwEmRKSt9nothrow_t@Base 1.6
 (optional=templinst)_ZN3pcl10ConvexHullINS_14PointWithRangeEE11reconstructERNS_10PointCloudIS1_EE@Base 1.6
 (optional=templinst)_ZN3pcl10ConvexHullINS_14PointWithRangeEE11reconstructERNS_10PointCloudIS1_EERSt6vectorINS_8VerticesESaIS7_EE@Base 1.6
 (optional=templinst)_ZN3pcl10ConvexHullINS_14PointWithRangeEE12setDimensionEi@Base 1.6
 (optional=templinst)_ZN3pcl10ConvexHullINS_14PointWithRangeEE20setComputeAreaVolumeEb@Base 1.6
 (optional=templinst)_ZN3pcl10ConvexHullINS_14PointWithRangeEE21performReconstructionERNS_10PointCloudIS1_EERSt6vectorINS_8VerticesESaIS7_EEb@Base 1.6
 (optional=templinst)_ZN3pcl10ConvexHullINS_14PointWithRangeEE21performReconstructionERNS_11PolygonMeshE@Base 1.6
 (optional=templinst)_ZN3pcl10ConvexHullINS_14PointWithRangeEE21performReconstructionERSt6vectorINS_8VerticesESaIS4_EE@Base 1.6
 (optional=templinst)_ZN3pcl10ConvexHullINS_14PointWithRangeEE23calculateInputDimensionEv@Base 1.6
 (optional=templinst)_ZN3pcl10ConvexHullINS_14PointWithRangeEE23performReconstruction2DERNS_10PointCloudIS1_EERSt6vectorINS_8VerticesESaIS7_EEb@Base 1.6
 (optional=templinst)_ZN3pcl10ConvexHullINS_14PointWithRangeEE23performReconstruction3DERNS_10PointCloudIS1_EERSt6vectorINS_8VerticesESaIS7_EEb@Base 1.6
 (optional=templinst)_ZN3pcl10ConvexHullINS_14PointWithRangeEEC1Ev@Base 1.6
 (optional=templinst)_ZN3pcl10ConvexHullINS_14PointWithRangeEEC2Ev@Base 1.6
 (optional=templinst)_ZN3pcl10ConvexHullINS_14PointWithRangeEED0Ev@Base 1.6
 (optional=templinst)_ZN3pcl10ConvexHullINS_14PointWithRangeEED1Ev@Base 1.6
 (optional=templinst)_ZN3pcl10ConvexHullINS_14PointWithRangeEED2Ev@Base 1.6
 _ZN3pcl10ConvexHullINS_14PointWithRangeEEdaEPv@Base 1.6
 _ZN3pcl10ConvexHullINS_14PointWithRangeEEdlEPv@Base 1.6
 _ZN3pcl10ConvexHullINS_14PointWithRangeEEdlEPvRKSt9nothrow_t@Base 1.6
 _ZN3pcl10ConvexHullINS_14PointWithRangeEEdlEPvS3_@Base 1.6
 _ZN3pcl10ConvexHullINS_14PointWithRangeEEnaEm@Base 1.6
 _ZN3pcl10ConvexHullINS_14PointWithRangeEEnwEm@Base 1.6
 _ZN3pcl10ConvexHullINS_14PointWithRangeEEnwEmPv@Base 1.6
 _ZN3pcl10ConvexHullINS_14PointWithRangeEEnwEmRKSt9nothrow_t@Base 1.6
 (optional=templinst)_ZN3pcl10ConvexHullINS_14PointWithScaleEE11reconstructERNS_10PointCloudIS1_EE@Base 1.6
 (optional=templinst)_ZN3pcl10ConvexHullINS_14PointWithScaleEE11reconstructERNS_10PointCloudIS1_EERSt6vectorINS_8VerticesESaIS7_EE@Base 1.6
 (optional=templinst)_ZN3pcl10ConvexHullINS_14PointWithScaleEE12setDimensionEi@Base 1.6
 (optional=templinst)_ZN3pcl10ConvexHullINS_14PointWithScaleEE20setComputeAreaVolumeEb@Base 1.6
 (optional=templinst)_ZN3pcl10ConvexHullINS_14PointWithScaleEE21performReconstructionERNS_10PointCloudIS1_EERSt6vectorINS_8VerticesESaIS7_EEb@Base 1.6
 (optional=templinst)_ZN3pcl10ConvexHullINS_14PointWithScaleEE21performReconstructionERNS_11PolygonMeshE@Base 1.6
 (optional=templinst)_ZN3pcl10ConvexHullINS_14PointWithScaleEE21performReconstructionERSt6vectorINS_8VerticesESaIS4_EE@Base 1.6
 (optional=templinst)_ZN3pcl10ConvexHullINS_14PointWithScaleEE23calculateInputDimensionEv@Base 1.6
 (optional=templinst)_ZN3pcl10ConvexHullINS_14PointWithScaleEE23performReconstruction2DERNS_10PointCloudIS1_EERSt6vectorINS_8VerticesESaIS7_EEb@Base 1.6
 (optional=templinst)_ZN3pcl10ConvexHullINS_14PointWithScaleEE23performReconstruction3DERNS_10PointCloudIS1_EERSt6vectorINS_8VerticesESaIS7_EEb@Base 1.6
 (optional=templinst)_ZN3pcl10ConvexHullINS_14PointWithScaleEEC1Ev@Base 1.6
 (optional=templinst)_ZN3pcl10ConvexHullINS_14PointWithScaleEEC2Ev@Base 1.6
 (optional=templinst)_ZN3pcl10ConvexHullINS_14PointWithScaleEED0Ev@Base 1.6
 (optional=templinst)_ZN3pcl10ConvexHullINS_14PointWithScaleEED1Ev@Base 1.6
 (optional=templinst)_ZN3pcl10ConvexHullINS_14PointWithScaleEED2Ev@Base 1.6
 _ZN3pcl10ConvexHullINS_14PointWithScaleEEdaEPv@Base 1.6
 _ZN3pcl10ConvexHullINS_14PointWithScaleEEdlEPv@Base 1.6
 _ZN3pcl10ConvexHullINS_14PointWithScaleEEdlEPvRKSt9nothrow_t@Base 1.6
 _ZN3pcl10ConvexHullINS_14PointWithScaleEEdlEPvS3_@Base 1.6
 _ZN3pcl10ConvexHullINS_14PointWithScaleEEnaEm@Base 1.6
 _ZN3pcl10ConvexHullINS_14PointWithScaleEEnwEm@Base 1.6
 _ZN3pcl10ConvexHullINS_14PointWithScaleEEnwEmPv@Base 1.6
 _ZN3pcl10ConvexHullINS_14PointWithScaleEEnwEmRKSt9nothrow_t@Base 1.6
 (optional=templinst)_ZN3pcl10ConvexHullINS_15PointXYZINormalEE11reconstructERNS_10PointCloudIS1_EE@Base 1.6
 (optional=templinst)_ZN3pcl10ConvexHullINS_15PointXYZINormalEE11reconstructERNS_10PointCloudIS1_EERSt6vectorINS_8VerticesESaIS7_EE@Base 1.6
 (optional=templinst)_ZN3pcl10ConvexHullINS_15PointXYZINormalEE12setDimensionEi@Base 1.6
 (optional=templinst)_ZN3pcl10ConvexHullINS_15PointXYZINormalEE20setComputeAreaVolumeEb@Base 1.6
 (optional=templinst)_ZN3pcl10ConvexHullINS_15PointXYZINormalEE21performReconstructionERNS_10PointCloudIS1_EERSt6vectorINS_8VerticesESaIS7_EEb@Base 1.6
 (optional=templinst)_ZN3pcl10ConvexHullINS_15PointXYZINormalEE21performReconstructionERNS_11PolygonMeshE@Base 1.6
 (optional=templinst)_ZN3pcl10ConvexHullINS_15PointXYZINormalEE21performReconstructionERSt6vectorINS_8VerticesESaIS4_EE@Base 1.6
 (optional=templinst)_ZN3pcl10ConvexHullINS_15PointXYZINormalEE23calculateInputDimensionEv@Base 1.6
 (optional=templinst)_ZN3pcl10ConvexHullINS_15PointXYZINormalEE23performReconstruction2DERNS_10PointCloudIS1_EERSt6vectorINS_8VerticesESaIS7_EEb@Base 1.6
 (optional=templinst)_ZN3pcl10ConvexHullINS_15PointXYZINormalEE23performReconstruction3DERNS_10PointCloudIS1_EERSt6vectorINS_8VerticesESaIS7_EEb@Base 1.6
 (optional=templinst)_ZN3pcl10ConvexHullINS_15PointXYZINormalEEC1Ev@Base 1.6
 (optional=templinst)_ZN3pcl10ConvexHullINS_15PointXYZINormalEEC2Ev@Base 1.6
 (optional=templinst)_ZN3pcl10ConvexHullINS_15PointXYZINormalEED0Ev@Base 1.6
 (optional=templinst)_ZN3pcl10ConvexHullINS_15PointXYZINormalEED1Ev@Base 1.6
 (optional=templinst)_ZN3pcl10ConvexHullINS_15PointXYZINormalEED2Ev@Base 1.6
 _ZN3pcl10ConvexHullINS_15PointXYZINormalEEdaEPv@Base 1.6
 _ZN3pcl10ConvexHullINS_15PointXYZINormalEEdlEPv@Base 1.6
 _ZN3pcl10ConvexHullINS_15PointXYZINormalEEdlEPvRKSt9nothrow_t@Base 1.6
 _ZN3pcl10ConvexHullINS_15PointXYZINormalEEdlEPvS3_@Base 1.6
 _ZN3pcl10ConvexHullINS_15PointXYZINormalEEnaEm@Base 1.6
 _ZN3pcl10ConvexHullINS_15PointXYZINormalEEnwEm@Base 1.6
 _ZN3pcl10ConvexHullINS_15PointXYZINormalEEnwEmPv@Base 1.6
 _ZN3pcl10ConvexHullINS_15PointXYZINormalEEnwEmRKSt9nothrow_t@Base 1.6
 (optional=templinst)_ZN3pcl10ConvexHullINS_17PointXYZRGBNormalEE11reconstructERNS_10PointCloudIS1_EE@Base 1.6
 (optional=templinst)_ZN3pcl10ConvexHullINS_17PointXYZRGBNormalEE11reconstructERNS_10PointCloudIS1_EERSt6vectorINS_8VerticesESaIS7_EE@Base 1.6
 (optional=templinst)_ZN3pcl10ConvexHullINS_17PointXYZRGBNormalEE12setDimensionEi@Base 1.6
 (optional=templinst)_ZN3pcl10ConvexHullINS_17PointXYZRGBNormalEE20setComputeAreaVolumeEb@Base 1.6
 (optional=templinst)_ZN3pcl10ConvexHullINS_17PointXYZRGBNormalEE21performReconstructionERNS_10PointCloudIS1_EERSt6vectorINS_8VerticesESaIS7_EEb@Base 1.6
 (optional=templinst)_ZN3pcl10ConvexHullINS_17PointXYZRGBNormalEE21performReconstructionERNS_11PolygonMeshE@Base 1.6
 (optional=templinst)_ZN3pcl10ConvexHullINS_17PointXYZRGBNormalEE21performReconstructionERSt6vectorINS_8VerticesESaIS4_EE@Base 1.6
 (optional=templinst)_ZN3pcl10ConvexHullINS_17PointXYZRGBNormalEE23calculateInputDimensionEv@Base 1.6
 (optional=templinst)_ZN3pcl10ConvexHullINS_17PointXYZRGBNormalEE23performReconstruction2DERNS_10PointCloudIS1_EERSt6vectorINS_8VerticesESaIS7_EEb@Base 1.6
 (optional=templinst)_ZN3pcl10ConvexHullINS_17PointXYZRGBNormalEE23performReconstruction3DERNS_10PointCloudIS1_EERSt6vectorINS_8VerticesESaIS7_EEb@Base 1.6
 (optional=templinst)_ZN3pcl10ConvexHullINS_17PointXYZRGBNormalEEC1Ev@Base 1.6
 (optional=templinst)_ZN3pcl10ConvexHullINS_17PointXYZRGBNormalEEC2Ev@Base 1.6
 (optional=templinst)_ZN3pcl10ConvexHullINS_17PointXYZRGBNormalEED0Ev@Base 1.6
 (optional=templinst)_ZN3pcl10ConvexHullINS_17PointXYZRGBNormalEED1Ev@Base 1.6
 (optional=templinst)_ZN3pcl10ConvexHullINS_17PointXYZRGBNormalEED2Ev@Base 1.6
 _ZN3pcl10ConvexHullINS_17PointXYZRGBNormalEEdaEPv@Base 1.6
 _ZN3pcl10ConvexHullINS_17PointXYZRGBNormalEEdlEPv@Base 1.6
 _ZN3pcl10ConvexHullINS_17PointXYZRGBNormalEEdlEPvRKSt9nothrow_t@Base 1.6
 _ZN3pcl10ConvexHullINS_17PointXYZRGBNormalEEdlEPvS3_@Base 1.6
 _ZN3pcl10ConvexHullINS_17PointXYZRGBNormalEEnaEm@Base 1.6
 _ZN3pcl10ConvexHullINS_17PointXYZRGBNormalEEnwEm@Base 1.6
 _ZN3pcl10ConvexHullINS_17PointXYZRGBNormalEEnwEmPv@Base 1.6
 _ZN3pcl10ConvexHullINS_17PointXYZRGBNormalEEnwEmRKSt9nothrow_t@Base 1.6
 (optional=templinst)_ZN3pcl10ConvexHullINS_18PointWithViewpointEE11reconstructERNS_10PointCloudIS1_EE@Base 1.6
 (optional=templinst)_ZN3pcl10ConvexHullINS_18PointWithViewpointEE11reconstructERNS_10PointCloudIS1_EERSt6vectorINS_8VerticesESaIS7_EE@Base 1.6
 (optional=templinst)_ZN3pcl10ConvexHullINS_18PointWithViewpointEE12setDimensionEi@Base 1.6
 (optional=templinst)_ZN3pcl10ConvexHullINS_18PointWithViewpointEE20setComputeAreaVolumeEb@Base 1.6
 (optional=templinst)_ZN3pcl10ConvexHullINS_18PointWithViewpointEE21performReconstructionERNS_10PointCloudIS1_EERSt6vectorINS_8VerticesESaIS7_EEb@Base 1.6
 (optional=templinst)_ZN3pcl10ConvexHullINS_18PointWithViewpointEE21performReconstructionERNS_11PolygonMeshE@Base 1.6
 (optional=templinst)_ZN3pcl10ConvexHullINS_18PointWithViewpointEE21performReconstructionERSt6vectorINS_8VerticesESaIS4_EE@Base 1.6
 (optional=templinst)_ZN3pcl10ConvexHullINS_18PointWithViewpointEE23calculateInputDimensionEv@Base 1.6
 (optional=templinst)_ZN3pcl10ConvexHullINS_18PointWithViewpointEE23performReconstruction2DERNS_10PointCloudIS1_EERSt6vectorINS_8VerticesESaIS7_EEb@Base 1.6
 (optional=templinst)_ZN3pcl10ConvexHullINS_18PointWithViewpointEE23performReconstruction3DERNS_10PointCloudIS1_EERSt6vectorINS_8VerticesESaIS7_EEb@Base 1.6
 (optional=templinst)_ZN3pcl10ConvexHullINS_18PointWithViewpointEEC1Ev@Base 1.6
 (optional=templinst)_ZN3pcl10ConvexHullINS_18PointWithViewpointEEC2Ev@Base 1.6
 (optional=templinst)_ZN3pcl10ConvexHullINS_18PointWithViewpointEED0Ev@Base 1.6
 (optional=templinst)_ZN3pcl10ConvexHullINS_18PointWithViewpointEED1Ev@Base 1.6
 (optional=templinst)_ZN3pcl10ConvexHullINS_18PointWithViewpointEED2Ev@Base 1.6
 _ZN3pcl10ConvexHullINS_18PointWithViewpointEEdaEPv@Base 1.6
 _ZN3pcl10ConvexHullINS_18PointWithViewpointEEdlEPv@Base 1.6
 _ZN3pcl10ConvexHullINS_18PointWithViewpointEEdlEPvRKSt9nothrow_t@Base 1.6
 _ZN3pcl10ConvexHullINS_18PointWithViewpointEEdlEPvS3_@Base 1.6
 _ZN3pcl10ConvexHullINS_18PointWithViewpointEEnaEm@Base 1.6
 _ZN3pcl10ConvexHullINS_18PointWithViewpointEEnwEm@Base 1.6
 _ZN3pcl10ConvexHullINS_18PointWithViewpointEEnwEmPv@Base 1.6
 _ZN3pcl10ConvexHullINS_18PointWithViewpointEEnwEmRKSt9nothrow_t@Base 1.6
 (optional=templinst)_ZN3pcl10ConvexHullINS_8PointXYZEE11reconstructERNS_10PointCloudIS1_EE@Base 1.6
 (optional=templinst)_ZN3pcl10ConvexHullINS_8PointXYZEE11reconstructERNS_10PointCloudIS1_EERSt6vectorINS_8VerticesESaIS7_EE@Base 1.6
 (optional=templinst)_ZN3pcl10ConvexHullINS_8PointXYZEE12setDimensionEi@Base 1.6
 (optional=templinst)_ZN3pcl10ConvexHullINS_8PointXYZEE20setComputeAreaVolumeEb@Base 1.6
 (optional=templinst)_ZN3pcl10ConvexHullINS_8PointXYZEE21performReconstructionERNS_10PointCloudIS1_EERSt6vectorINS_8VerticesESaIS7_EEb@Base 1.6
 (optional=templinst)_ZN3pcl10ConvexHullINS_8PointXYZEE21performReconstructionERNS_11PolygonMeshE@Base 1.6
 (optional=templinst)_ZN3pcl10ConvexHullINS_8PointXYZEE21performReconstructionERSt6vectorINS_8VerticesESaIS4_EE@Base 1.6
 (optional=templinst)_ZN3pcl10ConvexHullINS_8PointXYZEE23calculateInputDimensionEv@Base 1.6
 (optional=templinst)_ZN3pcl10ConvexHullINS_8PointXYZEE23performReconstruction2DERNS_10PointCloudIS1_EERSt6vectorINS_8VerticesESaIS7_EEb@Base 1.6
 (optional=templinst)_ZN3pcl10ConvexHullINS_8PointXYZEE23performReconstruction3DERNS_10PointCloudIS1_EERSt6vectorINS_8VerticesESaIS7_EEb@Base 1.6
 (optional=templinst)_ZN3pcl10ConvexHullINS_8PointXYZEEC1Ev@Base 1.6
 (optional=templinst)_ZN3pcl10ConvexHullINS_8PointXYZEEC2Ev@Base 1.6
 (optional=templinst)_ZN3pcl10ConvexHullINS_8PointXYZEED0Ev@Base 1.6
 (optional=templinst)_ZN3pcl10ConvexHullINS_8PointXYZEED1Ev@Base 1.6
 (optional=templinst)_ZN3pcl10ConvexHullINS_8PointXYZEED2Ev@Base 1.6
 _ZN3pcl10ConvexHullINS_8PointXYZEEdaEPv@Base 1.6
 _ZN3pcl10ConvexHullINS_8PointXYZEEdlEPv@Base 1.6
 _ZN3pcl10ConvexHullINS_8PointXYZEEdlEPvRKSt9nothrow_t@Base 1.6
 _ZN3pcl10ConvexHullINS_8PointXYZEEdlEPvS3_@Base 1.6
 _ZN3pcl10ConvexHullINS_8PointXYZEEnaEm@Base 1.6
 _ZN3pcl10ConvexHullINS_8PointXYZEEnwEm@Base 1.6
 _ZN3pcl10ConvexHullINS_8PointXYZEEnwEmPv@Base 1.6
 _ZN3pcl10ConvexHullINS_8PointXYZEEnwEmRKSt9nothrow_t@Base 1.6
 (optional=templinst)_ZN3pcl10ConvexHullINS_9PointXYZIEE11reconstructERNS_10PointCloudIS1_EE@Base 1.6
 (optional=templinst)_ZN3pcl10ConvexHullINS_9PointXYZIEE11reconstructERNS_10PointCloudIS1_EERSt6vectorINS_8VerticesESaIS7_EE@Base 1.6
 (optional=templinst)_ZN3pcl10ConvexHullINS_9PointXYZIEE12setDimensionEi@Base 1.6
 (optional=templinst)_ZN3pcl10ConvexHullINS_9PointXYZIEE20setComputeAreaVolumeEb@Base 1.6
 (optional=templinst)_ZN3pcl10ConvexHullINS_9PointXYZIEE21performReconstructionERNS_10PointCloudIS1_EERSt6vectorINS_8VerticesESaIS7_EEb@Base 1.6
 (optional=templinst)_ZN3pcl10ConvexHullINS_9PointXYZIEE21performReconstructionERNS_11PolygonMeshE@Base 1.6
 (optional=templinst)_ZN3pcl10ConvexHullINS_9PointXYZIEE21performReconstructionERSt6vectorINS_8VerticesESaIS4_EE@Base 1.6
 (optional=templinst)_ZN3pcl10ConvexHullINS_9PointXYZIEE23calculateInputDimensionEv@Base 1.6
 (optional=templinst)_ZN3pcl10ConvexHullINS_9PointXYZIEE23performReconstruction2DERNS_10PointCloudIS1_EERSt6vectorINS_8VerticesESaIS7_EEb@Base 1.6
 (optional=templinst)_ZN3pcl10ConvexHullINS_9PointXYZIEE23performReconstruction3DERNS_10PointCloudIS1_EERSt6vectorINS_8VerticesESaIS7_EEb@Base 1.6
 (optional=templinst)_ZN3pcl10ConvexHullINS_9PointXYZIEEC1Ev@Base 1.6
 (optional=templinst)_ZN3pcl10ConvexHullINS_9PointXYZIEEC2Ev@Base 1.6
 (optional=templinst)_ZN3pcl10ConvexHullINS_9PointXYZIEED0Ev@Base 1.6
 (optional=templinst)_ZN3pcl10ConvexHullINS_9PointXYZIEED1Ev@Base 1.6
 (optional=templinst)_ZN3pcl10ConvexHullINS_9PointXYZIEED2Ev@Base 1.6
 _ZN3pcl10ConvexHullINS_9PointXYZIEEdaEPv@Base 1.6
 _ZN3pcl10ConvexHullINS_9PointXYZIEEdlEPv@Base 1.6
 _ZN3pcl10ConvexHullINS_9PointXYZIEEdlEPvRKSt9nothrow_t@Base 1.6
 _ZN3pcl10ConvexHullINS_9PointXYZIEEdlEPvS3_@Base 1.6
 _ZN3pcl10ConvexHullINS_9PointXYZIEEnaEm@Base 1.6
 _ZN3pcl10ConvexHullINS_9PointXYZIEEnwEm@Base 1.6
 _ZN3pcl10ConvexHullINS_9PointXYZIEEnwEmPv@Base 1.6
 _ZN3pcl10ConvexHullINS_9PointXYZIEEnwEmRKSt9nothrow_t@Base 1.6
 (optional=templinst)_ZN3pcl10ConvexHullINS_9PointXYZLEE11reconstructERNS_10PointCloudIS1_EE@Base 1.6
 (optional=templinst)_ZN3pcl10ConvexHullINS_9PointXYZLEE11reconstructERNS_10PointCloudIS1_EERSt6vectorINS_8VerticesESaIS7_EE@Base 1.6
 (optional=templinst)_ZN3pcl10ConvexHullINS_9PointXYZLEE12setDimensionEi@Base 1.6
 (optional=templinst)_ZN3pcl10ConvexHullINS_9PointXYZLEE20setComputeAreaVolumeEb@Base 1.6
 (optional=templinst)_ZN3pcl10ConvexHullINS_9PointXYZLEE21performReconstructionERNS_10PointCloudIS1_EERSt6vectorINS_8VerticesESaIS7_EEb@Base 1.6
 (optional=templinst)_ZN3pcl10ConvexHullINS_9PointXYZLEE21performReconstructionERNS_11PolygonMeshE@Base 1.6
 (optional=templinst)_ZN3pcl10ConvexHullINS_9PointXYZLEE21performReconstructionERSt6vectorINS_8VerticesESaIS4_EE@Base 1.6
 (optional=templinst)_ZN3pcl10ConvexHullINS_9PointXYZLEE23calculateInputDimensionEv@Base 1.6
 (optional=templinst)_ZN3pcl10ConvexHullINS_9PointXYZLEE23performReconstruction2DERNS_10PointCloudIS1_EERSt6vectorINS_8VerticesESaIS7_EEb@Base 1.6
 (optional=templinst)_ZN3pcl10ConvexHullINS_9PointXYZLEE23performReconstruction3DERNS_10PointCloudIS1_EERSt6vectorINS_8VerticesESaIS7_EEb@Base 1.6
 (optional=templinst)_ZN3pcl10ConvexHullINS_9PointXYZLEEC1Ev@Base 1.6
 (optional=templinst)_ZN3pcl10ConvexHullINS_9PointXYZLEEC2Ev@Base 1.6
 (optional=templinst)_ZN3pcl10ConvexHullINS_9PointXYZLEED0Ev@Base 1.6
 (optional=templinst)_ZN3pcl10ConvexHullINS_9PointXYZLEED1Ev@Base 1.6
 (optional=templinst)_ZN3pcl10ConvexHullINS_9PointXYZLEED2Ev@Base 1.6
 _ZN3pcl10ConvexHullINS_9PointXYZLEEdaEPv@Base 1.6
 _ZN3pcl10ConvexHullINS_9PointXYZLEEdlEPv@Base 1.6
 _ZN3pcl10ConvexHullINS_9PointXYZLEEdlEPvRKSt9nothrow_t@Base 1.6
 _ZN3pcl10ConvexHullINS_9PointXYZLEEdlEPvS3_@Base 1.6
 _ZN3pcl10ConvexHullINS_9PointXYZLEEnaEm@Base 1.6
 _ZN3pcl10ConvexHullINS_9PointXYZLEEnwEm@Base 1.6
 _ZN3pcl10ConvexHullINS_9PointXYZLEEnwEmPv@Base 1.6
 _ZN3pcl10ConvexHullINS_9PointXYZLEEnwEmRKSt9nothrow_t@Base 1.6
 (optional=templinst)_ZN3pcl10PointCloudINS_11PointNormalEE9push_backERKS1_@Base 1.6
 (optional=templinst)_ZN3pcl10PointCloudINS_11PointNormalEEC1ERKS2_@Base 1.6
 (optional=templinst)_ZN3pcl10PointCloudINS_11PointNormalEEC1ERS2_@Base 1.6
 (optional=templinst)_ZN3pcl10PointCloudINS_11PointNormalEEC1Ev@Base 1.6
 (optional=templinst)_ZN3pcl10PointCloudINS_11PointNormalEEC2ERKS2_@Base 1.6
 (optional=templinst)_ZN3pcl10PointCloudINS_11PointNormalEEC2ERS2_@Base 1.6
 (optional=templinst)_ZN3pcl10PointCloudINS_11PointNormalEEC2Ev@Base 1.6
 (optional=templinst)_ZN3pcl10PointCloudINS_11PointNormalEED0Ev@Base 1.6
 (optional=templinst)_ZN3pcl10PointCloudINS_11PointNormalEED1Ev@Base 1.6
 (optional=templinst)_ZN3pcl10PointCloudINS_11PointNormalEED2Ev@Base 1.6
 (optional=templinst)_ZN3pcl10PointCloudINS_11PointNormalEEaSERKS2_@Base 1.6
 (optional=templinst)_ZN3pcl10PointCloudINS_11PointXYZHSVEEC1ERKS2_@Base 1.6
 (optional=templinst)_ZN3pcl10PointCloudINS_11PointXYZHSVEEC1Ev@Base 1.6
 (optional=templinst)_ZN3pcl10PointCloudINS_11PointXYZHSVEEC2ERKS2_@Base 1.6
 (optional=templinst)_ZN3pcl10PointCloudINS_11PointXYZHSVEEC2Ev@Base 1.6
 (optional=templinst)_ZN3pcl10PointCloudINS_11PointXYZHSVEED0Ev@Base 1.6
 (optional=templinst)_ZN3pcl10PointCloudINS_11PointXYZHSVEED1Ev@Base 1.6
 (optional=templinst)_ZN3pcl10PointCloudINS_11PointXYZHSVEED2Ev@Base 1.6
 (optional=templinst)_ZN3pcl10PointCloudINS_11PointXYZHSVEEaSERKS2_@Base 1.6
 (optional=templinst)_ZN3pcl10PointCloudINS_11PointXYZRGBEE9push_backERKS1_@Base 1.6
 (optional=templinst)_ZN3pcl10PointCloudINS_11PointXYZRGBEEC1ERKS2_@Base 1.6
 (optional=templinst)_ZN3pcl10PointCloudINS_11PointXYZRGBEEC1Ev@Base 1.6
 (optional=templinst)_ZN3pcl10PointCloudINS_11PointXYZRGBEEC2ERKS2_@Base 1.6
 (optional=templinst)_ZN3pcl10PointCloudINS_11PointXYZRGBEEC2Ev@Base 1.6
 (optional=templinst)_ZN3pcl10PointCloudINS_11PointXYZRGBEED0Ev@Base 1.6
 (optional=templinst)_ZN3pcl10PointCloudINS_11PointXYZRGBEED1Ev@Base 1.6
 (optional=templinst)_ZN3pcl10PointCloudINS_11PointXYZRGBEED2Ev@Base 1.6
 (optional=templinst)_ZN3pcl10PointCloudINS_11PointXYZRGBEEaSERKS2_@Base 1.6
 (optional=templinst)_ZN3pcl10PointCloudINS_12PointXYZRGBAEE9push_backERKS1_@Base 1.6
 (optional=templinst)_ZN3pcl10PointCloudINS_12PointXYZRGBAEEC1ERKS2_@Base 1.6
 (optional=templinst)_ZN3pcl10PointCloudINS_12PointXYZRGBAEEC1Ev@Base 1.6
 (optional=templinst)_ZN3pcl10PointCloudINS_12PointXYZRGBAEEC2ERKS2_@Base 1.6
 (optional=templinst)_ZN3pcl10PointCloudINS_12PointXYZRGBAEEC2Ev@Base 1.6
 (optional=templinst)_ZN3pcl10PointCloudINS_12PointXYZRGBAEED0Ev@Base 1.6
 (optional=templinst)_ZN3pcl10PointCloudINS_12PointXYZRGBAEED1Ev@Base 1.6
 (optional=templinst)_ZN3pcl10PointCloudINS_12PointXYZRGBAEED2Ev@Base 1.6
 (optional=templinst)_ZN3pcl10PointCloudINS_12PointXYZRGBAEEaSERKS2_@Base 1.6
 (optional=templinst)_ZN3pcl10PointCloudINS_12PointXYZRGBLEEC1ERKS2_@Base 1.6
 (optional=templinst)_ZN3pcl10PointCloudINS_12PointXYZRGBLEEC1Ev@Base 1.6
 (optional=templinst)_ZN3pcl10PointCloudINS_12PointXYZRGBLEEC2ERKS2_@Base 1.6
 (optional=templinst)_ZN3pcl10PointCloudINS_12PointXYZRGBLEEC2Ev@Base 1.6
 (optional=templinst)_ZN3pcl10PointCloudINS_12PointXYZRGBLEED0Ev@Base 1.6
 (optional=templinst)_ZN3pcl10PointCloudINS_12PointXYZRGBLEED1Ev@Base 1.6
 (optional=templinst)_ZN3pcl10PointCloudINS_12PointXYZRGBLEED2Ev@Base 1.6
 (optional=templinst)_ZN3pcl10PointCloudINS_12PointXYZRGBLEEaSERKS2_@Base 1.6
 (optional=templinst)_ZN3pcl10PointCloudINS_13InterestPointEEC1ERKS2_@Base 1.6
 (optional=templinst)_ZN3pcl10PointCloudINS_13InterestPointEEC1Ev@Base 1.6
 (optional=templinst)_ZN3pcl10PointCloudINS_13InterestPointEEC2ERKS2_@Base 1.6
 (optional=templinst)_ZN3pcl10PointCloudINS_13InterestPointEEC2Ev@Base 1.6
 (optional=templinst)_ZN3pcl10PointCloudINS_13InterestPointEED0Ev@Base 1.6
 (optional=templinst)_ZN3pcl10PointCloudINS_13InterestPointEED1Ev@Base 1.6
 (optional=templinst)_ZN3pcl10PointCloudINS_13InterestPointEED2Ev@Base 1.6
 (optional=templinst)_ZN3pcl10PointCloudINS_13InterestPointEEaSERKS2_@Base 1.6
 (optional=templinst)_ZN3pcl10PointCloudINS_14PointWithRangeEEC1ERKS2_@Base 1.6
 (optional=templinst)_ZN3pcl10PointCloudINS_14PointWithRangeEEC1Ev@Base 1.6
 (optional=templinst)_ZN3pcl10PointCloudINS_14PointWithRangeEEC2ERKS2_@Base 1.6
 (optional=templinst)_ZN3pcl10PointCloudINS_14PointWithRangeEEC2Ev@Base 1.6
 (optional=templinst)_ZN3pcl10PointCloudINS_14PointWithRangeEED0Ev@Base 1.6
 (optional=templinst)_ZN3pcl10PointCloudINS_14PointWithRangeEED1Ev@Base 1.6
 (optional=templinst)_ZN3pcl10PointCloudINS_14PointWithRangeEED2Ev@Base 1.6
 (optional=templinst)_ZN3pcl10PointCloudINS_14PointWithRangeEEaSERKS2_@Base 1.6
 (optional=templinst)_ZN3pcl10PointCloudINS_14PointWithScaleEEC1ERKS2_@Base 1.6
 (optional=templinst)_ZN3pcl10PointCloudINS_14PointWithScaleEEC1Ev@Base 1.6
 (optional=templinst)_ZN3pcl10PointCloudINS_14PointWithScaleEEC2ERKS2_@Base 1.6
 (optional=templinst)_ZN3pcl10PointCloudINS_14PointWithScaleEEC2Ev@Base 1.6
 (optional=templinst)_ZN3pcl10PointCloudINS_14PointWithScaleEED0Ev@Base 1.6
 (optional=templinst)_ZN3pcl10PointCloudINS_14PointWithScaleEED1Ev@Base 1.6
 (optional=templinst)_ZN3pcl10PointCloudINS_14PointWithScaleEED2Ev@Base 1.6
 (optional=templinst)_ZN3pcl10PointCloudINS_14PointWithScaleEEaSERKS2_@Base 1.6
 (optional=templinst)_ZN3pcl10PointCloudINS_15PointXYZINormalEEC1ERKS2_@Base 1.6
 (optional=templinst)_ZN3pcl10PointCloudINS_15PointXYZINormalEEC1ERS2_@Base 1.6
 (optional=templinst)_ZN3pcl10PointCloudINS_15PointXYZINormalEEC1Ev@Base 1.6
 (optional=templinst)_ZN3pcl10PointCloudINS_15PointXYZINormalEEC2ERKS2_@Base 1.6
 (optional=templinst)_ZN3pcl10PointCloudINS_15PointXYZINormalEEC2ERS2_@Base 1.6
 (optional=templinst)_ZN3pcl10PointCloudINS_15PointXYZINormalEEC2Ev@Base 1.6
 (optional=templinst)_ZN3pcl10PointCloudINS_15PointXYZINormalEED0Ev@Base 1.6
 (optional=templinst)_ZN3pcl10PointCloudINS_15PointXYZINormalEED1Ev@Base 1.6
 (optional=templinst)_ZN3pcl10PointCloudINS_15PointXYZINormalEED2Ev@Base 1.6
 (optional=templinst)_ZN3pcl10PointCloudINS_15PointXYZINormalEEaSERKS2_@Base 1.6
 (optional=templinst)_ZN3pcl10PointCloudINS_17PointXYZRGBNormalEEC1ERKS2_@Base 1.6
 (optional=templinst)_ZN3pcl10PointCloudINS_17PointXYZRGBNormalEEC1ERS2_@Base 1.6
 (optional=templinst)_ZN3pcl10PointCloudINS_17PointXYZRGBNormalEEC1Ev@Base 1.6
 (optional=templinst)_ZN3pcl10PointCloudINS_17PointXYZRGBNormalEEC2ERKS2_@Base 1.6
 (optional=templinst)_ZN3pcl10PointCloudINS_17PointXYZRGBNormalEEC2ERS2_@Base 1.6
 (optional=templinst)_ZN3pcl10PointCloudINS_17PointXYZRGBNormalEEC2Ev@Base 1.6
 (optional=templinst)_ZN3pcl10PointCloudINS_17PointXYZRGBNormalEED0Ev@Base 1.6
 (optional=templinst)_ZN3pcl10PointCloudINS_17PointXYZRGBNormalEED1Ev@Base 1.6
 (optional=templinst)_ZN3pcl10PointCloudINS_17PointXYZRGBNormalEED2Ev@Base 1.6
 (optional=templinst)_ZN3pcl10PointCloudINS_17PointXYZRGBNormalEEaSERKS2_@Base 1.6
 (optional=templinst)_ZN3pcl10PointCloudINS_18PointWithViewpointEEC1ERKS2_@Base 1.6
 (optional=templinst)_ZN3pcl10PointCloudINS_18PointWithViewpointEEC1Ev@Base 1.6
 (optional=templinst)_ZN3pcl10PointCloudINS_18PointWithViewpointEEC2ERKS2_@Base 1.6
 (optional=templinst)_ZN3pcl10PointCloudINS_18PointWithViewpointEEC2Ev@Base 1.6
 (optional=templinst)_ZN3pcl10PointCloudINS_18PointWithViewpointEED0Ev@Base 1.6
 (optional=templinst)_ZN3pcl10PointCloudINS_18PointWithViewpointEED1Ev@Base 1.6
 (optional=templinst)_ZN3pcl10PointCloudINS_18PointWithViewpointEED2Ev@Base 1.6
 (optional=templinst)_ZN3pcl10PointCloudINS_18PointWithViewpointEEaSERKS2_@Base 1.6
 (optional=templinst)_ZN3pcl10PointCloudINS_6NormalEE9push_backERKS1_@Base 1.6
 (optional=templinst)_ZN3pcl10PointCloudINS_6NormalEEC1ERS2_@Base 1.6
 (optional=templinst)_ZN3pcl10PointCloudINS_6NormalEEC1Ev@Base 1.6
 (optional=templinst)_ZN3pcl10PointCloudINS_6NormalEEC2ERS2_@Base 1.6
 (optional=templinst)_ZN3pcl10PointCloudINS_6NormalEEC2Ev@Base 1.6
 (optional=templinst)_ZN3pcl10PointCloudINS_6NormalEED0Ev@Base 1.6
 (optional=templinst)_ZN3pcl10PointCloudINS_6NormalEED1Ev@Base 1.6
 (optional=templinst)_ZN3pcl10PointCloudINS_6NormalEED2Ev@Base 1.6
 (optional=templinst)_ZN3pcl10PointCloudINS_6NormalEEaSERKS2_@Base 1.6
 (optional=templinst)_ZN3pcl10PointCloudINS_7PointXYEED0Ev@Base 1.6
 (optional=templinst)_ZN3pcl10PointCloudINS_7PointXYEED1Ev@Base 1.6
 (optional=templinst)_ZN3pcl10PointCloudINS_7PointXYEED2Ev@Base 1.6
 (optional=templinst)_ZN3pcl10PointCloudINS_8PointXYZEE9push_backERKS1_@Base 1.6
 (optional=templinst)_ZN3pcl10PointCloudINS_8PointXYZEEC1ERKS2_@Base 1.6
 (optional=templinst)_ZN3pcl10PointCloudINS_8PointXYZEEC1Ev@Base 1.6
 (optional=templinst)_ZN3pcl10PointCloudINS_8PointXYZEEC2ERKS2_@Base 1.6
 (optional=templinst)_ZN3pcl10PointCloudINS_8PointXYZEEC2Ev@Base 1.6
 (optional=templinst)_ZN3pcl10PointCloudINS_8PointXYZEED0Ev@Base 1.6
 (optional=templinst)_ZN3pcl10PointCloudINS_8PointXYZEED1Ev@Base 1.6
 (optional=templinst)_ZN3pcl10PointCloudINS_8PointXYZEED2Ev@Base 1.6
 (optional=templinst)_ZN3pcl10PointCloudINS_8PointXYZEEaSERKS2_@Base 1.6
 (optional=templinst)_ZN3pcl10PointCloudINS_9PointXYZIEEC1ERKS2_@Base 1.6
 (optional=templinst)_ZN3pcl10PointCloudINS_9PointXYZIEEC1Ev@Base 1.6
 (optional=templinst)_ZN3pcl10PointCloudINS_9PointXYZIEEC2ERKS2_@Base 1.6
 (optional=templinst)_ZN3pcl10PointCloudINS_9PointXYZIEEC2Ev@Base 1.6
 (optional=templinst)_ZN3pcl10PointCloudINS_9PointXYZIEED0Ev@Base 1.6
 (optional=templinst)_ZN3pcl10PointCloudINS_9PointXYZIEED1Ev@Base 1.6
 (optional=templinst)_ZN3pcl10PointCloudINS_9PointXYZIEED2Ev@Base 1.6
 (optional=templinst)_ZN3pcl10PointCloudINS_9PointXYZIEEaSERKS2_@Base 1.6
 (optional=templinst)_ZN3pcl10PointCloudINS_9PointXYZLEEC1ERKS2_@Base 1.6
 (optional=templinst)_ZN3pcl10PointCloudINS_9PointXYZLEEC1Ev@Base 1.6
 (optional=templinst)_ZN3pcl10PointCloudINS_9PointXYZLEEC2ERKS2_@Base 1.6
 (optional=templinst)_ZN3pcl10PointCloudINS_9PointXYZLEEC2Ev@Base 1.6
 (optional=templinst)_ZN3pcl10PointCloudINS_9PointXYZLEED0Ev@Base 1.6
 (optional=templinst)_ZN3pcl10PointCloudINS_9PointXYZLEED1Ev@Base 1.6
 (optional=templinst)_ZN3pcl10PointCloudINS_9PointXYZLEED2Ev@Base 1.6
 (optional=templinst)_ZN3pcl10PointCloudINS_9PointXYZLEEaSERKS2_@Base 1.6
 (optional=templinst)_ZN3pcl10fromROSMsgINS_8PointXYZEEEvRKN11sensor_msgs11PointCloud2ERNS_10PointCloudIT_EE@Base 1.6
 (optional=templinst)_ZN3pcl10fromROSMsgINS_8PointXYZEEEvRKN11sensor_msgs11PointCloud2ERNS_10PointCloudIT_EERKSt6vectorINS_6detail12FieldMappingESaISC_EE@Base 1.6
 (optional=templinst)_ZN3pcl11ConcaveHullINS_11PointNormalEE11reconstructERNS_10PointCloudIS1_EE@Base 1.6
 (optional=templinst)_ZN3pcl11ConcaveHullINS_11PointNormalEE11reconstructERNS_10PointCloudIS1_EERSt6vectorINS_8VerticesESaIS7_EE@Base 1.6
 (optional=templinst)_ZN3pcl11ConcaveHullINS_11PointNormalEE12setDimensionEi@Base 1.6
 (optional=templinst)_ZN3pcl11ConcaveHullINS_11PointNormalEE17setVoronoiCentersEN5boost10shared_ptrINS_10PointCloudIS1_EEEE@Base 1.6
 (optional=templinst)_ZN3pcl11ConcaveHullINS_11PointNormalEE18setKeepInformationEb@Base 1.6
 (optional=templinst)_ZN3pcl11ConcaveHullINS_11PointNormalEE21performReconstructionERNS_10PointCloudIS1_EERSt6vectorINS_8VerticesESaIS7_EE@Base 1.6
 (optional=templinst)_ZN3pcl11ConcaveHullINS_11PointNormalEE21performReconstructionERNS_11PolygonMeshE@Base 1.6
 (optional=templinst)_ZN3pcl11ConcaveHullINS_11PointNormalEE21performReconstructionERSt6vectorINS_8VerticesESaIS4_EE@Base 1.6
 (optional=templinst)_ZN3pcl11ConcaveHullINS_11PointNormalEE8getAlphaEv@Base 1.6
 (optional=templinst)_ZN3pcl11ConcaveHullINS_11PointNormalEE8setAlphaEd@Base 1.6
 (optional=templinst)_ZN3pcl11ConcaveHullINS_11PointNormalEEC1Ev@Base 1.6
 (optional=templinst)_ZN3pcl11ConcaveHullINS_11PointNormalEEC2Ev@Base 1.6
 (optional=templinst)_ZN3pcl11ConcaveHullINS_11PointNormalEED0Ev@Base 1.6
 (optional=templinst)_ZN3pcl11ConcaveHullINS_11PointNormalEED1Ev@Base 1.6
 (optional=templinst)_ZN3pcl11ConcaveHullINS_11PointNormalEED2Ev@Base 1.6
 (optional=templinst)_ZN3pcl11ConcaveHullINS_11PointXYZHSVEE11reconstructERNS_10PointCloudIS1_EE@Base 1.6
 (optional=templinst)_ZN3pcl11ConcaveHullINS_11PointXYZHSVEE11reconstructERNS_10PointCloudIS1_EERSt6vectorINS_8VerticesESaIS7_EE@Base 1.6
 (optional=templinst)_ZN3pcl11ConcaveHullINS_11PointXYZHSVEE12setDimensionEi@Base 1.6
 (optional=templinst)_ZN3pcl11ConcaveHullINS_11PointXYZHSVEE17setVoronoiCentersEN5boost10shared_ptrINS_10PointCloudIS1_EEEE@Base 1.6
 (optional=templinst)_ZN3pcl11ConcaveHullINS_11PointXYZHSVEE18setKeepInformationEb@Base 1.6
 (optional=templinst)_ZN3pcl11ConcaveHullINS_11PointXYZHSVEE21performReconstructionERNS_10PointCloudIS1_EERSt6vectorINS_8VerticesESaIS7_EE@Base 1.6
 (optional=templinst)_ZN3pcl11ConcaveHullINS_11PointXYZHSVEE21performReconstructionERNS_11PolygonMeshE@Base 1.6
 (optional=templinst)_ZN3pcl11ConcaveHullINS_11PointXYZHSVEE21performReconstructionERSt6vectorINS_8VerticesESaIS4_EE@Base 1.6
 (optional=templinst)_ZN3pcl11ConcaveHullINS_11PointXYZHSVEE8getAlphaEv@Base 1.6
 (optional=templinst)_ZN3pcl11ConcaveHullINS_11PointXYZHSVEE8setAlphaEd@Base 1.6
 (optional=templinst)_ZN3pcl11ConcaveHullINS_11PointXYZHSVEEC1Ev@Base 1.6
 (optional=templinst)_ZN3pcl11ConcaveHullINS_11PointXYZHSVEEC2Ev@Base 1.6
 (optional=templinst)_ZN3pcl11ConcaveHullINS_11PointXYZHSVEED0Ev@Base 1.6
 (optional=templinst)_ZN3pcl11ConcaveHullINS_11PointXYZHSVEED1Ev@Base 1.6
 (optional=templinst)_ZN3pcl11ConcaveHullINS_11PointXYZHSVEED2Ev@Base 1.6
 (optional=templinst)_ZN3pcl11ConcaveHullINS_11PointXYZRGBEE11reconstructERNS_10PointCloudIS1_EE@Base 1.6
 (optional=templinst)_ZN3pcl11ConcaveHullINS_11PointXYZRGBEE11reconstructERNS_10PointCloudIS1_EERSt6vectorINS_8VerticesESaIS7_EE@Base 1.6
 (optional=templinst)_ZN3pcl11ConcaveHullINS_11PointXYZRGBEE12setDimensionEi@Base 1.6
 (optional=templinst)_ZN3pcl11ConcaveHullINS_11PointXYZRGBEE17setVoronoiCentersEN5boost10shared_ptrINS_10PointCloudIS1_EEEE@Base 1.6
 (optional=templinst)_ZN3pcl11ConcaveHullINS_11PointXYZRGBEE18setKeepInformationEb@Base 1.6
 (optional=templinst)_ZN3pcl11ConcaveHullINS_11PointXYZRGBEE21performReconstructionERNS_10PointCloudIS1_EERSt6vectorINS_8VerticesESaIS7_EE@Base 1.6
 (optional=templinst)_ZN3pcl11ConcaveHullINS_11PointXYZRGBEE21performReconstructionERNS_11PolygonMeshE@Base 1.6
 (optional=templinst)_ZN3pcl11ConcaveHullINS_11PointXYZRGBEE21performReconstructionERSt6vectorINS_8VerticesESaIS4_EE@Base 1.6
 (optional=templinst)_ZN3pcl11ConcaveHullINS_11PointXYZRGBEE8getAlphaEv@Base 1.6
 (optional=templinst)_ZN3pcl11ConcaveHullINS_11PointXYZRGBEE8setAlphaEd@Base 1.6
 (optional=templinst)_ZN3pcl11ConcaveHullINS_11PointXYZRGBEEC1Ev@Base 1.6
 (optional=templinst)_ZN3pcl11ConcaveHullINS_11PointXYZRGBEEC2Ev@Base 1.6
 (optional=templinst)_ZN3pcl11ConcaveHullINS_11PointXYZRGBEED0Ev@Base 1.6
 (optional=templinst)_ZN3pcl11ConcaveHullINS_11PointXYZRGBEED1Ev@Base 1.6
 (optional=templinst)_ZN3pcl11ConcaveHullINS_11PointXYZRGBEED2Ev@Base 1.6
 (optional=templinst)_ZN3pcl11ConcaveHullINS_12PointXYZRGBAEE11reconstructERNS_10PointCloudIS1_EE@Base 1.6
 (optional=templinst)_ZN3pcl11ConcaveHullINS_12PointXYZRGBAEE11reconstructERNS_10PointCloudIS1_EERSt6vectorINS_8VerticesESaIS7_EE@Base 1.6
 (optional=templinst)_ZN3pcl11ConcaveHullINS_12PointXYZRGBAEE12setDimensionEi@Base 1.6
 (optional=templinst)_ZN3pcl11ConcaveHullINS_12PointXYZRGBAEE17setVoronoiCentersEN5boost10shared_ptrINS_10PointCloudIS1_EEEE@Base 1.6
 (optional=templinst)_ZN3pcl11ConcaveHullINS_12PointXYZRGBAEE18setKeepInformationEb@Base 1.6
 (optional=templinst)_ZN3pcl11ConcaveHullINS_12PointXYZRGBAEE21performReconstructionERNS_10PointCloudIS1_EERSt6vectorINS_8VerticesESaIS7_EE@Base 1.6
 (optional=templinst)_ZN3pcl11ConcaveHullINS_12PointXYZRGBAEE21performReconstructionERNS_11PolygonMeshE@Base 1.6
 (optional=templinst)_ZN3pcl11ConcaveHullINS_12PointXYZRGBAEE21performReconstructionERSt6vectorINS_8VerticesESaIS4_EE@Base 1.6
 (optional=templinst)_ZN3pcl11ConcaveHullINS_12PointXYZRGBAEE8getAlphaEv@Base 1.6
 (optional=templinst)_ZN3pcl11ConcaveHullINS_12PointXYZRGBAEE8setAlphaEd@Base 1.6
 (optional=templinst)_ZN3pcl11ConcaveHullINS_12PointXYZRGBAEEC1Ev@Base 1.6
 (optional=templinst)_ZN3pcl11ConcaveHullINS_12PointXYZRGBAEEC2Ev@Base 1.6
 (optional=templinst)_ZN3pcl11ConcaveHullINS_12PointXYZRGBAEED0Ev@Base 1.6
 (optional=templinst)_ZN3pcl11ConcaveHullINS_12PointXYZRGBAEED1Ev@Base 1.6
 (optional=templinst)_ZN3pcl11ConcaveHullINS_12PointXYZRGBAEED2Ev@Base 1.6
 (optional=templinst)_ZN3pcl11ConcaveHullINS_12PointXYZRGBLEE11reconstructERNS_10PointCloudIS1_EE@Base 1.6
 (optional=templinst)_ZN3pcl11ConcaveHullINS_12PointXYZRGBLEE11reconstructERNS_10PointCloudIS1_EERSt6vectorINS_8VerticesESaIS7_EE@Base 1.6
 (optional=templinst)_ZN3pcl11ConcaveHullINS_12PointXYZRGBLEE12setDimensionEi@Base 1.6
 (optional=templinst)_ZN3pcl11ConcaveHullINS_12PointXYZRGBLEE17setVoronoiCentersEN5boost10shared_ptrINS_10PointCloudIS1_EEEE@Base 1.6
 (optional=templinst)_ZN3pcl11ConcaveHullINS_12PointXYZRGBLEE18setKeepInformationEb@Base 1.6
 (optional=templinst)_ZN3pcl11ConcaveHullINS_12PointXYZRGBLEE21performReconstructionERNS_10PointCloudIS1_EERSt6vectorINS_8VerticesESaIS7_EE@Base 1.6
 (optional=templinst)_ZN3pcl11ConcaveHullINS_12PointXYZRGBLEE21performReconstructionERNS_11PolygonMeshE@Base 1.6
 (optional=templinst)_ZN3pcl11ConcaveHullINS_12PointXYZRGBLEE21performReconstructionERSt6vectorINS_8VerticesESaIS4_EE@Base 1.6
 (optional=templinst)_ZN3pcl11ConcaveHullINS_12PointXYZRGBLEE8getAlphaEv@Base 1.6
 (optional=templinst)_ZN3pcl11ConcaveHullINS_12PointXYZRGBLEE8setAlphaEd@Base 1.6
 (optional=templinst)_ZN3pcl11ConcaveHullINS_12PointXYZRGBLEEC1Ev@Base 1.6
 (optional=templinst)_ZN3pcl11ConcaveHullINS_12PointXYZRGBLEEC2Ev@Base 1.6
 (optional=templinst)_ZN3pcl11ConcaveHullINS_12PointXYZRGBLEED0Ev@Base 1.6
 (optional=templinst)_ZN3pcl11ConcaveHullINS_12PointXYZRGBLEED1Ev@Base 1.6
 (optional=templinst)_ZN3pcl11ConcaveHullINS_12PointXYZRGBLEED2Ev@Base 1.6
 (optional=templinst)_ZN3pcl11ConcaveHullINS_13InterestPointEE11reconstructERNS_10PointCloudIS1_EE@Base 1.6
 (optional=templinst)_ZN3pcl11ConcaveHullINS_13InterestPointEE11reconstructERNS_10PointCloudIS1_EERSt6vectorINS_8VerticesESaIS7_EE@Base 1.6
 (optional=templinst)_ZN3pcl11ConcaveHullINS_13InterestPointEE12setDimensionEi@Base 1.6
 (optional=templinst)_ZN3pcl11ConcaveHullINS_13InterestPointEE17setVoronoiCentersEN5boost10shared_ptrINS_10PointCloudIS1_EEEE@Base 1.6
 (optional=templinst)_ZN3pcl11ConcaveHullINS_13InterestPointEE18setKeepInformationEb@Base 1.6
 (optional=templinst)_ZN3pcl11ConcaveHullINS_13InterestPointEE21performReconstructionERNS_10PointCloudIS1_EERSt6vectorINS_8VerticesESaIS7_EE@Base 1.6
 (optional=templinst)_ZN3pcl11ConcaveHullINS_13InterestPointEE21performReconstructionERNS_11PolygonMeshE@Base 1.6
 (optional=templinst)_ZN3pcl11ConcaveHullINS_13InterestPointEE21performReconstructionERSt6vectorINS_8VerticesESaIS4_EE@Base 1.6
 (optional=templinst)_ZN3pcl11ConcaveHullINS_13InterestPointEE8getAlphaEv@Base 1.6
 (optional=templinst)_ZN3pcl11ConcaveHullINS_13InterestPointEE8setAlphaEd@Base 1.6
 (optional=templinst)_ZN3pcl11ConcaveHullINS_13InterestPointEEC1Ev@Base 1.6
 (optional=templinst)_ZN3pcl11ConcaveHullINS_13InterestPointEEC2Ev@Base 1.6
 (optional=templinst)_ZN3pcl11ConcaveHullINS_13InterestPointEED0Ev@Base 1.6
 (optional=templinst)_ZN3pcl11ConcaveHullINS_13InterestPointEED1Ev@Base 1.6
 (optional=templinst)_ZN3pcl11ConcaveHullINS_13InterestPointEED2Ev@Base 1.6
 (optional=templinst)_ZN3pcl11ConcaveHullINS_14PointWithRangeEE11reconstructERNS_10PointCloudIS1_EE@Base 1.6
 (optional=templinst)_ZN3pcl11ConcaveHullINS_14PointWithRangeEE11reconstructERNS_10PointCloudIS1_EERSt6vectorINS_8VerticesESaIS7_EE@Base 1.6
 (optional=templinst)_ZN3pcl11ConcaveHullINS_14PointWithRangeEE12setDimensionEi@Base 1.6
 (optional=templinst)_ZN3pcl11ConcaveHullINS_14PointWithRangeEE17setVoronoiCentersEN5boost10shared_ptrINS_10PointCloudIS1_EEEE@Base 1.6
 (optional=templinst)_ZN3pcl11ConcaveHullINS_14PointWithRangeEE18setKeepInformationEb@Base 1.6
 (optional=templinst)_ZN3pcl11ConcaveHullINS_14PointWithRangeEE21performReconstructionERNS_10PointCloudIS1_EERSt6vectorINS_8VerticesESaIS7_EE@Base 1.6
 (optional=templinst)_ZN3pcl11ConcaveHullINS_14PointWithRangeEE21performReconstructionERNS_11PolygonMeshE@Base 1.6
 (optional=templinst)_ZN3pcl11ConcaveHullINS_14PointWithRangeEE21performReconstructionERSt6vectorINS_8VerticesESaIS4_EE@Base 1.6
 (optional=templinst)_ZN3pcl11ConcaveHullINS_14PointWithRangeEE8getAlphaEv@Base 1.6
 (optional=templinst)_ZN3pcl11ConcaveHullINS_14PointWithRangeEE8setAlphaEd@Base 1.6
 (optional=templinst)_ZN3pcl11ConcaveHullINS_14PointWithRangeEEC1Ev@Base 1.6
 (optional=templinst)_ZN3pcl11ConcaveHullINS_14PointWithRangeEEC2Ev@Base 1.6
 (optional=templinst)_ZN3pcl11ConcaveHullINS_14PointWithRangeEED0Ev@Base 1.6
 (optional=templinst)_ZN3pcl11ConcaveHullINS_14PointWithRangeEED1Ev@Base 1.6
 (optional=templinst)_ZN3pcl11ConcaveHullINS_14PointWithRangeEED2Ev@Base 1.6
 (optional=templinst)_ZN3pcl11ConcaveHullINS_14PointWithScaleEE11reconstructERNS_10PointCloudIS1_EE@Base 1.6
 (optional=templinst)_ZN3pcl11ConcaveHullINS_14PointWithScaleEE11reconstructERNS_10PointCloudIS1_EERSt6vectorINS_8VerticesESaIS7_EE@Base 1.6
 (optional=templinst)_ZN3pcl11ConcaveHullINS_14PointWithScaleEE12setDimensionEi@Base 1.6
 (optional=templinst)_ZN3pcl11ConcaveHullINS_14PointWithScaleEE17setVoronoiCentersEN5boost10shared_ptrINS_10PointCloudIS1_EEEE@Base 1.6
 (optional=templinst)_ZN3pcl11ConcaveHullINS_14PointWithScaleEE18setKeepInformationEb@Base 1.6
 (optional=templinst)_ZN3pcl11ConcaveHullINS_14PointWithScaleEE21performReconstructionERNS_10PointCloudIS1_EERSt6vectorINS_8VerticesESaIS7_EE@Base 1.6
 (optional=templinst)_ZN3pcl11ConcaveHullINS_14PointWithScaleEE21performReconstructionERNS_11PolygonMeshE@Base 1.6
 (optional=templinst)_ZN3pcl11ConcaveHullINS_14PointWithScaleEE21performReconstructionERSt6vectorINS_8VerticesESaIS4_EE@Base 1.6
 (optional=templinst)_ZN3pcl11ConcaveHullINS_14PointWithScaleEE8getAlphaEv@Base 1.6
 (optional=templinst)_ZN3pcl11ConcaveHullINS_14PointWithScaleEE8setAlphaEd@Base 1.6
 (optional=templinst)_ZN3pcl11ConcaveHullINS_14PointWithScaleEEC1Ev@Base 1.6
 (optional=templinst)_ZN3pcl11ConcaveHullINS_14PointWithScaleEEC2Ev@Base 1.6
 (optional=templinst)_ZN3pcl11ConcaveHullINS_14PointWithScaleEED0Ev@Base 1.6
 (optional=templinst)_ZN3pcl11ConcaveHullINS_14PointWithScaleEED1Ev@Base 1.6
 (optional=templinst)_ZN3pcl11ConcaveHullINS_14PointWithScaleEED2Ev@Base 1.6
 (optional=templinst)_ZN3pcl11ConcaveHullINS_15PointXYZINormalEE11reconstructERNS_10PointCloudIS1_EE@Base 1.6
 (optional=templinst)_ZN3pcl11ConcaveHullINS_15PointXYZINormalEE11reconstructERNS_10PointCloudIS1_EERSt6vectorINS_8VerticesESaIS7_EE@Base 1.6
 (optional=templinst)_ZN3pcl11ConcaveHullINS_15PointXYZINormalEE12setDimensionEi@Base 1.6
 (optional=templinst)_ZN3pcl11ConcaveHullINS_15PointXYZINormalEE17setVoronoiCentersEN5boost10shared_ptrINS_10PointCloudIS1_EEEE@Base 1.6
 (optional=templinst)_ZN3pcl11ConcaveHullINS_15PointXYZINormalEE18setKeepInformationEb@Base 1.6
 (optional=templinst)_ZN3pcl11ConcaveHullINS_15PointXYZINormalEE21performReconstructionERNS_10PointCloudIS1_EERSt6vectorINS_8VerticesESaIS7_EE@Base 1.6
 (optional=templinst)_ZN3pcl11ConcaveHullINS_15PointXYZINormalEE21performReconstructionERNS_11PolygonMeshE@Base 1.6
 (optional=templinst)_ZN3pcl11ConcaveHullINS_15PointXYZINormalEE21performReconstructionERSt6vectorINS_8VerticesESaIS4_EE@Base 1.6
 (optional=templinst)_ZN3pcl11ConcaveHullINS_15PointXYZINormalEE8getAlphaEv@Base 1.6
 (optional=templinst)_ZN3pcl11ConcaveHullINS_15PointXYZINormalEE8setAlphaEd@Base 1.6
 (optional=templinst)_ZN3pcl11ConcaveHullINS_15PointXYZINormalEEC1Ev@Base 1.6
 (optional=templinst)_ZN3pcl11ConcaveHullINS_15PointXYZINormalEEC2Ev@Base 1.6
 (optional=templinst)_ZN3pcl11ConcaveHullINS_15PointXYZINormalEED0Ev@Base 1.6
 (optional=templinst)_ZN3pcl11ConcaveHullINS_15PointXYZINormalEED1Ev@Base 1.6
 (optional=templinst)_ZN3pcl11ConcaveHullINS_15PointXYZINormalEED2Ev@Base 1.6
 (optional=templinst)_ZN3pcl11ConcaveHullINS_17PointXYZRGBNormalEE11reconstructERNS_10PointCloudIS1_EE@Base 1.6
 (optional=templinst)_ZN3pcl11ConcaveHullINS_17PointXYZRGBNormalEE11reconstructERNS_10PointCloudIS1_EERSt6vectorINS_8VerticesESaIS7_EE@Base 1.6
 (optional=templinst)_ZN3pcl11ConcaveHullINS_17PointXYZRGBNormalEE12setDimensionEi@Base 1.6
 (optional=templinst)_ZN3pcl11ConcaveHullINS_17PointXYZRGBNormalEE17setVoronoiCentersEN5boost10shared_ptrINS_10PointCloudIS1_EEEE@Base 1.6
 (optional=templinst)_ZN3pcl11ConcaveHullINS_17PointXYZRGBNormalEE18setKeepInformationEb@Base 1.6
 (optional=templinst)_ZN3pcl11ConcaveHullINS_17PointXYZRGBNormalEE21performReconstructionERNS_10PointCloudIS1_EERSt6vectorINS_8VerticesESaIS7_EE@Base 1.6
 (optional=templinst)_ZN3pcl11ConcaveHullINS_17PointXYZRGBNormalEE21performReconstructionERNS_11PolygonMeshE@Base 1.6
 (optional=templinst)_ZN3pcl11ConcaveHullINS_17PointXYZRGBNormalEE21performReconstructionERSt6vectorINS_8VerticesESaIS4_EE@Base 1.6
 (optional=templinst)_ZN3pcl11ConcaveHullINS_17PointXYZRGBNormalEE8getAlphaEv@Base 1.6
 (optional=templinst)_ZN3pcl11ConcaveHullINS_17PointXYZRGBNormalEE8setAlphaEd@Base 1.6
 (optional=templinst)_ZN3pcl11ConcaveHullINS_17PointXYZRGBNormalEEC1Ev@Base 1.6
 (optional=templinst)_ZN3pcl11ConcaveHullINS_17PointXYZRGBNormalEEC2Ev@Base 1.6
 (optional=templinst)_ZN3pcl11ConcaveHullINS_17PointXYZRGBNormalEED0Ev@Base 1.6
 (optional=templinst)_ZN3pcl11ConcaveHullINS_17PointXYZRGBNormalEED1Ev@Base 1.6
 (optional=templinst)_ZN3pcl11ConcaveHullINS_17PointXYZRGBNormalEED2Ev@Base 1.6
 (optional=templinst)_ZN3pcl11ConcaveHullINS_18PointWithViewpointEE11reconstructERNS_10PointCloudIS1_EE@Base 1.6
 (optional=templinst)_ZN3pcl11ConcaveHullINS_18PointWithViewpointEE11reconstructERNS_10PointCloudIS1_EERSt6vectorINS_8VerticesESaIS7_EE@Base 1.6
 (optional=templinst)_ZN3pcl11ConcaveHullINS_18PointWithViewpointEE12setDimensionEi@Base 1.6
 (optional=templinst)_ZN3pcl11ConcaveHullINS_18PointWithViewpointEE17setVoronoiCentersEN5boost10shared_ptrINS_10PointCloudIS1_EEEE@Base 1.6
 (optional=templinst)_ZN3pcl11ConcaveHullINS_18PointWithViewpointEE18setKeepInformationEb@Base 1.6
 (optional=templinst)_ZN3pcl11ConcaveHullINS_18PointWithViewpointEE21performReconstructionERNS_10PointCloudIS1_EERSt6vectorINS_8VerticesESaIS7_EE@Base 1.6
 (optional=templinst)_ZN3pcl11ConcaveHullINS_18PointWithViewpointEE21performReconstructionERNS_11PolygonMeshE@Base 1.6
 (optional=templinst)_ZN3pcl11ConcaveHullINS_18PointWithViewpointEE21performReconstructionERSt6vectorINS_8VerticesESaIS4_EE@Base 1.6
 (optional=templinst)_ZN3pcl11ConcaveHullINS_18PointWithViewpointEE8getAlphaEv@Base 1.6
 (optional=templinst)_ZN3pcl11ConcaveHullINS_18PointWithViewpointEE8setAlphaEd@Base 1.6
 (optional=templinst)_ZN3pcl11ConcaveHullINS_18PointWithViewpointEEC1Ev@Base 1.6
 (optional=templinst)_ZN3pcl11ConcaveHullINS_18PointWithViewpointEEC2Ev@Base 1.6
 (optional=templinst)_ZN3pcl11ConcaveHullINS_18PointWithViewpointEED0Ev@Base 1.6
 (optional=templinst)_ZN3pcl11ConcaveHullINS_18PointWithViewpointEED1Ev@Base 1.6
 (optional=templinst)_ZN3pcl11ConcaveHullINS_18PointWithViewpointEED2Ev@Base 1.6
 (optional=templinst)_ZN3pcl11ConcaveHullINS_8PointXYZEE11reconstructERNS_10PointCloudIS1_EE@Base 1.6
 (optional=templinst)_ZN3pcl11ConcaveHullINS_8PointXYZEE11reconstructERNS_10PointCloudIS1_EERSt6vectorINS_8VerticesESaIS7_EE@Base 1.6
 (optional=templinst)_ZN3pcl11ConcaveHullINS_8PointXYZEE12setDimensionEi@Base 1.6
 (optional=templinst)_ZN3pcl11ConcaveHullINS_8PointXYZEE17setVoronoiCentersEN5boost10shared_ptrINS_10PointCloudIS1_EEEE@Base 1.6
 (optional=templinst)_ZN3pcl11ConcaveHullINS_8PointXYZEE18setKeepInformationEb@Base 1.6
 (optional=templinst)_ZN3pcl11ConcaveHullINS_8PointXYZEE21performReconstructionERNS_10PointCloudIS1_EERSt6vectorINS_8VerticesESaIS7_EE@Base 1.6
 (optional=templinst)_ZN3pcl11ConcaveHullINS_8PointXYZEE21performReconstructionERNS_11PolygonMeshE@Base 1.6
 (optional=templinst)_ZN3pcl11ConcaveHullINS_8PointXYZEE21performReconstructionERSt6vectorINS_8VerticesESaIS4_EE@Base 1.6
 (optional=templinst)_ZN3pcl11ConcaveHullINS_8PointXYZEE8getAlphaEv@Base 1.6
 (optional=templinst)_ZN3pcl11ConcaveHullINS_8PointXYZEE8setAlphaEd@Base 1.6
 (optional=templinst)_ZN3pcl11ConcaveHullINS_8PointXYZEEC1Ev@Base 1.6
 (optional=templinst)_ZN3pcl11ConcaveHullINS_8PointXYZEEC2Ev@Base 1.6
 (optional=templinst)_ZN3pcl11ConcaveHullINS_8PointXYZEED0Ev@Base 1.6
 (optional=templinst)_ZN3pcl11ConcaveHullINS_8PointXYZEED1Ev@Base 1.6
 (optional=templinst)_ZN3pcl11ConcaveHullINS_8PointXYZEED2Ev@Base 1.6
 (optional=templinst)_ZN3pcl11ConcaveHullINS_9PointXYZIEE11reconstructERNS_10PointCloudIS1_EE@Base 1.6
 (optional=templinst)_ZN3pcl11ConcaveHullINS_9PointXYZIEE11reconstructERNS_10PointCloudIS1_EERSt6vectorINS_8VerticesESaIS7_EE@Base 1.6
 (optional=templinst)_ZN3pcl11ConcaveHullINS_9PointXYZIEE12setDimensionEi@Base 1.6
 (optional=templinst)_ZN3pcl11ConcaveHullINS_9PointXYZIEE17setVoronoiCentersEN5boost10shared_ptrINS_10PointCloudIS1_EEEE@Base 1.6
 (optional=templinst)_ZN3pcl11ConcaveHullINS_9PointXYZIEE18setKeepInformationEb@Base 1.6
 (optional=templinst)_ZN3pcl11ConcaveHullINS_9PointXYZIEE21performReconstructionERNS_10PointCloudIS1_EERSt6vectorINS_8VerticesESaIS7_EE@Base 1.6
 (optional=templinst)_ZN3pcl11ConcaveHullINS_9PointXYZIEE21performReconstructionERNS_11PolygonMeshE@Base 1.6
 (optional=templinst)_ZN3pcl11ConcaveHullINS_9PointXYZIEE21performReconstructionERSt6vectorINS_8VerticesESaIS4_EE@Base 1.6
 (optional=templinst)_ZN3pcl11ConcaveHullINS_9PointXYZIEE8getAlphaEv@Base 1.6
 (optional=templinst)_ZN3pcl11ConcaveHullINS_9PointXYZIEE8setAlphaEd@Base 1.6
 (optional=templinst)_ZN3pcl11ConcaveHullINS_9PointXYZIEEC1Ev@Base 1.6
 (optional=templinst)_ZN3pcl11ConcaveHullINS_9PointXYZIEEC2Ev@Base 1.6
 (optional=templinst)_ZN3pcl11ConcaveHullINS_9PointXYZIEED0Ev@Base 1.6
 (optional=templinst)_ZN3pcl11ConcaveHullINS_9PointXYZIEED1Ev@Base 1.6
 (optional=templinst)_ZN3pcl11ConcaveHullINS_9PointXYZIEED2Ev@Base 1.6
 (optional=templinst)_ZN3pcl11ConcaveHullINS_9PointXYZLEE11reconstructERNS_10PointCloudIS1_EE@Base 1.6
 (optional=templinst)_ZN3pcl11ConcaveHullINS_9PointXYZLEE11reconstructERNS_10PointCloudIS1_EERSt6vectorINS_8VerticesESaIS7_EE@Base 1.6
 (optional=templinst)_ZN3pcl11ConcaveHullINS_9PointXYZLEE12setDimensionEi@Base 1.6
 (optional=templinst)_ZN3pcl11ConcaveHullINS_9PointXYZLEE17setVoronoiCentersEN5boost10shared_ptrINS_10PointCloudIS1_EEEE@Base 1.6
 (optional=templinst)_ZN3pcl11ConcaveHullINS_9PointXYZLEE18setKeepInformationEb@Base 1.6
 (optional=templinst)_ZN3pcl11ConcaveHullINS_9PointXYZLEE21performReconstructionERNS_10PointCloudIS1_EERSt6vectorINS_8VerticesESaIS7_EE@Base 1.6
 (optional=templinst)_ZN3pcl11ConcaveHullINS_9PointXYZLEE21performReconstructionERNS_11PolygonMeshE@Base 1.6
 (optional=templinst)_ZN3pcl11ConcaveHullINS_9PointXYZLEE21performReconstructionERSt6vectorINS_8VerticesESaIS4_EE@Base 1.6
 (optional=templinst)_ZN3pcl11ConcaveHullINS_9PointXYZLEE8getAlphaEv@Base 1.6
 (optional=templinst)_ZN3pcl11ConcaveHullINS_9PointXYZLEE8setAlphaEd@Base 1.6
 (optional=templinst)_ZN3pcl11ConcaveHullINS_9PointXYZLEEC1Ev@Base 1.6
 (optional=templinst)_ZN3pcl11ConcaveHullINS_9PointXYZLEEC2Ev@Base 1.6
 (optional=templinst)_ZN3pcl11ConcaveHullINS_9PointXYZLEED0Ev@Base 1.6
 (optional=templinst)_ZN3pcl11ConcaveHullINS_9PointXYZLEED1Ev@Base 1.6
 (optional=templinst)_ZN3pcl11ConcaveHullINS_9PointXYZLEED2Ev@Base 1.6
 _ZN3pcl11EarClipping11initComputeEv@Base 1.6
 _ZN3pcl11EarClipping11triangulateERKNS_8VerticesERNS_11PolygonMeshE@Base 1.6
 _ZN3pcl11EarClipping16isInsideTriangleERKN5Eigen6MatrixIfLi2ELi1ELi0ELi2ELi1EEES5_S5_S5_@Base 1.6
 _ZN3pcl11EarClipping17performProcessingERNS_11PolygonMeshE@Base 1.6
 _ZN3pcl11EarClipping4areaERKSt6vectorIjSaIjEE@Base 1.6
 _ZN3pcl11EarClipping5isEarEiiiRKSt6vectorIjSaIjEE@Base 1.6
 _ZN3pcl11EarClippingD0Ev@Base 1.6
 _ZN3pcl11EarClippingD1Ev@Base 1.6
 _ZN3pcl11EarClippingD2Ev@Base 1.6
 (optional=templinst)_ZN3pcl11KdTreeFLANNINS_11PointNormalEN5flann9L2_SimpleIfEEE10setEpsilonEf@Base 1.6
 (optional=templinst)_ZN3pcl11KdTreeFLANNINS_11PointNormalEN5flann9L2_SimpleIfEEE13setInputCloudERKN5boost10shared_ptrIKNS_10PointCloudIS1_EEEERKNS7_IKSt6vectorIiSaIiEEEE@Base 1.6
 (optional=templinst)_ZN3pcl11KdTreeFLANNINS_11PointNormalEN5flann9L2_SimpleIfEEE19convertCloudToArrayERKNS_10PointCloudIS1_EE@Base 1.6
 (optional=templinst)_ZN3pcl11KdTreeFLANNINS_11PointNormalEN5flann9L2_SimpleIfEEE19convertCloudToArrayERKNS_10PointCloudIS1_EERKSt6vectorIiSaIiEE@Base 1.6
 (optional=templinst)_ZN3pcl11KdTreeFLANNINS_11PointNormalEN5flann9L2_SimpleIfEEE7cleanupEv@Base 1.6
 (optional=templinst)_ZN3pcl11KdTreeFLANNINS_11PointNormalEN5flann9L2_SimpleIfEEEC1Eb@Base 1.6
 (optional=templinst)_ZN3pcl11KdTreeFLANNINS_11PointNormalEN5flann9L2_SimpleIfEEEC2Eb@Base 1.6
 (optional=templinst)_ZN3pcl11KdTreeFLANNINS_11PointNormalEN5flann9L2_SimpleIfEEED0Ev@Base 1.6
 (optional=templinst)_ZN3pcl11KdTreeFLANNINS_11PointNormalEN5flann9L2_SimpleIfEEED1Ev@Base 1.6
 (optional=templinst)_ZN3pcl11KdTreeFLANNINS_11PointNormalEN5flann9L2_SimpleIfEEED2Ev@Base 1.6
 (optional=templinst)_ZN3pcl11KdTreeFLANNINS_11PointXYZHSVEN5flann9L2_SimpleIfEEE10setEpsilonEf@Base 1.6
 (optional=templinst)_ZN3pcl11KdTreeFLANNINS_11PointXYZHSVEN5flann9L2_SimpleIfEEEC1Eb@Base 1.6
 (optional=templinst)_ZN3pcl11KdTreeFLANNINS_11PointXYZHSVEN5flann9L2_SimpleIfEEEC2Eb@Base 1.6
 (optional=templinst)_ZN3pcl11KdTreeFLANNINS_11PointXYZHSVEN5flann9L2_SimpleIfEEED0Ev@Base 1.6
 (optional=templinst)_ZN3pcl11KdTreeFLANNINS_11PointXYZHSVEN5flann9L2_SimpleIfEEED1Ev@Base 1.6
 (optional=templinst)_ZN3pcl11KdTreeFLANNINS_11PointXYZHSVEN5flann9L2_SimpleIfEEED2Ev@Base 1.6
 (optional=templinst)_ZN3pcl11KdTreeFLANNINS_11PointXYZRGBEN5flann9L2_SimpleIfEEE10setEpsilonEf@Base 1.6
 (optional=templinst)_ZN3pcl11KdTreeFLANNINS_11PointXYZRGBEN5flann9L2_SimpleIfEEEC1Eb@Base 1.6
 (optional=templinst)_ZN3pcl11KdTreeFLANNINS_11PointXYZRGBEN5flann9L2_SimpleIfEEEC2Eb@Base 1.6
 (optional=templinst)_ZN3pcl11KdTreeFLANNINS_11PointXYZRGBEN5flann9L2_SimpleIfEEED0Ev@Base 1.6
 (optional=templinst)_ZN3pcl11KdTreeFLANNINS_11PointXYZRGBEN5flann9L2_SimpleIfEEED1Ev@Base 1.6
 (optional=templinst)_ZN3pcl11KdTreeFLANNINS_11PointXYZRGBEN5flann9L2_SimpleIfEEED2Ev@Base 1.6
 (optional=templinst)_ZN3pcl11KdTreeFLANNINS_12PointXYZRGBAEN5flann9L2_SimpleIfEEE10setEpsilonEf@Base 1.6
 (optional=templinst)_ZN3pcl11KdTreeFLANNINS_12PointXYZRGBAEN5flann9L2_SimpleIfEEEC1Eb@Base 1.6
 (optional=templinst)_ZN3pcl11KdTreeFLANNINS_12PointXYZRGBAEN5flann9L2_SimpleIfEEEC2Eb@Base 1.6
 (optional=templinst)_ZN3pcl11KdTreeFLANNINS_12PointXYZRGBAEN5flann9L2_SimpleIfEEED0Ev@Base 1.6
 (optional=templinst)_ZN3pcl11KdTreeFLANNINS_12PointXYZRGBAEN5flann9L2_SimpleIfEEED1Ev@Base 1.6
 (optional=templinst)_ZN3pcl11KdTreeFLANNINS_12PointXYZRGBAEN5flann9L2_SimpleIfEEED2Ev@Base 1.6
 (optional=templinst)_ZN3pcl11KdTreeFLANNINS_12PointXYZRGBLEN5flann9L2_SimpleIfEEE10setEpsilonEf@Base 1.6
 (optional=templinst)_ZN3pcl11KdTreeFLANNINS_12PointXYZRGBLEN5flann9L2_SimpleIfEEEC1Eb@Base 1.6
 (optional=templinst)_ZN3pcl11KdTreeFLANNINS_12PointXYZRGBLEN5flann9L2_SimpleIfEEEC2Eb@Base 1.6
 (optional=templinst)_ZN3pcl11KdTreeFLANNINS_12PointXYZRGBLEN5flann9L2_SimpleIfEEED0Ev@Base 1.6
 (optional=templinst)_ZN3pcl11KdTreeFLANNINS_12PointXYZRGBLEN5flann9L2_SimpleIfEEED1Ev@Base 1.6
 (optional=templinst)_ZN3pcl11KdTreeFLANNINS_12PointXYZRGBLEN5flann9L2_SimpleIfEEED2Ev@Base 1.6
 (optional=templinst)_ZN3pcl11KdTreeFLANNINS_13InterestPointEN5flann9L2_SimpleIfEEE10setEpsilonEf@Base 1.6
 (optional=templinst)_ZN3pcl11KdTreeFLANNINS_13InterestPointEN5flann9L2_SimpleIfEEEC1Eb@Base 1.6
 (optional=templinst)_ZN3pcl11KdTreeFLANNINS_13InterestPointEN5flann9L2_SimpleIfEEEC2Eb@Base 1.6
 (optional=templinst)_ZN3pcl11KdTreeFLANNINS_13InterestPointEN5flann9L2_SimpleIfEEED0Ev@Base 1.6
 (optional=templinst)_ZN3pcl11KdTreeFLANNINS_13InterestPointEN5flann9L2_SimpleIfEEED1Ev@Base 1.6
 (optional=templinst)_ZN3pcl11KdTreeFLANNINS_13InterestPointEN5flann9L2_SimpleIfEEED2Ev@Base 1.6
 (optional=templinst)_ZN3pcl11KdTreeFLANNINS_14PointWithRangeEN5flann9L2_SimpleIfEEE10setEpsilonEf@Base 1.6
 (optional=templinst)_ZN3pcl11KdTreeFLANNINS_14PointWithRangeEN5flann9L2_SimpleIfEEEC1Eb@Base 1.6
 (optional=templinst)_ZN3pcl11KdTreeFLANNINS_14PointWithRangeEN5flann9L2_SimpleIfEEEC2Eb@Base 1.6
 (optional=templinst)_ZN3pcl11KdTreeFLANNINS_14PointWithRangeEN5flann9L2_SimpleIfEEED0Ev@Base 1.6
 (optional=templinst)_ZN3pcl11KdTreeFLANNINS_14PointWithRangeEN5flann9L2_SimpleIfEEED1Ev@Base 1.6
 (optional=templinst)_ZN3pcl11KdTreeFLANNINS_14PointWithRangeEN5flann9L2_SimpleIfEEED2Ev@Base 1.6
 (optional=templinst)_ZN3pcl11KdTreeFLANNINS_14PointWithScaleEN5flann9L2_SimpleIfEEE10setEpsilonEf@Base 1.6
 (optional=templinst)_ZN3pcl11KdTreeFLANNINS_14PointWithScaleEN5flann9L2_SimpleIfEEEC1Eb@Base 1.6
 (optional=templinst)_ZN3pcl11KdTreeFLANNINS_14PointWithScaleEN5flann9L2_SimpleIfEEEC2Eb@Base 1.6
 (optional=templinst)_ZN3pcl11KdTreeFLANNINS_14PointWithScaleEN5flann9L2_SimpleIfEEED0Ev@Base 1.6
 (optional=templinst)_ZN3pcl11KdTreeFLANNINS_14PointWithScaleEN5flann9L2_SimpleIfEEED1Ev@Base 1.6
 (optional=templinst)_ZN3pcl11KdTreeFLANNINS_14PointWithScaleEN5flann9L2_SimpleIfEEED2Ev@Base 1.6
 (optional=templinst)_ZN3pcl11KdTreeFLANNINS_15PointXYZINormalEN5flann9L2_SimpleIfEEE10setEpsilonEf@Base 1.6
 (optional=templinst)_ZN3pcl11KdTreeFLANNINS_15PointXYZINormalEN5flann9L2_SimpleIfEEE13setInputCloudERKN5boost10shared_ptrIKNS_10PointCloudIS1_EEEERKNS7_IKSt6vectorIiSaIiEEEE@Base 1.6
 (optional=templinst)_ZN3pcl11KdTreeFLANNINS_15PointXYZINormalEN5flann9L2_SimpleIfEEE19convertCloudToArrayERKNS_10PointCloudIS1_EE@Base 1.6
 (optional=templinst)_ZN3pcl11KdTreeFLANNINS_15PointXYZINormalEN5flann9L2_SimpleIfEEE19convertCloudToArrayERKNS_10PointCloudIS1_EERKSt6vectorIiSaIiEE@Base 1.6
 (optional=templinst)_ZN3pcl11KdTreeFLANNINS_15PointXYZINormalEN5flann9L2_SimpleIfEEE7cleanupEv@Base 1.6
 (optional=templinst)_ZN3pcl11KdTreeFLANNINS_15PointXYZINormalEN5flann9L2_SimpleIfEEEC1Eb@Base 1.6
 (optional=templinst)_ZN3pcl11KdTreeFLANNINS_15PointXYZINormalEN5flann9L2_SimpleIfEEEC2Eb@Base 1.6
 (optional=templinst)_ZN3pcl11KdTreeFLANNINS_15PointXYZINormalEN5flann9L2_SimpleIfEEED0Ev@Base 1.6
 (optional=templinst)_ZN3pcl11KdTreeFLANNINS_15PointXYZINormalEN5flann9L2_SimpleIfEEED1Ev@Base 1.6
 (optional=templinst)_ZN3pcl11KdTreeFLANNINS_15PointXYZINormalEN5flann9L2_SimpleIfEEED2Ev@Base 1.6
 (optional=templinst)_ZN3pcl11KdTreeFLANNINS_17PointXYZRGBNormalEN5flann9L2_SimpleIfEEE10setEpsilonEf@Base 1.6
 (optional=templinst)_ZN3pcl11KdTreeFLANNINS_17PointXYZRGBNormalEN5flann9L2_SimpleIfEEE13setInputCloudERKN5boost10shared_ptrIKNS_10PointCloudIS1_EEEERKNS7_IKSt6vectorIiSaIiEEEE@Base 1.6
 (optional=templinst)_ZN3pcl11KdTreeFLANNINS_17PointXYZRGBNormalEN5flann9L2_SimpleIfEEE19convertCloudToArrayERKNS_10PointCloudIS1_EE@Base 1.6
 (optional=templinst)_ZN3pcl11KdTreeFLANNINS_17PointXYZRGBNormalEN5flann9L2_SimpleIfEEE19convertCloudToArrayERKNS_10PointCloudIS1_EERKSt6vectorIiSaIiEE@Base 1.6
 (optional=templinst)_ZN3pcl11KdTreeFLANNINS_17PointXYZRGBNormalEN5flann9L2_SimpleIfEEE7cleanupEv@Base 1.6
 (optional=templinst)_ZN3pcl11KdTreeFLANNINS_17PointXYZRGBNormalEN5flann9L2_SimpleIfEEEC1Eb@Base 1.6
 (optional=templinst)_ZN3pcl11KdTreeFLANNINS_17PointXYZRGBNormalEN5flann9L2_SimpleIfEEEC2Eb@Base 1.6
 (optional=templinst)_ZN3pcl11KdTreeFLANNINS_17PointXYZRGBNormalEN5flann9L2_SimpleIfEEED0Ev@Base 1.6
 (optional=templinst)_ZN3pcl11KdTreeFLANNINS_17PointXYZRGBNormalEN5flann9L2_SimpleIfEEED1Ev@Base 1.6
 (optional=templinst)_ZN3pcl11KdTreeFLANNINS_17PointXYZRGBNormalEN5flann9L2_SimpleIfEEED2Ev@Base 1.6
 (optional=templinst)_ZN3pcl11KdTreeFLANNINS_18PointWithViewpointEN5flann9L2_SimpleIfEEE10setEpsilonEf@Base 1.6
 (optional=templinst)_ZN3pcl11KdTreeFLANNINS_18PointWithViewpointEN5flann9L2_SimpleIfEEEC1Eb@Base 1.6
 (optional=templinst)_ZN3pcl11KdTreeFLANNINS_18PointWithViewpointEN5flann9L2_SimpleIfEEEC2Eb@Base 1.6
 (optional=templinst)_ZN3pcl11KdTreeFLANNINS_18PointWithViewpointEN5flann9L2_SimpleIfEEED0Ev@Base 1.6
 (optional=templinst)_ZN3pcl11KdTreeFLANNINS_18PointWithViewpointEN5flann9L2_SimpleIfEEED1Ev@Base 1.6
 (optional=templinst)_ZN3pcl11KdTreeFLANNINS_18PointWithViewpointEN5flann9L2_SimpleIfEEED2Ev@Base 1.6
 (optional=templinst)_ZN3pcl11KdTreeFLANNINS_7PointXYEN5flann9L2_SimpleIfEEE10setEpsilonEf@Base 1.6
 (optional=templinst)_ZN3pcl11KdTreeFLANNINS_7PointXYEN5flann9L2_SimpleIfEEED0Ev@Base 1.6
 (optional=templinst)_ZN3pcl11KdTreeFLANNINS_7PointXYEN5flann9L2_SimpleIfEEED1Ev@Base 1.6
 (optional=templinst)_ZN3pcl11KdTreeFLANNINS_7PointXYEN5flann9L2_SimpleIfEEED2Ev@Base 1.6
 (optional=templinst)_ZN3pcl11KdTreeFLANNINS_8PointXYZEN5flann9L2_SimpleIfEEE10setEpsilonEf@Base 1.6
 (optional=templinst)_ZN3pcl11KdTreeFLANNINS_8PointXYZEN5flann9L2_SimpleIfEEEC1Eb@Base 1.6
 (optional=templinst)_ZN3pcl11KdTreeFLANNINS_8PointXYZEN5flann9L2_SimpleIfEEEC2Eb@Base 1.6
 (optional=templinst)_ZN3pcl11KdTreeFLANNINS_8PointXYZEN5flann9L2_SimpleIfEEED0Ev@Base 1.6
 (optional=templinst)_ZN3pcl11KdTreeFLANNINS_8PointXYZEN5flann9L2_SimpleIfEEED1Ev@Base 1.6
 (optional=templinst)_ZN3pcl11KdTreeFLANNINS_8PointXYZEN5flann9L2_SimpleIfEEED2Ev@Base 1.6
 (optional=templinst)_ZN3pcl11KdTreeFLANNINS_9PointXYZIEN5flann9L2_SimpleIfEEE10setEpsilonEf@Base 1.6
 (optional=templinst)_ZN3pcl11KdTreeFLANNINS_9PointXYZIEN5flann9L2_SimpleIfEEEC1Eb@Base 1.6
 (optional=templinst)_ZN3pcl11KdTreeFLANNINS_9PointXYZIEN5flann9L2_SimpleIfEEEC2Eb@Base 1.6
 (optional=templinst)_ZN3pcl11KdTreeFLANNINS_9PointXYZIEN5flann9L2_SimpleIfEEED0Ev@Base 1.6
 (optional=templinst)_ZN3pcl11KdTreeFLANNINS_9PointXYZIEN5flann9L2_SimpleIfEEED1Ev@Base 1.6
 (optional=templinst)_ZN3pcl11KdTreeFLANNINS_9PointXYZIEN5flann9L2_SimpleIfEEED2Ev@Base 1.6
 (optional=templinst)_ZN3pcl11KdTreeFLANNINS_9PointXYZLEN5flann9L2_SimpleIfEEE10setEpsilonEf@Base 1.6
 (optional=templinst)_ZN3pcl11KdTreeFLANNINS_9PointXYZLEN5flann9L2_SimpleIfEEEC1Eb@Base 1.6
 (optional=templinst)_ZN3pcl11KdTreeFLANNINS_9PointXYZLEN5flann9L2_SimpleIfEEEC2Eb@Base 1.6
 (optional=templinst)_ZN3pcl11KdTreeFLANNINS_9PointXYZLEN5flann9L2_SimpleIfEEED0Ev@Base 1.6
 (optional=templinst)_ZN3pcl11KdTreeFLANNINS_9PointXYZLEN5flann9L2_SimpleIfEEED1Ev@Base 1.6
 (optional=templinst)_ZN3pcl11KdTreeFLANNINS_9PointXYZLEN5flann9L2_SimpleIfEEED2Ev@Base 1.6
 _ZN3pcl11TexMaterialC1ERKS0_@Base 1.6
 _ZN3pcl11TexMaterialC2ERKS0_@Base 1.6
 _ZN3pcl11TexMaterialD1Ev@Base 1.6
 _ZN3pcl11TexMaterialD2Ev@Base 1.6
 _ZN3pcl11TexMaterialaSERKS0_@Base 1.6
 _ZN3pcl11TextureMeshaSERKS0_@Base 1.6
 (optional=templinst)_ZN3pcl11getMinMax3DINS_11PointNormalEEEvRKNS_10PointCloudIT_EERN5Eigen6MatrixIfLi4ELi1ELi0ELi4ELi1EEESA_@Base 1.6
 (optional=templinst)_ZN3pcl11getMinMax3DINS_11PointXYZRGBEEEvRKNS_10PointCloudIT_EERKSt6vectorIiSaIiEERN5Eigen6MatrixIfLi4ELi1ELi0ELi4ELi1EEESF_@Base 1.6
 (optional=templinst)_ZN3pcl11getMinMax3DINS_12PointXYZRGBAEEEvRKNS_10PointCloudIT_EERKSt6vectorIiSaIiEERN5Eigen6MatrixIfLi4ELi1ELi0ELi4ELi1EEESF_@Base 1.6
 (optional=templinst)_ZN3pcl11getMinMax3DINS_15PointXYZINormalEEEvRKNS_10PointCloudIT_EERN5Eigen6MatrixIfLi4ELi1ELi0ELi4ELi1EEESA_@Base 1.6
 (optional=templinst)_ZN3pcl11getMinMax3DINS_17PointXYZRGBNormalEEEvRKNS_10PointCloudIT_EERN5Eigen6MatrixIfLi4ELi1ELi0ELi4ELi1EEESA_@Base 1.6
 (optional=templinst)_ZN3pcl11getMinMax3DINS_8PointXYZEEEvRKNS_10PointCloudIT_EERKSt6vectorIiSaIiEERN5Eigen6MatrixIfLi4ELi1ELi0ELi4ELi1EEESF_@Base 1.6
 (optional=templinst)_ZN3pcl12computeRootsIN5Eigen6MatrixIfLi3ELi3ELi0ELi3ELi3EEENS2_IfLi3ELi1ELi0ELi3ELi1EEEEEvRKT_RT0_@Base 1.6
 (optional=templinst)_ZN3pcl13MarchingCubesINS_11PointNormalEE11getIsoLevelEv@Base 1.6
 (optional=templinst)_ZN3pcl13MarchingCubesINS_11PointNormalEE11setIsoLevelEf@Base 1.6
 (optional=templinst)_ZN3pcl13MarchingCubesINS_11PointNormalEE12getGridValueEN5Eigen6MatrixIiLi3ELi1ELi0ELi3ELi1EEE@Base 1.6
 (optional=templinst)_ZN3pcl13MarchingCubesINS_11PointNormalEE13createSurfaceERSt6vectorIfSaIfEERN5Eigen6MatrixIiLi3ELi1ELi0ELi3ELi1EEERNS_10PointCloudIS1_EE@Base 1.6
 (optional=templinst)_ZN3pcl13MarchingCubesINS_11PointNormalEE14getBoundingBoxEv@Base 1.6
 (optional=templinst)_ZN3pcl13MarchingCubesINS_11PointNormalEE15interpolateEdgeERN5Eigen6MatrixIfLi3ELi1ELi0ELi3ELi1EEES6_ffS6_@Base 1.6
 (optional=templinst)_ZN3pcl13MarchingCubesINS_11PointNormalEE17getGridResolutionERiS3_S3_@Base 1.6
 (optional=templinst)_ZN3pcl13MarchingCubesINS_11PointNormalEE17getNeighborList1DERSt6vectorIfSaIfEERN5Eigen6MatrixIiLi3ELi1ELi0ELi3ELi1EEE@Base 1.6
 (optional=templinst)_ZN3pcl13MarchingCubesINS_11PointNormalEE17setGridResolutionEiii@Base 1.6
 (optional=templinst)_ZN3pcl13MarchingCubesINS_11PointNormalEE21performReconstructionERNS_10PointCloudIS1_EERSt6vectorINS_8VerticesESaIS7_EE@Base 1.6
 (optional=templinst)_ZN3pcl13MarchingCubesINS_11PointNormalEE21performReconstructionERNS_11PolygonMeshE@Base 1.6
 (optional=templinst)_ZN3pcl13MarchingCubesINS_11PointNormalEE23getPercentageExtendGridEv@Base 1.6
 (optional=templinst)_ZN3pcl13MarchingCubesINS_11PointNormalEE23setPercentageExtendGridEf@Base 1.6
 (optional=templinst)_ZN3pcl13MarchingCubesINS_11PointNormalEEC1Ev@Base 1.6
 (optional=templinst)_ZN3pcl13MarchingCubesINS_11PointNormalEEC2Ev@Base 1.6
 (optional=templinst)_ZN3pcl13MarchingCubesINS_11PointNormalEED0Ev@Base 1.6
 (optional=templinst)_ZN3pcl13MarchingCubesINS_11PointNormalEED1Ev@Base 1.6
 (optional=templinst)_ZN3pcl13MarchingCubesINS_11PointNormalEED2Ev@Base 1.6
 _ZN3pcl13MarchingCubesINS_11PointNormalEEdaEPv@Base 1.6
 _ZN3pcl13MarchingCubesINS_11PointNormalEEdlEPv@Base 1.6
 _ZN3pcl13MarchingCubesINS_11PointNormalEEdlEPvRKSt9nothrow_t@Base 1.6
 _ZN3pcl13MarchingCubesINS_11PointNormalEEdlEPvS3_@Base 1.6
 _ZN3pcl13MarchingCubesINS_11PointNormalEEnaEm@Base 1.6
 _ZN3pcl13MarchingCubesINS_11PointNormalEEnwEm@Base 1.6
 _ZN3pcl13MarchingCubesINS_11PointNormalEEnwEmPv@Base 1.6
 _ZN3pcl13MarchingCubesINS_11PointNormalEEnwEmRKSt9nothrow_t@Base 1.6
 (optional=templinst)_ZN3pcl13MarchingCubesINS_15PointXYZINormalEE11getIsoLevelEv@Base 1.6
 (optional=templinst)_ZN3pcl13MarchingCubesINS_15PointXYZINormalEE11setIsoLevelEf@Base 1.6
 (optional=templinst)_ZN3pcl13MarchingCubesINS_15PointXYZINormalEE12getGridValueEN5Eigen6MatrixIiLi3ELi1ELi0ELi3ELi1EEE@Base 1.6
 (optional=templinst)_ZN3pcl13MarchingCubesINS_15PointXYZINormalEE13createSurfaceERSt6vectorIfSaIfEERN5Eigen6MatrixIiLi3ELi1ELi0ELi3ELi1EEERNS_10PointCloudIS1_EE@Base 1.6
 (optional=templinst)_ZN3pcl13MarchingCubesINS_15PointXYZINormalEE14getBoundingBoxEv@Base 1.6
 (optional=templinst)_ZN3pcl13MarchingCubesINS_15PointXYZINormalEE15interpolateEdgeERN5Eigen6MatrixIfLi3ELi1ELi0ELi3ELi1EEES6_ffS6_@Base 1.6
 (optional=templinst)_ZN3pcl13MarchingCubesINS_15PointXYZINormalEE17getGridResolutionERiS3_S3_@Base 1.6
 (optional=templinst)_ZN3pcl13MarchingCubesINS_15PointXYZINormalEE17getNeighborList1DERSt6vectorIfSaIfEERN5Eigen6MatrixIiLi3ELi1ELi0ELi3ELi1EEE@Base 1.6
 (optional=templinst)_ZN3pcl13MarchingCubesINS_15PointXYZINormalEE17setGridResolutionEiii@Base 1.6
 (optional=templinst)_ZN3pcl13MarchingCubesINS_15PointXYZINormalEE21performReconstructionERNS_10PointCloudIS1_EERSt6vectorINS_8VerticesESaIS7_EE@Base 1.6
 (optional=templinst)_ZN3pcl13MarchingCubesINS_15PointXYZINormalEE21performReconstructionERNS_11PolygonMeshE@Base 1.6
 (optional=templinst)_ZN3pcl13MarchingCubesINS_15PointXYZINormalEE23getPercentageExtendGridEv@Base 1.6
 (optional=templinst)_ZN3pcl13MarchingCubesINS_15PointXYZINormalEE23setPercentageExtendGridEf@Base 1.6
 (optional=templinst)_ZN3pcl13MarchingCubesINS_15PointXYZINormalEEC1Ev@Base 1.6
 (optional=templinst)_ZN3pcl13MarchingCubesINS_15PointXYZINormalEEC2Ev@Base 1.6
 (optional=templinst)_ZN3pcl13MarchingCubesINS_15PointXYZINormalEED0Ev@Base 1.6
 (optional=templinst)_ZN3pcl13MarchingCubesINS_15PointXYZINormalEED1Ev@Base 1.6
 (optional=templinst)_ZN3pcl13MarchingCubesINS_15PointXYZINormalEED2Ev@Base 1.6
 _ZN3pcl13MarchingCubesINS_15PointXYZINormalEEdaEPv@Base 1.6
 _ZN3pcl13MarchingCubesINS_15PointXYZINormalEEdlEPv@Base 1.6
 _ZN3pcl13MarchingCubesINS_15PointXYZINormalEEdlEPvRKSt9nothrow_t@Base 1.6
 _ZN3pcl13MarchingCubesINS_15PointXYZINormalEEdlEPvS3_@Base 1.6
 _ZN3pcl13MarchingCubesINS_15PointXYZINormalEEnaEm@Base 1.6
 _ZN3pcl13MarchingCubesINS_15PointXYZINormalEEnwEm@Base 1.6
 _ZN3pcl13MarchingCubesINS_15PointXYZINormalEEnwEmPv@Base 1.6
 _ZN3pcl13MarchingCubesINS_15PointXYZINormalEEnwEmRKSt9nothrow_t@Base 1.6
 (optional=templinst)_ZN3pcl13MarchingCubesINS_17PointXYZRGBNormalEE11getIsoLevelEv@Base 1.6
 (optional=templinst)_ZN3pcl13MarchingCubesINS_17PointXYZRGBNormalEE11setIsoLevelEf@Base 1.6
 (optional=templinst)_ZN3pcl13MarchingCubesINS_17PointXYZRGBNormalEE12getGridValueEN5Eigen6MatrixIiLi3ELi1ELi0ELi3ELi1EEE@Base 1.6
 (optional=templinst)_ZN3pcl13MarchingCubesINS_17PointXYZRGBNormalEE13createSurfaceERSt6vectorIfSaIfEERN5Eigen6MatrixIiLi3ELi1ELi0ELi3ELi1EEERNS_10PointCloudIS1_EE@Base 1.6
 (optional=templinst)_ZN3pcl13MarchingCubesINS_17PointXYZRGBNormalEE14getBoundingBoxEv@Base 1.6
 (optional=templinst)_ZN3pcl13MarchingCubesINS_17PointXYZRGBNormalEE15interpolateEdgeERN5Eigen6MatrixIfLi3ELi1ELi0ELi3ELi1EEES6_ffS6_@Base 1.6
 (optional=templinst)_ZN3pcl13MarchingCubesINS_17PointXYZRGBNormalEE17getGridResolutionERiS3_S3_@Base 1.6
 (optional=templinst)_ZN3pcl13MarchingCubesINS_17PointXYZRGBNormalEE17getNeighborList1DERSt6vectorIfSaIfEERN5Eigen6MatrixIiLi3ELi1ELi0ELi3ELi1EEE@Base 1.6
 (optional=templinst)_ZN3pcl13MarchingCubesINS_17PointXYZRGBNormalEE17setGridResolutionEiii@Base 1.6
 (optional=templinst)_ZN3pcl13MarchingCubesINS_17PointXYZRGBNormalEE21performReconstructionERNS_10PointCloudIS1_EERSt6vectorINS_8VerticesESaIS7_EE@Base 1.6
 (optional=templinst)_ZN3pcl13MarchingCubesINS_17PointXYZRGBNormalEE21performReconstructionERNS_11PolygonMeshE@Base 1.6
 (optional=templinst)_ZN3pcl13MarchingCubesINS_17PointXYZRGBNormalEE23getPercentageExtendGridEv@Base 1.6
 (optional=templinst)_ZN3pcl13MarchingCubesINS_17PointXYZRGBNormalEE23setPercentageExtendGridEf@Base 1.6
 (optional=templinst)_ZN3pcl13MarchingCubesINS_17PointXYZRGBNormalEEC1Ev@Base 1.6
 (optional=templinst)_ZN3pcl13MarchingCubesINS_17PointXYZRGBNormalEEC2Ev@Base 1.6
 (optional=templinst)_ZN3pcl13MarchingCubesINS_17PointXYZRGBNormalEED0Ev@Base 1.6
 (optional=templinst)_ZN3pcl13MarchingCubesINS_17PointXYZRGBNormalEED1Ev@Base 1.6
 (optional=templinst)_ZN3pcl13MarchingCubesINS_17PointXYZRGBNormalEED2Ev@Base 1.6
 _ZN3pcl13MarchingCubesINS_17PointXYZRGBNormalEEdaEPv@Base 1.6
 _ZN3pcl13MarchingCubesINS_17PointXYZRGBNormalEEdlEPv@Base 1.6
 _ZN3pcl13MarchingCubesINS_17PointXYZRGBNormalEEdlEPvRKSt9nothrow_t@Base 1.6
 _ZN3pcl13MarchingCubesINS_17PointXYZRGBNormalEEdlEPvS3_@Base 1.6
 _ZN3pcl13MarchingCubesINS_17PointXYZRGBNormalEEnaEm@Base 1.6
 _ZN3pcl13MarchingCubesINS_17PointXYZRGBNormalEEnwEm@Base 1.6
 _ZN3pcl13MarchingCubesINS_17PointXYZRGBNormalEEnwEmPv@Base 1.6
 _ZN3pcl13MarchingCubesINS_17PointXYZRGBNormalEEnwEmRKSt9nothrow_t@Base 1.6
 (optional=templinst)_ZN3pcl13VectorAverageIfLi3EE5resetEv@Base 1.6
 (optional=templinst)_ZN3pcl13VectorAverageIfLi3EEC1Ev@Base 1.6
 (optional=templinst)_ZN3pcl13VectorAverageIfLi3EEC2Ev@Base 1.6
 (optional=templinst)_ZN3pcl13computeRoots2IfN5Eigen6MatrixIfLi3ELi1ELi0ELi3ELi1EEEEEvRKT_S6_RT0_@Base 1.6
 (optional=templinst)_ZN3pcl13createMappingINS_8PointXYZEEEvRKSt6vectorIN11sensor_msgs10PointFieldESaIS4_EERS2_INS_6detail12FieldMappingESaISA_EE@Base 1.6
 _ZN3pcl13getFieldIndexERKN11sensor_msgs11PointCloud2ERKSs@Base 1.6
 (optional=templinst)_ZN3pcl14GridProjectionINS_11PointNormalEE12getD1AtPointERKN5Eigen6MatrixIfLi4ELi1ELi0ELi4ELi1EEERKNS4_IfLi3ELi1ELi0ELi3ELi1EEERKSt6vectorIiSaIiEE@Base 1.6
 (optional=templinst)_ZN3pcl14GridProjectionINS_11PointNormalEE12getD2AtPointERKN5Eigen6MatrixIfLi4ELi1ELi0ELi4ELi1EEERKNS4_IfLi3ELi1ELi0ELi3ELi1EEERKSt6vectorIiSaIiEE@Base 1.6
 (optional=templinst)_ZN3pcl14GridProjectionINS_11PointNormalEE13getMagAtPointERKN5Eigen6MatrixIfLi4ELi1ELi0ELi4ELi1EEERKSt6vectorIiSaIiEE@Base 1.6
 (optional=templinst)_ZN3pcl14GridProjectionINS_11PointNormalEE13getProjectionERKN5Eigen6MatrixIfLi4ELi1ELi0ELi4ELi1EEERSt6vectorIiSaIiEERS5_@Base 1.6
 (optional=templinst)_ZN3pcl14GridProjectionINS_11PointNormalEE13isIntersectedERKSt6vectorIN5Eigen6MatrixIfLi4ELi1ELi0ELi4ELi1EEENS4_17aligned_allocatorIS6_EEERS3_INS5_IfLi3ELi1ELi0ELi3ELi1EEENS7_ISC_EEERS3_IiSaIiEE@Base 1.6
 (optional=templinst)_ZN3pcl14GridProjectionINS_11PointNormalEE13setResolutionEd@Base 1.6
 (optional=templinst)_ZN3pcl14GridProjectionINS_11PointNormalEE14getBoundingBoxEv@Base 1.6
 (optional=templinst)_ZN3pcl14GridProjectionINS_11PointNormalEE14setPaddingSizeEi@Base 1.6
 (optional=templinst)_ZN3pcl14GridProjectionINS_11PointNormalEE15getDataPtsUnionERKN5Eigen6MatrixIiLi3ELi1ELi0ELi3ELi1EEERSt6vectorIiSaIiEE@Base 1.6
 (optional=templinst)_ZN3pcl14GridProjectionINS_11PointNormalEE16findIntersectionEiRKSt6vectorIN5Eigen6MatrixIfLi4ELi1ELi0ELi4ELi1EEENS4_17aligned_allocatorIS6_EEERKS3_INS5_IfLi3ELi1ELi0ELi3ELi1EEENS7_ISC_EEERKS6_RS3_IiSaIiEERS6_@Base 1.6
 (optional=templinst)_ZN3pcl14GridProjectionINS_11PointNormalEE16getVectorAtPointERKN5Eigen6MatrixIfLi4ELi1ELi0ELi4ELi1EEERSt6vectorIiSaIiEERNS4_IfLi3ELi1ELi0ELi3ELi1EEE@Base 1.6
 (optional=templinst)_ZN3pcl14GridProjectionINS_11PointNormalEE19getVectorAtPointKNNERKN5Eigen6MatrixIfLi4ELi1ELi0ELi4ELi1EEERSt6vectorIiSaIiEERS8_IfSaIfEERNS4_IfLi3ELi1ELi0ELi3ELi1EEE@Base 1.6
 (optional=templinst)_ZN3pcl14GridProjectionINS_11PointNormalEE19reconstructPolygonsERSt6vectorINS_8VerticesESaIS4_EE@Base 1.6
 (optional=templinst)_ZN3pcl14GridProjectionINS_11PointNormalEE19scaleInputDataPointEd@Base 1.6
 (optional=templinst)_ZN3pcl14GridProjectionINS_11PointNormalEE20createSurfaceForCellERKN5Eigen6MatrixIiLi3ELi1ELi0ELi3ELi1EEERSt6vectorIiSaIiEE@Base 1.6
 (optional=templinst)_ZN3pcl14GridProjectionINS_11PointNormalEE21performReconstructionERNS_10PointCloudIS1_EERSt6vectorINS_8VerticesESaIS7_EE@Base 1.6
 (optional=templinst)_ZN3pcl14GridProjectionINS_11PointNormalEE21performReconstructionERNS_11PolygonMeshE@Base 1.6
 (optional=templinst)_ZN3pcl14GridProjectionINS_11PointNormalEE21setNearestNeighborNumEi@Base 1.6
 (optional=templinst)_ZN3pcl14GridProjectionINS_11PointNormalEE23setMaxBinarySearchLevelEi@Base 1.6
 (optional=templinst)_ZN3pcl14GridProjectionINS_11PointNormalEE24storeVectAndSurfacePointEiRKN5Eigen6MatrixIiLi3ELi1ELi0ELi3ELi1EEERSt6vectorIiSaIiEERKNS2_4LeafE@Base 1.6
 (optional=templinst)_ZN3pcl14GridProjectionINS_11PointNormalEE25getProjectionWithPlaneFitERKN5Eigen6MatrixIfLi4ELi1ELi0ELi4ELi1EEERSt6vectorIiSaIiEERS5_@Base 1.6
 (optional=templinst)_ZN3pcl14GridProjectionINS_11PointNormalEE27storeVectAndSurfacePointKNNEiRKN5Eigen6MatrixIiLi3ELi1ELi0ELi3ELi1EEERKNS2_4LeafE@Base 1.6
 (optional=templinst)_ZN3pcl14GridProjectionINS_11PointNormalEE4LeafC1Ev@Base 1.6
 (optional=templinst)_ZN3pcl14GridProjectionINS_11PointNormalEE4LeafC2Ev@Base 1.6
 (optional=templinst)_ZN3pcl14GridProjectionINS_11PointNormalEE4LeafD1Ev@Base 1.6
 (optional=templinst)_ZN3pcl14GridProjectionINS_11PointNormalEE4LeafD2Ev@Base 1.6
 (optional=templinst)_ZN3pcl14GridProjectionINS_11PointNormalEE7fillPadERKN5Eigen6MatrixIiLi3ELi1ELi0ELi3ELi1EEE@Base 1.6
 (optional=templinst)_ZN3pcl14GridProjectionINS_11PointNormalEEC1Ed@Base 1.6
 (optional=templinst)_ZN3pcl14GridProjectionINS_11PointNormalEEC1Ev@Base 1.6
 (optional=templinst)_ZN3pcl14GridProjectionINS_11PointNormalEEC2Ed@Base 1.6
 (optional=templinst)_ZN3pcl14GridProjectionINS_11PointNormalEEC2Ev@Base 1.6
 (optional=templinst)_ZN3pcl14GridProjectionINS_11PointNormalEED0Ev@Base 1.6
 (optional=templinst)_ZN3pcl14GridProjectionINS_11PointNormalEED1Ev@Base 1.6
 (optional=templinst)_ZN3pcl14GridProjectionINS_11PointNormalEED2Ev@Base 1.6
 _ZN3pcl14GridProjectionINS_11PointNormalEEdaEPv@Base 1.6
 _ZN3pcl14GridProjectionINS_11PointNormalEEdlEPv@Base 1.6
 _ZN3pcl14GridProjectionINS_11PointNormalEEdlEPvRKSt9nothrow_t@Base 1.6
 _ZN3pcl14GridProjectionINS_11PointNormalEEdlEPvS3_@Base 1.6
 _ZN3pcl14GridProjectionINS_11PointNormalEEnaEm@Base 1.6
 _ZN3pcl14GridProjectionINS_11PointNormalEEnwEm@Base 1.6
 _ZN3pcl14GridProjectionINS_11PointNormalEEnwEmPv@Base 1.6
 _ZN3pcl14GridProjectionINS_11PointNormalEEnwEmRKSt9nothrow_t@Base 1.6
 (optional=templinst)_ZN3pcl14GridProjectionINS_15PointXYZINormalEE12getD1AtPointERKN5Eigen6MatrixIfLi4ELi1ELi0ELi4ELi1EEERKNS4_IfLi3ELi1ELi0ELi3ELi1EEERKSt6vectorIiSaIiEE@Base 1.6
 (optional=templinst)_ZN3pcl14GridProjectionINS_15PointXYZINormalEE12getD2AtPointERKN5Eigen6MatrixIfLi4ELi1ELi0ELi4ELi1EEERKNS4_IfLi3ELi1ELi0ELi3ELi1EEERKSt6vectorIiSaIiEE@Base 1.6
 (optional=templinst)_ZN3pcl14GridProjectionINS_15PointXYZINormalEE13getMagAtPointERKN5Eigen6MatrixIfLi4ELi1ELi0ELi4ELi1EEERKSt6vectorIiSaIiEE@Base 1.6
 (optional=templinst)_ZN3pcl14GridProjectionINS_15PointXYZINormalEE13getProjectionERKN5Eigen6MatrixIfLi4ELi1ELi0ELi4ELi1EEERSt6vectorIiSaIiEERS5_@Base 1.6
 (optional=templinst)_ZN3pcl14GridProjectionINS_15PointXYZINormalEE13isIntersectedERKSt6vectorIN5Eigen6MatrixIfLi4ELi1ELi0ELi4ELi1EEENS4_17aligned_allocatorIS6_EEERS3_INS5_IfLi3ELi1ELi0ELi3ELi1EEENS7_ISC_EEERS3_IiSaIiEE@Base 1.6
 (optional=templinst)_ZN3pcl14GridProjectionINS_15PointXYZINormalEE13setResolutionEd@Base 1.6
 (optional=templinst)_ZN3pcl14GridProjectionINS_15PointXYZINormalEE14getBoundingBoxEv@Base 1.6
 (optional=templinst)_ZN3pcl14GridProjectionINS_15PointXYZINormalEE14setPaddingSizeEi@Base 1.6
 (optional=templinst)_ZN3pcl14GridProjectionINS_15PointXYZINormalEE15getDataPtsUnionERKN5Eigen6MatrixIiLi3ELi1ELi0ELi3ELi1EEERSt6vectorIiSaIiEE@Base 1.6
 (optional=templinst)_ZN3pcl14GridProjectionINS_15PointXYZINormalEE16findIntersectionEiRKSt6vectorIN5Eigen6MatrixIfLi4ELi1ELi0ELi4ELi1EEENS4_17aligned_allocatorIS6_EEERKS3_INS5_IfLi3ELi1ELi0ELi3ELi1EEENS7_ISC_EEERKS6_RS3_IiSaIiEERS6_@Base 1.6
 (optional=templinst)_ZN3pcl14GridProjectionINS_15PointXYZINormalEE16getVectorAtPointERKN5Eigen6MatrixIfLi4ELi1ELi0ELi4ELi1EEERSt6vectorIiSaIiEERNS4_IfLi3ELi1ELi0ELi3ELi1EEE@Base 1.6
 (optional=templinst)_ZN3pcl14GridProjectionINS_15PointXYZINormalEE19getVectorAtPointKNNERKN5Eigen6MatrixIfLi4ELi1ELi0ELi4ELi1EEERSt6vectorIiSaIiEERS8_IfSaIfEERNS4_IfLi3ELi1ELi0ELi3ELi1EEE@Base 1.6
 (optional=templinst)_ZN3pcl14GridProjectionINS_15PointXYZINormalEE19reconstructPolygonsERSt6vectorINS_8VerticesESaIS4_EE@Base 1.6
 (optional=templinst)_ZN3pcl14GridProjectionINS_15PointXYZINormalEE19scaleInputDataPointEd@Base 1.6
 (optional=templinst)_ZN3pcl14GridProjectionINS_15PointXYZINormalEE20createSurfaceForCellERKN5Eigen6MatrixIiLi3ELi1ELi0ELi3ELi1EEERSt6vectorIiSaIiEE@Base 1.6
 (optional=templinst)_ZN3pcl14GridProjectionINS_15PointXYZINormalEE21performReconstructionERNS_10PointCloudIS1_EERSt6vectorINS_8VerticesESaIS7_EE@Base 1.6
 (optional=templinst)_ZN3pcl14GridProjectionINS_15PointXYZINormalEE21performReconstructionERNS_11PolygonMeshE@Base 1.6
 (optional=templinst)_ZN3pcl14GridProjectionINS_15PointXYZINormalEE21setNearestNeighborNumEi@Base 1.6
 (optional=templinst)_ZN3pcl14GridProjectionINS_15PointXYZINormalEE23setMaxBinarySearchLevelEi@Base 1.6
 (optional=templinst)_ZN3pcl14GridProjectionINS_15PointXYZINormalEE24storeVectAndSurfacePointEiRKN5Eigen6MatrixIiLi3ELi1ELi0ELi3ELi1EEERSt6vectorIiSaIiEERKNS2_4LeafE@Base 1.6
 (optional=templinst)_ZN3pcl14GridProjectionINS_15PointXYZINormalEE25getProjectionWithPlaneFitERKN5Eigen6MatrixIfLi4ELi1ELi0ELi4ELi1EEERSt6vectorIiSaIiEERS5_@Base 1.6
 (optional=templinst)_ZN3pcl14GridProjectionINS_15PointXYZINormalEE27storeVectAndSurfacePointKNNEiRKN5Eigen6MatrixIiLi3ELi1ELi0ELi3ELi1EEERKNS2_4LeafE@Base 1.6
 (optional=templinst)_ZN3pcl14GridProjectionINS_15PointXYZINormalEE4LeafC1Ev@Base 1.6
 (optional=templinst)_ZN3pcl14GridProjectionINS_15PointXYZINormalEE4LeafC2Ev@Base 1.6
 (optional=templinst)_ZN3pcl14GridProjectionINS_15PointXYZINormalEE4LeafD1Ev@Base 1.6
 (optional=templinst)_ZN3pcl14GridProjectionINS_15PointXYZINormalEE4LeafD2Ev@Base 1.6
 (optional=templinst)_ZN3pcl14GridProjectionINS_15PointXYZINormalEE7fillPadERKN5Eigen6MatrixIiLi3ELi1ELi0ELi3ELi1EEE@Base 1.6
 (optional=templinst)_ZN3pcl14GridProjectionINS_15PointXYZINormalEEC1Ed@Base 1.6
 (optional=templinst)_ZN3pcl14GridProjectionINS_15PointXYZINormalEEC1Ev@Base 1.6
 (optional=templinst)_ZN3pcl14GridProjectionINS_15PointXYZINormalEEC2Ed@Base 1.6
 (optional=templinst)_ZN3pcl14GridProjectionINS_15PointXYZINormalEEC2Ev@Base 1.6
 (optional=templinst)_ZN3pcl14GridProjectionINS_15PointXYZINormalEED0Ev@Base 1.6
 (optional=templinst)_ZN3pcl14GridProjectionINS_15PointXYZINormalEED1Ev@Base 1.6
 (optional=templinst)_ZN3pcl14GridProjectionINS_15PointXYZINormalEED2Ev@Base 1.6
 _ZN3pcl14GridProjectionINS_15PointXYZINormalEEdaEPv@Base 1.6
 _ZN3pcl14GridProjectionINS_15PointXYZINormalEEdlEPv@Base 1.6
 _ZN3pcl14GridProjectionINS_15PointXYZINormalEEdlEPvRKSt9nothrow_t@Base 1.6
 _ZN3pcl14GridProjectionINS_15PointXYZINormalEEdlEPvS3_@Base 1.6
 _ZN3pcl14GridProjectionINS_15PointXYZINormalEEnaEm@Base 1.6
 _ZN3pcl14GridProjectionINS_15PointXYZINormalEEnwEm@Base 1.6
 _ZN3pcl14GridProjectionINS_15PointXYZINormalEEnwEmPv@Base 1.6
 _ZN3pcl14GridProjectionINS_15PointXYZINormalEEnwEmRKSt9nothrow_t@Base 1.6
 (optional=templinst)_ZN3pcl14GridProjectionINS_17PointXYZRGBNormalEE12getD1AtPointERKN5Eigen6MatrixIfLi4ELi1ELi0ELi4ELi1EEERKNS4_IfLi3ELi1ELi0ELi3ELi1EEERKSt6vectorIiSaIiEE@Base 1.6
 (optional=templinst)_ZN3pcl14GridProjectionINS_17PointXYZRGBNormalEE12getD2AtPointERKN5Eigen6MatrixIfLi4ELi1ELi0ELi4ELi1EEERKNS4_IfLi3ELi1ELi0ELi3ELi1EEERKSt6vectorIiSaIiEE@Base 1.6
 (optional=templinst)_ZN3pcl14GridProjectionINS_17PointXYZRGBNormalEE13getMagAtPointERKN5Eigen6MatrixIfLi4ELi1ELi0ELi4ELi1EEERKSt6vectorIiSaIiEE@Base 1.6
 (optional=templinst)_ZN3pcl14GridProjectionINS_17PointXYZRGBNormalEE13getProjectionERKN5Eigen6MatrixIfLi4ELi1ELi0ELi4ELi1EEERSt6vectorIiSaIiEERS5_@Base 1.6
 (optional=templinst)_ZN3pcl14GridProjectionINS_17PointXYZRGBNormalEE13isIntersectedERKSt6vectorIN5Eigen6MatrixIfLi4ELi1ELi0ELi4ELi1EEENS4_17aligned_allocatorIS6_EEERS3_INS5_IfLi3ELi1ELi0ELi3ELi1EEENS7_ISC_EEERS3_IiSaIiEE@Base 1.6
 (optional=templinst)_ZN3pcl14GridProjectionINS_17PointXYZRGBNormalEE13setResolutionEd@Base 1.6
 (optional=templinst)_ZN3pcl14GridProjectionINS_17PointXYZRGBNormalEE14getBoundingBoxEv@Base 1.6
 (optional=templinst)_ZN3pcl14GridProjectionINS_17PointXYZRGBNormalEE14setPaddingSizeEi@Base 1.6
 (optional=templinst)_ZN3pcl14GridProjectionINS_17PointXYZRGBNormalEE15getDataPtsUnionERKN5Eigen6MatrixIiLi3ELi1ELi0ELi3ELi1EEERSt6vectorIiSaIiEE@Base 1.6
 (optional=templinst)_ZN3pcl14GridProjectionINS_17PointXYZRGBNormalEE16findIntersectionEiRKSt6vectorIN5Eigen6MatrixIfLi4ELi1ELi0ELi4ELi1EEENS4_17aligned_allocatorIS6_EEERKS3_INS5_IfLi3ELi1ELi0ELi3ELi1EEENS7_ISC_EEERKS6_RS3_IiSaIiEERS6_@Base 1.6
 (optional=templinst)_ZN3pcl14GridProjectionINS_17PointXYZRGBNormalEE16getVectorAtPointERKN5Eigen6MatrixIfLi4ELi1ELi0ELi4ELi1EEERSt6vectorIiSaIiEERNS4_IfLi3ELi1ELi0ELi3ELi1EEE@Base 1.6
 (optional=templinst)_ZN3pcl14GridProjectionINS_17PointXYZRGBNormalEE19getVectorAtPointKNNERKN5Eigen6MatrixIfLi4ELi1ELi0ELi4ELi1EEERSt6vectorIiSaIiEERS8_IfSaIfEERNS4_IfLi3ELi1ELi0ELi3ELi1EEE@Base 1.6
 (optional=templinst)_ZN3pcl14GridProjectionINS_17PointXYZRGBNormalEE19reconstructPolygonsERSt6vectorINS_8VerticesESaIS4_EE@Base 1.6
 (optional=templinst)_ZN3pcl14GridProjectionINS_17PointXYZRGBNormalEE19scaleInputDataPointEd@Base 1.6
 (optional=templinst)_ZN3pcl14GridProjectionINS_17PointXYZRGBNormalEE20createSurfaceForCellERKN5Eigen6MatrixIiLi3ELi1ELi0ELi3ELi1EEERSt6vectorIiSaIiEE@Base 1.6
 (optional=templinst)_ZN3pcl14GridProjectionINS_17PointXYZRGBNormalEE21performReconstructionERNS_10PointCloudIS1_EERSt6vectorINS_8VerticesESaIS7_EE@Base 1.6
 (optional=templinst)_ZN3pcl14GridProjectionINS_17PointXYZRGBNormalEE21performReconstructionERNS_11PolygonMeshE@Base 1.6
 (optional=templinst)_ZN3pcl14GridProjectionINS_17PointXYZRGBNormalEE21setNearestNeighborNumEi@Base 1.6
 (optional=templinst)_ZN3pcl14GridProjectionINS_17PointXYZRGBNormalEE23setMaxBinarySearchLevelEi@Base 1.6
 (optional=templinst)_ZN3pcl14GridProjectionINS_17PointXYZRGBNormalEE24storeVectAndSurfacePointEiRKN5Eigen6MatrixIiLi3ELi1ELi0ELi3ELi1EEERSt6vectorIiSaIiEERKNS2_4LeafE@Base 1.6
 (optional=templinst)_ZN3pcl14GridProjectionINS_17PointXYZRGBNormalEE25getProjectionWithPlaneFitERKN5Eigen6MatrixIfLi4ELi1ELi0ELi4ELi1EEERSt6vectorIiSaIiEERS5_@Base 1.6
 (optional=templinst)_ZN3pcl14GridProjectionINS_17PointXYZRGBNormalEE27storeVectAndSurfacePointKNNEiRKN5Eigen6MatrixIiLi3ELi1ELi0ELi3ELi1EEERKNS2_4LeafE@Base 1.6
 (optional=templinst)_ZN3pcl14GridProjectionINS_17PointXYZRGBNormalEE4LeafC1Ev@Base 1.6
 (optional=templinst)_ZN3pcl14GridProjectionINS_17PointXYZRGBNormalEE4LeafC2Ev@Base 1.6
 (optional=templinst)_ZN3pcl14GridProjectionINS_17PointXYZRGBNormalEE4LeafD1Ev@Base 1.6
 (optional=templinst)_ZN3pcl14GridProjectionINS_17PointXYZRGBNormalEE4LeafD2Ev@Base 1.6
 (optional=templinst)_ZN3pcl14GridProjectionINS_17PointXYZRGBNormalEE7fillPadERKN5Eigen6MatrixIiLi3ELi1ELi0ELi3ELi1EEE@Base 1.6
 (optional=templinst)_ZN3pcl14GridProjectionINS_17PointXYZRGBNormalEEC1Ed@Base 1.6
 (optional=templinst)_ZN3pcl14GridProjectionINS_17PointXYZRGBNormalEEC1Ev@Base 1.6
 (optional=templinst)_ZN3pcl14GridProjectionINS_17PointXYZRGBNormalEEC2Ed@Base 1.6
 (optional=templinst)_ZN3pcl14GridProjectionINS_17PointXYZRGBNormalEEC2Ev@Base 1.6
 (optional=templinst)_ZN3pcl14GridProjectionINS_17PointXYZRGBNormalEED0Ev@Base 1.6
 (optional=templinst)_ZN3pcl14GridProjectionINS_17PointXYZRGBNormalEED1Ev@Base 1.6
 (optional=templinst)_ZN3pcl14GridProjectionINS_17PointXYZRGBNormalEED2Ev@Base 1.6
 _ZN3pcl14GridProjectionINS_17PointXYZRGBNormalEEdaEPv@Base 1.6
 _ZN3pcl14GridProjectionINS_17PointXYZRGBNormalEEdlEPv@Base 1.6
 _ZN3pcl14GridProjectionINS_17PointXYZRGBNormalEEdlEPvRKSt9nothrow_t@Base 1.6
 _ZN3pcl14GridProjectionINS_17PointXYZRGBNormalEEdlEPvS3_@Base 1.6
 _ZN3pcl14GridProjectionINS_17PointXYZRGBNormalEEnaEm@Base 1.6
 _ZN3pcl14GridProjectionINS_17PointXYZRGBNormalEEnwEm@Base 1.6
 _ZN3pcl14GridProjectionINS_17PointXYZRGBNormalEEnwEmPv@Base 1.6
 _ZN3pcl14GridProjectionINS_17PointXYZRGBNormalEEnwEmRKSt9nothrow_t@Base 1.6
 _ZN3pcl14MeshProcessing11initComputeEv@Base 1.6
 _ZN3pcl14MeshProcessing13deinitComputeEv@Base 1.6
 _ZN3pcl14MeshProcessing7processERNS_11PolygonMeshE@Base 1.6
 _ZN3pcl14MeshProcessingD0Ev@Base 1.6
 _ZN3pcl14MeshProcessingD1Ev@Base 1.6
 _ZN3pcl14MeshProcessingD2Ev@Base 1.6
 (optional=templinst)_ZN3pcl14PCLSurfaceBaseINS_11PointNormalEED0Ev@Base 1.6
 (optional=templinst)_ZN3pcl14PCLSurfaceBaseINS_11PointNormalEED1Ev@Base 1.6
 (optional=templinst)_ZN3pcl14PCLSurfaceBaseINS_11PointNormalEED2Ev@Base 1.6
 (optional=templinst)_ZN3pcl14PCLSurfaceBaseINS_11PointXYZHSVEED0Ev@Base 1.6
 (optional=templinst)_ZN3pcl14PCLSurfaceBaseINS_11PointXYZHSVEED1Ev@Base 1.6
 (optional=templinst)_ZN3pcl14PCLSurfaceBaseINS_11PointXYZHSVEED2Ev@Base 1.6
 (optional=templinst)_ZN3pcl14PCLSurfaceBaseINS_11PointXYZRGBEED0Ev@Base 1.6
 (optional=templinst)_ZN3pcl14PCLSurfaceBaseINS_11PointXYZRGBEED1Ev@Base 1.6
 (optional=templinst)_ZN3pcl14PCLSurfaceBaseINS_11PointXYZRGBEED2Ev@Base 1.6
 (optional=templinst)_ZN3pcl14PCLSurfaceBaseINS_12PointXYZRGBAEED0Ev@Base 1.6
 (optional=templinst)_ZN3pcl14PCLSurfaceBaseINS_12PointXYZRGBAEED1Ev@Base 1.6
 (optional=templinst)_ZN3pcl14PCLSurfaceBaseINS_12PointXYZRGBAEED2Ev@Base 1.6
 (optional=templinst)_ZN3pcl14PCLSurfaceBaseINS_12PointXYZRGBLEED0Ev@Base 1.6
 (optional=templinst)_ZN3pcl14PCLSurfaceBaseINS_12PointXYZRGBLEED1Ev@Base 1.6
 (optional=templinst)_ZN3pcl14PCLSurfaceBaseINS_12PointXYZRGBLEED2Ev@Base 1.6
 (optional=templinst)_ZN3pcl14PCLSurfaceBaseINS_13InterestPointEED0Ev@Base 1.6
 (optional=templinst)_ZN3pcl14PCLSurfaceBaseINS_13InterestPointEED1Ev@Base 1.6
 (optional=templinst)_ZN3pcl14PCLSurfaceBaseINS_13InterestPointEED2Ev@Base 1.6
 (optional=templinst)_ZN3pcl14PCLSurfaceBaseINS_14PointWithRangeEED0Ev@Base 1.6
 (optional=templinst)_ZN3pcl14PCLSurfaceBaseINS_14PointWithRangeEED1Ev@Base 1.6
 (optional=templinst)_ZN3pcl14PCLSurfaceBaseINS_14PointWithRangeEED2Ev@Base 1.6
 (optional=templinst)_ZN3pcl14PCLSurfaceBaseINS_14PointWithScaleEED0Ev@Base 1.6
 (optional=templinst)_ZN3pcl14PCLSurfaceBaseINS_14PointWithScaleEED1Ev@Base 1.6
 (optional=templinst)_ZN3pcl14PCLSurfaceBaseINS_14PointWithScaleEED2Ev@Base 1.6
 (optional=templinst)_ZN3pcl14PCLSurfaceBaseINS_15PointXYZINormalEED0Ev@Base 1.6
 (optional=templinst)_ZN3pcl14PCLSurfaceBaseINS_15PointXYZINormalEED1Ev@Base 1.6
 (optional=templinst)_ZN3pcl14PCLSurfaceBaseINS_15PointXYZINormalEED2Ev@Base 1.6
 (optional=templinst)_ZN3pcl14PCLSurfaceBaseINS_17PointXYZRGBNormalEED0Ev@Base 1.6
 (optional=templinst)_ZN3pcl14PCLSurfaceBaseINS_17PointXYZRGBNormalEED1Ev@Base 1.6
 (optional=templinst)_ZN3pcl14PCLSurfaceBaseINS_17PointXYZRGBNormalEED2Ev@Base 1.6
 (optional=templinst)_ZN3pcl14PCLSurfaceBaseINS_18PointWithViewpointEED0Ev@Base 1.6
 (optional=templinst)_ZN3pcl14PCLSurfaceBaseINS_18PointWithViewpointEED1Ev@Base 1.6
 (optional=templinst)_ZN3pcl14PCLSurfaceBaseINS_18PointWithViewpointEED2Ev@Base 1.6
 (optional=templinst)_ZN3pcl14PCLSurfaceBaseINS_8PointXYZEED0Ev@Base 1.6
 (optional=templinst)_ZN3pcl14PCLSurfaceBaseINS_8PointXYZEED1Ev@Base 1.6
 (optional=templinst)_ZN3pcl14PCLSurfaceBaseINS_8PointXYZEED2Ev@Base 1.6
 (optional=templinst)_ZN3pcl14PCLSurfaceBaseINS_9PointXYZIEED0Ev@Base 1.6
 (optional=templinst)_ZN3pcl14PCLSurfaceBaseINS_9PointXYZIEED1Ev@Base 1.6
 (optional=templinst)_ZN3pcl14PCLSurfaceBaseINS_9PointXYZIEED2Ev@Base 1.6
 (optional=templinst)_ZN3pcl14PCLSurfaceBaseINS_9PointXYZLEED0Ev@Base 1.6
 (optional=templinst)_ZN3pcl14PCLSurfaceBaseINS_9PointXYZLEED1Ev@Base 1.6
 (optional=templinst)_ZN3pcl14PCLSurfaceBaseINS_9PointXYZLEED2Ev@Base 1.6
 (optional=templinst)_ZN3pcl14TextureMappingINS_8PointXYZEE14setVectorFieldEfff@Base 1.6
 (optional=templinst)_ZN3pcl14TextureMappingINS_8PointXYZEE14showOcclusionsERKN5boost10shared_ptrINS_10PointCloudIS1_EEEERNS4_INS5_INS_9PointXYZIEEEEEdbi@Base 1.6
 (optional=templinst)_ZN3pcl14TextureMappingINS_8PointXYZEE14showOcclusionsERNS_11TextureMeshERN5boost10shared_ptrINS_10PointCloudINS_9PointXYZIEEEEEdbi@Base 1.6
 (optional=templinst)_ZN3pcl14TextureMappingINS_8PointXYZEE15isFaceProjectedERKNS_15texture_mapping6CameraERKS1_S8_S8_RNS_7PointXYESA_SA_@Base 1.6
 (optional=templinst)_ZN3pcl14TextureMappingINS_8PointXYZEE15isPointOccludedERKS1_N5boost10shared_ptrINS_6octree22OctreePointCloudSearchIS1_NS7_26OctreeContainerDataTVectorIiEENS7_20OctreeContainerEmptyIiEEEEEE@Base 1.6
 (optional=templinst)_ZN3pcl14TextureMappingINS_8PointXYZEE15mapTexture2FaceERKN5Eigen6MatrixIfLi3ELi1ELi0ELi3ELi1EEES7_S7_@Base 1.6
 (optional=templinst)_ZN3pcl14TextureMappingINS_8PointXYZEE15mapTexture2MeshERNS_11TextureMeshE@Base 1.6
 (optional=templinst)_ZN3pcl14TextureMappingINS_8PointXYZEE15setTextureFilesESt6vectorISsSaISsEE@Base 1.6
 (optional=templinst)_ZN3pcl14TextureMappingINS_8PointXYZEE17mapTexture2MeshUVERNS_11TextureMeshE@Base 1.6
 (optional=templinst)_ZN3pcl14TextureMappingINS_8PointXYZEE17sortFacesByCameraERNS_11TextureMeshES4_RKSt6vectorINS_15texture_mapping6CameraEN5Eigen17aligned_allocatorIS7_EEEdRNS_10PointCloudIS1_EE@Base 1.6
 (optional=templinst)_ZN3pcl14TextureMappingINS_8PointXYZEE19setTextureMaterialsENS_11TexMaterialE@Base 1.6
 (optional=templinst)_ZN3pcl14TextureMappingINS_8PointXYZEE20removeOccludedPointsERKN5boost10shared_ptrINS_10PointCloudIS1_EEEERS7_dRSt6vectorIiSaIiEESE_@Base 1.6
 (optional=templinst)_ZN3pcl14TextureMappingINS_8PointXYZEE20removeOccludedPointsERKNS_11TextureMeshERN5boost10shared_ptrINS_10PointCloudIS1_EEEEd@Base 1.6
 (optional=templinst)_ZN3pcl14TextureMappingINS_8PointXYZEE20removeOccludedPointsERKNS_11TextureMeshERS3_d@Base 1.6
 (optional=templinst)_ZN3pcl14TextureMappingINS_8PointXYZEE21getPointUVCoordinatesERKS1_RKNS_15texture_mapping6CameraERN5Eigen6MatrixIfLi2ELi1ELi0ELi2ELi1EEE@Base 1.6
 (optional=templinst)_ZN3pcl14TextureMappingINS_8PointXYZEE21getPointUVCoordinatesERKS1_RKNS_15texture_mapping6CameraERNS_7PointXYE@Base 1.6
 (optional=templinst)_ZN3pcl14TextureMappingINS_8PointXYZEE24checkPointInsideTriangleERKNS_7PointXYES5_S5_S5_@Base 1.6
 (optional=templinst)_ZN3pcl14TextureMappingINS_8PointXYZEE27mapMultipleTexturesToMeshUVERNS_11TextureMeshERSt6vectorINS_15texture_mapping6CameraEN5Eigen17aligned_allocatorIS7_EEE@Base 1.6
 (optional=templinst)_ZN3pcl14TextureMappingINS_8PointXYZEE30getTriangleCircumcenterAndSizeERKNS_7PointXYES5_S5_RS3_Rd@Base 1.6
 (optional=templinst)_ZN3pcl14TextureMappingINS_8PointXYZEE30textureMeshwithMultipleCamerasERNS_11TextureMeshERKSt6vectorINS_15texture_mapping6CameraEN5Eigen17aligned_allocatorIS7_EEE@Base 1.6
 (optional=templinst)_ZN3pcl14TextureMappingINS_8PointXYZEE4setFEf@Base 1.6
 (optional=templinst)_ZN3pcl14TextureMappingINS_8PointXYZEEC1Ev@Base 1.6
 (optional=templinst)_ZN3pcl14TextureMappingINS_8PointXYZEEC2Ev@Base 1.6
 (optional=templinst)_ZN3pcl14TextureMappingINS_8PointXYZEED1Ev@Base 1.6
 (optional=templinst)_ZN3pcl14TextureMappingINS_8PointXYZEED2Ev@Base 1.6
 _ZN3pcl14TextureMappingINS_8PointXYZEEdaEPv@Base 1.6
 _ZN3pcl14TextureMappingINS_8PointXYZEEdlEPv@Base 1.6
 _ZN3pcl14TextureMappingINS_8PointXYZEEdlEPvRKSt9nothrow_t@Base 1.6
 _ZN3pcl14TextureMappingINS_8PointXYZEEdlEPvS3_@Base 1.6
 _ZN3pcl14TextureMappingINS_8PointXYZEEnaEm@Base 1.6
 _ZN3pcl14TextureMappingINS_8PointXYZEEnwEm@Base 1.6
 _ZN3pcl14TextureMappingINS_8PointXYZEEnwEmPv@Base 1.6
 _ZN3pcl14TextureMappingINS_8PointXYZEEnwEmRKSt9nothrow_t@Base 1.6
 (optional=templinst)_ZN3pcl14copyPointCloudINS_11PointNormalEEEvRKNS_10PointCloudIT_EERKSt6vectorIiSaIiEERS4_@Base 1.6
 (optional=templinst)_ZN3pcl14copyPointCloudINS_11PointXYZHSVEEEvRKNS_10PointCloudIT_EERKSt6vectorIiSaIiEERS4_@Base 1.6
 (optional=templinst)_ZN3pcl14copyPointCloudINS_11PointXYZRGBEEEvRKNS_10PointCloudIT_EERKSt6vectorIiSaIiEERS4_@Base 1.6
 (optional=templinst)_ZN3pcl14copyPointCloudINS_12PointXYZRGBAEEEvRKNS_10PointCloudIT_EERKSt6vectorIiSaIiEERS4_@Base 1.6
 (optional=templinst)_ZN3pcl14copyPointCloudINS_12PointXYZRGBLEEEvRKNS_10PointCloudIT_EERKSt6vectorIiSaIiEERS4_@Base 1.6
 (optional=templinst)_ZN3pcl14copyPointCloudINS_13InterestPointEEEvRKNS_10PointCloudIT_EERKSt6vectorIiSaIiEERS4_@Base 1.6
 (optional=templinst)_ZN3pcl14copyPointCloudINS_14PointWithRangeEEEvRKNS_10PointCloudIT_EERKSt6vectorIiSaIiEERS4_@Base 1.6
 (optional=templinst)_ZN3pcl14copyPointCloudINS_14PointWithScaleEEEvRKNS_10PointCloudIT_EERKSt6vectorIiSaIiEERS4_@Base 1.6
 (optional=templinst)_ZN3pcl14copyPointCloudINS_15PointXYZINormalEEEvRKNS_10PointCloudIT_EERKSt6vectorIiSaIiEERS4_@Base 1.6
 (optional=templinst)_ZN3pcl14copyPointCloudINS_17PointXYZRGBNormalEEEvRKNS_10PointCloudIT_EERKSt6vectorIiSaIiEERS4_@Base 1.6
 (optional=templinst)_ZN3pcl14copyPointCloudINS_18PointWithViewpointEEEvRKNS_10PointCloudIT_EERKSt6vectorIiSaIiEERS4_@Base 1.6
 (optional=templinst)_ZN3pcl14copyPointCloudINS_8PointXYZEEEvRKNS_10PointCloudIT_EERKSt6vectorIiSaIiEERS4_@Base 1.6
 (optional=templinst)_ZN3pcl14copyPointCloudINS_9PointXYZIEEEvRKNS_10PointCloudIT_EERKSt6vectorIiSaIiEERS4_@Base 1.6
 (optional=templinst)_ZN3pcl14copyPointCloudINS_9PointXYZLEEEvRKNS_10PointCloudIT_EERKSt6vectorIiSaIiEERS4_@Base 1.6
 (optional=templinst)_ZN3pcl15SurfelSmoothingINS_11PointNormalENS_15PointXYZINormalEE11initComputeEv@Base 1.6
 (optional=templinst)_ZN3pcl15SurfelSmoothingINS_11PointNormalENS_15PointXYZINormalEE11smoothPointERmRS1_RS2_@Base 1.6
 (optional=templinst)_ZN3pcl15SurfelSmoothingINS_11PointNormalENS_15PointXYZINormalEE15setInputNormalsERN5boost10shared_ptrINS_10PointCloudIS2_EEEE@Base 1.6
 (optional=templinst)_ZN3pcl15SurfelSmoothingINS_11PointNormalENS_15PointXYZINormalEE15setSearchMethodERKN5boost10shared_ptrINS_6search6SearchIS1_EEEE@Base 1.6
 (optional=templinst)_ZN3pcl15SurfelSmoothingINS_11PointNormalENS_15PointXYZINormalEE20computeSmoothedCloudERN5boost10shared_ptrINS_10PointCloudIS1_EEEERNS5_INS6_IS2_EEEE@Base 1.6
 (optional=templinst)_ZN3pcl15SurfelSmoothingINS_11PointNormalENS_15PointXYZINormalEE20smoothCloudIterationERN5boost10shared_ptrINS_10PointCloudIS1_EEEERNS5_INS6_IS2_EEEE@Base 1.6
 (optional=templinst)_ZN3pcl15SurfelSmoothingINS_11PointNormalENS_15PointXYZINormalEE35extractSalientFeaturesBetweenScalesERN5boost10shared_ptrINS_10PointCloudIS1_EEEERNS5_INS6_IS2_EEEERNS5_ISt6vectorIiSaIiEEEE@Base 1.6
 (optional=templinst)_ZN3pcl15SurfelSmoothingINS_11PointNormalENS_15PointXYZINormalEEC1Ef@Base 1.6
 (optional=templinst)_ZN3pcl15SurfelSmoothingINS_11PointNormalENS_15PointXYZINormalEEC2Ef@Base 1.6
 (optional=templinst)_ZN3pcl15SurfelSmoothingINS_11PointNormalENS_15PointXYZINormalEED0Ev@Base 1.6
 (optional=templinst)_ZN3pcl15SurfelSmoothingINS_11PointNormalENS_15PointXYZINormalEED1Ev@Base 1.6
 (optional=templinst)_ZN3pcl15SurfelSmoothingINS_11PointNormalENS_15PointXYZINormalEED2Ev@Base 1.6
 (optional=templinst)_ZN3pcl15SurfelSmoothingINS_11PointNormalENS_17PointXYZRGBNormalEE11initComputeEv@Base 1.6
 (optional=templinst)_ZN3pcl15SurfelSmoothingINS_11PointNormalENS_17PointXYZRGBNormalEE11smoothPointERmRS1_RS2_@Base 1.6
 (optional=templinst)_ZN3pcl15SurfelSmoothingINS_11PointNormalENS_17PointXYZRGBNormalEE15setInputNormalsERN5boost10shared_ptrINS_10PointCloudIS2_EEEE@Base 1.6
 (optional=templinst)_ZN3pcl15SurfelSmoothingINS_11PointNormalENS_17PointXYZRGBNormalEE15setSearchMethodERKN5boost10shared_ptrINS_6search6SearchIS1_EEEE@Base 1.6
 (optional=templinst)_ZN3pcl15SurfelSmoothingINS_11PointNormalENS_17PointXYZRGBNormalEE20computeSmoothedCloudERN5boost10shared_ptrINS_10PointCloudIS1_EEEERNS5_INS6_IS2_EEEE@Base 1.6
 (optional=templinst)_ZN3pcl15SurfelSmoothingINS_11PointNormalENS_17PointXYZRGBNormalEE20smoothCloudIterationERN5boost10shared_ptrINS_10PointCloudIS1_EEEERNS5_INS6_IS2_EEEE@Base 1.6
 (optional=templinst)_ZN3pcl15SurfelSmoothingINS_11PointNormalENS_17PointXYZRGBNormalEE35extractSalientFeaturesBetweenScalesERN5boost10shared_ptrINS_10PointCloudIS1_EEEERNS5_INS6_IS2_EEEERNS5_ISt6vectorIiSaIiEEEE@Base 1.6
 (optional=templinst)_ZN3pcl15SurfelSmoothingINS_11PointNormalENS_17PointXYZRGBNormalEEC1Ef@Base 1.6
 (optional=templinst)_ZN3pcl15SurfelSmoothingINS_11PointNormalENS_17PointXYZRGBNormalEEC2Ef@Base 1.6
 (optional=templinst)_ZN3pcl15SurfelSmoothingINS_11PointNormalENS_17PointXYZRGBNormalEED0Ev@Base 1.6
 (optional=templinst)_ZN3pcl15SurfelSmoothingINS_11PointNormalENS_17PointXYZRGBNormalEED1Ev@Base 1.6
 (optional=templinst)_ZN3pcl15SurfelSmoothingINS_11PointNormalENS_17PointXYZRGBNormalEED2Ev@Base 1.6
 (optional=templinst)_ZN3pcl15SurfelSmoothingINS_11PointNormalENS_6NormalEE11initComputeEv@Base 1.6
 (optional=templinst)_ZN3pcl15SurfelSmoothingINS_11PointNormalENS_6NormalEE11smoothPointERmRS1_RS2_@Base 1.6
 (optional=templinst)_ZN3pcl15SurfelSmoothingINS_11PointNormalENS_6NormalEE15setInputNormalsERN5boost10shared_ptrINS_10PointCloudIS2_EEEE@Base 1.6
 (optional=templinst)_ZN3pcl15SurfelSmoothingINS_11PointNormalENS_6NormalEE15setSearchMethodERKN5boost10shared_ptrINS_6search6SearchIS1_EEEE@Base 1.6
 (optional=templinst)_ZN3pcl15SurfelSmoothingINS_11PointNormalENS_6NormalEE20computeSmoothedCloudERN5boost10shared_ptrINS_10PointCloudIS1_EEEERNS5_INS6_IS2_EEEE@Base 1.6
 (optional=templinst)_ZN3pcl15SurfelSmoothingINS_11PointNormalENS_6NormalEE20smoothCloudIterationERN5boost10shared_ptrINS_10PointCloudIS1_EEEERNS5_INS6_IS2_EEEE@Base 1.6
 (optional=templinst)_ZN3pcl15SurfelSmoothingINS_11PointNormalENS_6NormalEE35extractSalientFeaturesBetweenScalesERN5boost10shared_ptrINS_10PointCloudIS1_EEEERNS5_INS6_IS2_EEEERNS5_ISt6vectorIiSaIiEEEE@Base 1.6
 (optional=templinst)_ZN3pcl15SurfelSmoothingINS_11PointNormalENS_6NormalEEC1Ef@Base 1.6
 (optional=templinst)_ZN3pcl15SurfelSmoothingINS_11PointNormalENS_6NormalEEC2Ef@Base 1.6
 (optional=templinst)_ZN3pcl15SurfelSmoothingINS_11PointNormalENS_6NormalEED0Ev@Base 1.6
 (optional=templinst)_ZN3pcl15SurfelSmoothingINS_11PointNormalENS_6NormalEED1Ev@Base 1.6
 (optional=templinst)_ZN3pcl15SurfelSmoothingINS_11PointNormalENS_6NormalEED2Ev@Base 1.6
 (optional=templinst)_ZN3pcl15SurfelSmoothingINS_11PointNormalES1_E11initComputeEv@Base 1.6
 (optional=templinst)_ZN3pcl15SurfelSmoothingINS_11PointNormalES1_E11smoothPointERmRS1_S4_@Base 1.6
 (optional=templinst)_ZN3pcl15SurfelSmoothingINS_11PointNormalES1_E15setInputNormalsERN5boost10shared_ptrINS_10PointCloudIS1_EEEE@Base 1.6
 (optional=templinst)_ZN3pcl15SurfelSmoothingINS_11PointNormalES1_E15setSearchMethodERKN5boost10shared_ptrINS_6search6SearchIS1_EEEE@Base 1.6
 (optional=templinst)_ZN3pcl15SurfelSmoothingINS_11PointNormalES1_E20computeSmoothedCloudERN5boost10shared_ptrINS_10PointCloudIS1_EEEES8_@Base 1.6
 (optional=templinst)_ZN3pcl15SurfelSmoothingINS_11PointNormalES1_E20smoothCloudIterationERN5boost10shared_ptrINS_10PointCloudIS1_EEEES8_@Base 1.6
 (optional=templinst)_ZN3pcl15SurfelSmoothingINS_11PointNormalES1_E35extractSalientFeaturesBetweenScalesERN5boost10shared_ptrINS_10PointCloudIS1_EEEES8_RNS4_ISt6vectorIiSaIiEEEE@Base 1.6
 (optional=templinst)_ZN3pcl15SurfelSmoothingINS_11PointNormalES1_EC1Ef@Base 1.6
 (optional=templinst)_ZN3pcl15SurfelSmoothingINS_11PointNormalES1_EC2Ef@Base 1.6
 (optional=templinst)_ZN3pcl15SurfelSmoothingINS_11PointNormalES1_ED0Ev@Base 1.6
 (optional=templinst)_ZN3pcl15SurfelSmoothingINS_11PointNormalES1_ED1Ev@Base 1.6
 (optional=templinst)_ZN3pcl15SurfelSmoothingINS_11PointNormalES1_ED2Ev@Base 1.6
 (optional=templinst)_ZN3pcl15SurfelSmoothingINS_11PointXYZHSVENS_11PointNormalEE11initComputeEv@Base 1.6
 (optional=templinst)_ZN3pcl15SurfelSmoothingINS_11PointXYZHSVENS_11PointNormalEE11smoothPointERmRS1_RS2_@Base 1.6
 (optional=templinst)_ZN3pcl15SurfelSmoothingINS_11PointXYZHSVENS_11PointNormalEE15setInputNormalsERN5boost10shared_ptrINS_10PointCloudIS2_EEEE@Base 1.6
 (optional=templinst)_ZN3pcl15SurfelSmoothingINS_11PointXYZHSVENS_11PointNormalEE15setSearchMethodERKN5boost10shared_ptrINS_6search6SearchIS1_EEEE@Base 1.6
 (optional=templinst)_ZN3pcl15SurfelSmoothingINS_11PointXYZHSVENS_11PointNormalEE20computeSmoothedCloudERN5boost10shared_ptrINS_10PointCloudIS1_EEEERNS5_INS6_IS2_EEEE@Base 1.6
 (optional=templinst)_ZN3pcl15SurfelSmoothingINS_11PointXYZHSVENS_11PointNormalEE20smoothCloudIterationERN5boost10shared_ptrINS_10PointCloudIS1_EEEERNS5_INS6_IS2_EEEE@Base 1.6
 (optional=templinst)_ZN3pcl15SurfelSmoothingINS_11PointXYZHSVENS_11PointNormalEE35extractSalientFeaturesBetweenScalesERN5boost10shared_ptrINS_10PointCloudIS1_EEEERNS5_INS6_IS2_EEEERNS5_ISt6vectorIiSaIiEEEE@Base 1.6
 (optional=templinst)_ZN3pcl15SurfelSmoothingINS_11PointXYZHSVENS_11PointNormalEEC1Ef@Base 1.6
 (optional=templinst)_ZN3pcl15SurfelSmoothingINS_11PointXYZHSVENS_11PointNormalEEC2Ef@Base 1.6
 (optional=templinst)_ZN3pcl15SurfelSmoothingINS_11PointXYZHSVENS_11PointNormalEED0Ev@Base 1.6
 (optional=templinst)_ZN3pcl15SurfelSmoothingINS_11PointXYZHSVENS_11PointNormalEED1Ev@Base 1.6
 (optional=templinst)_ZN3pcl15SurfelSmoothingINS_11PointXYZHSVENS_11PointNormalEED2Ev@Base 1.6
 (optional=templinst)_ZN3pcl15SurfelSmoothingINS_11PointXYZHSVENS_15PointXYZINormalEE11initComputeEv@Base 1.6
 (optional=templinst)_ZN3pcl15SurfelSmoothingINS_11PointXYZHSVENS_15PointXYZINormalEE11smoothPointERmRS1_RS2_@Base 1.6
 (optional=templinst)_ZN3pcl15SurfelSmoothingINS_11PointXYZHSVENS_15PointXYZINormalEE15setInputNormalsERN5boost10shared_ptrINS_10PointCloudIS2_EEEE@Base 1.6
 (optional=templinst)_ZN3pcl15SurfelSmoothingINS_11PointXYZHSVENS_15PointXYZINormalEE15setSearchMethodERKN5boost10shared_ptrINS_6search6SearchIS1_EEEE@Base 1.6
 (optional=templinst)_ZN3pcl15SurfelSmoothingINS_11PointXYZHSVENS_15PointXYZINormalEE20computeSmoothedCloudERN5boost10shared_ptrINS_10PointCloudIS1_EEEERNS5_INS6_IS2_EEEE@Base 1.6
 (optional=templinst)_ZN3pcl15SurfelSmoothingINS_11PointXYZHSVENS_15PointXYZINormalEE20smoothCloudIterationERN5boost10shared_ptrINS_10PointCloudIS1_EEEERNS5_INS6_IS2_EEEE@Base 1.6
 (optional=templinst)_ZN3pcl15SurfelSmoothingINS_11PointXYZHSVENS_15PointXYZINormalEE35extractSalientFeaturesBetweenScalesERN5boost10shared_ptrINS_10PointCloudIS1_EEEERNS5_INS6_IS2_EEEERNS5_ISt6vectorIiSaIiEEEE@Base 1.6
 (optional=templinst)_ZN3pcl15SurfelSmoothingINS_11PointXYZHSVENS_15PointXYZINormalEEC1Ef@Base 1.6
 (optional=templinst)_ZN3pcl15SurfelSmoothingINS_11PointXYZHSVENS_15PointXYZINormalEEC2Ef@Base 1.6
 (optional=templinst)_ZN3pcl15SurfelSmoothingINS_11PointXYZHSVENS_15PointXYZINormalEED0Ev@Base 1.6
 (optional=templinst)_ZN3pcl15SurfelSmoothingINS_11PointXYZHSVENS_15PointXYZINormalEED1Ev@Base 1.6
 (optional=templinst)_ZN3pcl15SurfelSmoothingINS_11PointXYZHSVENS_15PointXYZINormalEED2Ev@Base 1.6
 (optional=templinst)_ZN3pcl15SurfelSmoothingINS_11PointXYZHSVENS_17PointXYZRGBNormalEE11initComputeEv@Base 1.6
 (optional=templinst)_ZN3pcl15SurfelSmoothingINS_11PointXYZHSVENS_17PointXYZRGBNormalEE11smoothPointERmRS1_RS2_@Base 1.6
 (optional=templinst)_ZN3pcl15SurfelSmoothingINS_11PointXYZHSVENS_17PointXYZRGBNormalEE15setInputNormalsERN5boost10shared_ptrINS_10PointCloudIS2_EEEE@Base 1.6
 (optional=templinst)_ZN3pcl15SurfelSmoothingINS_11PointXYZHSVENS_17PointXYZRGBNormalEE15setSearchMethodERKN5boost10shared_ptrINS_6search6SearchIS1_EEEE@Base 1.6
 (optional=templinst)_ZN3pcl15SurfelSmoothingINS_11PointXYZHSVENS_17PointXYZRGBNormalEE20computeSmoothedCloudERN5boost10shared_ptrINS_10PointCloudIS1_EEEERNS5_INS6_IS2_EEEE@Base 1.6
 (optional=templinst)_ZN3pcl15SurfelSmoothingINS_11PointXYZHSVENS_17PointXYZRGBNormalEE20smoothCloudIterationERN5boost10shared_ptrINS_10PointCloudIS1_EEEERNS5_INS6_IS2_EEEE@Base 1.6
 (optional=templinst)_ZN3pcl15SurfelSmoothingINS_11PointXYZHSVENS_17PointXYZRGBNormalEE35extractSalientFeaturesBetweenScalesERN5boost10shared_ptrINS_10PointCloudIS1_EEEERNS5_INS6_IS2_EEEERNS5_ISt6vectorIiSaIiEEEE@Base 1.6
 (optional=templinst)_ZN3pcl15SurfelSmoothingINS_11PointXYZHSVENS_17PointXYZRGBNormalEEC1Ef@Base 1.6
 (optional=templinst)_ZN3pcl15SurfelSmoothingINS_11PointXYZHSVENS_17PointXYZRGBNormalEEC2Ef@Base 1.6
 (optional=templinst)_ZN3pcl15SurfelSmoothingINS_11PointXYZHSVENS_17PointXYZRGBNormalEED0Ev@Base 1.6
 (optional=templinst)_ZN3pcl15SurfelSmoothingINS_11PointXYZHSVENS_17PointXYZRGBNormalEED1Ev@Base 1.6
 (optional=templinst)_ZN3pcl15SurfelSmoothingINS_11PointXYZHSVENS_17PointXYZRGBNormalEED2Ev@Base 1.6
 (optional=templinst)_ZN3pcl15SurfelSmoothingINS_11PointXYZHSVENS_6NormalEE11initComputeEv@Base 1.6
 (optional=templinst)_ZN3pcl15SurfelSmoothingINS_11PointXYZHSVENS_6NormalEE11smoothPointERmRS1_RS2_@Base 1.6
 (optional=templinst)_ZN3pcl15SurfelSmoothingINS_11PointXYZHSVENS_6NormalEE15setInputNormalsERN5boost10shared_ptrINS_10PointCloudIS2_EEEE@Base 1.6
 (optional=templinst)_ZN3pcl15SurfelSmoothingINS_11PointXYZHSVENS_6NormalEE15setSearchMethodERKN5boost10shared_ptrINS_6search6SearchIS1_EEEE@Base 1.6
 (optional=templinst)_ZN3pcl15SurfelSmoothingINS_11PointXYZHSVENS_6NormalEE20computeSmoothedCloudERN5boost10shared_ptrINS_10PointCloudIS1_EEEERNS5_INS6_IS2_EEEE@Base 1.6
 (optional=templinst)_ZN3pcl15SurfelSmoothingINS_11PointXYZHSVENS_6NormalEE20smoothCloudIterationERN5boost10shared_ptrINS_10PointCloudIS1_EEEERNS5_INS6_IS2_EEEE@Base 1.6
 (optional=templinst)_ZN3pcl15SurfelSmoothingINS_11PointXYZHSVENS_6NormalEE35extractSalientFeaturesBetweenScalesERN5boost10shared_ptrINS_10PointCloudIS1_EEEERNS5_INS6_IS2_EEEERNS5_ISt6vectorIiSaIiEEEE@Base 1.6
 (optional=templinst)_ZN3pcl15SurfelSmoothingINS_11PointXYZHSVENS_6NormalEEC1Ef@Base 1.6
 (optional=templinst)_ZN3pcl15SurfelSmoothingINS_11PointXYZHSVENS_6NormalEEC2Ef@Base 1.6
 (optional=templinst)_ZN3pcl15SurfelSmoothingINS_11PointXYZHSVENS_6NormalEED0Ev@Base 1.6
 (optional=templinst)_ZN3pcl15SurfelSmoothingINS_11PointXYZHSVENS_6NormalEED1Ev@Base 1.6
 (optional=templinst)_ZN3pcl15SurfelSmoothingINS_11PointXYZHSVENS_6NormalEED2Ev@Base 1.6
 (optional=templinst)_ZN3pcl15SurfelSmoothingINS_11PointXYZRGBENS_11PointNormalEE11initComputeEv@Base 1.6
 (optional=templinst)_ZN3pcl15SurfelSmoothingINS_11PointXYZRGBENS_11PointNormalEE11smoothPointERmRS1_RS2_@Base 1.6
 (optional=templinst)_ZN3pcl15SurfelSmoothingINS_11PointXYZRGBENS_11PointNormalEE15setInputNormalsERN5boost10shared_ptrINS_10PointCloudIS2_EEEE@Base 1.6
 (optional=templinst)_ZN3pcl15SurfelSmoothingINS_11PointXYZRGBENS_11PointNormalEE15setSearchMethodERKN5boost10shared_ptrINS_6search6SearchIS1_EEEE@Base 1.6
 (optional=templinst)_ZN3pcl15SurfelSmoothingINS_11PointXYZRGBENS_11PointNormalEE20computeSmoothedCloudERN5boost10shared_ptrINS_10PointCloudIS1_EEEERNS5_INS6_IS2_EEEE@Base 1.6
 (optional=templinst)_ZN3pcl15SurfelSmoothingINS_11PointXYZRGBENS_11PointNormalEE20smoothCloudIterationERN5boost10shared_ptrINS_10PointCloudIS1_EEEERNS5_INS6_IS2_EEEE@Base 1.6
 (optional=templinst)_ZN3pcl15SurfelSmoothingINS_11PointXYZRGBENS_11PointNormalEE35extractSalientFeaturesBetweenScalesERN5boost10shared_ptrINS_10PointCloudIS1_EEEERNS5_INS6_IS2_EEEERNS5_ISt6vectorIiSaIiEEEE@Base 1.6
 (optional=templinst)_ZN3pcl15SurfelSmoothingINS_11PointXYZRGBENS_11PointNormalEEC1Ef@Base 1.6
 (optional=templinst)_ZN3pcl15SurfelSmoothingINS_11PointXYZRGBENS_11PointNormalEEC2Ef@Base 1.6
 (optional=templinst)_ZN3pcl15SurfelSmoothingINS_11PointXYZRGBENS_11PointNormalEED0Ev@Base 1.6
 (optional=templinst)_ZN3pcl15SurfelSmoothingINS_11PointXYZRGBENS_11PointNormalEED1Ev@Base 1.6
 (optional=templinst)_ZN3pcl15SurfelSmoothingINS_11PointXYZRGBENS_11PointNormalEED2Ev@Base 1.6
 (optional=templinst)_ZN3pcl15SurfelSmoothingINS_11PointXYZRGBENS_15PointXYZINormalEE11initComputeEv@Base 1.6
 (optional=templinst)_ZN3pcl15SurfelSmoothingINS_11PointXYZRGBENS_15PointXYZINormalEE11smoothPointERmRS1_RS2_@Base 1.6
 (optional=templinst)_ZN3pcl15SurfelSmoothingINS_11PointXYZRGBENS_15PointXYZINormalEE15setInputNormalsERN5boost10shared_ptrINS_10PointCloudIS2_EEEE@Base 1.6
 (optional=templinst)_ZN3pcl15SurfelSmoothingINS_11PointXYZRGBENS_15PointXYZINormalEE15setSearchMethodERKN5boost10shared_ptrINS_6search6SearchIS1_EEEE@Base 1.6
 (optional=templinst)_ZN3pcl15SurfelSmoothingINS_11PointXYZRGBENS_15PointXYZINormalEE20computeSmoothedCloudERN5boost10shared_ptrINS_10PointCloudIS1_EEEERNS5_INS6_IS2_EEEE@Base 1.6
 (optional=templinst)_ZN3pcl15SurfelSmoothingINS_11PointXYZRGBENS_15PointXYZINormalEE20smoothCloudIterationERN5boost10shared_ptrINS_10PointCloudIS1_EEEERNS5_INS6_IS2_EEEE@Base 1.6
 (optional=templinst)_ZN3pcl15SurfelSmoothingINS_11PointXYZRGBENS_15PointXYZINormalEE35extractSalientFeaturesBetweenScalesERN5boost10shared_ptrINS_10PointCloudIS1_EEEERNS5_INS6_IS2_EEEERNS5_ISt6vectorIiSaIiEEEE@Base 1.6
 (optional=templinst)_ZN3pcl15SurfelSmoothingINS_11PointXYZRGBENS_15PointXYZINormalEEC1Ef@Base 1.6
 (optional=templinst)_ZN3pcl15SurfelSmoothingINS_11PointXYZRGBENS_15PointXYZINormalEEC2Ef@Base 1.6
 (optional=templinst)_ZN3pcl15SurfelSmoothingINS_11PointXYZRGBENS_15PointXYZINormalEED0Ev@Base 1.6
 (optional=templinst)_ZN3pcl15SurfelSmoothingINS_11PointXYZRGBENS_15PointXYZINormalEED1Ev@Base 1.6
 (optional=templinst)_ZN3pcl15SurfelSmoothingINS_11PointXYZRGBENS_15PointXYZINormalEED2Ev@Base 1.6
 (optional=templinst)_ZN3pcl15SurfelSmoothingINS_11PointXYZRGBENS_17PointXYZRGBNormalEE11initComputeEv@Base 1.6
 (optional=templinst)_ZN3pcl15SurfelSmoothingINS_11PointXYZRGBENS_17PointXYZRGBNormalEE11smoothPointERmRS1_RS2_@Base 1.6
 (optional=templinst)_ZN3pcl15SurfelSmoothingINS_11PointXYZRGBENS_17PointXYZRGBNormalEE15setInputNormalsERN5boost10shared_ptrINS_10PointCloudIS2_EEEE@Base 1.6
 (optional=templinst)_ZN3pcl15SurfelSmoothingINS_11PointXYZRGBENS_17PointXYZRGBNormalEE15setSearchMethodERKN5boost10shared_ptrINS_6search6SearchIS1_EEEE@Base 1.6
 (optional=templinst)_ZN3pcl15SurfelSmoothingINS_11PointXYZRGBENS_17PointXYZRGBNormalEE20computeSmoothedCloudERN5boost10shared_ptrINS_10PointCloudIS1_EEEERNS5_INS6_IS2_EEEE@Base 1.6
 (optional=templinst)_ZN3pcl15SurfelSmoothingINS_11PointXYZRGBENS_17PointXYZRGBNormalEE20smoothCloudIterationERN5boost10shared_ptrINS_10PointCloudIS1_EEEERNS5_INS6_IS2_EEEE@Base 1.6
 (optional=templinst)_ZN3pcl15SurfelSmoothingINS_11PointXYZRGBENS_17PointXYZRGBNormalEE35extractSalientFeaturesBetweenScalesERN5boost10shared_ptrINS_10PointCloudIS1_EEEERNS5_INS6_IS2_EEEERNS5_ISt6vectorIiSaIiEEEE@Base 1.6
 (optional=templinst)_ZN3pcl15SurfelSmoothingINS_11PointXYZRGBENS_17PointXYZRGBNormalEEC1Ef@Base 1.6
 (optional=templinst)_ZN3pcl15SurfelSmoothingINS_11PointXYZRGBENS_17PointXYZRGBNormalEEC2Ef@Base 1.6
 (optional=templinst)_ZN3pcl15SurfelSmoothingINS_11PointXYZRGBENS_17PointXYZRGBNormalEED0Ev@Base 1.6
 (optional=templinst)_ZN3pcl15SurfelSmoothingINS_11PointXYZRGBENS_17PointXYZRGBNormalEED1Ev@Base 1.6
 (optional=templinst)_ZN3pcl15SurfelSmoothingINS_11PointXYZRGBENS_17PointXYZRGBNormalEED2Ev@Base 1.6
 (optional=templinst)_ZN3pcl15SurfelSmoothingINS_11PointXYZRGBENS_6NormalEE11initComputeEv@Base 1.6
 (optional=templinst)_ZN3pcl15SurfelSmoothingINS_11PointXYZRGBENS_6NormalEE11smoothPointERmRS1_RS2_@Base 1.6
 (optional=templinst)_ZN3pcl15SurfelSmoothingINS_11PointXYZRGBENS_6NormalEE15setInputNormalsERN5boost10shared_ptrINS_10PointCloudIS2_EEEE@Base 1.6
 (optional=templinst)_ZN3pcl15SurfelSmoothingINS_11PointXYZRGBENS_6NormalEE15setSearchMethodERKN5boost10shared_ptrINS_6search6SearchIS1_EEEE@Base 1.6
 (optional=templinst)_ZN3pcl15SurfelSmoothingINS_11PointXYZRGBENS_6NormalEE20computeSmoothedCloudERN5boost10shared_ptrINS_10PointCloudIS1_EEEERNS5_INS6_IS2_EEEE@Base 1.6
 (optional=templinst)_ZN3pcl15SurfelSmoothingINS_11PointXYZRGBENS_6NormalEE20smoothCloudIterationERN5boost10shared_ptrINS_10PointCloudIS1_EEEERNS5_INS6_IS2_EEEE@Base 1.6
 (optional=templinst)_ZN3pcl15SurfelSmoothingINS_11PointXYZRGBENS_6NormalEE35extractSalientFeaturesBetweenScalesERN5boost10shared_ptrINS_10PointCloudIS1_EEEERNS5_INS6_IS2_EEEERNS5_ISt6vectorIiSaIiEEEE@Base 1.6
 (optional=templinst)_ZN3pcl15SurfelSmoothingINS_11PointXYZRGBENS_6NormalEEC1Ef@Base 1.6
 (optional=templinst)_ZN3pcl15SurfelSmoothingINS_11PointXYZRGBENS_6NormalEEC2Ef@Base 1.6
 (optional=templinst)_ZN3pcl15SurfelSmoothingINS_11PointXYZRGBENS_6NormalEED0Ev@Base 1.6
 (optional=templinst)_ZN3pcl15SurfelSmoothingINS_11PointXYZRGBENS_6NormalEED1Ev@Base 1.6
 (optional=templinst)_ZN3pcl15SurfelSmoothingINS_11PointXYZRGBENS_6NormalEED2Ev@Base 1.6
 (optional=templinst)_ZN3pcl15SurfelSmoothingINS_12PointXYZRGBAENS_11PointNormalEE11initComputeEv@Base 1.6
 (optional=templinst)_ZN3pcl15SurfelSmoothingINS_12PointXYZRGBAENS_11PointNormalEE11smoothPointERmRS1_RS2_@Base 1.6
 (optional=templinst)_ZN3pcl15SurfelSmoothingINS_12PointXYZRGBAENS_11PointNormalEE15setInputNormalsERN5boost10shared_ptrINS_10PointCloudIS2_EEEE@Base 1.6
 (optional=templinst)_ZN3pcl15SurfelSmoothingINS_12PointXYZRGBAENS_11PointNormalEE15setSearchMethodERKN5boost10shared_ptrINS_6search6SearchIS1_EEEE@Base 1.6
 (optional=templinst)_ZN3pcl15SurfelSmoothingINS_12PointXYZRGBAENS_11PointNormalEE20computeSmoothedCloudERN5boost10shared_ptrINS_10PointCloudIS1_EEEERNS5_INS6_IS2_EEEE@Base 1.6
 (optional=templinst)_ZN3pcl15SurfelSmoothingINS_12PointXYZRGBAENS_11PointNormalEE20smoothCloudIterationERN5boost10shared_ptrINS_10PointCloudIS1_EEEERNS5_INS6_IS2_EEEE@Base 1.6
 (optional=templinst)_ZN3pcl15SurfelSmoothingINS_12PointXYZRGBAENS_11PointNormalEE35extractSalientFeaturesBetweenScalesERN5boost10shared_ptrINS_10PointCloudIS1_EEEERNS5_INS6_IS2_EEEERNS5_ISt6vectorIiSaIiEEEE@Base 1.6
 (optional=templinst)_ZN3pcl15SurfelSmoothingINS_12PointXYZRGBAENS_11PointNormalEEC1Ef@Base 1.6
 (optional=templinst)_ZN3pcl15SurfelSmoothingINS_12PointXYZRGBAENS_11PointNormalEEC2Ef@Base 1.6
 (optional=templinst)_ZN3pcl15SurfelSmoothingINS_12PointXYZRGBAENS_11PointNormalEED0Ev@Base 1.6
 (optional=templinst)_ZN3pcl15SurfelSmoothingINS_12PointXYZRGBAENS_11PointNormalEED1Ev@Base 1.6
 (optional=templinst)_ZN3pcl15SurfelSmoothingINS_12PointXYZRGBAENS_11PointNormalEED2Ev@Base 1.6
 (optional=templinst)_ZN3pcl15SurfelSmoothingINS_12PointXYZRGBAENS_15PointXYZINormalEE11initComputeEv@Base 1.6
 (optional=templinst)_ZN3pcl15SurfelSmoothingINS_12PointXYZRGBAENS_15PointXYZINormalEE11smoothPointERmRS1_RS2_@Base 1.6
 (optional=templinst)_ZN3pcl15SurfelSmoothingINS_12PointXYZRGBAENS_15PointXYZINormalEE15setInputNormalsERN5boost10shared_ptrINS_10PointCloudIS2_EEEE@Base 1.6
 (optional=templinst)_ZN3pcl15SurfelSmoothingINS_12PointXYZRGBAENS_15PointXYZINormalEE15setSearchMethodERKN5boost10shared_ptrINS_6search6SearchIS1_EEEE@Base 1.6
 (optional=templinst)_ZN3pcl15SurfelSmoothingINS_12PointXYZRGBAENS_15PointXYZINormalEE20computeSmoothedCloudERN5boost10shared_ptrINS_10PointCloudIS1_EEEERNS5_INS6_IS2_EEEE@Base 1.6
 (optional=templinst)_ZN3pcl15SurfelSmoothingINS_12PointXYZRGBAENS_15PointXYZINormalEE20smoothCloudIterationERN5boost10shared_ptrINS_10PointCloudIS1_EEEERNS5_INS6_IS2_EEEE@Base 1.6
 (optional=templinst)_ZN3pcl15SurfelSmoothingINS_12PointXYZRGBAENS_15PointXYZINormalEE35extractSalientFeaturesBetweenScalesERN5boost10shared_ptrINS_10PointCloudIS1_EEEERNS5_INS6_IS2_EEEERNS5_ISt6vectorIiSaIiEEEE@Base 1.6
 (optional=templinst)_ZN3pcl15SurfelSmoothingINS_12PointXYZRGBAENS_15PointXYZINormalEEC1Ef@Base 1.6
 (optional=templinst)_ZN3pcl15SurfelSmoothingINS_12PointXYZRGBAENS_15PointXYZINormalEEC2Ef@Base 1.6
 (optional=templinst)_ZN3pcl15SurfelSmoothingINS_12PointXYZRGBAENS_15PointXYZINormalEED0Ev@Base 1.6
 (optional=templinst)_ZN3pcl15SurfelSmoothingINS_12PointXYZRGBAENS_15PointXYZINormalEED1Ev@Base 1.6
 (optional=templinst)_ZN3pcl15SurfelSmoothingINS_12PointXYZRGBAENS_15PointXYZINormalEED2Ev@Base 1.6
 (optional=templinst)_ZN3pcl15SurfelSmoothingINS_12PointXYZRGBAENS_17PointXYZRGBNormalEE11initComputeEv@Base 1.6
 (optional=templinst)_ZN3pcl15SurfelSmoothingINS_12PointXYZRGBAENS_17PointXYZRGBNormalEE11smoothPointERmRS1_RS2_@Base 1.6
 (optional=templinst)_ZN3pcl15SurfelSmoothingINS_12PointXYZRGBAENS_17PointXYZRGBNormalEE15setInputNormalsERN5boost10shared_ptrINS_10PointCloudIS2_EEEE@Base 1.6
 (optional=templinst)_ZN3pcl15SurfelSmoothingINS_12PointXYZRGBAENS_17PointXYZRGBNormalEE15setSearchMethodERKN5boost10shared_ptrINS_6search6SearchIS1_EEEE@Base 1.6
 (optional=templinst)_ZN3pcl15SurfelSmoothingINS_12PointXYZRGBAENS_17PointXYZRGBNormalEE20computeSmoothedCloudERN5boost10shared_ptrINS_10PointCloudIS1_EEEERNS5_INS6_IS2_EEEE@Base 1.6
 (optional=templinst)_ZN3pcl15SurfelSmoothingINS_12PointXYZRGBAENS_17PointXYZRGBNormalEE20smoothCloudIterationERN5boost10shared_ptrINS_10PointCloudIS1_EEEERNS5_INS6_IS2_EEEE@Base 1.6
 (optional=templinst)_ZN3pcl15SurfelSmoothingINS_12PointXYZRGBAENS_17PointXYZRGBNormalEE35extractSalientFeaturesBetweenScalesERN5boost10shared_ptrINS_10PointCloudIS1_EEEERNS5_INS6_IS2_EEEERNS5_ISt6vectorIiSaIiEEEE@Base 1.6
 (optional=templinst)_ZN3pcl15SurfelSmoothingINS_12PointXYZRGBAENS_17PointXYZRGBNormalEEC1Ef@Base 1.6
 (optional=templinst)_ZN3pcl15SurfelSmoothingINS_12PointXYZRGBAENS_17PointXYZRGBNormalEEC2Ef@Base 1.6
 (optional=templinst)_ZN3pcl15SurfelSmoothingINS_12PointXYZRGBAENS_17PointXYZRGBNormalEED0Ev@Base 1.6
 (optional=templinst)_ZN3pcl15SurfelSmoothingINS_12PointXYZRGBAENS_17PointXYZRGBNormalEED1Ev@Base 1.6
 (optional=templinst)_ZN3pcl15SurfelSmoothingINS_12PointXYZRGBAENS_17PointXYZRGBNormalEED2Ev@Base 1.6
 (optional=templinst)_ZN3pcl15SurfelSmoothingINS_12PointXYZRGBAENS_6NormalEE11initComputeEv@Base 1.6
 (optional=templinst)_ZN3pcl15SurfelSmoothingINS_12PointXYZRGBAENS_6NormalEE11smoothPointERmRS1_RS2_@Base 1.6
 (optional=templinst)_ZN3pcl15SurfelSmoothingINS_12PointXYZRGBAENS_6NormalEE15setInputNormalsERN5boost10shared_ptrINS_10PointCloudIS2_EEEE@Base 1.6
 (optional=templinst)_ZN3pcl15SurfelSmoothingINS_12PointXYZRGBAENS_6NormalEE15setSearchMethodERKN5boost10shared_ptrINS_6search6SearchIS1_EEEE@Base 1.6
 (optional=templinst)_ZN3pcl15SurfelSmoothingINS_12PointXYZRGBAENS_6NormalEE20computeSmoothedCloudERN5boost10shared_ptrINS_10PointCloudIS1_EEEERNS5_INS6_IS2_EEEE@Base 1.6
 (optional=templinst)_ZN3pcl15SurfelSmoothingINS_12PointXYZRGBAENS_6NormalEE20smoothCloudIterationERN5boost10shared_ptrINS_10PointCloudIS1_EEEERNS5_INS6_IS2_EEEE@Base 1.6
 (optional=templinst)_ZN3pcl15SurfelSmoothingINS_12PointXYZRGBAENS_6NormalEE35extractSalientFeaturesBetweenScalesERN5boost10shared_ptrINS_10PointCloudIS1_EEEERNS5_INS6_IS2_EEEERNS5_ISt6vectorIiSaIiEEEE@Base 1.6
 (optional=templinst)_ZN3pcl15SurfelSmoothingINS_12PointXYZRGBAENS_6NormalEEC1Ef@Base 1.6
 (optional=templinst)_ZN3pcl15SurfelSmoothingINS_12PointXYZRGBAENS_6NormalEEC2Ef@Base 1.6
 (optional=templinst)_ZN3pcl15SurfelSmoothingINS_12PointXYZRGBAENS_6NormalEED0Ev@Base 1.6
 (optional=templinst)_ZN3pcl15SurfelSmoothingINS_12PointXYZRGBAENS_6NormalEED1Ev@Base 1.6
 (optional=templinst)_ZN3pcl15SurfelSmoothingINS_12PointXYZRGBAENS_6NormalEED2Ev@Base 1.6
 (optional=templinst)_ZN3pcl15SurfelSmoothingINS_12PointXYZRGBLENS_11PointNormalEE11initComputeEv@Base 1.6
 (optional=templinst)_ZN3pcl15SurfelSmoothingINS_12PointXYZRGBLENS_11PointNormalEE11smoothPointERmRS1_RS2_@Base 1.6
 (optional=templinst)_ZN3pcl15SurfelSmoothingINS_12PointXYZRGBLENS_11PointNormalEE15setInputNormalsERN5boost10shared_ptrINS_10PointCloudIS2_EEEE@Base 1.6
 (optional=templinst)_ZN3pcl15SurfelSmoothingINS_12PointXYZRGBLENS_11PointNormalEE15setSearchMethodERKN5boost10shared_ptrINS_6search6SearchIS1_EEEE@Base 1.6
 (optional=templinst)_ZN3pcl15SurfelSmoothingINS_12PointXYZRGBLENS_11PointNormalEE20computeSmoothedCloudERN5boost10shared_ptrINS_10PointCloudIS1_EEEERNS5_INS6_IS2_EEEE@Base 1.6
 (optional=templinst)_ZN3pcl15SurfelSmoothingINS_12PointXYZRGBLENS_11PointNormalEE20smoothCloudIterationERN5boost10shared_ptrINS_10PointCloudIS1_EEEERNS5_INS6_IS2_EEEE@Base 1.6
 (optional=templinst)_ZN3pcl15SurfelSmoothingINS_12PointXYZRGBLENS_11PointNormalEE35extractSalientFeaturesBetweenScalesERN5boost10shared_ptrINS_10PointCloudIS1_EEEERNS5_INS6_IS2_EEEERNS5_ISt6vectorIiSaIiEEEE@Base 1.6
 (optional=templinst)_ZN3pcl15SurfelSmoothingINS_12PointXYZRGBLENS_11PointNormalEEC1Ef@Base 1.6
 (optional=templinst)_ZN3pcl15SurfelSmoothingINS_12PointXYZRGBLENS_11PointNormalEEC2Ef@Base 1.6
 (optional=templinst)_ZN3pcl15SurfelSmoothingINS_12PointXYZRGBLENS_11PointNormalEED0Ev@Base 1.6
 (optional=templinst)_ZN3pcl15SurfelSmoothingINS_12PointXYZRGBLENS_11PointNormalEED1Ev@Base 1.6
 (optional=templinst)_ZN3pcl15SurfelSmoothingINS_12PointXYZRGBLENS_11PointNormalEED2Ev@Base 1.6
 (optional=templinst)_ZN3pcl15SurfelSmoothingINS_12PointXYZRGBLENS_15PointXYZINormalEE11initComputeEv@Base 1.6
 (optional=templinst)_ZN3pcl15SurfelSmoothingINS_12PointXYZRGBLENS_15PointXYZINormalEE11smoothPointERmRS1_RS2_@Base 1.6
 (optional=templinst)_ZN3pcl15SurfelSmoothingINS_12PointXYZRGBLENS_15PointXYZINormalEE15setInputNormalsERN5boost10shared_ptrINS_10PointCloudIS2_EEEE@Base 1.6
 (optional=templinst)_ZN3pcl15SurfelSmoothingINS_12PointXYZRGBLENS_15PointXYZINormalEE15setSearchMethodERKN5boost10shared_ptrINS_6search6SearchIS1_EEEE@Base 1.6
 (optional=templinst)_ZN3pcl15SurfelSmoothingINS_12PointXYZRGBLENS_15PointXYZINormalEE20computeSmoothedCloudERN5boost10shared_ptrINS_10PointCloudIS1_EEEERNS5_INS6_IS2_EEEE@Base 1.6
 (optional=templinst)_ZN3pcl15SurfelSmoothingINS_12PointXYZRGBLENS_15PointXYZINormalEE20smoothCloudIterationERN5boost10shared_ptrINS_10PointCloudIS1_EEEERNS5_INS6_IS2_EEEE@Base 1.6
 (optional=templinst)_ZN3pcl15SurfelSmoothingINS_12PointXYZRGBLENS_15PointXYZINormalEE35extractSalientFeaturesBetweenScalesERN5boost10shared_ptrINS_10PointCloudIS1_EEEERNS5_INS6_IS2_EEEERNS5_ISt6vectorIiSaIiEEEE@Base 1.6
 (optional=templinst)_ZN3pcl15SurfelSmoothingINS_12PointXYZRGBLENS_15PointXYZINormalEEC1Ef@Base 1.6
 (optional=templinst)_ZN3pcl15SurfelSmoothingINS_12PointXYZRGBLENS_15PointXYZINormalEEC2Ef@Base 1.6
 (optional=templinst)_ZN3pcl15SurfelSmoothingINS_12PointXYZRGBLENS_15PointXYZINormalEED0Ev@Base 1.6
 (optional=templinst)_ZN3pcl15SurfelSmoothingINS_12PointXYZRGBLENS_15PointXYZINormalEED1Ev@Base 1.6
 (optional=templinst)_ZN3pcl15SurfelSmoothingINS_12PointXYZRGBLENS_15PointXYZINormalEED2Ev@Base 1.6
 (optional=templinst)_ZN3pcl15SurfelSmoothingINS_12PointXYZRGBLENS_17PointXYZRGBNormalEE11initComputeEv@Base 1.6
 (optional=templinst)_ZN3pcl15SurfelSmoothingINS_12PointXYZRGBLENS_17PointXYZRGBNormalEE11smoothPointERmRS1_RS2_@Base 1.6
 (optional=templinst)_ZN3pcl15SurfelSmoothingINS_12PointXYZRGBLENS_17PointXYZRGBNormalEE15setInputNormalsERN5boost10shared_ptrINS_10PointCloudIS2_EEEE@Base 1.6
 (optional=templinst)_ZN3pcl15SurfelSmoothingINS_12PointXYZRGBLENS_17PointXYZRGBNormalEE15setSearchMethodERKN5boost10shared_ptrINS_6search6SearchIS1_EEEE@Base 1.6
 (optional=templinst)_ZN3pcl15SurfelSmoothingINS_12PointXYZRGBLENS_17PointXYZRGBNormalEE20computeSmoothedCloudERN5boost10shared_ptrINS_10PointCloudIS1_EEEERNS5_INS6_IS2_EEEE@Base 1.6
 (optional=templinst)_ZN3pcl15SurfelSmoothingINS_12PointXYZRGBLENS_17PointXYZRGBNormalEE20smoothCloudIterationERN5boost10shared_ptrINS_10PointCloudIS1_EEEERNS5_INS6_IS2_EEEE@Base 1.6
 (optional=templinst)_ZN3pcl15SurfelSmoothingINS_12PointXYZRGBLENS_17PointXYZRGBNormalEE35extractSalientFeaturesBetweenScalesERN5boost10shared_ptrINS_10PointCloudIS1_EEEERNS5_INS6_IS2_EEEERNS5_ISt6vectorIiSaIiEEEE@Base 1.6
 (optional=templinst)_ZN3pcl15SurfelSmoothingINS_12PointXYZRGBLENS_17PointXYZRGBNormalEEC1Ef@Base 1.6
 (optional=templinst)_ZN3pcl15SurfelSmoothingINS_12PointXYZRGBLENS_17PointXYZRGBNormalEEC2Ef@Base 1.6
 (optional=templinst)_ZN3pcl15SurfelSmoothingINS_12PointXYZRGBLENS_17PointXYZRGBNormalEED0Ev@Base 1.6
 (optional=templinst)_ZN3pcl15SurfelSmoothingINS_12PointXYZRGBLENS_17PointXYZRGBNormalEED1Ev@Base 1.6
 (optional=templinst)_ZN3pcl15SurfelSmoothingINS_12PointXYZRGBLENS_17PointXYZRGBNormalEED2Ev@Base 1.6
 (optional=templinst)_ZN3pcl15SurfelSmoothingINS_12PointXYZRGBLENS_6NormalEE11initComputeEv@Base 1.6
 (optional=templinst)_ZN3pcl15SurfelSmoothingINS_12PointXYZRGBLENS_6NormalEE11smoothPointERmRS1_RS2_@Base 1.6
 (optional=templinst)_ZN3pcl15SurfelSmoothingINS_12PointXYZRGBLENS_6NormalEE15setInputNormalsERN5boost10shared_ptrINS_10PointCloudIS2_EEEE@Base 1.6
 (optional=templinst)_ZN3pcl15SurfelSmoothingINS_12PointXYZRGBLENS_6NormalEE15setSearchMethodERKN5boost10shared_ptrINS_6search6SearchIS1_EEEE@Base 1.6
 (optional=templinst)_ZN3pcl15SurfelSmoothingINS_12PointXYZRGBLENS_6NormalEE20computeSmoothedCloudERN5boost10shared_ptrINS_10PointCloudIS1_EEEERNS5_INS6_IS2_EEEE@Base 1.6
 (optional=templinst)_ZN3pcl15SurfelSmoothingINS_12PointXYZRGBLENS_6NormalEE20smoothCloudIterationERN5boost10shared_ptrINS_10PointCloudIS1_EEEERNS5_INS6_IS2_EEEE@Base 1.6
 (optional=templinst)_ZN3pcl15SurfelSmoothingINS_12PointXYZRGBLENS_6NormalEE35extractSalientFeaturesBetweenScalesERN5boost10shared_ptrINS_10PointCloudIS1_EEEERNS5_INS6_IS2_EEEERNS5_ISt6vectorIiSaIiEEEE@Base 1.6
 (optional=templinst)_ZN3pcl15SurfelSmoothingINS_12PointXYZRGBLENS_6NormalEEC1Ef@Base 1.6
 (optional=templinst)_ZN3pcl15SurfelSmoothingINS_12PointXYZRGBLENS_6NormalEEC2Ef@Base 1.6
 (optional=templinst)_ZN3pcl15SurfelSmoothingINS_12PointXYZRGBLENS_6NormalEED0Ev@Base 1.6
 (optional=templinst)_ZN3pcl15SurfelSmoothingINS_12PointXYZRGBLENS_6NormalEED1Ev@Base 1.6
 (optional=templinst)_ZN3pcl15SurfelSmoothingINS_12PointXYZRGBLENS_6NormalEED2Ev@Base 1.6
 (optional=templinst)_ZN3pcl15SurfelSmoothingINS_13InterestPointENS_11PointNormalEE11initComputeEv@Base 1.6
 (optional=templinst)_ZN3pcl15SurfelSmoothingINS_13InterestPointENS_11PointNormalEE11smoothPointERmRS1_RS2_@Base 1.6
 (optional=templinst)_ZN3pcl15SurfelSmoothingINS_13InterestPointENS_11PointNormalEE15setInputNormalsERN5boost10shared_ptrINS_10PointCloudIS2_EEEE@Base 1.6
 (optional=templinst)_ZN3pcl15SurfelSmoothingINS_13InterestPointENS_11PointNormalEE15setSearchMethodERKN5boost10shared_ptrINS_6search6SearchIS1_EEEE@Base 1.6
 (optional=templinst)_ZN3pcl15SurfelSmoothingINS_13InterestPointENS_11PointNormalEE20computeSmoothedCloudERN5boost10shared_ptrINS_10PointCloudIS1_EEEERNS5_INS6_IS2_EEEE@Base 1.6
 (optional=templinst)_ZN3pcl15SurfelSmoothingINS_13InterestPointENS_11PointNormalEE20smoothCloudIterationERN5boost10shared_ptrINS_10PointCloudIS1_EEEERNS5_INS6_IS2_EEEE@Base 1.6
 (optional=templinst)_ZN3pcl15SurfelSmoothingINS_13InterestPointENS_11PointNormalEE35extractSalientFeaturesBetweenScalesERN5boost10shared_ptrINS_10PointCloudIS1_EEEERNS5_INS6_IS2_EEEERNS5_ISt6vectorIiSaIiEEEE@Base 1.6
 (optional=templinst)_ZN3pcl15SurfelSmoothingINS_13InterestPointENS_11PointNormalEEC1Ef@Base 1.6
 (optional=templinst)_ZN3pcl15SurfelSmoothingINS_13InterestPointENS_11PointNormalEEC2Ef@Base 1.6
 (optional=templinst)_ZN3pcl15SurfelSmoothingINS_13InterestPointENS_11PointNormalEED0Ev@Base 1.6
 (optional=templinst)_ZN3pcl15SurfelSmoothingINS_13InterestPointENS_11PointNormalEED1Ev@Base 1.6
 (optional=templinst)_ZN3pcl15SurfelSmoothingINS_13InterestPointENS_11PointNormalEED2Ev@Base 1.6
 (optional=templinst)_ZN3pcl15SurfelSmoothingINS_13InterestPointENS_15PointXYZINormalEE11initComputeEv@Base 1.6
 (optional=templinst)_ZN3pcl15SurfelSmoothingINS_13InterestPointENS_15PointXYZINormalEE11smoothPointERmRS1_RS2_@Base 1.6
 (optional=templinst)_ZN3pcl15SurfelSmoothingINS_13InterestPointENS_15PointXYZINormalEE15setInputNormalsERN5boost10shared_ptrINS_10PointCloudIS2_EEEE@Base 1.6
 (optional=templinst)_ZN3pcl15SurfelSmoothingINS_13InterestPointENS_15PointXYZINormalEE15setSearchMethodERKN5boost10shared_ptrINS_6search6SearchIS1_EEEE@Base 1.6
 (optional=templinst)_ZN3pcl15SurfelSmoothingINS_13InterestPointENS_15PointXYZINormalEE20computeSmoothedCloudERN5boost10shared_ptrINS_10PointCloudIS1_EEEERNS5_INS6_IS2_EEEE@Base 1.6
 (optional=templinst)_ZN3pcl15SurfelSmoothingINS_13InterestPointENS_15PointXYZINormalEE20smoothCloudIterationERN5boost10shared_ptrINS_10PointCloudIS1_EEEERNS5_INS6_IS2_EEEE@Base 1.6
 (optional=templinst)_ZN3pcl15SurfelSmoothingINS_13InterestPointENS_15PointXYZINormalEE35extractSalientFeaturesBetweenScalesERN5boost10shared_ptrINS_10PointCloudIS1_EEEERNS5_INS6_IS2_EEEERNS5_ISt6vectorIiSaIiEEEE@Base 1.6
 (optional=templinst)_ZN3pcl15SurfelSmoothingINS_13InterestPointENS_15PointXYZINormalEEC1Ef@Base 1.6
 (optional=templinst)_ZN3pcl15SurfelSmoothingINS_13InterestPointENS_15PointXYZINormalEEC2Ef@Base 1.6
 (optional=templinst)_ZN3pcl15SurfelSmoothingINS_13InterestPointENS_15PointXYZINormalEED0Ev@Base 1.6
 (optional=templinst)_ZN3pcl15SurfelSmoothingINS_13InterestPointENS_15PointXYZINormalEED1Ev@Base 1.6
 (optional=templinst)_ZN3pcl15SurfelSmoothingINS_13InterestPointENS_15PointXYZINormalEED2Ev@Base 1.6
 (optional=templinst)_ZN3pcl15SurfelSmoothingINS_13InterestPointENS_17PointXYZRGBNormalEE11initComputeEv@Base 1.6
 (optional=templinst)_ZN3pcl15SurfelSmoothingINS_13InterestPointENS_17PointXYZRGBNormalEE11smoothPointERmRS1_RS2_@Base 1.6
 (optional=templinst)_ZN3pcl15SurfelSmoothingINS_13InterestPointENS_17PointXYZRGBNormalEE15setInputNormalsERN5boost10shared_ptrINS_10PointCloudIS2_EEEE@Base 1.6
 (optional=templinst)_ZN3pcl15SurfelSmoothingINS_13InterestPointENS_17PointXYZRGBNormalEE15setSearchMethodERKN5boost10shared_ptrINS_6search6SearchIS1_EEEE@Base 1.6
 (optional=templinst)_ZN3pcl15SurfelSmoothingINS_13InterestPointENS_17PointXYZRGBNormalEE20computeSmoothedCloudERN5boost10shared_ptrINS_10PointCloudIS1_EEEERNS5_INS6_IS2_EEEE@Base 1.6
 (optional=templinst)_ZN3pcl15SurfelSmoothingINS_13InterestPointENS_17PointXYZRGBNormalEE20smoothCloudIterationERN5boost10shared_ptrINS_10PointCloudIS1_EEEERNS5_INS6_IS2_EEEE@Base 1.6
 (optional=templinst)_ZN3pcl15SurfelSmoothingINS_13InterestPointENS_17PointXYZRGBNormalEE35extractSalientFeaturesBetweenScalesERN5boost10shared_ptrINS_10PointCloudIS1_EEEERNS5_INS6_IS2_EEEERNS5_ISt6vectorIiSaIiEEEE@Base 1.6
 (optional=templinst)_ZN3pcl15SurfelSmoothingINS_13InterestPointENS_17PointXYZRGBNormalEEC1Ef@Base 1.6
 (optional=templinst)_ZN3pcl15SurfelSmoothingINS_13InterestPointENS_17PointXYZRGBNormalEEC2Ef@Base 1.6
 (optional=templinst)_ZN3pcl15SurfelSmoothingINS_13InterestPointENS_17PointXYZRGBNormalEED0Ev@Base 1.6
 (optional=templinst)_ZN3pcl15SurfelSmoothingINS_13InterestPointENS_17PointXYZRGBNormalEED1Ev@Base 1.6
 (optional=templinst)_ZN3pcl15SurfelSmoothingINS_13InterestPointENS_17PointXYZRGBNormalEED2Ev@Base 1.6
 (optional=templinst)_ZN3pcl15SurfelSmoothingINS_13InterestPointENS_6NormalEE11initComputeEv@Base 1.6
 (optional=templinst)_ZN3pcl15SurfelSmoothingINS_13InterestPointENS_6NormalEE11smoothPointERmRS1_RS2_@Base 1.6
 (optional=templinst)_ZN3pcl15SurfelSmoothingINS_13InterestPointENS_6NormalEE15setInputNormalsERN5boost10shared_ptrINS_10PointCloudIS2_EEEE@Base 1.6
 (optional=templinst)_ZN3pcl15SurfelSmoothingINS_13InterestPointENS_6NormalEE15setSearchMethodERKN5boost10shared_ptrINS_6search6SearchIS1_EEEE@Base 1.6
 (optional=templinst)_ZN3pcl15SurfelSmoothingINS_13InterestPointENS_6NormalEE20computeSmoothedCloudERN5boost10shared_ptrINS_10PointCloudIS1_EEEERNS5_INS6_IS2_EEEE@Base 1.6
 (optional=templinst)_ZN3pcl15SurfelSmoothingINS_13InterestPointENS_6NormalEE20smoothCloudIterationERN5boost10shared_ptrINS_10PointCloudIS1_EEEERNS5_INS6_IS2_EEEE@Base 1.6
 (optional=templinst)_ZN3pcl15SurfelSmoothingINS_13InterestPointENS_6NormalEE35extractSalientFeaturesBetweenScalesERN5boost10shared_ptrINS_10PointCloudIS1_EEEERNS5_INS6_IS2_EEEERNS5_ISt6vectorIiSaIiEEEE@Base 1.6
 (optional=templinst)_ZN3pcl15SurfelSmoothingINS_13InterestPointENS_6NormalEEC1Ef@Base 1.6
 (optional=templinst)_ZN3pcl15SurfelSmoothingINS_13InterestPointENS_6NormalEEC2Ef@Base 1.6
 (optional=templinst)_ZN3pcl15SurfelSmoothingINS_13InterestPointENS_6NormalEED0Ev@Base 1.6
 (optional=templinst)_ZN3pcl15SurfelSmoothingINS_13InterestPointENS_6NormalEED1Ev@Base 1.6
 (optional=templinst)_ZN3pcl15SurfelSmoothingINS_13InterestPointENS_6NormalEED2Ev@Base 1.6
 (optional=templinst)_ZN3pcl15SurfelSmoothingINS_14PointWithRangeENS_11PointNormalEE11initComputeEv@Base 1.6
 (optional=templinst)_ZN3pcl15SurfelSmoothingINS_14PointWithRangeENS_11PointNormalEE11smoothPointERmRS1_RS2_@Base 1.6
 (optional=templinst)_ZN3pcl15SurfelSmoothingINS_14PointWithRangeENS_11PointNormalEE15setInputNormalsERN5boost10shared_ptrINS_10PointCloudIS2_EEEE@Base 1.6
 (optional=templinst)_ZN3pcl15SurfelSmoothingINS_14PointWithRangeENS_11PointNormalEE15setSearchMethodERKN5boost10shared_ptrINS_6search6SearchIS1_EEEE@Base 1.6
 (optional=templinst)_ZN3pcl15SurfelSmoothingINS_14PointWithRangeENS_11PointNormalEE20computeSmoothedCloudERN5boost10shared_ptrINS_10PointCloudIS1_EEEERNS5_INS6_IS2_EEEE@Base 1.6
 (optional=templinst)_ZN3pcl15SurfelSmoothingINS_14PointWithRangeENS_11PointNormalEE20smoothCloudIterationERN5boost10shared_ptrINS_10PointCloudIS1_EEEERNS5_INS6_IS2_EEEE@Base 1.6
 (optional=templinst)_ZN3pcl15SurfelSmoothingINS_14PointWithRangeENS_11PointNormalEE35extractSalientFeaturesBetweenScalesERN5boost10shared_ptrINS_10PointCloudIS1_EEEERNS5_INS6_IS2_EEEERNS5_ISt6vectorIiSaIiEEEE@Base 1.6
 (optional=templinst)_ZN3pcl15SurfelSmoothingINS_14PointWithRangeENS_11PointNormalEEC1Ef@Base 1.6
 (optional=templinst)_ZN3pcl15SurfelSmoothingINS_14PointWithRangeENS_11PointNormalEEC2Ef@Base 1.6
 (optional=templinst)_ZN3pcl15SurfelSmoothingINS_14PointWithRangeENS_11PointNormalEED0Ev@Base 1.6
 (optional=templinst)_ZN3pcl15SurfelSmoothingINS_14PointWithRangeENS_11PointNormalEED1Ev@Base 1.6
 (optional=templinst)_ZN3pcl15SurfelSmoothingINS_14PointWithRangeENS_11PointNormalEED2Ev@Base 1.6
 (optional=templinst)_ZN3pcl15SurfelSmoothingINS_14PointWithRangeENS_15PointXYZINormalEE11initComputeEv@Base 1.6
 (optional=templinst)_ZN3pcl15SurfelSmoothingINS_14PointWithRangeENS_15PointXYZINormalEE11smoothPointERmRS1_RS2_@Base 1.6
 (optional=templinst)_ZN3pcl15SurfelSmoothingINS_14PointWithRangeENS_15PointXYZINormalEE15setInputNormalsERN5boost10shared_ptrINS_10PointCloudIS2_EEEE@Base 1.6
 (optional=templinst)_ZN3pcl15SurfelSmoothingINS_14PointWithRangeENS_15PointXYZINormalEE15setSearchMethodERKN5boost10shared_ptrINS_6search6SearchIS1_EEEE@Base 1.6
 (optional=templinst)_ZN3pcl15SurfelSmoothingINS_14PointWithRangeENS_15PointXYZINormalEE20computeSmoothedCloudERN5boost10shared_ptrINS_10PointCloudIS1_EEEERNS5_INS6_IS2_EEEE@Base 1.6
 (optional=templinst)_ZN3pcl15SurfelSmoothingINS_14PointWithRangeENS_15PointXYZINormalEE20smoothCloudIterationERN5boost10shared_ptrINS_10PointCloudIS1_EEEERNS5_INS6_IS2_EEEE@Base 1.6
 (optional=templinst)_ZN3pcl15SurfelSmoothingINS_14PointWithRangeENS_15PointXYZINormalEE35extractSalientFeaturesBetweenScalesERN5boost10shared_ptrINS_10PointCloudIS1_EEEERNS5_INS6_IS2_EEEERNS5_ISt6vectorIiSaIiEEEE@Base 1.6
 (optional=templinst)_ZN3pcl15SurfelSmoothingINS_14PointWithRangeENS_15PointXYZINormalEEC1Ef@Base 1.6
 (optional=templinst)_ZN3pcl15SurfelSmoothingINS_14PointWithRangeENS_15PointXYZINormalEEC2Ef@Base 1.6
 (optional=templinst)_ZN3pcl15SurfelSmoothingINS_14PointWithRangeENS_15PointXYZINormalEED0Ev@Base 1.6
 (optional=templinst)_ZN3pcl15SurfelSmoothingINS_14PointWithRangeENS_15PointXYZINormalEED1Ev@Base 1.6
 (optional=templinst)_ZN3pcl15SurfelSmoothingINS_14PointWithRangeENS_15PointXYZINormalEED2Ev@Base 1.6
 (optional=templinst)_ZN3pcl15SurfelSmoothingINS_14PointWithRangeENS_17PointXYZRGBNormalEE11initComputeEv@Base 1.6
 (optional=templinst)_ZN3pcl15SurfelSmoothingINS_14PointWithRangeENS_17PointXYZRGBNormalEE11smoothPointERmRS1_RS2_@Base 1.6
 (optional=templinst)_ZN3pcl15SurfelSmoothingINS_14PointWithRangeENS_17PointXYZRGBNormalEE15setInputNormalsERN5boost10shared_ptrINS_10PointCloudIS2_EEEE@Base 1.6
 (optional=templinst)_ZN3pcl15SurfelSmoothingINS_14PointWithRangeENS_17PointXYZRGBNormalEE15setSearchMethodERKN5boost10shared_ptrINS_6search6SearchIS1_EEEE@Base 1.6
 (optional=templinst)_ZN3pcl15SurfelSmoothingINS_14PointWithRangeENS_17PointXYZRGBNormalEE20computeSmoothedCloudERN5boost10shared_ptrINS_10PointCloudIS1_EEEERNS5_INS6_IS2_EEEE@Base 1.6
 (optional=templinst)_ZN3pcl15SurfelSmoothingINS_14PointWithRangeENS_17PointXYZRGBNormalEE20smoothCloudIterationERN5boost10shared_ptrINS_10PointCloudIS1_EEEERNS5_INS6_IS2_EEEE@Base 1.6
 (optional=templinst)_ZN3pcl15SurfelSmoothingINS_14PointWithRangeENS_17PointXYZRGBNormalEE35extractSalientFeaturesBetweenScalesERN5boost10shared_ptrINS_10PointCloudIS1_EEEERNS5_INS6_IS2_EEEERNS5_ISt6vectorIiSaIiEEEE@Base 1.6
 (optional=templinst)_ZN3pcl15SurfelSmoothingINS_14PointWithRangeENS_17PointXYZRGBNormalEEC1Ef@Base 1.6
 (optional=templinst)_ZN3pcl15SurfelSmoothingINS_14PointWithRangeENS_17PointXYZRGBNormalEEC2Ef@Base 1.6
 (optional=templinst)_ZN3pcl15SurfelSmoothingINS_14PointWithRangeENS_17PointXYZRGBNormalEED0Ev@Base 1.6
 (optional=templinst)_ZN3pcl15SurfelSmoothingINS_14PointWithRangeENS_17PointXYZRGBNormalEED1Ev@Base 1.6
 (optional=templinst)_ZN3pcl15SurfelSmoothingINS_14PointWithRangeENS_17PointXYZRGBNormalEED2Ev@Base 1.6
 (optional=templinst)_ZN3pcl15SurfelSmoothingINS_14PointWithRangeENS_6NormalEE11initComputeEv@Base 1.6
 (optional=templinst)_ZN3pcl15SurfelSmoothingINS_14PointWithRangeENS_6NormalEE11smoothPointERmRS1_RS2_@Base 1.6
 (optional=templinst)_ZN3pcl15SurfelSmoothingINS_14PointWithRangeENS_6NormalEE15setInputNormalsERN5boost10shared_ptrINS_10PointCloudIS2_EEEE@Base 1.6
 (optional=templinst)_ZN3pcl15SurfelSmoothingINS_14PointWithRangeENS_6NormalEE15setSearchMethodERKN5boost10shared_ptrINS_6search6SearchIS1_EEEE@Base 1.6
 (optional=templinst)_ZN3pcl15SurfelSmoothingINS_14PointWithRangeENS_6NormalEE20computeSmoothedCloudERN5boost10shared_ptrINS_10PointCloudIS1_EEEERNS5_INS6_IS2_EEEE@Base 1.6
 (optional=templinst)_ZN3pcl15SurfelSmoothingINS_14PointWithRangeENS_6NormalEE20smoothCloudIterationERN5boost10shared_ptrINS_10PointCloudIS1_EEEERNS5_INS6_IS2_EEEE@Base 1.6
 (optional=templinst)_ZN3pcl15SurfelSmoothingINS_14PointWithRangeENS_6NormalEE35extractSalientFeaturesBetweenScalesERN5boost10shared_ptrINS_10PointCloudIS1_EEEERNS5_INS6_IS2_EEEERNS5_ISt6vectorIiSaIiEEEE@Base 1.6
 (optional=templinst)_ZN3pcl15SurfelSmoothingINS_14PointWithRangeENS_6NormalEEC1Ef@Base 1.6
 (optional=templinst)_ZN3pcl15SurfelSmoothingINS_14PointWithRangeENS_6NormalEEC2Ef@Base 1.6
 (optional=templinst)_ZN3pcl15SurfelSmoothingINS_14PointWithRangeENS_6NormalEED0Ev@Base 1.6
 (optional=templinst)_ZN3pcl15SurfelSmoothingINS_14PointWithRangeENS_6NormalEED1Ev@Base 1.6
 (optional=templinst)_ZN3pcl15SurfelSmoothingINS_14PointWithRangeENS_6NormalEED2Ev@Base 1.6
 (optional=templinst)_ZN3pcl15SurfelSmoothingINS_14PointWithScaleENS_11PointNormalEE11initComputeEv@Base 1.6
 (optional=templinst)_ZN3pcl15SurfelSmoothingINS_14PointWithScaleENS_11PointNormalEE11smoothPointERmRS1_RS2_@Base 1.6
 (optional=templinst)_ZN3pcl15SurfelSmoothingINS_14PointWithScaleENS_11PointNormalEE15setInputNormalsERN5boost10shared_ptrINS_10PointCloudIS2_EEEE@Base 1.6
 (optional=templinst)_ZN3pcl15SurfelSmoothingINS_14PointWithScaleENS_11PointNormalEE15setSearchMethodERKN5boost10shared_ptrINS_6search6SearchIS1_EEEE@Base 1.6
 (optional=templinst)_ZN3pcl15SurfelSmoothingINS_14PointWithScaleENS_11PointNormalEE20computeSmoothedCloudERN5boost10shared_ptrINS_10PointCloudIS1_EEEERNS5_INS6_IS2_EEEE@Base 1.6
 (optional=templinst)_ZN3pcl15SurfelSmoothingINS_14PointWithScaleENS_11PointNormalEE20smoothCloudIterationERN5boost10shared_ptrINS_10PointCloudIS1_EEEERNS5_INS6_IS2_EEEE@Base 1.6
 (optional=templinst)_ZN3pcl15SurfelSmoothingINS_14PointWithScaleENS_11PointNormalEE35extractSalientFeaturesBetweenScalesERN5boost10shared_ptrINS_10PointCloudIS1_EEEERNS5_INS6_IS2_EEEERNS5_ISt6vectorIiSaIiEEEE@Base 1.6
 (optional=templinst)_ZN3pcl15SurfelSmoothingINS_14PointWithScaleENS_11PointNormalEEC1Ef@Base 1.6
 (optional=templinst)_ZN3pcl15SurfelSmoothingINS_14PointWithScaleENS_11PointNormalEEC2Ef@Base 1.6
 (optional=templinst)_ZN3pcl15SurfelSmoothingINS_14PointWithScaleENS_11PointNormalEED0Ev@Base 1.6
 (optional=templinst)_ZN3pcl15SurfelSmoothingINS_14PointWithScaleENS_11PointNormalEED1Ev@Base 1.6
 (optional=templinst)_ZN3pcl15SurfelSmoothingINS_14PointWithScaleENS_11PointNormalEED2Ev@Base 1.6
 (optional=templinst)_ZN3pcl15SurfelSmoothingINS_14PointWithScaleENS_15PointXYZINormalEE11initComputeEv@Base 1.6
 (optional=templinst)_ZN3pcl15SurfelSmoothingINS_14PointWithScaleENS_15PointXYZINormalEE11smoothPointERmRS1_RS2_@Base 1.6
 (optional=templinst)_ZN3pcl15SurfelSmoothingINS_14PointWithScaleENS_15PointXYZINormalEE15setInputNormalsERN5boost10shared_ptrINS_10PointCloudIS2_EEEE@Base 1.6
 (optional=templinst)_ZN3pcl15SurfelSmoothingINS_14PointWithScaleENS_15PointXYZINormalEE15setSearchMethodERKN5boost10shared_ptrINS_6search6SearchIS1_EEEE@Base 1.6
 (optional=templinst)_ZN3pcl15SurfelSmoothingINS_14PointWithScaleENS_15PointXYZINormalEE20computeSmoothedCloudERN5boost10shared_ptrINS_10PointCloudIS1_EEEERNS5_INS6_IS2_EEEE@Base 1.6
 (optional=templinst)_ZN3pcl15SurfelSmoothingINS_14PointWithScaleENS_15PointXYZINormalEE20smoothCloudIterationERN5boost10shared_ptrINS_10PointCloudIS1_EEEERNS5_INS6_IS2_EEEE@Base 1.6
 (optional=templinst)_ZN3pcl15SurfelSmoothingINS_14PointWithScaleENS_15PointXYZINormalEE35extractSalientFeaturesBetweenScalesERN5boost10shared_ptrINS_10PointCloudIS1_EEEERNS5_INS6_IS2_EEEERNS5_ISt6vectorIiSaIiEEEE@Base 1.6
 (optional=templinst)_ZN3pcl15SurfelSmoothingINS_14PointWithScaleENS_15PointXYZINormalEEC1Ef@Base 1.6
 (optional=templinst)_ZN3pcl15SurfelSmoothingINS_14PointWithScaleENS_15PointXYZINormalEEC2Ef@Base 1.6
 (optional=templinst)_ZN3pcl15SurfelSmoothingINS_14PointWithScaleENS_15PointXYZINormalEED0Ev@Base 1.6
 (optional=templinst)_ZN3pcl15SurfelSmoothingINS_14PointWithScaleENS_15PointXYZINormalEED1Ev@Base 1.6
 (optional=templinst)_ZN3pcl15SurfelSmoothingINS_14PointWithScaleENS_15PointXYZINormalEED2Ev@Base 1.6
 (optional=templinst)_ZN3pcl15SurfelSmoothingINS_14PointWithScaleENS_17PointXYZRGBNormalEE11initComputeEv@Base 1.6
 (optional=templinst)_ZN3pcl15SurfelSmoothingINS_14PointWithScaleENS_17PointXYZRGBNormalEE11smoothPointERmRS1_RS2_@Base 1.6
 (optional=templinst)_ZN3pcl15SurfelSmoothingINS_14PointWithScaleENS_17PointXYZRGBNormalEE15setInputNormalsERN5boost10shared_ptrINS_10PointCloudIS2_EEEE@Base 1.6
 (optional=templinst)_ZN3pcl15SurfelSmoothingINS_14PointWithScaleENS_17PointXYZRGBNormalEE15setSearchMethodERKN5boost10shared_ptrINS_6search6SearchIS1_EEEE@Base 1.6
 (optional=templinst)_ZN3pcl15SurfelSmoothingINS_14PointWithScaleENS_17PointXYZRGBNormalEE20computeSmoothedCloudERN5boost10shared_ptrINS_10PointCloudIS1_EEEERNS5_INS6_IS2_EEEE@Base 1.6
 (optional=templinst)_ZN3pcl15SurfelSmoothingINS_14PointWithScaleENS_17PointXYZRGBNormalEE20smoothCloudIterationERN5boost10shared_ptrINS_10PointCloudIS1_EEEERNS5_INS6_IS2_EEEE@Base 1.6
 (optional=templinst)_ZN3pcl15SurfelSmoothingINS_14PointWithScaleENS_17PointXYZRGBNormalEE35extractSalientFeaturesBetweenScalesERN5boost10shared_ptrINS_10PointCloudIS1_EEEERNS5_INS6_IS2_EEEERNS5_ISt6vectorIiSaIiEEEE@Base 1.6
 (optional=templinst)_ZN3pcl15SurfelSmoothingINS_14PointWithScaleENS_17PointXYZRGBNormalEEC1Ef@Base 1.6
 (optional=templinst)_ZN3pcl15SurfelSmoothingINS_14PointWithScaleENS_17PointXYZRGBNormalEEC2Ef@Base 1.6
 (optional=templinst)_ZN3pcl15SurfelSmoothingINS_14PointWithScaleENS_17PointXYZRGBNormalEED0Ev@Base 1.6
 (optional=templinst)_ZN3pcl15SurfelSmoothingINS_14PointWithScaleENS_17PointXYZRGBNormalEED1Ev@Base 1.6
 (optional=templinst)_ZN3pcl15SurfelSmoothingINS_14PointWithScaleENS_17PointXYZRGBNormalEED2Ev@Base 1.6
 (optional=templinst)_ZN3pcl15SurfelSmoothingINS_14PointWithScaleENS_6NormalEE11initComputeEv@Base 1.6
 (optional=templinst)_ZN3pcl15SurfelSmoothingINS_14PointWithScaleENS_6NormalEE11smoothPointERmRS1_RS2_@Base 1.6
 (optional=templinst)_ZN3pcl15SurfelSmoothingINS_14PointWithScaleENS_6NormalEE15setInputNormalsERN5boost10shared_ptrINS_10PointCloudIS2_EEEE@Base 1.6
 (optional=templinst)_ZN3pcl15SurfelSmoothingINS_14PointWithScaleENS_6NormalEE15setSearchMethodERKN5boost10shared_ptrINS_6search6SearchIS1_EEEE@Base 1.6
 (optional=templinst)_ZN3pcl15SurfelSmoothingINS_14PointWithScaleENS_6NormalEE20computeSmoothedCloudERN5boost10shared_ptrINS_10PointCloudIS1_EEEERNS5_INS6_IS2_EEEE@Base 1.6
 (optional=templinst)_ZN3pcl15SurfelSmoothingINS_14PointWithScaleENS_6NormalEE20smoothCloudIterationERN5boost10shared_ptrINS_10PointCloudIS1_EEEERNS5_INS6_IS2_EEEE@Base 1.6
 (optional=templinst)_ZN3pcl15SurfelSmoothingINS_14PointWithScaleENS_6NormalEE35extractSalientFeaturesBetweenScalesERN5boost10shared_ptrINS_10PointCloudIS1_EEEERNS5_INS6_IS2_EEEERNS5_ISt6vectorIiSaIiEEEE@Base 1.6
 (optional=templinst)_ZN3pcl15SurfelSmoothingINS_14PointWithScaleENS_6NormalEEC1Ef@Base 1.6
 (optional=templinst)_ZN3pcl15SurfelSmoothingINS_14PointWithScaleENS_6NormalEEC2Ef@Base 1.6
 (optional=templinst)_ZN3pcl15SurfelSmoothingINS_14PointWithScaleENS_6NormalEED0Ev@Base 1.6
 (optional=templinst)_ZN3pcl15SurfelSmoothingINS_14PointWithScaleENS_6NormalEED1Ev@Base 1.6
 (optional=templinst)_ZN3pcl15SurfelSmoothingINS_14PointWithScaleENS_6NormalEED2Ev@Base 1.6
 (optional=templinst)_ZN3pcl15SurfelSmoothingINS_15PointXYZINormalENS_11PointNormalEE11initComputeEv@Base 1.6
 (optional=templinst)_ZN3pcl15SurfelSmoothingINS_15PointXYZINormalENS_11PointNormalEE11smoothPointERmRS1_RS2_@Base 1.6
 (optional=templinst)_ZN3pcl15SurfelSmoothingINS_15PointXYZINormalENS_11PointNormalEE15setInputNormalsERN5boost10shared_ptrINS_10PointCloudIS2_EEEE@Base 1.6
 (optional=templinst)_ZN3pcl15SurfelSmoothingINS_15PointXYZINormalENS_11PointNormalEE15setSearchMethodERKN5boost10shared_ptrINS_6search6SearchIS1_EEEE@Base 1.6
 (optional=templinst)_ZN3pcl15SurfelSmoothingINS_15PointXYZINormalENS_11PointNormalEE20computeSmoothedCloudERN5boost10shared_ptrINS_10PointCloudIS1_EEEERNS5_INS6_IS2_EEEE@Base 1.6
 (optional=templinst)_ZN3pcl15SurfelSmoothingINS_15PointXYZINormalENS_11PointNormalEE20smoothCloudIterationERN5boost10shared_ptrINS_10PointCloudIS1_EEEERNS5_INS6_IS2_EEEE@Base 1.6
 (optional=templinst)_ZN3pcl15SurfelSmoothingINS_15PointXYZINormalENS_11PointNormalEE35extractSalientFeaturesBetweenScalesERN5boost10shared_ptrINS_10PointCloudIS1_EEEERNS5_INS6_IS2_EEEERNS5_ISt6vectorIiSaIiEEEE@Base 1.6
 (optional=templinst)_ZN3pcl15SurfelSmoothingINS_15PointXYZINormalENS_11PointNormalEEC1Ef@Base 1.6
 (optional=templinst)_ZN3pcl15SurfelSmoothingINS_15PointXYZINormalENS_11PointNormalEEC2Ef@Base 1.6
 (optional=templinst)_ZN3pcl15SurfelSmoothingINS_15PointXYZINormalENS_11PointNormalEED0Ev@Base 1.6
 (optional=templinst)_ZN3pcl15SurfelSmoothingINS_15PointXYZINormalENS_11PointNormalEED1Ev@Base 1.6
 (optional=templinst)_ZN3pcl15SurfelSmoothingINS_15PointXYZINormalENS_11PointNormalEED2Ev@Base 1.6
 (optional=templinst)_ZN3pcl15SurfelSmoothingINS_15PointXYZINormalENS_17PointXYZRGBNormalEE11initComputeEv@Base 1.6
 (optional=templinst)_ZN3pcl15SurfelSmoothingINS_15PointXYZINormalENS_17PointXYZRGBNormalEE11smoothPointERmRS1_RS2_@Base 1.6
 (optional=templinst)_ZN3pcl15SurfelSmoothingINS_15PointXYZINormalENS_17PointXYZRGBNormalEE15setInputNormalsERN5boost10shared_ptrINS_10PointCloudIS2_EEEE@Base 1.6
 (optional=templinst)_ZN3pcl15SurfelSmoothingINS_15PointXYZINormalENS_17PointXYZRGBNormalEE15setSearchMethodERKN5boost10shared_ptrINS_6search6SearchIS1_EEEE@Base 1.6
 (optional=templinst)_ZN3pcl15SurfelSmoothingINS_15PointXYZINormalENS_17PointXYZRGBNormalEE20computeSmoothedCloudERN5boost10shared_ptrINS_10PointCloudIS1_EEEERNS5_INS6_IS2_EEEE@Base 1.6
 (optional=templinst)_ZN3pcl15SurfelSmoothingINS_15PointXYZINormalENS_17PointXYZRGBNormalEE20smoothCloudIterationERN5boost10shared_ptrINS_10PointCloudIS1_EEEERNS5_INS6_IS2_EEEE@Base 1.6
 (optional=templinst)_ZN3pcl15SurfelSmoothingINS_15PointXYZINormalENS_17PointXYZRGBNormalEE35extractSalientFeaturesBetweenScalesERN5boost10shared_ptrINS_10PointCloudIS1_EEEERNS5_INS6_IS2_EEEERNS5_ISt6vectorIiSaIiEEEE@Base 1.6
 (optional=templinst)_ZN3pcl15SurfelSmoothingINS_15PointXYZINormalENS_17PointXYZRGBNormalEEC1Ef@Base 1.6
 (optional=templinst)_ZN3pcl15SurfelSmoothingINS_15PointXYZINormalENS_17PointXYZRGBNormalEEC2Ef@Base 1.6
 (optional=templinst)_ZN3pcl15SurfelSmoothingINS_15PointXYZINormalENS_17PointXYZRGBNormalEED0Ev@Base 1.6
 (optional=templinst)_ZN3pcl15SurfelSmoothingINS_15PointXYZINormalENS_17PointXYZRGBNormalEED1Ev@Base 1.6
 (optional=templinst)_ZN3pcl15SurfelSmoothingINS_15PointXYZINormalENS_17PointXYZRGBNormalEED2Ev@Base 1.6
 (optional=templinst)_ZN3pcl15SurfelSmoothingINS_15PointXYZINormalENS_6NormalEE11initComputeEv@Base 1.6
 (optional=templinst)_ZN3pcl15SurfelSmoothingINS_15PointXYZINormalENS_6NormalEE11smoothPointERmRS1_RS2_@Base 1.6
 (optional=templinst)_ZN3pcl15SurfelSmoothingINS_15PointXYZINormalENS_6NormalEE15setInputNormalsERN5boost10shared_ptrINS_10PointCloudIS2_EEEE@Base 1.6
 (optional=templinst)_ZN3pcl15SurfelSmoothingINS_15PointXYZINormalENS_6NormalEE15setSearchMethodERKN5boost10shared_ptrINS_6search6SearchIS1_EEEE@Base 1.6
 (optional=templinst)_ZN3pcl15SurfelSmoothingINS_15PointXYZINormalENS_6NormalEE20computeSmoothedCloudERN5boost10shared_ptrINS_10PointCloudIS1_EEEERNS5_INS6_IS2_EEEE@Base 1.6
 (optional=templinst)_ZN3pcl15SurfelSmoothingINS_15PointXYZINormalENS_6NormalEE20smoothCloudIterationERN5boost10shared_ptrINS_10PointCloudIS1_EEEERNS5_INS6_IS2_EEEE@Base 1.6
 (optional=templinst)_ZN3pcl15SurfelSmoothingINS_15PointXYZINormalENS_6NormalEE35extractSalientFeaturesBetweenScalesERN5boost10shared_ptrINS_10PointCloudIS1_EEEERNS5_INS6_IS2_EEEERNS5_ISt6vectorIiSaIiEEEE@Base 1.6
 (optional=templinst)_ZN3pcl15SurfelSmoothingINS_15PointXYZINormalENS_6NormalEEC1Ef@Base 1.6
 (optional=templinst)_ZN3pcl15SurfelSmoothingINS_15PointXYZINormalENS_6NormalEEC2Ef@Base 1.6
 (optional=templinst)_ZN3pcl15SurfelSmoothingINS_15PointXYZINormalENS_6NormalEED0Ev@Base 1.6
 (optional=templinst)_ZN3pcl15SurfelSmoothingINS_15PointXYZINormalENS_6NormalEED1Ev@Base 1.6
 (optional=templinst)_ZN3pcl15SurfelSmoothingINS_15PointXYZINormalENS_6NormalEED2Ev@Base 1.6
 (optional=templinst)_ZN3pcl15SurfelSmoothingINS_15PointXYZINormalES1_E11initComputeEv@Base 1.6
 (optional=templinst)_ZN3pcl15SurfelSmoothingINS_15PointXYZINormalES1_E11smoothPointERmRS1_S4_@Base 1.6
 (optional=templinst)_ZN3pcl15SurfelSmoothingINS_15PointXYZINormalES1_E15setInputNormalsERN5boost10shared_ptrINS_10PointCloudIS1_EEEE@Base 1.6
 (optional=templinst)_ZN3pcl15SurfelSmoothingINS_15PointXYZINormalES1_E15setSearchMethodERKN5boost10shared_ptrINS_6search6SearchIS1_EEEE@Base 1.6
 (optional=templinst)_ZN3pcl15SurfelSmoothingINS_15PointXYZINormalES1_E20computeSmoothedCloudERN5boost10shared_ptrINS_10PointCloudIS1_EEEES8_@Base 1.6
 (optional=templinst)_ZN3pcl15SurfelSmoothingINS_15PointXYZINormalES1_E20smoothCloudIterationERN5boost10shared_ptrINS_10PointCloudIS1_EEEES8_@Base 1.6
 (optional=templinst)_ZN3pcl15SurfelSmoothingINS_15PointXYZINormalES1_E35extractSalientFeaturesBetweenScalesERN5boost10shared_ptrINS_10PointCloudIS1_EEEES8_RNS4_ISt6vectorIiSaIiEEEE@Base 1.6
 (optional=templinst)_ZN3pcl15SurfelSmoothingINS_15PointXYZINormalES1_EC1Ef@Base 1.6
 (optional=templinst)_ZN3pcl15SurfelSmoothingINS_15PointXYZINormalES1_EC2Ef@Base 1.6
 (optional=templinst)_ZN3pcl15SurfelSmoothingINS_15PointXYZINormalES1_ED0Ev@Base 1.6
 (optional=templinst)_ZN3pcl15SurfelSmoothingINS_15PointXYZINormalES1_ED1Ev@Base 1.6
 (optional=templinst)_ZN3pcl15SurfelSmoothingINS_15PointXYZINormalES1_ED2Ev@Base 1.6
 (optional=templinst)_ZN3pcl15SurfelSmoothingINS_17PointXYZRGBNormalENS_11PointNormalEE11initComputeEv@Base 1.6
 (optional=templinst)_ZN3pcl15SurfelSmoothingINS_17PointXYZRGBNormalENS_11PointNormalEE11smoothPointERmRS1_RS2_@Base 1.6
 (optional=templinst)_ZN3pcl15SurfelSmoothingINS_17PointXYZRGBNormalENS_11PointNormalEE15setInputNormalsERN5boost10shared_ptrINS_10PointCloudIS2_EEEE@Base 1.6
 (optional=templinst)_ZN3pcl15SurfelSmoothingINS_17PointXYZRGBNormalENS_11PointNormalEE15setSearchMethodERKN5boost10shared_ptrINS_6search6SearchIS1_EEEE@Base 1.6
 (optional=templinst)_ZN3pcl15SurfelSmoothingINS_17PointXYZRGBNormalENS_11PointNormalEE20computeSmoothedCloudERN5boost10shared_ptrINS_10PointCloudIS1_EEEERNS5_INS6_IS2_EEEE@Base 1.6
 (optional=templinst)_ZN3pcl15SurfelSmoothingINS_17PointXYZRGBNormalENS_11PointNormalEE20smoothCloudIterationERN5boost10shared_ptrINS_10PointCloudIS1_EEEERNS5_INS6_IS2_EEEE@Base 1.6
 (optional=templinst)_ZN3pcl15SurfelSmoothingINS_17PointXYZRGBNormalENS_11PointNormalEE35extractSalientFeaturesBetweenScalesERN5boost10shared_ptrINS_10PointCloudIS1_EEEERNS5_INS6_IS2_EEEERNS5_ISt6vectorIiSaIiEEEE@Base 1.6
 (optional=templinst)_ZN3pcl15SurfelSmoothingINS_17PointXYZRGBNormalENS_11PointNormalEEC1Ef@Base 1.6
 (optional=templinst)_ZN3pcl15SurfelSmoothingINS_17PointXYZRGBNormalENS_11PointNormalEEC2Ef@Base 1.6
 (optional=templinst)_ZN3pcl15SurfelSmoothingINS_17PointXYZRGBNormalENS_11PointNormalEED0Ev@Base 1.6
 (optional=templinst)_ZN3pcl15SurfelSmoothingINS_17PointXYZRGBNormalENS_11PointNormalEED1Ev@Base 1.6
 (optional=templinst)_ZN3pcl15SurfelSmoothingINS_17PointXYZRGBNormalENS_11PointNormalEED2Ev@Base 1.6
 (optional=templinst)_ZN3pcl15SurfelSmoothingINS_17PointXYZRGBNormalENS_15PointXYZINormalEE11initComputeEv@Base 1.6
 (optional=templinst)_ZN3pcl15SurfelSmoothingINS_17PointXYZRGBNormalENS_15PointXYZINormalEE11smoothPointERmRS1_RS2_@Base 1.6
 (optional=templinst)_ZN3pcl15SurfelSmoothingINS_17PointXYZRGBNormalENS_15PointXYZINormalEE15setInputNormalsERN5boost10shared_ptrINS_10PointCloudIS2_EEEE@Base 1.6
 (optional=templinst)_ZN3pcl15SurfelSmoothingINS_17PointXYZRGBNormalENS_15PointXYZINormalEE15setSearchMethodERKN5boost10shared_ptrINS_6search6SearchIS1_EEEE@Base 1.6
 (optional=templinst)_ZN3pcl15SurfelSmoothingINS_17PointXYZRGBNormalENS_15PointXYZINormalEE20computeSmoothedCloudERN5boost10shared_ptrINS_10PointCloudIS1_EEEERNS5_INS6_IS2_EEEE@Base 1.6
 (optional=templinst)_ZN3pcl15SurfelSmoothingINS_17PointXYZRGBNormalENS_15PointXYZINormalEE20smoothCloudIterationERN5boost10shared_ptrINS_10PointCloudIS1_EEEERNS5_INS6_IS2_EEEE@Base 1.6
 (optional=templinst)_ZN3pcl15SurfelSmoothingINS_17PointXYZRGBNormalENS_15PointXYZINormalEE35extractSalientFeaturesBetweenScalesERN5boost10shared_ptrINS_10PointCloudIS1_EEEERNS5_INS6_IS2_EEEERNS5_ISt6vectorIiSaIiEEEE@Base 1.6
 (optional=templinst)_ZN3pcl15SurfelSmoothingINS_17PointXYZRGBNormalENS_15PointXYZINormalEEC1Ef@Base 1.6
 (optional=templinst)_ZN3pcl15SurfelSmoothingINS_17PointXYZRGBNormalENS_15PointXYZINormalEEC2Ef@Base 1.6
 (optional=templinst)_ZN3pcl15SurfelSmoothingINS_17PointXYZRGBNormalENS_15PointXYZINormalEED0Ev@Base 1.6
 (optional=templinst)_ZN3pcl15SurfelSmoothingINS_17PointXYZRGBNormalENS_15PointXYZINormalEED1Ev@Base 1.6
 (optional=templinst)_ZN3pcl15SurfelSmoothingINS_17PointXYZRGBNormalENS_15PointXYZINormalEED2Ev@Base 1.6
 (optional=templinst)_ZN3pcl15SurfelSmoothingINS_17PointXYZRGBNormalENS_6NormalEE11initComputeEv@Base 1.6
 (optional=templinst)_ZN3pcl15SurfelSmoothingINS_17PointXYZRGBNormalENS_6NormalEE11smoothPointERmRS1_RS2_@Base 1.6
 (optional=templinst)_ZN3pcl15SurfelSmoothingINS_17PointXYZRGBNormalENS_6NormalEE15setInputNormalsERN5boost10shared_ptrINS_10PointCloudIS2_EEEE@Base 1.6
 (optional=templinst)_ZN3pcl15SurfelSmoothingINS_17PointXYZRGBNormalENS_6NormalEE15setSearchMethodERKN5boost10shared_ptrINS_6search6SearchIS1_EEEE@Base 1.6
 (optional=templinst)_ZN3pcl15SurfelSmoothingINS_17PointXYZRGBNormalENS_6NormalEE20computeSmoothedCloudERN5boost10shared_ptrINS_10PointCloudIS1_EEEERNS5_INS6_IS2_EEEE@Base 1.6
 (optional=templinst)_ZN3pcl15SurfelSmoothingINS_17PointXYZRGBNormalENS_6NormalEE20smoothCloudIterationERN5boost10shared_ptrINS_10PointCloudIS1_EEEERNS5_INS6_IS2_EEEE@Base 1.6
 (optional=templinst)_ZN3pcl15SurfelSmoothingINS_17PointXYZRGBNormalENS_6NormalEE35extractSalientFeaturesBetweenScalesERN5boost10shared_ptrINS_10PointCloudIS1_EEEERNS5_INS6_IS2_EEEERNS5_ISt6vectorIiSaIiEEEE@Base 1.6
 (optional=templinst)_ZN3pcl15SurfelSmoothingINS_17PointXYZRGBNormalENS_6NormalEEC1Ef@Base 1.6
 (optional=templinst)_ZN3pcl15SurfelSmoothingINS_17PointXYZRGBNormalENS_6NormalEEC2Ef@Base 1.6
 (optional=templinst)_ZN3pcl15SurfelSmoothingINS_17PointXYZRGBNormalENS_6NormalEED0Ev@Base 1.6
 (optional=templinst)_ZN3pcl15SurfelSmoothingINS_17PointXYZRGBNormalENS_6NormalEED1Ev@Base 1.6
 (optional=templinst)_ZN3pcl15SurfelSmoothingINS_17PointXYZRGBNormalENS_6NormalEED2Ev@Base 1.6
 (optional=templinst)_ZN3pcl15SurfelSmoothingINS_17PointXYZRGBNormalES1_E11initComputeEv@Base 1.6
 (optional=templinst)_ZN3pcl15SurfelSmoothingINS_17PointXYZRGBNormalES1_E11smoothPointERmRS1_S4_@Base 1.6
 (optional=templinst)_ZN3pcl15SurfelSmoothingINS_17PointXYZRGBNormalES1_E15setInputNormalsERN5boost10shared_ptrINS_10PointCloudIS1_EEEE@Base 1.6
 (optional=templinst)_ZN3pcl15SurfelSmoothingINS_17PointXYZRGBNormalES1_E15setSearchMethodERKN5boost10shared_ptrINS_6search6SearchIS1_EEEE@Base 1.6
 (optional=templinst)_ZN3pcl15SurfelSmoothingINS_17PointXYZRGBNormalES1_E20computeSmoothedCloudERN5boost10shared_ptrINS_10PointCloudIS1_EEEES8_@Base 1.6
 (optional=templinst)_ZN3pcl15SurfelSmoothingINS_17PointXYZRGBNormalES1_E20smoothCloudIterationERN5boost10shared_ptrINS_10PointCloudIS1_EEEES8_@Base 1.6
 (optional=templinst)_ZN3pcl15SurfelSmoothingINS_17PointXYZRGBNormalES1_E35extractSalientFeaturesBetweenScalesERN5boost10shared_ptrINS_10PointCloudIS1_EEEES8_RNS4_ISt6vectorIiSaIiEEEE@Base 1.6
 (optional=templinst)_ZN3pcl15SurfelSmoothingINS_17PointXYZRGBNormalES1_EC1Ef@Base 1.6
 (optional=templinst)_ZN3pcl15SurfelSmoothingINS_17PointXYZRGBNormalES1_EC2Ef@Base 1.6
 (optional=templinst)_ZN3pcl15SurfelSmoothingINS_17PointXYZRGBNormalES1_ED0Ev@Base 1.6
 (optional=templinst)_ZN3pcl15SurfelSmoothingINS_17PointXYZRGBNormalES1_ED1Ev@Base 1.6
 (optional=templinst)_ZN3pcl15SurfelSmoothingINS_17PointXYZRGBNormalES1_ED2Ev@Base 1.6
 (optional=templinst)_ZN3pcl15SurfelSmoothingINS_18PointWithViewpointENS_11PointNormalEE11initComputeEv@Base 1.6
 (optional=templinst)_ZN3pcl15SurfelSmoothingINS_18PointWithViewpointENS_11PointNormalEE11smoothPointERmRS1_RS2_@Base 1.6
 (optional=templinst)_ZN3pcl15SurfelSmoothingINS_18PointWithViewpointENS_11PointNormalEE15setInputNormalsERN5boost10shared_ptrINS_10PointCloudIS2_EEEE@Base 1.6
 (optional=templinst)_ZN3pcl15SurfelSmoothingINS_18PointWithViewpointENS_11PointNormalEE15setSearchMethodERKN5boost10shared_ptrINS_6search6SearchIS1_EEEE@Base 1.6
 (optional=templinst)_ZN3pcl15SurfelSmoothingINS_18PointWithViewpointENS_11PointNormalEE20computeSmoothedCloudERN5boost10shared_ptrINS_10PointCloudIS1_EEEERNS5_INS6_IS2_EEEE@Base 1.6
 (optional=templinst)_ZN3pcl15SurfelSmoothingINS_18PointWithViewpointENS_11PointNormalEE20smoothCloudIterationERN5boost10shared_ptrINS_10PointCloudIS1_EEEERNS5_INS6_IS2_EEEE@Base 1.6
 (optional=templinst)_ZN3pcl15SurfelSmoothingINS_18PointWithViewpointENS_11PointNormalEE35extractSalientFeaturesBetweenScalesERN5boost10shared_ptrINS_10PointCloudIS1_EEEERNS5_INS6_IS2_EEEERNS5_ISt6vectorIiSaIiEEEE@Base 1.6
 (optional=templinst)_ZN3pcl15SurfelSmoothingINS_18PointWithViewpointENS_11PointNormalEEC1Ef@Base 1.6
 (optional=templinst)_ZN3pcl15SurfelSmoothingINS_18PointWithViewpointENS_11PointNormalEEC2Ef@Base 1.6
 (optional=templinst)_ZN3pcl15SurfelSmoothingINS_18PointWithViewpointENS_11PointNormalEED0Ev@Base 1.6
 (optional=templinst)_ZN3pcl15SurfelSmoothingINS_18PointWithViewpointENS_11PointNormalEED1Ev@Base 1.6
 (optional=templinst)_ZN3pcl15SurfelSmoothingINS_18PointWithViewpointENS_11PointNormalEED2Ev@Base 1.6
 (optional=templinst)_ZN3pcl15SurfelSmoothingINS_18PointWithViewpointENS_15PointXYZINormalEE11initComputeEv@Base 1.6
 (optional=templinst)_ZN3pcl15SurfelSmoothingINS_18PointWithViewpointENS_15PointXYZINormalEE11smoothPointERmRS1_RS2_@Base 1.6
 (optional=templinst)_ZN3pcl15SurfelSmoothingINS_18PointWithViewpointENS_15PointXYZINormalEE15setInputNormalsERN5boost10shared_ptrINS_10PointCloudIS2_EEEE@Base 1.6
 (optional=templinst)_ZN3pcl15SurfelSmoothingINS_18PointWithViewpointENS_15PointXYZINormalEE15setSearchMethodERKN5boost10shared_ptrINS_6search6SearchIS1_EEEE@Base 1.6
 (optional=templinst)_ZN3pcl15SurfelSmoothingINS_18PointWithViewpointENS_15PointXYZINormalEE20computeSmoothedCloudERN5boost10shared_ptrINS_10PointCloudIS1_EEEERNS5_INS6_IS2_EEEE@Base 1.6
 (optional=templinst)_ZN3pcl15SurfelSmoothingINS_18PointWithViewpointENS_15PointXYZINormalEE20smoothCloudIterationERN5boost10shared_ptrINS_10PointCloudIS1_EEEERNS5_INS6_IS2_EEEE@Base 1.6
 (optional=templinst)_ZN3pcl15SurfelSmoothingINS_18PointWithViewpointENS_15PointXYZINormalEE35extractSalientFeaturesBetweenScalesERN5boost10shared_ptrINS_10PointCloudIS1_EEEERNS5_INS6_IS2_EEEERNS5_ISt6vectorIiSaIiEEEE@Base 1.6
 (optional=templinst)_ZN3pcl15SurfelSmoothingINS_18PointWithViewpointENS_15PointXYZINormalEEC1Ef@Base 1.6
 (optional=templinst)_ZN3pcl15SurfelSmoothingINS_18PointWithViewpointENS_15PointXYZINormalEEC2Ef@Base 1.6
 (optional=templinst)_ZN3pcl15SurfelSmoothingINS_18PointWithViewpointENS_15PointXYZINormalEED0Ev@Base 1.6
 (optional=templinst)_ZN3pcl15SurfelSmoothingINS_18PointWithViewpointENS_15PointXYZINormalEED1Ev@Base 1.6
 (optional=templinst)_ZN3pcl15SurfelSmoothingINS_18PointWithViewpointENS_15PointXYZINormalEED2Ev@Base 1.6
 (optional=templinst)_ZN3pcl15SurfelSmoothingINS_18PointWithViewpointENS_17PointXYZRGBNormalEE11initComputeEv@Base 1.6
 (optional=templinst)_ZN3pcl15SurfelSmoothingINS_18PointWithViewpointENS_17PointXYZRGBNormalEE11smoothPointERmRS1_RS2_@Base 1.6
 (optional=templinst)_ZN3pcl15SurfelSmoothingINS_18PointWithViewpointENS_17PointXYZRGBNormalEE15setInputNormalsERN5boost10shared_ptrINS_10PointCloudIS2_EEEE@Base 1.6
 (optional=templinst)_ZN3pcl15SurfelSmoothingINS_18PointWithViewpointENS_17PointXYZRGBNormalEE15setSearchMethodERKN5boost10shared_ptrINS_6search6SearchIS1_EEEE@Base 1.6
 (optional=templinst)_ZN3pcl15SurfelSmoothingINS_18PointWithViewpointENS_17PointXYZRGBNormalEE20computeSmoothedCloudERN5boost10shared_ptrINS_10PointCloudIS1_EEEERNS5_INS6_IS2_EEEE@Base 1.6
 (optional=templinst)_ZN3pcl15SurfelSmoothingINS_18PointWithViewpointENS_17PointXYZRGBNormalEE20smoothCloudIterationERN5boost10shared_ptrINS_10PointCloudIS1_EEEERNS5_INS6_IS2_EEEE@Base 1.6
 (optional=templinst)_ZN3pcl15SurfelSmoothingINS_18PointWithViewpointENS_17PointXYZRGBNormalEE35extractSalientFeaturesBetweenScalesERN5boost10shared_ptrINS_10PointCloudIS1_EEEERNS5_INS6_IS2_EEEERNS5_ISt6vectorIiSaIiEEEE@Base 1.6
 (optional=templinst)_ZN3pcl15SurfelSmoothingINS_18PointWithViewpointENS_17PointXYZRGBNormalEEC1Ef@Base 1.6
 (optional=templinst)_ZN3pcl15SurfelSmoothingINS_18PointWithViewpointENS_17PointXYZRGBNormalEEC2Ef@Base 1.6
 (optional=templinst)_ZN3pcl15SurfelSmoothingINS_18PointWithViewpointENS_17PointXYZRGBNormalEED0Ev@Base 1.6
 (optional=templinst)_ZN3pcl15SurfelSmoothingINS_18PointWithViewpointENS_17PointXYZRGBNormalEED1Ev@Base 1.6
 (optional=templinst)_ZN3pcl15SurfelSmoothingINS_18PointWithViewpointENS_17PointXYZRGBNormalEED2Ev@Base 1.6
 (optional=templinst)_ZN3pcl15SurfelSmoothingINS_18PointWithViewpointENS_6NormalEE11initComputeEv@Base 1.6
 (optional=templinst)_ZN3pcl15SurfelSmoothingINS_18PointWithViewpointENS_6NormalEE11smoothPointERmRS1_RS2_@Base 1.6
 (optional=templinst)_ZN3pcl15SurfelSmoothingINS_18PointWithViewpointENS_6NormalEE15setInputNormalsERN5boost10shared_ptrINS_10PointCloudIS2_EEEE@Base 1.6
 (optional=templinst)_ZN3pcl15SurfelSmoothingINS_18PointWithViewpointENS_6NormalEE15setSearchMethodERKN5boost10shared_ptrINS_6search6SearchIS1_EEEE@Base 1.6
 (optional=templinst)_ZN3pcl15SurfelSmoothingINS_18PointWithViewpointENS_6NormalEE20computeSmoothedCloudERN5boost10shared_ptrINS_10PointCloudIS1_EEEERNS5_INS6_IS2_EEEE@Base 1.6
 (optional=templinst)_ZN3pcl15SurfelSmoothingINS_18PointWithViewpointENS_6NormalEE20smoothCloudIterationERN5boost10shared_ptrINS_10PointCloudIS1_EEEERNS5_INS6_IS2_EEEE@Base 1.6
 (optional=templinst)_ZN3pcl15SurfelSmoothingINS_18PointWithViewpointENS_6NormalEE35extractSalientFeaturesBetweenScalesERN5boost10shared_ptrINS_10PointCloudIS1_EEEERNS5_INS6_IS2_EEEERNS5_ISt6vectorIiSaIiEEEE@Base 1.6
 (optional=templinst)_ZN3pcl15SurfelSmoothingINS_18PointWithViewpointENS_6NormalEEC1Ef@Base 1.6
 (optional=templinst)_ZN3pcl15SurfelSmoothingINS_18PointWithViewpointENS_6NormalEEC2Ef@Base 1.6
 (optional=templinst)_ZN3pcl15SurfelSmoothingINS_18PointWithViewpointENS_6NormalEED0Ev@Base 1.6
 (optional=templinst)_ZN3pcl15SurfelSmoothingINS_18PointWithViewpointENS_6NormalEED1Ev@Base 1.6
 (optional=templinst)_ZN3pcl15SurfelSmoothingINS_18PointWithViewpointENS_6NormalEED2Ev@Base 1.6
 (optional=templinst)_ZN3pcl15SurfelSmoothingINS_8PointXYZENS_11PointNormalEE11initComputeEv@Base 1.6
 (optional=templinst)_ZN3pcl15SurfelSmoothingINS_8PointXYZENS_11PointNormalEE11smoothPointERmRS1_RS2_@Base 1.6
 (optional=templinst)_ZN3pcl15SurfelSmoothingINS_8PointXYZENS_11PointNormalEE15setInputNormalsERN5boost10shared_ptrINS_10PointCloudIS2_EEEE@Base 1.6
 (optional=templinst)_ZN3pcl15SurfelSmoothingINS_8PointXYZENS_11PointNormalEE15setSearchMethodERKN5boost10shared_ptrINS_6search6SearchIS1_EEEE@Base 1.6
 (optional=templinst)_ZN3pcl15SurfelSmoothingINS_8PointXYZENS_11PointNormalEE20computeSmoothedCloudERN5boost10shared_ptrINS_10PointCloudIS1_EEEERNS5_INS6_IS2_EEEE@Base 1.6
 (optional=templinst)_ZN3pcl15SurfelSmoothingINS_8PointXYZENS_11PointNormalEE20smoothCloudIterationERN5boost10shared_ptrINS_10PointCloudIS1_EEEERNS5_INS6_IS2_EEEE@Base 1.6
 (optional=templinst)_ZN3pcl15SurfelSmoothingINS_8PointXYZENS_11PointNormalEE35extractSalientFeaturesBetweenScalesERN5boost10shared_ptrINS_10PointCloudIS1_EEEERNS5_INS6_IS2_EEEERNS5_ISt6vectorIiSaIiEEEE@Base 1.6
 (optional=templinst)_ZN3pcl15SurfelSmoothingINS_8PointXYZENS_11PointNormalEEC1Ef@Base 1.6
 (optional=templinst)_ZN3pcl15SurfelSmoothingINS_8PointXYZENS_11PointNormalEEC2Ef@Base 1.6
 (optional=templinst)_ZN3pcl15SurfelSmoothingINS_8PointXYZENS_11PointNormalEED0Ev@Base 1.6
 (optional=templinst)_ZN3pcl15SurfelSmoothingINS_8PointXYZENS_11PointNormalEED1Ev@Base 1.6
 (optional=templinst)_ZN3pcl15SurfelSmoothingINS_8PointXYZENS_11PointNormalEED2Ev@Base 1.6
 (optional=templinst)_ZN3pcl15SurfelSmoothingINS_8PointXYZENS_15PointXYZINormalEE11initComputeEv@Base 1.6
 (optional=templinst)_ZN3pcl15SurfelSmoothingINS_8PointXYZENS_15PointXYZINormalEE11smoothPointERmRS1_RS2_@Base 1.6
 (optional=templinst)_ZN3pcl15SurfelSmoothingINS_8PointXYZENS_15PointXYZINormalEE15setInputNormalsERN5boost10shared_ptrINS_10PointCloudIS2_EEEE@Base 1.6
 (optional=templinst)_ZN3pcl15SurfelSmoothingINS_8PointXYZENS_15PointXYZINormalEE15setSearchMethodERKN5boost10shared_ptrINS_6search6SearchIS1_EEEE@Base 1.6
 (optional=templinst)_ZN3pcl15SurfelSmoothingINS_8PointXYZENS_15PointXYZINormalEE20computeSmoothedCloudERN5boost10shared_ptrINS_10PointCloudIS1_EEEERNS5_INS6_IS2_EEEE@Base 1.6
 (optional=templinst)_ZN3pcl15SurfelSmoothingINS_8PointXYZENS_15PointXYZINormalEE20smoothCloudIterationERN5boost10shared_ptrINS_10PointCloudIS1_EEEERNS5_INS6_IS2_EEEE@Base 1.6
 (optional=templinst)_ZN3pcl15SurfelSmoothingINS_8PointXYZENS_15PointXYZINormalEE35extractSalientFeaturesBetweenScalesERN5boost10shared_ptrINS_10PointCloudIS1_EEEERNS5_INS6_IS2_EEEERNS5_ISt6vectorIiSaIiEEEE@Base 1.6
 (optional=templinst)_ZN3pcl15SurfelSmoothingINS_8PointXYZENS_15PointXYZINormalEEC1Ef@Base 1.6
 (optional=templinst)_ZN3pcl15SurfelSmoothingINS_8PointXYZENS_15PointXYZINormalEEC2Ef@Base 1.6
 (optional=templinst)_ZN3pcl15SurfelSmoothingINS_8PointXYZENS_15PointXYZINormalEED0Ev@Base 1.6
 (optional=templinst)_ZN3pcl15SurfelSmoothingINS_8PointXYZENS_15PointXYZINormalEED1Ev@Base 1.6
 (optional=templinst)_ZN3pcl15SurfelSmoothingINS_8PointXYZENS_15PointXYZINormalEED2Ev@Base 1.6
 (optional=templinst)_ZN3pcl15SurfelSmoothingINS_8PointXYZENS_17PointXYZRGBNormalEE11initComputeEv@Base 1.6
 (optional=templinst)_ZN3pcl15SurfelSmoothingINS_8PointXYZENS_17PointXYZRGBNormalEE11smoothPointERmRS1_RS2_@Base 1.6
 (optional=templinst)_ZN3pcl15SurfelSmoothingINS_8PointXYZENS_17PointXYZRGBNormalEE15setInputNormalsERN5boost10shared_ptrINS_10PointCloudIS2_EEEE@Base 1.6
 (optional=templinst)_ZN3pcl15SurfelSmoothingINS_8PointXYZENS_17PointXYZRGBNormalEE15setSearchMethodERKN5boost10shared_ptrINS_6search6SearchIS1_EEEE@Base 1.6
 (optional=templinst)_ZN3pcl15SurfelSmoothingINS_8PointXYZENS_17PointXYZRGBNormalEE20computeSmoothedCloudERN5boost10shared_ptrINS_10PointCloudIS1_EEEERNS5_INS6_IS2_EEEE@Base 1.6
 (optional=templinst)_ZN3pcl15SurfelSmoothingINS_8PointXYZENS_17PointXYZRGBNormalEE20smoothCloudIterationERN5boost10shared_ptrINS_10PointCloudIS1_EEEERNS5_INS6_IS2_EEEE@Base 1.6
 (optional=templinst)_ZN3pcl15SurfelSmoothingINS_8PointXYZENS_17PointXYZRGBNormalEE35extractSalientFeaturesBetweenScalesERN5boost10shared_ptrINS_10PointCloudIS1_EEEERNS5_INS6_IS2_EEEERNS5_ISt6vectorIiSaIiEEEE@Base 1.6
 (optional=templinst)_ZN3pcl15SurfelSmoothingINS_8PointXYZENS_17PointXYZRGBNormalEEC1Ef@Base 1.6
 (optional=templinst)_ZN3pcl15SurfelSmoothingINS_8PointXYZENS_17PointXYZRGBNormalEEC2Ef@Base 1.6
 (optional=templinst)_ZN3pcl15SurfelSmoothingINS_8PointXYZENS_17PointXYZRGBNormalEED0Ev@Base 1.6
 (optional=templinst)_ZN3pcl15SurfelSmoothingINS_8PointXYZENS_17PointXYZRGBNormalEED1Ev@Base 1.6
 (optional=templinst)_ZN3pcl15SurfelSmoothingINS_8PointXYZENS_17PointXYZRGBNormalEED2Ev@Base 1.6
 (optional=templinst)_ZN3pcl15SurfelSmoothingINS_8PointXYZENS_6NormalEE11initComputeEv@Base 1.6
 (optional=templinst)_ZN3pcl15SurfelSmoothingINS_8PointXYZENS_6NormalEE11smoothPointERmRS1_RS2_@Base 1.6
 (optional=templinst)_ZN3pcl15SurfelSmoothingINS_8PointXYZENS_6NormalEE15setInputNormalsERN5boost10shared_ptrINS_10PointCloudIS2_EEEE@Base 1.6
 (optional=templinst)_ZN3pcl15SurfelSmoothingINS_8PointXYZENS_6NormalEE15setSearchMethodERKN5boost10shared_ptrINS_6search6SearchIS1_EEEE@Base 1.6
 (optional=templinst)_ZN3pcl15SurfelSmoothingINS_8PointXYZENS_6NormalEE20computeSmoothedCloudERN5boost10shared_ptrINS_10PointCloudIS1_EEEERNS5_INS6_IS2_EEEE@Base 1.6
 (optional=templinst)_ZN3pcl15SurfelSmoothingINS_8PointXYZENS_6NormalEE20smoothCloudIterationERN5boost10shared_ptrINS_10PointCloudIS1_EEEERNS5_INS6_IS2_EEEE@Base 1.6
 (optional=templinst)_ZN3pcl15SurfelSmoothingINS_8PointXYZENS_6NormalEE35extractSalientFeaturesBetweenScalesERN5boost10shared_ptrINS_10PointCloudIS1_EEEERNS5_INS6_IS2_EEEERNS5_ISt6vectorIiSaIiEEEE@Base 1.6
 (optional=templinst)_ZN3pcl15SurfelSmoothingINS_8PointXYZENS_6NormalEEC1Ef@Base 1.6
 (optional=templinst)_ZN3pcl15SurfelSmoothingINS_8PointXYZENS_6NormalEEC2Ef@Base 1.6
 (optional=templinst)_ZN3pcl15SurfelSmoothingINS_8PointXYZENS_6NormalEED0Ev@Base 1.6
 (optional=templinst)_ZN3pcl15SurfelSmoothingINS_8PointXYZENS_6NormalEED1Ev@Base 1.6
 (optional=templinst)_ZN3pcl15SurfelSmoothingINS_8PointXYZENS_6NormalEED2Ev@Base 1.6
 (optional=templinst)_ZN3pcl15SurfelSmoothingINS_9PointXYZIENS_11PointNormalEE11initComputeEv@Base 1.6
 (optional=templinst)_ZN3pcl15SurfelSmoothingINS_9PointXYZIENS_11PointNormalEE11smoothPointERmRS1_RS2_@Base 1.6
 (optional=templinst)_ZN3pcl15SurfelSmoothingINS_9PointXYZIENS_11PointNormalEE15setInputNormalsERN5boost10shared_ptrINS_10PointCloudIS2_EEEE@Base 1.6
 (optional=templinst)_ZN3pcl15SurfelSmoothingINS_9PointXYZIENS_11PointNormalEE15setSearchMethodERKN5boost10shared_ptrINS_6search6SearchIS1_EEEE@Base 1.6
 (optional=templinst)_ZN3pcl15SurfelSmoothingINS_9PointXYZIENS_11PointNormalEE20computeSmoothedCloudERN5boost10shared_ptrINS_10PointCloudIS1_EEEERNS5_INS6_IS2_EEEE@Base 1.6
 (optional=templinst)_ZN3pcl15SurfelSmoothingINS_9PointXYZIENS_11PointNormalEE20smoothCloudIterationERN5boost10shared_ptrINS_10PointCloudIS1_EEEERNS5_INS6_IS2_EEEE@Base 1.6
 (optional=templinst)_ZN3pcl15SurfelSmoothingINS_9PointXYZIENS_11PointNormalEE35extractSalientFeaturesBetweenScalesERN5boost10shared_ptrINS_10PointCloudIS1_EEEERNS5_INS6_IS2_EEEERNS5_ISt6vectorIiSaIiEEEE@Base 1.6
 (optional=templinst)_ZN3pcl15SurfelSmoothingINS_9PointXYZIENS_11PointNormalEEC1Ef@Base 1.6
 (optional=templinst)_ZN3pcl15SurfelSmoothingINS_9PointXYZIENS_11PointNormalEEC2Ef@Base 1.6
 (optional=templinst)_ZN3pcl15SurfelSmoothingINS_9PointXYZIENS_11PointNormalEED0Ev@Base 1.6
 (optional=templinst)_ZN3pcl15SurfelSmoothingINS_9PointXYZIENS_11PointNormalEED1Ev@Base 1.6
 (optional=templinst)_ZN3pcl15SurfelSmoothingINS_9PointXYZIENS_11PointNormalEED2Ev@Base 1.6
 (optional=templinst)_ZN3pcl15SurfelSmoothingINS_9PointXYZIENS_15PointXYZINormalEE11initComputeEv@Base 1.6
 (optional=templinst)_ZN3pcl15SurfelSmoothingINS_9PointXYZIENS_15PointXYZINormalEE11smoothPointERmRS1_RS2_@Base 1.6
 (optional=templinst)_ZN3pcl15SurfelSmoothingINS_9PointXYZIENS_15PointXYZINormalEE15setInputNormalsERN5boost10shared_ptrINS_10PointCloudIS2_EEEE@Base 1.6
 (optional=templinst)_ZN3pcl15SurfelSmoothingINS_9PointXYZIENS_15PointXYZINormalEE15setSearchMethodERKN5boost10shared_ptrINS_6search6SearchIS1_EEEE@Base 1.6
 (optional=templinst)_ZN3pcl15SurfelSmoothingINS_9PointXYZIENS_15PointXYZINormalEE20computeSmoothedCloudERN5boost10shared_ptrINS_10PointCloudIS1_EEEERNS5_INS6_IS2_EEEE@Base 1.6
 (optional=templinst)_ZN3pcl15SurfelSmoothingINS_9PointXYZIENS_15PointXYZINormalEE20smoothCloudIterationERN5boost10shared_ptrINS_10PointCloudIS1_EEEERNS5_INS6_IS2_EEEE@Base 1.6
 (optional=templinst)_ZN3pcl15SurfelSmoothingINS_9PointXYZIENS_15PointXYZINormalEE35extractSalientFeaturesBetweenScalesERN5boost10shared_ptrINS_10PointCloudIS1_EEEERNS5_INS6_IS2_EEEERNS5_ISt6vectorIiSaIiEEEE@Base 1.6
 (optional=templinst)_ZN3pcl15SurfelSmoothingINS_9PointXYZIENS_15PointXYZINormalEEC1Ef@Base 1.6
 (optional=templinst)_ZN3pcl15SurfelSmoothingINS_9PointXYZIENS_15PointXYZINormalEEC2Ef@Base 1.6
 (optional=templinst)_ZN3pcl15SurfelSmoothingINS_9PointXYZIENS_15PointXYZINormalEED0Ev@Base 1.6
 (optional=templinst)_ZN3pcl15SurfelSmoothingINS_9PointXYZIENS_15PointXYZINormalEED1Ev@Base 1.6
 (optional=templinst)_ZN3pcl15SurfelSmoothingINS_9PointXYZIENS_15PointXYZINormalEED2Ev@Base 1.6
 (optional=templinst)_ZN3pcl15SurfelSmoothingINS_9PointXYZIENS_17PointXYZRGBNormalEE11initComputeEv@Base 1.6
 (optional=templinst)_ZN3pcl15SurfelSmoothingINS_9PointXYZIENS_17PointXYZRGBNormalEE11smoothPointERmRS1_RS2_@Base 1.6
 (optional=templinst)_ZN3pcl15SurfelSmoothingINS_9PointXYZIENS_17PointXYZRGBNormalEE15setInputNormalsERN5boost10shared_ptrINS_10PointCloudIS2_EEEE@Base 1.6
 (optional=templinst)_ZN3pcl15SurfelSmoothingINS_9PointXYZIENS_17PointXYZRGBNormalEE15setSearchMethodERKN5boost10shared_ptrINS_6search6SearchIS1_EEEE@Base 1.6
 (optional=templinst)_ZN3pcl15SurfelSmoothingINS_9PointXYZIENS_17PointXYZRGBNormalEE20computeSmoothedCloudERN5boost10shared_ptrINS_10PointCloudIS1_EEEERNS5_INS6_IS2_EEEE@Base 1.6
 (optional=templinst)_ZN3pcl15SurfelSmoothingINS_9PointXYZIENS_17PointXYZRGBNormalEE20smoothCloudIterationERN5boost10shared_ptrINS_10PointCloudIS1_EEEERNS5_INS6_IS2_EEEE@Base 1.6
 (optional=templinst)_ZN3pcl15SurfelSmoothingINS_9PointXYZIENS_17PointXYZRGBNormalEE35extractSalientFeaturesBetweenScalesERN5boost10shared_ptrINS_10PointCloudIS1_EEEERNS5_INS6_IS2_EEEERNS5_ISt6vectorIiSaIiEEEE@Base 1.6
 (optional=templinst)_ZN3pcl15SurfelSmoothingINS_9PointXYZIENS_17PointXYZRGBNormalEEC1Ef@Base 1.6
 (optional=templinst)_ZN3pcl15SurfelSmoothingINS_9PointXYZIENS_17PointXYZRGBNormalEEC2Ef@Base 1.6
 (optional=templinst)_ZN3pcl15SurfelSmoothingINS_9PointXYZIENS_17PointXYZRGBNormalEED0Ev@Base 1.6
 (optional=templinst)_ZN3pcl15SurfelSmoothingINS_9PointXYZIENS_17PointXYZRGBNormalEED1Ev@Base 1.6
 (optional=templinst)_ZN3pcl15SurfelSmoothingINS_9PointXYZIENS_17PointXYZRGBNormalEED2Ev@Base 1.6
 (optional=templinst)_ZN3pcl15SurfelSmoothingINS_9PointXYZIENS_6NormalEE11initComputeEv@Base 1.6
 (optional=templinst)_ZN3pcl15SurfelSmoothingINS_9PointXYZIENS_6NormalEE11smoothPointERmRS1_RS2_@Base 1.6
 (optional=templinst)_ZN3pcl15SurfelSmoothingINS_9PointXYZIENS_6NormalEE15setInputNormalsERN5boost10shared_ptrINS_10PointCloudIS2_EEEE@Base 1.6
 (optional=templinst)_ZN3pcl15SurfelSmoothingINS_9PointXYZIENS_6NormalEE15setSearchMethodERKN5boost10shared_ptrINS_6search6SearchIS1_EEEE@Base 1.6
 (optional=templinst)_ZN3pcl15SurfelSmoothingINS_9PointXYZIENS_6NormalEE20computeSmoothedCloudERN5boost10shared_ptrINS_10PointCloudIS1_EEEERNS5_INS6_IS2_EEEE@Base 1.6
 (optional=templinst)_ZN3pcl15SurfelSmoothingINS_9PointXYZIENS_6NormalEE20smoothCloudIterationERN5boost10shared_ptrINS_10PointCloudIS1_EEEERNS5_INS6_IS2_EEEE@Base 1.6
 (optional=templinst)_ZN3pcl15SurfelSmoothingINS_9PointXYZIENS_6NormalEE35extractSalientFeaturesBetweenScalesERN5boost10shared_ptrINS_10PointCloudIS1_EEEERNS5_INS6_IS2_EEEERNS5_ISt6vectorIiSaIiEEEE@Base 1.6
 (optional=templinst)_ZN3pcl15SurfelSmoothingINS_9PointXYZIENS_6NormalEEC1Ef@Base 1.6
 (optional=templinst)_ZN3pcl15SurfelSmoothingINS_9PointXYZIENS_6NormalEEC2Ef@Base 1.6
 (optional=templinst)_ZN3pcl15SurfelSmoothingINS_9PointXYZIENS_6NormalEED0Ev@Base 1.6
 (optional=templinst)_ZN3pcl15SurfelSmoothingINS_9PointXYZIENS_6NormalEED1Ev@Base 1.6
 (optional=templinst)_ZN3pcl15SurfelSmoothingINS_9PointXYZIENS_6NormalEED2Ev@Base 1.6
 (optional=templinst)_ZN3pcl15SurfelSmoothingINS_9PointXYZLENS_11PointNormalEE11initComputeEv@Base 1.6
 (optional=templinst)_ZN3pcl15SurfelSmoothingINS_9PointXYZLENS_11PointNormalEE11smoothPointERmRS1_RS2_@Base 1.6
 (optional=templinst)_ZN3pcl15SurfelSmoothingINS_9PointXYZLENS_11PointNormalEE15setInputNormalsERN5boost10shared_ptrINS_10PointCloudIS2_EEEE@Base 1.6
 (optional=templinst)_ZN3pcl15SurfelSmoothingINS_9PointXYZLENS_11PointNormalEE15setSearchMethodERKN5boost10shared_ptrINS_6search6SearchIS1_EEEE@Base 1.6
 (optional=templinst)_ZN3pcl15SurfelSmoothingINS_9PointXYZLENS_11PointNormalEE20computeSmoothedCloudERN5boost10shared_ptrINS_10PointCloudIS1_EEEERNS5_INS6_IS2_EEEE@Base 1.6
 (optional=templinst)_ZN3pcl15SurfelSmoothingINS_9PointXYZLENS_11PointNormalEE20smoothCloudIterationERN5boost10shared_ptrINS_10PointCloudIS1_EEEERNS5_INS6_IS2_EEEE@Base 1.6
 (optional=templinst)_ZN3pcl15SurfelSmoothingINS_9PointXYZLENS_11PointNormalEE35extractSalientFeaturesBetweenScalesERN5boost10shared_ptrINS_10PointCloudIS1_EEEERNS5_INS6_IS2_EEEERNS5_ISt6vectorIiSaIiEEEE@Base 1.6
 (optional=templinst)_ZN3pcl15SurfelSmoothingINS_9PointXYZLENS_11PointNormalEEC1Ef@Base 1.6
 (optional=templinst)_ZN3pcl15SurfelSmoothingINS_9PointXYZLENS_11PointNormalEEC2Ef@Base 1.6
 (optional=templinst)_ZN3pcl15SurfelSmoothingINS_9PointXYZLENS_11PointNormalEED0Ev@Base 1.6
 (optional=templinst)_ZN3pcl15SurfelSmoothingINS_9PointXYZLENS_11PointNormalEED1Ev@Base 1.6
 (optional=templinst)_ZN3pcl15SurfelSmoothingINS_9PointXYZLENS_11PointNormalEED2Ev@Base 1.6
 (optional=templinst)_ZN3pcl15SurfelSmoothingINS_9PointXYZLENS_15PointXYZINormalEE11initComputeEv@Base 1.6
 (optional=templinst)_ZN3pcl15SurfelSmoothingINS_9PointXYZLENS_15PointXYZINormalEE11smoothPointERmRS1_RS2_@Base 1.6
 (optional=templinst)_ZN3pcl15SurfelSmoothingINS_9PointXYZLENS_15PointXYZINormalEE15setInputNormalsERN5boost10shared_ptrINS_10PointCloudIS2_EEEE@Base 1.6
 (optional=templinst)_ZN3pcl15SurfelSmoothingINS_9PointXYZLENS_15PointXYZINormalEE15setSearchMethodERKN5boost10shared_ptrINS_6search6SearchIS1_EEEE@Base 1.6
 (optional=templinst)_ZN3pcl15SurfelSmoothingINS_9PointXYZLENS_15PointXYZINormalEE20computeSmoothedCloudERN5boost10shared_ptrINS_10PointCloudIS1_EEEERNS5_INS6_IS2_EEEE@Base 1.6
 (optional=templinst)_ZN3pcl15SurfelSmoothingINS_9PointXYZLENS_15PointXYZINormalEE20smoothCloudIterationERN5boost10shared_ptrINS_10PointCloudIS1_EEEERNS5_INS6_IS2_EEEE@Base 1.6
 (optional=templinst)_ZN3pcl15SurfelSmoothingINS_9PointXYZLENS_15PointXYZINormalEE35extractSalientFeaturesBetweenScalesERN5boost10shared_ptrINS_10PointCloudIS1_EEEERNS5_INS6_IS2_EEEERNS5_ISt6vectorIiSaIiEEEE@Base 1.6
 (optional=templinst)_ZN3pcl15SurfelSmoothingINS_9PointXYZLENS_15PointXYZINormalEEC1Ef@Base 1.6
 (optional=templinst)_ZN3pcl15SurfelSmoothingINS_9PointXYZLENS_15PointXYZINormalEEC2Ef@Base 1.6
 (optional=templinst)_ZN3pcl15SurfelSmoothingINS_9PointXYZLENS_15PointXYZINormalEED0Ev@Base 1.6
 (optional=templinst)_ZN3pcl15SurfelSmoothingINS_9PointXYZLENS_15PointXYZINormalEED1Ev@Base 1.6
 (optional=templinst)_ZN3pcl15SurfelSmoothingINS_9PointXYZLENS_15PointXYZINormalEED2Ev@Base 1.6
 (optional=templinst)_ZN3pcl15SurfelSmoothingINS_9PointXYZLENS_17PointXYZRGBNormalEE11initComputeEv@Base 1.6
 (optional=templinst)_ZN3pcl15SurfelSmoothingINS_9PointXYZLENS_17PointXYZRGBNormalEE11smoothPointERmRS1_RS2_@Base 1.6
 (optional=templinst)_ZN3pcl15SurfelSmoothingINS_9PointXYZLENS_17PointXYZRGBNormalEE15setInputNormalsERN5boost10shared_ptrINS_10PointCloudIS2_EEEE@Base 1.6
 (optional=templinst)_ZN3pcl15SurfelSmoothingINS_9PointXYZLENS_17PointXYZRGBNormalEE15setSearchMethodERKN5boost10shared_ptrINS_6search6SearchIS1_EEEE@Base 1.6
 (optional=templinst)_ZN3pcl15SurfelSmoothingINS_9PointXYZLENS_17PointXYZRGBNormalEE20computeSmoothedCloudERN5boost10shared_ptrINS_10PointCloudIS1_EEEERNS5_INS6_IS2_EEEE@Base 1.6
 (optional=templinst)_ZN3pcl15SurfelSmoothingINS_9PointXYZLENS_17PointXYZRGBNormalEE20smoothCloudIterationERN5boost10shared_ptrINS_10PointCloudIS1_EEEERNS5_INS6_IS2_EEEE@Base 1.6
 (optional=templinst)_ZN3pcl15SurfelSmoothingINS_9PointXYZLENS_17PointXYZRGBNormalEE35extractSalientFeaturesBetweenScalesERN5boost10shared_ptrINS_10PointCloudIS1_EEEERNS5_INS6_IS2_EEEERNS5_ISt6vectorIiSaIiEEEE@Base 1.6
 (optional=templinst)_ZN3pcl15SurfelSmoothingINS_9PointXYZLENS_17PointXYZRGBNormalEEC1Ef@Base 1.6
 (optional=templinst)_ZN3pcl15SurfelSmoothingINS_9PointXYZLENS_17PointXYZRGBNormalEEC2Ef@Base 1.6
 (optional=templinst)_ZN3pcl15SurfelSmoothingINS_9PointXYZLENS_17PointXYZRGBNormalEED0Ev@Base 1.6
 (optional=templinst)_ZN3pcl15SurfelSmoothingINS_9PointXYZLENS_17PointXYZRGBNormalEED1Ev@Base 1.6
 (optional=templinst)_ZN3pcl15SurfelSmoothingINS_9PointXYZLENS_17PointXYZRGBNormalEED2Ev@Base 1.6
 (optional=templinst)_ZN3pcl15SurfelSmoothingINS_9PointXYZLENS_6NormalEE11initComputeEv@Base 1.6
 (optional=templinst)_ZN3pcl15SurfelSmoothingINS_9PointXYZLENS_6NormalEE11smoothPointERmRS1_RS2_@Base 1.6
 (optional=templinst)_ZN3pcl15SurfelSmoothingINS_9PointXYZLENS_6NormalEE15setInputNormalsERN5boost10shared_ptrINS_10PointCloudIS2_EEEE@Base 1.6
 (optional=templinst)_ZN3pcl15SurfelSmoothingINS_9PointXYZLENS_6NormalEE15setSearchMethodERKN5boost10shared_ptrINS_6search6SearchIS1_EEEE@Base 1.6
 (optional=templinst)_ZN3pcl15SurfelSmoothingINS_9PointXYZLENS_6NormalEE20computeSmoothedCloudERN5boost10shared_ptrINS_10PointCloudIS1_EEEERNS5_INS6_IS2_EEEE@Base 1.6
 (optional=templinst)_ZN3pcl15SurfelSmoothingINS_9PointXYZLENS_6NormalEE20smoothCloudIterationERN5boost10shared_ptrINS_10PointCloudIS1_EEEERNS5_INS6_IS2_EEEE@Base 1.6
 (optional=templinst)_ZN3pcl15SurfelSmoothingINS_9PointXYZLENS_6NormalEE35extractSalientFeaturesBetweenScalesERN5boost10shared_ptrINS_10PointCloudIS1_EEEERNS5_INS6_IS2_EEEERNS5_ISt6vectorIiSaIiEEEE@Base 1.6
 (optional=templinst)_ZN3pcl15SurfelSmoothingINS_9PointXYZLENS_6NormalEEC1Ef@Base 1.6
 (optional=templinst)_ZN3pcl15SurfelSmoothingINS_9PointXYZLENS_6NormalEEC2Ef@Base 1.6
 (optional=templinst)_ZN3pcl15SurfelSmoothingINS_9PointXYZLENS_6NormalEED0Ev@Base 1.6
 (optional=templinst)_ZN3pcl15SurfelSmoothingINS_9PointXYZLENS_6NormalEED1Ev@Base 1.6
 (optional=templinst)_ZN3pcl15SurfelSmoothingINS_9PointXYZLENS_6NormalEED2Ev@Base 1.6
 _ZN3pcl15comparePoints2DERKSt4pairIiN5Eigen6MatrixIfLi4ELi1ELi0ELi4ELi1EEEES6_@Base 1.6
 (optional=templinst)_ZN3pcl16MarchingCubesRBFINS_11PointNormalEE12voxelizeDataEv@Base 1.6
 (optional=templinst)_ZN3pcl16MarchingCubesRBFINS_11PointNormalEE25getOffSurfaceDisplacementEv@Base 1.6
 (optional=templinst)_ZN3pcl16MarchingCubesRBFINS_11PointNormalEE25setOffSurfaceDisplacementEf@Base 1.6
 (optional=templinst)_ZN3pcl16MarchingCubesRBFINS_11PointNormalEE6kernelEN5Eigen6MatrixIdLi3ELi1ELi0ELi3ELi1EEES5_@Base 1.6
 (optional=templinst)_ZN3pcl16MarchingCubesRBFINS_11PointNormalEEC1Ev@Base 1.6
 (optional=templinst)_ZN3pcl16MarchingCubesRBFINS_11PointNormalEEC2Ev@Base 1.6
 (optional=templinst)_ZN3pcl16MarchingCubesRBFINS_11PointNormalEED0Ev@Base 1.6
 (optional=templinst)_ZN3pcl16MarchingCubesRBFINS_11PointNormalEED1Ev@Base 1.6
 (optional=templinst)_ZN3pcl16MarchingCubesRBFINS_11PointNormalEED2Ev@Base 1.6
 _ZN3pcl16MarchingCubesRBFINS_11PointNormalEEdaEPv@Base 1.6
 _ZN3pcl16MarchingCubesRBFINS_11PointNormalEEdlEPv@Base 1.6
 _ZN3pcl16MarchingCubesRBFINS_11PointNormalEEdlEPvRKSt9nothrow_t@Base 1.6
 _ZN3pcl16MarchingCubesRBFINS_11PointNormalEEdlEPvS3_@Base 1.6
 _ZN3pcl16MarchingCubesRBFINS_11PointNormalEEnaEm@Base 1.6
 _ZN3pcl16MarchingCubesRBFINS_11PointNormalEEnwEm@Base 1.6
 _ZN3pcl16MarchingCubesRBFINS_11PointNormalEEnwEmPv@Base 1.6
 _ZN3pcl16MarchingCubesRBFINS_11PointNormalEEnwEmRKSt9nothrow_t@Base 1.6
 (optional=templinst)_ZN3pcl16MarchingCubesRBFINS_15PointXYZINormalEE12voxelizeDataEv@Base 1.6
 (optional=templinst)_ZN3pcl16MarchingCubesRBFINS_15PointXYZINormalEE25getOffSurfaceDisplacementEv@Base 1.6
 (optional=templinst)_ZN3pcl16MarchingCubesRBFINS_15PointXYZINormalEE25setOffSurfaceDisplacementEf@Base 1.6
 (optional=templinst)_ZN3pcl16MarchingCubesRBFINS_15PointXYZINormalEE6kernelEN5Eigen6MatrixIdLi3ELi1ELi0ELi3ELi1EEES5_@Base 1.6
 (optional=templinst)_ZN3pcl16MarchingCubesRBFINS_15PointXYZINormalEEC1Ev@Base 1.6
 (optional=templinst)_ZN3pcl16MarchingCubesRBFINS_15PointXYZINormalEEC2Ev@Base 1.6
 (optional=templinst)_ZN3pcl16MarchingCubesRBFINS_15PointXYZINormalEED0Ev@Base 1.6
 (optional=templinst)_ZN3pcl16MarchingCubesRBFINS_15PointXYZINormalEED1Ev@Base 1.6
 (optional=templinst)_ZN3pcl16MarchingCubesRBFINS_15PointXYZINormalEED2Ev@Base 1.6
 _ZN3pcl16MarchingCubesRBFINS_15PointXYZINormalEEdaEPv@Base 1.6
 _ZN3pcl16MarchingCubesRBFINS_15PointXYZINormalEEdlEPv@Base 1.6
 _ZN3pcl16MarchingCubesRBFINS_15PointXYZINormalEEdlEPvRKSt9nothrow_t@Base 1.6
 _ZN3pcl16MarchingCubesRBFINS_15PointXYZINormalEEdlEPvS3_@Base 1.6
 _ZN3pcl16MarchingCubesRBFINS_15PointXYZINormalEEnaEm@Base 1.6
 _ZN3pcl16MarchingCubesRBFINS_15PointXYZINormalEEnwEm@Base 1.6
 _ZN3pcl16MarchingCubesRBFINS_15PointXYZINormalEEnwEmPv@Base 1.6
 _ZN3pcl16MarchingCubesRBFINS_15PointXYZINormalEEnwEmRKSt9nothrow_t@Base 1.6
 (optional=templinst)_ZN3pcl16MarchingCubesRBFINS_17PointXYZRGBNormalEE12voxelizeDataEv@Base 1.6
 (optional=templinst)_ZN3pcl16MarchingCubesRBFINS_17PointXYZRGBNormalEE25getOffSurfaceDisplacementEv@Base 1.6
 (optional=templinst)_ZN3pcl16MarchingCubesRBFINS_17PointXYZRGBNormalEE25setOffSurfaceDisplacementEf@Base 1.6
 (optional=templinst)_ZN3pcl16MarchingCubesRBFINS_17PointXYZRGBNormalEE6kernelEN5Eigen6MatrixIdLi3ELi1ELi0ELi3ELi1EEES5_@Base 1.6
 (optional=templinst)_ZN3pcl16MarchingCubesRBFINS_17PointXYZRGBNormalEEC1Ev@Base 1.6
 (optional=templinst)_ZN3pcl16MarchingCubesRBFINS_17PointXYZRGBNormalEEC2Ev@Base 1.6
 (optional=templinst)_ZN3pcl16MarchingCubesRBFINS_17PointXYZRGBNormalEED0Ev@Base 1.6
 (optional=templinst)_ZN3pcl16MarchingCubesRBFINS_17PointXYZRGBNormalEED1Ev@Base 1.6
 (optional=templinst)_ZN3pcl16MarchingCubesRBFINS_17PointXYZRGBNormalEED2Ev@Base 1.6
 _ZN3pcl16MarchingCubesRBFINS_17PointXYZRGBNormalEEdaEPv@Base 1.6
 _ZN3pcl16MarchingCubesRBFINS_17PointXYZRGBNormalEEdlEPv@Base 1.6
 _ZN3pcl16MarchingCubesRBFINS_17PointXYZRGBNormalEEdlEPvRKSt9nothrow_t@Base 1.6
 _ZN3pcl16MarchingCubesRBFINS_17PointXYZRGBNormalEEdlEPvS3_@Base 1.6
 _ZN3pcl16MarchingCubesRBFINS_17PointXYZRGBNormalEEnaEm@Base 1.6
 _ZN3pcl16MarchingCubesRBFINS_17PointXYZRGBNormalEEnwEm@Base 1.6
 _ZN3pcl16MarchingCubesRBFINS_17PointXYZRGBNormalEEnwEmPv@Base 1.6
 _ZN3pcl16MarchingCubesRBFINS_17PointXYZRGBNormalEEnwEmRKSt9nothrow_t@Base 1.6
 (optional=templinst)_ZN3pcl16MeshConstructionINS_11PointNormalEE11reconstructERNS_11PolygonMeshE@Base 1.6
 (optional=templinst)_ZN3pcl16MeshConstructionINS_11PointNormalEE11reconstructERSt6vectorINS_8VerticesESaIS4_EE@Base 1.6
 (optional=templinst)_ZN3pcl16MeshConstructionINS_11PointNormalEED0Ev@Base 1.6
 (optional=templinst)_ZN3pcl16MeshConstructionINS_11PointNormalEED1Ev@Base 1.6
 (optional=templinst)_ZN3pcl16MeshConstructionINS_11PointNormalEED2Ev@Base 1.6
 (optional=templinst)_ZN3pcl16MeshConstructionINS_11PointXYZHSVEE11reconstructERNS_11PolygonMeshE@Base 1.6
 (optional=templinst)_ZN3pcl16MeshConstructionINS_11PointXYZHSVEE11reconstructERSt6vectorINS_8VerticesESaIS4_EE@Base 1.6
 (optional=templinst)_ZN3pcl16MeshConstructionINS_11PointXYZHSVEED0Ev@Base 1.6
 (optional=templinst)_ZN3pcl16MeshConstructionINS_11PointXYZHSVEED1Ev@Base 1.6
 (optional=templinst)_ZN3pcl16MeshConstructionINS_11PointXYZHSVEED2Ev@Base 1.6
 (optional=templinst)_ZN3pcl16MeshConstructionINS_11PointXYZRGBEE11reconstructERNS_11PolygonMeshE@Base 1.6
 (optional=templinst)_ZN3pcl16MeshConstructionINS_11PointXYZRGBEE11reconstructERSt6vectorINS_8VerticesESaIS4_EE@Base 1.6
 (optional=templinst)_ZN3pcl16MeshConstructionINS_11PointXYZRGBEED0Ev@Base 1.6
 (optional=templinst)_ZN3pcl16MeshConstructionINS_11PointXYZRGBEED1Ev@Base 1.6
 (optional=templinst)_ZN3pcl16MeshConstructionINS_11PointXYZRGBEED2Ev@Base 1.6
 (optional=templinst)_ZN3pcl16MeshConstructionINS_12PointXYZRGBAEE11reconstructERNS_11PolygonMeshE@Base 1.6
 (optional=templinst)_ZN3pcl16MeshConstructionINS_12PointXYZRGBAEE11reconstructERSt6vectorINS_8VerticesESaIS4_EE@Base 1.6
 (optional=templinst)_ZN3pcl16MeshConstructionINS_12PointXYZRGBAEED0Ev@Base 1.6
 (optional=templinst)_ZN3pcl16MeshConstructionINS_12PointXYZRGBAEED1Ev@Base 1.6
 (optional=templinst)_ZN3pcl16MeshConstructionINS_12PointXYZRGBAEED2Ev@Base 1.6
 (optional=templinst)_ZN3pcl16MeshConstructionINS_12PointXYZRGBLEE11reconstructERNS_11PolygonMeshE@Base 1.6
 (optional=templinst)_ZN3pcl16MeshConstructionINS_12PointXYZRGBLEE11reconstructERSt6vectorINS_8VerticesESaIS4_EE@Base 1.6
 (optional=templinst)_ZN3pcl16MeshConstructionINS_12PointXYZRGBLEED0Ev@Base 1.6
 (optional=templinst)_ZN3pcl16MeshConstructionINS_12PointXYZRGBLEED1Ev@Base 1.6
 (optional=templinst)_ZN3pcl16MeshConstructionINS_12PointXYZRGBLEED2Ev@Base 1.6
 (optional=templinst)_ZN3pcl16MeshConstructionINS_13InterestPointEE11reconstructERNS_11PolygonMeshE@Base 1.6
 (optional=templinst)_ZN3pcl16MeshConstructionINS_13InterestPointEE11reconstructERSt6vectorINS_8VerticesESaIS4_EE@Base 1.6
 (optional=templinst)_ZN3pcl16MeshConstructionINS_13InterestPointEED0Ev@Base 1.6
 (optional=templinst)_ZN3pcl16MeshConstructionINS_13InterestPointEED1Ev@Base 1.6
 (optional=templinst)_ZN3pcl16MeshConstructionINS_13InterestPointEED2Ev@Base 1.6
 (optional=templinst)_ZN3pcl16MeshConstructionINS_14PointWithRangeEE11reconstructERNS_11PolygonMeshE@Base 1.6
 (optional=templinst)_ZN3pcl16MeshConstructionINS_14PointWithRangeEE11reconstructERSt6vectorINS_8VerticesESaIS4_EE@Base 1.6
 (optional=templinst)_ZN3pcl16MeshConstructionINS_14PointWithRangeEED0Ev@Base 1.6
 (optional=templinst)_ZN3pcl16MeshConstructionINS_14PointWithRangeEED1Ev@Base 1.6
 (optional=templinst)_ZN3pcl16MeshConstructionINS_14PointWithRangeEED2Ev@Base 1.6
 (optional=templinst)_ZN3pcl16MeshConstructionINS_14PointWithScaleEE11reconstructERNS_11PolygonMeshE@Base 1.6
 (optional=templinst)_ZN3pcl16MeshConstructionINS_14PointWithScaleEE11reconstructERSt6vectorINS_8VerticesESaIS4_EE@Base 1.6
 (optional=templinst)_ZN3pcl16MeshConstructionINS_14PointWithScaleEED0Ev@Base 1.6
 (optional=templinst)_ZN3pcl16MeshConstructionINS_14PointWithScaleEED1Ev@Base 1.6
 (optional=templinst)_ZN3pcl16MeshConstructionINS_14PointWithScaleEED2Ev@Base 1.6
 (optional=templinst)_ZN3pcl16MeshConstructionINS_15PointXYZINormalEE11reconstructERNS_11PolygonMeshE@Base 1.6
 (optional=templinst)_ZN3pcl16MeshConstructionINS_15PointXYZINormalEE11reconstructERSt6vectorINS_8VerticesESaIS4_EE@Base 1.6
 (optional=templinst)_ZN3pcl16MeshConstructionINS_15PointXYZINormalEED0Ev@Base 1.6
 (optional=templinst)_ZN3pcl16MeshConstructionINS_15PointXYZINormalEED1Ev@Base 1.6
 (optional=templinst)_ZN3pcl16MeshConstructionINS_15PointXYZINormalEED2Ev@Base 1.6
 (optional=templinst)_ZN3pcl16MeshConstructionINS_17PointXYZRGBNormalEE11reconstructERNS_11PolygonMeshE@Base 1.6
 (optional=templinst)_ZN3pcl16MeshConstructionINS_17PointXYZRGBNormalEE11reconstructERSt6vectorINS_8VerticesESaIS4_EE@Base 1.6
 (optional=templinst)_ZN3pcl16MeshConstructionINS_17PointXYZRGBNormalEED0Ev@Base 1.6
 (optional=templinst)_ZN3pcl16MeshConstructionINS_17PointXYZRGBNormalEED1Ev@Base 1.6
 (optional=templinst)_ZN3pcl16MeshConstructionINS_17PointXYZRGBNormalEED2Ev@Base 1.6
 (optional=templinst)_ZN3pcl16MeshConstructionINS_18PointWithViewpointEE11reconstructERNS_11PolygonMeshE@Base 1.6
 (optional=templinst)_ZN3pcl16MeshConstructionINS_18PointWithViewpointEE11reconstructERSt6vectorINS_8VerticesESaIS4_EE@Base 1.6
 (optional=templinst)_ZN3pcl16MeshConstructionINS_18PointWithViewpointEED0Ev@Base 1.6
 (optional=templinst)_ZN3pcl16MeshConstructionINS_18PointWithViewpointEED1Ev@Base 1.6
 (optional=templinst)_ZN3pcl16MeshConstructionINS_18PointWithViewpointEED2Ev@Base 1.6
 (optional=templinst)_ZN3pcl16MeshConstructionINS_8PointXYZEE11reconstructERNS_11PolygonMeshE@Base 1.6
 (optional=templinst)_ZN3pcl16MeshConstructionINS_8PointXYZEE11reconstructERSt6vectorINS_8VerticesESaIS4_EE@Base 1.6
 (optional=templinst)_ZN3pcl16MeshConstructionINS_8PointXYZEED0Ev@Base 1.6
 (optional=templinst)_ZN3pcl16MeshConstructionINS_8PointXYZEED1Ev@Base 1.6
 (optional=templinst)_ZN3pcl16MeshConstructionINS_8PointXYZEED2Ev@Base 1.6
 (optional=templinst)_ZN3pcl16MeshConstructionINS_9PointXYZIEE11reconstructERNS_11PolygonMeshE@Base 1.6
 (optional=templinst)_ZN3pcl16MeshConstructionINS_9PointXYZIEE11reconstructERSt6vectorINS_8VerticesESaIS4_EE@Base 1.6
 (optional=templinst)_ZN3pcl16MeshConstructionINS_9PointXYZIEED0Ev@Base 1.6
 (optional=templinst)_ZN3pcl16MeshConstructionINS_9PointXYZIEED1Ev@Base 1.6
 (optional=templinst)_ZN3pcl16MeshConstructionINS_9PointXYZIEED2Ev@Base 1.6
 (optional=templinst)_ZN3pcl16MeshConstructionINS_9PointXYZLEE11reconstructERNS_11PolygonMeshE@Base 1.6
 (optional=templinst)_ZN3pcl16MeshConstructionINS_9PointXYZLEE11reconstructERSt6vectorINS_8VerticesESaIS4_EE@Base 1.6
 (optional=templinst)_ZN3pcl16MeshConstructionINS_9PointXYZLEED0Ev@Base 1.6
 (optional=templinst)_ZN3pcl16MeshConstructionINS_9PointXYZLEED1Ev@Base 1.6
 (optional=templinst)_ZN3pcl16MeshConstructionINS_9PointXYZLEED2Ev@Base 1.6
 (optional=templinst)_ZN3pcl16demeanPointCloudINS_11PointNormalEEEvRKNS_10PointCloudIT_EERKN5Eigen6MatrixIfLi4ELi1ELi0ELi4ELi1EEERS4_@Base 1.6
 (optional=templinst)_ZN3pcl16demeanPointCloudINS_11PointNormalEEEvRKNS_10PointCloudIT_EERKSt6vectorIiSaIiEERKN5Eigen6MatrixIfLi4ELi1ELi0ELi4ELi1EEERS4_@Base 1.6
 (optional=templinst)_ZN3pcl16demeanPointCloudINS_11PointXYZHSVEEEvRKNS_10PointCloudIT_EERKN5Eigen6MatrixIfLi4ELi1ELi0ELi4ELi1EEERS4_@Base 1.6
 (optional=templinst)_ZN3pcl16demeanPointCloudINS_11PointXYZHSVEEEvRKNS_10PointCloudIT_EERKSt6vectorIiSaIiEERKN5Eigen6MatrixIfLi4ELi1ELi0ELi4ELi1EEERS4_@Base 1.6
 (optional=templinst)_ZN3pcl16demeanPointCloudINS_11PointXYZRGBEEEvRKNS_10PointCloudIT_EERKN5Eigen6MatrixIfLi4ELi1ELi0ELi4ELi1EEERS4_@Base 1.6
 (optional=templinst)_ZN3pcl16demeanPointCloudINS_11PointXYZRGBEEEvRKNS_10PointCloudIT_EERKSt6vectorIiSaIiEERKN5Eigen6MatrixIfLi4ELi1ELi0ELi4ELi1EEERS4_@Base 1.6
 (optional=templinst)_ZN3pcl16demeanPointCloudINS_12PointXYZRGBAEEEvRKNS_10PointCloudIT_EERKN5Eigen6MatrixIfLi4ELi1ELi0ELi4ELi1EEERS4_@Base 1.6
 (optional=templinst)_ZN3pcl16demeanPointCloudINS_12PointXYZRGBAEEEvRKNS_10PointCloudIT_EERKSt6vectorIiSaIiEERKN5Eigen6MatrixIfLi4ELi1ELi0ELi4ELi1EEERS4_@Base 1.6
 (optional=templinst)_ZN3pcl16demeanPointCloudINS_12PointXYZRGBLEEEvRKNS_10PointCloudIT_EERKN5Eigen6MatrixIfLi4ELi1ELi0ELi4ELi1EEERS4_@Base 1.6
 (optional=templinst)_ZN3pcl16demeanPointCloudINS_12PointXYZRGBLEEEvRKNS_10PointCloudIT_EERKSt6vectorIiSaIiEERKN5Eigen6MatrixIfLi4ELi1ELi0ELi4ELi1EEERS4_@Base 1.6
 (optional=templinst)_ZN3pcl16demeanPointCloudINS_13InterestPointEEEvRKNS_10PointCloudIT_EERKN5Eigen6MatrixIfLi4ELi1ELi0ELi4ELi1EEERS4_@Base 1.6
 (optional=templinst)_ZN3pcl16demeanPointCloudINS_13InterestPointEEEvRKNS_10PointCloudIT_EERKSt6vectorIiSaIiEERKN5Eigen6MatrixIfLi4ELi1ELi0ELi4ELi1EEERS4_@Base 1.6
 (optional=templinst)_ZN3pcl16demeanPointCloudINS_14PointWithRangeEEEvRKNS_10PointCloudIT_EERKN5Eigen6MatrixIfLi4ELi1ELi0ELi4ELi1EEERS4_@Base 1.6
 (optional=templinst)_ZN3pcl16demeanPointCloudINS_14PointWithRangeEEEvRKNS_10PointCloudIT_EERKSt6vectorIiSaIiEERKN5Eigen6MatrixIfLi4ELi1ELi0ELi4ELi1EEERS4_@Base 1.6
 (optional=templinst)_ZN3pcl16demeanPointCloudINS_14PointWithScaleEEEvRKNS_10PointCloudIT_EERKN5Eigen6MatrixIfLi4ELi1ELi0ELi4ELi1EEERS4_@Base 1.6
 (optional=templinst)_ZN3pcl16demeanPointCloudINS_14PointWithScaleEEEvRKNS_10PointCloudIT_EERKSt6vectorIiSaIiEERKN5Eigen6MatrixIfLi4ELi1ELi0ELi4ELi1EEERS4_@Base 1.6
 (optional=templinst)_ZN3pcl16demeanPointCloudINS_15PointXYZINormalEEEvRKNS_10PointCloudIT_EERKN5Eigen6MatrixIfLi4ELi1ELi0ELi4ELi1EEERS4_@Base 1.6
 (optional=templinst)_ZN3pcl16demeanPointCloudINS_15PointXYZINormalEEEvRKNS_10PointCloudIT_EERKSt6vectorIiSaIiEERKN5Eigen6MatrixIfLi4ELi1ELi0ELi4ELi1EEERS4_@Base 1.6
 (optional=templinst)_ZN3pcl16demeanPointCloudINS_17PointXYZRGBNormalEEEvRKNS_10PointCloudIT_EERKN5Eigen6MatrixIfLi4ELi1ELi0ELi4ELi1EEERS4_@Base 1.6
 (optional=templinst)_ZN3pcl16demeanPointCloudINS_17PointXYZRGBNormalEEEvRKNS_10PointCloudIT_EERKSt6vectorIiSaIiEERKN5Eigen6MatrixIfLi4ELi1ELi0ELi4ELi1EEERS4_@Base 1.6
 (optional=templinst)_ZN3pcl16demeanPointCloudINS_18PointWithViewpointEEEvRKNS_10PointCloudIT_EERKN5Eigen6MatrixIfLi4ELi1ELi0ELi4ELi1EEERS4_@Base 1.6
 (optional=templinst)_ZN3pcl16demeanPointCloudINS_18PointWithViewpointEEEvRKNS_10PointCloudIT_EERKSt6vectorIiSaIiEERKN5Eigen6MatrixIfLi4ELi1ELi0ELi4ELi1EEERS4_@Base 1.6
 (optional=templinst)_ZN3pcl16demeanPointCloudINS_8PointXYZEEEvRKNS_10PointCloudIT_EERKN5Eigen6MatrixIfLi4ELi1ELi0ELi4ELi1EEERS4_@Base 1.6
 (optional=templinst)_ZN3pcl16demeanPointCloudINS_8PointXYZEEEvRKNS_10PointCloudIT_EERKSt6vectorIiSaIiEERKN5Eigen6MatrixIfLi4ELi1ELi0ELi4ELi1EEERS4_@Base 1.6
 (optional=templinst)_ZN3pcl16demeanPointCloudINS_9PointXYZIEEEvRKNS_10PointCloudIT_EERKN5Eigen6MatrixIfLi4ELi1ELi0ELi4ELi1EEERS4_@Base 1.6
 (optional=templinst)_ZN3pcl16demeanPointCloudINS_9PointXYZIEEEvRKNS_10PointCloudIT_EERKSt6vectorIiSaIiEERKN5Eigen6MatrixIfLi4ELi1ELi0ELi4ELi1EEERS4_@Base 1.6
 (optional=templinst)_ZN3pcl16demeanPointCloudINS_9PointXYZLEEEvRKNS_10PointCloudIT_EERKN5Eigen6MatrixIfLi4ELi1ELi0ELi4ELi1EEERS4_@Base 1.6
 (optional=templinst)_ZN3pcl16demeanPointCloudINS_9PointXYZLEEEvRKNS_10PointCloudIT_EERKSt6vectorIiSaIiEERKN5Eigen6MatrixIfLi4ELi1ELi0ELi4ELi1EEERS4_@Base 1.6
 (optional=templinst)_ZN3pcl17OrganizedFastMeshINS_11PointXYZRGBEE10isShadowedERKS1_S4_@Base 1.6
 (optional=templinst)_ZN3pcl17OrganizedFastMeshINS_11PointXYZRGBEE11addTriangleEiiiiRSt6vectorINS_8VerticesESaIS4_EE@Base 1.6
 (optional=templinst)_ZN3pcl17OrganizedFastMeshINS_11PointXYZRGBEE11isValidQuadERKiS4_S4_S4_@Base 1.6
 (optional=templinst)_ZN3pcl17OrganizedFastMeshINS_11PointXYZRGBEE12makeQuadMeshERSt6vectorINS_8VerticesESaIS4_EE@Base 1.6
 (optional=templinst)_ZN3pcl17OrganizedFastMeshINS_11PointXYZRGBEE14isShadowedQuadERKiS4_S4_S4_@Base 1.6
 (optional=templinst)_ZN3pcl17OrganizedFastMeshINS_11PointXYZRGBEE14resetPointDataERKiRNS_11PolygonMeshERKfiii@Base 1.6
 (optional=templinst)_ZN3pcl17OrganizedFastMeshINS_11PointXYZRGBEE15isValidTriangleERKiS4_S4_@Base 1.6
 (optional=templinst)_ZN3pcl17OrganizedFastMeshINS_11PointXYZRGBEE15makeLeftCutMeshERSt6vectorINS_8VerticesESaIS4_EE@Base 1.6
 (optional=templinst)_ZN3pcl17OrganizedFastMeshINS_11PointXYZRGBEE16makeRightCutMeshERSt6vectorINS_8VerticesESaIS4_EE@Base 1.6
 (optional=templinst)_ZN3pcl17OrganizedFastMeshINS_11PointXYZRGBEE16setMaxEdgeLengthEf@Base 1.6
 (optional=templinst)_ZN3pcl17OrganizedFastMeshINS_11PointXYZRGBEE18isShadowedTriangleERKiS4_S4_@Base 1.6
 (optional=templinst)_ZN3pcl17OrganizedFastMeshINS_11PointXYZRGBEE18storeShadowedFacesEb@Base 1.6
 (optional=templinst)_ZN3pcl17OrganizedFastMeshINS_11PointXYZRGBEE19makeAdaptiveCutMeshERSt6vectorINS_8VerticesESaIS4_EE@Base 1.6
 (optional=templinst)_ZN3pcl17OrganizedFastMeshINS_11PointXYZRGBEE19reconstructPolygonsERSt6vectorINS_8VerticesESaIS4_EE@Base 1.6
 (optional=templinst)_ZN3pcl17OrganizedFastMeshINS_11PointXYZRGBEE20setTrianglePixelSizeEi@Base 1.6
 (optional=templinst)_ZN3pcl17OrganizedFastMeshINS_11PointXYZRGBEE20setTriangulationTypeENS2_17TriangulationTypeE@Base 1.6
 (optional=templinst)_ZN3pcl17OrganizedFastMeshINS_11PointXYZRGBEE21performReconstructionERNS_11PolygonMeshE@Base 1.6
 (optional=templinst)_ZN3pcl17OrganizedFastMeshINS_11PointXYZRGBEE21performReconstructionERSt6vectorINS_8VerticesESaIS4_EE@Base 1.6
 (optional=templinst)_ZN3pcl17OrganizedFastMeshINS_11PointXYZRGBEE7addQuadEiiiiiRSt6vectorINS_8VerticesESaIS4_EE@Base 1.6
 (optional=templinst)_ZN3pcl17OrganizedFastMeshINS_11PointXYZRGBEEC1Ev@Base 1.6
 (optional=templinst)_ZN3pcl17OrganizedFastMeshINS_11PointXYZRGBEEC2Ev@Base 1.6
 (optional=templinst)_ZN3pcl17OrganizedFastMeshINS_11PointXYZRGBEED0Ev@Base 1.6
 (optional=templinst)_ZN3pcl17OrganizedFastMeshINS_11PointXYZRGBEED1Ev@Base 1.6
 (optional=templinst)_ZN3pcl17OrganizedFastMeshINS_11PointXYZRGBEED2Ev@Base 1.6
 (optional=templinst)_ZN3pcl17OrganizedFastMeshINS_12PointXYZRGBAEE10isShadowedERKS1_S4_@Base 1.6
 (optional=templinst)_ZN3pcl17OrganizedFastMeshINS_12PointXYZRGBAEE11addTriangleEiiiiRSt6vectorINS_8VerticesESaIS4_EE@Base 1.6
 (optional=templinst)_ZN3pcl17OrganizedFastMeshINS_12PointXYZRGBAEE11isValidQuadERKiS4_S4_S4_@Base 1.6
 (optional=templinst)_ZN3pcl17OrganizedFastMeshINS_12PointXYZRGBAEE12makeQuadMeshERSt6vectorINS_8VerticesESaIS4_EE@Base 1.6
 (optional=templinst)_ZN3pcl17OrganizedFastMeshINS_12PointXYZRGBAEE14isShadowedQuadERKiS4_S4_S4_@Base 1.6
 (optional=templinst)_ZN3pcl17OrganizedFastMeshINS_12PointXYZRGBAEE14resetPointDataERKiRNS_11PolygonMeshERKfiii@Base 1.6
 (optional=templinst)_ZN3pcl17OrganizedFastMeshINS_12PointXYZRGBAEE15isValidTriangleERKiS4_S4_@Base 1.6
 (optional=templinst)_ZN3pcl17OrganizedFastMeshINS_12PointXYZRGBAEE15makeLeftCutMeshERSt6vectorINS_8VerticesESaIS4_EE@Base 1.6
 (optional=templinst)_ZN3pcl17OrganizedFastMeshINS_12PointXYZRGBAEE16makeRightCutMeshERSt6vectorINS_8VerticesESaIS4_EE@Base 1.6
 (optional=templinst)_ZN3pcl17OrganizedFastMeshINS_12PointXYZRGBAEE16setMaxEdgeLengthEf@Base 1.6
 (optional=templinst)_ZN3pcl17OrganizedFastMeshINS_12PointXYZRGBAEE18isShadowedTriangleERKiS4_S4_@Base 1.6
 (optional=templinst)_ZN3pcl17OrganizedFastMeshINS_12PointXYZRGBAEE18storeShadowedFacesEb@Base 1.6
 (optional=templinst)_ZN3pcl17OrganizedFastMeshINS_12PointXYZRGBAEE19makeAdaptiveCutMeshERSt6vectorINS_8VerticesESaIS4_EE@Base 1.6
 (optional=templinst)_ZN3pcl17OrganizedFastMeshINS_12PointXYZRGBAEE19reconstructPolygonsERSt6vectorINS_8VerticesESaIS4_EE@Base 1.6
 (optional=templinst)_ZN3pcl17OrganizedFastMeshINS_12PointXYZRGBAEE20setTrianglePixelSizeEi@Base 1.6
 (optional=templinst)_ZN3pcl17OrganizedFastMeshINS_12PointXYZRGBAEE20setTriangulationTypeENS2_17TriangulationTypeE@Base 1.6
 (optional=templinst)_ZN3pcl17OrganizedFastMeshINS_12PointXYZRGBAEE21performReconstructionERNS_11PolygonMeshE@Base 1.6
 (optional=templinst)_ZN3pcl17OrganizedFastMeshINS_12PointXYZRGBAEE21performReconstructionERSt6vectorINS_8VerticesESaIS4_EE@Base 1.6
 (optional=templinst)_ZN3pcl17OrganizedFastMeshINS_12PointXYZRGBAEE7addQuadEiiiiiRSt6vectorINS_8VerticesESaIS4_EE@Base 1.6
 (optional=templinst)_ZN3pcl17OrganizedFastMeshINS_12PointXYZRGBAEEC1Ev@Base 1.6
 (optional=templinst)_ZN3pcl17OrganizedFastMeshINS_12PointXYZRGBAEEC2Ev@Base 1.6
 (optional=templinst)_ZN3pcl17OrganizedFastMeshINS_12PointXYZRGBAEED0Ev@Base 1.6
 (optional=templinst)_ZN3pcl17OrganizedFastMeshINS_12PointXYZRGBAEED1Ev@Base 1.6
 (optional=templinst)_ZN3pcl17OrganizedFastMeshINS_12PointXYZRGBAEED2Ev@Base 1.6
 (optional=templinst)_ZN3pcl17OrganizedFastMeshINS_8PointXYZEE10isShadowedERKS1_S4_@Base 1.6
 (optional=templinst)_ZN3pcl17OrganizedFastMeshINS_8PointXYZEE11addTriangleEiiiiRSt6vectorINS_8VerticesESaIS4_EE@Base 1.6
 (optional=templinst)_ZN3pcl17OrganizedFastMeshINS_8PointXYZEE11isValidQuadERKiS4_S4_S4_@Base 1.6
 (optional=templinst)_ZN3pcl17OrganizedFastMeshINS_8PointXYZEE12makeQuadMeshERSt6vectorINS_8VerticesESaIS4_EE@Base 1.6
 (optional=templinst)_ZN3pcl17OrganizedFastMeshINS_8PointXYZEE14isShadowedQuadERKiS4_S4_S4_@Base 1.6
 (optional=templinst)_ZN3pcl17OrganizedFastMeshINS_8PointXYZEE14resetPointDataERKiRNS_11PolygonMeshERKfiii@Base 1.6
 (optional=templinst)_ZN3pcl17OrganizedFastMeshINS_8PointXYZEE15isValidTriangleERKiS4_S4_@Base 1.6
 (optional=templinst)_ZN3pcl17OrganizedFastMeshINS_8PointXYZEE15makeLeftCutMeshERSt6vectorINS_8VerticesESaIS4_EE@Base 1.6
 (optional=templinst)_ZN3pcl17OrganizedFastMeshINS_8PointXYZEE16makeRightCutMeshERSt6vectorINS_8VerticesESaIS4_EE@Base 1.6
 (optional=templinst)_ZN3pcl17OrganizedFastMeshINS_8PointXYZEE16setMaxEdgeLengthEf@Base 1.6
 (optional=templinst)_ZN3pcl17OrganizedFastMeshINS_8PointXYZEE18isShadowedTriangleERKiS4_S4_@Base 1.6
 (optional=templinst)_ZN3pcl17OrganizedFastMeshINS_8PointXYZEE18storeShadowedFacesEb@Base 1.6
 (optional=templinst)_ZN3pcl17OrganizedFastMeshINS_8PointXYZEE19makeAdaptiveCutMeshERSt6vectorINS_8VerticesESaIS4_EE@Base 1.6
 (optional=templinst)_ZN3pcl17OrganizedFastMeshINS_8PointXYZEE19reconstructPolygonsERSt6vectorINS_8VerticesESaIS4_EE@Base 1.6
 (optional=templinst)_ZN3pcl17OrganizedFastMeshINS_8PointXYZEE20setTrianglePixelSizeEi@Base 1.6
 (optional=templinst)_ZN3pcl17OrganizedFastMeshINS_8PointXYZEE20setTriangulationTypeENS2_17TriangulationTypeE@Base 1.6
 (optional=templinst)_ZN3pcl17OrganizedFastMeshINS_8PointXYZEE21performReconstructionERNS_11PolygonMeshE@Base 1.6
 (optional=templinst)_ZN3pcl17OrganizedFastMeshINS_8PointXYZEE21performReconstructionERSt6vectorINS_8VerticesESaIS4_EE@Base 1.6
 (optional=templinst)_ZN3pcl17OrganizedFastMeshINS_8PointXYZEE7addQuadEiiiiiRSt6vectorINS_8VerticesESaIS4_EE@Base 1.6
 (optional=templinst)_ZN3pcl17OrganizedFastMeshINS_8PointXYZEEC1Ev@Base 1.6
 (optional=templinst)_ZN3pcl17OrganizedFastMeshINS_8PointXYZEEC2Ev@Base 1.6
 (optional=templinst)_ZN3pcl17OrganizedFastMeshINS_8PointXYZEED0Ev@Base 1.6
 (optional=templinst)_ZN3pcl17OrganizedFastMeshINS_8PointXYZEED1Ev@Base 1.6
 (optional=templinst)_ZN3pcl17OrganizedFastMeshINS_8PointXYZEED2Ev@Base 1.6
 (optional=templinst)_ZN3pcl17compute3DCentroidINS_11PointNormalEEEjRKNS_10PointCloudIT_EERN5Eigen6MatrixIfLi4ELi1ELi0ELi4ELi1EEE@Base 1.6
 (optional=templinst)_ZN3pcl17compute3DCentroidINS_11PointXYZHSVEEEjRKNS_10PointCloudIT_EERN5Eigen6MatrixIfLi4ELi1ELi0ELi4ELi1EEE@Base 1.6
 (optional=templinst)_ZN3pcl17compute3DCentroidINS_11PointXYZRGBEEEjRKNS_10PointCloudIT_EERKSt6vectorIiSaIiEERN5Eigen6MatrixIfLi4ELi1ELi0ELi4ELi1EEE@Base 1.6
 (optional=templinst)_ZN3pcl17compute3DCentroidINS_11PointXYZRGBEEEjRKNS_10PointCloudIT_EERN5Eigen6MatrixIfLi4ELi1ELi0ELi4ELi1EEE@Base 1.6
 (optional=templinst)_ZN3pcl17compute3DCentroidINS_12PointXYZRGBAEEEjRKNS_10PointCloudIT_EERKSt6vectorIiSaIiEERN5Eigen6MatrixIfLi4ELi1ELi0ELi4ELi1EEE@Base 1.6
 (optional=templinst)_ZN3pcl17compute3DCentroidINS_12PointXYZRGBAEEEjRKNS_10PointCloudIT_EERN5Eigen6MatrixIfLi4ELi1ELi0ELi4ELi1EEE@Base 1.6
 (optional=templinst)_ZN3pcl17compute3DCentroidINS_12PointXYZRGBLEEEjRKNS_10PointCloudIT_EERN5Eigen6MatrixIfLi4ELi1ELi0ELi4ELi1EEE@Base 1.6
 (optional=templinst)_ZN3pcl17compute3DCentroidINS_13InterestPointEEEjRKNS_10PointCloudIT_EERN5Eigen6MatrixIfLi4ELi1ELi0ELi4ELi1EEE@Base 1.6
 (optional=templinst)_ZN3pcl17compute3DCentroidINS_14PointWithRangeEEEjRKNS_10PointCloudIT_EERN5Eigen6MatrixIfLi4ELi1ELi0ELi4ELi1EEE@Base 1.6
 (optional=templinst)_ZN3pcl17compute3DCentroidINS_14PointWithScaleEEEjRKNS_10PointCloudIT_EERN5Eigen6MatrixIfLi4ELi1ELi0ELi4ELi1EEE@Base 1.6
 (optional=templinst)_ZN3pcl17compute3DCentroidINS_15PointXYZINormalEEEjRKNS_10PointCloudIT_EERN5Eigen6MatrixIfLi4ELi1ELi0ELi4ELi1EEE@Base 1.6
 (optional=templinst)_ZN3pcl17compute3DCentroidINS_17PointXYZRGBNormalEEEjRKNS_10PointCloudIT_EERN5Eigen6MatrixIfLi4ELi1ELi0ELi4ELi1EEE@Base 1.6
 (optional=templinst)_ZN3pcl17compute3DCentroidINS_18PointWithViewpointEEEjRKNS_10PointCloudIT_EERN5Eigen6MatrixIfLi4ELi1ELi0ELi4ELi1EEE@Base 1.6
 (optional=templinst)_ZN3pcl17compute3DCentroidINS_8PointXYZEEEjRKNS_10PointCloudIT_EERKSt6vectorIiSaIiEERN5Eigen6MatrixIfLi4ELi1ELi0ELi4ELi1EEE@Base 1.6
 (optional=templinst)_ZN3pcl17compute3DCentroidINS_8PointXYZEEEjRKNS_10PointCloudIT_EERN5Eigen6MatrixIfLi4ELi1ELi0ELi4ELi1EEE@Base 1.6
 (optional=templinst)_ZN3pcl17compute3DCentroidINS_9PointXYZIEEEjRKNS_10PointCloudIT_EERN5Eigen6MatrixIfLi4ELi1ELi0ELi4ELi1EEE@Base 1.6
 (optional=templinst)_ZN3pcl17compute3DCentroidINS_9PointXYZLEEEjRKNS_10PointCloudIT_EERN5Eigen6MatrixIfLi4ELi1ELi0ELi4ELi1EEE@Base 1.6
 (optional=templinst)_ZN3pcl18MarchingCubesHoppeINS_11PointNormalEE12voxelizeDataEv@Base 1.6
 (optional=templinst)_ZN3pcl18MarchingCubesHoppeINS_11PointNormalEEC1Ev@Base 1.6
 (optional=templinst)_ZN3pcl18MarchingCubesHoppeINS_11PointNormalEEC2Ev@Base 1.6
 (optional=templinst)_ZN3pcl18MarchingCubesHoppeINS_11PointNormalEED0Ev@Base 1.6
 (optional=templinst)_ZN3pcl18MarchingCubesHoppeINS_11PointNormalEED1Ev@Base 1.6
 (optional=templinst)_ZN3pcl18MarchingCubesHoppeINS_11PointNormalEED2Ev@Base 1.6
 _ZN3pcl18MarchingCubesHoppeINS_11PointNormalEEdaEPv@Base 1.6
 _ZN3pcl18MarchingCubesHoppeINS_11PointNormalEEdlEPv@Base 1.6
 _ZN3pcl18MarchingCubesHoppeINS_11PointNormalEEdlEPvRKSt9nothrow_t@Base 1.6
 _ZN3pcl18MarchingCubesHoppeINS_11PointNormalEEdlEPvS3_@Base 1.6
 _ZN3pcl18MarchingCubesHoppeINS_11PointNormalEEnaEm@Base 1.6
 _ZN3pcl18MarchingCubesHoppeINS_11PointNormalEEnwEm@Base 1.6
 _ZN3pcl18MarchingCubesHoppeINS_11PointNormalEEnwEmPv@Base 1.6
 _ZN3pcl18MarchingCubesHoppeINS_11PointNormalEEnwEmRKSt9nothrow_t@Base 1.6
 (optional=templinst)_ZN3pcl18MarchingCubesHoppeINS_15PointXYZINormalEE12voxelizeDataEv@Base 1.6
 (optional=templinst)_ZN3pcl18MarchingCubesHoppeINS_15PointXYZINormalEEC1Ev@Base 1.6
 (optional=templinst)_ZN3pcl18MarchingCubesHoppeINS_15PointXYZINormalEEC2Ev@Base 1.6
 (optional=templinst)_ZN3pcl18MarchingCubesHoppeINS_15PointXYZINormalEED0Ev@Base 1.6
 (optional=templinst)_ZN3pcl18MarchingCubesHoppeINS_15PointXYZINormalEED1Ev@Base 1.6
 (optional=templinst)_ZN3pcl18MarchingCubesHoppeINS_15PointXYZINormalEED2Ev@Base 1.6
 _ZN3pcl18MarchingCubesHoppeINS_15PointXYZINormalEEdaEPv@Base 1.6
 _ZN3pcl18MarchingCubesHoppeINS_15PointXYZINormalEEdlEPv@Base 1.6
 _ZN3pcl18MarchingCubesHoppeINS_15PointXYZINormalEEdlEPvRKSt9nothrow_t@Base 1.6
 _ZN3pcl18MarchingCubesHoppeINS_15PointXYZINormalEEdlEPvS3_@Base 1.6
 _ZN3pcl18MarchingCubesHoppeINS_15PointXYZINormalEEnaEm@Base 1.6
 _ZN3pcl18MarchingCubesHoppeINS_15PointXYZINormalEEnwEm@Base 1.6
 _ZN3pcl18MarchingCubesHoppeINS_15PointXYZINormalEEnwEmPv@Base 1.6
 _ZN3pcl18MarchingCubesHoppeINS_15PointXYZINormalEEnwEmRKSt9nothrow_t@Base 1.6
 (optional=templinst)_ZN3pcl18MarchingCubesHoppeINS_17PointXYZRGBNormalEE12voxelizeDataEv@Base 1.6
 (optional=templinst)_ZN3pcl18MarchingCubesHoppeINS_17PointXYZRGBNormalEEC1Ev@Base 1.6
 (optional=templinst)_ZN3pcl18MarchingCubesHoppeINS_17PointXYZRGBNormalEEC2Ev@Base 1.6
 (optional=templinst)_ZN3pcl18MarchingCubesHoppeINS_17PointXYZRGBNormalEED0Ev@Base 1.6
 (optional=templinst)_ZN3pcl18MarchingCubesHoppeINS_17PointXYZRGBNormalEED1Ev@Base 1.6
 (optional=templinst)_ZN3pcl18MarchingCubesHoppeINS_17PointXYZRGBNormalEED2Ev@Base 1.6
 _ZN3pcl18MarchingCubesHoppeINS_17PointXYZRGBNormalEEdaEPv@Base 1.6
 _ZN3pcl18MarchingCubesHoppeINS_17PointXYZRGBNormalEEdlEPv@Base 1.6
 _ZN3pcl18MarchingCubesHoppeINS_17PointXYZRGBNormalEEdlEPvRKSt9nothrow_t@Base 1.6
 _ZN3pcl18MarchingCubesHoppeINS_17PointXYZRGBNormalEEdlEPvS3_@Base 1.6
 _ZN3pcl18MarchingCubesHoppeINS_17PointXYZRGBNormalEEnaEm@Base 1.6
 _ZN3pcl18MarchingCubesHoppeINS_17PointXYZRGBNormalEEnwEm@Base 1.6
 _ZN3pcl18MarchingCubesHoppeINS_17PointXYZRGBNormalEEnwEmPv@Base 1.6
 _ZN3pcl18MarchingCubesHoppeINS_17PointXYZRGBNormalEEnwEmRKSt9nothrow_t@Base 1.6
 _ZN3pcl18MeshSubdivisionVTK17performProcessingERNS_11PolygonMeshE@Base 1.6
 _ZN3pcl18MeshSubdivisionVTKC1Ev@Base 1.6
 _ZN3pcl18MeshSubdivisionVTKC2Ev@Base 1.6
 _ZN3pcl18MeshSubdivisionVTKD0Ev@Base 1.6
 _ZN3pcl18MeshSubdivisionVTKD1Ev@Base 1.6
 _ZN3pcl18MeshSubdivisionVTKD2Ev@Base 1.6
 (optional=templinst)_ZN3pcl18MovingLeastSquaresINS_11PointXYZRGBENS_11PointNormalEE12MLSVoxelGrid4LeafC1Ev@Base 1.6
 (optional=templinst)_ZN3pcl18MovingLeastSquaresINS_11PointXYZRGBENS_11PointNormalEE12MLSVoxelGrid4LeafC2Ev@Base 1.6
 (optional=templinst)_ZN3pcl18MovingLeastSquaresINS_11PointXYZRGBENS_11PointNormalEE12MLSVoxelGrid6dilateEv@Base 1.6
 (optional=templinst)_ZN3pcl18MovingLeastSquaresINS_11PointXYZRGBENS_11PointNormalEE12MLSVoxelGridC1ERN5boost10shared_ptrIKNS_10PointCloudIS1_EEEERNS6_ISt6vectorIiSaIiEEEEf@Base 1.6
 (optional=templinst)_ZN3pcl18MovingLeastSquaresINS_11PointXYZRGBENS_11PointNormalEE12MLSVoxelGridC2ERN5boost10shared_ptrIKNS_10PointCloudIS1_EEEERNS6_ISt6vectorIiSaIiEEEEf@Base 1.6
 (optional=templinst)_ZN3pcl18MovingLeastSquaresINS_11PointXYZRGBENS_11PointNormalEE12MLSVoxelGridD1Ev@Base 1.6
 (optional=templinst)_ZN3pcl18MovingLeastSquaresINS_11PointXYZRGBENS_11PointNormalEE12MLSVoxelGridD2Ev@Base 1.6
 (optional=templinst)_ZN3pcl18MovingLeastSquaresINS_11PointXYZRGBENS_11PointNormalEE15getPointDensityEv@Base 1.6
 (optional=templinst)_ZN3pcl18MovingLeastSquaresINS_11PointXYZRGBENS_11PointNormalEE15getSearchMethodEv@Base 1.6
 (optional=templinst)_ZN3pcl18MovingLeastSquaresINS_11PointXYZRGBENS_11PointNormalEE15getSearchRadiusEv@Base 1.6
 (optional=templinst)_ZN3pcl18MovingLeastSquaresINS_11PointXYZRGBENS_11PointNormalEE15setPointDensityEi@Base 1.6
 (optional=templinst)_ZN3pcl18MovingLeastSquaresINS_11PointXYZRGBENS_11PointNormalEE15setSearchMethodERKN5boost10shared_ptrINS_6search6SearchIS1_EEEE@Base 1.6
 (optional=templinst)_ZN3pcl18MovingLeastSquaresINS_11PointXYZRGBENS_11PointNormalEE15setSearchRadiusEd@Base 1.6
 (optional=templinst)_ZN3pcl18MovingLeastSquaresINS_11PointXYZRGBENS_11PointNormalEE16getPolynomialFitEv@Base 1.6
 (optional=templinst)_ZN3pcl18MovingLeastSquaresINS_11PointXYZRGBENS_11PointNormalEE16setPolynomialFitEb@Base 1.6
 (optional=templinst)_ZN3pcl18MovingLeastSquaresINS_11PointXYZRGBENS_11PointNormalEE16setSqrGaussParamEd@Base 1.6
 (optional=templinst)_ZN3pcl18MovingLeastSquaresINS_11PointXYZRGBENS_11PointNormalEE17performProcessingERNS_10PointCloudIS2_EE@Base 1.6
 (optional=templinst)_ZN3pcl18MovingLeastSquaresINS_11PointXYZRGBENS_11PointNormalEE17setComputeNormalsEb@Base 1.6
 (optional=templinst)_ZN3pcl18MovingLeastSquaresINS_11PointXYZRGBENS_11PointNormalEE18getPolynomialOrderEv@Base 1.6
 (optional=templinst)_ZN3pcl18MovingLeastSquaresINS_11PointXYZRGBENS_11PointNormalEE18searchForNeighborsEiRSt6vectorIiSaIiEERS4_IfSaIfEE@Base 1.6
 (optional=templinst)_ZN3pcl18MovingLeastSquaresINS_11PointXYZRGBENS_11PointNormalEE18setPolynomialOrderEi@Base 1.6
 (optional=templinst)_ZN3pcl18MovingLeastSquaresINS_11PointXYZRGBENS_11PointNormalEE19getUpsamplingRadiusEv@Base 1.6
 (optional=templinst)_ZN3pcl18MovingLeastSquaresINS_11PointXYZRGBENS_11PointNormalEE19setUpsamplingMethodENS3_16UpsamplingMethodE@Base 1.6
 (optional=templinst)_ZN3pcl18MovingLeastSquaresINS_11PointXYZRGBENS_11PointNormalEE19setUpsamplingRadiusEd@Base 1.6
 (optional=templinst)_ZN3pcl18MovingLeastSquaresINS_11PointXYZRGBENS_11PointNormalEE20getDilationVoxelSizeEv@Base 1.6
 (optional=templinst)_ZN3pcl18MovingLeastSquaresINS_11PointXYZRGBENS_11PointNormalEE20setDilationVoxelSizeEf@Base 1.6
 (optional=templinst)_ZN3pcl18MovingLeastSquaresINS_11PointXYZRGBENS_11PointNormalEE21computeMLSPointNormalEiRKNS_10PointCloudIS1_EERKSt6vectorIiSaIiEERS8_IfSaIfEERNS4_IS2_EERNS4_INS_6NormalEEE@Base 1.6
 (optional=templinst)_ZN3pcl18MovingLeastSquaresINS_11PointXYZRGBENS_11PointNormalEE21getDilationIterationsEv@Base 1.6
 (optional=templinst)_ZN3pcl18MovingLeastSquaresINS_11PointXYZRGBENS_11PointNormalEE21getUpsamplingStepSizeEv@Base 1.6
 (optional=templinst)_ZN3pcl18MovingLeastSquaresINS_11PointXYZRGBENS_11PointNormalEE21setDilationIterationsEi@Base 1.6
 (optional=templinst)_ZN3pcl18MovingLeastSquaresINS_11PointXYZRGBENS_11PointNormalEE21setUpsamplingStepSizeEd@Base 1.6
 (optional=templinst)_ZN3pcl18MovingLeastSquaresINS_11PointXYZRGBENS_11PointNormalEE24projectPointToMLSSurfaceERfS4_RN5Eigen6MatrixIdLi3ELi1ELi0ELi3ELi1EEES8_S8_S4_RNS6_IfLi3ELi1ELi0ELi3ELi1EEERNS6_IdLin1ELi1ELi0ELin1ELi1EEEiRS2_RNS_6NormalE@Base 1.6
 (optional=templinst)_ZN3pcl18MovingLeastSquaresINS_11PointXYZRGBENS_11PointNormalEE7processERNS_10PointCloudIS2_EE@Base 1.6
 (optional=templinst)_ZN3pcl18MovingLeastSquaresINS_11PointXYZRGBENS_11PointNormalEE9MLSResultC1ERKS4_@Base 1.6
 (optional=templinst)_ZN3pcl18MovingLeastSquaresINS_11PointXYZRGBENS_11PointNormalEE9MLSResultC1ERN5Eigen6MatrixIdLi3ELi1ELi0ELi3ELi1EEES8_S8_NS6_IdLin1ELi1ELi0ELin1ELi1EEEiRf@Base 1.6
 (optional=templinst)_ZN3pcl18MovingLeastSquaresINS_11PointXYZRGBENS_11PointNormalEE9MLSResultC1Ev@Base 1.6
 (optional=templinst)_ZN3pcl18MovingLeastSquaresINS_11PointXYZRGBENS_11PointNormalEE9MLSResultC2ERKS4_@Base 1.6
 (optional=templinst)_ZN3pcl18MovingLeastSquaresINS_11PointXYZRGBENS_11PointNormalEE9MLSResultC2ERN5Eigen6MatrixIdLi3ELi1ELi0ELi3ELi1EEES8_S8_NS6_IdLin1ELi1ELi0ELin1ELi1EEEiRf@Base 1.6
 (optional=templinst)_ZN3pcl18MovingLeastSquaresINS_11PointXYZRGBENS_11PointNormalEE9MLSResultC2Ev@Base 1.6
 (optional=templinst)_ZN3pcl18MovingLeastSquaresINS_11PointXYZRGBENS_11PointNormalEE9MLSResultD1Ev@Base 1.6
 (optional=templinst)_ZN3pcl18MovingLeastSquaresINS_11PointXYZRGBENS_11PointNormalEE9MLSResultD2Ev@Base 1.6
 (optional=templinst)_ZN3pcl18MovingLeastSquaresINS_11PointXYZRGBENS_11PointNormalEE9MLSResultaSERKS4_@Base 1.6
 (optional=templinst)_ZN3pcl18MovingLeastSquaresINS_11PointXYZRGBENS_11PointNormalEEC1Ev@Base 1.6
 (optional=templinst)_ZN3pcl18MovingLeastSquaresINS_11PointXYZRGBENS_11PointNormalEEC2Ev@Base 1.6
 (optional=templinst)_ZN3pcl18MovingLeastSquaresINS_11PointXYZRGBENS_11PointNormalEED0Ev@Base 1.6
 (optional=templinst)_ZN3pcl18MovingLeastSquaresINS_11PointXYZRGBENS_11PointNormalEED1Ev@Base 1.6
 (optional=templinst)_ZN3pcl18MovingLeastSquaresINS_11PointXYZRGBENS_11PointNormalEED2Ev@Base 1.6
 _ZN3pcl18MovingLeastSquaresINS_11PointXYZRGBENS_11PointNormalEEdaEPv@Base 1.6
 _ZN3pcl18MovingLeastSquaresINS_11PointXYZRGBENS_11PointNormalEEdlEPv@Base 1.6
 _ZN3pcl18MovingLeastSquaresINS_11PointXYZRGBENS_11PointNormalEEdlEPvRKSt9nothrow_t@Base 1.6
 _ZN3pcl18MovingLeastSquaresINS_11PointXYZRGBENS_11PointNormalEEdlEPvS4_@Base 1.6
 _ZN3pcl18MovingLeastSquaresINS_11PointXYZRGBENS_11PointNormalEEnaEm@Base 1.6
 _ZN3pcl18MovingLeastSquaresINS_11PointXYZRGBENS_11PointNormalEEnwEm@Base 1.6
 _ZN3pcl18MovingLeastSquaresINS_11PointXYZRGBENS_11PointNormalEEnwEmPv@Base 1.6
 _ZN3pcl18MovingLeastSquaresINS_11PointXYZRGBENS_11PointNormalEEnwEmRKSt9nothrow_t@Base 1.6
 (optional=templinst)_ZN3pcl18MovingLeastSquaresINS_11PointXYZRGBENS_12PointXYZRGBAEE12MLSVoxelGrid4LeafC1Ev@Base 1.6
 (optional=templinst)_ZN3pcl18MovingLeastSquaresINS_11PointXYZRGBENS_12PointXYZRGBAEE12MLSVoxelGrid4LeafC2Ev@Base 1.6
 (optional=templinst)_ZN3pcl18MovingLeastSquaresINS_11PointXYZRGBENS_12PointXYZRGBAEE12MLSVoxelGrid6dilateEv@Base 1.6
 (optional=templinst)_ZN3pcl18MovingLeastSquaresINS_11PointXYZRGBENS_12PointXYZRGBAEE12MLSVoxelGridC1ERN5boost10shared_ptrIKNS_10PointCloudIS1_EEEERNS6_ISt6vectorIiSaIiEEEEf@Base 1.6
 (optional=templinst)_ZN3pcl18MovingLeastSquaresINS_11PointXYZRGBENS_12PointXYZRGBAEE12MLSVoxelGridC2ERN5boost10shared_ptrIKNS_10PointCloudIS1_EEEERNS6_ISt6vectorIiSaIiEEEEf@Base 1.6
 (optional=templinst)_ZN3pcl18MovingLeastSquaresINS_11PointXYZRGBENS_12PointXYZRGBAEE12MLSVoxelGridD1Ev@Base 1.6
 (optional=templinst)_ZN3pcl18MovingLeastSquaresINS_11PointXYZRGBENS_12PointXYZRGBAEE12MLSVoxelGridD2Ev@Base 1.6
 (optional=templinst)_ZN3pcl18MovingLeastSquaresINS_11PointXYZRGBENS_12PointXYZRGBAEE15getPointDensityEv@Base 1.6
 (optional=templinst)_ZN3pcl18MovingLeastSquaresINS_11PointXYZRGBENS_12PointXYZRGBAEE15getSearchMethodEv@Base 1.6
 (optional=templinst)_ZN3pcl18MovingLeastSquaresINS_11PointXYZRGBENS_12PointXYZRGBAEE15getSearchRadiusEv@Base 1.6
 (optional=templinst)_ZN3pcl18MovingLeastSquaresINS_11PointXYZRGBENS_12PointXYZRGBAEE15setPointDensityEi@Base 1.6
 (optional=templinst)_ZN3pcl18MovingLeastSquaresINS_11PointXYZRGBENS_12PointXYZRGBAEE15setSearchMethodERKN5boost10shared_ptrINS_6search6SearchIS1_EEEE@Base 1.6
 (optional=templinst)_ZN3pcl18MovingLeastSquaresINS_11PointXYZRGBENS_12PointXYZRGBAEE15setSearchRadiusEd@Base 1.6
 (optional=templinst)_ZN3pcl18MovingLeastSquaresINS_11PointXYZRGBENS_12PointXYZRGBAEE16getPolynomialFitEv@Base 1.6
 (optional=templinst)_ZN3pcl18MovingLeastSquaresINS_11PointXYZRGBENS_12PointXYZRGBAEE16setPolynomialFitEb@Base 1.6
 (optional=templinst)_ZN3pcl18MovingLeastSquaresINS_11PointXYZRGBENS_12PointXYZRGBAEE16setSqrGaussParamEd@Base 1.6
 (optional=templinst)_ZN3pcl18MovingLeastSquaresINS_11PointXYZRGBENS_12PointXYZRGBAEE17performProcessingERNS_10PointCloudIS2_EE@Base 1.6
 (optional=templinst)_ZN3pcl18MovingLeastSquaresINS_11PointXYZRGBENS_12PointXYZRGBAEE17setComputeNormalsEb@Base 1.6
 (optional=templinst)_ZN3pcl18MovingLeastSquaresINS_11PointXYZRGBENS_12PointXYZRGBAEE18getPolynomialOrderEv@Base 1.6
 (optional=templinst)_ZN3pcl18MovingLeastSquaresINS_11PointXYZRGBENS_12PointXYZRGBAEE18searchForNeighborsEiRSt6vectorIiSaIiEERS4_IfSaIfEE@Base 1.6
 (optional=templinst)_ZN3pcl18MovingLeastSquaresINS_11PointXYZRGBENS_12PointXYZRGBAEE18setPolynomialOrderEi@Base 1.6
 (optional=templinst)_ZN3pcl18MovingLeastSquaresINS_11PointXYZRGBENS_12PointXYZRGBAEE19getUpsamplingRadiusEv@Base 1.6
 (optional=templinst)_ZN3pcl18MovingLeastSquaresINS_11PointXYZRGBENS_12PointXYZRGBAEE19setUpsamplingMethodENS3_16UpsamplingMethodE@Base 1.6
 (optional=templinst)_ZN3pcl18MovingLeastSquaresINS_11PointXYZRGBENS_12PointXYZRGBAEE19setUpsamplingRadiusEd@Base 1.6
 (optional=templinst)_ZN3pcl18MovingLeastSquaresINS_11PointXYZRGBENS_12PointXYZRGBAEE20getDilationVoxelSizeEv@Base 1.6
 (optional=templinst)_ZN3pcl18MovingLeastSquaresINS_11PointXYZRGBENS_12PointXYZRGBAEE20setDilationVoxelSizeEf@Base 1.6
 (optional=templinst)_ZN3pcl18MovingLeastSquaresINS_11PointXYZRGBENS_12PointXYZRGBAEE21computeMLSPointNormalEiRKNS_10PointCloudIS1_EERKSt6vectorIiSaIiEERS8_IfSaIfEERNS4_IS2_EERNS4_INS_6NormalEEE@Base 1.6
 (optional=templinst)_ZN3pcl18MovingLeastSquaresINS_11PointXYZRGBENS_12PointXYZRGBAEE21getDilationIterationsEv@Base 1.6
 (optional=templinst)_ZN3pcl18MovingLeastSquaresINS_11PointXYZRGBENS_12PointXYZRGBAEE21getUpsamplingStepSizeEv@Base 1.6
 (optional=templinst)_ZN3pcl18MovingLeastSquaresINS_11PointXYZRGBENS_12PointXYZRGBAEE21setDilationIterationsEi@Base 1.6
 (optional=templinst)_ZN3pcl18MovingLeastSquaresINS_11PointXYZRGBENS_12PointXYZRGBAEE21setUpsamplingStepSizeEd@Base 1.6
 (optional=templinst)_ZN3pcl18MovingLeastSquaresINS_11PointXYZRGBENS_12PointXYZRGBAEE24projectPointToMLSSurfaceERfS4_RN5Eigen6MatrixIdLi3ELi1ELi0ELi3ELi1EEES8_S8_S4_RNS6_IfLi3ELi1ELi0ELi3ELi1EEERNS6_IdLin1ELi1ELi0ELin1ELi1EEEiRS2_RNS_6NormalE@Base 1.6
 (optional=templinst)_ZN3pcl18MovingLeastSquaresINS_11PointXYZRGBENS_12PointXYZRGBAEE7processERNS_10PointCloudIS2_EE@Base 1.6
 (optional=templinst)_ZN3pcl18MovingLeastSquaresINS_11PointXYZRGBENS_12PointXYZRGBAEE9MLSResultC1ERKS4_@Base 1.6
 (optional=templinst)_ZN3pcl18MovingLeastSquaresINS_11PointXYZRGBENS_12PointXYZRGBAEE9MLSResultC1ERN5Eigen6MatrixIdLi3ELi1ELi0ELi3ELi1EEES8_S8_NS6_IdLin1ELi1ELi0ELin1ELi1EEEiRf@Base 1.6
 (optional=templinst)_ZN3pcl18MovingLeastSquaresINS_11PointXYZRGBENS_12PointXYZRGBAEE9MLSResultC1Ev@Base 1.6
 (optional=templinst)_ZN3pcl18MovingLeastSquaresINS_11PointXYZRGBENS_12PointXYZRGBAEE9MLSResultC2ERKS4_@Base 1.6
 (optional=templinst)_ZN3pcl18MovingLeastSquaresINS_11PointXYZRGBENS_12PointXYZRGBAEE9MLSResultC2ERN5Eigen6MatrixIdLi3ELi1ELi0ELi3ELi1EEES8_S8_NS6_IdLin1ELi1ELi0ELin1ELi1EEEiRf@Base 1.6
 (optional=templinst)_ZN3pcl18MovingLeastSquaresINS_11PointXYZRGBENS_12PointXYZRGBAEE9MLSResultC2Ev@Base 1.6
 (optional=templinst)_ZN3pcl18MovingLeastSquaresINS_11PointXYZRGBENS_12PointXYZRGBAEE9MLSResultD1Ev@Base 1.6
 (optional=templinst)_ZN3pcl18MovingLeastSquaresINS_11PointXYZRGBENS_12PointXYZRGBAEE9MLSResultD2Ev@Base 1.6
 (optional=templinst)_ZN3pcl18MovingLeastSquaresINS_11PointXYZRGBENS_12PointXYZRGBAEE9MLSResultaSERKS4_@Base 1.6
 (optional=templinst)_ZN3pcl18MovingLeastSquaresINS_11PointXYZRGBENS_12PointXYZRGBAEEC1Ev@Base 1.6
 (optional=templinst)_ZN3pcl18MovingLeastSquaresINS_11PointXYZRGBENS_12PointXYZRGBAEEC2Ev@Base 1.6
 (optional=templinst)_ZN3pcl18MovingLeastSquaresINS_11PointXYZRGBENS_12PointXYZRGBAEED0Ev@Base 1.6
 (optional=templinst)_ZN3pcl18MovingLeastSquaresINS_11PointXYZRGBENS_12PointXYZRGBAEED1Ev@Base 1.6
 (optional=templinst)_ZN3pcl18MovingLeastSquaresINS_11PointXYZRGBENS_12PointXYZRGBAEED2Ev@Base 1.6
 _ZN3pcl18MovingLeastSquaresINS_11PointXYZRGBENS_12PointXYZRGBAEEdaEPv@Base 1.6
 _ZN3pcl18MovingLeastSquaresINS_11PointXYZRGBENS_12PointXYZRGBAEEdlEPv@Base 1.6
 _ZN3pcl18MovingLeastSquaresINS_11PointXYZRGBENS_12PointXYZRGBAEEdlEPvRKSt9nothrow_t@Base 1.6
 _ZN3pcl18MovingLeastSquaresINS_11PointXYZRGBENS_12PointXYZRGBAEEdlEPvS4_@Base 1.6
 _ZN3pcl18MovingLeastSquaresINS_11PointXYZRGBENS_12PointXYZRGBAEEnaEm@Base 1.6
 _ZN3pcl18MovingLeastSquaresINS_11PointXYZRGBENS_12PointXYZRGBAEEnwEm@Base 1.6
 _ZN3pcl18MovingLeastSquaresINS_11PointXYZRGBENS_12PointXYZRGBAEEnwEmPv@Base 1.6
 _ZN3pcl18MovingLeastSquaresINS_11PointXYZRGBENS_12PointXYZRGBAEEnwEmRKSt9nothrow_t@Base 1.6
 (optional=templinst)_ZN3pcl18MovingLeastSquaresINS_11PointXYZRGBENS_8PointXYZEE12MLSVoxelGrid4LeafC1Ev@Base 1.6
 (optional=templinst)_ZN3pcl18MovingLeastSquaresINS_11PointXYZRGBENS_8PointXYZEE12MLSVoxelGrid4LeafC2Ev@Base 1.6
 (optional=templinst)_ZN3pcl18MovingLeastSquaresINS_11PointXYZRGBENS_8PointXYZEE12MLSVoxelGrid6dilateEv@Base 1.6
 (optional=templinst)_ZN3pcl18MovingLeastSquaresINS_11PointXYZRGBENS_8PointXYZEE12MLSVoxelGridC1ERN5boost10shared_ptrIKNS_10PointCloudIS1_EEEERNS6_ISt6vectorIiSaIiEEEEf@Base 1.6
 (optional=templinst)_ZN3pcl18MovingLeastSquaresINS_11PointXYZRGBENS_8PointXYZEE12MLSVoxelGridC2ERN5boost10shared_ptrIKNS_10PointCloudIS1_EEEERNS6_ISt6vectorIiSaIiEEEEf@Base 1.6
 (optional=templinst)_ZN3pcl18MovingLeastSquaresINS_11PointXYZRGBENS_8PointXYZEE12MLSVoxelGridD1Ev@Base 1.6
 (optional=templinst)_ZN3pcl18MovingLeastSquaresINS_11PointXYZRGBENS_8PointXYZEE12MLSVoxelGridD2Ev@Base 1.6
 (optional=templinst)_ZN3pcl18MovingLeastSquaresINS_11PointXYZRGBENS_8PointXYZEE15getPointDensityEv@Base 1.6
 (optional=templinst)_ZN3pcl18MovingLeastSquaresINS_11PointXYZRGBENS_8PointXYZEE15getSearchMethodEv@Base 1.6
 (optional=templinst)_ZN3pcl18MovingLeastSquaresINS_11PointXYZRGBENS_8PointXYZEE15getSearchRadiusEv@Base 1.6
 (optional=templinst)_ZN3pcl18MovingLeastSquaresINS_11PointXYZRGBENS_8PointXYZEE15setPointDensityEi@Base 1.6
 (optional=templinst)_ZN3pcl18MovingLeastSquaresINS_11PointXYZRGBENS_8PointXYZEE15setSearchMethodERKN5boost10shared_ptrINS_6search6SearchIS1_EEEE@Base 1.6
 (optional=templinst)_ZN3pcl18MovingLeastSquaresINS_11PointXYZRGBENS_8PointXYZEE15setSearchRadiusEd@Base 1.6
 (optional=templinst)_ZN3pcl18MovingLeastSquaresINS_11PointXYZRGBENS_8PointXYZEE16getPolynomialFitEv@Base 1.6
 (optional=templinst)_ZN3pcl18MovingLeastSquaresINS_11PointXYZRGBENS_8PointXYZEE16setPolynomialFitEb@Base 1.6
 (optional=templinst)_ZN3pcl18MovingLeastSquaresINS_11PointXYZRGBENS_8PointXYZEE16setSqrGaussParamEd@Base 1.6
 (optional=templinst)_ZN3pcl18MovingLeastSquaresINS_11PointXYZRGBENS_8PointXYZEE17performProcessingERNS_10PointCloudIS2_EE@Base 1.6
 (optional=templinst)_ZN3pcl18MovingLeastSquaresINS_11PointXYZRGBENS_8PointXYZEE17setComputeNormalsEb@Base 1.6
 (optional=templinst)_ZN3pcl18MovingLeastSquaresINS_11PointXYZRGBENS_8PointXYZEE18getPolynomialOrderEv@Base 1.6
 (optional=templinst)_ZN3pcl18MovingLeastSquaresINS_11PointXYZRGBENS_8PointXYZEE18searchForNeighborsEiRSt6vectorIiSaIiEERS4_IfSaIfEE@Base 1.6
 (optional=templinst)_ZN3pcl18MovingLeastSquaresINS_11PointXYZRGBENS_8PointXYZEE18setPolynomialOrderEi@Base 1.6
 (optional=templinst)_ZN3pcl18MovingLeastSquaresINS_11PointXYZRGBENS_8PointXYZEE19getUpsamplingRadiusEv@Base 1.6
 (optional=templinst)_ZN3pcl18MovingLeastSquaresINS_11PointXYZRGBENS_8PointXYZEE19setUpsamplingMethodENS3_16UpsamplingMethodE@Base 1.6
 (optional=templinst)_ZN3pcl18MovingLeastSquaresINS_11PointXYZRGBENS_8PointXYZEE19setUpsamplingRadiusEd@Base 1.6
 (optional=templinst)_ZN3pcl18MovingLeastSquaresINS_11PointXYZRGBENS_8PointXYZEE20getDilationVoxelSizeEv@Base 1.6
 (optional=templinst)_ZN3pcl18MovingLeastSquaresINS_11PointXYZRGBENS_8PointXYZEE20setDilationVoxelSizeEf@Base 1.6
 (optional=templinst)_ZN3pcl18MovingLeastSquaresINS_11PointXYZRGBENS_8PointXYZEE21computeMLSPointNormalEiRKNS_10PointCloudIS1_EERKSt6vectorIiSaIiEERS8_IfSaIfEERNS4_IS2_EERNS4_INS_6NormalEEE@Base 1.6
 (optional=templinst)_ZN3pcl18MovingLeastSquaresINS_11PointXYZRGBENS_8PointXYZEE21getDilationIterationsEv@Base 1.6
 (optional=templinst)_ZN3pcl18MovingLeastSquaresINS_11PointXYZRGBENS_8PointXYZEE21getUpsamplingStepSizeEv@Base 1.6
 (optional=templinst)_ZN3pcl18MovingLeastSquaresINS_11PointXYZRGBENS_8PointXYZEE21setDilationIterationsEi@Base 1.6
 (optional=templinst)_ZN3pcl18MovingLeastSquaresINS_11PointXYZRGBENS_8PointXYZEE21setUpsamplingStepSizeEd@Base 1.6
 (optional=templinst)_ZN3pcl18MovingLeastSquaresINS_11PointXYZRGBENS_8PointXYZEE24projectPointToMLSSurfaceERfS4_RN5Eigen6MatrixIdLi3ELi1ELi0ELi3ELi1EEES8_S8_S4_RNS6_IfLi3ELi1ELi0ELi3ELi1EEERNS6_IdLin1ELi1ELi0ELin1ELi1EEEiRS2_RNS_6NormalE@Base 1.6
 (optional=templinst)_ZN3pcl18MovingLeastSquaresINS_11PointXYZRGBENS_8PointXYZEE7processERNS_10PointCloudIS2_EE@Base 1.6
 (optional=templinst)_ZN3pcl18MovingLeastSquaresINS_11PointXYZRGBENS_8PointXYZEE9MLSResultC1ERKS4_@Base 1.6
 (optional=templinst)_ZN3pcl18MovingLeastSquaresINS_11PointXYZRGBENS_8PointXYZEE9MLSResultC1ERN5Eigen6MatrixIdLi3ELi1ELi0ELi3ELi1EEES8_S8_NS6_IdLin1ELi1ELi0ELin1ELi1EEEiRf@Base 1.6
 (optional=templinst)_ZN3pcl18MovingLeastSquaresINS_11PointXYZRGBENS_8PointXYZEE9MLSResultC1Ev@Base 1.6
 (optional=templinst)_ZN3pcl18MovingLeastSquaresINS_11PointXYZRGBENS_8PointXYZEE9MLSResultC2ERKS4_@Base 1.6
 (optional=templinst)_ZN3pcl18MovingLeastSquaresINS_11PointXYZRGBENS_8PointXYZEE9MLSResultC2ERN5Eigen6MatrixIdLi3ELi1ELi0ELi3ELi1EEES8_S8_NS6_IdLin1ELi1ELi0ELin1ELi1EEEiRf@Base 1.6
 (optional=templinst)_ZN3pcl18MovingLeastSquaresINS_11PointXYZRGBENS_8PointXYZEE9MLSResultC2Ev@Base 1.6
 (optional=templinst)_ZN3pcl18MovingLeastSquaresINS_11PointXYZRGBENS_8PointXYZEE9MLSResultD1Ev@Base 1.6
 (optional=templinst)_ZN3pcl18MovingLeastSquaresINS_11PointXYZRGBENS_8PointXYZEE9MLSResultD2Ev@Base 1.6
 (optional=templinst)_ZN3pcl18MovingLeastSquaresINS_11PointXYZRGBENS_8PointXYZEE9MLSResultaSERKS4_@Base 1.6
 (optional=templinst)_ZN3pcl18MovingLeastSquaresINS_11PointXYZRGBENS_8PointXYZEEC1Ev@Base 1.6
 (optional=templinst)_ZN3pcl18MovingLeastSquaresINS_11PointXYZRGBENS_8PointXYZEEC2Ev@Base 1.6
 (optional=templinst)_ZN3pcl18MovingLeastSquaresINS_11PointXYZRGBENS_8PointXYZEED0Ev@Base 1.6
 (optional=templinst)_ZN3pcl18MovingLeastSquaresINS_11PointXYZRGBENS_8PointXYZEED1Ev@Base 1.6
 (optional=templinst)_ZN3pcl18MovingLeastSquaresINS_11PointXYZRGBENS_8PointXYZEED2Ev@Base 1.6
 _ZN3pcl18MovingLeastSquaresINS_11PointXYZRGBENS_8PointXYZEEdaEPv@Base 1.6
 _ZN3pcl18MovingLeastSquaresINS_11PointXYZRGBENS_8PointXYZEEdlEPv@Base 1.6
 _ZN3pcl18MovingLeastSquaresINS_11PointXYZRGBENS_8PointXYZEEdlEPvRKSt9nothrow_t@Base 1.6
 _ZN3pcl18MovingLeastSquaresINS_11PointXYZRGBENS_8PointXYZEEdlEPvS4_@Base 1.6
 _ZN3pcl18MovingLeastSquaresINS_11PointXYZRGBENS_8PointXYZEEnaEm@Base 1.6
 _ZN3pcl18MovingLeastSquaresINS_11PointXYZRGBENS_8PointXYZEEnwEm@Base 1.6
 _ZN3pcl18MovingLeastSquaresINS_11PointXYZRGBENS_8PointXYZEEnwEmPv@Base 1.6
 _ZN3pcl18MovingLeastSquaresINS_11PointXYZRGBENS_8PointXYZEEnwEmRKSt9nothrow_t@Base 1.6
 (optional=templinst)_ZN3pcl18MovingLeastSquaresINS_11PointXYZRGBES1_E12MLSVoxelGrid4LeafC1Ev@Base 1.6
 (optional=templinst)_ZN3pcl18MovingLeastSquaresINS_11PointXYZRGBES1_E12MLSVoxelGrid4LeafC2Ev@Base 1.6
 (optional=templinst)_ZN3pcl18MovingLeastSquaresINS_11PointXYZRGBES1_E12MLSVoxelGrid6dilateEv@Base 1.6
 (optional=templinst)_ZN3pcl18MovingLeastSquaresINS_11PointXYZRGBES1_E12MLSVoxelGridC1ERN5boost10shared_ptrIKNS_10PointCloudIS1_EEEERNS5_ISt6vectorIiSaIiEEEEf@Base 1.6
 (optional=templinst)_ZN3pcl18MovingLeastSquaresINS_11PointXYZRGBES1_E12MLSVoxelGridC2ERN5boost10shared_ptrIKNS_10PointCloudIS1_EEEERNS5_ISt6vectorIiSaIiEEEEf@Base 1.6
 (optional=templinst)_ZN3pcl18MovingLeastSquaresINS_11PointXYZRGBES1_E12MLSVoxelGridD1Ev@Base 1.6
 (optional=templinst)_ZN3pcl18MovingLeastSquaresINS_11PointXYZRGBES1_E12MLSVoxelGridD2Ev@Base 1.6
 (optional=templinst)_ZN3pcl18MovingLeastSquaresINS_11PointXYZRGBES1_E15getPointDensityEv@Base 1.6
 (optional=templinst)_ZN3pcl18MovingLeastSquaresINS_11PointXYZRGBES1_E15getSearchMethodEv@Base 1.6
 (optional=templinst)_ZN3pcl18MovingLeastSquaresINS_11PointXYZRGBES1_E15getSearchRadiusEv@Base 1.6
 (optional=templinst)_ZN3pcl18MovingLeastSquaresINS_11PointXYZRGBES1_E15setPointDensityEi@Base 1.6
 (optional=templinst)_ZN3pcl18MovingLeastSquaresINS_11PointXYZRGBES1_E15setSearchMethodERKN5boost10shared_ptrINS_6search6SearchIS1_EEEE@Base 1.6
 (optional=templinst)_ZN3pcl18MovingLeastSquaresINS_11PointXYZRGBES1_E15setSearchRadiusEd@Base 1.6
 (optional=templinst)_ZN3pcl18MovingLeastSquaresINS_11PointXYZRGBES1_E16getPolynomialFitEv@Base 1.6
 (optional=templinst)_ZN3pcl18MovingLeastSquaresINS_11PointXYZRGBES1_E16setPolynomialFitEb@Base 1.6
 (optional=templinst)_ZN3pcl18MovingLeastSquaresINS_11PointXYZRGBES1_E16setSqrGaussParamEd@Base 1.6
 (optional=templinst)_ZN3pcl18MovingLeastSquaresINS_11PointXYZRGBES1_E17performProcessingERNS_10PointCloudIS1_EE@Base 1.6
 (optional=templinst)_ZN3pcl18MovingLeastSquaresINS_11PointXYZRGBES1_E17setComputeNormalsEb@Base 1.6
 (optional=templinst)_ZN3pcl18MovingLeastSquaresINS_11PointXYZRGBES1_E18getPolynomialOrderEv@Base 1.6
 (optional=templinst)_ZN3pcl18MovingLeastSquaresINS_11PointXYZRGBES1_E18searchForNeighborsEiRSt6vectorIiSaIiEERS3_IfSaIfEE@Base 1.6
 (optional=templinst)_ZN3pcl18MovingLeastSquaresINS_11PointXYZRGBES1_E18setPolynomialOrderEi@Base 1.6
 (optional=templinst)_ZN3pcl18MovingLeastSquaresINS_11PointXYZRGBES1_E19getUpsamplingRadiusEv@Base 1.6
 (optional=templinst)_ZN3pcl18MovingLeastSquaresINS_11PointXYZRGBES1_E19setUpsamplingMethodENS2_16UpsamplingMethodE@Base 1.6
 (optional=templinst)_ZN3pcl18MovingLeastSquaresINS_11PointXYZRGBES1_E19setUpsamplingRadiusEd@Base 1.6
 (optional=templinst)_ZN3pcl18MovingLeastSquaresINS_11PointXYZRGBES1_E20getDilationVoxelSizeEv@Base 1.6
 (optional=templinst)_ZN3pcl18MovingLeastSquaresINS_11PointXYZRGBES1_E20setDilationVoxelSizeEf@Base 1.6
 (optional=templinst)_ZN3pcl18MovingLeastSquaresINS_11PointXYZRGBES1_E21computeMLSPointNormalEiRKNS_10PointCloudIS1_EERKSt6vectorIiSaIiEERS7_IfSaIfEERS4_RNS3_INS_6NormalEEE@Base 1.6
 (optional=templinst)_ZN3pcl18MovingLeastSquaresINS_11PointXYZRGBES1_E21getDilationIterationsEv@Base 1.6
 (optional=templinst)_ZN3pcl18MovingLeastSquaresINS_11PointXYZRGBES1_E21getUpsamplingStepSizeEv@Base 1.6
 (optional=templinst)_ZN3pcl18MovingLeastSquaresINS_11PointXYZRGBES1_E21setDilationIterationsEi@Base 1.6
 (optional=templinst)_ZN3pcl18MovingLeastSquaresINS_11PointXYZRGBES1_E21setUpsamplingStepSizeEd@Base 1.6
 (optional=templinst)_ZN3pcl18MovingLeastSquaresINS_11PointXYZRGBES1_E24projectPointToMLSSurfaceERfS3_RN5Eigen6MatrixIdLi3ELi1ELi0ELi3ELi1EEES7_S7_S3_RNS5_IfLi3ELi1ELi0ELi3ELi1EEERNS5_IdLin1ELi1ELi0ELin1ELi1EEEiRS1_RNS_6NormalE@Base 1.6
 (optional=templinst)_ZN3pcl18MovingLeastSquaresINS_11PointXYZRGBES1_E7processERNS_10PointCloudIS1_EE@Base 1.6
 (optional=templinst)_ZN3pcl18MovingLeastSquaresINS_11PointXYZRGBES1_E9MLSResultC1ERKS3_@Base 1.6
 (optional=templinst)_ZN3pcl18MovingLeastSquaresINS_11PointXYZRGBES1_E9MLSResultC1ERN5Eigen6MatrixIdLi3ELi1ELi0ELi3ELi1EEES7_S7_NS5_IdLin1ELi1ELi0ELin1ELi1EEEiRf@Base 1.6
 (optional=templinst)_ZN3pcl18MovingLeastSquaresINS_11PointXYZRGBES1_E9MLSResultC1Ev@Base 1.6
 (optional=templinst)_ZN3pcl18MovingLeastSquaresINS_11PointXYZRGBES1_E9MLSResultC2ERKS3_@Base 1.6
 (optional=templinst)_ZN3pcl18MovingLeastSquaresINS_11PointXYZRGBES1_E9MLSResultC2ERN5Eigen6MatrixIdLi3ELi1ELi0ELi3ELi1EEES7_S7_NS5_IdLin1ELi1ELi0ELin1ELi1EEEiRf@Base 1.6
 (optional=templinst)_ZN3pcl18MovingLeastSquaresINS_11PointXYZRGBES1_E9MLSResultC2Ev@Base 1.6
 (optional=templinst)_ZN3pcl18MovingLeastSquaresINS_11PointXYZRGBES1_E9MLSResultD1Ev@Base 1.6
 (optional=templinst)_ZN3pcl18MovingLeastSquaresINS_11PointXYZRGBES1_E9MLSResultD2Ev@Base 1.6
 (optional=templinst)_ZN3pcl18MovingLeastSquaresINS_11PointXYZRGBES1_E9MLSResultaSERKS3_@Base 1.6
 (optional=templinst)_ZN3pcl18MovingLeastSquaresINS_11PointXYZRGBES1_EC1Ev@Base 1.6
 (optional=templinst)_ZN3pcl18MovingLeastSquaresINS_11PointXYZRGBES1_EC2Ev@Base 1.6
 (optional=templinst)_ZN3pcl18MovingLeastSquaresINS_11PointXYZRGBES1_ED0Ev@Base 1.6
 (optional=templinst)_ZN3pcl18MovingLeastSquaresINS_11PointXYZRGBES1_ED1Ev@Base 1.6
 (optional=templinst)_ZN3pcl18MovingLeastSquaresINS_11PointXYZRGBES1_ED2Ev@Base 1.6
 _ZN3pcl18MovingLeastSquaresINS_11PointXYZRGBES1_EdaEPv@Base 1.6
 _ZN3pcl18MovingLeastSquaresINS_11PointXYZRGBES1_EdlEPv@Base 1.6
 _ZN3pcl18MovingLeastSquaresINS_11PointXYZRGBES1_EdlEPvRKSt9nothrow_t@Base 1.6
 _ZN3pcl18MovingLeastSquaresINS_11PointXYZRGBES1_EdlEPvS3_@Base 1.6
 _ZN3pcl18MovingLeastSquaresINS_11PointXYZRGBES1_EnaEm@Base 1.6
 _ZN3pcl18MovingLeastSquaresINS_11PointXYZRGBES1_EnwEm@Base 1.6
 _ZN3pcl18MovingLeastSquaresINS_11PointXYZRGBES1_EnwEmPv@Base 1.6
 _ZN3pcl18MovingLeastSquaresINS_11PointXYZRGBES1_EnwEmRKSt9nothrow_t@Base 1.6
 (optional=templinst)_ZN3pcl18MovingLeastSquaresINS_12PointXYZRGBAENS_11PointNormalEE12MLSVoxelGrid4LeafC1Ev@Base 1.6
 (optional=templinst)_ZN3pcl18MovingLeastSquaresINS_12PointXYZRGBAENS_11PointNormalEE12MLSVoxelGrid4LeafC2Ev@Base 1.6
 (optional=templinst)_ZN3pcl18MovingLeastSquaresINS_12PointXYZRGBAENS_11PointNormalEE12MLSVoxelGrid6dilateEv@Base 1.6
 (optional=templinst)_ZN3pcl18MovingLeastSquaresINS_12PointXYZRGBAENS_11PointNormalEE12MLSVoxelGridC1ERN5boost10shared_ptrIKNS_10PointCloudIS1_EEEERNS6_ISt6vectorIiSaIiEEEEf@Base 1.6
 (optional=templinst)_ZN3pcl18MovingLeastSquaresINS_12PointXYZRGBAENS_11PointNormalEE12MLSVoxelGridC2ERN5boost10shared_ptrIKNS_10PointCloudIS1_EEEERNS6_ISt6vectorIiSaIiEEEEf@Base 1.6
 (optional=templinst)_ZN3pcl18MovingLeastSquaresINS_12PointXYZRGBAENS_11PointNormalEE12MLSVoxelGridD1Ev@Base 1.6
 (optional=templinst)_ZN3pcl18MovingLeastSquaresINS_12PointXYZRGBAENS_11PointNormalEE12MLSVoxelGridD2Ev@Base 1.6
 (optional=templinst)_ZN3pcl18MovingLeastSquaresINS_12PointXYZRGBAENS_11PointNormalEE15getPointDensityEv@Base 1.6
 (optional=templinst)_ZN3pcl18MovingLeastSquaresINS_12PointXYZRGBAENS_11PointNormalEE15getSearchMethodEv@Base 1.6
 (optional=templinst)_ZN3pcl18MovingLeastSquaresINS_12PointXYZRGBAENS_11PointNormalEE15getSearchRadiusEv@Base 1.6
 (optional=templinst)_ZN3pcl18MovingLeastSquaresINS_12PointXYZRGBAENS_11PointNormalEE15setPointDensityEi@Base 1.6
 (optional=templinst)_ZN3pcl18MovingLeastSquaresINS_12PointXYZRGBAENS_11PointNormalEE15setSearchMethodERKN5boost10shared_ptrINS_6search6SearchIS1_EEEE@Base 1.6
 (optional=templinst)_ZN3pcl18MovingLeastSquaresINS_12PointXYZRGBAENS_11PointNormalEE15setSearchRadiusEd@Base 1.6
 (optional=templinst)_ZN3pcl18MovingLeastSquaresINS_12PointXYZRGBAENS_11PointNormalEE16getPolynomialFitEv@Base 1.6
 (optional=templinst)_ZN3pcl18MovingLeastSquaresINS_12PointXYZRGBAENS_11PointNormalEE16setPolynomialFitEb@Base 1.6
 (optional=templinst)_ZN3pcl18MovingLeastSquaresINS_12PointXYZRGBAENS_11PointNormalEE16setSqrGaussParamEd@Base 1.6
 (optional=templinst)_ZN3pcl18MovingLeastSquaresINS_12PointXYZRGBAENS_11PointNormalEE17performProcessingERNS_10PointCloudIS2_EE@Base 1.6
 (optional=templinst)_ZN3pcl18MovingLeastSquaresINS_12PointXYZRGBAENS_11PointNormalEE17setComputeNormalsEb@Base 1.6
 (optional=templinst)_ZN3pcl18MovingLeastSquaresINS_12PointXYZRGBAENS_11PointNormalEE18getPolynomialOrderEv@Base 1.6
 (optional=templinst)_ZN3pcl18MovingLeastSquaresINS_12PointXYZRGBAENS_11PointNormalEE18searchForNeighborsEiRSt6vectorIiSaIiEERS4_IfSaIfEE@Base 1.6
 (optional=templinst)_ZN3pcl18MovingLeastSquaresINS_12PointXYZRGBAENS_11PointNormalEE18setPolynomialOrderEi@Base 1.6
 (optional=templinst)_ZN3pcl18MovingLeastSquaresINS_12PointXYZRGBAENS_11PointNormalEE19getUpsamplingRadiusEv@Base 1.6
 (optional=templinst)_ZN3pcl18MovingLeastSquaresINS_12PointXYZRGBAENS_11PointNormalEE19setUpsamplingMethodENS3_16UpsamplingMethodE@Base 1.6
 (optional=templinst)_ZN3pcl18MovingLeastSquaresINS_12PointXYZRGBAENS_11PointNormalEE19setUpsamplingRadiusEd@Base 1.6
 (optional=templinst)_ZN3pcl18MovingLeastSquaresINS_12PointXYZRGBAENS_11PointNormalEE20getDilationVoxelSizeEv@Base 1.6
 (optional=templinst)_ZN3pcl18MovingLeastSquaresINS_12PointXYZRGBAENS_11PointNormalEE20setDilationVoxelSizeEf@Base 1.6
 (optional=templinst)_ZN3pcl18MovingLeastSquaresINS_12PointXYZRGBAENS_11PointNormalEE21computeMLSPointNormalEiRKNS_10PointCloudIS1_EERKSt6vectorIiSaIiEERS8_IfSaIfEERNS4_IS2_EERNS4_INS_6NormalEEE@Base 1.6
 (optional=templinst)_ZN3pcl18MovingLeastSquaresINS_12PointXYZRGBAENS_11PointNormalEE21getDilationIterationsEv@Base 1.6
 (optional=templinst)_ZN3pcl18MovingLeastSquaresINS_12PointXYZRGBAENS_11PointNormalEE21getUpsamplingStepSizeEv@Base 1.6
 (optional=templinst)_ZN3pcl18MovingLeastSquaresINS_12PointXYZRGBAENS_11PointNormalEE21setDilationIterationsEi@Base 1.6
 (optional=templinst)_ZN3pcl18MovingLeastSquaresINS_12PointXYZRGBAENS_11PointNormalEE21setUpsamplingStepSizeEd@Base 1.6
 (optional=templinst)_ZN3pcl18MovingLeastSquaresINS_12PointXYZRGBAENS_11PointNormalEE24projectPointToMLSSurfaceERfS4_RN5Eigen6MatrixIdLi3ELi1ELi0ELi3ELi1EEES8_S8_S4_RNS6_IfLi3ELi1ELi0ELi3ELi1EEERNS6_IdLin1ELi1ELi0ELin1ELi1EEEiRS2_RNS_6NormalE@Base 1.6
 (optional=templinst)_ZN3pcl18MovingLeastSquaresINS_12PointXYZRGBAENS_11PointNormalEE7processERNS_10PointCloudIS2_EE@Base 1.6
 (optional=templinst)_ZN3pcl18MovingLeastSquaresINS_12PointXYZRGBAENS_11PointNormalEE9MLSResultC1ERKS4_@Base 1.6
 (optional=templinst)_ZN3pcl18MovingLeastSquaresINS_12PointXYZRGBAENS_11PointNormalEE9MLSResultC1ERN5Eigen6MatrixIdLi3ELi1ELi0ELi3ELi1EEES8_S8_NS6_IdLin1ELi1ELi0ELin1ELi1EEEiRf@Base 1.6
 (optional=templinst)_ZN3pcl18MovingLeastSquaresINS_12PointXYZRGBAENS_11PointNormalEE9MLSResultC1Ev@Base 1.6
 (optional=templinst)_ZN3pcl18MovingLeastSquaresINS_12PointXYZRGBAENS_11PointNormalEE9MLSResultC2ERKS4_@Base 1.6
 (optional=templinst)_ZN3pcl18MovingLeastSquaresINS_12PointXYZRGBAENS_11PointNormalEE9MLSResultC2ERN5Eigen6MatrixIdLi3ELi1ELi0ELi3ELi1EEES8_S8_NS6_IdLin1ELi1ELi0ELin1ELi1EEEiRf@Base 1.6
 (optional=templinst)_ZN3pcl18MovingLeastSquaresINS_12PointXYZRGBAENS_11PointNormalEE9MLSResultC2Ev@Base 1.6
 (optional=templinst)_ZN3pcl18MovingLeastSquaresINS_12PointXYZRGBAENS_11PointNormalEE9MLSResultD1Ev@Base 1.6
 (optional=templinst)_ZN3pcl18MovingLeastSquaresINS_12PointXYZRGBAENS_11PointNormalEE9MLSResultD2Ev@Base 1.6
 (optional=templinst)_ZN3pcl18MovingLeastSquaresINS_12PointXYZRGBAENS_11PointNormalEE9MLSResultaSERKS4_@Base 1.6
 (optional=templinst)_ZN3pcl18MovingLeastSquaresINS_12PointXYZRGBAENS_11PointNormalEEC1Ev@Base 1.6
 (optional=templinst)_ZN3pcl18MovingLeastSquaresINS_12PointXYZRGBAENS_11PointNormalEEC2Ev@Base 1.6
 (optional=templinst)_ZN3pcl18MovingLeastSquaresINS_12PointXYZRGBAENS_11PointNormalEED0Ev@Base 1.6
 (optional=templinst)_ZN3pcl18MovingLeastSquaresINS_12PointXYZRGBAENS_11PointNormalEED1Ev@Base 1.6
 (optional=templinst)_ZN3pcl18MovingLeastSquaresINS_12PointXYZRGBAENS_11PointNormalEED2Ev@Base 1.6
 _ZN3pcl18MovingLeastSquaresINS_12PointXYZRGBAENS_11PointNormalEEdaEPv@Base 1.6
 _ZN3pcl18MovingLeastSquaresINS_12PointXYZRGBAENS_11PointNormalEEdlEPv@Base 1.6
 _ZN3pcl18MovingLeastSquaresINS_12PointXYZRGBAENS_11PointNormalEEdlEPvRKSt9nothrow_t@Base 1.6
 _ZN3pcl18MovingLeastSquaresINS_12PointXYZRGBAENS_11PointNormalEEdlEPvS4_@Base 1.6
 _ZN3pcl18MovingLeastSquaresINS_12PointXYZRGBAENS_11PointNormalEEnaEm@Base 1.6
 _ZN3pcl18MovingLeastSquaresINS_12PointXYZRGBAENS_11PointNormalEEnwEm@Base 1.6
 _ZN3pcl18MovingLeastSquaresINS_12PointXYZRGBAENS_11PointNormalEEnwEmPv@Base 1.6
 _ZN3pcl18MovingLeastSquaresINS_12PointXYZRGBAENS_11PointNormalEEnwEmRKSt9nothrow_t@Base 1.6
 (optional=templinst)_ZN3pcl18MovingLeastSquaresINS_12PointXYZRGBAENS_11PointXYZRGBEE12MLSVoxelGrid4LeafC1Ev@Base 1.6
 (optional=templinst)_ZN3pcl18MovingLeastSquaresINS_12PointXYZRGBAENS_11PointXYZRGBEE12MLSVoxelGrid4LeafC2Ev@Base 1.6
 (optional=templinst)_ZN3pcl18MovingLeastSquaresINS_12PointXYZRGBAENS_11PointXYZRGBEE12MLSVoxelGrid6dilateEv@Base 1.6
 (optional=templinst)_ZN3pcl18MovingLeastSquaresINS_12PointXYZRGBAENS_11PointXYZRGBEE12MLSVoxelGridC1ERN5boost10shared_ptrIKNS_10PointCloudIS1_EEEERNS6_ISt6vectorIiSaIiEEEEf@Base 1.6
 (optional=templinst)_ZN3pcl18MovingLeastSquaresINS_12PointXYZRGBAENS_11PointXYZRGBEE12MLSVoxelGridC2ERN5boost10shared_ptrIKNS_10PointCloudIS1_EEEERNS6_ISt6vectorIiSaIiEEEEf@Base 1.6
 (optional=templinst)_ZN3pcl18MovingLeastSquaresINS_12PointXYZRGBAENS_11PointXYZRGBEE12MLSVoxelGridD1Ev@Base 1.6
 (optional=templinst)_ZN3pcl18MovingLeastSquaresINS_12PointXYZRGBAENS_11PointXYZRGBEE12MLSVoxelGridD2Ev@Base 1.6
 (optional=templinst)_ZN3pcl18MovingLeastSquaresINS_12PointXYZRGBAENS_11PointXYZRGBEE15getPointDensityEv@Base 1.6
 (optional=templinst)_ZN3pcl18MovingLeastSquaresINS_12PointXYZRGBAENS_11PointXYZRGBEE15getSearchMethodEv@Base 1.6
 (optional=templinst)_ZN3pcl18MovingLeastSquaresINS_12PointXYZRGBAENS_11PointXYZRGBEE15getSearchRadiusEv@Base 1.6
 (optional=templinst)_ZN3pcl18MovingLeastSquaresINS_12PointXYZRGBAENS_11PointXYZRGBEE15setPointDensityEi@Base 1.6
 (optional=templinst)_ZN3pcl18MovingLeastSquaresINS_12PointXYZRGBAENS_11PointXYZRGBEE15setSearchMethodERKN5boost10shared_ptrINS_6search6SearchIS1_EEEE@Base 1.6
 (optional=templinst)_ZN3pcl18MovingLeastSquaresINS_12PointXYZRGBAENS_11PointXYZRGBEE15setSearchRadiusEd@Base 1.6
 (optional=templinst)_ZN3pcl18MovingLeastSquaresINS_12PointXYZRGBAENS_11PointXYZRGBEE16getPolynomialFitEv@Base 1.6
 (optional=templinst)_ZN3pcl18MovingLeastSquaresINS_12PointXYZRGBAENS_11PointXYZRGBEE16setPolynomialFitEb@Base 1.6
 (optional=templinst)_ZN3pcl18MovingLeastSquaresINS_12PointXYZRGBAENS_11PointXYZRGBEE16setSqrGaussParamEd@Base 1.6
 (optional=templinst)_ZN3pcl18MovingLeastSquaresINS_12PointXYZRGBAENS_11PointXYZRGBEE17performProcessingERNS_10PointCloudIS2_EE@Base 1.6
 (optional=templinst)_ZN3pcl18MovingLeastSquaresINS_12PointXYZRGBAENS_11PointXYZRGBEE17setComputeNormalsEb@Base 1.6
 (optional=templinst)_ZN3pcl18MovingLeastSquaresINS_12PointXYZRGBAENS_11PointXYZRGBEE18getPolynomialOrderEv@Base 1.6
 (optional=templinst)_ZN3pcl18MovingLeastSquaresINS_12PointXYZRGBAENS_11PointXYZRGBEE18searchForNeighborsEiRSt6vectorIiSaIiEERS4_IfSaIfEE@Base 1.6
 (optional=templinst)_ZN3pcl18MovingLeastSquaresINS_12PointXYZRGBAENS_11PointXYZRGBEE18setPolynomialOrderEi@Base 1.6
 (optional=templinst)_ZN3pcl18MovingLeastSquaresINS_12PointXYZRGBAENS_11PointXYZRGBEE19getUpsamplingRadiusEv@Base 1.6
 (optional=templinst)_ZN3pcl18MovingLeastSquaresINS_12PointXYZRGBAENS_11PointXYZRGBEE19setUpsamplingMethodENS3_16UpsamplingMethodE@Base 1.6
 (optional=templinst)_ZN3pcl18MovingLeastSquaresINS_12PointXYZRGBAENS_11PointXYZRGBEE19setUpsamplingRadiusEd@Base 1.6
 (optional=templinst)_ZN3pcl18MovingLeastSquaresINS_12PointXYZRGBAENS_11PointXYZRGBEE20getDilationVoxelSizeEv@Base 1.6
 (optional=templinst)_ZN3pcl18MovingLeastSquaresINS_12PointXYZRGBAENS_11PointXYZRGBEE20setDilationVoxelSizeEf@Base 1.6
 (optional=templinst)_ZN3pcl18MovingLeastSquaresINS_12PointXYZRGBAENS_11PointXYZRGBEE21computeMLSPointNormalEiRKNS_10PointCloudIS1_EERKSt6vectorIiSaIiEERS8_IfSaIfEERNS4_IS2_EERNS4_INS_6NormalEEE@Base 1.6
 (optional=templinst)_ZN3pcl18MovingLeastSquaresINS_12PointXYZRGBAENS_11PointXYZRGBEE21getDilationIterationsEv@Base 1.6
 (optional=templinst)_ZN3pcl18MovingLeastSquaresINS_12PointXYZRGBAENS_11PointXYZRGBEE21getUpsamplingStepSizeEv@Base 1.6
 (optional=templinst)_ZN3pcl18MovingLeastSquaresINS_12PointXYZRGBAENS_11PointXYZRGBEE21setDilationIterationsEi@Base 1.6
 (optional=templinst)_ZN3pcl18MovingLeastSquaresINS_12PointXYZRGBAENS_11PointXYZRGBEE21setUpsamplingStepSizeEd@Base 1.6
 (optional=templinst)_ZN3pcl18MovingLeastSquaresINS_12PointXYZRGBAENS_11PointXYZRGBEE24projectPointToMLSSurfaceERfS4_RN5Eigen6MatrixIdLi3ELi1ELi0ELi3ELi1EEES8_S8_S4_RNS6_IfLi3ELi1ELi0ELi3ELi1EEERNS6_IdLin1ELi1ELi0ELin1ELi1EEEiRS2_RNS_6NormalE@Base 1.6
 (optional=templinst)_ZN3pcl18MovingLeastSquaresINS_12PointXYZRGBAENS_11PointXYZRGBEE7processERNS_10PointCloudIS2_EE@Base 1.6
 (optional=templinst)_ZN3pcl18MovingLeastSquaresINS_12PointXYZRGBAENS_11PointXYZRGBEE9MLSResultC1ERKS4_@Base 1.6
 (optional=templinst)_ZN3pcl18MovingLeastSquaresINS_12PointXYZRGBAENS_11PointXYZRGBEE9MLSResultC1ERN5Eigen6MatrixIdLi3ELi1ELi0ELi3ELi1EEES8_S8_NS6_IdLin1ELi1ELi0ELin1ELi1EEEiRf@Base 1.6
 (optional=templinst)_ZN3pcl18MovingLeastSquaresINS_12PointXYZRGBAENS_11PointXYZRGBEE9MLSResultC1Ev@Base 1.6
 (optional=templinst)_ZN3pcl18MovingLeastSquaresINS_12PointXYZRGBAENS_11PointXYZRGBEE9MLSResultC2ERKS4_@Base 1.6
 (optional=templinst)_ZN3pcl18MovingLeastSquaresINS_12PointXYZRGBAENS_11PointXYZRGBEE9MLSResultC2ERN5Eigen6MatrixIdLi3ELi1ELi0ELi3ELi1EEES8_S8_NS6_IdLin1ELi1ELi0ELin1ELi1EEEiRf@Base 1.6
 (optional=templinst)_ZN3pcl18MovingLeastSquaresINS_12PointXYZRGBAENS_11PointXYZRGBEE9MLSResultC2Ev@Base 1.6
 (optional=templinst)_ZN3pcl18MovingLeastSquaresINS_12PointXYZRGBAENS_11PointXYZRGBEE9MLSResultD1Ev@Base 1.6
 (optional=templinst)_ZN3pcl18MovingLeastSquaresINS_12PointXYZRGBAENS_11PointXYZRGBEE9MLSResultD2Ev@Base 1.6
 (optional=templinst)_ZN3pcl18MovingLeastSquaresINS_12PointXYZRGBAENS_11PointXYZRGBEE9MLSResultaSERKS4_@Base 1.6
 (optional=templinst)_ZN3pcl18MovingLeastSquaresINS_12PointXYZRGBAENS_11PointXYZRGBEEC1Ev@Base 1.6
 (optional=templinst)_ZN3pcl18MovingLeastSquaresINS_12PointXYZRGBAENS_11PointXYZRGBEEC2Ev@Base 1.6
 (optional=templinst)_ZN3pcl18MovingLeastSquaresINS_12PointXYZRGBAENS_11PointXYZRGBEED0Ev@Base 1.6
 (optional=templinst)_ZN3pcl18MovingLeastSquaresINS_12PointXYZRGBAENS_11PointXYZRGBEED1Ev@Base 1.6
 (optional=templinst)_ZN3pcl18MovingLeastSquaresINS_12PointXYZRGBAENS_11PointXYZRGBEED2Ev@Base 1.6
 _ZN3pcl18MovingLeastSquaresINS_12PointXYZRGBAENS_11PointXYZRGBEEdaEPv@Base 1.6
 _ZN3pcl18MovingLeastSquaresINS_12PointXYZRGBAENS_11PointXYZRGBEEdlEPv@Base 1.6
 _ZN3pcl18MovingLeastSquaresINS_12PointXYZRGBAENS_11PointXYZRGBEEdlEPvRKSt9nothrow_t@Base 1.6
 _ZN3pcl18MovingLeastSquaresINS_12PointXYZRGBAENS_11PointXYZRGBEEdlEPvS4_@Base 1.6
 _ZN3pcl18MovingLeastSquaresINS_12PointXYZRGBAENS_11PointXYZRGBEEnaEm@Base 1.6
 _ZN3pcl18MovingLeastSquaresINS_12PointXYZRGBAENS_11PointXYZRGBEEnwEm@Base 1.6
 _ZN3pcl18MovingLeastSquaresINS_12PointXYZRGBAENS_11PointXYZRGBEEnwEmPv@Base 1.6
 _ZN3pcl18MovingLeastSquaresINS_12PointXYZRGBAENS_11PointXYZRGBEEnwEmRKSt9nothrow_t@Base 1.6
 (optional=templinst)_ZN3pcl18MovingLeastSquaresINS_12PointXYZRGBAENS_8PointXYZEE12MLSVoxelGrid4LeafC1Ev@Base 1.6
 (optional=templinst)_ZN3pcl18MovingLeastSquaresINS_12PointXYZRGBAENS_8PointXYZEE12MLSVoxelGrid4LeafC2Ev@Base 1.6
 (optional=templinst)_ZN3pcl18MovingLeastSquaresINS_12PointXYZRGBAENS_8PointXYZEE12MLSVoxelGrid6dilateEv@Base 1.6
 (optional=templinst)_ZN3pcl18MovingLeastSquaresINS_12PointXYZRGBAENS_8PointXYZEE12MLSVoxelGridC1ERN5boost10shared_ptrIKNS_10PointCloudIS1_EEEERNS6_ISt6vectorIiSaIiEEEEf@Base 1.6
 (optional=templinst)_ZN3pcl18MovingLeastSquaresINS_12PointXYZRGBAENS_8PointXYZEE12MLSVoxelGridC2ERN5boost10shared_ptrIKNS_10PointCloudIS1_EEEERNS6_ISt6vectorIiSaIiEEEEf@Base 1.6
 (optional=templinst)_ZN3pcl18MovingLeastSquaresINS_12PointXYZRGBAENS_8PointXYZEE12MLSVoxelGridD1Ev@Base 1.6
 (optional=templinst)_ZN3pcl18MovingLeastSquaresINS_12PointXYZRGBAENS_8PointXYZEE12MLSVoxelGridD2Ev@Base 1.6
 (optional=templinst)_ZN3pcl18MovingLeastSquaresINS_12PointXYZRGBAENS_8PointXYZEE15getPointDensityEv@Base 1.6
 (optional=templinst)_ZN3pcl18MovingLeastSquaresINS_12PointXYZRGBAENS_8PointXYZEE15getSearchMethodEv@Base 1.6
 (optional=templinst)_ZN3pcl18MovingLeastSquaresINS_12PointXYZRGBAENS_8PointXYZEE15getSearchRadiusEv@Base 1.6
 (optional=templinst)_ZN3pcl18MovingLeastSquaresINS_12PointXYZRGBAENS_8PointXYZEE15setPointDensityEi@Base 1.6
 (optional=templinst)_ZN3pcl18MovingLeastSquaresINS_12PointXYZRGBAENS_8PointXYZEE15setSearchMethodERKN5boost10shared_ptrINS_6search6SearchIS1_EEEE@Base 1.6
 (optional=templinst)_ZN3pcl18MovingLeastSquaresINS_12PointXYZRGBAENS_8PointXYZEE15setSearchRadiusEd@Base 1.6
 (optional=templinst)_ZN3pcl18MovingLeastSquaresINS_12PointXYZRGBAENS_8PointXYZEE16getPolynomialFitEv@Base 1.6
 (optional=templinst)_ZN3pcl18MovingLeastSquaresINS_12PointXYZRGBAENS_8PointXYZEE16setPolynomialFitEb@Base 1.6
 (optional=templinst)_ZN3pcl18MovingLeastSquaresINS_12PointXYZRGBAENS_8PointXYZEE16setSqrGaussParamEd@Base 1.6
 (optional=templinst)_ZN3pcl18MovingLeastSquaresINS_12PointXYZRGBAENS_8PointXYZEE17performProcessingERNS_10PointCloudIS2_EE@Base 1.6
 (optional=templinst)_ZN3pcl18MovingLeastSquaresINS_12PointXYZRGBAENS_8PointXYZEE17setComputeNormalsEb@Base 1.6
 (optional=templinst)_ZN3pcl18MovingLeastSquaresINS_12PointXYZRGBAENS_8PointXYZEE18getPolynomialOrderEv@Base 1.6
 (optional=templinst)_ZN3pcl18MovingLeastSquaresINS_12PointXYZRGBAENS_8PointXYZEE18searchForNeighborsEiRSt6vectorIiSaIiEERS4_IfSaIfEE@Base 1.6
 (optional=templinst)_ZN3pcl18MovingLeastSquaresINS_12PointXYZRGBAENS_8PointXYZEE18setPolynomialOrderEi@Base 1.6
 (optional=templinst)_ZN3pcl18MovingLeastSquaresINS_12PointXYZRGBAENS_8PointXYZEE19getUpsamplingRadiusEv@Base 1.6
 (optional=templinst)_ZN3pcl18MovingLeastSquaresINS_12PointXYZRGBAENS_8PointXYZEE19setUpsamplingMethodENS3_16UpsamplingMethodE@Base 1.6
 (optional=templinst)_ZN3pcl18MovingLeastSquaresINS_12PointXYZRGBAENS_8PointXYZEE19setUpsamplingRadiusEd@Base 1.6
 (optional=templinst)_ZN3pcl18MovingLeastSquaresINS_12PointXYZRGBAENS_8PointXYZEE20getDilationVoxelSizeEv@Base 1.6
 (optional=templinst)_ZN3pcl18MovingLeastSquaresINS_12PointXYZRGBAENS_8PointXYZEE20setDilationVoxelSizeEf@Base 1.6
 (optional=templinst)_ZN3pcl18MovingLeastSquaresINS_12PointXYZRGBAENS_8PointXYZEE21computeMLSPointNormalEiRKNS_10PointCloudIS1_EERKSt6vectorIiSaIiEERS8_IfSaIfEERNS4_IS2_EERNS4_INS_6NormalEEE@Base 1.6
 (optional=templinst)_ZN3pcl18MovingLeastSquaresINS_12PointXYZRGBAENS_8PointXYZEE21getDilationIterationsEv@Base 1.6
 (optional=templinst)_ZN3pcl18MovingLeastSquaresINS_12PointXYZRGBAENS_8PointXYZEE21getUpsamplingStepSizeEv@Base 1.6
 (optional=templinst)_ZN3pcl18MovingLeastSquaresINS_12PointXYZRGBAENS_8PointXYZEE21setDilationIterationsEi@Base 1.6
 (optional=templinst)_ZN3pcl18MovingLeastSquaresINS_12PointXYZRGBAENS_8PointXYZEE21setUpsamplingStepSizeEd@Base 1.6
 (optional=templinst)_ZN3pcl18MovingLeastSquaresINS_12PointXYZRGBAENS_8PointXYZEE24projectPointToMLSSurfaceERfS4_RN5Eigen6MatrixIdLi3ELi1ELi0ELi3ELi1EEES8_S8_S4_RNS6_IfLi3ELi1ELi0ELi3ELi1EEERNS6_IdLin1ELi1ELi0ELin1ELi1EEEiRS2_RNS_6NormalE@Base 1.6
 (optional=templinst)_ZN3pcl18MovingLeastSquaresINS_12PointXYZRGBAENS_8PointXYZEE7processERNS_10PointCloudIS2_EE@Base 1.6
 (optional=templinst)_ZN3pcl18MovingLeastSquaresINS_12PointXYZRGBAENS_8PointXYZEE9MLSResultC1ERKS4_@Base 1.6
 (optional=templinst)_ZN3pcl18MovingLeastSquaresINS_12PointXYZRGBAENS_8PointXYZEE9MLSResultC1ERN5Eigen6MatrixIdLi3ELi1ELi0ELi3ELi1EEES8_S8_NS6_IdLin1ELi1ELi0ELin1ELi1EEEiRf@Base 1.6
 (optional=templinst)_ZN3pcl18MovingLeastSquaresINS_12PointXYZRGBAENS_8PointXYZEE9MLSResultC1Ev@Base 1.6
 (optional=templinst)_ZN3pcl18MovingLeastSquaresINS_12PointXYZRGBAENS_8PointXYZEE9MLSResultC2ERKS4_@Base 1.6
 (optional=templinst)_ZN3pcl18MovingLeastSquaresINS_12PointXYZRGBAENS_8PointXYZEE9MLSResultC2ERN5Eigen6MatrixIdLi3ELi1ELi0ELi3ELi1EEES8_S8_NS6_IdLin1ELi1ELi0ELin1ELi1EEEiRf@Base 1.6
 (optional=templinst)_ZN3pcl18MovingLeastSquaresINS_12PointXYZRGBAENS_8PointXYZEE9MLSResultC2Ev@Base 1.6
 (optional=templinst)_ZN3pcl18MovingLeastSquaresINS_12PointXYZRGBAENS_8PointXYZEE9MLSResultD1Ev@Base 1.6
 (optional=templinst)_ZN3pcl18MovingLeastSquaresINS_12PointXYZRGBAENS_8PointXYZEE9MLSResultD2Ev@Base 1.6
 (optional=templinst)_ZN3pcl18MovingLeastSquaresINS_12PointXYZRGBAENS_8PointXYZEE9MLSResultaSERKS4_@Base 1.6
 (optional=templinst)_ZN3pcl18MovingLeastSquaresINS_12PointXYZRGBAENS_8PointXYZEEC1Ev@Base 1.6
 (optional=templinst)_ZN3pcl18MovingLeastSquaresINS_12PointXYZRGBAENS_8PointXYZEEC2Ev@Base 1.6
 (optional=templinst)_ZN3pcl18MovingLeastSquaresINS_12PointXYZRGBAENS_8PointXYZEED0Ev@Base 1.6
 (optional=templinst)_ZN3pcl18MovingLeastSquaresINS_12PointXYZRGBAENS_8PointXYZEED1Ev@Base 1.6
 (optional=templinst)_ZN3pcl18MovingLeastSquaresINS_12PointXYZRGBAENS_8PointXYZEED2Ev@Base 1.6
 _ZN3pcl18MovingLeastSquaresINS_12PointXYZRGBAENS_8PointXYZEEdaEPv@Base 1.6
 _ZN3pcl18MovingLeastSquaresINS_12PointXYZRGBAENS_8PointXYZEEdlEPv@Base 1.6
 _ZN3pcl18MovingLeastSquaresINS_12PointXYZRGBAENS_8PointXYZEEdlEPvRKSt9nothrow_t@Base 1.6
 _ZN3pcl18MovingLeastSquaresINS_12PointXYZRGBAENS_8PointXYZEEdlEPvS4_@Base 1.6
 _ZN3pcl18MovingLeastSquaresINS_12PointXYZRGBAENS_8PointXYZEEnaEm@Base 1.6
 _ZN3pcl18MovingLeastSquaresINS_12PointXYZRGBAENS_8PointXYZEEnwEm@Base 1.6
 _ZN3pcl18MovingLeastSquaresINS_12PointXYZRGBAENS_8PointXYZEEnwEmPv@Base 1.6
 _ZN3pcl18MovingLeastSquaresINS_12PointXYZRGBAENS_8PointXYZEEnwEmRKSt9nothrow_t@Base 1.6
 (optional=templinst)_ZN3pcl18MovingLeastSquaresINS_12PointXYZRGBAES1_E12MLSVoxelGrid4LeafC1Ev@Base 1.6
 (optional=templinst)_ZN3pcl18MovingLeastSquaresINS_12PointXYZRGBAES1_E12MLSVoxelGrid4LeafC2Ev@Base 1.6
 (optional=templinst)_ZN3pcl18MovingLeastSquaresINS_12PointXYZRGBAES1_E12MLSVoxelGrid6dilateEv@Base 1.6
 (optional=templinst)_ZN3pcl18MovingLeastSquaresINS_12PointXYZRGBAES1_E12MLSVoxelGridC1ERN5boost10shared_ptrIKNS_10PointCloudIS1_EEEERNS5_ISt6vectorIiSaIiEEEEf@Base 1.6
 (optional=templinst)_ZN3pcl18MovingLeastSquaresINS_12PointXYZRGBAES1_E12MLSVoxelGridC2ERN5boost10shared_ptrIKNS_10PointCloudIS1_EEEERNS5_ISt6vectorIiSaIiEEEEf@Base 1.6
 (optional=templinst)_ZN3pcl18MovingLeastSquaresINS_12PointXYZRGBAES1_E12MLSVoxelGridD1Ev@Base 1.6
 (optional=templinst)_ZN3pcl18MovingLeastSquaresINS_12PointXYZRGBAES1_E12MLSVoxelGridD2Ev@Base 1.6
 (optional=templinst)_ZN3pcl18MovingLeastSquaresINS_12PointXYZRGBAES1_E15getPointDensityEv@Base 1.6
 (optional=templinst)_ZN3pcl18MovingLeastSquaresINS_12PointXYZRGBAES1_E15getSearchMethodEv@Base 1.6
 (optional=templinst)_ZN3pcl18MovingLeastSquaresINS_12PointXYZRGBAES1_E15getSearchRadiusEv@Base 1.6
 (optional=templinst)_ZN3pcl18MovingLeastSquaresINS_12PointXYZRGBAES1_E15setPointDensityEi@Base 1.6
 (optional=templinst)_ZN3pcl18MovingLeastSquaresINS_12PointXYZRGBAES1_E15setSearchMethodERKN5boost10shared_ptrINS_6search6SearchIS1_EEEE@Base 1.6
 (optional=templinst)_ZN3pcl18MovingLeastSquaresINS_12PointXYZRGBAES1_E15setSearchRadiusEd@Base 1.6
 (optional=templinst)_ZN3pcl18MovingLeastSquaresINS_12PointXYZRGBAES1_E16getPolynomialFitEv@Base 1.6
 (optional=templinst)_ZN3pcl18MovingLeastSquaresINS_12PointXYZRGBAES1_E16setPolynomialFitEb@Base 1.6
 (optional=templinst)_ZN3pcl18MovingLeastSquaresINS_12PointXYZRGBAES1_E16setSqrGaussParamEd@Base 1.6
 (optional=templinst)_ZN3pcl18MovingLeastSquaresINS_12PointXYZRGBAES1_E17performProcessingERNS_10PointCloudIS1_EE@Base 1.6
 (optional=templinst)_ZN3pcl18MovingLeastSquaresINS_12PointXYZRGBAES1_E17setComputeNormalsEb@Base 1.6
 (optional=templinst)_ZN3pcl18MovingLeastSquaresINS_12PointXYZRGBAES1_E18getPolynomialOrderEv@Base 1.6
 (optional=templinst)_ZN3pcl18MovingLeastSquaresINS_12PointXYZRGBAES1_E18searchForNeighborsEiRSt6vectorIiSaIiEERS3_IfSaIfEE@Base 1.6
 (optional=templinst)_ZN3pcl18MovingLeastSquaresINS_12PointXYZRGBAES1_E18setPolynomialOrderEi@Base 1.6
 (optional=templinst)_ZN3pcl18MovingLeastSquaresINS_12PointXYZRGBAES1_E19getUpsamplingRadiusEv@Base 1.6
 (optional=templinst)_ZN3pcl18MovingLeastSquaresINS_12PointXYZRGBAES1_E19setUpsamplingMethodENS2_16UpsamplingMethodE@Base 1.6
 (optional=templinst)_ZN3pcl18MovingLeastSquaresINS_12PointXYZRGBAES1_E19setUpsamplingRadiusEd@Base 1.6
 (optional=templinst)_ZN3pcl18MovingLeastSquaresINS_12PointXYZRGBAES1_E20getDilationVoxelSizeEv@Base 1.6
 (optional=templinst)_ZN3pcl18MovingLeastSquaresINS_12PointXYZRGBAES1_E20setDilationVoxelSizeEf@Base 1.6
 (optional=templinst)_ZN3pcl18MovingLeastSquaresINS_12PointXYZRGBAES1_E21computeMLSPointNormalEiRKNS_10PointCloudIS1_EERKSt6vectorIiSaIiEERS7_IfSaIfEERS4_RNS3_INS_6NormalEEE@Base 1.6
 (optional=templinst)_ZN3pcl18MovingLeastSquaresINS_12PointXYZRGBAES1_E21getDilationIterationsEv@Base 1.6
 (optional=templinst)_ZN3pcl18MovingLeastSquaresINS_12PointXYZRGBAES1_E21getUpsamplingStepSizeEv@Base 1.6
 (optional=templinst)_ZN3pcl18MovingLeastSquaresINS_12PointXYZRGBAES1_E21setDilationIterationsEi@Base 1.6
 (optional=templinst)_ZN3pcl18MovingLeastSquaresINS_12PointXYZRGBAES1_E21setUpsamplingStepSizeEd@Base 1.6
 (optional=templinst)_ZN3pcl18MovingLeastSquaresINS_12PointXYZRGBAES1_E24projectPointToMLSSurfaceERfS3_RN5Eigen6MatrixIdLi3ELi1ELi0ELi3ELi1EEES7_S7_S3_RNS5_IfLi3ELi1ELi0ELi3ELi1EEERNS5_IdLin1ELi1ELi0ELin1ELi1EEEiRS1_RNS_6NormalE@Base 1.6
 (optional=templinst)_ZN3pcl18MovingLeastSquaresINS_12PointXYZRGBAES1_E7processERNS_10PointCloudIS1_EE@Base 1.6
 (optional=templinst)_ZN3pcl18MovingLeastSquaresINS_12PointXYZRGBAES1_E9MLSResultC1ERKS3_@Base 1.6
 (optional=templinst)_ZN3pcl18MovingLeastSquaresINS_12PointXYZRGBAES1_E9MLSResultC1ERN5Eigen6MatrixIdLi3ELi1ELi0ELi3ELi1EEES7_S7_NS5_IdLin1ELi1ELi0ELin1ELi1EEEiRf@Base 1.6
 (optional=templinst)_ZN3pcl18MovingLeastSquaresINS_12PointXYZRGBAES1_E9MLSResultC1Ev@Base 1.6
 (optional=templinst)_ZN3pcl18MovingLeastSquaresINS_12PointXYZRGBAES1_E9MLSResultC2ERKS3_@Base 1.6
 (optional=templinst)_ZN3pcl18MovingLeastSquaresINS_12PointXYZRGBAES1_E9MLSResultC2ERN5Eigen6MatrixIdLi3ELi1ELi0ELi3ELi1EEES7_S7_NS5_IdLin1ELi1ELi0ELin1ELi1EEEiRf@Base 1.6
 (optional=templinst)_ZN3pcl18MovingLeastSquaresINS_12PointXYZRGBAES1_E9MLSResultC2Ev@Base 1.6
 (optional=templinst)_ZN3pcl18MovingLeastSquaresINS_12PointXYZRGBAES1_E9MLSResultD1Ev@Base 1.6
 (optional=templinst)_ZN3pcl18MovingLeastSquaresINS_12PointXYZRGBAES1_E9MLSResultD2Ev@Base 1.6
 (optional=templinst)_ZN3pcl18MovingLeastSquaresINS_12PointXYZRGBAES1_E9MLSResultaSERKS3_@Base 1.6
 (optional=templinst)_ZN3pcl18MovingLeastSquaresINS_12PointXYZRGBAES1_EC1Ev@Base 1.6
 (optional=templinst)_ZN3pcl18MovingLeastSquaresINS_12PointXYZRGBAES1_EC2Ev@Base 1.6
 (optional=templinst)_ZN3pcl18MovingLeastSquaresINS_12PointXYZRGBAES1_ED0Ev@Base 1.6
 (optional=templinst)_ZN3pcl18MovingLeastSquaresINS_12PointXYZRGBAES1_ED1Ev@Base 1.6
 (optional=templinst)_ZN3pcl18MovingLeastSquaresINS_12PointXYZRGBAES1_ED2Ev@Base 1.6
 _ZN3pcl18MovingLeastSquaresINS_12PointXYZRGBAES1_EdaEPv@Base 1.6
 _ZN3pcl18MovingLeastSquaresINS_12PointXYZRGBAES1_EdlEPv@Base 1.6
 _ZN3pcl18MovingLeastSquaresINS_12PointXYZRGBAES1_EdlEPvRKSt9nothrow_t@Base 1.6
 _ZN3pcl18MovingLeastSquaresINS_12PointXYZRGBAES1_EdlEPvS3_@Base 1.6
 _ZN3pcl18MovingLeastSquaresINS_12PointXYZRGBAES1_EnaEm@Base 1.6
 _ZN3pcl18MovingLeastSquaresINS_12PointXYZRGBAES1_EnwEm@Base 1.6
 _ZN3pcl18MovingLeastSquaresINS_12PointXYZRGBAES1_EnwEmPv@Base 1.6
 _ZN3pcl18MovingLeastSquaresINS_12PointXYZRGBAES1_EnwEmRKSt9nothrow_t@Base 1.6
 (optional=templinst)_ZN3pcl18MovingLeastSquaresINS_8PointXYZENS_11PointNormalEE12MLSVoxelGrid4LeafC1Ev@Base 1.6
 (optional=templinst)_ZN3pcl18MovingLeastSquaresINS_8PointXYZENS_11PointNormalEE12MLSVoxelGrid4LeafC2Ev@Base 1.6
 (optional=templinst)_ZN3pcl18MovingLeastSquaresINS_8PointXYZENS_11PointNormalEE12MLSVoxelGrid6dilateEv@Base 1.6
 (optional=templinst)_ZN3pcl18MovingLeastSquaresINS_8PointXYZENS_11PointNormalEE12MLSVoxelGridC1ERN5boost10shared_ptrIKNS_10PointCloudIS1_EEEERNS6_ISt6vectorIiSaIiEEEEf@Base 1.6
 (optional=templinst)_ZN3pcl18MovingLeastSquaresINS_8PointXYZENS_11PointNormalEE12MLSVoxelGridC2ERN5boost10shared_ptrIKNS_10PointCloudIS1_EEEERNS6_ISt6vectorIiSaIiEEEEf@Base 1.6
 (optional=templinst)_ZN3pcl18MovingLeastSquaresINS_8PointXYZENS_11PointNormalEE12MLSVoxelGridD1Ev@Base 1.6
 (optional=templinst)_ZN3pcl18MovingLeastSquaresINS_8PointXYZENS_11PointNormalEE12MLSVoxelGridD2Ev@Base 1.6
 (optional=templinst)_ZN3pcl18MovingLeastSquaresINS_8PointXYZENS_11PointNormalEE15getPointDensityEv@Base 1.6
 (optional=templinst)_ZN3pcl18MovingLeastSquaresINS_8PointXYZENS_11PointNormalEE15getSearchMethodEv@Base 1.6
 (optional=templinst)_ZN3pcl18MovingLeastSquaresINS_8PointXYZENS_11PointNormalEE15getSearchRadiusEv@Base 1.6
 (optional=templinst)_ZN3pcl18MovingLeastSquaresINS_8PointXYZENS_11PointNormalEE15setPointDensityEi@Base 1.6
 (optional=templinst)_ZN3pcl18MovingLeastSquaresINS_8PointXYZENS_11PointNormalEE15setSearchMethodERKN5boost10shared_ptrINS_6search6SearchIS1_EEEE@Base 1.6
 (optional=templinst)_ZN3pcl18MovingLeastSquaresINS_8PointXYZENS_11PointNormalEE15setSearchRadiusEd@Base 1.6
 (optional=templinst)_ZN3pcl18MovingLeastSquaresINS_8PointXYZENS_11PointNormalEE16getPolynomialFitEv@Base 1.6
 (optional=templinst)_ZN3pcl18MovingLeastSquaresINS_8PointXYZENS_11PointNormalEE16setPolynomialFitEb@Base 1.6
 (optional=templinst)_ZN3pcl18MovingLeastSquaresINS_8PointXYZENS_11PointNormalEE16setSqrGaussParamEd@Base 1.6
 (optional=templinst)_ZN3pcl18MovingLeastSquaresINS_8PointXYZENS_11PointNormalEE17performProcessingERNS_10PointCloudIS2_EE@Base 1.6
 (optional=templinst)_ZN3pcl18MovingLeastSquaresINS_8PointXYZENS_11PointNormalEE17setComputeNormalsEb@Base 1.6
 (optional=templinst)_ZN3pcl18MovingLeastSquaresINS_8PointXYZENS_11PointNormalEE18getPolynomialOrderEv@Base 1.6
 (optional=templinst)_ZN3pcl18MovingLeastSquaresINS_8PointXYZENS_11PointNormalEE18searchForNeighborsEiRSt6vectorIiSaIiEERS4_IfSaIfEE@Base 1.6
 (optional=templinst)_ZN3pcl18MovingLeastSquaresINS_8PointXYZENS_11PointNormalEE18setPolynomialOrderEi@Base 1.6
 (optional=templinst)_ZN3pcl18MovingLeastSquaresINS_8PointXYZENS_11PointNormalEE19getUpsamplingRadiusEv@Base 1.6
 (optional=templinst)_ZN3pcl18MovingLeastSquaresINS_8PointXYZENS_11PointNormalEE19setUpsamplingMethodENS3_16UpsamplingMethodE@Base 1.6
 (optional=templinst)_ZN3pcl18MovingLeastSquaresINS_8PointXYZENS_11PointNormalEE19setUpsamplingRadiusEd@Base 1.6
 (optional=templinst)_ZN3pcl18MovingLeastSquaresINS_8PointXYZENS_11PointNormalEE20getDilationVoxelSizeEv@Base 1.6
 (optional=templinst)_ZN3pcl18MovingLeastSquaresINS_8PointXYZENS_11PointNormalEE20setDilationVoxelSizeEf@Base 1.6
 (optional=templinst)_ZN3pcl18MovingLeastSquaresINS_8PointXYZENS_11PointNormalEE21computeMLSPointNormalEiRKNS_10PointCloudIS1_EERKSt6vectorIiSaIiEERS8_IfSaIfEERNS4_IS2_EERNS4_INS_6NormalEEE@Base 1.6
 (optional=templinst)_ZN3pcl18MovingLeastSquaresINS_8PointXYZENS_11PointNormalEE21getDilationIterationsEv@Base 1.6
 (optional=templinst)_ZN3pcl18MovingLeastSquaresINS_8PointXYZENS_11PointNormalEE21getUpsamplingStepSizeEv@Base 1.6
 (optional=templinst)_ZN3pcl18MovingLeastSquaresINS_8PointXYZENS_11PointNormalEE21setDilationIterationsEi@Base 1.6
 (optional=templinst)_ZN3pcl18MovingLeastSquaresINS_8PointXYZENS_11PointNormalEE21setUpsamplingStepSizeEd@Base 1.6
 (optional=templinst)_ZN3pcl18MovingLeastSquaresINS_8PointXYZENS_11PointNormalEE24projectPointToMLSSurfaceERfS4_RN5Eigen6MatrixIdLi3ELi1ELi0ELi3ELi1EEES8_S8_S4_RNS6_IfLi3ELi1ELi0ELi3ELi1EEERNS6_IdLin1ELi1ELi0ELin1ELi1EEEiRS2_RNS_6NormalE@Base 1.6
 (optional=templinst)_ZN3pcl18MovingLeastSquaresINS_8PointXYZENS_11PointNormalEE7processERNS_10PointCloudIS2_EE@Base 1.6
 (optional=templinst)_ZN3pcl18MovingLeastSquaresINS_8PointXYZENS_11PointNormalEE9MLSResultC1ERKS4_@Base 1.6
 (optional=templinst)_ZN3pcl18MovingLeastSquaresINS_8PointXYZENS_11PointNormalEE9MLSResultC1ERN5Eigen6MatrixIdLi3ELi1ELi0ELi3ELi1EEES8_S8_NS6_IdLin1ELi1ELi0ELin1ELi1EEEiRf@Base 1.6
 (optional=templinst)_ZN3pcl18MovingLeastSquaresINS_8PointXYZENS_11PointNormalEE9MLSResultC1Ev@Base 1.6
 (optional=templinst)_ZN3pcl18MovingLeastSquaresINS_8PointXYZENS_11PointNormalEE9MLSResultC2ERKS4_@Base 1.6
 (optional=templinst)_ZN3pcl18MovingLeastSquaresINS_8PointXYZENS_11PointNormalEE9MLSResultC2ERN5Eigen6MatrixIdLi3ELi1ELi0ELi3ELi1EEES8_S8_NS6_IdLin1ELi1ELi0ELin1ELi1EEEiRf@Base 1.6
 (optional=templinst)_ZN3pcl18MovingLeastSquaresINS_8PointXYZENS_11PointNormalEE9MLSResultC2Ev@Base 1.6
 (optional=templinst)_ZN3pcl18MovingLeastSquaresINS_8PointXYZENS_11PointNormalEE9MLSResultD1Ev@Base 1.6
 (optional=templinst)_ZN3pcl18MovingLeastSquaresINS_8PointXYZENS_11PointNormalEE9MLSResultD2Ev@Base 1.6
 (optional=templinst)_ZN3pcl18MovingLeastSquaresINS_8PointXYZENS_11PointNormalEE9MLSResultaSERKS4_@Base 1.6
 (optional=templinst)_ZN3pcl18MovingLeastSquaresINS_8PointXYZENS_11PointNormalEEC1Ev@Base 1.6
 (optional=templinst)_ZN3pcl18MovingLeastSquaresINS_8PointXYZENS_11PointNormalEEC2Ev@Base 1.6
 (optional=templinst)_ZN3pcl18MovingLeastSquaresINS_8PointXYZENS_11PointNormalEED0Ev@Base 1.6
 (optional=templinst)_ZN3pcl18MovingLeastSquaresINS_8PointXYZENS_11PointNormalEED1Ev@Base 1.6
 (optional=templinst)_ZN3pcl18MovingLeastSquaresINS_8PointXYZENS_11PointNormalEED2Ev@Base 1.6
 _ZN3pcl18MovingLeastSquaresINS_8PointXYZENS_11PointNormalEEdaEPv@Base 1.6
 _ZN3pcl18MovingLeastSquaresINS_8PointXYZENS_11PointNormalEEdlEPv@Base 1.6
 _ZN3pcl18MovingLeastSquaresINS_8PointXYZENS_11PointNormalEEdlEPvRKSt9nothrow_t@Base 1.6
 _ZN3pcl18MovingLeastSquaresINS_8PointXYZENS_11PointNormalEEdlEPvS4_@Base 1.6
 _ZN3pcl18MovingLeastSquaresINS_8PointXYZENS_11PointNormalEEnaEm@Base 1.6
 _ZN3pcl18MovingLeastSquaresINS_8PointXYZENS_11PointNormalEEnwEm@Base 1.6
 _ZN3pcl18MovingLeastSquaresINS_8PointXYZENS_11PointNormalEEnwEmPv@Base 1.6
 _ZN3pcl18MovingLeastSquaresINS_8PointXYZENS_11PointNormalEEnwEmRKSt9nothrow_t@Base 1.6
 (optional=templinst)_ZN3pcl18MovingLeastSquaresINS_8PointXYZENS_11PointXYZRGBEE12MLSVoxelGrid4LeafC1Ev@Base 1.6
 (optional=templinst)_ZN3pcl18MovingLeastSquaresINS_8PointXYZENS_11PointXYZRGBEE12MLSVoxelGrid4LeafC2Ev@Base 1.6
 (optional=templinst)_ZN3pcl18MovingLeastSquaresINS_8PointXYZENS_11PointXYZRGBEE12MLSVoxelGrid6dilateEv@Base 1.6
 (optional=templinst)_ZN3pcl18MovingLeastSquaresINS_8PointXYZENS_11PointXYZRGBEE12MLSVoxelGridC1ERN5boost10shared_ptrIKNS_10PointCloudIS1_EEEERNS6_ISt6vectorIiSaIiEEEEf@Base 1.6
 (optional=templinst)_ZN3pcl18MovingLeastSquaresINS_8PointXYZENS_11PointXYZRGBEE12MLSVoxelGridC2ERN5boost10shared_ptrIKNS_10PointCloudIS1_EEEERNS6_ISt6vectorIiSaIiEEEEf@Base 1.6
 (optional=templinst)_ZN3pcl18MovingLeastSquaresINS_8PointXYZENS_11PointXYZRGBEE12MLSVoxelGridD1Ev@Base 1.6
 (optional=templinst)_ZN3pcl18MovingLeastSquaresINS_8PointXYZENS_11PointXYZRGBEE12MLSVoxelGridD2Ev@Base 1.6
 (optional=templinst)_ZN3pcl18MovingLeastSquaresINS_8PointXYZENS_11PointXYZRGBEE15getPointDensityEv@Base 1.6
 (optional=templinst)_ZN3pcl18MovingLeastSquaresINS_8PointXYZENS_11PointXYZRGBEE15getSearchMethodEv@Base 1.6
 (optional=templinst)_ZN3pcl18MovingLeastSquaresINS_8PointXYZENS_11PointXYZRGBEE15getSearchRadiusEv@Base 1.6
 (optional=templinst)_ZN3pcl18MovingLeastSquaresINS_8PointXYZENS_11PointXYZRGBEE15setPointDensityEi@Base 1.6
 (optional=templinst)_ZN3pcl18MovingLeastSquaresINS_8PointXYZENS_11PointXYZRGBEE15setSearchMethodERKN5boost10shared_ptrINS_6search6SearchIS1_EEEE@Base 1.6
 (optional=templinst)_ZN3pcl18MovingLeastSquaresINS_8PointXYZENS_11PointXYZRGBEE15setSearchRadiusEd@Base 1.6
 (optional=templinst)_ZN3pcl18MovingLeastSquaresINS_8PointXYZENS_11PointXYZRGBEE16getPolynomialFitEv@Base 1.6
 (optional=templinst)_ZN3pcl18MovingLeastSquaresINS_8PointXYZENS_11PointXYZRGBEE16setPolynomialFitEb@Base 1.6
 (optional=templinst)_ZN3pcl18MovingLeastSquaresINS_8PointXYZENS_11PointXYZRGBEE16setSqrGaussParamEd@Base 1.6
 (optional=templinst)_ZN3pcl18MovingLeastSquaresINS_8PointXYZENS_11PointXYZRGBEE17performProcessingERNS_10PointCloudIS2_EE@Base 1.6
 (optional=templinst)_ZN3pcl18MovingLeastSquaresINS_8PointXYZENS_11PointXYZRGBEE17setComputeNormalsEb@Base 1.6
 (optional=templinst)_ZN3pcl18MovingLeastSquaresINS_8PointXYZENS_11PointXYZRGBEE18getPolynomialOrderEv@Base 1.6
 (optional=templinst)_ZN3pcl18MovingLeastSquaresINS_8PointXYZENS_11PointXYZRGBEE18searchForNeighborsEiRSt6vectorIiSaIiEERS4_IfSaIfEE@Base 1.6
 (optional=templinst)_ZN3pcl18MovingLeastSquaresINS_8PointXYZENS_11PointXYZRGBEE18setPolynomialOrderEi@Base 1.6
 (optional=templinst)_ZN3pcl18MovingLeastSquaresINS_8PointXYZENS_11PointXYZRGBEE19getUpsamplingRadiusEv@Base 1.6
 (optional=templinst)_ZN3pcl18MovingLeastSquaresINS_8PointXYZENS_11PointXYZRGBEE19setUpsamplingMethodENS3_16UpsamplingMethodE@Base 1.6
 (optional=templinst)_ZN3pcl18MovingLeastSquaresINS_8PointXYZENS_11PointXYZRGBEE19setUpsamplingRadiusEd@Base 1.6
 (optional=templinst)_ZN3pcl18MovingLeastSquaresINS_8PointXYZENS_11PointXYZRGBEE20getDilationVoxelSizeEv@Base 1.6
 (optional=templinst)_ZN3pcl18MovingLeastSquaresINS_8PointXYZENS_11PointXYZRGBEE20setDilationVoxelSizeEf@Base 1.6
 (optional=templinst)_ZN3pcl18MovingLeastSquaresINS_8PointXYZENS_11PointXYZRGBEE21computeMLSPointNormalEiRKNS_10PointCloudIS1_EERKSt6vectorIiSaIiEERS8_IfSaIfEERNS4_IS2_EERNS4_INS_6NormalEEE@Base 1.6
 (optional=templinst)_ZN3pcl18MovingLeastSquaresINS_8PointXYZENS_11PointXYZRGBEE21getDilationIterationsEv@Base 1.6
 (optional=templinst)_ZN3pcl18MovingLeastSquaresINS_8PointXYZENS_11PointXYZRGBEE21getUpsamplingStepSizeEv@Base 1.6
 (optional=templinst)_ZN3pcl18MovingLeastSquaresINS_8PointXYZENS_11PointXYZRGBEE21setDilationIterationsEi@Base 1.6
 (optional=templinst)_ZN3pcl18MovingLeastSquaresINS_8PointXYZENS_11PointXYZRGBEE21setUpsamplingStepSizeEd@Base 1.6
 (optional=templinst)_ZN3pcl18MovingLeastSquaresINS_8PointXYZENS_11PointXYZRGBEE24projectPointToMLSSurfaceERfS4_RN5Eigen6MatrixIdLi3ELi1ELi0ELi3ELi1EEES8_S8_S4_RNS6_IfLi3ELi1ELi0ELi3ELi1EEERNS6_IdLin1ELi1ELi0ELin1ELi1EEEiRS2_RNS_6NormalE@Base 1.6
 (optional=templinst)_ZN3pcl18MovingLeastSquaresINS_8PointXYZENS_11PointXYZRGBEE7processERNS_10PointCloudIS2_EE@Base 1.6
 (optional=templinst)_ZN3pcl18MovingLeastSquaresINS_8PointXYZENS_11PointXYZRGBEE9MLSResultC1ERKS4_@Base 1.6
 (optional=templinst)_ZN3pcl18MovingLeastSquaresINS_8PointXYZENS_11PointXYZRGBEE9MLSResultC1ERN5Eigen6MatrixIdLi3ELi1ELi0ELi3ELi1EEES8_S8_NS6_IdLin1ELi1ELi0ELin1ELi1EEEiRf@Base 1.6
 (optional=templinst)_ZN3pcl18MovingLeastSquaresINS_8PointXYZENS_11PointXYZRGBEE9MLSResultC1Ev@Base 1.6
 (optional=templinst)_ZN3pcl18MovingLeastSquaresINS_8PointXYZENS_11PointXYZRGBEE9MLSResultC2ERKS4_@Base 1.6
 (optional=templinst)_ZN3pcl18MovingLeastSquaresINS_8PointXYZENS_11PointXYZRGBEE9MLSResultC2ERN5Eigen6MatrixIdLi3ELi1ELi0ELi3ELi1EEES8_S8_NS6_IdLin1ELi1ELi0ELin1ELi1EEEiRf@Base 1.6
 (optional=templinst)_ZN3pcl18MovingLeastSquaresINS_8PointXYZENS_11PointXYZRGBEE9MLSResultC2Ev@Base 1.6
 (optional=templinst)_ZN3pcl18MovingLeastSquaresINS_8PointXYZENS_11PointXYZRGBEE9MLSResultD1Ev@Base 1.6
 (optional=templinst)_ZN3pcl18MovingLeastSquaresINS_8PointXYZENS_11PointXYZRGBEE9MLSResultD2Ev@Base 1.6
 (optional=templinst)_ZN3pcl18MovingLeastSquaresINS_8PointXYZENS_11PointXYZRGBEE9MLSResultaSERKS4_@Base 1.6
 (optional=templinst)_ZN3pcl18MovingLeastSquaresINS_8PointXYZENS_11PointXYZRGBEEC1Ev@Base 1.6
 (optional=templinst)_ZN3pcl18MovingLeastSquaresINS_8PointXYZENS_11PointXYZRGBEEC2Ev@Base 1.6
 (optional=templinst)_ZN3pcl18MovingLeastSquaresINS_8PointXYZENS_11PointXYZRGBEED0Ev@Base 1.6
 (optional=templinst)_ZN3pcl18MovingLeastSquaresINS_8PointXYZENS_11PointXYZRGBEED1Ev@Base 1.6
 (optional=templinst)_ZN3pcl18MovingLeastSquaresINS_8PointXYZENS_11PointXYZRGBEED2Ev@Base 1.6
 _ZN3pcl18MovingLeastSquaresINS_8PointXYZENS_11PointXYZRGBEEdaEPv@Base 1.6
 _ZN3pcl18MovingLeastSquaresINS_8PointXYZENS_11PointXYZRGBEEdlEPv@Base 1.6
 _ZN3pcl18MovingLeastSquaresINS_8PointXYZENS_11PointXYZRGBEEdlEPvRKSt9nothrow_t@Base 1.6
 _ZN3pcl18MovingLeastSquaresINS_8PointXYZENS_11PointXYZRGBEEdlEPvS4_@Base 1.6
 _ZN3pcl18MovingLeastSquaresINS_8PointXYZENS_11PointXYZRGBEEnaEm@Base 1.6
 _ZN3pcl18MovingLeastSquaresINS_8PointXYZENS_11PointXYZRGBEEnwEm@Base 1.6
 _ZN3pcl18MovingLeastSquaresINS_8PointXYZENS_11PointXYZRGBEEnwEmPv@Base 1.6
 _ZN3pcl18MovingLeastSquaresINS_8PointXYZENS_11PointXYZRGBEEnwEmRKSt9nothrow_t@Base 1.6
 (optional=templinst)_ZN3pcl18MovingLeastSquaresINS_8PointXYZENS_12PointXYZRGBAEE12MLSVoxelGrid4LeafC1Ev@Base 1.6
 (optional=templinst)_ZN3pcl18MovingLeastSquaresINS_8PointXYZENS_12PointXYZRGBAEE12MLSVoxelGrid4LeafC2Ev@Base 1.6
 (optional=templinst)_ZN3pcl18MovingLeastSquaresINS_8PointXYZENS_12PointXYZRGBAEE12MLSVoxelGrid6dilateEv@Base 1.6
 (optional=templinst)_ZN3pcl18MovingLeastSquaresINS_8PointXYZENS_12PointXYZRGBAEE12MLSVoxelGridC1ERN5boost10shared_ptrIKNS_10PointCloudIS1_EEEERNS6_ISt6vectorIiSaIiEEEEf@Base 1.6
 (optional=templinst)_ZN3pcl18MovingLeastSquaresINS_8PointXYZENS_12PointXYZRGBAEE12MLSVoxelGridC2ERN5boost10shared_ptrIKNS_10PointCloudIS1_EEEERNS6_ISt6vectorIiSaIiEEEEf@Base 1.6
 (optional=templinst)_ZN3pcl18MovingLeastSquaresINS_8PointXYZENS_12PointXYZRGBAEE12MLSVoxelGridD1Ev@Base 1.6
 (optional=templinst)_ZN3pcl18MovingLeastSquaresINS_8PointXYZENS_12PointXYZRGBAEE12MLSVoxelGridD2Ev@Base 1.6
 (optional=templinst)_ZN3pcl18MovingLeastSquaresINS_8PointXYZENS_12PointXYZRGBAEE15getPointDensityEv@Base 1.6
 (optional=templinst)_ZN3pcl18MovingLeastSquaresINS_8PointXYZENS_12PointXYZRGBAEE15getSearchMethodEv@Base 1.6
 (optional=templinst)_ZN3pcl18MovingLeastSquaresINS_8PointXYZENS_12PointXYZRGBAEE15getSearchRadiusEv@Base 1.6
 (optional=templinst)_ZN3pcl18MovingLeastSquaresINS_8PointXYZENS_12PointXYZRGBAEE15setPointDensityEi@Base 1.6
 (optional=templinst)_ZN3pcl18MovingLeastSquaresINS_8PointXYZENS_12PointXYZRGBAEE15setSearchMethodERKN5boost10shared_ptrINS_6search6SearchIS1_EEEE@Base 1.6
 (optional=templinst)_ZN3pcl18MovingLeastSquaresINS_8PointXYZENS_12PointXYZRGBAEE15setSearchRadiusEd@Base 1.6
 (optional=templinst)_ZN3pcl18MovingLeastSquaresINS_8PointXYZENS_12PointXYZRGBAEE16getPolynomialFitEv@Base 1.6
 (optional=templinst)_ZN3pcl18MovingLeastSquaresINS_8PointXYZENS_12PointXYZRGBAEE16setPolynomialFitEb@Base 1.6
 (optional=templinst)_ZN3pcl18MovingLeastSquaresINS_8PointXYZENS_12PointXYZRGBAEE16setSqrGaussParamEd@Base 1.6
 (optional=templinst)_ZN3pcl18MovingLeastSquaresINS_8PointXYZENS_12PointXYZRGBAEE17performProcessingERNS_10PointCloudIS2_EE@Base 1.6
 (optional=templinst)_ZN3pcl18MovingLeastSquaresINS_8PointXYZENS_12PointXYZRGBAEE17setComputeNormalsEb@Base 1.6
 (optional=templinst)_ZN3pcl18MovingLeastSquaresINS_8PointXYZENS_12PointXYZRGBAEE18getPolynomialOrderEv@Base 1.6
 (optional=templinst)_ZN3pcl18MovingLeastSquaresINS_8PointXYZENS_12PointXYZRGBAEE18searchForNeighborsEiRSt6vectorIiSaIiEERS4_IfSaIfEE@Base 1.6
 (optional=templinst)_ZN3pcl18MovingLeastSquaresINS_8PointXYZENS_12PointXYZRGBAEE18setPolynomialOrderEi@Base 1.6
 (optional=templinst)_ZN3pcl18MovingLeastSquaresINS_8PointXYZENS_12PointXYZRGBAEE19getUpsamplingRadiusEv@Base 1.6
 (optional=templinst)_ZN3pcl18MovingLeastSquaresINS_8PointXYZENS_12PointXYZRGBAEE19setUpsamplingMethodENS3_16UpsamplingMethodE@Base 1.6
 (optional=templinst)_ZN3pcl18MovingLeastSquaresINS_8PointXYZENS_12PointXYZRGBAEE19setUpsamplingRadiusEd@Base 1.6
 (optional=templinst)_ZN3pcl18MovingLeastSquaresINS_8PointXYZENS_12PointXYZRGBAEE20getDilationVoxelSizeEv@Base 1.6
 (optional=templinst)_ZN3pcl18MovingLeastSquaresINS_8PointXYZENS_12PointXYZRGBAEE20setDilationVoxelSizeEf@Base 1.6
 (optional=templinst)_ZN3pcl18MovingLeastSquaresINS_8PointXYZENS_12PointXYZRGBAEE21computeMLSPointNormalEiRKNS_10PointCloudIS1_EERKSt6vectorIiSaIiEERS8_IfSaIfEERNS4_IS2_EERNS4_INS_6NormalEEE@Base 1.6
 (optional=templinst)_ZN3pcl18MovingLeastSquaresINS_8PointXYZENS_12PointXYZRGBAEE21getDilationIterationsEv@Base 1.6
 (optional=templinst)_ZN3pcl18MovingLeastSquaresINS_8PointXYZENS_12PointXYZRGBAEE21getUpsamplingStepSizeEv@Base 1.6
 (optional=templinst)_ZN3pcl18MovingLeastSquaresINS_8PointXYZENS_12PointXYZRGBAEE21setDilationIterationsEi@Base 1.6
 (optional=templinst)_ZN3pcl18MovingLeastSquaresINS_8PointXYZENS_12PointXYZRGBAEE21setUpsamplingStepSizeEd@Base 1.6
 (optional=templinst)_ZN3pcl18MovingLeastSquaresINS_8PointXYZENS_12PointXYZRGBAEE24projectPointToMLSSurfaceERfS4_RN5Eigen6MatrixIdLi3ELi1ELi0ELi3ELi1EEES8_S8_S4_RNS6_IfLi3ELi1ELi0ELi3ELi1EEERNS6_IdLin1ELi1ELi0ELin1ELi1EEEiRS2_RNS_6NormalE@Base 1.6
 (optional=templinst)_ZN3pcl18MovingLeastSquaresINS_8PointXYZENS_12PointXYZRGBAEE7processERNS_10PointCloudIS2_EE@Base 1.6
 (optional=templinst)_ZN3pcl18MovingLeastSquaresINS_8PointXYZENS_12PointXYZRGBAEE9MLSResultC1ERKS4_@Base 1.6
 (optional=templinst)_ZN3pcl18MovingLeastSquaresINS_8PointXYZENS_12PointXYZRGBAEE9MLSResultC1ERN5Eigen6MatrixIdLi3ELi1ELi0ELi3ELi1EEES8_S8_NS6_IdLin1ELi1ELi0ELin1ELi1EEEiRf@Base 1.6
 (optional=templinst)_ZN3pcl18MovingLeastSquaresINS_8PointXYZENS_12PointXYZRGBAEE9MLSResultC1Ev@Base 1.6
 (optional=templinst)_ZN3pcl18MovingLeastSquaresINS_8PointXYZENS_12PointXYZRGBAEE9MLSResultC2ERKS4_@Base 1.6
 (optional=templinst)_ZN3pcl18MovingLeastSquaresINS_8PointXYZENS_12PointXYZRGBAEE9MLSResultC2ERN5Eigen6MatrixIdLi3ELi1ELi0ELi3ELi1EEES8_S8_NS6_IdLin1ELi1ELi0ELin1ELi1EEEiRf@Base 1.6
 (optional=templinst)_ZN3pcl18MovingLeastSquaresINS_8PointXYZENS_12PointXYZRGBAEE9MLSResultC2Ev@Base 1.6
 (optional=templinst)_ZN3pcl18MovingLeastSquaresINS_8PointXYZENS_12PointXYZRGBAEE9MLSResultD1Ev@Base 1.6
 (optional=templinst)_ZN3pcl18MovingLeastSquaresINS_8PointXYZENS_12PointXYZRGBAEE9MLSResultD2Ev@Base 1.6
 (optional=templinst)_ZN3pcl18MovingLeastSquaresINS_8PointXYZENS_12PointXYZRGBAEE9MLSResultaSERKS4_@Base 1.6
 (optional=templinst)_ZN3pcl18MovingLeastSquaresINS_8PointXYZENS_12PointXYZRGBAEEC1Ev@Base 1.6
 (optional=templinst)_ZN3pcl18MovingLeastSquaresINS_8PointXYZENS_12PointXYZRGBAEEC2Ev@Base 1.6
 (optional=templinst)_ZN3pcl18MovingLeastSquaresINS_8PointXYZENS_12PointXYZRGBAEED0Ev@Base 1.6
 (optional=templinst)_ZN3pcl18MovingLeastSquaresINS_8PointXYZENS_12PointXYZRGBAEED1Ev@Base 1.6
 (optional=templinst)_ZN3pcl18MovingLeastSquaresINS_8PointXYZENS_12PointXYZRGBAEED2Ev@Base 1.6
 _ZN3pcl18MovingLeastSquaresINS_8PointXYZENS_12PointXYZRGBAEEdaEPv@Base 1.6
 _ZN3pcl18MovingLeastSquaresINS_8PointXYZENS_12PointXYZRGBAEEdlEPv@Base 1.6
 _ZN3pcl18MovingLeastSquaresINS_8PointXYZENS_12PointXYZRGBAEEdlEPvRKSt9nothrow_t@Base 1.6
 _ZN3pcl18MovingLeastSquaresINS_8PointXYZENS_12PointXYZRGBAEEdlEPvS4_@Base 1.6
 _ZN3pcl18MovingLeastSquaresINS_8PointXYZENS_12PointXYZRGBAEEnaEm@Base 1.6
 _ZN3pcl18MovingLeastSquaresINS_8PointXYZENS_12PointXYZRGBAEEnwEm@Base 1.6
 _ZN3pcl18MovingLeastSquaresINS_8PointXYZENS_12PointXYZRGBAEEnwEmPv@Base 1.6
 _ZN3pcl18MovingLeastSquaresINS_8PointXYZENS_12PointXYZRGBAEEnwEmRKSt9nothrow_t@Base 1.6
 (optional=templinst)_ZN3pcl18MovingLeastSquaresINS_8PointXYZES1_E12MLSVoxelGrid4LeafC1Ev@Base 1.6
 (optional=templinst)_ZN3pcl18MovingLeastSquaresINS_8PointXYZES1_E12MLSVoxelGrid4LeafC2Ev@Base 1.6
 (optional=templinst)_ZN3pcl18MovingLeastSquaresINS_8PointXYZES1_E12MLSVoxelGrid6dilateEv@Base 1.6
 (optional=templinst)_ZN3pcl18MovingLeastSquaresINS_8PointXYZES1_E12MLSVoxelGridC1ERN5boost10shared_ptrIKNS_10PointCloudIS1_EEEERNS5_ISt6vectorIiSaIiEEEEf@Base 1.6
 (optional=templinst)_ZN3pcl18MovingLeastSquaresINS_8PointXYZES1_E12MLSVoxelGridC2ERN5boost10shared_ptrIKNS_10PointCloudIS1_EEEERNS5_ISt6vectorIiSaIiEEEEf@Base 1.6
 (optional=templinst)_ZN3pcl18MovingLeastSquaresINS_8PointXYZES1_E12MLSVoxelGridD1Ev@Base 1.6
 (optional=templinst)_ZN3pcl18MovingLeastSquaresINS_8PointXYZES1_E12MLSVoxelGridD2Ev@Base 1.6
 (optional=templinst)_ZN3pcl18MovingLeastSquaresINS_8PointXYZES1_E15getPointDensityEv@Base 1.6
 (optional=templinst)_ZN3pcl18MovingLeastSquaresINS_8PointXYZES1_E15getSearchMethodEv@Base 1.6
 (optional=templinst)_ZN3pcl18MovingLeastSquaresINS_8PointXYZES1_E15getSearchRadiusEv@Base 1.6
 (optional=templinst)_ZN3pcl18MovingLeastSquaresINS_8PointXYZES1_E15setPointDensityEi@Base 1.6
 (optional=templinst)_ZN3pcl18MovingLeastSquaresINS_8PointXYZES1_E15setSearchMethodERKN5boost10shared_ptrINS_6search6SearchIS1_EEEE@Base 1.6
 (optional=templinst)_ZN3pcl18MovingLeastSquaresINS_8PointXYZES1_E15setSearchRadiusEd@Base 1.6
 (optional=templinst)_ZN3pcl18MovingLeastSquaresINS_8PointXYZES1_E16getPolynomialFitEv@Base 1.6
 (optional=templinst)_ZN3pcl18MovingLeastSquaresINS_8PointXYZES1_E16setPolynomialFitEb@Base 1.6
 (optional=templinst)_ZN3pcl18MovingLeastSquaresINS_8PointXYZES1_E16setSqrGaussParamEd@Base 1.6
 (optional=templinst)_ZN3pcl18MovingLeastSquaresINS_8PointXYZES1_E17performProcessingERNS_10PointCloudIS1_EE@Base 1.6
 (optional=templinst)_ZN3pcl18MovingLeastSquaresINS_8PointXYZES1_E17setComputeNormalsEb@Base 1.6
 (optional=templinst)_ZN3pcl18MovingLeastSquaresINS_8PointXYZES1_E18getPolynomialOrderEv@Base 1.6
 (optional=templinst)_ZN3pcl18MovingLeastSquaresINS_8PointXYZES1_E18searchForNeighborsEiRSt6vectorIiSaIiEERS3_IfSaIfEE@Base 1.6
 (optional=templinst)_ZN3pcl18MovingLeastSquaresINS_8PointXYZES1_E18setPolynomialOrderEi@Base 1.6
 (optional=templinst)_ZN3pcl18MovingLeastSquaresINS_8PointXYZES1_E19getUpsamplingRadiusEv@Base 1.6
 (optional=templinst)_ZN3pcl18MovingLeastSquaresINS_8PointXYZES1_E19setUpsamplingMethodENS2_16UpsamplingMethodE@Base 1.6
 (optional=templinst)_ZN3pcl18MovingLeastSquaresINS_8PointXYZES1_E19setUpsamplingRadiusEd@Base 1.6
 (optional=templinst)_ZN3pcl18MovingLeastSquaresINS_8PointXYZES1_E20getDilationVoxelSizeEv@Base 1.6
 (optional=templinst)_ZN3pcl18MovingLeastSquaresINS_8PointXYZES1_E20setDilationVoxelSizeEf@Base 1.6
 (optional=templinst)_ZN3pcl18MovingLeastSquaresINS_8PointXYZES1_E21computeMLSPointNormalEiRKNS_10PointCloudIS1_EERKSt6vectorIiSaIiEERS7_IfSaIfEERS4_RNS3_INS_6NormalEEE@Base 1.6
 (optional=templinst)_ZN3pcl18MovingLeastSquaresINS_8PointXYZES1_E21getDilationIterationsEv@Base 1.6
 (optional=templinst)_ZN3pcl18MovingLeastSquaresINS_8PointXYZES1_E21getUpsamplingStepSizeEv@Base 1.6
 (optional=templinst)_ZN3pcl18MovingLeastSquaresINS_8PointXYZES1_E21setDilationIterationsEi@Base 1.6
 (optional=templinst)_ZN3pcl18MovingLeastSquaresINS_8PointXYZES1_E21setUpsamplingStepSizeEd@Base 1.6
 (optional=templinst)_ZN3pcl18MovingLeastSquaresINS_8PointXYZES1_E24projectPointToMLSSurfaceERfS3_RN5Eigen6MatrixIdLi3ELi1ELi0ELi3ELi1EEES7_S7_S3_RNS5_IfLi3ELi1ELi0ELi3ELi1EEERNS5_IdLin1ELi1ELi0ELin1ELi1EEEiRS1_RNS_6NormalE@Base 1.6
 (optional=templinst)_ZN3pcl18MovingLeastSquaresINS_8PointXYZES1_E7processERNS_10PointCloudIS1_EE@Base 1.6
 (optional=templinst)_ZN3pcl18MovingLeastSquaresINS_8PointXYZES1_E9MLSResultC1ERKS3_@Base 1.6
 (optional=templinst)_ZN3pcl18MovingLeastSquaresINS_8PointXYZES1_E9MLSResultC1ERN5Eigen6MatrixIdLi3ELi1ELi0ELi3ELi1EEES7_S7_NS5_IdLin1ELi1ELi0ELin1ELi1EEEiRf@Base 1.6
 (optional=templinst)_ZN3pcl18MovingLeastSquaresINS_8PointXYZES1_E9MLSResultC1Ev@Base 1.6
 (optional=templinst)_ZN3pcl18MovingLeastSquaresINS_8PointXYZES1_E9MLSResultC2ERKS3_@Base 1.6
 (optional=templinst)_ZN3pcl18MovingLeastSquaresINS_8PointXYZES1_E9MLSResultC2ERN5Eigen6MatrixIdLi3ELi1ELi0ELi3ELi1EEES7_S7_NS5_IdLin1ELi1ELi0ELin1ELi1EEEiRf@Base 1.6
 (optional=templinst)_ZN3pcl18MovingLeastSquaresINS_8PointXYZES1_E9MLSResultC2Ev@Base 1.6
 (optional=templinst)_ZN3pcl18MovingLeastSquaresINS_8PointXYZES1_E9MLSResultD1Ev@Base 1.6
 (optional=templinst)_ZN3pcl18MovingLeastSquaresINS_8PointXYZES1_E9MLSResultD2Ev@Base 1.6
 (optional=templinst)_ZN3pcl18MovingLeastSquaresINS_8PointXYZES1_E9MLSResultaSERKS3_@Base 1.6
 (optional=templinst)_ZN3pcl18MovingLeastSquaresINS_8PointXYZES1_EC1Ev@Base 1.6
 (optional=templinst)_ZN3pcl18MovingLeastSquaresINS_8PointXYZES1_EC2Ev@Base 1.6
 (optional=templinst)_ZN3pcl18MovingLeastSquaresINS_8PointXYZES1_ED0Ev@Base 1.6
 (optional=templinst)_ZN3pcl18MovingLeastSquaresINS_8PointXYZES1_ED1Ev@Base 1.6
 (optional=templinst)_ZN3pcl18MovingLeastSquaresINS_8PointXYZES1_ED2Ev@Base 1.6
 _ZN3pcl18MovingLeastSquaresINS_8PointXYZES1_EdaEPv@Base 1.6
 _ZN3pcl18MovingLeastSquaresINS_8PointXYZES1_EdlEPv@Base 1.6
 _ZN3pcl18MovingLeastSquaresINS_8PointXYZES1_EdlEPvRKSt9nothrow_t@Base 1.6
 _ZN3pcl18MovingLeastSquaresINS_8PointXYZES1_EdlEPvS3_@Base 1.6
 _ZN3pcl18MovingLeastSquaresINS_8PointXYZES1_EnaEm@Base 1.6
 _ZN3pcl18MovingLeastSquaresINS_8PointXYZES1_EnwEm@Base 1.6
 _ZN3pcl18MovingLeastSquaresINS_8PointXYZES1_EnwEmPv@Base 1.6
 _ZN3pcl18MovingLeastSquaresINS_8PointXYZES1_EnwEmRKSt9nothrow_t@Base 1.6
 (optional=templinst)_ZN3pcl18for_each_type_implILb0EE7executeIN5boost3mpl6v_iterINS4_6vectorINS_6fields1xENS7_1yENS7_1zENS7_3rgbEN4mpl_2naESD_SD_SD_SD_SD_SD_SD_SD_SD_SD_SD_SD_SD_SD_SD_EELl0EEENS5_ISE_Ll4EEENS_6detail10FieldAdderINS_11PointXYZRGBEEEEEvT1_@Base 1.6
 (optional=templinst)_ZN3pcl18for_each_type_implILb0EE7executeIN5boost3mpl6v_iterINS4_6vectorINS_6fields1xENS7_1yENS7_1zENS7_3rgbENS7_8normal_xENS7_8normal_yENS7_8normal_zENS7_9curvatureEN4mpl_2naESH_SH_SH_SH_SH_SH_SH_SH_SH_SH_SH_EELl0EEENS5_ISI_Ll8EEENS_6detail10FieldAdderINS_17PointXYZRGBNormalEEEEEvT1_@Base 1.6
 (optional=templinst)_ZN3pcl18for_each_type_implILb0EE7executeIN5boost3mpl6v_iterINS4_6vectorINS_6fields1xENS7_1yENS7_1zENS7_3rgbENS7_8normal_xENS7_8normal_yENS7_8normal_zENS7_9curvatureEN4mpl_2naESH_SH_SH_SH_SH_SH_SH_SH_SH_SH_SH_EELl2EEENS5_ISI_Ll8EEENS_6detail10FieldAdderINS_17PointXYZRGBNormalEEEEEvT1_@Base 1.6
 (optional=templinst)_ZN3pcl18for_each_type_implILb0EE7executeIN5boost3mpl6v_iterINS4_6vectorINS_6fields1xENS7_1yENS7_1zENS7_3rgbENS7_8normal_xENS7_8normal_yENS7_8normal_zENS7_9curvatureEN4mpl_2naESH_SH_SH_SH_SH_SH_SH_SH_SH_SH_SH_EELl3EEENS5_ISI_Ll8EEENS_6detail10FieldAdderINS_17PointXYZRGBNormalEEEEEvT1_@Base 1.6
 (optional=templinst)_ZN3pcl18for_each_type_implILb0EE7executeIN5boost3mpl6v_iterINS4_6vectorINS_6fields1xENS7_1yENS7_1zENS7_4rgbaENS7_5labelEN4mpl_2naESE_SE_SE_SE_SE_SE_SE_SE_SE_SE_SE_SE_SE_SE_EELl0EEENS5_ISF_Ll5EEENS_6detail10FieldAdderINS_12PointXYZRGBLEEEEEvT1_@Base 1.6
 (optional=templinst)_ZN3pcl18for_each_type_implILb0EE7executeIN5boost3mpl6v_iterINS4_6vectorINS_6fields1xENS7_1yENS7_1zENS7_4vp_xENS7_4vp_yENS7_4vp_zEN4mpl_2naESF_SF_SF_SF_SF_SF_SF_SF_SF_SF_SF_SF_SF_EELl1EEENS5_ISG_Ll6EEENS_6detail10FieldAdderINS_18PointWithViewpointEEEEEvT1_@Base 1.6
 (optional=templinst)_ZN3pcl18for_each_type_implILb0EE7executeIN5boost3mpl6v_iterINS4_6vectorINS_6fields1xENS7_1yENS7_1zENS7_8normal_xENS7_8normal_yENS7_8normal_zENS7_9curvatureEN4mpl_2naESG_SG_SG_SG_SG_SG_SG_SG_SG_SG_SG_SG_EELl1EEENS5_ISH_Ll7EEENS_6detail10FieldAdderINS_11PointNormalEEEEEvT1_@Base 1.6
 (optional=templinst)_ZN3pcl18for_each_type_implILb0EE7executeIN5boost3mpl6v_iterINS4_6vectorINS_6fields1xENS7_1yENS7_1zENS7_8normal_xENS7_8normal_yENS7_8normal_zENS7_9curvatureEN4mpl_2naESG_SG_SG_SG_SG_SG_SG_SG_SG_SG_SG_SG_EELl2EEENS5_ISH_Ll7EEENS_6detail10FieldAdderINS_11PointNormalEEEEEvT1_@Base 1.6
 (optional=templinst)_ZN3pcl18for_each_type_implILb0EE7executeIN5boost3mpl6v_iterINS4_6vectorINS_6fields1xENS7_1yENS7_1zENS7_9intensityENS7_8normal_xENS7_8normal_yENS7_8normal_zENS7_9curvatureEN4mpl_2naESH_SH_SH_SH_SH_SH_SH_SH_SH_SH_SH_EELl0EEENS5_ISI_Ll8EEENS_6detail10FieldAdderINS_15PointXYZINormalEEEEEvT1_@Base 1.6
 (optional=templinst)_ZN3pcl18for_each_type_implILb0EE7executeIN5boost3mpl6v_iterINS4_6vectorINS_6fields1xENS7_1yENS7_1zENS7_9intensityENS7_8normal_xENS7_8normal_yENS7_8normal_zENS7_9curvatureEN4mpl_2naESH_SH_SH_SH_SH_SH_SH_SH_SH_SH_SH_EELl2EEENS5_ISI_Ll8EEENS_6detail10FieldAdderINS_15PointXYZINormalEEEEEvT1_@Base 1.6
 (optional=templinst)_ZN3pcl18for_each_type_implILb0EE7executeIN5boost3mpl6v_iterINS4_6vectorINS_6fields1xENS7_1yENS7_1zENS7_9intensityENS7_8normal_xENS7_8normal_yENS7_8normal_zENS7_9curvatureEN4mpl_2naESH_SH_SH_SH_SH_SH_SH_SH_SH_SH_SH_EELl3EEENS5_ISI_Ll8EEENS_6detail10FieldAdderINS_15PointXYZINormalEEEEEvT1_@Base 1.6
 (optional=templinst)_ZN3pcl19BilateralUpsamplingINS_11PointXYZRGBENS_12PointXYZRGBAEE13setSigmaColorERKf@Base 1.6
 (optional=templinst)_ZN3pcl19BilateralUpsamplingINS_11PointXYZRGBENS_12PointXYZRGBAEE13setSigmaDepthERKf@Base 1.6
 (optional=templinst)_ZN3pcl19BilateralUpsamplingINS_11PointXYZRGBENS_12PointXYZRGBAEE13setWindowSizeEi@Base 1.6
 (optional=templinst)_ZN3pcl19BilateralUpsamplingINS_11PointXYZRGBENS_12PointXYZRGBAEE17performProcessingERNS_10PointCloudIS2_EE@Base 1.6
 (optional=templinst)_ZN3pcl19BilateralUpsamplingINS_11PointXYZRGBENS_12PointXYZRGBAEE19setProjectionMatrixERKN5Eigen6MatrixIfLi3ELi3ELi0ELi3ELi3EEE@Base 1.6
 (optional=templinst)_ZN3pcl19BilateralUpsamplingINS_11PointXYZRGBENS_12PointXYZRGBAEE7processERNS_10PointCloudIS2_EE@Base 1.6
 (optional=templinst)_ZN3pcl19BilateralUpsamplingINS_11PointXYZRGBENS_12PointXYZRGBAEEC1Ev@Base 1.6
 (optional=templinst)_ZN3pcl19BilateralUpsamplingINS_11PointXYZRGBENS_12PointXYZRGBAEEC2Ev@Base 1.6
 (optional=templinst)_ZN3pcl19BilateralUpsamplingINS_11PointXYZRGBENS_12PointXYZRGBAEED0Ev@Base 1.6
 (optional=templinst)_ZN3pcl19BilateralUpsamplingINS_11PointXYZRGBENS_12PointXYZRGBAEED1Ev@Base 1.6
 (optional=templinst)_ZN3pcl19BilateralUpsamplingINS_11PointXYZRGBENS_12PointXYZRGBAEED2Ev@Base 1.6
 _ZN3pcl19BilateralUpsamplingINS_11PointXYZRGBENS_12PointXYZRGBAEEdaEPv@Base 1.6
 _ZN3pcl19BilateralUpsamplingINS_11PointXYZRGBENS_12PointXYZRGBAEEdlEPv@Base 1.6
 _ZN3pcl19BilateralUpsamplingINS_11PointXYZRGBENS_12PointXYZRGBAEEdlEPvRKSt9nothrow_t@Base 1.6
 _ZN3pcl19BilateralUpsamplingINS_11PointXYZRGBENS_12PointXYZRGBAEEdlEPvS4_@Base 1.6
 _ZN3pcl19BilateralUpsamplingINS_11PointXYZRGBENS_12PointXYZRGBAEEnaEm@Base 1.6
 _ZN3pcl19BilateralUpsamplingINS_11PointXYZRGBENS_12PointXYZRGBAEEnwEm@Base 1.6
 _ZN3pcl19BilateralUpsamplingINS_11PointXYZRGBENS_12PointXYZRGBAEEnwEmPv@Base 1.6
 _ZN3pcl19BilateralUpsamplingINS_11PointXYZRGBENS_12PointXYZRGBAEEnwEmRKSt9nothrow_t@Base 1.6
 (optional=templinst)_ZN3pcl19BilateralUpsamplingINS_11PointXYZRGBES1_E13setSigmaColorERKf@Base 1.6
 (optional=templinst)_ZN3pcl19BilateralUpsamplingINS_11PointXYZRGBES1_E13setSigmaDepthERKf@Base 1.6
 (optional=templinst)_ZN3pcl19BilateralUpsamplingINS_11PointXYZRGBES1_E13setWindowSizeEi@Base 1.6
 (optional=templinst)_ZN3pcl19BilateralUpsamplingINS_11PointXYZRGBES1_E17performProcessingERNS_10PointCloudIS1_EE@Base 1.6
 (optional=templinst)_ZN3pcl19BilateralUpsamplingINS_11PointXYZRGBES1_E19setProjectionMatrixERKN5Eigen6MatrixIfLi3ELi3ELi0ELi3ELi3EEE@Base 1.6
 (optional=templinst)_ZN3pcl19BilateralUpsamplingINS_11PointXYZRGBES1_E7processERNS_10PointCloudIS1_EE@Base 1.6
 (optional=templinst)_ZN3pcl19BilateralUpsamplingINS_11PointXYZRGBES1_EC1Ev@Base 1.6
 (optional=templinst)_ZN3pcl19BilateralUpsamplingINS_11PointXYZRGBES1_EC2Ev@Base 1.6
 (optional=templinst)_ZN3pcl19BilateralUpsamplingINS_11PointXYZRGBES1_ED0Ev@Base 1.6
 (optional=templinst)_ZN3pcl19BilateralUpsamplingINS_11PointXYZRGBES1_ED1Ev@Base 1.6
 (optional=templinst)_ZN3pcl19BilateralUpsamplingINS_11PointXYZRGBES1_ED2Ev@Base 1.6
 _ZN3pcl19BilateralUpsamplingINS_11PointXYZRGBES1_EdaEPv@Base 1.6
 _ZN3pcl19BilateralUpsamplingINS_11PointXYZRGBES1_EdlEPv@Base 1.6
 _ZN3pcl19BilateralUpsamplingINS_11PointXYZRGBES1_EdlEPvRKSt9nothrow_t@Base 1.6
 _ZN3pcl19BilateralUpsamplingINS_11PointXYZRGBES1_EdlEPvS3_@Base 1.6
 _ZN3pcl19BilateralUpsamplingINS_11PointXYZRGBES1_EnaEm@Base 1.6
 _ZN3pcl19BilateralUpsamplingINS_11PointXYZRGBES1_EnwEm@Base 1.6
 _ZN3pcl19BilateralUpsamplingINS_11PointXYZRGBES1_EnwEmPv@Base 1.6
 _ZN3pcl19BilateralUpsamplingINS_11PointXYZRGBES1_EnwEmRKSt9nothrow_t@Base 1.6
 (optional=templinst)_ZN3pcl19BilateralUpsamplingINS_12PointXYZRGBAENS_11PointXYZRGBEE13setSigmaColorERKf@Base 1.6
 (optional=templinst)_ZN3pcl19BilateralUpsamplingINS_12PointXYZRGBAENS_11PointXYZRGBEE13setSigmaDepthERKf@Base 1.6
 (optional=templinst)_ZN3pcl19BilateralUpsamplingINS_12PointXYZRGBAENS_11PointXYZRGBEE13setWindowSizeEi@Base 1.6
 (optional=templinst)_ZN3pcl19BilateralUpsamplingINS_12PointXYZRGBAENS_11PointXYZRGBEE17performProcessingERNS_10PointCloudIS2_EE@Base 1.6
 (optional=templinst)_ZN3pcl19BilateralUpsamplingINS_12PointXYZRGBAENS_11PointXYZRGBEE19setProjectionMatrixERKN5Eigen6MatrixIfLi3ELi3ELi0ELi3ELi3EEE@Base 1.6
 (optional=templinst)_ZN3pcl19BilateralUpsamplingINS_12PointXYZRGBAENS_11PointXYZRGBEE7processERNS_10PointCloudIS2_EE@Base 1.6
 (optional=templinst)_ZN3pcl19BilateralUpsamplingINS_12PointXYZRGBAENS_11PointXYZRGBEEC1Ev@Base 1.6
 (optional=templinst)_ZN3pcl19BilateralUpsamplingINS_12PointXYZRGBAENS_11PointXYZRGBEEC2Ev@Base 1.6
 (optional=templinst)_ZN3pcl19BilateralUpsamplingINS_12PointXYZRGBAENS_11PointXYZRGBEED0Ev@Base 1.6
 (optional=templinst)_ZN3pcl19BilateralUpsamplingINS_12PointXYZRGBAENS_11PointXYZRGBEED1Ev@Base 1.6
 (optional=templinst)_ZN3pcl19BilateralUpsamplingINS_12PointXYZRGBAENS_11PointXYZRGBEED2Ev@Base 1.6
 _ZN3pcl19BilateralUpsamplingINS_12PointXYZRGBAENS_11PointXYZRGBEEdaEPv@Base 1.6
 _ZN3pcl19BilateralUpsamplingINS_12PointXYZRGBAENS_11PointXYZRGBEEdlEPv@Base 1.6
 _ZN3pcl19BilateralUpsamplingINS_12PointXYZRGBAENS_11PointXYZRGBEEdlEPvRKSt9nothrow_t@Base 1.6
 _ZN3pcl19BilateralUpsamplingINS_12PointXYZRGBAENS_11PointXYZRGBEEdlEPvS4_@Base 1.6
 _ZN3pcl19BilateralUpsamplingINS_12PointXYZRGBAENS_11PointXYZRGBEEnaEm@Base 1.6
 _ZN3pcl19BilateralUpsamplingINS_12PointXYZRGBAENS_11PointXYZRGBEEnwEm@Base 1.6
 _ZN3pcl19BilateralUpsamplingINS_12PointXYZRGBAENS_11PointXYZRGBEEnwEmPv@Base 1.6
 _ZN3pcl19BilateralUpsamplingINS_12PointXYZRGBAENS_11PointXYZRGBEEnwEmRKSt9nothrow_t@Base 1.6
 (optional=templinst)_ZN3pcl19BilateralUpsamplingINS_12PointXYZRGBAES1_E13setSigmaColorERKf@Base 1.6
 (optional=templinst)_ZN3pcl19BilateralUpsamplingINS_12PointXYZRGBAES1_E13setSigmaDepthERKf@Base 1.6
 (optional=templinst)_ZN3pcl19BilateralUpsamplingINS_12PointXYZRGBAES1_E13setWindowSizeEi@Base 1.6
 (optional=templinst)_ZN3pcl19BilateralUpsamplingINS_12PointXYZRGBAES1_E17performProcessingERNS_10PointCloudIS1_EE@Base 1.6
 (optional=templinst)_ZN3pcl19BilateralUpsamplingINS_12PointXYZRGBAES1_E19setProjectionMatrixERKN5Eigen6MatrixIfLi3ELi3ELi0ELi3ELi3EEE@Base 1.6
 (optional=templinst)_ZN3pcl19BilateralUpsamplingINS_12PointXYZRGBAES1_E7processERNS_10PointCloudIS1_EE@Base 1.6
 (optional=templinst)_ZN3pcl19BilateralUpsamplingINS_12PointXYZRGBAES1_EC1Ev@Base 1.6
 (optional=templinst)_ZN3pcl19BilateralUpsamplingINS_12PointXYZRGBAES1_EC2Ev@Base 1.6
 (optional=templinst)_ZN3pcl19BilateralUpsamplingINS_12PointXYZRGBAES1_ED0Ev@Base 1.6
 (optional=templinst)_ZN3pcl19BilateralUpsamplingINS_12PointXYZRGBAES1_ED1Ev@Base 1.6
 (optional=templinst)_ZN3pcl19BilateralUpsamplingINS_12PointXYZRGBAES1_ED2Ev@Base 1.6
 _ZN3pcl19BilateralUpsamplingINS_12PointXYZRGBAES1_EdaEPv@Base 1.6
 _ZN3pcl19BilateralUpsamplingINS_12PointXYZRGBAES1_EdlEPv@Base 1.6
 _ZN3pcl19BilateralUpsamplingINS_12PointXYZRGBAES1_EdlEPvRKSt9nothrow_t@Base 1.6
 _ZN3pcl19BilateralUpsamplingINS_12PointXYZRGBAES1_EdlEPvS3_@Base 1.6
 _ZN3pcl19BilateralUpsamplingINS_12PointXYZRGBAES1_EnaEm@Base 1.6
 _ZN3pcl19BilateralUpsamplingINS_12PointXYZRGBAES1_EnwEm@Base 1.6
 _ZN3pcl19BilateralUpsamplingINS_12PointXYZRGBAES1_EnwEmPv@Base 1.6
 _ZN3pcl19BilateralUpsamplingINS_12PointXYZRGBAES1_EnwEmRKSt9nothrow_t@Base 1.6
 (optional=templinst)_ZN3pcl19PointRepresentationINS_11PointNormalEED0Ev@Base 1.6
 (optional=templinst)_ZN3pcl19PointRepresentationINS_11PointNormalEED1Ev@Base 1.6
 (optional=templinst)_ZN3pcl19PointRepresentationINS_11PointNormalEED2Ev@Base 1.6
 (optional=templinst)_ZN3pcl19PointRepresentationINS_11PointXYZHSVEED0Ev@Base 1.6
 (optional=templinst)_ZN3pcl19PointRepresentationINS_11PointXYZHSVEED1Ev@Base 1.6
 (optional=templinst)_ZN3pcl19PointRepresentationINS_11PointXYZHSVEED2Ev@Base 1.6
 (optional=templinst)_ZN3pcl19PointRepresentationINS_11PointXYZRGBEED0Ev@Base 1.6
 (optional=templinst)_ZN3pcl19PointRepresentationINS_11PointXYZRGBEED1Ev@Base 1.6
 (optional=templinst)_ZN3pcl19PointRepresentationINS_11PointXYZRGBEED2Ev@Base 1.6
 (optional=templinst)_ZN3pcl19PointRepresentationINS_12PointXYZRGBAEED0Ev@Base 1.6
 (optional=templinst)_ZN3pcl19PointRepresentationINS_12PointXYZRGBAEED1Ev@Base 1.6
 (optional=templinst)_ZN3pcl19PointRepresentationINS_12PointXYZRGBAEED2Ev@Base 1.6
 (optional=templinst)_ZN3pcl19PointRepresentationINS_12PointXYZRGBLEED0Ev@Base 1.6
 (optional=templinst)_ZN3pcl19PointRepresentationINS_12PointXYZRGBLEED1Ev@Base 1.6
 (optional=templinst)_ZN3pcl19PointRepresentationINS_12PointXYZRGBLEED2Ev@Base 1.6
 (optional=templinst)_ZN3pcl19PointRepresentationINS_13InterestPointEED0Ev@Base 1.6
 (optional=templinst)_ZN3pcl19PointRepresentationINS_13InterestPointEED1Ev@Base 1.6
 (optional=templinst)_ZN3pcl19PointRepresentationINS_13InterestPointEED2Ev@Base 1.6
 (optional=templinst)_ZN3pcl19PointRepresentationINS_14PointWithRangeEED0Ev@Base 1.6
 (optional=templinst)_ZN3pcl19PointRepresentationINS_14PointWithRangeEED1Ev@Base 1.6
 (optional=templinst)_ZN3pcl19PointRepresentationINS_14PointWithRangeEED2Ev@Base 1.6
 (optional=templinst)_ZN3pcl19PointRepresentationINS_14PointWithScaleEED0Ev@Base 1.6
 (optional=templinst)_ZN3pcl19PointRepresentationINS_14PointWithScaleEED1Ev@Base 1.6
 (optional=templinst)_ZN3pcl19PointRepresentationINS_14PointWithScaleEED2Ev@Base 1.6
 (optional=templinst)_ZN3pcl19PointRepresentationINS_15PointXYZINormalEED0Ev@Base 1.6
 (optional=templinst)_ZN3pcl19PointRepresentationINS_15PointXYZINormalEED1Ev@Base 1.6
 (optional=templinst)_ZN3pcl19PointRepresentationINS_15PointXYZINormalEED2Ev@Base 1.6
 (optional=templinst)_ZN3pcl19PointRepresentationINS_17PointXYZRGBNormalEED0Ev@Base 1.6
 (optional=templinst)_ZN3pcl19PointRepresentationINS_17PointXYZRGBNormalEED1Ev@Base 1.6
 (optional=templinst)_ZN3pcl19PointRepresentationINS_17PointXYZRGBNormalEED2Ev@Base 1.6
 (optional=templinst)_ZN3pcl19PointRepresentationINS_18PointWithViewpointEED0Ev@Base 1.6
 (optional=templinst)_ZN3pcl19PointRepresentationINS_18PointWithViewpointEED1Ev@Base 1.6
 (optional=templinst)_ZN3pcl19PointRepresentationINS_18PointWithViewpointEED2Ev@Base 1.6
 (optional=templinst)_ZN3pcl19PointRepresentationINS_7PointXYEED0Ev@Base 1.6
 (optional=templinst)_ZN3pcl19PointRepresentationINS_7PointXYEED1Ev@Base 1.6
 (optional=templinst)_ZN3pcl19PointRepresentationINS_7PointXYEED2Ev@Base 1.6
 (optional=templinst)_ZN3pcl19PointRepresentationINS_8PointXYZEED0Ev@Base 1.6
 (optional=templinst)_ZN3pcl19PointRepresentationINS_8PointXYZEED1Ev@Base 1.6
 (optional=templinst)_ZN3pcl19PointRepresentationINS_8PointXYZEED2Ev@Base 1.6
 (optional=templinst)_ZN3pcl19PointRepresentationINS_9PointXYZIEED0Ev@Base 1.6
 (optional=templinst)_ZN3pcl19PointRepresentationINS_9PointXYZIEED1Ev@Base 1.6
 (optional=templinst)_ZN3pcl19PointRepresentationINS_9PointXYZIEED2Ev@Base 1.6
 (optional=templinst)_ZN3pcl19PointRepresentationINS_9PointXYZLEED0Ev@Base 1.6
 (optional=templinst)_ZN3pcl19PointRepresentationINS_9PointXYZLEED1Ev@Base 1.6
 (optional=templinst)_ZN3pcl19PointRepresentationINS_9PointXYZLEED2Ev@Base 1.6
 (optional=templinst)_ZN3pcl19transformPointCloudINS_11PointNormalEEEvRKNS_10PointCloudIT_EERS4_RKN5Eigen9TransformIfLi3ELi2ELi0EEE@Base 1.6
 (optional=templinst)_ZN3pcl19transformPointCloudINS_11PointXYZHSVEEEvRKNS_10PointCloudIT_EERS4_RKN5Eigen9TransformIfLi3ELi2ELi0EEE@Base 1.6
 (optional=templinst)_ZN3pcl19transformPointCloudINS_11PointXYZRGBEEEvRKNS_10PointCloudIT_EERS4_RKN5Eigen9TransformIfLi3ELi2ELi0EEE@Base 1.6
 (optional=templinst)_ZN3pcl19transformPointCloudINS_12PointXYZRGBAEEEvRKNS_10PointCloudIT_EERS4_RKN5Eigen9TransformIfLi3ELi2ELi0EEE@Base 1.6
 (optional=templinst)_ZN3pcl19transformPointCloudINS_12PointXYZRGBLEEEvRKNS_10PointCloudIT_EERS4_RKN5Eigen9TransformIfLi3ELi2ELi0EEE@Base 1.6
 (optional=templinst)_ZN3pcl19transformPointCloudINS_13InterestPointEEEvRKNS_10PointCloudIT_EERS4_RKN5Eigen9TransformIfLi3ELi2ELi0EEE@Base 1.6
 (optional=templinst)_ZN3pcl19transformPointCloudINS_14PointWithRangeEEEvRKNS_10PointCloudIT_EERS4_RKN5Eigen9TransformIfLi3ELi2ELi0EEE@Base 1.6
 (optional=templinst)_ZN3pcl19transformPointCloudINS_14PointWithScaleEEEvRKNS_10PointCloudIT_EERS4_RKN5Eigen9TransformIfLi3ELi2ELi0EEE@Base 1.6
 (optional=templinst)_ZN3pcl19transformPointCloudINS_15PointXYZINormalEEEvRKNS_10PointCloudIT_EERS4_RKN5Eigen9TransformIfLi3ELi2ELi0EEE@Base 1.6
 (optional=templinst)_ZN3pcl19transformPointCloudINS_17PointXYZRGBNormalEEEvRKNS_10PointCloudIT_EERS4_RKN5Eigen9TransformIfLi3ELi2ELi0EEE@Base 1.6
 (optional=templinst)_ZN3pcl19transformPointCloudINS_18PointWithViewpointEEEvRKNS_10PointCloudIT_EERS4_RKN5Eigen9TransformIfLi3ELi2ELi0EEE@Base 1.6
 (optional=templinst)_ZN3pcl19transformPointCloudINS_8PointXYZEEEvRKNS_10PointCloudIT_EERS4_RKN5Eigen9TransformIfLi3ELi2ELi0EEE@Base 1.6
 (optional=templinst)_ZN3pcl19transformPointCloudINS_9PointXYZIEEEvRKNS_10PointCloudIT_EERS4_RKN5Eigen9TransformIfLi3ELi2ELi0EEE@Base 1.6
 (optional=templinst)_ZN3pcl19transformPointCloudINS_9PointXYZLEEEvRKNS_10PointCloudIT_EERS4_RKN5Eigen9TransformIfLi3ELi2ELi0EEE@Base 1.6
 (optional=templinst)_ZN3pcl21MovingLeastSquaresOMPINS_11PointXYZRGBENS_11PointNormalEE17performProcessingERNS_10PointCloudIS2_EE@Base 1.6
 (optional=templinst)_ZN3pcl21MovingLeastSquaresOMPINS_11PointXYZRGBENS_11PointNormalEE18setNumberOfThreadsEj@Base 1.6
 (optional=templinst)_ZN3pcl21MovingLeastSquaresOMPINS_11PointXYZRGBENS_11PointNormalEEC1Ej@Base 1.6
 (optional=templinst)_ZN3pcl21MovingLeastSquaresOMPINS_11PointXYZRGBENS_11PointNormalEEC1Ev@Base 1.6
 (optional=templinst)_ZN3pcl21MovingLeastSquaresOMPINS_11PointXYZRGBENS_11PointNormalEEC2Ej@Base 1.6
 (optional=templinst)_ZN3pcl21MovingLeastSquaresOMPINS_11PointXYZRGBENS_11PointNormalEEC2Ev@Base 1.6
 (optional=templinst)_ZN3pcl21MovingLeastSquaresOMPINS_11PointXYZRGBENS_11PointNormalEED0Ev@Base 1.6
 (optional=templinst)_ZN3pcl21MovingLeastSquaresOMPINS_11PointXYZRGBENS_11PointNormalEED1Ev@Base 1.6
 (optional=templinst)_ZN3pcl21MovingLeastSquaresOMPINS_11PointXYZRGBENS_11PointNormalEED2Ev@Base 1.6
 (optional=templinst)_ZN3pcl21MovingLeastSquaresOMPINS_11PointXYZRGBENS_12PointXYZRGBAEE17performProcessingERNS_10PointCloudIS2_EE@Base 1.6
 (optional=templinst)_ZN3pcl21MovingLeastSquaresOMPINS_11PointXYZRGBENS_12PointXYZRGBAEE18setNumberOfThreadsEj@Base 1.6
 (optional=templinst)_ZN3pcl21MovingLeastSquaresOMPINS_11PointXYZRGBENS_12PointXYZRGBAEEC1Ej@Base 1.6
 (optional=templinst)_ZN3pcl21MovingLeastSquaresOMPINS_11PointXYZRGBENS_12PointXYZRGBAEEC1Ev@Base 1.6
 (optional=templinst)_ZN3pcl21MovingLeastSquaresOMPINS_11PointXYZRGBENS_12PointXYZRGBAEEC2Ej@Base 1.6
 (optional=templinst)_ZN3pcl21MovingLeastSquaresOMPINS_11PointXYZRGBENS_12PointXYZRGBAEEC2Ev@Base 1.6
 (optional=templinst)_ZN3pcl21MovingLeastSquaresOMPINS_11PointXYZRGBENS_12PointXYZRGBAEED0Ev@Base 1.6
 (optional=templinst)_ZN3pcl21MovingLeastSquaresOMPINS_11PointXYZRGBENS_12PointXYZRGBAEED1Ev@Base 1.6
 (optional=templinst)_ZN3pcl21MovingLeastSquaresOMPINS_11PointXYZRGBENS_12PointXYZRGBAEED2Ev@Base 1.6
 (optional=templinst)_ZN3pcl21MovingLeastSquaresOMPINS_11PointXYZRGBENS_8PointXYZEE17performProcessingERNS_10PointCloudIS2_EE@Base 1.6
 (optional=templinst)_ZN3pcl21MovingLeastSquaresOMPINS_11PointXYZRGBENS_8PointXYZEE18setNumberOfThreadsEj@Base 1.6
 (optional=templinst)_ZN3pcl21MovingLeastSquaresOMPINS_11PointXYZRGBENS_8PointXYZEEC1Ej@Base 1.6
 (optional=templinst)_ZN3pcl21MovingLeastSquaresOMPINS_11PointXYZRGBENS_8PointXYZEEC1Ev@Base 1.6
 (optional=templinst)_ZN3pcl21MovingLeastSquaresOMPINS_11PointXYZRGBENS_8PointXYZEEC2Ej@Base 1.6
 (optional=templinst)_ZN3pcl21MovingLeastSquaresOMPINS_11PointXYZRGBENS_8PointXYZEEC2Ev@Base 1.6
 (optional=templinst)_ZN3pcl21MovingLeastSquaresOMPINS_11PointXYZRGBENS_8PointXYZEED0Ev@Base 1.6
 (optional=templinst)_ZN3pcl21MovingLeastSquaresOMPINS_11PointXYZRGBENS_8PointXYZEED1Ev@Base 1.6
 (optional=templinst)_ZN3pcl21MovingLeastSquaresOMPINS_11PointXYZRGBENS_8PointXYZEED2Ev@Base 1.6
 (optional=templinst)_ZN3pcl21MovingLeastSquaresOMPINS_11PointXYZRGBES1_E17performProcessingERNS_10PointCloudIS1_EE@Base 1.6
 (optional=templinst)_ZN3pcl21MovingLeastSquaresOMPINS_11PointXYZRGBES1_E18setNumberOfThreadsEj@Base 1.6
 (optional=templinst)_ZN3pcl21MovingLeastSquaresOMPINS_11PointXYZRGBES1_EC1Ej@Base 1.6
 (optional=templinst)_ZN3pcl21MovingLeastSquaresOMPINS_11PointXYZRGBES1_EC1Ev@Base 1.6
 (optional=templinst)_ZN3pcl21MovingLeastSquaresOMPINS_11PointXYZRGBES1_EC2Ej@Base 1.6
 (optional=templinst)_ZN3pcl21MovingLeastSquaresOMPINS_11PointXYZRGBES1_EC2Ev@Base 1.6
 (optional=templinst)_ZN3pcl21MovingLeastSquaresOMPINS_11PointXYZRGBES1_ED0Ev@Base 1.6
 (optional=templinst)_ZN3pcl21MovingLeastSquaresOMPINS_11PointXYZRGBES1_ED1Ev@Base 1.6
 (optional=templinst)_ZN3pcl21MovingLeastSquaresOMPINS_11PointXYZRGBES1_ED2Ev@Base 1.6
 (optional=templinst)_ZN3pcl21MovingLeastSquaresOMPINS_12PointXYZRGBAENS_11PointNormalEE17performProcessingERNS_10PointCloudIS2_EE@Base 1.6
 (optional=templinst)_ZN3pcl21MovingLeastSquaresOMPINS_12PointXYZRGBAENS_11PointNormalEE18setNumberOfThreadsEj@Base 1.6
 (optional=templinst)_ZN3pcl21MovingLeastSquaresOMPINS_12PointXYZRGBAENS_11PointNormalEEC1Ej@Base 1.6
 (optional=templinst)_ZN3pcl21MovingLeastSquaresOMPINS_12PointXYZRGBAENS_11PointNormalEEC1Ev@Base 1.6
 (optional=templinst)_ZN3pcl21MovingLeastSquaresOMPINS_12PointXYZRGBAENS_11PointNormalEEC2Ej@Base 1.6
 (optional=templinst)_ZN3pcl21MovingLeastSquaresOMPINS_12PointXYZRGBAENS_11PointNormalEEC2Ev@Base 1.6
 (optional=templinst)_ZN3pcl21MovingLeastSquaresOMPINS_12PointXYZRGBAENS_11PointNormalEED0Ev@Base 1.6
 (optional=templinst)_ZN3pcl21MovingLeastSquaresOMPINS_12PointXYZRGBAENS_11PointNormalEED1Ev@Base 1.6
 (optional=templinst)_ZN3pcl21MovingLeastSquaresOMPINS_12PointXYZRGBAENS_11PointNormalEED2Ev@Base 1.6
 (optional=templinst)_ZN3pcl21MovingLeastSquaresOMPINS_12PointXYZRGBAENS_11PointXYZRGBEE17performProcessingERNS_10PointCloudIS2_EE@Base 1.6
 (optional=templinst)_ZN3pcl21MovingLeastSquaresOMPINS_12PointXYZRGBAENS_11PointXYZRGBEE18setNumberOfThreadsEj@Base 1.6
 (optional=templinst)_ZN3pcl21MovingLeastSquaresOMPINS_12PointXYZRGBAENS_11PointXYZRGBEEC1Ej@Base 1.6
 (optional=templinst)_ZN3pcl21MovingLeastSquaresOMPINS_12PointXYZRGBAENS_11PointXYZRGBEEC1Ev@Base 1.6
 (optional=templinst)_ZN3pcl21MovingLeastSquaresOMPINS_12PointXYZRGBAENS_11PointXYZRGBEEC2Ej@Base 1.6
 (optional=templinst)_ZN3pcl21MovingLeastSquaresOMPINS_12PointXYZRGBAENS_11PointXYZRGBEEC2Ev@Base 1.6
 (optional=templinst)_ZN3pcl21MovingLeastSquaresOMPINS_12PointXYZRGBAENS_11PointXYZRGBEED0Ev@Base 1.6
 (optional=templinst)_ZN3pcl21MovingLeastSquaresOMPINS_12PointXYZRGBAENS_11PointXYZRGBEED1Ev@Base 1.6
 (optional=templinst)_ZN3pcl21MovingLeastSquaresOMPINS_12PointXYZRGBAENS_11PointXYZRGBEED2Ev@Base 1.6
 (optional=templinst)_ZN3pcl21MovingLeastSquaresOMPINS_12PointXYZRGBAENS_8PointXYZEE17performProcessingERNS_10PointCloudIS2_EE@Base 1.6
 (optional=templinst)_ZN3pcl21MovingLeastSquaresOMPINS_12PointXYZRGBAENS_8PointXYZEE18setNumberOfThreadsEj@Base 1.6
 (optional=templinst)_ZN3pcl21MovingLeastSquaresOMPINS_12PointXYZRGBAENS_8PointXYZEEC1Ej@Base 1.6
 (optional=templinst)_ZN3pcl21MovingLeastSquaresOMPINS_12PointXYZRGBAENS_8PointXYZEEC1Ev@Base 1.6
 (optional=templinst)_ZN3pcl21MovingLeastSquaresOMPINS_12PointXYZRGBAENS_8PointXYZEEC2Ej@Base 1.6
 (optional=templinst)_ZN3pcl21MovingLeastSquaresOMPINS_12PointXYZRGBAENS_8PointXYZEEC2Ev@Base 1.6
 (optional=templinst)_ZN3pcl21MovingLeastSquaresOMPINS_12PointXYZRGBAENS_8PointXYZEED0Ev@Base 1.6
 (optional=templinst)_ZN3pcl21MovingLeastSquaresOMPINS_12PointXYZRGBAENS_8PointXYZEED1Ev@Base 1.6
 (optional=templinst)_ZN3pcl21MovingLeastSquaresOMPINS_12PointXYZRGBAENS_8PointXYZEED2Ev@Base 1.6
 (optional=templinst)_ZN3pcl21MovingLeastSquaresOMPINS_12PointXYZRGBAES1_E17performProcessingERNS_10PointCloudIS1_EE@Base 1.6
 (optional=templinst)_ZN3pcl21MovingLeastSquaresOMPINS_12PointXYZRGBAES1_E18setNumberOfThreadsEj@Base 1.6
 (optional=templinst)_ZN3pcl21MovingLeastSquaresOMPINS_12PointXYZRGBAES1_EC1Ej@Base 1.6
 (optional=templinst)_ZN3pcl21MovingLeastSquaresOMPINS_12PointXYZRGBAES1_EC1Ev@Base 1.6
 (optional=templinst)_ZN3pcl21MovingLeastSquaresOMPINS_12PointXYZRGBAES1_EC2Ej@Base 1.6
 (optional=templinst)_ZN3pcl21MovingLeastSquaresOMPINS_12PointXYZRGBAES1_EC2Ev@Base 1.6
 (optional=templinst)_ZN3pcl21MovingLeastSquaresOMPINS_12PointXYZRGBAES1_ED0Ev@Base 1.6
 (optional=templinst)_ZN3pcl21MovingLeastSquaresOMPINS_12PointXYZRGBAES1_ED1Ev@Base 1.6
 (optional=templinst)_ZN3pcl21MovingLeastSquaresOMPINS_12PointXYZRGBAES1_ED2Ev@Base 1.6
 (optional=templinst)_ZN3pcl21MovingLeastSquaresOMPINS_8PointXYZENS_11PointNormalEE17performProcessingERNS_10PointCloudIS2_EE@Base 1.6
 (optional=templinst)_ZN3pcl21MovingLeastSquaresOMPINS_8PointXYZENS_11PointNormalEE18setNumberOfThreadsEj@Base 1.6
 (optional=templinst)_ZN3pcl21MovingLeastSquaresOMPINS_8PointXYZENS_11PointNormalEEC1Ej@Base 1.6
 (optional=templinst)_ZN3pcl21MovingLeastSquaresOMPINS_8PointXYZENS_11PointNormalEEC1Ev@Base 1.6
 (optional=templinst)_ZN3pcl21MovingLeastSquaresOMPINS_8PointXYZENS_11PointNormalEEC2Ej@Base 1.6
 (optional=templinst)_ZN3pcl21MovingLeastSquaresOMPINS_8PointXYZENS_11PointNormalEEC2Ev@Base 1.6
 (optional=templinst)_ZN3pcl21MovingLeastSquaresOMPINS_8PointXYZENS_11PointNormalEED0Ev@Base 1.6
 (optional=templinst)_ZN3pcl21MovingLeastSquaresOMPINS_8PointXYZENS_11PointNormalEED1Ev@Base 1.6
 (optional=templinst)_ZN3pcl21MovingLeastSquaresOMPINS_8PointXYZENS_11PointNormalEED2Ev@Base 1.6
 (optional=templinst)_ZN3pcl21MovingLeastSquaresOMPINS_8PointXYZENS_11PointXYZRGBEE17performProcessingERNS_10PointCloudIS2_EE@Base 1.6
 (optional=templinst)_ZN3pcl21MovingLeastSquaresOMPINS_8PointXYZENS_11PointXYZRGBEE18setNumberOfThreadsEj@Base 1.6
 (optional=templinst)_ZN3pcl21MovingLeastSquaresOMPINS_8PointXYZENS_11PointXYZRGBEEC1Ej@Base 1.6
 (optional=templinst)_ZN3pcl21MovingLeastSquaresOMPINS_8PointXYZENS_11PointXYZRGBEEC1Ev@Base 1.6
 (optional=templinst)_ZN3pcl21MovingLeastSquaresOMPINS_8PointXYZENS_11PointXYZRGBEEC2Ej@Base 1.6
 (optional=templinst)_ZN3pcl21MovingLeastSquaresOMPINS_8PointXYZENS_11PointXYZRGBEEC2Ev@Base 1.6
 (optional=templinst)_ZN3pcl21MovingLeastSquaresOMPINS_8PointXYZENS_11PointXYZRGBEED0Ev@Base 1.6
 (optional=templinst)_ZN3pcl21MovingLeastSquaresOMPINS_8PointXYZENS_11PointXYZRGBEED1Ev@Base 1.6
 (optional=templinst)_ZN3pcl21MovingLeastSquaresOMPINS_8PointXYZENS_11PointXYZRGBEED2Ev@Base 1.6
 (optional=templinst)_ZN3pcl21MovingLeastSquaresOMPINS_8PointXYZENS_12PointXYZRGBAEE17performProcessingERNS_10PointCloudIS2_EE@Base 1.6
 (optional=templinst)_ZN3pcl21MovingLeastSquaresOMPINS_8PointXYZENS_12PointXYZRGBAEE18setNumberOfThreadsEj@Base 1.6
 (optional=templinst)_ZN3pcl21MovingLeastSquaresOMPINS_8PointXYZENS_12PointXYZRGBAEEC1Ej@Base 1.6
 (optional=templinst)_ZN3pcl21MovingLeastSquaresOMPINS_8PointXYZENS_12PointXYZRGBAEEC1Ev@Base 1.6
 (optional=templinst)_ZN3pcl21MovingLeastSquaresOMPINS_8PointXYZENS_12PointXYZRGBAEEC2Ej@Base 1.6
 (optional=templinst)_ZN3pcl21MovingLeastSquaresOMPINS_8PointXYZENS_12PointXYZRGBAEEC2Ev@Base 1.6
 (optional=templinst)_ZN3pcl21MovingLeastSquaresOMPINS_8PointXYZENS_12PointXYZRGBAEED0Ev@Base 1.6
 (optional=templinst)_ZN3pcl21MovingLeastSquaresOMPINS_8PointXYZENS_12PointXYZRGBAEED1Ev@Base 1.6
 (optional=templinst)_ZN3pcl21MovingLeastSquaresOMPINS_8PointXYZENS_12PointXYZRGBAEED2Ev@Base 1.6
 (optional=templinst)_ZN3pcl21MovingLeastSquaresOMPINS_8PointXYZES1_E17performProcessingERNS_10PointCloudIS1_EE@Base 1.6
 (optional=templinst)_ZN3pcl21MovingLeastSquaresOMPINS_8PointXYZES1_E18setNumberOfThreadsEj@Base 1.6
 (optional=templinst)_ZN3pcl21MovingLeastSquaresOMPINS_8PointXYZES1_EC1Ej@Base 1.6
 (optional=templinst)_ZN3pcl21MovingLeastSquaresOMPINS_8PointXYZES1_EC1Ev@Base 1.6
 (optional=templinst)_ZN3pcl21MovingLeastSquaresOMPINS_8PointXYZES1_EC2Ej@Base 1.6
 (optional=templinst)_ZN3pcl21MovingLeastSquaresOMPINS_8PointXYZES1_EC2Ev@Base 1.6
 (optional=templinst)_ZN3pcl21MovingLeastSquaresOMPINS_8PointXYZES1_ED0Ev@Base 1.6
 (optional=templinst)_ZN3pcl21MovingLeastSquaresOMPINS_8PointXYZES1_ED1Ev@Base 1.6
 (optional=templinst)_ZN3pcl21MovingLeastSquaresOMPINS_8PointXYZES1_ED2Ev@Base 1.6
 (optional=templinst)_ZN3pcl21SurfaceReconstructionINS_11PointNormalEE11reconstructERNS_10PointCloudIS1_EERSt6vectorINS_8VerticesESaIS7_EE@Base 1.6
 (optional=templinst)_ZN3pcl21SurfaceReconstructionINS_11PointNormalEE11reconstructERNS_11PolygonMeshE@Base 1.6
 (optional=templinst)_ZN3pcl21SurfaceReconstructionINS_11PointNormalEED0Ev@Base 1.6
 (optional=templinst)_ZN3pcl21SurfaceReconstructionINS_11PointNormalEED1Ev@Base 1.6
 (optional=templinst)_ZN3pcl21SurfaceReconstructionINS_11PointNormalEED2Ev@Base 1.6
 (optional=templinst)_ZN3pcl21SurfaceReconstructionINS_15PointXYZINormalEE11reconstructERNS_10PointCloudIS1_EERSt6vectorINS_8VerticesESaIS7_EE@Base 1.6
 (optional=templinst)_ZN3pcl21SurfaceReconstructionINS_15PointXYZINormalEE11reconstructERNS_11PolygonMeshE@Base 1.6
 (optional=templinst)_ZN3pcl21SurfaceReconstructionINS_15PointXYZINormalEED0Ev@Base 1.6
 (optional=templinst)_ZN3pcl21SurfaceReconstructionINS_15PointXYZINormalEED1Ev@Base 1.6
 (optional=templinst)_ZN3pcl21SurfaceReconstructionINS_15PointXYZINormalEED2Ev@Base 1.6
 (optional=templinst)_ZN3pcl21SurfaceReconstructionINS_17PointXYZRGBNormalEE11reconstructERNS_10PointCloudIS1_EERSt6vectorINS_8VerticesESaIS7_EE@Base 1.6
 (optional=templinst)_ZN3pcl21SurfaceReconstructionINS_17PointXYZRGBNormalEE11reconstructERNS_11PolygonMeshE@Base 1.6
 (optional=templinst)_ZN3pcl21SurfaceReconstructionINS_17PointXYZRGBNormalEED0Ev@Base 1.6
 (optional=templinst)_ZN3pcl21SurfaceReconstructionINS_17PointXYZRGBNormalEED1Ev@Base 1.6
 (optional=templinst)_ZN3pcl21SurfaceReconstructionINS_17PointXYZRGBNormalEED2Ev@Base 1.6
 (optional=templinst)_ZN3pcl21getCircumcircleRadiusINS_11PointNormalEEEdRKT_S4_S4_@Base 1.6
 (optional=templinst)_ZN3pcl21getCircumcircleRadiusINS_11PointXYZHSVEEEdRKT_S4_S4_@Base 1.6
 (optional=templinst)_ZN3pcl21getCircumcircleRadiusINS_11PointXYZRGBEEEdRKT_S4_S4_@Base 1.6
 (optional=templinst)_ZN3pcl21getCircumcircleRadiusINS_12PointXYZRGBAEEEdRKT_S4_S4_@Base 1.6
 (optional=templinst)_ZN3pcl21getCircumcircleRadiusINS_12PointXYZRGBLEEEdRKT_S4_S4_@Base 1.6
 (optional=templinst)_ZN3pcl21getCircumcircleRadiusINS_13InterestPointEEEdRKT_S4_S4_@Base 1.6
 (optional=templinst)_ZN3pcl21getCircumcircleRadiusINS_14PointWithRangeEEEdRKT_S4_S4_@Base 1.6
 (optional=templinst)_ZN3pcl21getCircumcircleRadiusINS_14PointWithScaleEEEdRKT_S4_S4_@Base 1.6
 (optional=templinst)_ZN3pcl21getCircumcircleRadiusINS_15PointXYZINormalEEEdRKT_S4_S4_@Base 1.6
 (optional=templinst)_ZN3pcl21getCircumcircleRadiusINS_17PointXYZRGBNormalEEEdRKT_S4_S4_@Base 1.6
 (optional=templinst)_ZN3pcl21getCircumcircleRadiusINS_18PointWithViewpointEEEdRKT_S4_S4_@Base 1.6
 (optional=templinst)_ZN3pcl21getCircumcircleRadiusINS_8PointXYZEEEdRKT_S4_S4_@Base 1.6
 (optional=templinst)_ZN3pcl21getCircumcircleRadiusINS_9PointXYZIEEEdRKT_S4_S4_@Base 1.6
 (optional=templinst)_ZN3pcl21getCircumcircleRadiusINS_9PointXYZLEEEdRKT_S4_S4_@Base 1.6
 (optional=templinst)_ZN3pcl22CloudSurfaceProcessingINS_11PointXYZRGBENS_11PointNormalEE7processERNS_10PointCloudIS2_EE@Base 1.6
 (optional=templinst)_ZN3pcl22CloudSurfaceProcessingINS_11PointXYZRGBENS_11PointNormalEED0Ev@Base 1.6
 (optional=templinst)_ZN3pcl22CloudSurfaceProcessingINS_11PointXYZRGBENS_11PointNormalEED1Ev@Base 1.6
 (optional=templinst)_ZN3pcl22CloudSurfaceProcessingINS_11PointXYZRGBENS_11PointNormalEED2Ev@Base 1.6
 (optional=templinst)_ZN3pcl22CloudSurfaceProcessingINS_11PointXYZRGBENS_12PointXYZRGBAEE7processERNS_10PointCloudIS2_EE@Base 1.6
 (optional=templinst)_ZN3pcl22CloudSurfaceProcessingINS_11PointXYZRGBENS_12PointXYZRGBAEED0Ev@Base 1.6
 (optional=templinst)_ZN3pcl22CloudSurfaceProcessingINS_11PointXYZRGBENS_12PointXYZRGBAEED1Ev@Base 1.6
 (optional=templinst)_ZN3pcl22CloudSurfaceProcessingINS_11PointXYZRGBENS_12PointXYZRGBAEED2Ev@Base 1.6
 (optional=templinst)_ZN3pcl22CloudSurfaceProcessingINS_11PointXYZRGBENS_8PointXYZEE7processERNS_10PointCloudIS2_EE@Base 1.6
 (optional=templinst)_ZN3pcl22CloudSurfaceProcessingINS_11PointXYZRGBENS_8PointXYZEED0Ev@Base 1.6
 (optional=templinst)_ZN3pcl22CloudSurfaceProcessingINS_11PointXYZRGBENS_8PointXYZEED1Ev@Base 1.6
 (optional=templinst)_ZN3pcl22CloudSurfaceProcessingINS_11PointXYZRGBENS_8PointXYZEED2Ev@Base 1.6
 (optional=templinst)_ZN3pcl22CloudSurfaceProcessingINS_11PointXYZRGBES1_E7processERNS_10PointCloudIS1_EE@Base 1.6
 (optional=templinst)_ZN3pcl22CloudSurfaceProcessingINS_11PointXYZRGBES1_ED0Ev@Base 1.6
 (optional=templinst)_ZN3pcl22CloudSurfaceProcessingINS_11PointXYZRGBES1_ED1Ev@Base 1.6
 (optional=templinst)_ZN3pcl22CloudSurfaceProcessingINS_11PointXYZRGBES1_ED2Ev@Base 1.6
 (optional=templinst)_ZN3pcl22CloudSurfaceProcessingINS_12PointXYZRGBAENS_11PointNormalEE7processERNS_10PointCloudIS2_EE@Base 1.6
 (optional=templinst)_ZN3pcl22CloudSurfaceProcessingINS_12PointXYZRGBAENS_11PointNormalEED0Ev@Base 1.6
 (optional=templinst)_ZN3pcl22CloudSurfaceProcessingINS_12PointXYZRGBAENS_11PointNormalEED1Ev@Base 1.6
 (optional=templinst)_ZN3pcl22CloudSurfaceProcessingINS_12PointXYZRGBAENS_11PointNormalEED2Ev@Base 1.6
 (optional=templinst)_ZN3pcl22CloudSurfaceProcessingINS_12PointXYZRGBAENS_11PointXYZRGBEE7processERNS_10PointCloudIS2_EE@Base 1.6
 (optional=templinst)_ZN3pcl22CloudSurfaceProcessingINS_12PointXYZRGBAENS_11PointXYZRGBEED0Ev@Base 1.6
 (optional=templinst)_ZN3pcl22CloudSurfaceProcessingINS_12PointXYZRGBAENS_11PointXYZRGBEED1Ev@Base 1.6
 (optional=templinst)_ZN3pcl22CloudSurfaceProcessingINS_12PointXYZRGBAENS_11PointXYZRGBEED2Ev@Base 1.6
 (optional=templinst)_ZN3pcl22CloudSurfaceProcessingINS_12PointXYZRGBAENS_8PointXYZEE7processERNS_10PointCloudIS2_EE@Base 1.6
 (optional=templinst)_ZN3pcl22CloudSurfaceProcessingINS_12PointXYZRGBAENS_8PointXYZEED0Ev@Base 1.6
 (optional=templinst)_ZN3pcl22CloudSurfaceProcessingINS_12PointXYZRGBAENS_8PointXYZEED1Ev@Base 1.6
 (optional=templinst)_ZN3pcl22CloudSurfaceProcessingINS_12PointXYZRGBAENS_8PointXYZEED2Ev@Base 1.6
 (optional=templinst)_ZN3pcl22CloudSurfaceProcessingINS_12PointXYZRGBAES1_E7processERNS_10PointCloudIS1_EE@Base 1.6
 (optional=templinst)_ZN3pcl22CloudSurfaceProcessingINS_12PointXYZRGBAES1_ED0Ev@Base 1.6
 (optional=templinst)_ZN3pcl22CloudSurfaceProcessingINS_12PointXYZRGBAES1_ED1Ev@Base 1.6
 (optional=templinst)_ZN3pcl22CloudSurfaceProcessingINS_12PointXYZRGBAES1_ED2Ev@Base 1.6
 (optional=templinst)_ZN3pcl22CloudSurfaceProcessingINS_8PointXYZENS_11PointNormalEE7processERNS_10PointCloudIS2_EE@Base 1.6
 (optional=templinst)_ZN3pcl22CloudSurfaceProcessingINS_8PointXYZENS_11PointNormalEED0Ev@Base 1.6
 (optional=templinst)_ZN3pcl22CloudSurfaceProcessingINS_8PointXYZENS_11PointNormalEED1Ev@Base 1.6
 (optional=templinst)_ZN3pcl22CloudSurfaceProcessingINS_8PointXYZENS_11PointNormalEED2Ev@Base 1.6
 (optional=templinst)_ZN3pcl22CloudSurfaceProcessingINS_8PointXYZENS_11PointXYZRGBEE7processERNS_10PointCloudIS2_EE@Base 1.6
 (optional=templinst)_ZN3pcl22CloudSurfaceProcessingINS_8PointXYZENS_11PointXYZRGBEED0Ev@Base 1.6
 (optional=templinst)_ZN3pcl22CloudSurfaceProcessingINS_8PointXYZENS_11PointXYZRGBEED1Ev@Base 1.6
 (optional=templinst)_ZN3pcl22CloudSurfaceProcessingINS_8PointXYZENS_11PointXYZRGBEED2Ev@Base 1.6
 (optional=templinst)_ZN3pcl22CloudSurfaceProcessingINS_8PointXYZENS_12PointXYZRGBAEE7processERNS_10PointCloudIS2_EE@Base 1.6
 (optional=templinst)_ZN3pcl22CloudSurfaceProcessingINS_8PointXYZENS_12PointXYZRGBAEED0Ev@Base 1.6
 (optional=templinst)_ZN3pcl22CloudSurfaceProcessingINS_8PointXYZENS_12PointXYZRGBAEED1Ev@Base 1.6
 (optional=templinst)_ZN3pcl22CloudSurfaceProcessingINS_8PointXYZENS_12PointXYZRGBAEED2Ev@Base 1.6
 (optional=templinst)_ZN3pcl22CloudSurfaceProcessingINS_8PointXYZES1_E7processERNS_10PointCloudIS1_EE@Base 1.6
 (optional=templinst)_ZN3pcl22CloudSurfaceProcessingINS_8PointXYZES1_ED0Ev@Base 1.6
 (optional=templinst)_ZN3pcl22CloudSurfaceProcessingINS_8PointXYZES1_ED1Ev@Base 1.6
 (optional=templinst)_ZN3pcl22CloudSurfaceProcessingINS_8PointXYZES1_ED2Ev@Base 1.6
 (optional=templinst)_ZN3pcl23computeCovarianceMatrixINS_11PointXYZRGBEEEjRKNS_10PointCloudIT_EERKSt6vectorIiSaIiEERKN5Eigen6MatrixIfLi4ELi1ELi0ELi4ELi1EEERNSD_IfLi3ELi3ELi0ELi3ELi3EEE@Base 1.6
 (optional=templinst)_ZN3pcl23computeCovarianceMatrixINS_12PointXYZRGBAEEEjRKNS_10PointCloudIT_EERKSt6vectorIiSaIiEERKN5Eigen6MatrixIfLi4ELi1ELi0ELi4ELi1EEERNSD_IfLi3ELi3ELi0ELi3ELi3EEE@Base 1.6
 (optional=templinst)_ZN3pcl23computeCovarianceMatrixINS_8PointXYZEEEjRKNS_10PointCloudIT_EERKSt6vectorIiSaIiEERKN5Eigen6MatrixIfLi4ELi1ELi0ELi4ELi1EEERNSD_IfLi3ELi3ELi0ELi3ELi3EEE@Base 1.6
 _ZN3pcl25MeshSmoothingLaplacianVTK17performProcessingERNS_11PolygonMeshE@Base 1.6
 _ZN3pcl25MeshSmoothingLaplacianVTKD0Ev@Base 1.6
 _ZN3pcl25MeshSmoothingLaplacianVTKD1Ev@Base 1.6
 _ZN3pcl25MeshSmoothingLaplacianVTKD2Ev@Base 1.6
 (optional=templinst)_ZN3pcl26DefaultPointRepresentationINS_11PointNormalEED0Ev@Base 1.6
 (optional=templinst)_ZN3pcl26DefaultPointRepresentationINS_11PointNormalEED1Ev@Base 1.6
 (optional=templinst)_ZN3pcl26DefaultPointRepresentationINS_11PointNormalEED2Ev@Base 1.6
 (optional=templinst)_ZN3pcl26DefaultPointRepresentationINS_11PointXYZHSVEED0Ev@Base 1.6
 (optional=templinst)_ZN3pcl26DefaultPointRepresentationINS_11PointXYZHSVEED1Ev@Base 1.6
 (optional=templinst)_ZN3pcl26DefaultPointRepresentationINS_11PointXYZHSVEED2Ev@Base 1.6
 (optional=templinst)_ZN3pcl26DefaultPointRepresentationINS_11PointXYZRGBEED0Ev@Base 1.6
 (optional=templinst)_ZN3pcl26DefaultPointRepresentationINS_11PointXYZRGBEED1Ev@Base 1.6
 (optional=templinst)_ZN3pcl26DefaultPointRepresentationINS_11PointXYZRGBEED2Ev@Base 1.6
 (optional=templinst)_ZN3pcl26DefaultPointRepresentationINS_12PointXYZRGBAEED0Ev@Base 1.6
 (optional=templinst)_ZN3pcl26DefaultPointRepresentationINS_12PointXYZRGBAEED1Ev@Base 1.6
 (optional=templinst)_ZN3pcl26DefaultPointRepresentationINS_12PointXYZRGBAEED2Ev@Base 1.6
 (optional=templinst)_ZN3pcl26DefaultPointRepresentationINS_12PointXYZRGBLEED0Ev@Base 1.6
 (optional=templinst)_ZN3pcl26DefaultPointRepresentationINS_12PointXYZRGBLEED1Ev@Base 1.6
 (optional=templinst)_ZN3pcl26DefaultPointRepresentationINS_12PointXYZRGBLEED2Ev@Base 1.6
 (optional=templinst)_ZN3pcl26DefaultPointRepresentationINS_13InterestPointEED0Ev@Base 1.6
 (optional=templinst)_ZN3pcl26DefaultPointRepresentationINS_13InterestPointEED1Ev@Base 1.6
 (optional=templinst)_ZN3pcl26DefaultPointRepresentationINS_13InterestPointEED2Ev@Base 1.6
 (optional=templinst)_ZN3pcl26DefaultPointRepresentationINS_14PointWithRangeEED0Ev@Base 1.6
 (optional=templinst)_ZN3pcl26DefaultPointRepresentationINS_14PointWithRangeEED1Ev@Base 1.6
 (optional=templinst)_ZN3pcl26DefaultPointRepresentationINS_14PointWithRangeEED2Ev@Base 1.6
 (optional=templinst)_ZN3pcl26DefaultPointRepresentationINS_14PointWithScaleEED0Ev@Base 1.6
 (optional=templinst)_ZN3pcl26DefaultPointRepresentationINS_14PointWithScaleEED1Ev@Base 1.6
 (optional=templinst)_ZN3pcl26DefaultPointRepresentationINS_14PointWithScaleEED2Ev@Base 1.6
 (optional=templinst)_ZN3pcl26DefaultPointRepresentationINS_15PointXYZINormalEED0Ev@Base 1.6
 (optional=templinst)_ZN3pcl26DefaultPointRepresentationINS_15PointXYZINormalEED1Ev@Base 1.6
 (optional=templinst)_ZN3pcl26DefaultPointRepresentationINS_15PointXYZINormalEED2Ev@Base 1.6
 (optional=templinst)_ZN3pcl26DefaultPointRepresentationINS_17PointXYZRGBNormalEED0Ev@Base 1.6
 (optional=templinst)_ZN3pcl26DefaultPointRepresentationINS_17PointXYZRGBNormalEED1Ev@Base 1.6
 (optional=templinst)_ZN3pcl26DefaultPointRepresentationINS_17PointXYZRGBNormalEED2Ev@Base 1.6
 (optional=templinst)_ZN3pcl26DefaultPointRepresentationINS_18PointWithViewpointEED0Ev@Base 1.6
 (optional=templinst)_ZN3pcl26DefaultPointRepresentationINS_18PointWithViewpointEED1Ev@Base 1.6
 (optional=templinst)_ZN3pcl26DefaultPointRepresentationINS_18PointWithViewpointEED2Ev@Base 1.6
 (optional=templinst)_ZN3pcl26DefaultPointRepresentationINS_7PointXYEED0Ev@Base 1.6
 (optional=templinst)_ZN3pcl26DefaultPointRepresentationINS_7PointXYEED1Ev@Base 1.6
 (optional=templinst)_ZN3pcl26DefaultPointRepresentationINS_7PointXYEED2Ev@Base 1.6
 (optional=templinst)_ZN3pcl26DefaultPointRepresentationINS_8PointXYZEED0Ev@Base 1.6
 (optional=templinst)_ZN3pcl26DefaultPointRepresentationINS_8PointXYZEED1Ev@Base 1.6
 (optional=templinst)_ZN3pcl26DefaultPointRepresentationINS_8PointXYZEED2Ev@Base 1.6
 (optional=templinst)_ZN3pcl26DefaultPointRepresentationINS_9PointXYZIEED0Ev@Base 1.6
 (optional=templinst)_ZN3pcl26DefaultPointRepresentationINS_9PointXYZIEED1Ev@Base 1.6
 (optional=templinst)_ZN3pcl26DefaultPointRepresentationINS_9PointXYZIEED2Ev@Base 1.6
 (optional=templinst)_ZN3pcl26DefaultPointRepresentationINS_9PointXYZLEED0Ev@Base 1.6
 (optional=templinst)_ZN3pcl26DefaultPointRepresentationINS_9PointXYZLEED1Ev@Base 1.6
 (optional=templinst)_ZN3pcl26DefaultPointRepresentationINS_9PointXYZLEED2Ev@Base 1.6
 _ZN3pcl28MeshSmoothingWindowedSincVTK17performProcessingERNS_11PolygonMeshE@Base 1.6
 _ZN3pcl28MeshSmoothingWindowedSincVTKD0Ev@Base 1.6
 _ZN3pcl28MeshSmoothingWindowedSincVTKD1Ev@Base 1.6
 _ZN3pcl28MeshSmoothingWindowedSincVTKD2Ev@Base 1.6
 (optional=templinst)_ZN3pcl29GreedyProjectionTriangulationINS_11PointNormalEE10doubleEdgeC1ERKS3_@Base 1.6
 (optional=templinst)_ZN3pcl29GreedyProjectionTriangulationINS_11PointNormalEE10doubleEdgeC1Ev@Base 1.6
 (optional=templinst)_ZN3pcl29GreedyProjectionTriangulationINS_11PointNormalEE10doubleEdgeC2ERKS3_@Base 1.6
 (optional=templinst)_ZN3pcl29GreedyProjectionTriangulationINS_11PointNormalEE10doubleEdgeC2Ev@Base 1.6
 (optional=templinst)_ZN3pcl29GreedyProjectionTriangulationINS_11PointNormalEE10getPartIDsEv@Base 1.6
 (optional=templinst)_ZN3pcl29GreedyProjectionTriangulationINS_11PointNormalEE11addTriangleEiiiRSt6vectorINS_8VerticesESaIS4_EE@Base 1.6
 (optional=templinst)_ZN3pcl29GreedyProjectionTriangulationINS_11PointNormalEE12connectPointERSt6vectorINS_8VerticesESaIS4_EEiiiRKN5Eigen6MatrixIfLi2ELi1ELi0ELi2ELi1EEESC_SC_@Base 1.6
 (optional=templinst)_ZN3pcl29GreedyProjectionTriangulationINS_11PointNormalEE13closeTriangleERSt6vectorINS_8VerticesESaIS4_EE@Base 1.6
 (optional=templinst)_ZN3pcl29GreedyProjectionTriangulationINS_11PointNormalEE14addFringePointEii@Base 1.6
 (optional=templinst)_ZN3pcl29GreedyProjectionTriangulationINS_11PointNormalEE14getPointStatesEv@Base 1.6
 (optional=templinst)_ZN3pcl29GreedyProjectionTriangulationINS_11PointNormalEE14nnAngleSortAscERKNS2_7nnAngleES5_@Base 1.6
 (optional=templinst)_ZN3pcl29GreedyProjectionTriangulationINS_11PointNormalEE15getMaximumAngleEv@Base 1.6
 (optional=templinst)_ZN3pcl29GreedyProjectionTriangulationINS_11PointNormalEE15getMinimumAngleEv@Base 1.6
 (optional=templinst)_ZN3pcl29GreedyProjectionTriangulationINS_11PointNormalEE15getSearchRadiusEv@Base 1.6
 (optional=templinst)_ZN3pcl29GreedyProjectionTriangulationINS_11PointNormalEE15getTriangleListERKNS_11PolygonMeshE@Base 1.6
 (optional=templinst)_ZN3pcl29GreedyProjectionTriangulationINS_11PointNormalEE15setMaximumAngleEd@Base 1.6
 (optional=templinst)_ZN3pcl29GreedyProjectionTriangulationINS_11PointNormalEE15setMinimumAngleEd@Base 1.6
 (optional=templinst)_ZN3pcl29GreedyProjectionTriangulationINS_11PointNormalEE15setSearchRadiusEd@Base 1.6
 (optional=templinst)_ZN3pcl29GreedyProjectionTriangulationINS_11PointNormalEE19reconstructPolygonsERSt6vectorINS_8VerticesESaIS4_EE@Base 1.6
 (optional=templinst)_ZN3pcl29GreedyProjectionTriangulationINS_11PointNormalEE20getNormalConsistencyEv@Base 1.6
 (optional=templinst)_ZN3pcl29GreedyProjectionTriangulationINS_11PointNormalEE20setNormalConsistencyEb@Base 1.6
 (optional=templinst)_ZN3pcl29GreedyProjectionTriangulationINS_11PointNormalEE21performReconstructionERNS_11PolygonMeshE@Base 1.6
 (optional=templinst)_ZN3pcl29GreedyProjectionTriangulationINS_11PointNormalEE21performReconstructionERSt6vectorINS_8VerticesESaIS4_EE@Base 1.6
 (optional=templinst)_ZN3pcl29GreedyProjectionTriangulationINS_11PointNormalEE22getMaximumSurfaceAngleEv@Base 1.6
 (optional=templinst)_ZN3pcl29GreedyProjectionTriangulationINS_11PointNormalEE22setMaximumSurfaceAngleEd@Base 1.6
 (optional=templinst)_ZN3pcl29GreedyProjectionTriangulationINS_11PointNormalEE26getMaximumNearestNeighborsEv@Base 1.6
 (optional=templinst)_ZN3pcl29GreedyProjectionTriangulationINS_11PointNormalEE26setMaximumNearestNeighborsEi@Base 1.6
 (optional=templinst)_ZN3pcl29GreedyProjectionTriangulationINS_11PointNormalEE27getConsistentVertexOrderingEv@Base 1.6
 (optional=templinst)_ZN3pcl29GreedyProjectionTriangulationINS_11PointNormalEE27setConsistentVertexOrderingEb@Base 1.6
 (optional=templinst)_ZN3pcl29GreedyProjectionTriangulationINS_11PointNormalEE5getMuEv@Base 1.6
 (optional=templinst)_ZN3pcl29GreedyProjectionTriangulationINS_11PointNormalEE5setMuEd@Base 1.6
 (optional=templinst)_ZN3pcl29GreedyProjectionTriangulationINS_11PointNormalEE6getFFNEv@Base 1.6
 (optional=templinst)_ZN3pcl29GreedyProjectionTriangulationINS_11PointNormalEE6getSFNEv@Base 1.6
 (optional=templinst)_ZN3pcl29GreedyProjectionTriangulationINS_11PointNormalEEC1Ev@Base 1.6
 (optional=templinst)_ZN3pcl29GreedyProjectionTriangulationINS_11PointNormalEEC2Ev@Base 1.6
 (optional=templinst)_ZN3pcl29GreedyProjectionTriangulationINS_11PointNormalEED0Ev@Base 1.6
 (optional=templinst)_ZN3pcl29GreedyProjectionTriangulationINS_11PointNormalEED1Ev@Base 1.6
 (optional=templinst)_ZN3pcl29GreedyProjectionTriangulationINS_11PointNormalEED2Ev@Base 1.6
 (optional=templinst)_ZN3pcl29GreedyProjectionTriangulationINS_15PointXYZINormalEE10doubleEdgeC1ERKS3_@Base 1.6
 (optional=templinst)_ZN3pcl29GreedyProjectionTriangulationINS_15PointXYZINormalEE10doubleEdgeC1Ev@Base 1.6
 (optional=templinst)_ZN3pcl29GreedyProjectionTriangulationINS_15PointXYZINormalEE10doubleEdgeC2ERKS3_@Base 1.6
 (optional=templinst)_ZN3pcl29GreedyProjectionTriangulationINS_15PointXYZINormalEE10doubleEdgeC2Ev@Base 1.6
 (optional=templinst)_ZN3pcl29GreedyProjectionTriangulationINS_15PointXYZINormalEE10getPartIDsEv@Base 1.6
 (optional=templinst)_ZN3pcl29GreedyProjectionTriangulationINS_15PointXYZINormalEE11addTriangleEiiiRSt6vectorINS_8VerticesESaIS4_EE@Base 1.6
 (optional=templinst)_ZN3pcl29GreedyProjectionTriangulationINS_15PointXYZINormalEE12connectPointERSt6vectorINS_8VerticesESaIS4_EEiiiRKN5Eigen6MatrixIfLi2ELi1ELi0ELi2ELi1EEESC_SC_@Base 1.6
 (optional=templinst)_ZN3pcl29GreedyProjectionTriangulationINS_15PointXYZINormalEE13closeTriangleERSt6vectorINS_8VerticesESaIS4_EE@Base 1.6
 (optional=templinst)_ZN3pcl29GreedyProjectionTriangulationINS_15PointXYZINormalEE14addFringePointEii@Base 1.6
 (optional=templinst)_ZN3pcl29GreedyProjectionTriangulationINS_15PointXYZINormalEE14getPointStatesEv@Base 1.6
 (optional=templinst)_ZN3pcl29GreedyProjectionTriangulationINS_15PointXYZINormalEE14nnAngleSortAscERKNS2_7nnAngleES5_@Base 1.6
 (optional=templinst)_ZN3pcl29GreedyProjectionTriangulationINS_15PointXYZINormalEE15getMaximumAngleEv@Base 1.6
 (optional=templinst)_ZN3pcl29GreedyProjectionTriangulationINS_15PointXYZINormalEE15getMinimumAngleEv@Base 1.6
 (optional=templinst)_ZN3pcl29GreedyProjectionTriangulationINS_15PointXYZINormalEE15getSearchRadiusEv@Base 1.6
 (optional=templinst)_ZN3pcl29GreedyProjectionTriangulationINS_15PointXYZINormalEE15getTriangleListERKNS_11PolygonMeshE@Base 1.6
 (optional=templinst)_ZN3pcl29GreedyProjectionTriangulationINS_15PointXYZINormalEE15setMaximumAngleEd@Base 1.6
 (optional=templinst)_ZN3pcl29GreedyProjectionTriangulationINS_15PointXYZINormalEE15setMinimumAngleEd@Base 1.6
 (optional=templinst)_ZN3pcl29GreedyProjectionTriangulationINS_15PointXYZINormalEE15setSearchRadiusEd@Base 1.6
 (optional=templinst)_ZN3pcl29GreedyProjectionTriangulationINS_15PointXYZINormalEE19reconstructPolygonsERSt6vectorINS_8VerticesESaIS4_EE@Base 1.6
 (optional=templinst)_ZN3pcl29GreedyProjectionTriangulationINS_15PointXYZINormalEE20getNormalConsistencyEv@Base 1.6
 (optional=templinst)_ZN3pcl29GreedyProjectionTriangulationINS_15PointXYZINormalEE20setNormalConsistencyEb@Base 1.6
 (optional=templinst)_ZN3pcl29GreedyProjectionTriangulationINS_15PointXYZINormalEE21performReconstructionERNS_11PolygonMeshE@Base 1.6
 (optional=templinst)_ZN3pcl29GreedyProjectionTriangulationINS_15PointXYZINormalEE21performReconstructionERSt6vectorINS_8VerticesESaIS4_EE@Base 1.6
 (optional=templinst)_ZN3pcl29GreedyProjectionTriangulationINS_15PointXYZINormalEE22getMaximumSurfaceAngleEv@Base 1.6
 (optional=templinst)_ZN3pcl29GreedyProjectionTriangulationINS_15PointXYZINormalEE22setMaximumSurfaceAngleEd@Base 1.6
 (optional=templinst)_ZN3pcl29GreedyProjectionTriangulationINS_15PointXYZINormalEE26getMaximumNearestNeighborsEv@Base 1.6
 (optional=templinst)_ZN3pcl29GreedyProjectionTriangulationINS_15PointXYZINormalEE26setMaximumNearestNeighborsEi@Base 1.6
 (optional=templinst)_ZN3pcl29GreedyProjectionTriangulationINS_15PointXYZINormalEE27getConsistentVertexOrderingEv@Base 1.6
 (optional=templinst)_ZN3pcl29GreedyProjectionTriangulationINS_15PointXYZINormalEE27setConsistentVertexOrderingEb@Base 1.6
 (optional=templinst)_ZN3pcl29GreedyProjectionTriangulationINS_15PointXYZINormalEE5getMuEv@Base 1.6
 (optional=templinst)_ZN3pcl29GreedyProjectionTriangulationINS_15PointXYZINormalEE5setMuEd@Base 1.6
 (optional=templinst)_ZN3pcl29GreedyProjectionTriangulationINS_15PointXYZINormalEE6getFFNEv@Base 1.6
 (optional=templinst)_ZN3pcl29GreedyProjectionTriangulationINS_15PointXYZINormalEE6getSFNEv@Base 1.6
 (optional=templinst)_ZN3pcl29GreedyProjectionTriangulationINS_15PointXYZINormalEEC1Ev@Base 1.6
 (optional=templinst)_ZN3pcl29GreedyProjectionTriangulationINS_15PointXYZINormalEEC2Ev@Base 1.6
 (optional=templinst)_ZN3pcl29GreedyProjectionTriangulationINS_15PointXYZINormalEED0Ev@Base 1.6
 (optional=templinst)_ZN3pcl29GreedyProjectionTriangulationINS_15PointXYZINormalEED1Ev@Base 1.6
 (optional=templinst)_ZN3pcl29GreedyProjectionTriangulationINS_15PointXYZINormalEED2Ev@Base 1.6
 (optional=templinst)_ZN3pcl29GreedyProjectionTriangulationINS_17PointXYZRGBNormalEE10doubleEdgeC1ERKS3_@Base 1.6
 (optional=templinst)_ZN3pcl29GreedyProjectionTriangulationINS_17PointXYZRGBNormalEE10doubleEdgeC1Ev@Base 1.6
 (optional=templinst)_ZN3pcl29GreedyProjectionTriangulationINS_17PointXYZRGBNormalEE10doubleEdgeC2ERKS3_@Base 1.6
 (optional=templinst)_ZN3pcl29GreedyProjectionTriangulationINS_17PointXYZRGBNormalEE10doubleEdgeC2Ev@Base 1.6
 (optional=templinst)_ZN3pcl29GreedyProjectionTriangulationINS_17PointXYZRGBNormalEE10getPartIDsEv@Base 1.6
 (optional=templinst)_ZN3pcl29GreedyProjectionTriangulationINS_17PointXYZRGBNormalEE11addTriangleEiiiRSt6vectorINS_8VerticesESaIS4_EE@Base 1.6
 (optional=templinst)_ZN3pcl29GreedyProjectionTriangulationINS_17PointXYZRGBNormalEE12connectPointERSt6vectorINS_8VerticesESaIS4_EEiiiRKN5Eigen6MatrixIfLi2ELi1ELi0ELi2ELi1EEESC_SC_@Base 1.6
 (optional=templinst)_ZN3pcl29GreedyProjectionTriangulationINS_17PointXYZRGBNormalEE13closeTriangleERSt6vectorINS_8VerticesESaIS4_EE@Base 1.6
 (optional=templinst)_ZN3pcl29GreedyProjectionTriangulationINS_17PointXYZRGBNormalEE14addFringePointEii@Base 1.6
 (optional=templinst)_ZN3pcl29GreedyProjectionTriangulationINS_17PointXYZRGBNormalEE14getPointStatesEv@Base 1.6
 (optional=templinst)_ZN3pcl29GreedyProjectionTriangulationINS_17PointXYZRGBNormalEE14nnAngleSortAscERKNS2_7nnAngleES5_@Base 1.6
 (optional=templinst)_ZN3pcl29GreedyProjectionTriangulationINS_17PointXYZRGBNormalEE15getMaximumAngleEv@Base 1.6
 (optional=templinst)_ZN3pcl29GreedyProjectionTriangulationINS_17PointXYZRGBNormalEE15getMinimumAngleEv@Base 1.6
 (optional=templinst)_ZN3pcl29GreedyProjectionTriangulationINS_17PointXYZRGBNormalEE15getSearchRadiusEv@Base 1.6
 (optional=templinst)_ZN3pcl29GreedyProjectionTriangulationINS_17PointXYZRGBNormalEE15getTriangleListERKNS_11PolygonMeshE@Base 1.6
 (optional=templinst)_ZN3pcl29GreedyProjectionTriangulationINS_17PointXYZRGBNormalEE15setMaximumAngleEd@Base 1.6
 (optional=templinst)_ZN3pcl29GreedyProjectionTriangulationINS_17PointXYZRGBNormalEE15setMinimumAngleEd@Base 1.6
 (optional=templinst)_ZN3pcl29GreedyProjectionTriangulationINS_17PointXYZRGBNormalEE15setSearchRadiusEd@Base 1.6
 (optional=templinst)_ZN3pcl29GreedyProjectionTriangulationINS_17PointXYZRGBNormalEE19reconstructPolygonsERSt6vectorINS_8VerticesESaIS4_EE@Base 1.6
 (optional=templinst)_ZN3pcl29GreedyProjectionTriangulationINS_17PointXYZRGBNormalEE20getNormalConsistencyEv@Base 1.6
 (optional=templinst)_ZN3pcl29GreedyProjectionTriangulationINS_17PointXYZRGBNormalEE20setNormalConsistencyEb@Base 1.6
 (optional=templinst)_ZN3pcl29GreedyProjectionTriangulationINS_17PointXYZRGBNormalEE21performReconstructionERNS_11PolygonMeshE@Base 1.6
 (optional=templinst)_ZN3pcl29GreedyProjectionTriangulationINS_17PointXYZRGBNormalEE21performReconstructionERSt6vectorINS_8VerticesESaIS4_EE@Base 1.6
 (optional=templinst)_ZN3pcl29GreedyProjectionTriangulationINS_17PointXYZRGBNormalEE22getMaximumSurfaceAngleEv@Base 1.6
 (optional=templinst)_ZN3pcl29GreedyProjectionTriangulationINS_17PointXYZRGBNormalEE22setMaximumSurfaceAngleEd@Base 1.6
 (optional=templinst)_ZN3pcl29GreedyProjectionTriangulationINS_17PointXYZRGBNormalEE26getMaximumNearestNeighborsEv@Base 1.6
 (optional=templinst)_ZN3pcl29GreedyProjectionTriangulationINS_17PointXYZRGBNormalEE26setMaximumNearestNeighborsEi@Base 1.6
 (optional=templinst)_ZN3pcl29GreedyProjectionTriangulationINS_17PointXYZRGBNormalEE27getConsistentVertexOrderingEv@Base 1.6
 (optional=templinst)_ZN3pcl29GreedyProjectionTriangulationINS_17PointXYZRGBNormalEE27setConsistentVertexOrderingEb@Base 1.6
 (optional=templinst)_ZN3pcl29GreedyProjectionTriangulationINS_17PointXYZRGBNormalEE5getMuEv@Base 1.6
 (optional=templinst)_ZN3pcl29GreedyProjectionTriangulationINS_17PointXYZRGBNormalEE5setMuEd@Base 1.6
 (optional=templinst)_ZN3pcl29GreedyProjectionTriangulationINS_17PointXYZRGBNormalEE6getFFNEv@Base 1.6
 (optional=templinst)_ZN3pcl29GreedyProjectionTriangulationINS_17PointXYZRGBNormalEE6getSFNEv@Base 1.6
 (optional=templinst)_ZN3pcl29GreedyProjectionTriangulationINS_17PointXYZRGBNormalEEC1Ev@Base 1.6
 (optional=templinst)_ZN3pcl29GreedyProjectionTriangulationINS_17PointXYZRGBNormalEEC2Ev@Base 1.6
 (optional=templinst)_ZN3pcl29GreedyProjectionTriangulationINS_17PointXYZRGBNormalEED0Ev@Base 1.6
 (optional=templinst)_ZN3pcl29GreedyProjectionTriangulationINS_17PointXYZRGBNormalEED1Ev@Base 1.6
 (optional=templinst)_ZN3pcl29GreedyProjectionTriangulationINS_17PointXYZRGBNormalEED2Ev@Base 1.6
 (optional=templinst)_ZN3pcl30computeMeanAndCovarianceMatrixINS_11PointNormalEEEjRKNS_10PointCloudIT_EERKSt6vectorIiSaIiEERN5Eigen6MatrixIfLi3ELi3ELi0ELi3ELi3EEERNSD_IfLi4ELi1ELi0ELi4ELi1EEE@Base 1.6
 (optional=templinst)_ZN3pcl30computeMeanAndCovarianceMatrixINS_11PointNormalEEEjRKNS_10PointCloudIT_EERN5Eigen6MatrixIfLi3ELi3ELi0ELi3ELi3EEERNS8_IfLi4ELi1ELi0ELi4ELi1EEE@Base 1.6
 (optional=templinst)_ZN3pcl30computeMeanAndCovarianceMatrixINS_11PointXYZHSVEEEjRKNS_10PointCloudIT_EERKSt6vectorIiSaIiEERN5Eigen6MatrixIfLi3ELi3ELi0ELi3ELi3EEERNSD_IfLi4ELi1ELi0ELi4ELi1EEE@Base 1.6
 (optional=templinst)_ZN3pcl30computeMeanAndCovarianceMatrixINS_11PointXYZHSVEEEjRKNS_10PointCloudIT_EERN5Eigen6MatrixIfLi3ELi3ELi0ELi3ELi3EEERNS8_IfLi4ELi1ELi0ELi4ELi1EEE@Base 1.6
 (optional=templinst)_ZN3pcl30computeMeanAndCovarianceMatrixINS_11PointXYZRGBEEEjRKNS_10PointCloudIT_EERKSt6vectorIiSaIiEERN5Eigen6MatrixIfLi3ELi3ELi0ELi3ELi3EEERNSD_IfLi4ELi1ELi0ELi4ELi1EEE@Base 1.6
 (optional=templinst)_ZN3pcl30computeMeanAndCovarianceMatrixINS_11PointXYZRGBEEEjRKNS_10PointCloudIT_EERN5Eigen6MatrixIfLi3ELi3ELi0ELi3ELi3EEERNS8_IfLi4ELi1ELi0ELi4ELi1EEE@Base 1.6
 (optional=templinst)_ZN3pcl30computeMeanAndCovarianceMatrixINS_12PointXYZRGBAEEEjRKNS_10PointCloudIT_EERKSt6vectorIiSaIiEERN5Eigen6MatrixIfLi3ELi3ELi0ELi3ELi3EEERNSD_IfLi4ELi1ELi0ELi4ELi1EEE@Base 1.6
 (optional=templinst)_ZN3pcl30computeMeanAndCovarianceMatrixINS_12PointXYZRGBAEEEjRKNS_10PointCloudIT_EERN5Eigen6MatrixIfLi3ELi3ELi0ELi3ELi3EEERNS8_IfLi4ELi1ELi0ELi4ELi1EEE@Base 1.6
 (optional=templinst)_ZN3pcl30computeMeanAndCovarianceMatrixINS_12PointXYZRGBLEEEjRKNS_10PointCloudIT_EERKSt6vectorIiSaIiEERN5Eigen6MatrixIfLi3ELi3ELi0ELi3ELi3EEERNSD_IfLi4ELi1ELi0ELi4ELi1EEE@Base 1.6
 (optional=templinst)_ZN3pcl30computeMeanAndCovarianceMatrixINS_12PointXYZRGBLEEEjRKNS_10PointCloudIT_EERN5Eigen6MatrixIfLi3ELi3ELi0ELi3ELi3EEERNS8_IfLi4ELi1ELi0ELi4ELi1EEE@Base 1.6
 (optional=templinst)_ZN3pcl30computeMeanAndCovarianceMatrixINS_13InterestPointEEEjRKNS_10PointCloudIT_EERKSt6vectorIiSaIiEERN5Eigen6MatrixIfLi3ELi3ELi0ELi3ELi3EEERNSD_IfLi4ELi1ELi0ELi4ELi1EEE@Base 1.6
 (optional=templinst)_ZN3pcl30computeMeanAndCovarianceMatrixINS_13InterestPointEEEjRKNS_10PointCloudIT_EERN5Eigen6MatrixIfLi3ELi3ELi0ELi3ELi3EEERNS8_IfLi4ELi1ELi0ELi4ELi1EEE@Base 1.6
 (optional=templinst)_ZN3pcl30computeMeanAndCovarianceMatrixINS_14PointWithRangeEEEjRKNS_10PointCloudIT_EERKSt6vectorIiSaIiEERN5Eigen6MatrixIfLi3ELi3ELi0ELi3ELi3EEERNSD_IfLi4ELi1ELi0ELi4ELi1EEE@Base 1.6
 (optional=templinst)_ZN3pcl30computeMeanAndCovarianceMatrixINS_14PointWithRangeEEEjRKNS_10PointCloudIT_EERN5Eigen6MatrixIfLi3ELi3ELi0ELi3ELi3EEERNS8_IfLi4ELi1ELi0ELi4ELi1EEE@Base 1.6
 (optional=templinst)_ZN3pcl30computeMeanAndCovarianceMatrixINS_14PointWithScaleEEEjRKNS_10PointCloudIT_EERKSt6vectorIiSaIiEERN5Eigen6MatrixIfLi3ELi3ELi0ELi3ELi3EEERNSD_IfLi4ELi1ELi0ELi4ELi1EEE@Base 1.6
 (optional=templinst)_ZN3pcl30computeMeanAndCovarianceMatrixINS_14PointWithScaleEEEjRKNS_10PointCloudIT_EERN5Eigen6MatrixIfLi3ELi3ELi0ELi3ELi3EEERNS8_IfLi4ELi1ELi0ELi4ELi1EEE@Base 1.6
 (optional=templinst)_ZN3pcl30computeMeanAndCovarianceMatrixINS_15PointXYZINormalEEEjRKNS_10PointCloudIT_EERKSt6vectorIiSaIiEERN5Eigen6MatrixIfLi3ELi3ELi0ELi3ELi3EEERNSD_IfLi4ELi1ELi0ELi4ELi1EEE@Base 1.6
 (optional=templinst)_ZN3pcl30computeMeanAndCovarianceMatrixINS_15PointXYZINormalEEEjRKNS_10PointCloudIT_EERN5Eigen6MatrixIfLi3ELi3ELi0ELi3ELi3EEERNS8_IfLi4ELi1ELi0ELi4ELi1EEE@Base 1.6
 (optional=templinst)_ZN3pcl30computeMeanAndCovarianceMatrixINS_17PointXYZRGBNormalEEEjRKNS_10PointCloudIT_EERKSt6vectorIiSaIiEERN5Eigen6MatrixIfLi3ELi3ELi0ELi3ELi3EEERNSD_IfLi4ELi1ELi0ELi4ELi1EEE@Base 1.6
 (optional=templinst)_ZN3pcl30computeMeanAndCovarianceMatrixINS_17PointXYZRGBNormalEEEjRKNS_10PointCloudIT_EERN5Eigen6MatrixIfLi3ELi3ELi0ELi3ELi3EEERNS8_IfLi4ELi1ELi0ELi4ELi1EEE@Base 1.6
 (optional=templinst)_ZN3pcl30computeMeanAndCovarianceMatrixINS_18PointWithViewpointEEEjRKNS_10PointCloudIT_EERKSt6vectorIiSaIiEERN5Eigen6MatrixIfLi3ELi3ELi0ELi3ELi3EEERNSD_IfLi4ELi1ELi0ELi4ELi1EEE@Base 1.6
 (optional=templinst)_ZN3pcl30computeMeanAndCovarianceMatrixINS_18PointWithViewpointEEEjRKNS_10PointCloudIT_EERN5Eigen6MatrixIfLi3ELi3ELi0ELi3ELi3EEERNS8_IfLi4ELi1ELi0ELi4ELi1EEE@Base 1.6
 (optional=templinst)_ZN3pcl30computeMeanAndCovarianceMatrixINS_8PointXYZEEEjRKNS_10PointCloudIT_EERKSt6vectorIiSaIiEERN5Eigen6MatrixIfLi3ELi3ELi0ELi3ELi3EEERNSD_IfLi4ELi1ELi0ELi4ELi1EEE@Base 1.6
 (optional=templinst)_ZN3pcl30computeMeanAndCovarianceMatrixINS_8PointXYZEEEjRKNS_10PointCloudIT_EERN5Eigen6MatrixIfLi3ELi3ELi0ELi3ELi3EEERNS8_IfLi4ELi1ELi0ELi4ELi1EEE@Base 1.6
 (optional=templinst)_ZN3pcl30computeMeanAndCovarianceMatrixINS_9PointXYZIEEEjRKNS_10PointCloudIT_EERKSt6vectorIiSaIiEERN5Eigen6MatrixIfLi3ELi3ELi0ELi3ELi3EEERNSD_IfLi4ELi1ELi0ELi4ELi1EEE@Base 1.6
 (optional=templinst)_ZN3pcl30computeMeanAndCovarianceMatrixINS_9PointXYZIEEEjRKNS_10PointCloudIT_EERN5Eigen6MatrixIfLi3ELi3ELi0ELi3ELi3EEERNS8_IfLi4ELi1ELi0ELi4ELi1EEE@Base 1.6
 (optional=templinst)_ZN3pcl30computeMeanAndCovarianceMatrixINS_9PointXYZLEEEjRKNS_10PointCloudIT_EERKSt6vectorIiSaIiEERN5Eigen6MatrixIfLi3ELi3ELi0ELi3ELi3EEERNSD_IfLi4ELi1ELi0ELi4ELi1EEE@Base 1.6
 (optional=templinst)_ZN3pcl30computeMeanAndCovarianceMatrixINS_9PointXYZLEEEjRKNS_10PointCloudIT_EERN5Eigen6MatrixIfLi3ELi3ELi0ELi3ELi3EEERNS8_IfLi4ELi1ELi0ELi4ELi1EEE@Base 1.6
 (optional=templinst)_ZN3pcl6KdTreeINS_11PointNormalEE10setEpsilonEf@Base 1.6
 (optional=templinst)_ZN3pcl6KdTreeINS_11PointNormalEE13setInputCloudERKN5boost10shared_ptrIKNS_10PointCloudIS1_EEEERKNS4_IKSt6vectorIiSaIiEEEE@Base 1.6
 (optional=templinst)_ZN3pcl6KdTreeINS_11PointNormalEEC1Eb@Base 1.6
 (optional=templinst)_ZN3pcl6KdTreeINS_11PointNormalEEC2Eb@Base 1.6
 (optional=templinst)_ZN3pcl6KdTreeINS_11PointNormalEED0Ev@Base 1.6
 (optional=templinst)_ZN3pcl6KdTreeINS_11PointNormalEED1Ev@Base 1.6
 (optional=templinst)_ZN3pcl6KdTreeINS_11PointNormalEED2Ev@Base 1.6
 (optional=templinst)_ZN3pcl6KdTreeINS_11PointXYZHSVEE10setEpsilonEf@Base 1.6
 (optional=templinst)_ZN3pcl6KdTreeINS_11PointXYZHSVEE13setInputCloudERKN5boost10shared_ptrIKNS_10PointCloudIS1_EEEERKNS4_IKSt6vectorIiSaIiEEEE@Base 1.6
 (optional=templinst)_ZN3pcl6KdTreeINS_11PointXYZHSVEEC1Eb@Base 1.6
 (optional=templinst)_ZN3pcl6KdTreeINS_11PointXYZHSVEEC2Eb@Base 1.6
 (optional=templinst)_ZN3pcl6KdTreeINS_11PointXYZHSVEED0Ev@Base 1.6
 (optional=templinst)_ZN3pcl6KdTreeINS_11PointXYZHSVEED1Ev@Base 1.6
 (optional=templinst)_ZN3pcl6KdTreeINS_11PointXYZHSVEED2Ev@Base 1.6
 (optional=templinst)_ZN3pcl6KdTreeINS_11PointXYZRGBEE10setEpsilonEf@Base 1.6
 (optional=templinst)_ZN3pcl6KdTreeINS_11PointXYZRGBEE13setInputCloudERKN5boost10shared_ptrIKNS_10PointCloudIS1_EEEERKNS4_IKSt6vectorIiSaIiEEEE@Base 1.6
 (optional=templinst)_ZN3pcl6KdTreeINS_11PointXYZRGBEEC1Eb@Base 1.6
 (optional=templinst)_ZN3pcl6KdTreeINS_11PointXYZRGBEEC2Eb@Base 1.6
 (optional=templinst)_ZN3pcl6KdTreeINS_11PointXYZRGBEED0Ev@Base 1.6
 (optional=templinst)_ZN3pcl6KdTreeINS_11PointXYZRGBEED1Ev@Base 1.6
 (optional=templinst)_ZN3pcl6KdTreeINS_11PointXYZRGBEED2Ev@Base 1.6
 (optional=templinst)_ZN3pcl6KdTreeINS_12PointXYZRGBAEE10setEpsilonEf@Base 1.6
 (optional=templinst)_ZN3pcl6KdTreeINS_12PointXYZRGBAEE13setInputCloudERKN5boost10shared_ptrIKNS_10PointCloudIS1_EEEERKNS4_IKSt6vectorIiSaIiEEEE@Base 1.6
 (optional=templinst)_ZN3pcl6KdTreeINS_12PointXYZRGBAEEC1Eb@Base 1.6
 (optional=templinst)_ZN3pcl6KdTreeINS_12PointXYZRGBAEEC2Eb@Base 1.6
 (optional=templinst)_ZN3pcl6KdTreeINS_12PointXYZRGBAEED0Ev@Base 1.6
 (optional=templinst)_ZN3pcl6KdTreeINS_12PointXYZRGBAEED1Ev@Base 1.6
 (optional=templinst)_ZN3pcl6KdTreeINS_12PointXYZRGBAEED2Ev@Base 1.6
 (optional=templinst)_ZN3pcl6KdTreeINS_12PointXYZRGBLEE10setEpsilonEf@Base 1.6
 (optional=templinst)_ZN3pcl6KdTreeINS_12PointXYZRGBLEE13setInputCloudERKN5boost10shared_ptrIKNS_10PointCloudIS1_EEEERKNS4_IKSt6vectorIiSaIiEEEE@Base 1.6
 (optional=templinst)_ZN3pcl6KdTreeINS_12PointXYZRGBLEEC1Eb@Base 1.6
 (optional=templinst)_ZN3pcl6KdTreeINS_12PointXYZRGBLEEC2Eb@Base 1.6
 (optional=templinst)_ZN3pcl6KdTreeINS_12PointXYZRGBLEED0Ev@Base 1.6
 (optional=templinst)_ZN3pcl6KdTreeINS_12PointXYZRGBLEED1Ev@Base 1.6
 (optional=templinst)_ZN3pcl6KdTreeINS_12PointXYZRGBLEED2Ev@Base 1.6
 (optional=templinst)_ZN3pcl6KdTreeINS_13InterestPointEE10setEpsilonEf@Base 1.6
 (optional=templinst)_ZN3pcl6KdTreeINS_13InterestPointEE13setInputCloudERKN5boost10shared_ptrIKNS_10PointCloudIS1_EEEERKNS4_IKSt6vectorIiSaIiEEEE@Base 1.6
 (optional=templinst)_ZN3pcl6KdTreeINS_13InterestPointEEC1Eb@Base 1.6
 (optional=templinst)_ZN3pcl6KdTreeINS_13InterestPointEEC2Eb@Base 1.6
 (optional=templinst)_ZN3pcl6KdTreeINS_13InterestPointEED0Ev@Base 1.6
 (optional=templinst)_ZN3pcl6KdTreeINS_13InterestPointEED1Ev@Base 1.6
 (optional=templinst)_ZN3pcl6KdTreeINS_13InterestPointEED2Ev@Base 1.6
 (optional=templinst)_ZN3pcl6KdTreeINS_14PointWithRangeEE10setEpsilonEf@Base 1.6
 (optional=templinst)_ZN3pcl6KdTreeINS_14PointWithRangeEE13setInputCloudERKN5boost10shared_ptrIKNS_10PointCloudIS1_EEEERKNS4_IKSt6vectorIiSaIiEEEE@Base 1.6
 (optional=templinst)_ZN3pcl6KdTreeINS_14PointWithRangeEEC1Eb@Base 1.6
 (optional=templinst)_ZN3pcl6KdTreeINS_14PointWithRangeEEC2Eb@Base 1.6
 (optional=templinst)_ZN3pcl6KdTreeINS_14PointWithRangeEED0Ev@Base 1.6
 (optional=templinst)_ZN3pcl6KdTreeINS_14PointWithRangeEED1Ev@Base 1.6
 (optional=templinst)_ZN3pcl6KdTreeINS_14PointWithRangeEED2Ev@Base 1.6
 (optional=templinst)_ZN3pcl6KdTreeINS_14PointWithScaleEE10setEpsilonEf@Base 1.6
 (optional=templinst)_ZN3pcl6KdTreeINS_14PointWithScaleEE13setInputCloudERKN5boost10shared_ptrIKNS_10PointCloudIS1_EEEERKNS4_IKSt6vectorIiSaIiEEEE@Base 1.6
 (optional=templinst)_ZN3pcl6KdTreeINS_14PointWithScaleEEC1Eb@Base 1.6
 (optional=templinst)_ZN3pcl6KdTreeINS_14PointWithScaleEEC2Eb@Base 1.6
 (optional=templinst)_ZN3pcl6KdTreeINS_14PointWithScaleEED0Ev@Base 1.6
 (optional=templinst)_ZN3pcl6KdTreeINS_14PointWithScaleEED1Ev@Base 1.6
 (optional=templinst)_ZN3pcl6KdTreeINS_14PointWithScaleEED2Ev@Base 1.6
 (optional=templinst)_ZN3pcl6KdTreeINS_15PointXYZINormalEE10setEpsilonEf@Base 1.6
 (optional=templinst)_ZN3pcl6KdTreeINS_15PointXYZINormalEE13setInputCloudERKN5boost10shared_ptrIKNS_10PointCloudIS1_EEEERKNS4_IKSt6vectorIiSaIiEEEE@Base 1.6
 (optional=templinst)_ZN3pcl6KdTreeINS_15PointXYZINormalEEC1Eb@Base 1.6
 (optional=templinst)_ZN3pcl6KdTreeINS_15PointXYZINormalEEC2Eb@Base 1.6
 (optional=templinst)_ZN3pcl6KdTreeINS_15PointXYZINormalEED0Ev@Base 1.6
 (optional=templinst)_ZN3pcl6KdTreeINS_15PointXYZINormalEED1Ev@Base 1.6
 (optional=templinst)_ZN3pcl6KdTreeINS_15PointXYZINormalEED2Ev@Base 1.6
 (optional=templinst)_ZN3pcl6KdTreeINS_17PointXYZRGBNormalEE10setEpsilonEf@Base 1.6
 (optional=templinst)_ZN3pcl6KdTreeINS_17PointXYZRGBNormalEE13setInputCloudERKN5boost10shared_ptrIKNS_10PointCloudIS1_EEEERKNS4_IKSt6vectorIiSaIiEEEE@Base 1.6
 (optional=templinst)_ZN3pcl6KdTreeINS_17PointXYZRGBNormalEEC1Eb@Base 1.6
 (optional=templinst)_ZN3pcl6KdTreeINS_17PointXYZRGBNormalEEC2Eb@Base 1.6
 (optional=templinst)_ZN3pcl6KdTreeINS_17PointXYZRGBNormalEED0Ev@Base 1.6
 (optional=templinst)_ZN3pcl6KdTreeINS_17PointXYZRGBNormalEED1Ev@Base 1.6
 (optional=templinst)_ZN3pcl6KdTreeINS_17PointXYZRGBNormalEED2Ev@Base 1.6
 (optional=templinst)_ZN3pcl6KdTreeINS_18PointWithViewpointEE10setEpsilonEf@Base 1.6
 (optional=templinst)_ZN3pcl6KdTreeINS_18PointWithViewpointEE13setInputCloudERKN5boost10shared_ptrIKNS_10PointCloudIS1_EEEERKNS4_IKSt6vectorIiSaIiEEEE@Base 1.6
 (optional=templinst)_ZN3pcl6KdTreeINS_18PointWithViewpointEEC1Eb@Base 1.6
 (optional=templinst)_ZN3pcl6KdTreeINS_18PointWithViewpointEEC2Eb@Base 1.6
 (optional=templinst)_ZN3pcl6KdTreeINS_18PointWithViewpointEED0Ev@Base 1.6
 (optional=templinst)_ZN3pcl6KdTreeINS_18PointWithViewpointEED1Ev@Base 1.6
 (optional=templinst)_ZN3pcl6KdTreeINS_18PointWithViewpointEED2Ev@Base 1.6
 (optional=templinst)_ZN3pcl6KdTreeINS_7PointXYEE10setEpsilonEf@Base 1.6
 (optional=templinst)_ZN3pcl6KdTreeINS_7PointXYEE13setInputCloudERKN5boost10shared_ptrIKNS_10PointCloudIS1_EEEERKNS4_IKSt6vectorIiSaIiEEEE@Base 1.6
 (optional=templinst)_ZN3pcl6KdTreeINS_7PointXYEEC1Eb@Base 1.6
 (optional=templinst)_ZN3pcl6KdTreeINS_7PointXYEEC2Eb@Base 1.6
 (optional=templinst)_ZN3pcl6KdTreeINS_7PointXYEED0Ev@Base 1.6
 (optional=templinst)_ZN3pcl6KdTreeINS_7PointXYEED1Ev@Base 1.6
 (optional=templinst)_ZN3pcl6KdTreeINS_7PointXYEED2Ev@Base 1.6
 (optional=templinst)_ZN3pcl6KdTreeINS_8PointXYZEE10setEpsilonEf@Base 1.6
 (optional=templinst)_ZN3pcl6KdTreeINS_8PointXYZEE13setInputCloudERKN5boost10shared_ptrIKNS_10PointCloudIS1_EEEERKNS4_IKSt6vectorIiSaIiEEEE@Base 1.6
 (optional=templinst)_ZN3pcl6KdTreeINS_8PointXYZEEC1Eb@Base 1.6
 (optional=templinst)_ZN3pcl6KdTreeINS_8PointXYZEEC2Eb@Base 1.6
 (optional=templinst)_ZN3pcl6KdTreeINS_8PointXYZEED0Ev@Base 1.6
 (optional=templinst)_ZN3pcl6KdTreeINS_8PointXYZEED1Ev@Base 1.6
 (optional=templinst)_ZN3pcl6KdTreeINS_8PointXYZEED2Ev@Base 1.6
 (optional=templinst)_ZN3pcl6KdTreeINS_9PointXYZIEE10setEpsilonEf@Base 1.6
 (optional=templinst)_ZN3pcl6KdTreeINS_9PointXYZIEE13setInputCloudERKN5boost10shared_ptrIKNS_10PointCloudIS1_EEEERKNS4_IKSt6vectorIiSaIiEEEE@Base 1.6
 (optional=templinst)_ZN3pcl6KdTreeINS_9PointXYZIEEC1Eb@Base 1.6
 (optional=templinst)_ZN3pcl6KdTreeINS_9PointXYZIEEC2Eb@Base 1.6
 (optional=templinst)_ZN3pcl6KdTreeINS_9PointXYZIEED0Ev@Base 1.6
 (optional=templinst)_ZN3pcl6KdTreeINS_9PointXYZIEED1Ev@Base 1.6
 (optional=templinst)_ZN3pcl6KdTreeINS_9PointXYZIEED2Ev@Base 1.6
 (optional=templinst)_ZN3pcl6KdTreeINS_9PointXYZLEE10setEpsilonEf@Base 1.6
 (optional=templinst)_ZN3pcl6KdTreeINS_9PointXYZLEE13setInputCloudERKN5boost10shared_ptrIKNS_10PointCloudIS1_EEEERKNS4_IKSt6vectorIiSaIiEEEE@Base 1.6
 (optional=templinst)_ZN3pcl6KdTreeINS_9PointXYZLEEC1Eb@Base 1.6
 (optional=templinst)_ZN3pcl6KdTreeINS_9PointXYZLEEC2Eb@Base 1.6
 (optional=templinst)_ZN3pcl6KdTreeINS_9PointXYZLEED0Ev@Base 1.6
 (optional=templinst)_ZN3pcl6KdTreeINS_9PointXYZLEED1Ev@Base 1.6
 (optional=templinst)_ZN3pcl6KdTreeINS_9PointXYZLEED2Ev@Base 1.6
 (optional=templinst)_ZN3pcl6detail10FieldAdderINS_11PointNormalEEclINS_6fields1xEEEvv@Base 1.6
 (optional=templinst)_ZN3pcl6detail10FieldAdderINS_11PointNormalEEclINS_6fields1yEEEvv@Base 1.6
 (optional=templinst)_ZN3pcl6detail10FieldAdderINS_11PointNormalEEclINS_6fields1zEEEvv@Base 1.6
 (optional=templinst)_ZN3pcl6detail10FieldAdderINS_11PointNormalEEclINS_6fields8normal_xEEEvv@Base 1.6
 (optional=templinst)_ZN3pcl6detail10FieldAdderINS_11PointNormalEEclINS_6fields8normal_yEEEvv@Base 1.6
 (optional=templinst)_ZN3pcl6detail10FieldAdderINS_11PointNormalEEclINS_6fields8normal_zEEEvv@Base 1.6
 (optional=templinst)_ZN3pcl6detail10FieldAdderINS_11PointNormalEEclINS_6fields9curvatureEEEvv@Base 1.6
 (optional=templinst)_ZN3pcl6detail10FieldAdderINS_11PointXYZHSVEEclINS_6fields1hEEEvv@Base 1.6
 (optional=templinst)_ZN3pcl6detail10FieldAdderINS_11PointXYZHSVEEclINS_6fields1sEEEvv@Base 1.6
 (optional=templinst)_ZN3pcl6detail10FieldAdderINS_11PointXYZHSVEEclINS_6fields1vEEEvv@Base 1.6
 (optional=templinst)_ZN3pcl6detail10FieldAdderINS_11PointXYZHSVEEclINS_6fields1xEEEvv@Base 1.6
 (optional=templinst)_ZN3pcl6detail10FieldAdderINS_11PointXYZHSVEEclINS_6fields1yEEEvv@Base 1.6
 (optional=templinst)_ZN3pcl6detail10FieldAdderINS_11PointXYZHSVEEclINS_6fields1zEEEvv@Base 1.6
 (optional=templinst)_ZN3pcl6detail10FieldAdderINS_11PointXYZRGBEEclINS_6fields1xEEEvv@Base 1.6
 (optional=templinst)_ZN3pcl6detail10FieldAdderINS_11PointXYZRGBEEclINS_6fields1yEEEvv@Base 1.6
 (optional=templinst)_ZN3pcl6detail10FieldAdderINS_11PointXYZRGBEEclINS_6fields1zEEEvv@Base 1.6
 (optional=templinst)_ZN3pcl6detail10FieldAdderINS_11PointXYZRGBEEclINS_6fields3rgbEEEvv@Base 1.6
 (optional=templinst)_ZN3pcl6detail10FieldAdderINS_12PointXYZRGBAEEclINS_6fields1xEEEvv@Base 1.6
 (optional=templinst)_ZN3pcl6detail10FieldAdderINS_12PointXYZRGBAEEclINS_6fields1yEEEvv@Base 1.6
 (optional=templinst)_ZN3pcl6detail10FieldAdderINS_12PointXYZRGBAEEclINS_6fields1zEEEvv@Base 1.6
 (optional=templinst)_ZN3pcl6detail10FieldAdderINS_12PointXYZRGBAEEclINS_6fields4rgbaEEEvv@Base 1.6
 (optional=templinst)_ZN3pcl6detail10FieldAdderINS_12PointXYZRGBLEEclINS_6fields1xEEEvv@Base 1.6
 (optional=templinst)_ZN3pcl6detail10FieldAdderINS_12PointXYZRGBLEEclINS_6fields1yEEEvv@Base 1.6
 (optional=templinst)_ZN3pcl6detail10FieldAdderINS_12PointXYZRGBLEEclINS_6fields1zEEEvv@Base 1.6
 (optional=templinst)_ZN3pcl6detail10FieldAdderINS_12PointXYZRGBLEEclINS_6fields4rgbaEEEvv@Base 1.6
 (optional=templinst)_ZN3pcl6detail10FieldAdderINS_12PointXYZRGBLEEclINS_6fields5labelEEEvv@Base 1.6
 (optional=templinst)_ZN3pcl6detail10FieldAdderINS_13InterestPointEEclINS_6fields1xEEEvv@Base 1.6
 (optional=templinst)_ZN3pcl6detail10FieldAdderINS_13InterestPointEEclINS_6fields1yEEEvv@Base 1.6
 (optional=templinst)_ZN3pcl6detail10FieldAdderINS_13InterestPointEEclINS_6fields1zEEEvv@Base 1.6
 (optional=templinst)_ZN3pcl6detail10FieldAdderINS_13InterestPointEEclINS_6fields8strengthEEEvv@Base 1.6
 (optional=templinst)_ZN3pcl6detail10FieldAdderINS_14PointWithRangeEEclINS_6fields1xEEEvv@Base 1.6
 (optional=templinst)_ZN3pcl6detail10FieldAdderINS_14PointWithRangeEEclINS_6fields1yEEEvv@Base 1.6
 (optional=templinst)_ZN3pcl6detail10FieldAdderINS_14PointWithRangeEEclINS_6fields1zEEEvv@Base 1.6
 (optional=templinst)_ZN3pcl6detail10FieldAdderINS_14PointWithRangeEEclINS_6fields5rangeEEEvv@Base 1.6
 (optional=templinst)_ZN3pcl6detail10FieldAdderINS_14PointWithScaleEEclINS_6fields1xEEEvv@Base 1.6
 (optional=templinst)_ZN3pcl6detail10FieldAdderINS_14PointWithScaleEEclINS_6fields1yEEEvv@Base 1.6
 (optional=templinst)_ZN3pcl6detail10FieldAdderINS_14PointWithScaleEEclINS_6fields1zEEEvv@Base 1.6
 (optional=templinst)_ZN3pcl6detail10FieldAdderINS_14PointWithScaleEEclINS_6fields5scaleEEEvv@Base 1.6
 (optional=templinst)_ZN3pcl6detail10FieldAdderINS_15PointXYZINormalEEclINS_6fields1xEEEvv@Base 1.6
 (optional=templinst)_ZN3pcl6detail10FieldAdderINS_15PointXYZINormalEEclINS_6fields1yEEEvv@Base 1.6
 (optional=templinst)_ZN3pcl6detail10FieldAdderINS_15PointXYZINormalEEclINS_6fields1zEEEvv@Base 1.6
 (optional=templinst)_ZN3pcl6detail10FieldAdderINS_15PointXYZINormalEEclINS_6fields8normal_xEEEvv@Base 1.6
 (optional=templinst)_ZN3pcl6detail10FieldAdderINS_15PointXYZINormalEEclINS_6fields8normal_yEEEvv@Base 1.6
 (optional=templinst)_ZN3pcl6detail10FieldAdderINS_15PointXYZINormalEEclINS_6fields8normal_zEEEvv@Base 1.6
 (optional=templinst)_ZN3pcl6detail10FieldAdderINS_15PointXYZINormalEEclINS_6fields9curvatureEEEvv@Base 1.6
 (optional=templinst)_ZN3pcl6detail10FieldAdderINS_15PointXYZINormalEEclINS_6fields9intensityEEEvv@Base 1.6
 (optional=templinst)_ZN3pcl6detail10FieldAdderINS_17PointXYZRGBNormalEEclINS_6fields1xEEEvv@Base 1.6
 (optional=templinst)_ZN3pcl6detail10FieldAdderINS_17PointXYZRGBNormalEEclINS_6fields1yEEEvv@Base 1.6
 (optional=templinst)_ZN3pcl6detail10FieldAdderINS_17PointXYZRGBNormalEEclINS_6fields1zEEEvv@Base 1.6
 (optional=templinst)_ZN3pcl6detail10FieldAdderINS_17PointXYZRGBNormalEEclINS_6fields3rgbEEEvv@Base 1.6
 (optional=templinst)_ZN3pcl6detail10FieldAdderINS_17PointXYZRGBNormalEEclINS_6fields8normal_xEEEvv@Base 1.6
 (optional=templinst)_ZN3pcl6detail10FieldAdderINS_17PointXYZRGBNormalEEclINS_6fields8normal_yEEEvv@Base 1.6
 (optional=templinst)_ZN3pcl6detail10FieldAdderINS_17PointXYZRGBNormalEEclINS_6fields8normal_zEEEvv@Base 1.6
 (optional=templinst)_ZN3pcl6detail10FieldAdderINS_17PointXYZRGBNormalEEclINS_6fields9curvatureEEEvv@Base 1.6
 (optional=templinst)_ZN3pcl6detail10FieldAdderINS_18PointWithViewpointEEclINS_6fields1xEEEvv@Base 1.6
 (optional=templinst)_ZN3pcl6detail10FieldAdderINS_18PointWithViewpointEEclINS_6fields1yEEEvv@Base 1.6
 (optional=templinst)_ZN3pcl6detail10FieldAdderINS_18PointWithViewpointEEclINS_6fields1zEEEvv@Base 1.6
 (optional=templinst)_ZN3pcl6detail10FieldAdderINS_18PointWithViewpointEEclINS_6fields4vp_xEEEvv@Base 1.6
 (optional=templinst)_ZN3pcl6detail10FieldAdderINS_18PointWithViewpointEEclINS_6fields4vp_yEEEvv@Base 1.6
 (optional=templinst)_ZN3pcl6detail10FieldAdderINS_18PointWithViewpointEEclINS_6fields4vp_zEEEvv@Base 1.6
 (optional=templinst)_ZN3pcl6detail10FieldAdderINS_8PointXYZEEclINS_6fields1xEEEvv@Base 1.6
 (optional=templinst)_ZN3pcl6detail10FieldAdderINS_8PointXYZEEclINS_6fields1yEEEvv@Base 1.6
 (optional=templinst)_ZN3pcl6detail10FieldAdderINS_8PointXYZEEclINS_6fields1zEEEvv@Base 1.6
 (optional=templinst)_ZN3pcl6detail10FieldAdderINS_9PointXYZIEEclINS_6fields1xEEEvv@Base 1.6
 (optional=templinst)_ZN3pcl6detail10FieldAdderINS_9PointXYZIEEclINS_6fields1yEEEvv@Base 1.6
 (optional=templinst)_ZN3pcl6detail10FieldAdderINS_9PointXYZIEEclINS_6fields1zEEEvv@Base 1.6
 (optional=templinst)_ZN3pcl6detail10FieldAdderINS_9PointXYZIEEclINS_6fields9intensityEEEvv@Base 1.6
 (optional=templinst)_ZN3pcl6detail10FieldAdderINS_9PointXYZLEEclINS_6fields1xEEEvv@Base 1.6
 (optional=templinst)_ZN3pcl6detail10FieldAdderINS_9PointXYZLEEclINS_6fields1yEEEvv@Base 1.6
 (optional=templinst)_ZN3pcl6detail10FieldAdderINS_9PointXYZLEEclINS_6fields1zEEEvv@Base 1.6
 (optional=templinst)_ZN3pcl6detail10FieldAdderINS_9PointXYZLEEclINS_6fields5labelEEEvv@Base 1.6
 (optional=templinst)_ZN3pcl6detail11FieldMapperINS_8PointXYZEEclINS_6fields1xEEEvv@Base 1.6
 (optional=templinst)_ZN3pcl6detail11FieldMapperINS_8PointXYZEEclINS_6fields1yEEEvv@Base 1.6
 (optional=templinst)_ZN3pcl6detail11FieldMapperINS_8PointXYZEEclINS_6fields1zEEEvv@Base 1.6
 _ZN3pcl6detail13fieldOrderingERKNS0_12FieldMappingES3_@Base 1.6
 (optional=templinst)_ZN3pcl6octree10OctreeBaseIiNS0_26OctreeContainerDataTVectorIiEENS0_20OctreeContainerEmptyIiEEE23deserializeTreeCallbackERNS0_14OctreeLeafNodeIS3_EERKNS0_9OctreeKeyE@Base 1.6
 (optional=templinst)_ZN3pcl6octree22OctreePointCloudSearchINS_8PointXYZENS0_26OctreeContainerDataTVectorIiEENS0_20OctreeContainerEmptyIiEEED0Ev@Base 1.6
 (optional=templinst)_ZN3pcl6octree22OctreePointCloudSearchINS_8PointXYZENS0_26OctreeContainerDataTVectorIiEENS0_20OctreeContainerEmptyIiEEED1Ev@Base 1.6
 (optional=templinst)_ZN3pcl6octree22OctreePointCloudSearchINS_8PointXYZENS0_26OctreeContainerDataTVectorIiEENS0_20OctreeContainerEmptyIiEEED2Ev@Base 1.6
 (optional=templinst)_ZN3pcl6search17OrganizedNeighborINS_11PointNormalEE13setInputCloudERKN5boost10shared_ptrIKNS_10PointCloudIS2_EEEERKNS5_IKSt6vectorIiSaIiEEEE@Base 1.6
 (optional=templinst)_ZN3pcl6search17OrganizedNeighborINS_11PointNormalEEC1Ebfj@Base 1.6
 (optional=templinst)_ZN3pcl6search17OrganizedNeighborINS_11PointNormalEEC2Ebfj@Base 1.6
 (optional=templinst)_ZN3pcl6search17OrganizedNeighborINS_11PointNormalEED0Ev@Base 1.6
 (optional=templinst)_ZN3pcl6search17OrganizedNeighborINS_11PointNormalEED1Ev@Base 1.6
 (optional=templinst)_ZN3pcl6search17OrganizedNeighborINS_11PointNormalEED2Ev@Base 1.6
 (optional=templinst)_ZN3pcl6search17OrganizedNeighborINS_11PointXYZHSVEE13setInputCloudERKN5boost10shared_ptrIKNS_10PointCloudIS2_EEEERKNS5_IKSt6vectorIiSaIiEEEE@Base 1.6
 (optional=templinst)_ZN3pcl6search17OrganizedNeighborINS_11PointXYZHSVEEC1Ebfj@Base 1.6
 (optional=templinst)_ZN3pcl6search17OrganizedNeighborINS_11PointXYZHSVEEC2Ebfj@Base 1.6
 (optional=templinst)_ZN3pcl6search17OrganizedNeighborINS_11PointXYZHSVEED0Ev@Base 1.6
 (optional=templinst)_ZN3pcl6search17OrganizedNeighborINS_11PointXYZHSVEED1Ev@Base 1.6
 (optional=templinst)_ZN3pcl6search17OrganizedNeighborINS_11PointXYZHSVEED2Ev@Base 1.6
 (optional=templinst)_ZN3pcl6search17OrganizedNeighborINS_11PointXYZRGBEE13setInputCloudERKN5boost10shared_ptrIKNS_10PointCloudIS2_EEEERKNS5_IKSt6vectorIiSaIiEEEE@Base 1.6
 (optional=templinst)_ZN3pcl6search17OrganizedNeighborINS_11PointXYZRGBEEC1Ebfj@Base 1.6
 (optional=templinst)_ZN3pcl6search17OrganizedNeighborINS_11PointXYZRGBEEC2Ebfj@Base 1.6
 (optional=templinst)_ZN3pcl6search17OrganizedNeighborINS_11PointXYZRGBEED0Ev@Base 1.6
 (optional=templinst)_ZN3pcl6search17OrganizedNeighborINS_11PointXYZRGBEED1Ev@Base 1.6
 (optional=templinst)_ZN3pcl6search17OrganizedNeighborINS_11PointXYZRGBEED2Ev@Base 1.6
 (optional=templinst)_ZN3pcl6search17OrganizedNeighborINS_12PointXYZRGBAEE13setInputCloudERKN5boost10shared_ptrIKNS_10PointCloudIS2_EEEERKNS5_IKSt6vectorIiSaIiEEEE@Base 1.6
 (optional=templinst)_ZN3pcl6search17OrganizedNeighborINS_12PointXYZRGBAEEC1Ebfj@Base 1.6
 (optional=templinst)_ZN3pcl6search17OrganizedNeighborINS_12PointXYZRGBAEEC2Ebfj@Base 1.6
 (optional=templinst)_ZN3pcl6search17OrganizedNeighborINS_12PointXYZRGBAEED0Ev@Base 1.6
 (optional=templinst)_ZN3pcl6search17OrganizedNeighborINS_12PointXYZRGBAEED1Ev@Base 1.6
 (optional=templinst)_ZN3pcl6search17OrganizedNeighborINS_12PointXYZRGBAEED2Ev@Base 1.6
 (optional=templinst)_ZN3pcl6search17OrganizedNeighborINS_12PointXYZRGBLEE13setInputCloudERKN5boost10shared_ptrIKNS_10PointCloudIS2_EEEERKNS5_IKSt6vectorIiSaIiEEEE@Base 1.6
 (optional=templinst)_ZN3pcl6search17OrganizedNeighborINS_12PointXYZRGBLEEC1Ebfj@Base 1.6
 (optional=templinst)_ZN3pcl6search17OrganizedNeighborINS_12PointXYZRGBLEEC2Ebfj@Base 1.6
 (optional=templinst)_ZN3pcl6search17OrganizedNeighborINS_12PointXYZRGBLEED0Ev@Base 1.6
 (optional=templinst)_ZN3pcl6search17OrganizedNeighborINS_12PointXYZRGBLEED1Ev@Base 1.6
 (optional=templinst)_ZN3pcl6search17OrganizedNeighborINS_12PointXYZRGBLEED2Ev@Base 1.6
 (optional=templinst)_ZN3pcl6search17OrganizedNeighborINS_13InterestPointEE13setInputCloudERKN5boost10shared_ptrIKNS_10PointCloudIS2_EEEERKNS5_IKSt6vectorIiSaIiEEEE@Base 1.6
 (optional=templinst)_ZN3pcl6search17OrganizedNeighborINS_13InterestPointEEC1Ebfj@Base 1.6
 (optional=templinst)_ZN3pcl6search17OrganizedNeighborINS_13InterestPointEEC2Ebfj@Base 1.6
 (optional=templinst)_ZN3pcl6search17OrganizedNeighborINS_13InterestPointEED0Ev@Base 1.6
 (optional=templinst)_ZN3pcl6search17OrganizedNeighborINS_13InterestPointEED1Ev@Base 1.6
 (optional=templinst)_ZN3pcl6search17OrganizedNeighborINS_13InterestPointEED2Ev@Base 1.6
 (optional=templinst)_ZN3pcl6search17OrganizedNeighborINS_14PointWithRangeEE13setInputCloudERKN5boost10shared_ptrIKNS_10PointCloudIS2_EEEERKNS5_IKSt6vectorIiSaIiEEEE@Base 1.6
 (optional=templinst)_ZN3pcl6search17OrganizedNeighborINS_14PointWithRangeEEC1Ebfj@Base 1.6
 (optional=templinst)_ZN3pcl6search17OrganizedNeighborINS_14PointWithRangeEEC2Ebfj@Base 1.6
 (optional=templinst)_ZN3pcl6search17OrganizedNeighborINS_14PointWithRangeEED0Ev@Base 1.6
 (optional=templinst)_ZN3pcl6search17OrganizedNeighborINS_14PointWithRangeEED1Ev@Base 1.6
 (optional=templinst)_ZN3pcl6search17OrganizedNeighborINS_14PointWithRangeEED2Ev@Base 1.6
 (optional=templinst)_ZN3pcl6search17OrganizedNeighborINS_14PointWithScaleEE13setInputCloudERKN5boost10shared_ptrIKNS_10PointCloudIS2_EEEERKNS5_IKSt6vectorIiSaIiEEEE@Base 1.6
 (optional=templinst)_ZN3pcl6search17OrganizedNeighborINS_14PointWithScaleEEC1Ebfj@Base 1.6
 (optional=templinst)_ZN3pcl6search17OrganizedNeighborINS_14PointWithScaleEEC2Ebfj@Base 1.6
 (optional=templinst)_ZN3pcl6search17OrganizedNeighborINS_14PointWithScaleEED0Ev@Base 1.6
 (optional=templinst)_ZN3pcl6search17OrganizedNeighborINS_14PointWithScaleEED1Ev@Base 1.6
 (optional=templinst)_ZN3pcl6search17OrganizedNeighborINS_14PointWithScaleEED2Ev@Base 1.6
 (optional=templinst)_ZN3pcl6search17OrganizedNeighborINS_15PointXYZINormalEE13setInputCloudERKN5boost10shared_ptrIKNS_10PointCloudIS2_EEEERKNS5_IKSt6vectorIiSaIiEEEE@Base 1.6
 (optional=templinst)_ZN3pcl6search17OrganizedNeighborINS_15PointXYZINormalEEC1Ebfj@Base 1.6
 (optional=templinst)_ZN3pcl6search17OrganizedNeighborINS_15PointXYZINormalEEC2Ebfj@Base 1.6
 (optional=templinst)_ZN3pcl6search17OrganizedNeighborINS_15PointXYZINormalEED0Ev@Base 1.6
 (optional=templinst)_ZN3pcl6search17OrganizedNeighborINS_15PointXYZINormalEED1Ev@Base 1.6
 (optional=templinst)_ZN3pcl6search17OrganizedNeighborINS_15PointXYZINormalEED2Ev@Base 1.6
 (optional=templinst)_ZN3pcl6search17OrganizedNeighborINS_17PointXYZRGBNormalEE13setInputCloudERKN5boost10shared_ptrIKNS_10PointCloudIS2_EEEERKNS5_IKSt6vectorIiSaIiEEEE@Base 1.6
 (optional=templinst)_ZN3pcl6search17OrganizedNeighborINS_17PointXYZRGBNormalEEC1Ebfj@Base 1.6
 (optional=templinst)_ZN3pcl6search17OrganizedNeighborINS_17PointXYZRGBNormalEEC2Ebfj@Base 1.6
 (optional=templinst)_ZN3pcl6search17OrganizedNeighborINS_17PointXYZRGBNormalEED0Ev@Base 1.6
 (optional=templinst)_ZN3pcl6search17OrganizedNeighborINS_17PointXYZRGBNormalEED1Ev@Base 1.6
 (optional=templinst)_ZN3pcl6search17OrganizedNeighborINS_17PointXYZRGBNormalEED2Ev@Base 1.6
 (optional=templinst)_ZN3pcl6search17OrganizedNeighborINS_18PointWithViewpointEE13setInputCloudERKN5boost10shared_ptrIKNS_10PointCloudIS2_EEEERKNS5_IKSt6vectorIiSaIiEEEE@Base 1.6
 (optional=templinst)_ZN3pcl6search17OrganizedNeighborINS_18PointWithViewpointEEC1Ebfj@Base 1.6
 (optional=templinst)_ZN3pcl6search17OrganizedNeighborINS_18PointWithViewpointEEC2Ebfj@Base 1.6
 (optional=templinst)_ZN3pcl6search17OrganizedNeighborINS_18PointWithViewpointEED0Ev@Base 1.6
 (optional=templinst)_ZN3pcl6search17OrganizedNeighborINS_18PointWithViewpointEED1Ev@Base 1.6
 (optional=templinst)_ZN3pcl6search17OrganizedNeighborINS_18PointWithViewpointEED2Ev@Base 1.6
 (optional=templinst)_ZN3pcl6search17OrganizedNeighborINS_8PointXYZEE13setInputCloudERKN5boost10shared_ptrIKNS_10PointCloudIS2_EEEERKNS5_IKSt6vectorIiSaIiEEEE@Base 1.6
 (optional=templinst)_ZN3pcl6search17OrganizedNeighborINS_8PointXYZEEC1Ebfj@Base 1.6
 (optional=templinst)_ZN3pcl6search17OrganizedNeighborINS_8PointXYZEEC2Ebfj@Base 1.6
 (optional=templinst)_ZN3pcl6search17OrganizedNeighborINS_8PointXYZEED0Ev@Base 1.6
 (optional=templinst)_ZN3pcl6search17OrganizedNeighborINS_8PointXYZEED1Ev@Base 1.6
 (optional=templinst)_ZN3pcl6search17OrganizedNeighborINS_8PointXYZEED2Ev@Base 1.6
 (optional=templinst)_ZN3pcl6search17OrganizedNeighborINS_9PointXYZIEE13setInputCloudERKN5boost10shared_ptrIKNS_10PointCloudIS2_EEEERKNS5_IKSt6vectorIiSaIiEEEE@Base 1.6
 (optional=templinst)_ZN3pcl6search17OrganizedNeighborINS_9PointXYZIEEC1Ebfj@Base 1.6
 (optional=templinst)_ZN3pcl6search17OrganizedNeighborINS_9PointXYZIEEC2Ebfj@Base 1.6
 (optional=templinst)_ZN3pcl6search17OrganizedNeighborINS_9PointXYZIEED0Ev@Base 1.6
 (optional=templinst)_ZN3pcl6search17OrganizedNeighborINS_9PointXYZIEED1Ev@Base 1.6
 (optional=templinst)_ZN3pcl6search17OrganizedNeighborINS_9PointXYZIEED2Ev@Base 1.6
 (optional=templinst)_ZN3pcl6search17OrganizedNeighborINS_9PointXYZLEE13setInputCloudERKN5boost10shared_ptrIKNS_10PointCloudIS2_EEEERKNS5_IKSt6vectorIiSaIiEEEE@Base 1.6
 (optional=templinst)_ZN3pcl6search17OrganizedNeighborINS_9PointXYZLEEC1Ebfj@Base 1.6
 (optional=templinst)_ZN3pcl6search17OrganizedNeighborINS_9PointXYZLEEC2Ebfj@Base 1.6
 (optional=templinst)_ZN3pcl6search17OrganizedNeighborINS_9PointXYZLEED0Ev@Base 1.6
 (optional=templinst)_ZN3pcl6search17OrganizedNeighborINS_9PointXYZLEED1Ev@Base 1.6
 (optional=templinst)_ZN3pcl6search17OrganizedNeighborINS_9PointXYZLEED2Ev@Base 1.6
 (optional=templinst)_ZN3pcl6search6KdTreeINS_11PointNormalEE13setInputCloudERKN5boost10shared_ptrIKNS_10PointCloudIS2_EEEERKNS5_IKSt6vectorIiSaIiEEEE@Base 1.6
 (optional=templinst)_ZN3pcl6search6KdTreeINS_11PointNormalEE16setSortedResultsEb@Base 1.6
 (optional=templinst)_ZN3pcl6search6KdTreeINS_11PointNormalEEC1Eb@Base 1.6
 (optional=templinst)_ZN3pcl6search6KdTreeINS_11PointNormalEEC2Eb@Base 1.6
 (optional=templinst)_ZN3pcl6search6KdTreeINS_11PointNormalEED0Ev@Base 1.6
 (optional=templinst)_ZN3pcl6search6KdTreeINS_11PointNormalEED1Ev@Base 1.6
 (optional=templinst)_ZN3pcl6search6KdTreeINS_11PointNormalEED2Ev@Base 1.6
 (optional=templinst)_ZN3pcl6search6KdTreeINS_11PointXYZHSVEE13setInputCloudERKN5boost10shared_ptrIKNS_10PointCloudIS2_EEEERKNS5_IKSt6vectorIiSaIiEEEE@Base 1.6
 (optional=templinst)_ZN3pcl6search6KdTreeINS_11PointXYZHSVEE16setSortedResultsEb@Base 1.6
 (optional=templinst)_ZN3pcl6search6KdTreeINS_11PointXYZHSVEEC1Eb@Base 1.6
 (optional=templinst)_ZN3pcl6search6KdTreeINS_11PointXYZHSVEEC2Eb@Base 1.6
 (optional=templinst)_ZN3pcl6search6KdTreeINS_11PointXYZHSVEED0Ev@Base 1.6
 (optional=templinst)_ZN3pcl6search6KdTreeINS_11PointXYZHSVEED1Ev@Base 1.6
 (optional=templinst)_ZN3pcl6search6KdTreeINS_11PointXYZHSVEED2Ev@Base 1.6
 (optional=templinst)_ZN3pcl6search6KdTreeINS_11PointXYZRGBEE13setInputCloudERKN5boost10shared_ptrIKNS_10PointCloudIS2_EEEERKNS5_IKSt6vectorIiSaIiEEEE@Base 1.6
 (optional=templinst)_ZN3pcl6search6KdTreeINS_11PointXYZRGBEE16setSortedResultsEb@Base 1.6
 (optional=templinst)_ZN3pcl6search6KdTreeINS_11PointXYZRGBEEC1Eb@Base 1.6
 (optional=templinst)_ZN3pcl6search6KdTreeINS_11PointXYZRGBEEC2Eb@Base 1.6
 (optional=templinst)_ZN3pcl6search6KdTreeINS_11PointXYZRGBEED0Ev@Base 1.6
 (optional=templinst)_ZN3pcl6search6KdTreeINS_11PointXYZRGBEED1Ev@Base 1.6
 (optional=templinst)_ZN3pcl6search6KdTreeINS_11PointXYZRGBEED2Ev@Base 1.6
 (optional=templinst)_ZN3pcl6search6KdTreeINS_12PointXYZRGBAEE13setInputCloudERKN5boost10shared_ptrIKNS_10PointCloudIS2_EEEERKNS5_IKSt6vectorIiSaIiEEEE@Base 1.6
 (optional=templinst)_ZN3pcl6search6KdTreeINS_12PointXYZRGBAEE16setSortedResultsEb@Base 1.6
 (optional=templinst)_ZN3pcl6search6KdTreeINS_12PointXYZRGBAEEC1Eb@Base 1.6
 (optional=templinst)_ZN3pcl6search6KdTreeINS_12PointXYZRGBAEEC2Eb@Base 1.6
 (optional=templinst)_ZN3pcl6search6KdTreeINS_12PointXYZRGBAEED0Ev@Base 1.6
 (optional=templinst)_ZN3pcl6search6KdTreeINS_12PointXYZRGBAEED1Ev@Base 1.6
 (optional=templinst)_ZN3pcl6search6KdTreeINS_12PointXYZRGBAEED2Ev@Base 1.6
 (optional=templinst)_ZN3pcl6search6KdTreeINS_12PointXYZRGBLEE13setInputCloudERKN5boost10shared_ptrIKNS_10PointCloudIS2_EEEERKNS5_IKSt6vectorIiSaIiEEEE@Base 1.6
 (optional=templinst)_ZN3pcl6search6KdTreeINS_12PointXYZRGBLEE16setSortedResultsEb@Base 1.6
 (optional=templinst)_ZN3pcl6search6KdTreeINS_12PointXYZRGBLEEC1Eb@Base 1.6
 (optional=templinst)_ZN3pcl6search6KdTreeINS_12PointXYZRGBLEEC2Eb@Base 1.6
 (optional=templinst)_ZN3pcl6search6KdTreeINS_12PointXYZRGBLEED0Ev@Base 1.6
 (optional=templinst)_ZN3pcl6search6KdTreeINS_12PointXYZRGBLEED1Ev@Base 1.6
 (optional=templinst)_ZN3pcl6search6KdTreeINS_12PointXYZRGBLEED2Ev@Base 1.6
 (optional=templinst)_ZN3pcl6search6KdTreeINS_13InterestPointEE13setInputCloudERKN5boost10shared_ptrIKNS_10PointCloudIS2_EEEERKNS5_IKSt6vectorIiSaIiEEEE@Base 1.6
 (optional=templinst)_ZN3pcl6search6KdTreeINS_13InterestPointEE16setSortedResultsEb@Base 1.6
 (optional=templinst)_ZN3pcl6search6KdTreeINS_13InterestPointEEC1Eb@Base 1.6
 (optional=templinst)_ZN3pcl6search6KdTreeINS_13InterestPointEEC2Eb@Base 1.6
 (optional=templinst)_ZN3pcl6search6KdTreeINS_13InterestPointEED0Ev@Base 1.6
 (optional=templinst)_ZN3pcl6search6KdTreeINS_13InterestPointEED1Ev@Base 1.6
 (optional=templinst)_ZN3pcl6search6KdTreeINS_13InterestPointEED2Ev@Base 1.6
 (optional=templinst)_ZN3pcl6search6KdTreeINS_14PointWithRangeEE13setInputCloudERKN5boost10shared_ptrIKNS_10PointCloudIS2_EEEERKNS5_IKSt6vectorIiSaIiEEEE@Base 1.6
 (optional=templinst)_ZN3pcl6search6KdTreeINS_14PointWithRangeEE16setSortedResultsEb@Base 1.6
 (optional=templinst)_ZN3pcl6search6KdTreeINS_14PointWithRangeEEC1Eb@Base 1.6
 (optional=templinst)_ZN3pcl6search6KdTreeINS_14PointWithRangeEEC2Eb@Base 1.6
 (optional=templinst)_ZN3pcl6search6KdTreeINS_14PointWithRangeEED0Ev@Base 1.6
 (optional=templinst)_ZN3pcl6search6KdTreeINS_14PointWithRangeEED1Ev@Base 1.6
 (optional=templinst)_ZN3pcl6search6KdTreeINS_14PointWithRangeEED2Ev@Base 1.6
 (optional=templinst)_ZN3pcl6search6KdTreeINS_14PointWithScaleEE13setInputCloudERKN5boost10shared_ptrIKNS_10PointCloudIS2_EEEERKNS5_IKSt6vectorIiSaIiEEEE@Base 1.6
 (optional=templinst)_ZN3pcl6search6KdTreeINS_14PointWithScaleEE16setSortedResultsEb@Base 1.6
 (optional=templinst)_ZN3pcl6search6KdTreeINS_14PointWithScaleEEC1Eb@Base 1.6
 (optional=templinst)_ZN3pcl6search6KdTreeINS_14PointWithScaleEEC2Eb@Base 1.6
 (optional=templinst)_ZN3pcl6search6KdTreeINS_14PointWithScaleEED0Ev@Base 1.6
 (optional=templinst)_ZN3pcl6search6KdTreeINS_14PointWithScaleEED1Ev@Base 1.6
 (optional=templinst)_ZN3pcl6search6KdTreeINS_14PointWithScaleEED2Ev@Base 1.6
 (optional=templinst)_ZN3pcl6search6KdTreeINS_15PointXYZINormalEE13setInputCloudERKN5boost10shared_ptrIKNS_10PointCloudIS2_EEEERKNS5_IKSt6vectorIiSaIiEEEE@Base 1.6
 (optional=templinst)_ZN3pcl6search6KdTreeINS_15PointXYZINormalEE16setSortedResultsEb@Base 1.6
 (optional=templinst)_ZN3pcl6search6KdTreeINS_15PointXYZINormalEEC1Eb@Base 1.6
 (optional=templinst)_ZN3pcl6search6KdTreeINS_15PointXYZINormalEEC2Eb@Base 1.6
 (optional=templinst)_ZN3pcl6search6KdTreeINS_15PointXYZINormalEED0Ev@Base 1.6
 (optional=templinst)_ZN3pcl6search6KdTreeINS_15PointXYZINormalEED1Ev@Base 1.6
 (optional=templinst)_ZN3pcl6search6KdTreeINS_15PointXYZINormalEED2Ev@Base 1.6
 (optional=templinst)_ZN3pcl6search6KdTreeINS_17PointXYZRGBNormalEE13setInputCloudERKN5boost10shared_ptrIKNS_10PointCloudIS2_EEEERKNS5_IKSt6vectorIiSaIiEEEE@Base 1.6
 (optional=templinst)_ZN3pcl6search6KdTreeINS_17PointXYZRGBNormalEE16setSortedResultsEb@Base 1.6
 (optional=templinst)_ZN3pcl6search6KdTreeINS_17PointXYZRGBNormalEEC1Eb@Base 1.6
 (optional=templinst)_ZN3pcl6search6KdTreeINS_17PointXYZRGBNormalEEC2Eb@Base 1.6
 (optional=templinst)_ZN3pcl6search6KdTreeINS_17PointXYZRGBNormalEED0Ev@Base 1.6
 (optional=templinst)_ZN3pcl6search6KdTreeINS_17PointXYZRGBNormalEED1Ev@Base 1.6
 (optional=templinst)_ZN3pcl6search6KdTreeINS_17PointXYZRGBNormalEED2Ev@Base 1.6
 (optional=templinst)_ZN3pcl6search6KdTreeINS_18PointWithViewpointEE13setInputCloudERKN5boost10shared_ptrIKNS_10PointCloudIS2_EEEERKNS5_IKSt6vectorIiSaIiEEEE@Base 1.6
 (optional=templinst)_ZN3pcl6search6KdTreeINS_18PointWithViewpointEE16setSortedResultsEb@Base 1.6
 (optional=templinst)_ZN3pcl6search6KdTreeINS_18PointWithViewpointEEC1Eb@Base 1.6
 (optional=templinst)_ZN3pcl6search6KdTreeINS_18PointWithViewpointEEC2Eb@Base 1.6
 (optional=templinst)_ZN3pcl6search6KdTreeINS_18PointWithViewpointEED0Ev@Base 1.6
 (optional=templinst)_ZN3pcl6search6KdTreeINS_18PointWithViewpointEED1Ev@Base 1.6
 (optional=templinst)_ZN3pcl6search6KdTreeINS_18PointWithViewpointEED2Ev@Base 1.6
 (optional=templinst)_ZN3pcl6search6KdTreeINS_8PointXYZEE13setInputCloudERKN5boost10shared_ptrIKNS_10PointCloudIS2_EEEERKNS5_IKSt6vectorIiSaIiEEEE@Base 1.6
 (optional=templinst)_ZN3pcl6search6KdTreeINS_8PointXYZEE16setSortedResultsEb@Base 1.6
 (optional=templinst)_ZN3pcl6search6KdTreeINS_8PointXYZEEC1Eb@Base 1.6
 (optional=templinst)_ZN3pcl6search6KdTreeINS_8PointXYZEEC2Eb@Base 1.6
 (optional=templinst)_ZN3pcl6search6KdTreeINS_8PointXYZEED0Ev@Base 1.6
 (optional=templinst)_ZN3pcl6search6KdTreeINS_8PointXYZEED1Ev@Base 1.6
 (optional=templinst)_ZN3pcl6search6KdTreeINS_8PointXYZEED2Ev@Base 1.6
 (optional=templinst)_ZN3pcl6search6KdTreeINS_9PointXYZIEE13setInputCloudERKN5boost10shared_ptrIKNS_10PointCloudIS2_EEEERKNS5_IKSt6vectorIiSaIiEEEE@Base 1.6
 (optional=templinst)_ZN3pcl6search6KdTreeINS_9PointXYZIEE16setSortedResultsEb@Base 1.6
 (optional=templinst)_ZN3pcl6search6KdTreeINS_9PointXYZIEEC1Eb@Base 1.6
 (optional=templinst)_ZN3pcl6search6KdTreeINS_9PointXYZIEEC2Eb@Base 1.6
 (optional=templinst)_ZN3pcl6search6KdTreeINS_9PointXYZIEED0Ev@Base 1.6
 (optional=templinst)_ZN3pcl6search6KdTreeINS_9PointXYZIEED1Ev@Base 1.6
 (optional=templinst)_ZN3pcl6search6KdTreeINS_9PointXYZIEED2Ev@Base 1.6
 (optional=templinst)_ZN3pcl6search6KdTreeINS_9PointXYZLEE13setInputCloudERKN5boost10shared_ptrIKNS_10PointCloudIS2_EEEERKNS5_IKSt6vectorIiSaIiEEEE@Base 1.6
 (optional=templinst)_ZN3pcl6search6KdTreeINS_9PointXYZLEE16setSortedResultsEb@Base 1.6
 (optional=templinst)_ZN3pcl6search6KdTreeINS_9PointXYZLEEC1Eb@Base 1.6
 (optional=templinst)_ZN3pcl6search6KdTreeINS_9PointXYZLEEC2Eb@Base 1.6
 (optional=templinst)_ZN3pcl6search6KdTreeINS_9PointXYZLEED0Ev@Base 1.6
 (optional=templinst)_ZN3pcl6search6KdTreeINS_9PointXYZLEED1Ev@Base 1.6
 (optional=templinst)_ZN3pcl6search6KdTreeINS_9PointXYZLEED2Ev@Base 1.6
 (optional=templinst)_ZN3pcl6search6SearchINS_11PointNormalEE13setInputCloudERKN5boost10shared_ptrIKNS_10PointCloudIS2_EEEERKNS5_IKSt6vectorIiSaIiEEEE@Base 1.6
 (optional=templinst)_ZN3pcl6search6SearchINS_11PointNormalEE16setSortedResultsEb@Base 1.6
 (optional=templinst)_ZN3pcl6search6SearchINS_11PointNormalEED0Ev@Base 1.6
 (optional=templinst)_ZN3pcl6search6SearchINS_11PointNormalEED1Ev@Base 1.6
 (optional=templinst)_ZN3pcl6search6SearchINS_11PointNormalEED2Ev@Base 1.6
 (optional=templinst)_ZN3pcl6search6SearchINS_11PointXYZHSVEE13setInputCloudERKN5boost10shared_ptrIKNS_10PointCloudIS2_EEEERKNS5_IKSt6vectorIiSaIiEEEE@Base 1.6
 (optional=templinst)_ZN3pcl6search6SearchINS_11PointXYZHSVEE16setSortedResultsEb@Base 1.6
 (optional=templinst)_ZN3pcl6search6SearchINS_11PointXYZHSVEED0Ev@Base 1.6
 (optional=templinst)_ZN3pcl6search6SearchINS_11PointXYZHSVEED1Ev@Base 1.6
 (optional=templinst)_ZN3pcl6search6SearchINS_11PointXYZHSVEED2Ev@Base 1.6
 (optional=templinst)_ZN3pcl6search6SearchINS_11PointXYZRGBEE13setInputCloudERKN5boost10shared_ptrIKNS_10PointCloudIS2_EEEERKNS5_IKSt6vectorIiSaIiEEEE@Base 1.6
 (optional=templinst)_ZN3pcl6search6SearchINS_11PointXYZRGBEE16setSortedResultsEb@Base 1.6
 (optional=templinst)_ZN3pcl6search6SearchINS_11PointXYZRGBEEC1ERKSsb@Base 1.6
 (optional=templinst)_ZN3pcl6search6SearchINS_11PointXYZRGBEEC2ERKSsb@Base 1.6
 (optional=templinst)_ZN3pcl6search6SearchINS_11PointXYZRGBEED0Ev@Base 1.6
 (optional=templinst)_ZN3pcl6search6SearchINS_11PointXYZRGBEED1Ev@Base 1.6
 (optional=templinst)_ZN3pcl6search6SearchINS_11PointXYZRGBEED2Ev@Base 1.6
 (optional=templinst)_ZN3pcl6search6SearchINS_12PointXYZRGBAEE13setInputCloudERKN5boost10shared_ptrIKNS_10PointCloudIS2_EEEERKNS5_IKSt6vectorIiSaIiEEEE@Base 1.6
 (optional=templinst)_ZN3pcl6search6SearchINS_12PointXYZRGBAEE16setSortedResultsEb@Base 1.6
 (optional=templinst)_ZN3pcl6search6SearchINS_12PointXYZRGBAEEC1ERKSsb@Base 1.6
 (optional=templinst)_ZN3pcl6search6SearchINS_12PointXYZRGBAEEC2ERKSsb@Base 1.6
 (optional=templinst)_ZN3pcl6search6SearchINS_12PointXYZRGBAEED0Ev@Base 1.6
 (optional=templinst)_ZN3pcl6search6SearchINS_12PointXYZRGBAEED1Ev@Base 1.6
 (optional=templinst)_ZN3pcl6search6SearchINS_12PointXYZRGBAEED2Ev@Base 1.6
 (optional=templinst)_ZN3pcl6search6SearchINS_12PointXYZRGBLEE13setInputCloudERKN5boost10shared_ptrIKNS_10PointCloudIS2_EEEERKNS5_IKSt6vectorIiSaIiEEEE@Base 1.6
 (optional=templinst)_ZN3pcl6search6SearchINS_12PointXYZRGBLEE16setSortedResultsEb@Base 1.6
 (optional=templinst)_ZN3pcl6search6SearchINS_12PointXYZRGBLEED0Ev@Base 1.6
 (optional=templinst)_ZN3pcl6search6SearchINS_12PointXYZRGBLEED1Ev@Base 1.6
 (optional=templinst)_ZN3pcl6search6SearchINS_12PointXYZRGBLEED2Ev@Base 1.6
 (optional=templinst)_ZN3pcl6search6SearchINS_13InterestPointEE13setInputCloudERKN5boost10shared_ptrIKNS_10PointCloudIS2_EEEERKNS5_IKSt6vectorIiSaIiEEEE@Base 1.6
 (optional=templinst)_ZN3pcl6search6SearchINS_13InterestPointEE16setSortedResultsEb@Base 1.6
 (optional=templinst)_ZN3pcl6search6SearchINS_13InterestPointEED0Ev@Base 1.6
 (optional=templinst)_ZN3pcl6search6SearchINS_13InterestPointEED1Ev@Base 1.6
 (optional=templinst)_ZN3pcl6search6SearchINS_13InterestPointEED2Ev@Base 1.6
 (optional=templinst)_ZN3pcl6search6SearchINS_14PointWithRangeEE13setInputCloudERKN5boost10shared_ptrIKNS_10PointCloudIS2_EEEERKNS5_IKSt6vectorIiSaIiEEEE@Base 1.6
 (optional=templinst)_ZN3pcl6search6SearchINS_14PointWithRangeEE16setSortedResultsEb@Base 1.6
 (optional=templinst)_ZN3pcl6search6SearchINS_14PointWithRangeEED0Ev@Base 1.6
 (optional=templinst)_ZN3pcl6search6SearchINS_14PointWithRangeEED1Ev@Base 1.6
 (optional=templinst)_ZN3pcl6search6SearchINS_14PointWithRangeEED2Ev@Base 1.6
 (optional=templinst)_ZN3pcl6search6SearchINS_14PointWithScaleEE13setInputCloudERKN5boost10shared_ptrIKNS_10PointCloudIS2_EEEERKNS5_IKSt6vectorIiSaIiEEEE@Base 1.6
 (optional=templinst)_ZN3pcl6search6SearchINS_14PointWithScaleEE16setSortedResultsEb@Base 1.6
 (optional=templinst)_ZN3pcl6search6SearchINS_14PointWithScaleEED0Ev@Base 1.6
 (optional=templinst)_ZN3pcl6search6SearchINS_14PointWithScaleEED1Ev@Base 1.6
 (optional=templinst)_ZN3pcl6search6SearchINS_14PointWithScaleEED2Ev@Base 1.6
 (optional=templinst)_ZN3pcl6search6SearchINS_15PointXYZINormalEE13setInputCloudERKN5boost10shared_ptrIKNS_10PointCloudIS2_EEEERKNS5_IKSt6vectorIiSaIiEEEE@Base 1.6
 (optional=templinst)_ZN3pcl6search6SearchINS_15PointXYZINormalEE16setSortedResultsEb@Base 1.6
 (optional=templinst)_ZN3pcl6search6SearchINS_15PointXYZINormalEED0Ev@Base 1.6
 (optional=templinst)_ZN3pcl6search6SearchINS_15PointXYZINormalEED1Ev@Base 1.6
 (optional=templinst)_ZN3pcl6search6SearchINS_15PointXYZINormalEED2Ev@Base 1.6
 (optional=templinst)_ZN3pcl6search6SearchINS_17PointXYZRGBNormalEE13setInputCloudERKN5boost10shared_ptrIKNS_10PointCloudIS2_EEEERKNS5_IKSt6vectorIiSaIiEEEE@Base 1.6
 (optional=templinst)_ZN3pcl6search6SearchINS_17PointXYZRGBNormalEE16setSortedResultsEb@Base 1.6
 (optional=templinst)_ZN3pcl6search6SearchINS_17PointXYZRGBNormalEED0Ev@Base 1.6
 (optional=templinst)_ZN3pcl6search6SearchINS_17PointXYZRGBNormalEED1Ev@Base 1.6
 (optional=templinst)_ZN3pcl6search6SearchINS_17PointXYZRGBNormalEED2Ev@Base 1.6
 (optional=templinst)_ZN3pcl6search6SearchINS_18PointWithViewpointEE13setInputCloudERKN5boost10shared_ptrIKNS_10PointCloudIS2_EEEERKNS5_IKSt6vectorIiSaIiEEEE@Base 1.6
 (optional=templinst)_ZN3pcl6search6SearchINS_18PointWithViewpointEE16setSortedResultsEb@Base 1.6
 (optional=templinst)_ZN3pcl6search6SearchINS_18PointWithViewpointEED0Ev@Base 1.6
 (optional=templinst)_ZN3pcl6search6SearchINS_18PointWithViewpointEED1Ev@Base 1.6
 (optional=templinst)_ZN3pcl6search6SearchINS_18PointWithViewpointEED2Ev@Base 1.6
 (optional=templinst)_ZN3pcl6search6SearchINS_8PointXYZEE13setInputCloudERKN5boost10shared_ptrIKNS_10PointCloudIS2_EEEERKNS5_IKSt6vectorIiSaIiEEEE@Base 1.6
 (optional=templinst)_ZN3pcl6search6SearchINS_8PointXYZEE16setSortedResultsEb@Base 1.6
 (optional=templinst)_ZN3pcl6search6SearchINS_8PointXYZEEC1ERKSsb@Base 1.6
 (optional=templinst)_ZN3pcl6search6SearchINS_8PointXYZEEC2ERKSsb@Base 1.6
 (optional=templinst)_ZN3pcl6search6SearchINS_8PointXYZEED0Ev@Base 1.6
 (optional=templinst)_ZN3pcl6search6SearchINS_8PointXYZEED1Ev@Base 1.6
 (optional=templinst)_ZN3pcl6search6SearchINS_8PointXYZEED2Ev@Base 1.6
 (optional=templinst)_ZN3pcl6search6SearchINS_9PointXYZIEE13setInputCloudERKN5boost10shared_ptrIKNS_10PointCloudIS2_EEEERKNS5_IKSt6vectorIiSaIiEEEE@Base 1.6
 (optional=templinst)_ZN3pcl6search6SearchINS_9PointXYZIEE16setSortedResultsEb@Base 1.6
 (optional=templinst)_ZN3pcl6search6SearchINS_9PointXYZIEED0Ev@Base 1.6
 (optional=templinst)_ZN3pcl6search6SearchINS_9PointXYZIEED1Ev@Base 1.6
 (optional=templinst)_ZN3pcl6search6SearchINS_9PointXYZIEED2Ev@Base 1.6
 (optional=templinst)_ZN3pcl6search6SearchINS_9PointXYZLEE13setInputCloudERKN5boost10shared_ptrIKNS_10PointCloudIS2_EEEERKNS5_IKSt6vectorIiSaIiEEEE@Base 1.6
 (optional=templinst)_ZN3pcl6search6SearchINS_9PointXYZLEE16setSortedResultsEb@Base 1.6
 (optional=templinst)_ZN3pcl6search6SearchINS_9PointXYZLEED0Ev@Base 1.6
 (optional=templinst)_ZN3pcl6search6SearchINS_9PointXYZLEED1Ev@Base 1.6
 (optional=templinst)_ZN3pcl6search6SearchINS_9PointXYZLEED2Ev@Base 1.6
 _ZN3pcl6traits4nameINS_10_PointXYZIENS_6fields1xELi0EE5valueE@Base 1.6
 _ZN3pcl6traits4nameINS_10_PointXYZIENS_6fields1yELi0EE5valueE@Base 1.6
 _ZN3pcl6traits4nameINS_10_PointXYZIENS_6fields1zELi0EE5valueE@Base 1.6
 _ZN3pcl6traits4nameINS_10_PointXYZIENS_6fields9intensityELi0EE5valueE@Base 1.6
 _ZN3pcl6traits4nameINS_11PointNormalENS_6fields1xELi0EE5valueE@Base 1.6
 _ZN3pcl6traits4nameINS_11PointNormalENS_6fields1yELi0EE5valueE@Base 1.6
 _ZN3pcl6traits4nameINS_11PointNormalENS_6fields1zELi0EE5valueE@Base 1.6
 _ZN3pcl6traits4nameINS_11PointNormalENS_6fields8normal_xELi0EE5valueE@Base 1.6
 _ZN3pcl6traits4nameINS_11PointNormalENS_6fields8normal_yELi0EE5valueE@Base 1.6
 _ZN3pcl6traits4nameINS_11PointNormalENS_6fields8normal_zELi0EE5valueE@Base 1.6
 _ZN3pcl6traits4nameINS_11PointNormalENS_6fields9curvatureELi0EE5valueE@Base 1.6
 _ZN3pcl6traits4nameINS_12_PointXYZHSVENS_6fields1hELi0EE5valueE@Base 1.6
 _ZN3pcl6traits4nameINS_12_PointXYZHSVENS_6fields1sELi0EE5valueE@Base 1.6
 _ZN3pcl6traits4nameINS_12_PointXYZHSVENS_6fields1vELi0EE5valueE@Base 1.6
 _ZN3pcl6traits4nameINS_12_PointXYZHSVENS_6fields1xELi0EE5valueE@Base 1.6
 _ZN3pcl6traits4nameINS_12_PointXYZHSVENS_6fields1yELi0EE5valueE@Base 1.6
 _ZN3pcl6traits4nameINS_12_PointXYZHSVENS_6fields1zELi0EE5valueE@Base 1.6
 _ZN3pcl6traits4nameINS_12_PointXYZRGBENS_6fields1xELi0EE5valueE@Base 1.6
 _ZN3pcl6traits4nameINS_12_PointXYZRGBENS_6fields1yELi0EE5valueE@Base 1.6
 _ZN3pcl6traits4nameINS_12_PointXYZRGBENS_6fields1zELi0EE5valueE@Base 1.6
 _ZN3pcl6traits4nameINS_12_PointXYZRGBENS_6fields3rgbELi0EE5valueE@Base 1.6
 _ZN3pcl6traits4nameINS_13InterestPointENS_6fields1xELi0EE5valueE@Base 1.6
 _ZN3pcl6traits4nameINS_13InterestPointENS_6fields1yELi0EE5valueE@Base 1.6
 _ZN3pcl6traits4nameINS_13InterestPointENS_6fields1zELi0EE5valueE@Base 1.6
 _ZN3pcl6traits4nameINS_13InterestPointENS_6fields8strengthELi0EE5valueE@Base 1.6
 _ZN3pcl6traits4nameINS_13_PointXYZRGBAENS_6fields1xELi0EE5valueE@Base 1.6
 _ZN3pcl6traits4nameINS_13_PointXYZRGBAENS_6fields1yELi0EE5valueE@Base 1.6
 _ZN3pcl6traits4nameINS_13_PointXYZRGBAENS_6fields1zELi0EE5valueE@Base 1.6
 _ZN3pcl6traits4nameINS_13_PointXYZRGBAENS_6fields4rgbaELi0EE5valueE@Base 1.6
 _ZN3pcl6traits4nameINS_13_PointXYZRGBLENS_6fields1xELi0EE5valueE@Base 1.6
 _ZN3pcl6traits4nameINS_13_PointXYZRGBLENS_6fields1yELi0EE5valueE@Base 1.6
 _ZN3pcl6traits4nameINS_13_PointXYZRGBLENS_6fields1zELi0EE5valueE@Base 1.6
 _ZN3pcl6traits4nameINS_13_PointXYZRGBLENS_6fields4rgbaELi0EE5valueE@Base 1.6
 _ZN3pcl6traits4nameINS_13_PointXYZRGBLENS_6fields5labelELi0EE5valueE@Base 1.6
 _ZN3pcl6traits4nameINS_14PointWithRangeENS_6fields1xELi0EE5valueE@Base 1.6
 _ZN3pcl6traits4nameINS_14PointWithRangeENS_6fields1yELi0EE5valueE@Base 1.6
 _ZN3pcl6traits4nameINS_14PointWithRangeENS_6fields1zELi0EE5valueE@Base 1.6
 _ZN3pcl6traits4nameINS_14PointWithRangeENS_6fields5rangeELi0EE5valueE@Base 1.6
 _ZN3pcl6traits4nameINS_14PointWithScaleENS_6fields1xELi0EE5valueE@Base 1.6
 _ZN3pcl6traits4nameINS_14PointWithScaleENS_6fields1yELi0EE5valueE@Base 1.6
 _ZN3pcl6traits4nameINS_14PointWithScaleENS_6fields1zELi0EE5valueE@Base 1.6
 _ZN3pcl6traits4nameINS_14PointWithScaleENS_6fields5scaleELi0EE5valueE@Base 1.6
 _ZN3pcl6traits4nameINS_15PointXYZINormalENS_6fields1xELi0EE5valueE@Base 1.6
 _ZN3pcl6traits4nameINS_15PointXYZINormalENS_6fields1yELi0EE5valueE@Base 1.6
 _ZN3pcl6traits4nameINS_15PointXYZINormalENS_6fields1zELi0EE5valueE@Base 1.6
 _ZN3pcl6traits4nameINS_15PointXYZINormalENS_6fields8normal_xELi0EE5valueE@Base 1.6
 _ZN3pcl6traits4nameINS_15PointXYZINormalENS_6fields8normal_yELi0EE5valueE@Base 1.6
 _ZN3pcl6traits4nameINS_15PointXYZINormalENS_6fields8normal_zELi0EE5valueE@Base 1.6
 _ZN3pcl6traits4nameINS_15PointXYZINormalENS_6fields9curvatureELi0EE5valueE@Base 1.6
 _ZN3pcl6traits4nameINS_15PointXYZINormalENS_6fields9intensityELi0EE5valueE@Base 1.6
 _ZN3pcl6traits4nameINS_18_PointXYZRGBNormalENS_6fields1xELi0EE5valueE@Base 1.6
 _ZN3pcl6traits4nameINS_18_PointXYZRGBNormalENS_6fields1yELi0EE5valueE@Base 1.6
 _ZN3pcl6traits4nameINS_18_PointXYZRGBNormalENS_6fields1zELi0EE5valueE@Base 1.6
 _ZN3pcl6traits4nameINS_18_PointXYZRGBNormalENS_6fields3rgbELi0EE5valueE@Base 1.6
 _ZN3pcl6traits4nameINS_18_PointXYZRGBNormalENS_6fields8normal_xELi0EE5valueE@Base 1.6
 _ZN3pcl6traits4nameINS_18_PointXYZRGBNormalENS_6fields8normal_yELi0EE5valueE@Base 1.6
 _ZN3pcl6traits4nameINS_18_PointXYZRGBNormalENS_6fields8normal_zELi0EE5valueE@Base 1.6
 _ZN3pcl6traits4nameINS_18_PointXYZRGBNormalENS_6fields9curvatureELi0EE5valueE@Base 1.6
 _ZN3pcl6traits4nameINS_19_PointWithViewpointENS_6fields1xELi0EE5valueE@Base 1.6
 _ZN3pcl6traits4nameINS_19_PointWithViewpointENS_6fields1yELi0EE5valueE@Base 1.6
 _ZN3pcl6traits4nameINS_19_PointWithViewpointENS_6fields1zELi0EE5valueE@Base 1.6
 _ZN3pcl6traits4nameINS_19_PointWithViewpointENS_6fields4vp_xELi0EE5valueE@Base 1.6
 _ZN3pcl6traits4nameINS_19_PointWithViewpointENS_6fields4vp_yELi0EE5valueE@Base 1.6
 _ZN3pcl6traits4nameINS_19_PointWithViewpointENS_6fields4vp_zELi0EE5valueE@Base 1.6
 _ZN3pcl6traits4nameINS_9PointXYZLENS_6fields1xELi0EE5valueE@Base 1.6
 _ZN3pcl6traits4nameINS_9PointXYZLENS_6fields1yELi0EE5valueE@Base 1.6
 _ZN3pcl6traits4nameINS_9PointXYZLENS_6fields1zELi0EE5valueE@Base 1.6
 _ZN3pcl6traits4nameINS_9PointXYZLENS_6fields5labelELi0EE5valueE@Base 1.6
 _ZN3pcl6traits4nameINS_9_PointXYZENS_6fields1xELi0EE5valueE@Base 1.6
 _ZN3pcl6traits4nameINS_9_PointXYZENS_6fields1yELi0EE5valueE@Base 1.6
 _ZN3pcl6traits4nameINS_9_PointXYZENS_6fields1zELi0EE5valueE@Base 1.6
 (optional=templinst)_ZN3pcl7PCLBaseINS_11PointNormalEE11initComputeEv@Base 1.6
 (optional=templinst)_ZN3pcl7PCLBaseINS_11PointNormalEE13setInputCloudERKN5boost10shared_ptrIKNS_10PointCloudIS1_EEEE@Base 1.6
 (optional=templinst)_ZN3pcl7PCLBaseINS_11PointNormalEED0Ev@Base 1.6
 (optional=templinst)_ZN3pcl7PCLBaseINS_11PointNormalEED1Ev@Base 1.6
 (optional=templinst)_ZN3pcl7PCLBaseINS_11PointNormalEED2Ev@Base 1.6
 (optional=templinst)_ZN3pcl7PCLBaseINS_11PointXYZHSVEE11initComputeEv@Base 1.6
 (optional=templinst)_ZN3pcl7PCLBaseINS_11PointXYZHSVEE13setInputCloudERKN5boost10shared_ptrIKNS_10PointCloudIS1_EEEE@Base 1.6
 (optional=templinst)_ZN3pcl7PCLBaseINS_11PointXYZHSVEED0Ev@Base 1.6
 (optional=templinst)_ZN3pcl7PCLBaseINS_11PointXYZHSVEED1Ev@Base 1.6
 (optional=templinst)_ZN3pcl7PCLBaseINS_11PointXYZHSVEED2Ev@Base 1.6
 (optional=templinst)_ZN3pcl7PCLBaseINS_11PointXYZRGBEE11initComputeEv@Base 1.6
 (optional=templinst)_ZN3pcl7PCLBaseINS_11PointXYZRGBEE13setInputCloudERKN5boost10shared_ptrIKNS_10PointCloudIS1_EEEE@Base 1.6
 (optional=templinst)_ZN3pcl7PCLBaseINS_11PointXYZRGBEED0Ev@Base 1.6
 (optional=templinst)_ZN3pcl7PCLBaseINS_11PointXYZRGBEED1Ev@Base 1.6
 (optional=templinst)_ZN3pcl7PCLBaseINS_11PointXYZRGBEED2Ev@Base 1.6
 (optional=templinst)_ZN3pcl7PCLBaseINS_12PointXYZRGBAEE11initComputeEv@Base 1.6
 (optional=templinst)_ZN3pcl7PCLBaseINS_12PointXYZRGBAEE13setInputCloudERKN5boost10shared_ptrIKNS_10PointCloudIS1_EEEE@Base 1.6
 (optional=templinst)_ZN3pcl7PCLBaseINS_12PointXYZRGBAEED0Ev@Base 1.6
 (optional=templinst)_ZN3pcl7PCLBaseINS_12PointXYZRGBAEED1Ev@Base 1.6
 (optional=templinst)_ZN3pcl7PCLBaseINS_12PointXYZRGBAEED2Ev@Base 1.6
 (optional=templinst)_ZN3pcl7PCLBaseINS_12PointXYZRGBLEE11initComputeEv@Base 1.6
 (optional=templinst)_ZN3pcl7PCLBaseINS_12PointXYZRGBLEE13setInputCloudERKN5boost10shared_ptrIKNS_10PointCloudIS1_EEEE@Base 1.6
 (optional=templinst)_ZN3pcl7PCLBaseINS_12PointXYZRGBLEED0Ev@Base 1.6
 (optional=templinst)_ZN3pcl7PCLBaseINS_12PointXYZRGBLEED1Ev@Base 1.6
 (optional=templinst)_ZN3pcl7PCLBaseINS_12PointXYZRGBLEED2Ev@Base 1.6
 (optional=templinst)_ZN3pcl7PCLBaseINS_13InterestPointEE11initComputeEv@Base 1.6
 (optional=templinst)_ZN3pcl7PCLBaseINS_13InterestPointEE13setInputCloudERKN5boost10shared_ptrIKNS_10PointCloudIS1_EEEE@Base 1.6
 (optional=templinst)_ZN3pcl7PCLBaseINS_13InterestPointEED0Ev@Base 1.6
 (optional=templinst)_ZN3pcl7PCLBaseINS_13InterestPointEED1Ev@Base 1.6
 (optional=templinst)_ZN3pcl7PCLBaseINS_13InterestPointEED2Ev@Base 1.6
 (optional=templinst)_ZN3pcl7PCLBaseINS_14PointWithRangeEE11initComputeEv@Base 1.6
 (optional=templinst)_ZN3pcl7PCLBaseINS_14PointWithRangeEE13setInputCloudERKN5boost10shared_ptrIKNS_10PointCloudIS1_EEEE@Base 1.6
 (optional=templinst)_ZN3pcl7PCLBaseINS_14PointWithRangeEED0Ev@Base 1.6
 (optional=templinst)_ZN3pcl7PCLBaseINS_14PointWithRangeEED1Ev@Base 1.6
 (optional=templinst)_ZN3pcl7PCLBaseINS_14PointWithRangeEED2Ev@Base 1.6
 (optional=templinst)_ZN3pcl7PCLBaseINS_14PointWithScaleEE11initComputeEv@Base 1.6
 (optional=templinst)_ZN3pcl7PCLBaseINS_14PointWithScaleEE13setInputCloudERKN5boost10shared_ptrIKNS_10PointCloudIS1_EEEE@Base 1.6
 (optional=templinst)_ZN3pcl7PCLBaseINS_14PointWithScaleEED0Ev@Base 1.6
 (optional=templinst)_ZN3pcl7PCLBaseINS_14PointWithScaleEED1Ev@Base 1.6
 (optional=templinst)_ZN3pcl7PCLBaseINS_14PointWithScaleEED2Ev@Base 1.6
 (optional=templinst)_ZN3pcl7PCLBaseINS_15PointXYZINormalEE11initComputeEv@Base 1.6
 (optional=templinst)_ZN3pcl7PCLBaseINS_15PointXYZINormalEE13setInputCloudERKN5boost10shared_ptrIKNS_10PointCloudIS1_EEEE@Base 1.6
 (optional=templinst)_ZN3pcl7PCLBaseINS_15PointXYZINormalEED0Ev@Base 1.6
 (optional=templinst)_ZN3pcl7PCLBaseINS_15PointXYZINormalEED1Ev@Base 1.6
 (optional=templinst)_ZN3pcl7PCLBaseINS_15PointXYZINormalEED2Ev@Base 1.6
 (optional=templinst)_ZN3pcl7PCLBaseINS_17PointXYZRGBNormalEE11initComputeEv@Base 1.6
 (optional=templinst)_ZN3pcl7PCLBaseINS_17PointXYZRGBNormalEE13setInputCloudERKN5boost10shared_ptrIKNS_10PointCloudIS1_EEEE@Base 1.6
 (optional=templinst)_ZN3pcl7PCLBaseINS_17PointXYZRGBNormalEED0Ev@Base 1.6
 (optional=templinst)_ZN3pcl7PCLBaseINS_17PointXYZRGBNormalEED1Ev@Base 1.6
 (optional=templinst)_ZN3pcl7PCLBaseINS_17PointXYZRGBNormalEED2Ev@Base 1.6
 (optional=templinst)_ZN3pcl7PCLBaseINS_18PointWithViewpointEE11initComputeEv@Base 1.6
 (optional=templinst)_ZN3pcl7PCLBaseINS_18PointWithViewpointEE13setInputCloudERKN5boost10shared_ptrIKNS_10PointCloudIS1_EEEE@Base 1.6
 (optional=templinst)_ZN3pcl7PCLBaseINS_18PointWithViewpointEED0Ev@Base 1.6
 (optional=templinst)_ZN3pcl7PCLBaseINS_18PointWithViewpointEED1Ev@Base 1.6
 (optional=templinst)_ZN3pcl7PCLBaseINS_18PointWithViewpointEED2Ev@Base 1.6
 (optional=templinst)_ZN3pcl7PCLBaseINS_8PointXYZEE11initComputeEv@Base 1.6
 (optional=templinst)_ZN3pcl7PCLBaseINS_8PointXYZEE13setInputCloudERKN5boost10shared_ptrIKNS_10PointCloudIS1_EEEE@Base 1.6
 (optional=templinst)_ZN3pcl7PCLBaseINS_8PointXYZEED0Ev@Base 1.6
 (optional=templinst)_ZN3pcl7PCLBaseINS_8PointXYZEED1Ev@Base 1.6
 (optional=templinst)_ZN3pcl7PCLBaseINS_8PointXYZEED2Ev@Base 1.6
 (optional=templinst)_ZN3pcl7PCLBaseINS_9PointXYZIEE11initComputeEv@Base 1.6
 (optional=templinst)_ZN3pcl7PCLBaseINS_9PointXYZIEE13setInputCloudERKN5boost10shared_ptrIKNS_10PointCloudIS1_EEEE@Base 1.6
 (optional=templinst)_ZN3pcl7PCLBaseINS_9PointXYZIEED0Ev@Base 1.6
 (optional=templinst)_ZN3pcl7PCLBaseINS_9PointXYZIEED1Ev@Base 1.6
 (optional=templinst)_ZN3pcl7PCLBaseINS_9PointXYZIEED2Ev@Base 1.6
 (optional=templinst)_ZN3pcl7PCLBaseINS_9PointXYZLEE11initComputeEv@Base 1.6
 (optional=templinst)_ZN3pcl7PCLBaseINS_9PointXYZLEE13setInputCloudERKN5boost10shared_ptrIKNS_10PointCloudIS1_EEEE@Base 1.6
 (optional=templinst)_ZN3pcl7PCLBaseINS_9PointXYZLEED0Ev@Base 1.6
 (optional=templinst)_ZN3pcl7PCLBaseINS_9PointXYZLEED1Ev@Base 1.6
 (optional=templinst)_ZN3pcl7PCLBaseINS_9PointXYZLEED2Ev@Base 1.6
 (optional=templinst)_ZN3pcl7PoissonINS_11PointNormalEE11getManifoldEv@Base 1.6
 (optional=templinst)_ZN3pcl7PoissonINS_11PointNormalEE11setManifoldEb@Base 1.6
 (optional=templinst)_ZN3pcl7PoissonINS_11PointNormalEE12getIsoDivideEv@Base 1.6
 (optional=templinst)_ZN3pcl7PoissonINS_11PointNormalEE12setIsoDivideEi@Base 1.6
 (optional=templinst)_ZN3pcl7PoissonINS_11PointNormalEE13getConfidenceEv@Base 1.6
 (optional=templinst)_ZN3pcl7PoissonINS_11PointNormalEE13setConfidenceEb@Base 1.6
 (optional=templinst)_ZN3pcl7PoissonINS_11PointNormalEE15getSolverDivideEv@Base 1.6
 (optional=templinst)_ZN3pcl7PoissonINS_11PointNormalEE15setSolverDivideEi@Base 1.6
 (optional=templinst)_ZN3pcl7PoissonINS_11PointNormalEE17getOutputPolygonsEv@Base 1.6
 (optional=templinst)_ZN3pcl7PoissonINS_11PointNormalEE17getSamplesPerNodeEv@Base 1.6
 (optional=templinst)_ZN3pcl7PoissonINS_11PointNormalEE17setOutputPolygonsEb@Base 1.6
 (optional=templinst)_ZN3pcl7PoissonINS_11PointNormalEE17setSamplesPerNodeEf@Base 1.6
 (optional=templinst)_ZN3pcl7PoissonINS_11PointNormalEE21performReconstructionERNS_10PointCloudIS1_EERSt6vectorINS_8VerticesESaIS7_EE@Base 1.6
 (optional=templinst)_ZN3pcl7PoissonINS_11PointNormalEE21performReconstructionERNS_11PolygonMeshE@Base 1.6
 (optional=templinst)_ZN3pcl7PoissonINS_11PointNormalEE7executeILi1EEEvRNS_7poisson13CoredMeshDataERNS4_7Point3DIfEERf@Base 1.6
 (optional=templinst)_ZN3pcl7PoissonINS_11PointNormalEE7executeILi2EEEvRNS_7poisson13CoredMeshDataERNS4_7Point3DIfEERf@Base 1.6
 (optional=templinst)_ZN3pcl7PoissonINS_11PointNormalEE7executeILi3EEEvRNS_7poisson13CoredMeshDataERNS4_7Point3DIfEERf@Base 1.6
 (optional=templinst)_ZN3pcl7PoissonINS_11PointNormalEE7executeILi4EEEvRNS_7poisson13CoredMeshDataERNS4_7Point3DIfEERf@Base 1.6
 (optional=templinst)_ZN3pcl7PoissonINS_11PointNormalEE7executeILi5EEEvRNS_7poisson13CoredMeshDataERNS4_7Point3DIfEERf@Base 1.6
 (optional=templinst)_ZN3pcl7PoissonINS_11PointNormalEE8getDepthEv@Base 1.6
 (optional=templinst)_ZN3pcl7PoissonINS_11PointNormalEE8getScaleEv@Base 1.6
 (optional=templinst)_ZN3pcl7PoissonINS_11PointNormalEE8setDepthEi@Base 1.6
 (optional=templinst)_ZN3pcl7PoissonINS_11PointNormalEE8setScaleEf@Base 1.6
 (optional=templinst)_ZN3pcl7PoissonINS_11PointNormalEE9getDegreeEv@Base 1.6
 (optional=templinst)_ZN3pcl7PoissonINS_11PointNormalEE9setDegreeEi@Base 1.6
 (optional=templinst)_ZN3pcl7PoissonINS_11PointNormalEEC1Ev@Base 1.6
 (optional=templinst)_ZN3pcl7PoissonINS_11PointNormalEEC2Ev@Base 1.6
 (optional=templinst)_ZN3pcl7PoissonINS_11PointNormalEED0Ev@Base 1.6
 (optional=templinst)_ZN3pcl7PoissonINS_11PointNormalEED1Ev@Base 1.6
 (optional=templinst)_ZN3pcl7PoissonINS_11PointNormalEED2Ev@Base 1.6
 _ZN3pcl7PoissonINS_11PointNormalEEdaEPv@Base 1.6
 _ZN3pcl7PoissonINS_11PointNormalEEdlEPv@Base 1.6
 _ZN3pcl7PoissonINS_11PointNormalEEdlEPvRKSt9nothrow_t@Base 1.6
 _ZN3pcl7PoissonINS_11PointNormalEEdlEPvS3_@Base 1.6
 _ZN3pcl7PoissonINS_11PointNormalEEnaEm@Base 1.6
 _ZN3pcl7PoissonINS_11PointNormalEEnwEm@Base 1.6
 _ZN3pcl7PoissonINS_11PointNormalEEnwEmPv@Base 1.6
 _ZN3pcl7PoissonINS_11PointNormalEEnwEmRKSt9nothrow_t@Base 1.6
 (optional=templinst)_ZN3pcl7PoissonINS_15PointXYZINormalEE11getManifoldEv@Base 1.6
 (optional=templinst)_ZN3pcl7PoissonINS_15PointXYZINormalEE11setManifoldEb@Base 1.6
 (optional=templinst)_ZN3pcl7PoissonINS_15PointXYZINormalEE12getIsoDivideEv@Base 1.6
 (optional=templinst)_ZN3pcl7PoissonINS_15PointXYZINormalEE12setIsoDivideEi@Base 1.6
 (optional=templinst)_ZN3pcl7PoissonINS_15PointXYZINormalEE13getConfidenceEv@Base 1.6
 (optional=templinst)_ZN3pcl7PoissonINS_15PointXYZINormalEE13setConfidenceEb@Base 1.6
 (optional=templinst)_ZN3pcl7PoissonINS_15PointXYZINormalEE15getSolverDivideEv@Base 1.6
 (optional=templinst)_ZN3pcl7PoissonINS_15PointXYZINormalEE15setSolverDivideEi@Base 1.6
 (optional=templinst)_ZN3pcl7PoissonINS_15PointXYZINormalEE17getOutputPolygonsEv@Base 1.6
 (optional=templinst)_ZN3pcl7PoissonINS_15PointXYZINormalEE17getSamplesPerNodeEv@Base 1.6
 (optional=templinst)_ZN3pcl7PoissonINS_15PointXYZINormalEE17setOutputPolygonsEb@Base 1.6
 (optional=templinst)_ZN3pcl7PoissonINS_15PointXYZINormalEE17setSamplesPerNodeEf@Base 1.6
 (optional=templinst)_ZN3pcl7PoissonINS_15PointXYZINormalEE21performReconstructionERNS_10PointCloudIS1_EERSt6vectorINS_8VerticesESaIS7_EE@Base 1.6
 (optional=templinst)_ZN3pcl7PoissonINS_15PointXYZINormalEE21performReconstructionERNS_11PolygonMeshE@Base 1.6
 (optional=templinst)_ZN3pcl7PoissonINS_15PointXYZINormalEE7executeILi1EEEvRNS_7poisson13CoredMeshDataERNS4_7Point3DIfEERf@Base 1.6
 (optional=templinst)_ZN3pcl7PoissonINS_15PointXYZINormalEE7executeILi2EEEvRNS_7poisson13CoredMeshDataERNS4_7Point3DIfEERf@Base 1.6
 (optional=templinst)_ZN3pcl7PoissonINS_15PointXYZINormalEE7executeILi3EEEvRNS_7poisson13CoredMeshDataERNS4_7Point3DIfEERf@Base 1.6
 (optional=templinst)_ZN3pcl7PoissonINS_15PointXYZINormalEE7executeILi4EEEvRNS_7poisson13CoredMeshDataERNS4_7Point3DIfEERf@Base 1.6
 (optional=templinst)_ZN3pcl7PoissonINS_15PointXYZINormalEE7executeILi5EEEvRNS_7poisson13CoredMeshDataERNS4_7Point3DIfEERf@Base 1.6
 (optional=templinst)_ZN3pcl7PoissonINS_15PointXYZINormalEE8getDepthEv@Base 1.6
 (optional=templinst)_ZN3pcl7PoissonINS_15PointXYZINormalEE8getScaleEv@Base 1.6
 (optional=templinst)_ZN3pcl7PoissonINS_15PointXYZINormalEE8setDepthEi@Base 1.6
 (optional=templinst)_ZN3pcl7PoissonINS_15PointXYZINormalEE8setScaleEf@Base 1.6
 (optional=templinst)_ZN3pcl7PoissonINS_15PointXYZINormalEE9getDegreeEv@Base 1.6
 (optional=templinst)_ZN3pcl7PoissonINS_15PointXYZINormalEE9setDegreeEi@Base 1.6
 (optional=templinst)_ZN3pcl7PoissonINS_15PointXYZINormalEEC1Ev@Base 1.6
 (optional=templinst)_ZN3pcl7PoissonINS_15PointXYZINormalEEC2Ev@Base 1.6
 (optional=templinst)_ZN3pcl7PoissonINS_15PointXYZINormalEED0Ev@Base 1.6
 (optional=templinst)_ZN3pcl7PoissonINS_15PointXYZINormalEED1Ev@Base 1.6
 (optional=templinst)_ZN3pcl7PoissonINS_15PointXYZINormalEED2Ev@Base 1.6
 _ZN3pcl7PoissonINS_15PointXYZINormalEEdaEPv@Base 1.6
 _ZN3pcl7PoissonINS_15PointXYZINormalEEdlEPv@Base 1.6
 _ZN3pcl7PoissonINS_15PointXYZINormalEEdlEPvRKSt9nothrow_t@Base 1.6
 _ZN3pcl7PoissonINS_15PointXYZINormalEEdlEPvS3_@Base 1.6
 _ZN3pcl7PoissonINS_15PointXYZINormalEEnaEm@Base 1.6
 _ZN3pcl7PoissonINS_15PointXYZINormalEEnwEm@Base 1.6
 _ZN3pcl7PoissonINS_15PointXYZINormalEEnwEmPv@Base 1.6
 _ZN3pcl7PoissonINS_15PointXYZINormalEEnwEmRKSt9nothrow_t@Base 1.6
 (optional=templinst)_ZN3pcl7PoissonINS_17PointXYZRGBNormalEE11getManifoldEv@Base 1.6
 (optional=templinst)_ZN3pcl7PoissonINS_17PointXYZRGBNormalEE11setManifoldEb@Base 1.6
 (optional=templinst)_ZN3pcl7PoissonINS_17PointXYZRGBNormalEE12getIsoDivideEv@Base 1.6
 (optional=templinst)_ZN3pcl7PoissonINS_17PointXYZRGBNormalEE12setIsoDivideEi@Base 1.6
 (optional=templinst)_ZN3pcl7PoissonINS_17PointXYZRGBNormalEE13getConfidenceEv@Base 1.6
 (optional=templinst)_ZN3pcl7PoissonINS_17PointXYZRGBNormalEE13setConfidenceEb@Base 1.6
 (optional=templinst)_ZN3pcl7PoissonINS_17PointXYZRGBNormalEE15getSolverDivideEv@Base 1.6
 (optional=templinst)_ZN3pcl7PoissonINS_17PointXYZRGBNormalEE15setSolverDivideEi@Base 1.6
 (optional=templinst)_ZN3pcl7PoissonINS_17PointXYZRGBNormalEE17getOutputPolygonsEv@Base 1.6
 (optional=templinst)_ZN3pcl7PoissonINS_17PointXYZRGBNormalEE17getSamplesPerNodeEv@Base 1.6
 (optional=templinst)_ZN3pcl7PoissonINS_17PointXYZRGBNormalEE17setOutputPolygonsEb@Base 1.6
 (optional=templinst)_ZN3pcl7PoissonINS_17PointXYZRGBNormalEE17setSamplesPerNodeEf@Base 1.6
 (optional=templinst)_ZN3pcl7PoissonINS_17PointXYZRGBNormalEE21performReconstructionERNS_10PointCloudIS1_EERSt6vectorINS_8VerticesESaIS7_EE@Base 1.6
 (optional=templinst)_ZN3pcl7PoissonINS_17PointXYZRGBNormalEE21performReconstructionERNS_11PolygonMeshE@Base 1.6
 (optional=templinst)_ZN3pcl7PoissonINS_17PointXYZRGBNormalEE7executeILi1EEEvRNS_7poisson13CoredMeshDataERNS4_7Point3DIfEERf@Base 1.6
 (optional=templinst)_ZN3pcl7PoissonINS_17PointXYZRGBNormalEE7executeILi2EEEvRNS_7poisson13CoredMeshDataERNS4_7Point3DIfEERf@Base 1.6
 (optional=templinst)_ZN3pcl7PoissonINS_17PointXYZRGBNormalEE7executeILi3EEEvRNS_7poisson13CoredMeshDataERNS4_7Point3DIfEERf@Base 1.6
 (optional=templinst)_ZN3pcl7PoissonINS_17PointXYZRGBNormalEE7executeILi4EEEvRNS_7poisson13CoredMeshDataERNS4_7Point3DIfEERf@Base 1.6
 (optional=templinst)_ZN3pcl7PoissonINS_17PointXYZRGBNormalEE7executeILi5EEEvRNS_7poisson13CoredMeshDataERNS4_7Point3DIfEERf@Base 1.6
 (optional=templinst)_ZN3pcl7PoissonINS_17PointXYZRGBNormalEE8getDepthEv@Base 1.6
 (optional=templinst)_ZN3pcl7PoissonINS_17PointXYZRGBNormalEE8getScaleEv@Base 1.6
 (optional=templinst)_ZN3pcl7PoissonINS_17PointXYZRGBNormalEE8setDepthEi@Base 1.6
 (optional=templinst)_ZN3pcl7PoissonINS_17PointXYZRGBNormalEE8setScaleEf@Base 1.6
 (optional=templinst)_ZN3pcl7PoissonINS_17PointXYZRGBNormalEE9getDegreeEv@Base 1.6
 (optional=templinst)_ZN3pcl7PoissonINS_17PointXYZRGBNormalEE9setDegreeEi@Base 1.6
 (optional=templinst)_ZN3pcl7PoissonINS_17PointXYZRGBNormalEEC1Ev@Base 1.6
 (optional=templinst)_ZN3pcl7PoissonINS_17PointXYZRGBNormalEEC2Ev@Base 1.6
 (optional=templinst)_ZN3pcl7PoissonINS_17PointXYZRGBNormalEED0Ev@Base 1.6
 (optional=templinst)_ZN3pcl7PoissonINS_17PointXYZRGBNormalEED1Ev@Base 1.6
 (optional=templinst)_ZN3pcl7PoissonINS_17PointXYZRGBNormalEED2Ev@Base 1.6
 _ZN3pcl7PoissonINS_17PointXYZRGBNormalEEdaEPv@Base 1.6
 _ZN3pcl7PoissonINS_17PointXYZRGBNormalEEdlEPv@Base 1.6
 _ZN3pcl7PoissonINS_17PointXYZRGBNormalEEdlEPvRKSt9nothrow_t@Base 1.6
 _ZN3pcl7PoissonINS_17PointXYZRGBNormalEEdlEPvS3_@Base 1.6
 _ZN3pcl7PoissonINS_17PointXYZRGBNormalEEnaEm@Base 1.6
 _ZN3pcl7PoissonINS_17PointXYZRGBNormalEEnwEm@Base 1.6
 _ZN3pcl7PoissonINS_17PointXYZRGBNormalEEnwEmPv@Base 1.6
 _ZN3pcl7PoissonINS_17PointXYZRGBNormalEEnwEmRKSt9nothrow_t@Base 1.6
 (optional=templinst)_ZN3pcl7eigen33IN5Eigen6MatrixIfLi3ELi3ELi0ELi3ELi3EEENS2_IfLi3ELi1ELi0ELi3ELi1EEEEEvRKT_RNS5_6ScalarERT0_@Base 1.6
 (optional=templinst)_ZN3pcl7eigen33IN5Eigen6MatrixIfLi3ELi3ELi0ELi3ELi3EEENS2_IfLi3ELi1ELi0ELi3ELi1EEEEEvRKT_RS5_RT0_@Base 1.6
 (optional=templinst)_ZN3pcl7eigen33IN5Eigen6MatrixIfLi3ELi3ELi0ELi3ELi3EEENS2_IfLi3ELi1ELi0ELi3ELi1EEEEEvRKT_RT0_@Base 1.6
 (optional=templinst)_ZN3pcl7poisson10PolynomialILi0EEC1Ev@Base 1.6
 (optional=templinst)_ZN3pcl7poisson10PolynomialILi0EEC2Ev@Base 1.6
 (optional=templinst)_ZN3pcl7poisson10PolynomialILi10EEC1Ev@Base 1.6
 (optional=templinst)_ZN3pcl7poisson10PolynomialILi10EEC2Ev@Base 1.6
 (optional=templinst)_ZN3pcl7poisson10PolynomialILi1EEC1Ev@Base 1.6
 (optional=templinst)_ZN3pcl7poisson10PolynomialILi1EEC2Ev@Base 1.6
 (optional=templinst)_ZN3pcl7poisson10PolynomialILi2EEC1Ev@Base 1.6
 (optional=templinst)_ZN3pcl7poisson10PolynomialILi2EEC2Ev@Base 1.6
 (optional=templinst)_ZN3pcl7poisson10PolynomialILi3EEC1Ev@Base 1.6
 (optional=templinst)_ZN3pcl7poisson10PolynomialILi3EEC2Ev@Base 1.6
 (optional=templinst)_ZN3pcl7poisson10PolynomialILi4EEC1Ev@Base 1.6
 (optional=templinst)_ZN3pcl7poisson10PolynomialILi4EEC2Ev@Base 1.6
 (optional=templinst)_ZN3pcl7poisson10PolynomialILi5EEC1Ev@Base 1.6
 (optional=templinst)_ZN3pcl7poisson10PolynomialILi5EEC2Ev@Base 1.6
 (optional=templinst)_ZN3pcl7poisson10PolynomialILi6EEC1Ev@Base 1.6
 (optional=templinst)_ZN3pcl7poisson10PolynomialILi6EEC2Ev@Base 1.6
 (optional=templinst)_ZN3pcl7poisson10PolynomialILi7EEC1Ev@Base 1.6
 (optional=templinst)_ZN3pcl7poisson10PolynomialILi7EEC2Ev@Base 1.6
 (optional=templinst)_ZN3pcl7poisson10PolynomialILi8EEC1Ev@Base 1.6
 (optional=templinst)_ZN3pcl7poisson10PolynomialILi8EEC2Ev@Base 1.6
 (optional=templinst)_ZN3pcl7poisson10PolynomialILi9EEC1Ev@Base 1.6
 (optional=templinst)_ZN3pcl7poisson10PolynomialILi9EEC2Ev@Base 1.6
 _ZN3pcl7poisson10VertexData11CenterIndexEPKNS0_7OctNodeINS0_12TreeNodeDataEfEERKi@Base 1.6
 _ZN3pcl7poisson10VertexData11CenterIndexEPKNS0_7OctNodeINS0_12TreeNodeDataEfEERKiPi@Base 1.6
 _ZN3pcl7poisson10VertexData11CenterIndexERKiPS2_S3_Pi@Base 1.6
 _ZN3pcl7poisson10VertexData11CornerIndexEPKNS0_7OctNodeINS0_12TreeNodeDataEfEERKiS8_@Base 1.6
 _ZN3pcl7poisson10VertexData11CornerIndexEPKNS0_7OctNodeINS0_12TreeNodeDataEfEERKiS8_Pi@Base 1.6
 _ZN3pcl7poisson10VertexData11CornerIndexERKiPS2_S3_S3_Pi@Base 1.6
 _ZN3pcl7poisson10VertexData9EdgeIndexEPKNS0_7OctNodeINS0_12TreeNodeDataEfEERKiS8_@Base 1.6
 _ZN3pcl7poisson10VertexData9EdgeIndexEPKNS0_7OctNodeINS0_12TreeNodeDataEfEERKiS8_Pi@Base 1.6
 _ZN3pcl7poisson10VertexData9FaceIndexEPKNS0_7OctNodeINS0_12TreeNodeDataEfEERKiS8_@Base 1.6
 _ZN3pcl7poisson10VertexData9FaceIndexEPKNS0_7OctNodeINS0_12TreeNodeDataEfEERKiS8_Pi@Base 1.6
 (optional=templinst)_ZN3pcl7poisson11PPolynomialILi0EE13MovingAverageERKd@Base 1.6
 (optional=templinst)_ZN3pcl7poisson11PPolynomialILi0EE21GaussianApproximationERKd@Base 1.6
 (optional=templinst)_ZN3pcl7poisson11PPolynomialILi0EE3setEPNS0_18StartingPolynomialILi0EEERKi@Base 1.6
 (optional=templinst)_ZN3pcl7poisson11PPolynomialILi0EE3setERKm@Base 1.6
 (optional=templinst)_ZN3pcl7poisson11PPolynomialILi0EED1Ev@Base 1.6
 (optional=templinst)_ZN3pcl7poisson11PPolynomialILi0EED2Ev@Base 1.6
 (optional=templinst)_ZN3pcl7poisson11PPolynomialILi10EE3setEPNS0_18StartingPolynomialILi10EEERKi@Base 1.6
 (optional=templinst)_ZN3pcl7poisson11PPolynomialILi10EED1Ev@Base 1.6
 (optional=templinst)_ZN3pcl7poisson11PPolynomialILi10EED2Ev@Base 1.6
 (optional=templinst)_ZN3pcl7poisson11PPolynomialILi1EE13MovingAverageERKd@Base 1.6
 (optional=templinst)_ZN3pcl7poisson11PPolynomialILi1EE21GaussianApproximationERKd@Base 1.6
 (optional=templinst)_ZN3pcl7poisson11PPolynomialILi1EE3setEPNS0_18StartingPolynomialILi1EEERKi@Base 1.6
 (optional=templinst)_ZN3pcl7poisson11PPolynomialILi1EE3setERKm@Base 1.6
 (optional=templinst)_ZN3pcl7poisson11PPolynomialILi1EEC1ERKS2_@Base 1.6
 (optional=templinst)_ZN3pcl7poisson11PPolynomialILi1EEC2ERKS2_@Base 1.6
 (optional=templinst)_ZN3pcl7poisson11PPolynomialILi1EED1Ev@Base 1.6
 (optional=templinst)_ZN3pcl7poisson11PPolynomialILi1EED2Ev@Base 1.6
 (optional=templinst)_ZN3pcl7poisson11PPolynomialILi1EEaSERKS2_@Base 1.6
 (optional=templinst)_ZN3pcl7poisson11PPolynomialILi1EEaSILi2EEERS2_RKNS1_IXT_EEE@Base 1.6
 (optional=templinst)_ZN3pcl7poisson11PPolynomialILi2EE13MovingAverageERKd@Base 1.6
 (optional=templinst)_ZN3pcl7poisson11PPolynomialILi2EE21GaussianApproximationERKd@Base 1.6
 (optional=templinst)_ZN3pcl7poisson11PPolynomialILi2EE3setEPNS0_18StartingPolynomialILi2EEERKi@Base 1.6
 (optional=templinst)_ZN3pcl7poisson11PPolynomialILi2EE3setERKm@Base 1.6
 (optional=templinst)_ZN3pcl7poisson11PPolynomialILi2EEC1ERKS2_@Base 1.6
 (optional=templinst)_ZN3pcl7poisson11PPolynomialILi2EEC2ERKS2_@Base 1.6
 (optional=templinst)_ZN3pcl7poisson11PPolynomialILi2EED1Ev@Base 1.6
 (optional=templinst)_ZN3pcl7poisson11PPolynomialILi2EED2Ev@Base 1.6
 (optional=templinst)_ZN3pcl7poisson11PPolynomialILi2EEaSERKS2_@Base 1.6
 (optional=templinst)_ZN3pcl7poisson11PPolynomialILi2EEaSILi3EEERS2_RKNS1_IXT_EEE@Base 1.6
 (optional=templinst)_ZN3pcl7poisson11PPolynomialILi3EE13MovingAverageERKd@Base 1.6
 (optional=templinst)_ZN3pcl7poisson11PPolynomialILi3EE21GaussianApproximationERKd@Base 1.6
 (optional=templinst)_ZN3pcl7poisson11PPolynomialILi3EE3setEPNS0_18StartingPolynomialILi3EEERKi@Base 1.6
 (optional=templinst)_ZN3pcl7poisson11PPolynomialILi3EE3setERKm@Base 1.6
 (optional=templinst)_ZN3pcl7poisson11PPolynomialILi3EEC1ERKS2_@Base 1.6
 (optional=templinst)_ZN3pcl7poisson11PPolynomialILi3EEC2ERKS2_@Base 1.6
 (optional=templinst)_ZN3pcl7poisson11PPolynomialILi3EED1Ev@Base 1.6
 (optional=templinst)_ZN3pcl7poisson11PPolynomialILi3EED2Ev@Base 1.6
 (optional=templinst)_ZN3pcl7poisson11PPolynomialILi3EEaSERKS2_@Base 1.6
 (optional=templinst)_ZN3pcl7poisson11PPolynomialILi3EEaSILi4EEERS2_RKNS1_IXT_EEE@Base 1.6
 (optional=templinst)_ZN3pcl7poisson11PPolynomialILi4EE13MovingAverageERKd@Base 1.6
 (optional=templinst)_ZN3pcl7poisson11PPolynomialILi4EE21GaussianApproximationERKd@Base 1.6
 (optional=templinst)_ZN3pcl7poisson11PPolynomialILi4EE3setEPNS0_18StartingPolynomialILi4EEERKi@Base 1.6
 (optional=templinst)_ZN3pcl7poisson11PPolynomialILi4EE3setERKm@Base 1.6
 (optional=templinst)_ZN3pcl7poisson11PPolynomialILi4EEC1ERKS2_@Base 1.6
 (optional=templinst)_ZN3pcl7poisson11PPolynomialILi4EEC2ERKS2_@Base 1.6
 (optional=templinst)_ZN3pcl7poisson11PPolynomialILi4EED1Ev@Base 1.6
 (optional=templinst)_ZN3pcl7poisson11PPolynomialILi4EED2Ev@Base 1.6
 (optional=templinst)_ZN3pcl7poisson11PPolynomialILi4EEaSERKS2_@Base 1.6
 (optional=templinst)_ZN3pcl7poisson11PPolynomialILi4EEaSILi5EEERS2_RKNS1_IXT_EEE@Base 1.6
 (optional=templinst)_ZN3pcl7poisson11PPolynomialILi5EE13MovingAverageERKd@Base 1.6
 (optional=templinst)_ZN3pcl7poisson11PPolynomialILi5EE21GaussianApproximationERKd@Base 1.6
 (optional=templinst)_ZN3pcl7poisson11PPolynomialILi5EE3setEPNS0_18StartingPolynomialILi5EEERKi@Base 1.6
 (optional=templinst)_ZN3pcl7poisson11PPolynomialILi5EE3setERKm@Base 1.6
 (optional=templinst)_ZN3pcl7poisson11PPolynomialILi5EEC1ERKS2_@Base 1.6
 (optional=templinst)_ZN3pcl7poisson11PPolynomialILi5EEC2ERKS2_@Base 1.6
 (optional=templinst)_ZN3pcl7poisson11PPolynomialILi5EED1Ev@Base 1.6
 (optional=templinst)_ZN3pcl7poisson11PPolynomialILi5EED2Ev@Base 1.6
 (optional=templinst)_ZN3pcl7poisson11PPolynomialILi5EEaSERKS2_@Base 1.6
 (optional=templinst)_ZN3pcl7poisson11PPolynomialILi5EEaSILi6EEERS2_RKNS1_IXT_EEE@Base 1.6
 (optional=templinst)_ZN3pcl7poisson11PPolynomialILi6EE13MovingAverageERKd@Base 1.6
 (optional=templinst)_ZN3pcl7poisson11PPolynomialILi6EE3setEPNS0_18StartingPolynomialILi6EEERKi@Base 1.6
 (optional=templinst)_ZN3pcl7poisson11PPolynomialILi6EE3setERKm@Base 1.6
 (optional=templinst)_ZN3pcl7poisson11PPolynomialILi6EEC1ERKS2_@Base 1.6
 (optional=templinst)_ZN3pcl7poisson11PPolynomialILi6EEC2ERKS2_@Base 1.6
 (optional=templinst)_ZN3pcl7poisson11PPolynomialILi6EED1Ev@Base 1.6
 (optional=templinst)_ZN3pcl7poisson11PPolynomialILi6EED2Ev@Base 1.6
 (optional=templinst)_ZN3pcl7poisson11PPolynomialILi6EEaSERKS2_@Base 1.6
 (optional=templinst)_ZN3pcl7poisson11PPolynomialILi6EEaSILi7EEERS2_RKNS1_IXT_EEE@Base 1.6
 (optional=templinst)_ZN3pcl7poisson11PPolynomialILi7EE3setEPNS0_18StartingPolynomialILi7EEERKi@Base 1.6
 (optional=templinst)_ZN3pcl7poisson11PPolynomialILi7EE3setERKm@Base 1.6
 (optional=templinst)_ZN3pcl7poisson11PPolynomialILi7EEC1ERKS2_@Base 1.6
 (optional=templinst)_ZN3pcl7poisson11PPolynomialILi7EEC2ERKS2_@Base 1.6
 (optional=templinst)_ZN3pcl7poisson11PPolynomialILi7EED1Ev@Base 1.6
 (optional=templinst)_ZN3pcl7poisson11PPolynomialILi7EED2Ev@Base 1.6
 (optional=templinst)_ZN3pcl7poisson11PPolynomialILi8EE3setEPNS0_18StartingPolynomialILi8EEERKi@Base 1.6
 (optional=templinst)_ZN3pcl7poisson11PPolynomialILi8EED1Ev@Base 1.6
 (optional=templinst)_ZN3pcl7poisson11PPolynomialILi8EED2Ev@Base 1.6
 (optional=templinst)_ZN3pcl7poisson11PPolynomialILi9EE3setEPNS0_18StartingPolynomialILi9EEERKi@Base 1.6
 (optional=templinst)_ZN3pcl7poisson11PPolynomialILi9EED1Ev@Base 1.6
 (optional=templinst)_ZN3pcl7poisson11PPolynomialILi9EED2Ev@Base 1.6
 _ZN3pcl7poisson12FunctionDataILi1EfE10D_DOT_FLAGE@Base 1.6
 _ZN3pcl7poisson12FunctionDataILi1EfE10VALUE_FLAGE@Base 1.6
 _ZN3pcl7poisson12FunctionDataILi1EfE11D2_DOT_FLAGE@Base 1.6
 (optional=templinst)_ZN3pcl7poisson12FunctionDataILi1EfE12setDotTablesERKi@Base 1.6
 (optional=templinst)_ZN3pcl7poisson12FunctionDataILi1EfE14clearDotTablesERKi@Base 1.6
 (optional=templinst)_ZN3pcl7poisson12FunctionDataILi1EfE14setValueTablesERKiRKd@Base 1.6
 (optional=templinst)_ZN3pcl7poisson12FunctionDataILi1EfE14setValueTablesERKiRKdS6_@Base 1.6
 (optional=templinst)_ZN3pcl7poisson12FunctionDataILi1EfE16clearValueTablesEv@Base 1.6
 (optional=templinst)_ZN3pcl7poisson12FunctionDataILi1EfE3setERKiRKNS0_11PPolynomialILi1EEES4_S4_@Base 1.6
 (optional=templinst)_ZN3pcl7poisson12FunctionDataILi1EfED1Ev@Base 1.6
 (optional=templinst)_ZN3pcl7poisson12FunctionDataILi1EfED2Ev@Base 1.6
 _ZN3pcl7poisson12FunctionDataILi2EfE10D_DOT_FLAGE@Base 1.6
 _ZN3pcl7poisson12FunctionDataILi2EfE10VALUE_FLAGE@Base 1.6
 _ZN3pcl7poisson12FunctionDataILi2EfE11D2_DOT_FLAGE@Base 1.6
 (optional=templinst)_ZN3pcl7poisson12FunctionDataILi2EfE12setDotTablesERKi@Base 1.6
 (optional=templinst)_ZN3pcl7poisson12FunctionDataILi2EfE14clearDotTablesERKi@Base 1.6
 (optional=templinst)_ZN3pcl7poisson12FunctionDataILi2EfE14setValueTablesERKiRKd@Base 1.6
 (optional=templinst)_ZN3pcl7poisson12FunctionDataILi2EfE14setValueTablesERKiRKdS6_@Base 1.6
 (optional=templinst)_ZN3pcl7poisson12FunctionDataILi2EfE16clearValueTablesEv@Base 1.6
 (optional=templinst)_ZN3pcl7poisson12FunctionDataILi2EfE3setERKiRKNS0_11PPolynomialILi2EEES4_S4_@Base 1.6
 (optional=templinst)_ZN3pcl7poisson12FunctionDataILi2EfED1Ev@Base 1.6
 (optional=templinst)_ZN3pcl7poisson12FunctionDataILi2EfED2Ev@Base 1.6
 _ZN3pcl7poisson12FunctionDataILi3EfE10D_DOT_FLAGE@Base 1.6
 _ZN3pcl7poisson12FunctionDataILi3EfE10VALUE_FLAGE@Base 1.6
 _ZN3pcl7poisson12FunctionDataILi3EfE11D2_DOT_FLAGE@Base 1.6
 (optional=templinst)_ZN3pcl7poisson12FunctionDataILi3EfE12setDotTablesERKi@Base 1.6
 (optional=templinst)_ZN3pcl7poisson12FunctionDataILi3EfE14clearDotTablesERKi@Base 1.6
 (optional=templinst)_ZN3pcl7poisson12FunctionDataILi3EfE14setValueTablesERKiRKd@Base 1.6
 (optional=templinst)_ZN3pcl7poisson12FunctionDataILi3EfE14setValueTablesERKiRKdS6_@Base 1.6
 (optional=templinst)_ZN3pcl7poisson12FunctionDataILi3EfE16clearValueTablesEv@Base 1.6
 (optional=templinst)_ZN3pcl7poisson12FunctionDataILi3EfE3setERKiRKNS0_11PPolynomialILi3EEES4_S4_@Base 1.6
 (optional=templinst)_ZN3pcl7poisson12FunctionDataILi3EfED1Ev@Base 1.6
 (optional=templinst)_ZN3pcl7poisson12FunctionDataILi3EfED2Ev@Base 1.6
 _ZN3pcl7poisson12FunctionDataILi4EfE10D_DOT_FLAGE@Base 1.6
 _ZN3pcl7poisson12FunctionDataILi4EfE10VALUE_FLAGE@Base 1.6
 _ZN3pcl7poisson12FunctionDataILi4EfE11D2_DOT_FLAGE@Base 1.6
 (optional=templinst)_ZN3pcl7poisson12FunctionDataILi4EfE12setDotTablesERKi@Base 1.6
 (optional=templinst)_ZN3pcl7poisson12FunctionDataILi4EfE14clearDotTablesERKi@Base 1.6
 (optional=templinst)_ZN3pcl7poisson12FunctionDataILi4EfE14setValueTablesERKiRKd@Base 1.6
 (optional=templinst)_ZN3pcl7poisson12FunctionDataILi4EfE14setValueTablesERKiRKdS6_@Base 1.6
 (optional=templinst)_ZN3pcl7poisson12FunctionDataILi4EfE16clearValueTablesEv@Base 1.6
 (optional=templinst)_ZN3pcl7poisson12FunctionDataILi4EfE3setERKiRKNS0_11PPolynomialILi4EEES4_S4_@Base 1.6
 (optional=templinst)_ZN3pcl7poisson12FunctionDataILi4EfED1Ev@Base 1.6
 (optional=templinst)_ZN3pcl7poisson12FunctionDataILi4EfED2Ev@Base 1.6
 _ZN3pcl7poisson12FunctionDataILi5EfE10D_DOT_FLAGE@Base 1.6
 _ZN3pcl7poisson12FunctionDataILi5EfE10VALUE_FLAGE@Base 1.6
 _ZN3pcl7poisson12FunctionDataILi5EfE11D2_DOT_FLAGE@Base 1.6
 (optional=templinst)_ZN3pcl7poisson12FunctionDataILi5EfE12setDotTablesERKi@Base 1.6
 (optional=templinst)_ZN3pcl7poisson12FunctionDataILi5EfE14clearDotTablesERKi@Base 1.6
 (optional=templinst)_ZN3pcl7poisson12FunctionDataILi5EfE14setValueTablesERKiRKd@Base 1.6
 (optional=templinst)_ZN3pcl7poisson12FunctionDataILi5EfE14setValueTablesERKiRKdS6_@Base 1.6
 (optional=templinst)_ZN3pcl7poisson12FunctionDataILi5EfE16clearValueTablesEv@Base 1.6
 (optional=templinst)_ZN3pcl7poisson12FunctionDataILi5EfE3setERKiRKNS0_11PPolynomialILi5EEES4_S4_@Base 1.6
 (optional=templinst)_ZN3pcl7poisson12FunctionDataILi5EfED1Ev@Base 1.6
 (optional=templinst)_ZN3pcl7poisson12FunctionDataILi5EfED2Ev@Base 1.6
 (optional=templinst)_ZN3pcl7poisson12SparseMatrixIfE10SetRowSizeEii@Base 1.6
 (optional=templinst)_ZN3pcl7poisson12SparseMatrixIfE12SetAllocatorERKi@Base 1.6
 _ZN3pcl7poisson12SparseMatrixIfE20AllocatorMatrixEntryE@Base 1.6
 (optional=templinst)_ZN3pcl7poisson12SparseMatrixIfE6ResizeEi@Base 1.6
 _ZN3pcl7poisson12SparseMatrixIfE8UseAllocE@Base 1.6
 (optional=templinst)_ZN3pcl7poisson12SparseMatrixIfED0Ev@Base 1.6
 (optional=templinst)_ZN3pcl7poisson12SparseMatrixIfED1Ev@Base 1.6
 (optional=templinst)_ZN3pcl7poisson12SparseMatrixIfED2Ev@Base 1.6
 _ZN3pcl7poisson12TreeNodeData8UseIndexE@Base 1.6
 _ZN3pcl7poisson12TreeNodeDataC1Ev@Base 1.6
 _ZN3pcl7poisson12TreeNodeDataC2Ev@Base 1.6
 _ZN3pcl7poisson12TreeNodeDataD1Ev@Base 1.6
 _ZN3pcl7poisson12TreeNodeDataD2Ev@Base 1.6
 _ZN3pcl7poisson13CoredMeshDataD0Ev@Base 1.6
 _ZN3pcl7poisson13CoredMeshDataD1Ev@Base 1.6
 _ZN3pcl7poisson13CoredMeshDataD2Ev@Base 1.6
 _ZN3pcl7poisson13MarchingCubes10vertexListE@Base 1.6
 _ZN3pcl7poisson13MarchingCubes11InterpolateERKdS3_@Base 1.6
 _ZN3pcl7poisson13MarchingCubes11InterpolateERKfS3_@Base 1.6
 _ZN3pcl7poisson13MarchingCubes11IsAmbiguousEPKdRS2_RKi@Base 1.6
 _ZN3pcl7poisson13MarchingCubes11IsAmbiguousEPKfRS2_RKi@Base 1.6
 _ZN3pcl7poisson13MarchingCubes11IsAmbiguousERKiS3_@Base 1.6
 _ZN3pcl7poisson13MarchingCubes12AddTrianglesEPKdRS2_PNS0_8TriangleE@Base 1.6
 _ZN3pcl7poisson13MarchingCubes12AddTrianglesEPKfRS2_PNS0_8TriangleE@Base 1.6
 _ZN3pcl7poisson13MarchingCubes12GetFaceIndexEPKdRS2_RKi@Base 1.6
 _ZN3pcl7poisson13MarchingCubes12GetFaceIndexEPKfRS2_RKi@Base 1.6
 _ZN3pcl7poisson13MarchingCubes12GetFaceIndexERKiS3_@Base 1.6
 _ZN3pcl7poisson13MarchingCubes12HasEdgeRootsERKiS3_@Base 1.6
 _ZN3pcl7poisson13MarchingCubes12HasFaceRootsERKiS3_@Base 1.6
 _ZN3pcl7poisson13MarchingCubes18AddTriangleIndicesEPKdRS2_Pi@Base 1.6
 _ZN3pcl7poisson13MarchingCubes18AddTriangleIndicesEPKfRS2_Pi@Base 1.6
 _ZN3pcl7poisson13MarchingCubes18AddTriangleIndicesERKiPi@Base 1.6
 _ZN3pcl7poisson13MarchingCubes8GetIndexEPKdRS2_@Base 1.6
 _ZN3pcl7poisson13MarchingCubes8GetIndexEPKfRS2_@Base 1.6
 _ZN3pcl7poisson13MarchingCubes8HasRootsEPKdRS2_@Base 1.6
 _ZN3pcl7poisson13MarchingCubes8HasRootsEPKdRS2_RKi@Base 1.6
 _ZN3pcl7poisson13MarchingCubes8HasRootsEPKfRS2_@Base 1.6
 _ZN3pcl7poisson13MarchingCubes8HasRootsEPKfRS2_RKi@Base 1.6
 _ZN3pcl7poisson13MarchingCubes8HasRootsERKi@Base 1.6
 _ZN3pcl7poisson13MarchingCubes8edgeMaskE@Base 1.6
 _ZN3pcl7poisson13MarchingCubes9SetVertexERKiPKdRS4_@Base 1.6
 _ZN3pcl7poisson13MarchingCubes9SetVertexERKiPKfRS4_@Base 1.6
 _ZN3pcl7poisson13MarchingCubes9cornerMapE@Base 1.6
 _ZN3pcl7poisson13MarchingCubes9trianglesE@Base 1.6
 (optional=templinst)_ZN3pcl7poisson13TriangulationIfE11addTriangleERKiS4_S4_@Base 1.6
 (optional=templinst)_ZN3pcl7poisson13TriangulationIfE12flipMinimizeERKi@Base 1.6
 (optional=templinst)_ZN3pcl7poisson13TriangulationIfE4areaERKiS4_S4_@Base 1.6
 (optional=templinst)_ZN3pcl7poisson13TriangulationIfE6factorERKiRiS5_S5_@Base 1.6
 (optional=templinst)_ZN3pcl7poisson13TriangulationIfEC1Ev@Base 1.6
 (optional=templinst)_ZN3pcl7poisson13TriangulationIfEC2Ev@Base 1.6
 (optional=templinst)_ZN3pcl7poisson13TriangulationIfED1Ev@Base 1.6
 (optional=templinst)_ZN3pcl7poisson13TriangulationIfED2Ev@Base 1.6
 _ZN3pcl7poisson15MarchingSquares10vertexListE@Base 1.6
 _ZN3pcl7poisson15MarchingSquares11InterpolateERKdS3_@Base 1.6
 _ZN3pcl7poisson15MarchingSquares11IsAmbiguousEPKdRS2_@Base 1.6
 _ZN3pcl7poisson15MarchingSquares14AddEdgeIndicesEPKdRS2_Pi@Base 1.6
 _ZN3pcl7poisson15MarchingSquares5edgesE@Base 1.6
 _ZN3pcl7poisson15MarchingSquares8AddEdgesEPKdRS2_PNS0_4EdgeE@Base 1.6
 _ZN3pcl7poisson15MarchingSquares8GetIndexEPKdRS2_@Base 1.6
 _ZN3pcl7poisson15MarchingSquares8edgeMaskE@Base 1.6
 _ZN3pcl7poisson15MarchingSquares9SetVertexERKiPKdRS4_@Base 1.6
 _ZN3pcl7poisson15SortedTreeNodes3setERNS0_7OctNodeINS0_12TreeNodeDataEfEERKi@Base 1.6
 _ZN3pcl7poisson15SortedTreeNodesC1Ev@Base 1.6
 _ZN3pcl7poisson15SortedTreeNodesC2Ev@Base 1.6
 _ZN3pcl7poisson15SortedTreeNodesD1Ev@Base 1.6
 _ZN3pcl7poisson15SortedTreeNodesD2Ev@Base 1.6
 _ZN3pcl7poisson17TriangulationEdgeC1Ev@Base 1.6
 _ZN3pcl7poisson17TriangulationEdgeC2Ev@Base 1.6
 (optional=templinst)_ZN3pcl7poisson18StartingPolynomialILi0EE7CompareEPKvS4_@Base 1.6
 (optional=templinst)_ZN3pcl7poisson18StartingPolynomialILi10EE7CompareEPKvS4_@Base 1.6
 (optional=templinst)_ZN3pcl7poisson18StartingPolynomialILi1EE7CompareEPKvS4_@Base 1.6
 (optional=templinst)_ZN3pcl7poisson18StartingPolynomialILi2EE7CompareEPKvS4_@Base 1.6
 (optional=templinst)_ZN3pcl7poisson18StartingPolynomialILi3EE7CompareEPKvS4_@Base 1.6
 (optional=templinst)_ZN3pcl7poisson18StartingPolynomialILi4EE7CompareEPKvS4_@Base 1.6
 (optional=templinst)_ZN3pcl7poisson18StartingPolynomialILi5EE7CompareEPKvS4_@Base 1.6
 (optional=templinst)_ZN3pcl7poisson18StartingPolynomialILi6EE7CompareEPKvS4_@Base 1.6
 (optional=templinst)_ZN3pcl7poisson18StartingPolynomialILi7EE7CompareEPKvS4_@Base 1.6
 (optional=templinst)_ZN3pcl7poisson18StartingPolynomialILi8EE7CompareEPKvS4_@Base 1.6
 (optional=templinst)_ZN3pcl7poisson18StartingPolynomialILi9EE7CompareEPKvS4_@Base 1.6
 _ZN3pcl7poisson19CoredVectorMeshData10addPolygonERKSt6vectorINS0_16CoredVertexIndexESaIS3_EE@Base 1.6
 _ZN3pcl7poisson19CoredVectorMeshData11nextPolygonERSt6vectorINS0_16CoredVertexIndexESaIS3_EE@Base 1.6
 _ZN3pcl7poisson19CoredVectorMeshData12polygonCountEv@Base 1.6
 _ZN3pcl7poisson19CoredVectorMeshData13resetIteratorEv@Base 1.6
 _ZN3pcl7poisson19CoredVectorMeshData17addOutOfCorePointERKNS0_7Point3DIfEE@Base 1.6
 _ZN3pcl7poisson19CoredVectorMeshData18nextOutOfCorePointERNS0_7Point3DIfEE@Base 1.6
 _ZN3pcl7poisson19CoredVectorMeshData19outOfCorePointCountEv@Base 1.6
 _ZN3pcl7poisson19CoredVectorMeshDataC1Ev@Base 1.6
 _ZN3pcl7poisson19CoredVectorMeshDataC2Ev@Base 1.6
 _ZN3pcl7poisson19CoredVectorMeshDataD0Ev@Base 1.6
 _ZN3pcl7poisson19CoredVectorMeshDataD1Ev@Base 1.6
 _ZN3pcl7poisson19CoredVectorMeshDataD2Ev@Base 1.6
 (optional=templinst)_ZN3pcl7poisson21SparseSymmetricMatrixIfE5SolveIdEEiRKS2_RKNS0_6VectorIT_EERKiRS8_S7_SC_@Base 1.6
 (optional=templinst)_ZN3pcl7poisson21SparseSymmetricMatrixIfED0Ev@Base 1.6
 (optional=templinst)_ZN3pcl7poisson21SparseSymmetricMatrixIfED1Ev@Base 1.6
 (optional=templinst)_ZN3pcl7poisson21SparseSymmetricMatrixIfED2Ev@Base 1.6
 _ZN3pcl7poisson21TriangulationTriangleC1Ev@Base 1.6
 _ZN3pcl7poisson21TriangulationTriangleC2Ev@Base 1.6
 _ZN3pcl7poisson3AddEPKdS2_Pd@Base 1.6
 _ZN3pcl7poisson4Cube11CornerIndexERKiS3_S3_@Base 1.6
 _ZN3pcl7poisson4Cube11EdgeCornersERKiRiS4_@Base 1.6
 _ZN3pcl7poisson4Cube11FaceCornersERKiRiS4_S4_S4_@Base 1.6
 _ZN3pcl7poisson4Cube15FactorEdgeIndexERKiRiS4_S4_@Base 1.6
 _ZN3pcl7poisson4Cube15FactorFaceIndexERKiRiS4_@Base 1.6
 _ZN3pcl7poisson4Cube15FactorFaceIndexERKiRiS4_S4_@Base 1.6
 _ZN3pcl7poisson4Cube17FactorCornerIndexERKiRiS4_S4_@Base 1.6
 _ZN3pcl7poisson4Cube19FaceAdjacentToEdgesERKiS3_@Base 1.6
 _ZN3pcl7poisson4Cube19FacesAdjacentToEdgeERKiRiS4_@Base 1.6
 _ZN3pcl7poisson4Cube20AntipodalCornerIndexERKi@Base 1.6
 _ZN3pcl7poisson4Cube20EdgeReflectEdgeIndexERKi@Base 1.6
 _ZN3pcl7poisson4Cube20FaceReflectEdgeIndexERKiS3_@Base 1.6
 _ZN3pcl7poisson4Cube20FaceReflectFaceIndexERKiS3_@Base 1.6
 _ZN3pcl7poisson4Cube22EdgeReflectCornerIndexERKiS3_@Base 1.6
 _ZN3pcl7poisson4Cube22FaceReflectCornerIndexERKiS3_@Base 1.6
 _ZN3pcl7poisson4Cube9EdgeIndexERKiS3_S3_@Base 1.6
 _ZN3pcl7poisson4Cube9FaceIndexERKiS3_@Base 1.6
 _ZN3pcl7poisson4Cube9FaceIndexERKiS3_S3_@Base 1.6
 _ZN3pcl7poisson4SqrtEPKdPd@Base 1.6
 _ZN3pcl7poisson5AngleEPKd@Base 1.6
 _ZN3pcl7poisson5SolveEPKdS2_PdRKi@Base 1.6
 _ZN3pcl7poisson6DivideEPKdS2_Pd@Base 1.6
 _ZN3pcl7poisson6FactorEddPA2_dRKd@Base 1.6
 _ZN3pcl7poisson6FactorEdddPA2_dRKd@Base 1.6
 _ZN3pcl7poisson6FactorEddddPA2_dRKd@Base 1.6
 _ZN3pcl7poisson6FactorEdddddPA2_dRKd@Base 1.6
 (optional=templinst)_ZN3pcl7poisson6LengthIfEEdRKNS0_7Point3DIT_EE@Base 1.6
 (optional=templinst)_ZN3pcl7poisson6OctreeILi1EE11GetIsoValueEv@Base 1.6
 (optional=templinst)_ZN3pcl7poisson6OctreeILi1EE11GetRootPairERKNS0_8RootInfoERKiRS3_@Base 1.6
 (optional=templinst)_ZN3pcl7poisson6OctreeILi1EE11PreValidateEPNS0_7OctNodeINS0_12TreeNodeDataEfEERKfRKiSA_@Base 1.6
 (optional=templinst)_ZN3pcl7poisson6OctreeILi1EE12AddTrianglesEPNS0_13CoredMeshDataERSt6vectorINS0_15CoredPointIndexESaIS6_EEPS5_INS0_7Point3DIfEESaISB_EERKibb@Base 1.6
 (optional=templinst)_ZN3pcl7poisson6OctreeILi1EE12GetEdgeLoopsERSt6vectorISt4pairIxxESaIS5_EERS3_IS7_SaIS7_EE@Base 1.6
 (optional=templinst)_ZN3pcl7poisson6OctreeILi1EE12GetRootIndexEPKNS0_7OctNodeINS0_12TreeNodeDataEfEERKiS9_RNS0_8RootInfoE@Base 1.6
 (optional=templinst)_ZN3pcl7poisson6OctreeILi1EE13EdgeRootCountEPKNS0_7OctNodeINS0_12TreeNodeDataEfEERKiS9_@Base 1.6
 (optional=templinst)_ZN3pcl7poisson6OctreeILi1EE13GetMCIsoEdgesEPNS0_7OctNodeINS0_12TreeNodeDataEfEERN9__gnu_cxx8hash_mapIxiNS7_4hashIxEESt8equal_toIxESaIiEEEPSE_RKiRSt6vectorISt4pairIxxESaISL_EE@Base 1.6
 (optional=templinst)_ZN3pcl7poisson6OctreeILi1EE14IsBoundaryFaceEPKNS0_7OctNodeINS0_12TreeNodeDataEfEERKiS9_@Base 1.6
 (optional=templinst)_ZN3pcl7poisson6OctreeILi1EE14getCenterValueEPKNS0_7OctNodeINS0_12TreeNodeDataEfEE@Base 1.6
 (optional=templinst)_ZN3pcl7poisson6OctreeILi1EE14getCornerValueEPKNS0_7OctNodeINS0_12TreeNodeDataEfEERKi@Base 1.6
 _ZN3pcl7poisson6OctreeILi1EE14maxMemoryUsageE@Base 1.6
 (optional=templinst)_ZN3pcl7poisson6OctreeILi1EE15setFunctionDataERKNS0_11PPolynomialILi1EEERKiS8_RKf@Base 1.6
 (optional=templinst)_ZN3pcl7poisson6OctreeILi1EE17FaceEdgesFunction8FunctionEPKNS0_7OctNodeINS0_12TreeNodeDataEfEES8_@Base 1.6
 (optional=templinst)_ZN3pcl7poisson6OctreeILi1EE17GetMCIsoTrianglesEPNS0_7OctNodeINS0_12TreeNodeDataEfEEPNS0_13CoredMeshDataERN9__gnu_cxx8hash_mapIxiNS9_4hashIxEESt8equal_toIxESaIiEEEPSG_PSt6vectorINS0_7Point3DIfEESaISL_EERKiSQ_bb@Base 1.6
 (optional=templinst)_ZN3pcl7poisson6OctreeILi1EE17GetMCIsoTrianglesERKfPNS0_13CoredMeshDataERKiS8_bb@Base 1.6
 (optional=templinst)_ZN3pcl7poisson6OctreeILi1EE17GetMCIsoTrianglesERKfRKiPNS0_13CoredMeshDataES6_S6_bb@Base 1.6
 (optional=templinst)_ZN3pcl7poisson6OctreeILi1EE18DivergenceFunction8FunctionEPNS0_7OctNodeINS0_12TreeNodeDataEfEEPKS6_@Base 1.6
 (optional=templinst)_ZN3pcl7poisson6OctreeILi1EE18SetMCRootPositionsEPNS0_7OctNodeINS0_12TreeNodeDataEfEERKiRKfRN9__gnu_cxx8hash_mapIxiNSB_4hashIxEESt8equal_toIxESaIiEEEPSI_RNSC_IxSt4pairIfNS0_7Point3DIfEEESE_SG_SaISO_EEEPSQ_PSt6vectorISN_SaISN_EEPNS0_13CoredMeshDataES8_@Base 1.6
 (optional=templinst)_ZN3pcl7poisson6OctreeILi1EE19SetLaplacianWeightsEv@Base 1.6
 (optional=templinst)_ZN3pcl7poisson6OctreeILi1EE20SetIsoSurfaceCornersERKfRKiS6_@Base 1.6
 (optional=templinst)_ZN3pcl7poisson6OctreeILi1EE21InteriorFaceRootCountEPKNS0_7OctNodeINS0_12TreeNodeDataEfEERKiS9_@Base 1.6
 (optional=templinst)_ZN3pcl7poisson6OctreeILi1EE21SolveFixedDepthMatrixERKiRKNS0_15SortedTreeNodesE@Base 1.6
 (optional=templinst)_ZN3pcl7poisson6OctreeILi1EE21SolveFixedDepthMatrixERKiS4_RKNS0_15SortedTreeNodesE@Base 1.6
 (optional=templinst)_ZN3pcl7poisson6OctreeILi1EE22GetFixedDepthLaplacianERNS0_21SparseSymmetricMatrixIfEERKiRKNS0_15SortedTreeNodesE@Base 1.6
 (optional=templinst)_ZN3pcl7poisson6OctreeILi1EE23LaplacianMatrixFunction8FunctionEPKNS0_7OctNodeINS0_12TreeNodeDataEfEES8_@Base 1.6
 (optional=templinst)_ZN3pcl7poisson6OctreeILi1EE24LaplacianMatrixIterationERKi@Base 1.6
 (optional=templinst)_ZN3pcl7poisson6OctreeILi1EE24NonLinearGetSampleWeightEPNS0_7OctNodeINS0_12TreeNodeDataEfEERKNS0_7Point3DIfEE@Base 1.6
 (optional=templinst)_ZN3pcl7poisson6OctreeILi1EE26SetBoundaryMCRootPositionsERKiRKfRN9__gnu_cxx8hash_mapIxiNS7_4hashIxEESt8equal_toIxESaIiEEERNS8_IxSt4pairIfNS0_7Point3DIfEEESA_SC_SaISJ_EEEPNS0_13CoredMeshDataES4_@Base 1.6
 (optional=templinst)_ZN3pcl7poisson6OctreeILi1EE27LaplacianProjectionFunction8FunctionEPNS0_7OctNodeINS0_12TreeNodeDataEfEEPKS6_@Base 1.6
 (optional=templinst)_ZN3pcl7poisson6OctreeILi1EE27NonLinearSplatOrientedPointEPNS0_7OctNodeINS0_12TreeNodeDataEfEERKNS0_7Point3DIfEESA_@Base 1.6
 (optional=templinst)_ZN3pcl7poisson6OctreeILi1EE27NonLinearSplatOrientedPointERKNS0_7Point3DIfEES6_RKiRKfS8_S8_@Base 1.6
 (optional=templinst)_ZN3pcl7poisson6OctreeILi1EE32GetRestrictedFixedDepthLaplacianERNS0_21SparseSymmetricMatrixIfEERKiPS6_S7_PKNS0_7OctNodeINS0_12TreeNodeDataEfEERKfRKNS0_15SortedTreeNodesE@Base 1.6
 (optional=templinst)_ZN3pcl7poisson6OctreeILi1EE32PointIndexValueAndNormalFunction8FunctionEPKNS0_7OctNodeINS0_12TreeNodeDataEfEE@Base 1.6
 (optional=templinst)_ZN3pcl7poisson6OctreeILi1EE33NonLinearUpdateWeightContributionEPNS0_7OctNodeINS0_12TreeNodeDataEfEERKNS0_7Point3DIfEERKf@Base 1.6
 (optional=templinst)_ZN3pcl7poisson6OctreeILi1EE33RestrictedLaplacianMatrixFunction8FunctionEPKNS0_7OctNodeINS0_12TreeNodeDataEfEES8_@Base 1.6
 (optional=templinst)_ZN3pcl7poisson6OctreeILi1EE7GetRootERKNS0_8RootInfoERKfRNS0_7Point3DIfEERN9__gnu_cxx8hash_mapIxSt4pairIfS9_ENSB_4hashIxEESt8equal_toIxESaISE_EEERKi@Base 1.6
 (optional=templinst)_ZN3pcl7poisson6OctreeILi1EE7setTreeINS_11PointNormalEEEiN5boost10shared_ptrIKNS_10PointCloudIT_EEEERKiSD_RKfSF_RNS0_7Point3DIfEERfSD_SD_@Base 1.6
 (optional=templinst)_ZN3pcl7poisson6OctreeILi1EE7setTreeINS_15PointXYZINormalEEEiN5boost10shared_ptrIKNS_10PointCloudIT_EEEERKiSD_RKfSF_RNS0_7Point3DIfEERfSD_SD_@Base 1.6
 (optional=templinst)_ZN3pcl7poisson6OctreeILi1EE7setTreeINS_17PointXYZRGBNormalEEEiN5boost10shared_ptrIKNS_10PointCloudIT_EEEERKiSD_RKfSF_RNS0_7Point3DIfEERfSD_SD_@Base 1.6
 (optional=templinst)_ZN3pcl7poisson6OctreeILi1EE8ClipTreeEv@Base 1.6
 (optional=templinst)_ZN3pcl7poisson6OctreeILi1EE9SubdivideEPNS0_7OctNodeINS0_12TreeNodeDataEfEERKfRKi@Base 1.6
 (optional=templinst)_ZN3pcl7poisson6OctreeILi1EE9finalize1ERKi@Base 1.6
 (optional=templinst)_ZN3pcl7poisson6OctreeILi1EE9finalize2ERKi@Base 1.6
 (optional=templinst)_ZN3pcl7poisson6OctreeILi1EEC1Ev@Base 1.6
 (optional=templinst)_ZN3pcl7poisson6OctreeILi1EEC2Ev@Base 1.6
 (optional=templinst)_ZN3pcl7poisson6OctreeILi1EED1Ev@Base 1.6
 (optional=templinst)_ZN3pcl7poisson6OctreeILi1EED2Ev@Base 1.6
 (optional=templinst)_ZN3pcl7poisson6OctreeILi2EE11GetIsoValueEv@Base 1.6
 (optional=templinst)_ZN3pcl7poisson6OctreeILi2EE11GetRootPairERKNS0_8RootInfoERKiRS3_@Base 1.6
 (optional=templinst)_ZN3pcl7poisson6OctreeILi2EE11PreValidateEPNS0_7OctNodeINS0_12TreeNodeDataEfEERKfRKiSA_@Base 1.6
 (optional=templinst)_ZN3pcl7poisson6OctreeILi2EE12AddTrianglesEPNS0_13CoredMeshDataERSt6vectorINS0_15CoredPointIndexESaIS6_EEPS5_INS0_7Point3DIfEESaISB_EERKibb@Base 1.6
 (optional=templinst)_ZN3pcl7poisson6OctreeILi2EE12GetEdgeLoopsERSt6vectorISt4pairIxxESaIS5_EERS3_IS7_SaIS7_EE@Base 1.6
 (optional=templinst)_ZN3pcl7poisson6OctreeILi2EE12GetRootIndexEPKNS0_7OctNodeINS0_12TreeNodeDataEfEERKiS9_RNS0_8RootInfoE@Base 1.6
 (optional=templinst)_ZN3pcl7poisson6OctreeILi2EE13EdgeRootCountEPKNS0_7OctNodeINS0_12TreeNodeDataEfEERKiS9_@Base 1.6
 (optional=templinst)_ZN3pcl7poisson6OctreeILi2EE13GetMCIsoEdgesEPNS0_7OctNodeINS0_12TreeNodeDataEfEERN9__gnu_cxx8hash_mapIxiNS7_4hashIxEESt8equal_toIxESaIiEEEPSE_RKiRSt6vectorISt4pairIxxESaISL_EE@Base 1.6
 (optional=templinst)_ZN3pcl7poisson6OctreeILi2EE14IsBoundaryFaceEPKNS0_7OctNodeINS0_12TreeNodeDataEfEERKiS9_@Base 1.6
 (optional=templinst)_ZN3pcl7poisson6OctreeILi2EE14getCenterValueEPKNS0_7OctNodeINS0_12TreeNodeDataEfEE@Base 1.6
 (optional=templinst)_ZN3pcl7poisson6OctreeILi2EE14getCornerValueEPKNS0_7OctNodeINS0_12TreeNodeDataEfEERKi@Base 1.6
 _ZN3pcl7poisson6OctreeILi2EE14maxMemoryUsageE@Base 1.6
 (optional=templinst)_ZN3pcl7poisson6OctreeILi2EE15setFunctionDataERKNS0_11PPolynomialILi2EEERKiS8_RKf@Base 1.6
 (optional=templinst)_ZN3pcl7poisson6OctreeILi2EE17FaceEdgesFunction8FunctionEPKNS0_7OctNodeINS0_12TreeNodeDataEfEES8_@Base 1.6
 (optional=templinst)_ZN3pcl7poisson6OctreeILi2EE17GetMCIsoTrianglesEPNS0_7OctNodeINS0_12TreeNodeDataEfEEPNS0_13CoredMeshDataERN9__gnu_cxx8hash_mapIxiNS9_4hashIxEESt8equal_toIxESaIiEEEPSG_PSt6vectorINS0_7Point3DIfEESaISL_EERKiSQ_bb@Base 1.6
 (optional=templinst)_ZN3pcl7poisson6OctreeILi2EE17GetMCIsoTrianglesERKfPNS0_13CoredMeshDataERKiS8_bb@Base 1.6
 (optional=templinst)_ZN3pcl7poisson6OctreeILi2EE17GetMCIsoTrianglesERKfRKiPNS0_13CoredMeshDataES6_S6_bb@Base 1.6
 (optional=templinst)_ZN3pcl7poisson6OctreeILi2EE18DivergenceFunction8FunctionEPNS0_7OctNodeINS0_12TreeNodeDataEfEEPKS6_@Base 1.6
 (optional=templinst)_ZN3pcl7poisson6OctreeILi2EE18SetMCRootPositionsEPNS0_7OctNodeINS0_12TreeNodeDataEfEERKiRKfRN9__gnu_cxx8hash_mapIxiNSB_4hashIxEESt8equal_toIxESaIiEEEPSI_RNSC_IxSt4pairIfNS0_7Point3DIfEEESE_SG_SaISO_EEEPSQ_PSt6vectorISN_SaISN_EEPNS0_13CoredMeshDataES8_@Base 1.6
 (optional=templinst)_ZN3pcl7poisson6OctreeILi2EE19SetLaplacianWeightsEv@Base 1.6
 (optional=templinst)_ZN3pcl7poisson6OctreeILi2EE20SetIsoSurfaceCornersERKfRKiS6_@Base 1.6
 (optional=templinst)_ZN3pcl7poisson6OctreeILi2EE21InteriorFaceRootCountEPKNS0_7OctNodeINS0_12TreeNodeDataEfEERKiS9_@Base 1.6
 (optional=templinst)_ZN3pcl7poisson6OctreeILi2EE21SolveFixedDepthMatrixERKiRKNS0_15SortedTreeNodesE@Base 1.6
 (optional=templinst)_ZN3pcl7poisson6OctreeILi2EE21SolveFixedDepthMatrixERKiS4_RKNS0_15SortedTreeNodesE@Base 1.6
 (optional=templinst)_ZN3pcl7poisson6OctreeILi2EE22GetFixedDepthLaplacianERNS0_21SparseSymmetricMatrixIfEERKiRKNS0_15SortedTreeNodesE@Base 1.6
 (optional=templinst)_ZN3pcl7poisson6OctreeILi2EE23LaplacianMatrixFunction8FunctionEPKNS0_7OctNodeINS0_12TreeNodeDataEfEES8_@Base 1.6
 (optional=templinst)_ZN3pcl7poisson6OctreeILi2EE24LaplacianMatrixIterationERKi@Base 1.6
 (optional=templinst)_ZN3pcl7poisson6OctreeILi2EE24NonLinearGetSampleWeightEPNS0_7OctNodeINS0_12TreeNodeDataEfEERKNS0_7Point3DIfEE@Base 1.6
 (optional=templinst)_ZN3pcl7poisson6OctreeILi2EE26SetBoundaryMCRootPositionsERKiRKfRN9__gnu_cxx8hash_mapIxiNS7_4hashIxEESt8equal_toIxESaIiEEERNS8_IxSt4pairIfNS0_7Point3DIfEEESA_SC_SaISJ_EEEPNS0_13CoredMeshDataES4_@Base 1.6
 (optional=templinst)_ZN3pcl7poisson6OctreeILi2EE27LaplacianProjectionFunction8FunctionEPNS0_7OctNodeINS0_12TreeNodeDataEfEEPKS6_@Base 1.6
 (optional=templinst)_ZN3pcl7poisson6OctreeILi2EE27NonLinearSplatOrientedPointEPNS0_7OctNodeINS0_12TreeNodeDataEfEERKNS0_7Point3DIfEESA_@Base 1.6
 (optional=templinst)_ZN3pcl7poisson6OctreeILi2EE27NonLinearSplatOrientedPointERKNS0_7Point3DIfEES6_RKiRKfS8_S8_@Base 1.6
 (optional=templinst)_ZN3pcl7poisson6OctreeILi2EE32GetRestrictedFixedDepthLaplacianERNS0_21SparseSymmetricMatrixIfEERKiPS6_S7_PKNS0_7OctNodeINS0_12TreeNodeDataEfEERKfRKNS0_15SortedTreeNodesE@Base 1.6
 (optional=templinst)_ZN3pcl7poisson6OctreeILi2EE32PointIndexValueAndNormalFunction8FunctionEPKNS0_7OctNodeINS0_12TreeNodeDataEfEE@Base 1.6
 (optional=templinst)_ZN3pcl7poisson6OctreeILi2EE33NonLinearUpdateWeightContributionEPNS0_7OctNodeINS0_12TreeNodeDataEfEERKNS0_7Point3DIfEERKf@Base 1.6
 (optional=templinst)_ZN3pcl7poisson6OctreeILi2EE33RestrictedLaplacianMatrixFunction8FunctionEPKNS0_7OctNodeINS0_12TreeNodeDataEfEES8_@Base 1.6
 (optional=templinst)_ZN3pcl7poisson6OctreeILi2EE7GetRootERKNS0_8RootInfoERKfRNS0_7Point3DIfEERN9__gnu_cxx8hash_mapIxSt4pairIfS9_ENSB_4hashIxEESt8equal_toIxESaISE_EEERKi@Base 1.6
 (optional=templinst)_ZN3pcl7poisson6OctreeILi2EE7setTreeINS_11PointNormalEEEiN5boost10shared_ptrIKNS_10PointCloudIT_EEEERKiSD_RKfSF_RNS0_7Point3DIfEERfSD_SD_@Base 1.6
 (optional=templinst)_ZN3pcl7poisson6OctreeILi2EE7setTreeINS_15PointXYZINormalEEEiN5boost10shared_ptrIKNS_10PointCloudIT_EEEERKiSD_RKfSF_RNS0_7Point3DIfEERfSD_SD_@Base 1.6
 (optional=templinst)_ZN3pcl7poisson6OctreeILi2EE7setTreeINS_17PointXYZRGBNormalEEEiN5boost10shared_ptrIKNS_10PointCloudIT_EEEERKiSD_RKfSF_RNS0_7Point3DIfEERfSD_SD_@Base 1.6
 (optional=templinst)_ZN3pcl7poisson6OctreeILi2EE8ClipTreeEv@Base 1.6
 (optional=templinst)_ZN3pcl7poisson6OctreeILi2EE9SubdivideEPNS0_7OctNodeINS0_12TreeNodeDataEfEERKfRKi@Base 1.6
 (optional=templinst)_ZN3pcl7poisson6OctreeILi2EE9finalize1ERKi@Base 1.6
 (optional=templinst)_ZN3pcl7poisson6OctreeILi2EE9finalize2ERKi@Base 1.6
 (optional=templinst)_ZN3pcl7poisson6OctreeILi2EEC1Ev@Base 1.6
 (optional=templinst)_ZN3pcl7poisson6OctreeILi2EEC2Ev@Base 1.6
 (optional=templinst)_ZN3pcl7poisson6OctreeILi2EED1Ev@Base 1.6
 (optional=templinst)_ZN3pcl7poisson6OctreeILi2EED2Ev@Base 1.6
 (optional=templinst)_ZN3pcl7poisson6OctreeILi3EE11GetIsoValueEv@Base 1.6
 (optional=templinst)_ZN3pcl7poisson6OctreeILi3EE11GetRootPairERKNS0_8RootInfoERKiRS3_@Base 1.6
 (optional=templinst)_ZN3pcl7poisson6OctreeILi3EE11PreValidateEPNS0_7OctNodeINS0_12TreeNodeDataEfEERKfRKiSA_@Base 1.6
 (optional=templinst)_ZN3pcl7poisson6OctreeILi3EE12AddTrianglesEPNS0_13CoredMeshDataERSt6vectorINS0_15CoredPointIndexESaIS6_EEPS5_INS0_7Point3DIfEESaISB_EERKibb@Base 1.6
 (optional=templinst)_ZN3pcl7poisson6OctreeILi3EE12GetEdgeLoopsERSt6vectorISt4pairIxxESaIS5_EERS3_IS7_SaIS7_EE@Base 1.6
 (optional=templinst)_ZN3pcl7poisson6OctreeILi3EE12GetRootIndexEPKNS0_7OctNodeINS0_12TreeNodeDataEfEERKiS9_RNS0_8RootInfoE@Base 1.6
 (optional=templinst)_ZN3pcl7poisson6OctreeILi3EE13EdgeRootCountEPKNS0_7OctNodeINS0_12TreeNodeDataEfEERKiS9_@Base 1.6
 (optional=templinst)_ZN3pcl7poisson6OctreeILi3EE13GetMCIsoEdgesEPNS0_7OctNodeINS0_12TreeNodeDataEfEERN9__gnu_cxx8hash_mapIxiNS7_4hashIxEESt8equal_toIxESaIiEEEPSE_RKiRSt6vectorISt4pairIxxESaISL_EE@Base 1.6
 (optional=templinst)_ZN3pcl7poisson6OctreeILi3EE14IsBoundaryFaceEPKNS0_7OctNodeINS0_12TreeNodeDataEfEERKiS9_@Base 1.6
 (optional=templinst)_ZN3pcl7poisson6OctreeILi3EE14getCenterValueEPKNS0_7OctNodeINS0_12TreeNodeDataEfEE@Base 1.6
 (optional=templinst)_ZN3pcl7poisson6OctreeILi3EE14getCornerValueEPKNS0_7OctNodeINS0_12TreeNodeDataEfEERKi@Base 1.6
 _ZN3pcl7poisson6OctreeILi3EE14maxMemoryUsageE@Base 1.6
 (optional=templinst)_ZN3pcl7poisson6OctreeILi3EE15setFunctionDataERKNS0_11PPolynomialILi3EEERKiS8_RKf@Base 1.6
 (optional=templinst)_ZN3pcl7poisson6OctreeILi3EE17FaceEdgesFunction8FunctionEPKNS0_7OctNodeINS0_12TreeNodeDataEfEES8_@Base 1.6
 (optional=templinst)_ZN3pcl7poisson6OctreeILi3EE17GetMCIsoTrianglesEPNS0_7OctNodeINS0_12TreeNodeDataEfEEPNS0_13CoredMeshDataERN9__gnu_cxx8hash_mapIxiNS9_4hashIxEESt8equal_toIxESaIiEEEPSG_PSt6vectorINS0_7Point3DIfEESaISL_EERKiSQ_bb@Base 1.6
 (optional=templinst)_ZN3pcl7poisson6OctreeILi3EE17GetMCIsoTrianglesERKfPNS0_13CoredMeshDataERKiS8_bb@Base 1.6
 (optional=templinst)_ZN3pcl7poisson6OctreeILi3EE17GetMCIsoTrianglesERKfRKiPNS0_13CoredMeshDataES6_S6_bb@Base 1.6
 (optional=templinst)_ZN3pcl7poisson6OctreeILi3EE18DivergenceFunction8FunctionEPNS0_7OctNodeINS0_12TreeNodeDataEfEEPKS6_@Base 1.6
 (optional=templinst)_ZN3pcl7poisson6OctreeILi3EE18SetMCRootPositionsEPNS0_7OctNodeINS0_12TreeNodeDataEfEERKiRKfRN9__gnu_cxx8hash_mapIxiNSB_4hashIxEESt8equal_toIxESaIiEEEPSI_RNSC_IxSt4pairIfNS0_7Point3DIfEEESE_SG_SaISO_EEEPSQ_PSt6vectorISN_SaISN_EEPNS0_13CoredMeshDataES8_@Base 1.6
 (optional=templinst)_ZN3pcl7poisson6OctreeILi3EE19SetLaplacianWeightsEv@Base 1.6
 (optional=templinst)_ZN3pcl7poisson6OctreeILi3EE20SetIsoSurfaceCornersERKfRKiS6_@Base 1.6
 (optional=templinst)_ZN3pcl7poisson6OctreeILi3EE21InteriorFaceRootCountEPKNS0_7OctNodeINS0_12TreeNodeDataEfEERKiS9_@Base 1.6
 (optional=templinst)_ZN3pcl7poisson6OctreeILi3EE21SolveFixedDepthMatrixERKiRKNS0_15SortedTreeNodesE@Base 1.6
 (optional=templinst)_ZN3pcl7poisson6OctreeILi3EE21SolveFixedDepthMatrixERKiS4_RKNS0_15SortedTreeNodesE@Base 1.6
 (optional=templinst)_ZN3pcl7poisson6OctreeILi3EE22GetFixedDepthLaplacianERNS0_21SparseSymmetricMatrixIfEERKiRKNS0_15SortedTreeNodesE@Base 1.6
 (optional=templinst)_ZN3pcl7poisson6OctreeILi3EE23LaplacianMatrixFunction8FunctionEPKNS0_7OctNodeINS0_12TreeNodeDataEfEES8_@Base 1.6
 (optional=templinst)_ZN3pcl7poisson6OctreeILi3EE24LaplacianMatrixIterationERKi@Base 1.6
 (optional=templinst)_ZN3pcl7poisson6OctreeILi3EE24NonLinearGetSampleWeightEPNS0_7OctNodeINS0_12TreeNodeDataEfEERKNS0_7Point3DIfEE@Base 1.6
 (optional=templinst)_ZN3pcl7poisson6OctreeILi3EE26SetBoundaryMCRootPositionsERKiRKfRN9__gnu_cxx8hash_mapIxiNS7_4hashIxEESt8equal_toIxESaIiEEERNS8_IxSt4pairIfNS0_7Point3DIfEEESA_SC_SaISJ_EEEPNS0_13CoredMeshDataES4_@Base 1.6
 (optional=templinst)_ZN3pcl7poisson6OctreeILi3EE27LaplacianProjectionFunction8FunctionEPNS0_7OctNodeINS0_12TreeNodeDataEfEEPKS6_@Base 1.6
 (optional=templinst)_ZN3pcl7poisson6OctreeILi3EE27NonLinearSplatOrientedPointEPNS0_7OctNodeINS0_12TreeNodeDataEfEERKNS0_7Point3DIfEESA_@Base 1.6
 (optional=templinst)_ZN3pcl7poisson6OctreeILi3EE27NonLinearSplatOrientedPointERKNS0_7Point3DIfEES6_RKiRKfS8_S8_@Base 1.6
 (optional=templinst)_ZN3pcl7poisson6OctreeILi3EE32GetRestrictedFixedDepthLaplacianERNS0_21SparseSymmetricMatrixIfEERKiPS6_S7_PKNS0_7OctNodeINS0_12TreeNodeDataEfEERKfRKNS0_15SortedTreeNodesE@Base 1.6
 (optional=templinst)_ZN3pcl7poisson6OctreeILi3EE32PointIndexValueAndNormalFunction8FunctionEPKNS0_7OctNodeINS0_12TreeNodeDataEfEE@Base 1.6
 (optional=templinst)_ZN3pcl7poisson6OctreeILi3EE33NonLinearUpdateWeightContributionEPNS0_7OctNodeINS0_12TreeNodeDataEfEERKNS0_7Point3DIfEERKf@Base 1.6
 (optional=templinst)_ZN3pcl7poisson6OctreeILi3EE33RestrictedLaplacianMatrixFunction8FunctionEPKNS0_7OctNodeINS0_12TreeNodeDataEfEES8_@Base 1.6
 (optional=templinst)_ZN3pcl7poisson6OctreeILi3EE7GetRootERKNS0_8RootInfoERKfRNS0_7Point3DIfEERN9__gnu_cxx8hash_mapIxSt4pairIfS9_ENSB_4hashIxEESt8equal_toIxESaISE_EEERKi@Base 1.6
 (optional=templinst)_ZN3pcl7poisson6OctreeILi3EE7setTreeINS_11PointNormalEEEiN5boost10shared_ptrIKNS_10PointCloudIT_EEEERKiSD_RKfSF_RNS0_7Point3DIfEERfSD_SD_@Base 1.6
 (optional=templinst)_ZN3pcl7poisson6OctreeILi3EE7setTreeINS_15PointXYZINormalEEEiN5boost10shared_ptrIKNS_10PointCloudIT_EEEERKiSD_RKfSF_RNS0_7Point3DIfEERfSD_SD_@Base 1.6
 (optional=templinst)_ZN3pcl7poisson6OctreeILi3EE7setTreeINS_17PointXYZRGBNormalEEEiN5boost10shared_ptrIKNS_10PointCloudIT_EEEERKiSD_RKfSF_RNS0_7Point3DIfEERfSD_SD_@Base 1.6
 (optional=templinst)_ZN3pcl7poisson6OctreeILi3EE8ClipTreeEv@Base 1.6
 (optional=templinst)_ZN3pcl7poisson6OctreeILi3EE9SubdivideEPNS0_7OctNodeINS0_12TreeNodeDataEfEERKfRKi@Base 1.6
 (optional=templinst)_ZN3pcl7poisson6OctreeILi3EE9finalize1ERKi@Base 1.6
 (optional=templinst)_ZN3pcl7poisson6OctreeILi3EE9finalize2ERKi@Base 1.6
 (optional=templinst)_ZN3pcl7poisson6OctreeILi3EEC1Ev@Base 1.6
 (optional=templinst)_ZN3pcl7poisson6OctreeILi3EEC2Ev@Base 1.6
 (optional=templinst)_ZN3pcl7poisson6OctreeILi3EED1Ev@Base 1.6
 (optional=templinst)_ZN3pcl7poisson6OctreeILi3EED2Ev@Base 1.6
 (optional=templinst)_ZN3pcl7poisson6OctreeILi4EE11GetIsoValueEv@Base 1.6
 (optional=templinst)_ZN3pcl7poisson6OctreeILi4EE11GetRootPairERKNS0_8RootInfoERKiRS3_@Base 1.6
 (optional=templinst)_ZN3pcl7poisson6OctreeILi4EE11PreValidateEPNS0_7OctNodeINS0_12TreeNodeDataEfEERKfRKiSA_@Base 1.6
 (optional=templinst)_ZN3pcl7poisson6OctreeILi4EE12AddTrianglesEPNS0_13CoredMeshDataERSt6vectorINS0_15CoredPointIndexESaIS6_EEPS5_INS0_7Point3DIfEESaISB_EERKibb@Base 1.6
 (optional=templinst)_ZN3pcl7poisson6OctreeILi4EE12GetEdgeLoopsERSt6vectorISt4pairIxxESaIS5_EERS3_IS7_SaIS7_EE@Base 1.6
 (optional=templinst)_ZN3pcl7poisson6OctreeILi4EE12GetRootIndexEPKNS0_7OctNodeINS0_12TreeNodeDataEfEERKiS9_RNS0_8RootInfoE@Base 1.6
 (optional=templinst)_ZN3pcl7poisson6OctreeILi4EE13EdgeRootCountEPKNS0_7OctNodeINS0_12TreeNodeDataEfEERKiS9_@Base 1.6
 (optional=templinst)_ZN3pcl7poisson6OctreeILi4EE13GetMCIsoEdgesEPNS0_7OctNodeINS0_12TreeNodeDataEfEERN9__gnu_cxx8hash_mapIxiNS7_4hashIxEESt8equal_toIxESaIiEEEPSE_RKiRSt6vectorISt4pairIxxESaISL_EE@Base 1.6
 (optional=templinst)_ZN3pcl7poisson6OctreeILi4EE14IsBoundaryFaceEPKNS0_7OctNodeINS0_12TreeNodeDataEfEERKiS9_@Base 1.6
 (optional=templinst)_ZN3pcl7poisson6OctreeILi4EE14getCenterValueEPKNS0_7OctNodeINS0_12TreeNodeDataEfEE@Base 1.6
 (optional=templinst)_ZN3pcl7poisson6OctreeILi4EE14getCornerValueEPKNS0_7OctNodeINS0_12TreeNodeDataEfEERKi@Base 1.6
 _ZN3pcl7poisson6OctreeILi4EE14maxMemoryUsageE@Base 1.6
 (optional=templinst)_ZN3pcl7poisson6OctreeILi4EE15setFunctionDataERKNS0_11PPolynomialILi4EEERKiS8_RKf@Base 1.6
 (optional=templinst)_ZN3pcl7poisson6OctreeILi4EE17FaceEdgesFunction8FunctionEPKNS0_7OctNodeINS0_12TreeNodeDataEfEES8_@Base 1.6
 (optional=templinst)_ZN3pcl7poisson6OctreeILi4EE17GetMCIsoTrianglesEPNS0_7OctNodeINS0_12TreeNodeDataEfEEPNS0_13CoredMeshDataERN9__gnu_cxx8hash_mapIxiNS9_4hashIxEESt8equal_toIxESaIiEEEPSG_PSt6vectorINS0_7Point3DIfEESaISL_EERKiSQ_bb@Base 1.6
 (optional=templinst)_ZN3pcl7poisson6OctreeILi4EE17GetMCIsoTrianglesERKfPNS0_13CoredMeshDataERKiS8_bb@Base 1.6
 (optional=templinst)_ZN3pcl7poisson6OctreeILi4EE17GetMCIsoTrianglesERKfRKiPNS0_13CoredMeshDataES6_S6_bb@Base 1.6
 (optional=templinst)_ZN3pcl7poisson6OctreeILi4EE18DivergenceFunction8FunctionEPNS0_7OctNodeINS0_12TreeNodeDataEfEEPKS6_@Base 1.6
 (optional=templinst)_ZN3pcl7poisson6OctreeILi4EE18SetMCRootPositionsEPNS0_7OctNodeINS0_12TreeNodeDataEfEERKiRKfRN9__gnu_cxx8hash_mapIxiNSB_4hashIxEESt8equal_toIxESaIiEEEPSI_RNSC_IxSt4pairIfNS0_7Point3DIfEEESE_SG_SaISO_EEEPSQ_PSt6vectorISN_SaISN_EEPNS0_13CoredMeshDataES8_@Base 1.6
 (optional=templinst)_ZN3pcl7poisson6OctreeILi4EE19SetLaplacianWeightsEv@Base 1.6
 (optional=templinst)_ZN3pcl7poisson6OctreeILi4EE20SetIsoSurfaceCornersERKfRKiS6_@Base 1.6
 (optional=templinst)_ZN3pcl7poisson6OctreeILi4EE21InteriorFaceRootCountEPKNS0_7OctNodeINS0_12TreeNodeDataEfEERKiS9_@Base 1.6
 (optional=templinst)_ZN3pcl7poisson6OctreeILi4EE21SolveFixedDepthMatrixERKiRKNS0_15SortedTreeNodesE@Base 1.6
 (optional=templinst)_ZN3pcl7poisson6OctreeILi4EE21SolveFixedDepthMatrixERKiS4_RKNS0_15SortedTreeNodesE@Base 1.6
 (optional=templinst)_ZN3pcl7poisson6OctreeILi4EE22GetFixedDepthLaplacianERNS0_21SparseSymmetricMatrixIfEERKiRKNS0_15SortedTreeNodesE@Base 1.6
 (optional=templinst)_ZN3pcl7poisson6OctreeILi4EE23LaplacianMatrixFunction8FunctionEPKNS0_7OctNodeINS0_12TreeNodeDataEfEES8_@Base 1.6
 (optional=templinst)_ZN3pcl7poisson6OctreeILi4EE24LaplacianMatrixIterationERKi@Base 1.6
 (optional=templinst)_ZN3pcl7poisson6OctreeILi4EE24NonLinearGetSampleWeightEPNS0_7OctNodeINS0_12TreeNodeDataEfEERKNS0_7Point3DIfEE@Base 1.6
 (optional=templinst)_ZN3pcl7poisson6OctreeILi4EE26SetBoundaryMCRootPositionsERKiRKfRN9__gnu_cxx8hash_mapIxiNS7_4hashIxEESt8equal_toIxESaIiEEERNS8_IxSt4pairIfNS0_7Point3DIfEEESA_SC_SaISJ_EEEPNS0_13CoredMeshDataES4_@Base 1.6
 (optional=templinst)_ZN3pcl7poisson6OctreeILi4EE27LaplacianProjectionFunction8FunctionEPNS0_7OctNodeINS0_12TreeNodeDataEfEEPKS6_@Base 1.6
 (optional=templinst)_ZN3pcl7poisson6OctreeILi4EE27NonLinearSplatOrientedPointEPNS0_7OctNodeINS0_12TreeNodeDataEfEERKNS0_7Point3DIfEESA_@Base 1.6
 (optional=templinst)_ZN3pcl7poisson6OctreeILi4EE27NonLinearSplatOrientedPointERKNS0_7Point3DIfEES6_RKiRKfS8_S8_@Base 1.6
 (optional=templinst)_ZN3pcl7poisson6OctreeILi4EE32GetRestrictedFixedDepthLaplacianERNS0_21SparseSymmetricMatrixIfEERKiPS6_S7_PKNS0_7OctNodeINS0_12TreeNodeDataEfEERKfRKNS0_15SortedTreeNodesE@Base 1.6
 (optional=templinst)_ZN3pcl7poisson6OctreeILi4EE32PointIndexValueAndNormalFunction8FunctionEPKNS0_7OctNodeINS0_12TreeNodeDataEfEE@Base 1.6
 (optional=templinst)_ZN3pcl7poisson6OctreeILi4EE33NonLinearUpdateWeightContributionEPNS0_7OctNodeINS0_12TreeNodeDataEfEERKNS0_7Point3DIfEERKf@Base 1.6
 (optional=templinst)_ZN3pcl7poisson6OctreeILi4EE33RestrictedLaplacianMatrixFunction8FunctionEPKNS0_7OctNodeINS0_12TreeNodeDataEfEES8_@Base 1.6
 (optional=templinst)_ZN3pcl7poisson6OctreeILi4EE7GetRootERKNS0_8RootInfoERKfRNS0_7Point3DIfEERN9__gnu_cxx8hash_mapIxSt4pairIfS9_ENSB_4hashIxEESt8equal_toIxESaISE_EEERKi@Base 1.6
 (optional=templinst)_ZN3pcl7poisson6OctreeILi4EE7setTreeINS_11PointNormalEEEiN5boost10shared_ptrIKNS_10PointCloudIT_EEEERKiSD_RKfSF_RNS0_7Point3DIfEERfSD_SD_@Base 1.6
 (optional=templinst)_ZN3pcl7poisson6OctreeILi4EE7setTreeINS_15PointXYZINormalEEEiN5boost10shared_ptrIKNS_10PointCloudIT_EEEERKiSD_RKfSF_RNS0_7Point3DIfEERfSD_SD_@Base 1.6
 (optional=templinst)_ZN3pcl7poisson6OctreeILi4EE7setTreeINS_17PointXYZRGBNormalEEEiN5boost10shared_ptrIKNS_10PointCloudIT_EEEERKiSD_RKfSF_RNS0_7Point3DIfEERfSD_SD_@Base 1.6
 (optional=templinst)_ZN3pcl7poisson6OctreeILi4EE8ClipTreeEv@Base 1.6
 (optional=templinst)_ZN3pcl7poisson6OctreeILi4EE9SubdivideEPNS0_7OctNodeINS0_12TreeNodeDataEfEERKfRKi@Base 1.6
 (optional=templinst)_ZN3pcl7poisson6OctreeILi4EE9finalize1ERKi@Base 1.6
 (optional=templinst)_ZN3pcl7poisson6OctreeILi4EE9finalize2ERKi@Base 1.6
 (optional=templinst)_ZN3pcl7poisson6OctreeILi4EEC1Ev@Base 1.6
 (optional=templinst)_ZN3pcl7poisson6OctreeILi4EEC2Ev@Base 1.6
 (optional=templinst)_ZN3pcl7poisson6OctreeILi4EED1Ev@Base 1.6
 (optional=templinst)_ZN3pcl7poisson6OctreeILi4EED2Ev@Base 1.6
 (optional=templinst)_ZN3pcl7poisson6OctreeILi5EE11GetIsoValueEv@Base 1.6
 (optional=templinst)_ZN3pcl7poisson6OctreeILi5EE11GetRootPairERKNS0_8RootInfoERKiRS3_@Base 1.6
 (optional=templinst)_ZN3pcl7poisson6OctreeILi5EE11PreValidateEPNS0_7OctNodeINS0_12TreeNodeDataEfEERKfRKiSA_@Base 1.6
 (optional=templinst)_ZN3pcl7poisson6OctreeILi5EE12AddTrianglesEPNS0_13CoredMeshDataERSt6vectorINS0_15CoredPointIndexESaIS6_EEPS5_INS0_7Point3DIfEESaISB_EERKibb@Base 1.6
 (optional=templinst)_ZN3pcl7poisson6OctreeILi5EE12GetEdgeLoopsERSt6vectorISt4pairIxxESaIS5_EERS3_IS7_SaIS7_EE@Base 1.6
 (optional=templinst)_ZN3pcl7poisson6OctreeILi5EE12GetRootIndexEPKNS0_7OctNodeINS0_12TreeNodeDataEfEERKiS9_RNS0_8RootInfoE@Base 1.6
 (optional=templinst)_ZN3pcl7poisson6OctreeILi5EE13EdgeRootCountEPKNS0_7OctNodeINS0_12TreeNodeDataEfEERKiS9_@Base 1.6
 (optional=templinst)_ZN3pcl7poisson6OctreeILi5EE13GetMCIsoEdgesEPNS0_7OctNodeINS0_12TreeNodeDataEfEERN9__gnu_cxx8hash_mapIxiNS7_4hashIxEESt8equal_toIxESaIiEEEPSE_RKiRSt6vectorISt4pairIxxESaISL_EE@Base 1.6
 (optional=templinst)_ZN3pcl7poisson6OctreeILi5EE14IsBoundaryFaceEPKNS0_7OctNodeINS0_12TreeNodeDataEfEERKiS9_@Base 1.6
 (optional=templinst)_ZN3pcl7poisson6OctreeILi5EE14getCenterValueEPKNS0_7OctNodeINS0_12TreeNodeDataEfEE@Base 1.6
 (optional=templinst)_ZN3pcl7poisson6OctreeILi5EE14getCornerValueEPKNS0_7OctNodeINS0_12TreeNodeDataEfEERKi@Base 1.6
 _ZN3pcl7poisson6OctreeILi5EE14maxMemoryUsageE@Base 1.6
 (optional=templinst)_ZN3pcl7poisson6OctreeILi5EE15setFunctionDataERKNS0_11PPolynomialILi5EEERKiS8_RKf@Base 1.6
 (optional=templinst)_ZN3pcl7poisson6OctreeILi5EE17FaceEdgesFunction8FunctionEPKNS0_7OctNodeINS0_12TreeNodeDataEfEES8_@Base 1.6
 (optional=templinst)_ZN3pcl7poisson6OctreeILi5EE17GetMCIsoTrianglesEPNS0_7OctNodeINS0_12TreeNodeDataEfEEPNS0_13CoredMeshDataERN9__gnu_cxx8hash_mapIxiNS9_4hashIxEESt8equal_toIxESaIiEEEPSG_PSt6vectorINS0_7Point3DIfEESaISL_EERKiSQ_bb@Base 1.6
 (optional=templinst)_ZN3pcl7poisson6OctreeILi5EE17GetMCIsoTrianglesERKfPNS0_13CoredMeshDataERKiS8_bb@Base 1.6
 (optional=templinst)_ZN3pcl7poisson6OctreeILi5EE17GetMCIsoTrianglesERKfRKiPNS0_13CoredMeshDataES6_S6_bb@Base 1.6
 (optional=templinst)_ZN3pcl7poisson6OctreeILi5EE18DivergenceFunction8FunctionEPNS0_7OctNodeINS0_12TreeNodeDataEfEEPKS6_@Base 1.6
 (optional=templinst)_ZN3pcl7poisson6OctreeILi5EE18SetMCRootPositionsEPNS0_7OctNodeINS0_12TreeNodeDataEfEERKiRKfRN9__gnu_cxx8hash_mapIxiNSB_4hashIxEESt8equal_toIxESaIiEEEPSI_RNSC_IxSt4pairIfNS0_7Point3DIfEEESE_SG_SaISO_EEEPSQ_PSt6vectorISN_SaISN_EEPNS0_13CoredMeshDataES8_@Base 1.6
 (optional=templinst)_ZN3pcl7poisson6OctreeILi5EE19SetLaplacianWeightsEv@Base 1.6
 (optional=templinst)_ZN3pcl7poisson6OctreeILi5EE20SetIsoSurfaceCornersERKfRKiS6_@Base 1.6
 (optional=templinst)_ZN3pcl7poisson6OctreeILi5EE21InteriorFaceRootCountEPKNS0_7OctNodeINS0_12TreeNodeDataEfEERKiS9_@Base 1.6
 (optional=templinst)_ZN3pcl7poisson6OctreeILi5EE21SolveFixedDepthMatrixERKiRKNS0_15SortedTreeNodesE@Base 1.6
 (optional=templinst)_ZN3pcl7poisson6OctreeILi5EE21SolveFixedDepthMatrixERKiS4_RKNS0_15SortedTreeNodesE@Base 1.6
 (optional=templinst)_ZN3pcl7poisson6OctreeILi5EE22GetFixedDepthLaplacianERNS0_21SparseSymmetricMatrixIfEERKiRKNS0_15SortedTreeNodesE@Base 1.6
 (optional=templinst)_ZN3pcl7poisson6OctreeILi5EE23LaplacianMatrixFunction8FunctionEPKNS0_7OctNodeINS0_12TreeNodeDataEfEES8_@Base 1.6
 (optional=templinst)_ZN3pcl7poisson6OctreeILi5EE24LaplacianMatrixIterationERKi@Base 1.6
 (optional=templinst)_ZN3pcl7poisson6OctreeILi5EE24NonLinearGetSampleWeightEPNS0_7OctNodeINS0_12TreeNodeDataEfEERKNS0_7Point3DIfEE@Base 1.6
 (optional=templinst)_ZN3pcl7poisson6OctreeILi5EE26SetBoundaryMCRootPositionsERKiRKfRN9__gnu_cxx8hash_mapIxiNS7_4hashIxEESt8equal_toIxESaIiEEERNS8_IxSt4pairIfNS0_7Point3DIfEEESA_SC_SaISJ_EEEPNS0_13CoredMeshDataES4_@Base 1.6
 (optional=templinst)_ZN3pcl7poisson6OctreeILi5EE27LaplacianProjectionFunction8FunctionEPNS0_7OctNodeINS0_12TreeNodeDataEfEEPKS6_@Base 1.6
 (optional=templinst)_ZN3pcl7poisson6OctreeILi5EE27NonLinearSplatOrientedPointEPNS0_7OctNodeINS0_12TreeNodeDataEfEERKNS0_7Point3DIfEESA_@Base 1.6
 (optional=templinst)_ZN3pcl7poisson6OctreeILi5EE27NonLinearSplatOrientedPointERKNS0_7Point3DIfEES6_RKiRKfS8_S8_@Base 1.6
 (optional=templinst)_ZN3pcl7poisson6OctreeILi5EE32GetRestrictedFixedDepthLaplacianERNS0_21SparseSymmetricMatrixIfEERKiPS6_S7_PKNS0_7OctNodeINS0_12TreeNodeDataEfEERKfRKNS0_15SortedTreeNodesE@Base 1.6
 (optional=templinst)_ZN3pcl7poisson6OctreeILi5EE32PointIndexValueAndNormalFunction8FunctionEPKNS0_7OctNodeINS0_12TreeNodeDataEfEE@Base 1.6
 (optional=templinst)_ZN3pcl7poisson6OctreeILi5EE33NonLinearUpdateWeightContributionEPNS0_7OctNodeINS0_12TreeNodeDataEfEERKNS0_7Point3DIfEERKf@Base 1.6
 (optional=templinst)_ZN3pcl7poisson6OctreeILi5EE33RestrictedLaplacianMatrixFunction8FunctionEPKNS0_7OctNodeINS0_12TreeNodeDataEfEES8_@Base 1.6
 (optional=templinst)_ZN3pcl7poisson6OctreeILi5EE7GetRootERKNS0_8RootInfoERKfRNS0_7Point3DIfEERN9__gnu_cxx8hash_mapIxSt4pairIfS9_ENSB_4hashIxEESt8equal_toIxESaISE_EEERKi@Base 1.6
 (optional=templinst)_ZN3pcl7poisson6OctreeILi5EE7setTreeINS_11PointNormalEEEiN5boost10shared_ptrIKNS_10PointCloudIT_EEEERKiSD_RKfSF_RNS0_7Point3DIfEERfSD_SD_@Base 1.6
 (optional=templinst)_ZN3pcl7poisson6OctreeILi5EE7setTreeINS_15PointXYZINormalEEEiN5boost10shared_ptrIKNS_10PointCloudIT_EEEERKiSD_RKfSF_RNS0_7Point3DIfEERfSD_SD_@Base 1.6
 (optional=templinst)_ZN3pcl7poisson6OctreeILi5EE7setTreeINS_17PointXYZRGBNormalEEEiN5boost10shared_ptrIKNS_10PointCloudIT_EEEERKiSD_RKfSF_RNS0_7Point3DIfEERfSD_SD_@Base 1.6
 (optional=templinst)_ZN3pcl7poisson6OctreeILi5EE8ClipTreeEv@Base 1.6
 (optional=templinst)_ZN3pcl7poisson6OctreeILi5EE9SubdivideEPNS0_7OctNodeINS0_12TreeNodeDataEfEERKfRKi@Base 1.6
 (optional=templinst)_ZN3pcl7poisson6OctreeILi5EE9finalize1ERKi@Base 1.6
 (optional=templinst)_ZN3pcl7poisson6OctreeILi5EE9finalize2ERKi@Base 1.6
 (optional=templinst)_ZN3pcl7poisson6OctreeILi5EEC1Ev@Base 1.6
 (optional=templinst)_ZN3pcl7poisson6OctreeILi5EEC2Ev@Base 1.6
 (optional=templinst)_ZN3pcl7poisson6OctreeILi5EED1Ev@Base 1.6
 (optional=templinst)_ZN3pcl7poisson6OctreeILi5EED2Ev@Base 1.6
 _ZN3pcl7poisson6Square11CornerIndexERKiS3_@Base 1.6
 _ZN3pcl7poisson6Square11EdgeCornersERKiRiS4_@Base 1.6
 _ZN3pcl7poisson6Square15FactorEdgeIndexERKiRiS4_@Base 1.6
 _ZN3pcl7poisson6Square16ReflectEdgeIndexERKiS3_@Base 1.6
 _ZN3pcl7poisson6Square17FactorCornerIndexERKiRiS4_@Base 1.6
 _ZN3pcl7poisson6Square18ReflectCornerIndexERKiS3_@Base 1.6
 _ZN3pcl7poisson6Square9EdgeIndexERKiS3_@Base 1.6
 (optional=templinst)_ZN3pcl7poisson6VectorIdE6ResizeEm@Base 1.6
 (optional=templinst)_ZN3pcl7poisson6VectorIdED1Ev@Base 1.6
 (optional=templinst)_ZN3pcl7poisson6VectorIdED2Ev@Base 1.6
 (optional=templinst)_ZN3pcl7poisson6VectorIdEaSERKS2_@Base 1.6
 (optional=templinst)_ZN3pcl7poisson6VectorIfE6ResizeEm@Base 1.6
 (optional=templinst)_ZN3pcl7poisson6VectorIfED1Ev@Base 1.6
 (optional=templinst)_ZN3pcl7poisson6VectorIfED2Ev@Base 1.6
 _ZN3pcl7poisson7ArcTan2ERKdS2_@Base 1.6
 (optional=templinst)_ZN3pcl7poisson7OctNodeINS0_12TreeNodeDataEfE11NeighborKey12setNeighborsEPS3_@Base 1.6
 (optional=templinst)_ZN3pcl7poisson7OctNodeINS0_12TreeNodeDataEfE11NeighborKey3setERKi@Base 1.6
 (optional=templinst)_ZN3pcl7poisson7OctNodeINS0_12TreeNodeDataEfE11NeighborKeyD1Ev@Base 1.6
 (optional=templinst)_ZN3pcl7poisson7OctNodeINS0_12TreeNodeDataEfE11NeighborKeyD2Ev@Base 1.6
 (optional=templinst)_ZN3pcl7poisson7OctNodeINS0_12TreeNodeDataEfE12NeighborKey212getNeighborsEPKS3_@Base 1.6
 (optional=templinst)_ZN3pcl7poisson7OctNodeINS0_12TreeNodeDataEfE12NeighborKey23setERKi@Base 1.6
 (optional=templinst)_ZN3pcl7poisson7OctNodeINS0_12TreeNodeDataEfE12NeighborKey2D1Ev@Base 1.6
 (optional=templinst)_ZN3pcl7poisson7OctNodeINS0_12TreeNodeDataEfE12NeighborKey2D2Ev@Base 1.6
 (optional=templinst)_ZN3pcl7poisson7OctNodeINS0_12TreeNodeDataEfE12SetAllocatorEi@Base 1.6
 (optional=templinst)_ZN3pcl7poisson7OctNodeINS0_12TreeNodeDataEfE12initChildrenEv@Base 1.6
 (optional=templinst)_ZN3pcl7poisson7OctNodeINS0_12TreeNodeDataEfE14__faceNeighborERKiS5_S5_@Base 1.6
 _ZN3pcl7poisson7OctNodeINS0_12TreeNodeDataEfE16AllocatorOctNodeE@Base 1.6
 (optional=templinst)_ZN3pcl7poisson7OctNodeINS0_12TreeNodeDataEfE18__processNodeFacesINS0_6OctreeILi1EE17FaceEdgesFunctionEEEvPS3_PT_RKiSC_SC_SC_@Base 1.6
 (optional=templinst)_ZN3pcl7poisson7OctNodeINS0_12TreeNodeDataEfE18__processNodeFacesINS0_6OctreeILi2EE17FaceEdgesFunctionEEEvPS3_PT_RKiSC_SC_SC_@Base 1.6
 (optional=templinst)_ZN3pcl7poisson7OctNodeINS0_12TreeNodeDataEfE18__processNodeFacesINS0_6OctreeILi3EE17FaceEdgesFunctionEEEvPS3_PT_RKiSC_SC_SC_@Base 1.6
 (optional=templinst)_ZN3pcl7poisson7OctNodeINS0_12TreeNodeDataEfE18__processNodeFacesINS0_6OctreeILi4EE17FaceEdgesFunctionEEEvPS3_PT_RKiSC_SC_SC_@Base 1.6
 (optional=templinst)_ZN3pcl7poisson7OctNodeINS0_12TreeNodeDataEfE18__processNodeFacesINS0_6OctreeILi5EE17FaceEdgesFunctionEEEvPS3_PT_RKiSC_SC_SC_@Base 1.6
 (optional=templinst)_ZN3pcl7poisson7OctNodeINS0_12TreeNodeDataEfE18__processNodeNodesINS0_6OctreeILi1EE27LaplacianProjectionFunctionEEEvPS3_PT_@Base 1.6
 (optional=templinst)_ZN3pcl7poisson7OctNodeINS0_12TreeNodeDataEfE18__processNodeNodesINS0_6OctreeILi2EE27LaplacianProjectionFunctionEEEvPS3_PT_@Base 1.6
 (optional=templinst)_ZN3pcl7poisson7OctNodeINS0_12TreeNodeDataEfE18__processNodeNodesINS0_6OctreeILi3EE27LaplacianProjectionFunctionEEEvPS3_PT_@Base 1.6
 (optional=templinst)_ZN3pcl7poisson7OctNodeINS0_12TreeNodeDataEfE18__processNodeNodesINS0_6OctreeILi4EE27LaplacianProjectionFunctionEEEvPS3_PT_@Base 1.6
 (optional=templinst)_ZN3pcl7poisson7OctNodeINS0_12TreeNodeDataEfE18__processNodeNodesINS0_6OctreeILi5EE27LaplacianProjectionFunctionEEEvPS3_PT_@Base 1.6
 (optional=templinst)_ZN3pcl7poisson7OctNodeINS0_12TreeNodeDataEfE24ProcessNodeAdjacentNodesINS0_6OctreeILi1EE27LaplacianProjectionFunctionEEEvRKiPS3_S9_SA_S9_PT_S9_@Base 1.6
 (optional=templinst)_ZN3pcl7poisson7OctNodeINS0_12TreeNodeDataEfE24ProcessNodeAdjacentNodesINS0_6OctreeILi2EE27LaplacianProjectionFunctionEEEvRKiPS3_S9_SA_S9_PT_S9_@Base 1.6
 (optional=templinst)_ZN3pcl7poisson7OctNodeINS0_12TreeNodeDataEfE24ProcessNodeAdjacentNodesINS0_6OctreeILi3EE27LaplacianProjectionFunctionEEEvRKiPS3_S9_SA_S9_PT_S9_@Base 1.6
 (optional=templinst)_ZN3pcl7poisson7OctNodeINS0_12TreeNodeDataEfE24ProcessNodeAdjacentNodesINS0_6OctreeILi4EE27LaplacianProjectionFunctionEEEvRKiPS3_S9_SA_S9_PT_S9_@Base 1.6
 (optional=templinst)_ZN3pcl7poisson7OctNodeINS0_12TreeNodeDataEfE24ProcessNodeAdjacentNodesINS0_6OctreeILi5EE27LaplacianProjectionFunctionEEEvRKiPS3_S9_SA_S9_PT_S9_@Base 1.6
 (optional=templinst)_ZN3pcl7poisson7OctNodeINS0_12TreeNodeDataEfE25ProcessPointAdjacentNodesINS0_6OctreeILi1EE23PointIndexValueFunctionEEEvRKiPS8_PS3_S9_PT_S9_@Base 1.6
 (optional=templinst)_ZN3pcl7poisson7OctNodeINS0_12TreeNodeDataEfE25ProcessPointAdjacentNodesINS0_6OctreeILi1EE32PointIndexValueAndNormalFunctionEEEvRKiPS8_PS3_S9_PT_S9_@Base 1.6
 (optional=templinst)_ZN3pcl7poisson7OctNodeINS0_12TreeNodeDataEfE25ProcessPointAdjacentNodesINS0_6OctreeILi2EE23PointIndexValueFunctionEEEvRKiPS8_PS3_S9_PT_S9_@Base 1.6
 (optional=templinst)_ZN3pcl7poisson7OctNodeINS0_12TreeNodeDataEfE25ProcessPointAdjacentNodesINS0_6OctreeILi2EE32PointIndexValueAndNormalFunctionEEEvRKiPS8_PS3_S9_PT_S9_@Base 1.6
 (optional=templinst)_ZN3pcl7poisson7OctNodeINS0_12TreeNodeDataEfE25ProcessPointAdjacentNodesINS0_6OctreeILi3EE23PointIndexValueFunctionEEEvRKiPS8_PS3_S9_PT_S9_@Base 1.6
 (optional=templinst)_ZN3pcl7poisson7OctNodeINS0_12TreeNodeDataEfE25ProcessPointAdjacentNodesINS0_6OctreeILi3EE32PointIndexValueAndNormalFunctionEEEvRKiPS8_PS3_S9_PT_S9_@Base 1.6
 (optional=templinst)_ZN3pcl7poisson7OctNodeINS0_12TreeNodeDataEfE25ProcessPointAdjacentNodesINS0_6OctreeILi4EE23PointIndexValueFunctionEEEvRKiPS8_PS3_S9_PT_S9_@Base 1.6
 (optional=templinst)_ZN3pcl7poisson7OctNodeINS0_12TreeNodeDataEfE25ProcessPointAdjacentNodesINS0_6OctreeILi4EE32PointIndexValueAndNormalFunctionEEEvRKiPS8_PS3_S9_PT_S9_@Base 1.6
 (optional=templinst)_ZN3pcl7poisson7OctNodeINS0_12TreeNodeDataEfE25ProcessPointAdjacentNodesINS0_6OctreeILi5EE23PointIndexValueFunctionEEEvRKiPS8_PS3_S9_PT_S9_@Base 1.6
 (optional=templinst)_ZN3pcl7poisson7OctNodeINS0_12TreeNodeDataEfE25ProcessPointAdjacentNodesINS0_6OctreeILi5EE32PointIndexValueAndNormalFunctionEEEvRKiPS8_PS3_S9_PT_S9_@Base 1.6
 (optional=templinst)_ZN3pcl7poisson7OctNodeINS0_12TreeNodeDataEfE26__ProcessNodeAdjacentNodesINS0_6OctreeILi1EE18DivergenceFunctionEEEvRKiS9_S9_PS3_S9_SA_S9_S9_PT_@Base 1.6
 (optional=templinst)_ZN3pcl7poisson7OctNodeINS0_12TreeNodeDataEfE26__ProcessNodeAdjacentNodesINS0_6OctreeILi1EE27LaplacianProjectionFunctionEEEvRKiS9_S9_PS3_S9_SA_S9_S9_PT_@Base 1.6
 (optional=templinst)_ZN3pcl7poisson7OctNodeINS0_12TreeNodeDataEfE26__ProcessNodeAdjacentNodesINS0_6OctreeILi2EE18DivergenceFunctionEEEvRKiS9_S9_PS3_S9_SA_S9_S9_PT_@Base 1.6
 (optional=templinst)_ZN3pcl7poisson7OctNodeINS0_12TreeNodeDataEfE26__ProcessNodeAdjacentNodesINS0_6OctreeILi2EE27LaplacianProjectionFunctionEEEvRKiS9_S9_PS3_S9_SA_S9_S9_PT_@Base 1.6
 (optional=templinst)_ZN3pcl7poisson7OctNodeINS0_12TreeNodeDataEfE26__ProcessNodeAdjacentNodesINS0_6OctreeILi3EE18DivergenceFunctionEEEvRKiS9_S9_PS3_S9_SA_S9_S9_PT_@Base 1.6
 (optional=templinst)_ZN3pcl7poisson7OctNodeINS0_12TreeNodeDataEfE26__ProcessNodeAdjacentNodesINS0_6OctreeILi3EE27LaplacianProjectionFunctionEEEvRKiS9_S9_PS3_S9_SA_S9_S9_PT_@Base 1.6
 (optional=templinst)_ZN3pcl7poisson7OctNodeINS0_12TreeNodeDataEfE26__ProcessNodeAdjacentNodesINS0_6OctreeILi4EE18DivergenceFunctionEEEvRKiS9_S9_PS3_S9_SA_S9_S9_PT_@Base 1.6
 (optional=templinst)_ZN3pcl7poisson7OctNodeINS0_12TreeNodeDataEfE26__ProcessNodeAdjacentNodesINS0_6OctreeILi4EE27LaplacianProjectionFunctionEEEvRKiS9_S9_PS3_S9_SA_S9_S9_PT_@Base 1.6
 (optional=templinst)_ZN3pcl7poisson7OctNodeINS0_12TreeNodeDataEfE26__ProcessNodeAdjacentNodesINS0_6OctreeILi5EE18DivergenceFunctionEEEvRKiS9_S9_PS3_S9_SA_S9_S9_PT_@Base 1.6
 (optional=templinst)_ZN3pcl7poisson7OctNodeINS0_12TreeNodeDataEfE26__ProcessNodeAdjacentNodesINS0_6OctreeILi5EE27LaplacianProjectionFunctionEEEvRKiS9_S9_PS3_S9_SA_S9_S9_PT_@Base 1.6
 (optional=templinst)_ZN3pcl7poisson7OctNodeINS0_12TreeNodeDataEfE27CompareForwardPointerDepthsEPKvS5_@Base 1.6
 (optional=templinst)_ZN3pcl7poisson7OctNodeINS0_12TreeNodeDataEfE27__ProcessPointAdjacentNodesINS0_6OctreeILi1EE23PointIndexValueFunctionEEEvRKiS9_S9_PS3_S9_S9_PT_@Base 1.6
 (optional=templinst)_ZN3pcl7poisson7OctNodeINS0_12TreeNodeDataEfE27__ProcessPointAdjacentNodesINS0_6OctreeILi1EE32PointIndexValueAndNormalFunctionEEEvRKiS9_S9_PS3_S9_S9_PT_@Base 1.6
 (optional=templinst)_ZN3pcl7poisson7OctNodeINS0_12TreeNodeDataEfE27__ProcessPointAdjacentNodesINS0_6OctreeILi2EE23PointIndexValueFunctionEEEvRKiS9_S9_PS3_S9_S9_PT_@Base 1.6
 (optional=templinst)_ZN3pcl7poisson7OctNodeINS0_12TreeNodeDataEfE27__ProcessPointAdjacentNodesINS0_6OctreeILi2EE32PointIndexValueAndNormalFunctionEEEvRKiS9_S9_PS3_S9_S9_PT_@Base 1.6
 (optional=templinst)_ZN3pcl7poisson7OctNodeINS0_12TreeNodeDataEfE27__ProcessPointAdjacentNodesINS0_6OctreeILi3EE23PointIndexValueFunctionEEEvRKiS9_S9_PS3_S9_S9_PT_@Base 1.6
 (optional=templinst)_ZN3pcl7poisson7OctNodeINS0_12TreeNodeDataEfE27__ProcessPointAdjacentNodesINS0_6OctreeILi3EE32PointIndexValueAndNormalFunctionEEEvRKiS9_S9_PS3_S9_S9_PT_@Base 1.6
 (optional=templinst)_ZN3pcl7poisson7OctNodeINS0_12TreeNodeDataEfE27__ProcessPointAdjacentNodesINS0_6OctreeILi4EE23PointIndexValueFunctionEEEvRKiS9_S9_PS3_S9_S9_PT_@Base 1.6
 (optional=templinst)_ZN3pcl7poisson7OctNodeINS0_12TreeNodeDataEfE27__ProcessPointAdjacentNodesINS0_6OctreeILi4EE32PointIndexValueAndNormalFunctionEEEvRKiS9_S9_PS3_S9_S9_PT_@Base 1.6
 (optional=templinst)_ZN3pcl7poisson7OctNodeINS0_12TreeNodeDataEfE27__ProcessPointAdjacentNodesINS0_6OctreeILi5EE23PointIndexValueFunctionEEEvRKiS9_S9_PS3_S9_S9_PT_@Base 1.6
 (optional=templinst)_ZN3pcl7poisson7OctNodeINS0_12TreeNodeDataEfE27__ProcessPointAdjacentNodesINS0_6OctreeILi5EE32PointIndexValueAndNormalFunctionEEEvRKiS9_S9_PS3_S9_S9_PT_@Base 1.6
 (optional=templinst)_ZN3pcl7poisson7OctNodeINS0_12TreeNodeDataEfE32ProcessMaxDepthNodeAdjacentNodesINS0_6OctreeILi1EE14RefineFunctionEEEvRKiPS3_S9_SA_S9_S9_PT_S9_@Base 1.6
 (optional=templinst)_ZN3pcl7poisson7OctNodeINS0_12TreeNodeDataEfE32ProcessMaxDepthNodeAdjacentNodesINS0_6OctreeILi2EE14RefineFunctionEEEvRKiPS3_S9_SA_S9_S9_PT_S9_@Base 1.6
 (optional=templinst)_ZN3pcl7poisson7OctNodeINS0_12TreeNodeDataEfE32ProcessMaxDepthNodeAdjacentNodesINS0_6OctreeILi3EE14RefineFunctionEEEvRKiPS3_S9_SA_S9_S9_PT_S9_@Base 1.6
 (optional=templinst)_ZN3pcl7poisson7OctNodeINS0_12TreeNodeDataEfE32ProcessMaxDepthNodeAdjacentNodesINS0_6OctreeILi4EE14RefineFunctionEEEvRKiPS3_S9_SA_S9_S9_PT_S9_@Base 1.6
 (optional=templinst)_ZN3pcl7poisson7OctNodeINS0_12TreeNodeDataEfE32ProcessMaxDepthNodeAdjacentNodesINS0_6OctreeILi5EE14RefineFunctionEEEvRKiPS3_S9_SA_S9_S9_PT_S9_@Base 1.6
 (optional=templinst)_ZN3pcl7poisson7OctNodeINS0_12TreeNodeDataEfE34__ProcessMaxDepthNodeAdjacentNodesINS0_6OctreeILi1EE14RefineFunctionEEEvRKiS9_S9_PS3_S9_SA_S9_S9_S9_PT_@Base 1.6
 (optional=templinst)_ZN3pcl7poisson7OctNodeINS0_12TreeNodeDataEfE34__ProcessMaxDepthNodeAdjacentNodesINS0_6OctreeILi2EE14RefineFunctionEEEvRKiS9_S9_PS3_S9_SA_S9_S9_S9_PT_@Base 1.6
 (optional=templinst)_ZN3pcl7poisson7OctNodeINS0_12TreeNodeDataEfE34__ProcessMaxDepthNodeAdjacentNodesINS0_6OctreeILi3EE14RefineFunctionEEEvRKiS9_S9_PS3_S9_SA_S9_S9_S9_PT_@Base 1.6
 (optional=templinst)_ZN3pcl7poisson7OctNodeINS0_12TreeNodeDataEfE34__ProcessMaxDepthNodeAdjacentNodesINS0_6OctreeILi4EE14RefineFunctionEEEvRKiS9_S9_PS3_S9_SA_S9_S9_S9_PT_@Base 1.6
 (optional=templinst)_ZN3pcl7poisson7OctNodeINS0_12TreeNodeDataEfE34__ProcessMaxDepthNodeAdjacentNodesINS0_6OctreeILi5EE14RefineFunctionEEEvRKiS9_S9_PS3_S9_SA_S9_S9_S9_PT_@Base 1.6
 (optional=templinst)_ZN3pcl7poisson7OctNodeINS0_12TreeNodeDataEfE36__ProcessFixedDepthNodeAdjacentNodesINS0_6OctreeILi1EE20AdjacencySetFunctionEEEvRKiS9_S9_PS3_S9_SA_S9_S9_S9_PT_@Base 1.6
 (optional=templinst)_ZN3pcl7poisson7OctNodeINS0_12TreeNodeDataEfE36__ProcessFixedDepthNodeAdjacentNodesINS0_6OctreeILi1EE22AdjacencyCountFunctionEEEvRKiS9_S9_PS3_S9_SA_S9_S9_S9_PT_@Base 1.6
 (optional=templinst)_ZN3pcl7poisson7OctNodeINS0_12TreeNodeDataEfE36__ProcessFixedDepthNodeAdjacentNodesINS0_6OctreeILi2EE20AdjacencySetFunctionEEEvRKiS9_S9_PS3_S9_SA_S9_S9_S9_PT_@Base 1.6
 (optional=templinst)_ZN3pcl7poisson7OctNodeINS0_12TreeNodeDataEfE36__ProcessFixedDepthNodeAdjacentNodesINS0_6OctreeILi2EE22AdjacencyCountFunctionEEEvRKiS9_S9_PS3_S9_SA_S9_S9_S9_PT_@Base 1.6
 (optional=templinst)_ZN3pcl7poisson7OctNodeINS0_12TreeNodeDataEfE36__ProcessFixedDepthNodeAdjacentNodesINS0_6OctreeILi3EE20AdjacencySetFunctionEEEvRKiS9_S9_PS3_S9_SA_S9_S9_S9_PT_@Base 1.6
 (optional=templinst)_ZN3pcl7poisson7OctNodeINS0_12TreeNodeDataEfE36__ProcessFixedDepthNodeAdjacentNodesINS0_6OctreeILi3EE22AdjacencyCountFunctionEEEvRKiS9_S9_PS3_S9_SA_S9_S9_S9_PT_@Base 1.6
 (optional=templinst)_ZN3pcl7poisson7OctNodeINS0_12TreeNodeDataEfE36__ProcessFixedDepthNodeAdjacentNodesINS0_6OctreeILi4EE20AdjacencySetFunctionEEEvRKiS9_S9_PS3_S9_SA_S9_S9_S9_PT_@Base 1.6
 (optional=templinst)_ZN3pcl7poisson7OctNodeINS0_12TreeNodeDataEfE36__ProcessFixedDepthNodeAdjacentNodesINS0_6OctreeILi4EE22AdjacencyCountFunctionEEEvRKiS9_S9_PS3_S9_SA_S9_S9_S9_PT_@Base 1.6
 (optional=templinst)_ZN3pcl7poisson7OctNodeINS0_12TreeNodeDataEfE36__ProcessFixedDepthNodeAdjacentNodesINS0_6OctreeILi5EE20AdjacencySetFunctionEEEvRKiS9_S9_PS3_S9_SA_S9_S9_S9_PT_@Base 1.6
 (optional=templinst)_ZN3pcl7poisson7OctNodeINS0_12TreeNodeDataEfE36__ProcessFixedDepthNodeAdjacentNodesINS0_6OctreeILi5EE22AdjacencyCountFunctionEEEvRKiS9_S9_PS3_S9_SA_S9_S9_S9_PT_@Base 1.6
 (optional=templinst)_ZN3pcl7poisson7OctNodeINS0_12TreeNodeDataEfE37__ProcessTerminatingNodeAdjacentNodesINS0_6OctreeILi1EE23LaplacianMatrixFunctionEEEvRKiS9_S9_PS3_S9_SA_S9_S9_PT_@Base 1.6
 (optional=templinst)_ZN3pcl7poisson7OctNodeINS0_12TreeNodeDataEfE37__ProcessTerminatingNodeAdjacentNodesINS0_6OctreeILi1EE33RestrictedLaplacianMatrixFunctionEEEvRKiS9_S9_PS3_S9_SA_S9_S9_PT_@Base 1.6
 (optional=templinst)_ZN3pcl7poisson7OctNodeINS0_12TreeNodeDataEfE37__ProcessTerminatingNodeAdjacentNodesINS0_6OctreeILi2EE23LaplacianMatrixFunctionEEEvRKiS9_S9_PS3_S9_SA_S9_S9_PT_@Base 1.6
 (optional=templinst)_ZN3pcl7poisson7OctNodeINS0_12TreeNodeDataEfE37__ProcessTerminatingNodeAdjacentNodesINS0_6OctreeILi2EE33RestrictedLaplacianMatrixFunctionEEEvRKiS9_S9_PS3_S9_SA_S9_S9_PT_@Base 1.6
 (optional=templinst)_ZN3pcl7poisson7OctNodeINS0_12TreeNodeDataEfE37__ProcessTerminatingNodeAdjacentNodesINS0_6OctreeILi3EE23LaplacianMatrixFunctionEEEvRKiS9_S9_PS3_S9_SA_S9_S9_PT_@Base 1.6
 (optional=templinst)_ZN3pcl7poisson7OctNodeINS0_12TreeNodeDataEfE37__ProcessTerminatingNodeAdjacentNodesINS0_6OctreeILi3EE33RestrictedLaplacianMatrixFunctionEEEvRKiS9_S9_PS3_S9_SA_S9_S9_PT_@Base 1.6
 (optional=templinst)_ZN3pcl7poisson7OctNodeINS0_12TreeNodeDataEfE37__ProcessTerminatingNodeAdjacentNodesINS0_6OctreeILi4EE23LaplacianMatrixFunctionEEEvRKiS9_S9_PS3_S9_SA_S9_S9_PT_@Base 1.6
 (optional=templinst)_ZN3pcl7poisson7OctNodeINS0_12TreeNodeDataEfE37__ProcessTerminatingNodeAdjacentNodesINS0_6OctreeILi4EE33RestrictedLaplacianMatrixFunctionEEEvRKiS9_S9_PS3_S9_SA_S9_S9_PT_@Base 1.6
 (optional=templinst)_ZN3pcl7poisson7OctNodeINS0_12TreeNodeDataEfE37__ProcessTerminatingNodeAdjacentNodesINS0_6OctreeILi5EE23LaplacianMatrixFunctionEEEvRKiS9_S9_PS3_S9_SA_S9_S9_PT_@Base 1.6
 (optional=templinst)_ZN3pcl7poisson7OctNodeINS0_12TreeNodeDataEfE37__ProcessTerminatingNodeAdjacentNodesINS0_6OctreeILi5EE33RestrictedLaplacianMatrixFunctionEEEvRKiS9_S9_PS3_S9_SA_S9_S9_PT_@Base 1.6
 _ZN3pcl7poisson7OctNodeINS0_12TreeNodeDataEfE8UseAllocE@Base 1.6
 (optional=templinst)_ZN3pcl7poisson7OctNodeINS0_12TreeNodeDataEfE8nextLeafEPS3_@Base 1.6
 (optional=templinst)_ZN3pcl7poisson7OctNodeINS0_12TreeNodeDataEfE8nextNodeEPS3_@Base 1.6
 (optional=templinst)_ZN3pcl7poisson7OctNodeINS0_12TreeNodeDataEfEC1Ev@Base 1.6
 (optional=templinst)_ZN3pcl7poisson7OctNodeINS0_12TreeNodeDataEfEC2Ev@Base 1.6
 (optional=templinst)_ZN3pcl7poisson7OctNodeINS0_12TreeNodeDataEfED1Ev@Base 1.6
 (optional=templinst)_ZN3pcl7poisson7OctNodeINS0_12TreeNodeDataEfED2Ev@Base 1.6
 _ZN3pcl7poisson8MultiplyEPKdS2_Pd@Base 1.6
 _ZN3pcl7poisson8SubtractEPKdS2_Pd@Base 1.6
 (optional=templinst)_ZN3pcl7poisson9AllocatorINS0_11MatrixEntryIfEEE11newElementsERKi@Base 1.6
 (optional=templinst)_ZN3pcl7poisson9AllocatorINS0_11MatrixEntryIfEEED1Ev@Base 1.6
 (optional=templinst)_ZN3pcl7poisson9AllocatorINS0_11MatrixEntryIfEEED2Ev@Base 1.6
 (optional=templinst)_ZN3pcl7poisson9AllocatorINS0_7OctNodeINS0_12TreeNodeDataEfEEE11newElementsERKi@Base 1.6
 (optional=templinst)_ZN3pcl7poisson9AllocatorINS0_7OctNodeINS0_12TreeNodeDataEfEEE5resetEv@Base 1.6
 (optional=templinst)_ZN3pcl7poisson9AllocatorINS0_7OctNodeINS0_12TreeNodeDataEfEEED1Ev@Base 1.6
 (optional=templinst)_ZN3pcl7poisson9AllocatorINS0_7OctNodeINS0_12TreeNodeDataEfEEED2Ev@Base 1.6
 _ZN3pcl7surface34SimplificationRemoveUnusedVertices8simplifyERKNS_11PolygonMeshERS2_RSt6vectorIiSaIiEE@Base 1.6
 _ZN3pcl8VTKUtils12convertToPCLER15vtkSmartPointerI11vtkPolyDataERNS_11PolygonMeshE@Base 1.6
 _ZN3pcl8VTKUtils12convertToVTKERKNS_11PolygonMeshER15vtkSmartPointerI11vtkPolyDataE@Base 1.6
 _ZN3pcl8VTKUtils8mesh2vtkERKNS_11PolygonMeshER15vtkSmartPointerI11vtkPolyDataE@Base 1.6
 _ZN3pcl8VTKUtils8vtk2meshERK15vtkSmartPointerI11vtkPolyDataERNS_11PolygonMeshE@Base 1.6
 _ZN3pcl8VerticesD1Ev@Base 1.6
 _ZN3pcl8VerticesD2Ev@Base 1.6
 (optional=templinst)_ZN3pcl8toROSMsgINS_11PointNormalEEEvRKNS_10PointCloudIT_EERN11sensor_msgs11PointCloud2E@Base 1.6
 (optional=templinst)_ZN3pcl8toROSMsgINS_11PointXYZHSVEEEvRKNS_10PointCloudIT_EERN11sensor_msgs11PointCloud2E@Base 1.6
 (optional=templinst)_ZN3pcl8toROSMsgINS_11PointXYZRGBEEEvRKNS_10PointCloudIT_EERN11sensor_msgs11PointCloud2E@Base 1.6
 (optional=templinst)_ZN3pcl8toROSMsgINS_12PointXYZRGBAEEEvRKNS_10PointCloudIT_EERN11sensor_msgs11PointCloud2E@Base 1.6
 (optional=templinst)_ZN3pcl8toROSMsgINS_12PointXYZRGBLEEEvRKNS_10PointCloudIT_EERN11sensor_msgs11PointCloud2E@Base 1.6
 (optional=templinst)_ZN3pcl8toROSMsgINS_13InterestPointEEEvRKNS_10PointCloudIT_EERN11sensor_msgs11PointCloud2E@Base 1.6
 (optional=templinst)_ZN3pcl8toROSMsgINS_14PointWithRangeEEEvRKNS_10PointCloudIT_EERN11sensor_msgs11PointCloud2E@Base 1.6
 (optional=templinst)_ZN3pcl8toROSMsgINS_14PointWithScaleEEEvRKNS_10PointCloudIT_EERN11sensor_msgs11PointCloud2E@Base 1.6
 (optional=templinst)_ZN3pcl8toROSMsgINS_15PointXYZINormalEEEvRKNS_10PointCloudIT_EERN11sensor_msgs11PointCloud2E@Base 1.6
 (optional=templinst)_ZN3pcl8toROSMsgINS_17PointXYZRGBNormalEEEvRKNS_10PointCloudIT_EERN11sensor_msgs11PointCloud2E@Base 1.6
 (optional=templinst)_ZN3pcl8toROSMsgINS_18PointWithViewpointEEEvRKNS_10PointCloudIT_EERN11sensor_msgs11PointCloud2E@Base 1.6
 (optional=templinst)_ZN3pcl8toROSMsgINS_8PointXYZEEEvRKNS_10PointCloudIT_EERN11sensor_msgs11PointCloud2E@Base 1.6
 (optional=templinst)_ZN3pcl8toROSMsgINS_9PointXYZIEEEvRKNS_10PointCloudIT_EERN11sensor_msgs11PointCloud2E@Base 1.6
 (optional=templinst)_ZN3pcl8toROSMsgINS_9PointXYZLEEEvRKNS_10PointCloudIT_EERN11sensor_msgs11PointCloud2E@Base 1.6
 _ZN3pcl9isVisibleERKN5Eigen6MatrixIfLi2ELi1ELi0ELi2ELi1EEES4_S4_S4_@Base 1.6
 (optional=templinst)_ZN5Eigen10MatrixBaseINS_5BlockINS_6MatrixIdLin1ELin1ELi0ELin1ELin1EEELin1ELin1ELb0ELb1EEEEmIINS_14GeneralProductINS1_IKS3_Lin1ELin1ELb0ELb1EEES4_Li5EEEEERS4_RKNS0_IT_EE@Base 1.6
 (optional=templinst)_ZN5Eigen10MatrixBaseINS_5BlockINS_6MatrixIfLi3ELi3ELi0ELi3ELi3EEELi3ELi1ELb1ELb1EEEEaSINS_12CwiseUnaryOpINS_8internal19scalar_quotient1_opIfEEKNS2_IfLi3ELi1ELi0ELi3ELi1EEEEEEERS4_RKNS_9DenseBaseIT_EE@Base 1.6
 (optional=templinst)_ZN5Eigen10MatrixBaseINS_5BlockINS_6MatrixIfLi4ELi4ELi0ELi4ELi4EEELi3ELi3ELb0ELb1EEEEaSINS_9TransposeIKNS1_IKS3_Li3ELi3ELb0ELb1EEEEEEERS4_RKNS_9DenseBaseIT_EE@Base 1.6
 (optional=templinst)_ZN5Eigen10MatrixBaseINS_6MatrixIdLi3ELi1ELi0ELi3ELi1EEEE9normalizeEv@Base 1.6
 (optional=templinst)_ZN5Eigen10MatrixBaseINS_6MatrixIfLi3ELi1ELi0ELi3ELi1EEEE9normalizeEv@Base 1.6
 (optional=templinst)_ZN5Eigen10MatrixBaseINS_6MatrixIfLi3ELi1ELi0ELi3ELi1EEEEpLINS_12CwiseUnaryOpINS_8internal14scalar_cast_opIdfEEKNS5_INS6_18scalar_multiple_opIdEEKNS1_IdLi3ELi1ELi0ELi3ELi1EEEEEEEEERS2_RKNS0_IT_EE@Base 1.6
 (optional=templinst)_ZN5Eigen10MatrixBaseINS_6MatrixIfLi3ELi3ELi0ELi3ELi3EEEE11setIdentityEv@Base 1.6
 (optional=templinst)_ZN5Eigen11ProductBaseINS_14GeneralProductINS_5BlockINS2_INS_6MatrixIdLin1ELin1ELi0ELin1ELin1EEELin1ELi1ELb1ELb1EEELin1ELi1ELb0ELb1EEENS2_INS2_IS4_Li1ELin1ELb0ELb1EEELi1ELin1ELb0ELb1EEELi2EEES6_S8_ED1Ev@Base 1.6
 (optional=templinst)_ZN5Eigen11ProductBaseINS_14GeneralProductINS_5BlockINS2_INS_6MatrixIdLin1ELin1ELi0ELin1ELin1EEELin1ELi1ELb1ELb1EEELin1ELi1ELb0ELb1EEENS2_INS2_IS4_Li1ELin1ELb0ELb1EEELi1ELin1ELb0ELb1EEELi2EEES6_S8_ED2Ev@Base 1.6
 (optional=templinst)_ZN5Eigen11ProductBaseINS_14GeneralProductINS_5BlockINS2_INS_6MatrixIdLin1ELin1ELi0ELin1ELin1EEELin1ELin1ELb0ELb1EEELin1ELin1ELb0ELb1EEENS_9TransposeIKNS2_IS5_Li1ELin1ELb0ELb1EEEEELi4EEES6_SA_ED1Ev@Base 1.6
 (optional=templinst)_ZN5Eigen11ProductBaseINS_14GeneralProductINS_5BlockINS2_INS_6MatrixIdLin1ELin1ELi0ELin1ELin1EEELin1ELin1ELb0ELb1EEELin1ELin1ELb0ELb1EEENS_9TransposeIKNS2_IS5_Li1ELin1ELb0ELb1EEEEELi4EEES6_SA_ED2Ev@Base 1.6
 (optional=templinst)_ZN5Eigen11ProductBaseINS_14GeneralProductINS_5BlockINS_6MatrixIdLin1ELin1ELi0ELin1ELin1EEELin1ELin1ELb0ELb1EEENS_9TransposeIKNS2_IS4_Li1ELin1ELb0ELb1EEEEELi4EEES5_S9_ED1Ev@Base 1.6
 (optional=templinst)_ZN5Eigen11ProductBaseINS_14GeneralProductINS_5BlockINS_6MatrixIdLin1ELin1ELi0ELin1ELin1EEELin1ELin1ELb0ELb1EEENS_9TransposeIKNS2_IS4_Li1ELin1ELb0ELb1EEEEELi4EEES5_S9_ED2Ev@Base 1.6
 (optional=templinst)_ZN5Eigen11ProductBaseINS_14GeneralProductINS_6MatrixIdLin1ELin1ELi0ELin1ELin1EEENS2_IdLin1ELi1ELi0ELin1ELi1EEELi4EEES3_S4_ED1Ev@Base 1.6
 (optional=templinst)_ZN5Eigen11ProductBaseINS_14GeneralProductINS_6MatrixIdLin1ELin1ELi0ELin1ELin1EEENS2_IdLin1ELi1ELi0ELin1ELi1EEELi4EEES3_S4_ED2Ev@Base 1.6
 (optional=templinst)_ZN5Eigen11ProductBaseINS_14GeneralProductINS_6MatrixIdLin1ELin1ELi0ELin1ELin1EEENS_9TransposeIS3_EELi5EEES3_S5_ED1Ev@Base 1.6
 (optional=templinst)_ZN5Eigen11ProductBaseINS_14GeneralProductINS_6MatrixIdLin1ELin1ELi0ELin1ELin1EEENS_9TransposeIS3_EELi5EEES3_S5_ED2Ev@Base 1.6
 _ZN5Eigen12initParallelEv@Base 1.6
 (optional=templinst)_ZN5Eigen14GeneralProductINS_5BlockIKNS_6MatrixIdLin1ELin1ELi0ELin1ELin1EEELin1ELin1ELb0ELb1EEENS1_IS3_Lin1ELin1ELb0ELb1EEELi5EED1Ev@Base 1.6
 (optional=templinst)_ZN5Eigen14GeneralProductINS_5BlockIKNS_6MatrixIdLin1ELin1ELi0ELin1ELin1EEELin1ELin1ELb0ELb1EEENS1_IS3_Lin1ELin1ELb0ELb1EEELi5EED2Ev@Base 1.6
 (optional=templinst)_ZN5Eigen15PermutationBaseINS_17PermutationMatrixILin1ELin1EiEEE11setIdentityEi@Base 1.6
 (optional=templinst)_ZN5Eigen15PlainObjectBaseINS_6MatrixIbLin1ELi1ELi0ELin1ELi1EEEE10lazyAssignINS_14CwiseNullaryOpINS_8internal18scalar_constant_opIbEES2_EEEERS2_RKNS_9DenseBaseIT_EE@Base 1.6
 (optional=templinst)_ZN5Eigen15PlainObjectBaseINS_6MatrixIbLin1ELi1ELi0ELin1ELi1EEEE6resizeEll@Base 1.6
 (optional=templinst)_ZN5Eigen15PlainObjectBaseINS_6MatrixIdLi3ELi1ELi0ELi3ELi1EEEE12_set_noaliasINS_13CwiseBinaryOpINS_8internal20scalar_difference_opIdEEKNS5_IS8_KS2_KNS_12CwiseUnaryOpINS6_18scalar_multiple_opIdEES9_EEEESE_EEEERS2_RKNS_9DenseBaseIT_EE@Base 1.6
 (optional=templinst)_ZN5Eigen15PlainObjectBaseINS_6MatrixIdLi3ELi1ELi0ELi3ELi1EEEE12_set_noaliasIS2_EERS2_RKNS_9DenseBaseIT_EE@Base 1.6
 (optional=templinst)_ZN5Eigen15PlainObjectBaseINS_6MatrixIdLin1ELi1ELi0ELin1ELi1EEEE6resizeEll@Base 1.6
 (optional=templinst)_ZN5Eigen15PlainObjectBaseINS_6MatrixIdLin1ELi1ELi0ELin1ELi1EEEED1Ev@Base 1.6
 (optional=templinst)_ZN5Eigen15PlainObjectBaseINS_6MatrixIdLin1ELi1ELi0ELin1ELi1EEEED2Ev@Base 1.6
 (optional=templinst)_ZN5Eigen15PlainObjectBaseINS_6MatrixIdLin1ELin1ELi0ELin1ELin1EEEE10resizeLikeINS_14CwiseNullaryOpINS_8internal18scalar_constant_opIdEES2_EEEEvRKNS_9EigenBaseIT_EE@Base 1.6
 (optional=templinst)_ZN5Eigen15PlainObjectBaseINS_6MatrixIdLin1ELin1ELi0ELin1ELin1EEEE10resizeLikeINS_14GeneralProductIS2_NS_9TransposeIS2_EELi5EEEEEvRKNS_9EigenBaseIT_EE@Base 1.6
 (optional=templinst)_ZN5Eigen15PlainObjectBaseINS_6MatrixIdLin1ELin1ELi0ELin1ELin1EEEE10resizeLikeINS_15DiagonalProductIS2_NS_15DiagonalWrapperIKNS1_IdLin1ELi1ELi0ELin1ELi1EEEEELi2EEEEEvRKNS_9EigenBaseIT_EE@Base 1.6
 (optional=templinst)_ZN5Eigen15PlainObjectBaseINS_6MatrixIdLin1ELin1ELi0ELin1ELin1EEEE10resizeLikeIS2_EEvRKNS_9EigenBaseIT_EE@Base 1.6
 (optional=templinst)_ZN5Eigen15PlainObjectBaseINS_6MatrixIdLin1ELin1ELi0ELin1ELin1EEEE6resizeEll@Base 1.6
 (optional=templinst)_ZN5Eigen15PlainObjectBaseINS_6MatrixIdLin1ELin1ELi0ELin1ELin1EEEED1Ev@Base 1.6
 (optional=templinst)_ZN5Eigen15PlainObjectBaseINS_6MatrixIdLin1ELin1ELi0ELin1ELin1EEEED2Ev@Base 1.6
 (optional=templinst)_ZN5Eigen15PlainObjectBaseINS_6MatrixIfLi3ELi1ELi0ELi3ELi1EEEE10lazyAssignINS_12CwiseUnaryOpINS_8internal19scalar_quotient1_opIfEEKS2_EEEERS2_RKNS_9DenseBaseIT_EE@Base 1.6
 (optional=templinst)_ZN5Eigen15PlainObjectBaseINS_6MatrixIfLi3ELi1ELi0ELi3ELi1EEEE10lazyAssignINS_13CwiseBinaryOpINS_8internal20scalar_difference_opIfEEKNS_3MapIKS2_Li0ENS_6StrideILi0ELi0EEEEESE_EEEERS2_RKNS_9DenseBaseIT_EE@Base 1.6
 (optional=templinst)_ZN5Eigen15PlainObjectBaseINS_6MatrixIfLi3ELi1ELi0ELi3ELi1EEEE10lazyAssignINS_13CwiseBinaryOpINS_8internal20scalar_difference_opIfEEKS2_KNS_3MapIS9_Li0ENS_6StrideILi0ELi0EEEEEEEEERS2_RKNS_9DenseBaseIT_EE@Base 1.6
 (optional=templinst)_ZN5Eigen15PlainObjectBaseINS_6MatrixIfLi3ELi3ELi0ELi3ELi3EEEE12_set_noaliasIS2_EERS2_RKNS_9DenseBaseIT_EE@Base 1.6
 (optional=templinst)_ZN5Eigen15PlainObjectBaseINS_6MatrixIfLi4ELi1ELi0ELi4ELi1EEEE12_set_noaliasINS_13CwiseBinaryOpINS_8internal13scalar_sum_opIfEEKS2_KNS_12CwiseUnaryOpINS6_18scalar_multiple_opIfEEKNS5_INS6_20scalar_difference_opIfEES9_S9_EEEEEEEERS2_RKNS_9DenseBaseIT_EE@Base 1.6
 (optional=templinst)_ZN5Eigen17PermutationMatrixILin1ELin1EiED1Ev@Base 1.6
 (optional=templinst)_ZN5Eigen17PermutationMatrixILin1ELin1EiED2Ev@Base 1.6
 (optional=templinst)_ZN5Eigen3LLTINS_6MatrixIdLin1ELin1ELi0ELin1ELin1EEELi1EE7computeERKS2_@Base 1.6
 (optional=templinst)_ZN5Eigen3LLTINS_6MatrixIdLin1ELin1ELi0ELin1ELin1EEELi1EEC1ERKS2_@Base 1.6
 (optional=templinst)_ZN5Eigen3LLTINS_6MatrixIdLin1ELin1ELi0ELin1ELin1EEELi1EEC2ERKS2_@Base 1.6
 (optional=templinst)_ZN5Eigen6MatrixIbLin1ELi1ELi0ELin1ELi1EEC1El@Base 1.6
 (optional=templinst)_ZN5Eigen6MatrixIbLin1ELi1ELi0ELin1ELi1EEC2El@Base 1.6
 (optional=templinst)_ZN5Eigen6MatrixIbLin1ELi1ELi0ELin1ELi1EED1Ev@Base 1.6
 (optional=templinst)_ZN5Eigen6MatrixIbLin1ELi1ELi0ELin1ELi1EED2Ev@Base 1.6
 (optional=templinst)_ZN5Eigen6MatrixIdLin1ELi1ELi0ELin1ELi1EEC1ERKS1_@Base 1.6
 (optional=templinst)_ZN5Eigen6MatrixIdLin1ELi1ELi0ELin1ELi1EEC1INS_14GeneralProductINS0_IdLin1ELin1ELi0ELin1ELin1EEES1_Li4EEEEERKNS_10MatrixBaseIT_EE@Base 1.6
 (optional=templinst)_ZN5Eigen6MatrixIdLin1ELi1ELi0ELin1ELi1EEC2ERKS1_@Base 1.6
 (optional=templinst)_ZN5Eigen6MatrixIdLin1ELi1ELi0ELin1ELi1EEC2INS_14GeneralProductINS0_IdLin1ELin1ELi0ELin1ELin1EEES1_Li4EEEEERKNS_10MatrixBaseIT_EE@Base 1.6
 (optional=templinst)_ZN5Eigen6MatrixIdLin1ELi1ELi0ELin1ELi1EED1Ev@Base 1.6
 (optional=templinst)_ZN5Eigen6MatrixIdLin1ELi1ELi0ELin1ELi1EED2Ev@Base 1.6
 (optional=templinst)_ZN5Eigen6MatrixIdLin1ELin1ELi0ELin1ELin1EEC1INS_14GeneralProductIS1_NS_9TransposeIS1_EELi5EEEEERKNS_10MatrixBaseIT_EE@Base 1.6
 (optional=templinst)_ZN5Eigen6MatrixIdLin1ELin1ELi0ELin1ELin1EEC1IiiEERKT_RKT0_@Base 1.6
 (optional=templinst)_ZN5Eigen6MatrixIdLin1ELin1ELi0ELin1ELin1EEC1IimEERKT_RKT0_@Base 1.6
 (optional=templinst)_ZN5Eigen6MatrixIdLin1ELin1ELi0ELin1ELin1EEC2INS_14GeneralProductIS1_NS_9TransposeIS1_EELi5EEEEERKNS_10MatrixBaseIT_EE@Base 1.6
 (optional=templinst)_ZN5Eigen6MatrixIdLin1ELin1ELi0ELin1ELin1EEC2IiiEERKT_RKT0_@Base 1.6
 (optional=templinst)_ZN5Eigen6MatrixIdLin1ELin1ELi0ELin1ELin1EEC2IimEERKT_RKT0_@Base 1.6
 (optional=templinst)_ZN5Eigen6MatrixIdLin1ELin1ELi0ELin1ELin1EED1Ev@Base 1.6
 (optional=templinst)_ZN5Eigen6MatrixIdLin1ELin1ELi0ELin1ELin1EED2Ev@Base 1.6
 (optional=templinst)_ZN5Eigen6MatrixIfLi3ELi1ELi0ELi3ELi1EEC1INS0_IfLi1ELi3ELi1ELi1ELi3EEEEERKNS_10MatrixBaseIT_EE@Base 1.6
 (optional=templinst)_ZN5Eigen6MatrixIfLi3ELi1ELi0ELi3ELi1EEC1INS_3MapIKS1_Li0ENS_6StrideILi0ELi0EEEEEEERKNS_10MatrixBaseIT_EE@Base 1.6
 (optional=templinst)_ZN5Eigen6MatrixIfLi3ELi1ELi0ELi3ELi1EEC2INS0_IfLi1ELi3ELi1ELi1ELi3EEEEERKNS_10MatrixBaseIT_EE@Base 1.6
