# SymbolsHelper-Confirmed: 1.6 amd64
libpcl_tracking.so.1.6 libpcl-tracking1.6 #MINVER#
 _ZGVZN3pcl8tracking21ParticleFilterTrackerINS_11PointNormalENS0_11ParticleXYREE21sampleWithReplacementERKSt6vectorIiSaIiEERKS5_IdSaIdEEE3gen@Base 1.6
 _ZGVZN3pcl8tracking21ParticleFilterTrackerINS_11PointNormalENS0_12ParticleXYRPEE21sampleWithReplacementERKSt6vectorIiSaIiEERKS5_IdSaIdEEE3gen@Base 1.6
 _ZGVZN3pcl8tracking21ParticleFilterTrackerINS_11PointNormalENS0_12ParticleXYZREE21sampleWithReplacementERKSt6vectorIiSaIiEERKS5_IdSaIdEEE3gen@Base 1.6
 _ZGVZN3pcl8tracking21ParticleFilterTrackerINS_11PointNormalENS0_13ParticleXYRPYEE21sampleWithReplacementERKSt6vectorIiSaIiEERKS5_IdSaIdEEE3gen@Base 1.6
 _ZGVZN3pcl8tracking21ParticleFilterTrackerINS_11PointNormalENS0_14ParticleXYZRPYEE21sampleWithReplacementERKSt6vectorIiSaIiEERKS5_IdSaIdEEE3gen@Base 1.6
 _ZGVZN3pcl8tracking21ParticleFilterTrackerINS_11PointXYZRGBENS0_11ParticleXYREE21sampleWithReplacementERKSt6vectorIiSaIiEERKS5_IdSaIdEEE3gen@Base 1.6
 _ZGVZN3pcl8tracking21ParticleFilterTrackerINS_11PointXYZRGBENS0_12ParticleXYRPEE21sampleWithReplacementERKSt6vectorIiSaIiEERKS5_IdSaIdEEE3gen@Base 1.6
 _ZGVZN3pcl8tracking21ParticleFilterTrackerINS_11PointXYZRGBENS0_12ParticleXYZREE21sampleWithReplacementERKSt6vectorIiSaIiEERKS5_IdSaIdEEE3gen@Base 1.6
 _ZGVZN3pcl8tracking21ParticleFilterTrackerINS_11PointXYZRGBENS0_13ParticleXYRPYEE21sampleWithReplacementERKSt6vectorIiSaIiEERKS5_IdSaIdEEE3gen@Base 1.6
 _ZGVZN3pcl8tracking21ParticleFilterTrackerINS_11PointXYZRGBENS0_14ParticleXYZRPYEE21sampleWithReplacementERKSt6vectorIiSaIiEERKS5_IdSaIdEEE3gen@Base 1.6
 _ZGVZN3pcl8tracking21ParticleFilterTrackerINS_12PointXYZRGBAENS0_11ParticleXYREE21sampleWithReplacementERKSt6vectorIiSaIiEERKS5_IdSaIdEEE3gen@Base 1.6
 _ZGVZN3pcl8tracking21ParticleFilterTrackerINS_12PointXYZRGBAENS0_12ParticleXYRPEE21sampleWithReplacementERKSt6vectorIiSaIiEERKS5_IdSaIdEEE3gen@Base 1.6
 _ZGVZN3pcl8tracking21ParticleFilterTrackerINS_12PointXYZRGBAENS0_12ParticleXYZREE21sampleWithReplacementERKSt6vectorIiSaIiEERKS5_IdSaIdEEE3gen@Base 1.6
 _ZGVZN3pcl8tracking21ParticleFilterTrackerINS_12PointXYZRGBAENS0_13ParticleXYRPYEE21sampleWithReplacementERKSt6vectorIiSaIiEERKS5_IdSaIdEEE3gen@Base 1.6
 _ZGVZN3pcl8tracking21ParticleFilterTrackerINS_12PointXYZRGBAENS0_14ParticleXYZRPYEE21sampleWithReplacementERKSt6vectorIiSaIiEERKS5_IdSaIdEEE3gen@Base 1.6
 _ZGVZN3pcl8tracking21ParticleFilterTrackerINS_13InterestPointENS0_11ParticleXYREE21sampleWithReplacementERKSt6vectorIiSaIiEERKS5_IdSaIdEEE3gen@Base 1.6
 _ZGVZN3pcl8tracking21ParticleFilterTrackerINS_13InterestPointENS0_12ParticleXYRPEE21sampleWithReplacementERKSt6vectorIiSaIiEERKS5_IdSaIdEEE3gen@Base 1.6
 _ZGVZN3pcl8tracking21ParticleFilterTrackerINS_13InterestPointENS0_12ParticleXYZREE21sampleWithReplacementERKSt6vectorIiSaIiEERKS5_IdSaIdEEE3gen@Base 1.6
 _ZGVZN3pcl8tracking21ParticleFilterTrackerINS_13InterestPointENS0_13ParticleXYRPYEE21sampleWithReplacementERKSt6vectorIiSaIiEERKS5_IdSaIdEEE3gen@Base 1.6
 _ZGVZN3pcl8tracking21ParticleFilterTrackerINS_13InterestPointENS0_14ParticleXYZRPYEE21sampleWithReplacementERKSt6vectorIiSaIiEERKS5_IdSaIdEEE3gen@Base 1.6
 _ZGVZN3pcl8tracking21ParticleFilterTrackerINS_14PointWithRangeENS0_11ParticleXYREE21sampleWithReplacementERKSt6vectorIiSaIiEERKS5_IdSaIdEEE3gen@Base 1.6
 _ZGVZN3pcl8tracking21ParticleFilterTrackerINS_14PointWithRangeENS0_12ParticleXYRPEE21sampleWithReplacementERKSt6vectorIiSaIiEERKS5_IdSaIdEEE3gen@Base 1.6
 _ZGVZN3pcl8tracking21ParticleFilterTrackerINS_14PointWithRangeENS0_12ParticleXYZREE21sampleWithReplacementERKSt6vectorIiSaIiEERKS5_IdSaIdEEE3gen@Base 1.6
 _ZGVZN3pcl8tracking21ParticleFilterTrackerINS_14PointWithRangeENS0_13ParticleXYRPYEE21sampleWithReplacementERKSt6vectorIiSaIiEERKS5_IdSaIdEEE3gen@Base 1.6
 _ZGVZN3pcl8tracking21ParticleFilterTrackerINS_14PointWithRangeENS0_14ParticleXYZRPYEE21sampleWithReplacementERKSt6vectorIiSaIiEERKS5_IdSaIdEEE3gen@Base 1.6
 _ZGVZN3pcl8tracking21ParticleFilterTrackerINS_14PointWithScaleENS0_11ParticleXYREE21sampleWithReplacementERKSt6vectorIiSaIiEERKS5_IdSaIdEEE3gen@Base 1.6
 _ZGVZN3pcl8tracking21ParticleFilterTrackerINS_14PointWithScaleENS0_12ParticleXYRPEE21sampleWithReplacementERKSt6vectorIiSaIiEERKS5_IdSaIdEEE3gen@Base 1.6
 _ZGVZN3pcl8tracking21ParticleFilterTrackerINS_14PointWithScaleENS0_12ParticleXYZREE21sampleWithReplacementERKSt6vectorIiSaIiEERKS5_IdSaIdEEE3gen@Base 1.6
 _ZGVZN3pcl8tracking21ParticleFilterTrackerINS_14PointWithScaleENS0_13ParticleXYRPYEE21sampleWithReplacementERKSt6vectorIiSaIiEERKS5_IdSaIdEEE3gen@Base 1.6
 _ZGVZN3pcl8tracking21ParticleFilterTrackerINS_14PointWithScaleENS0_14ParticleXYZRPYEE21sampleWithReplacementERKSt6vectorIiSaIiEERKS5_IdSaIdEEE3gen@Base 1.6
 _ZGVZN3pcl8tracking21ParticleFilterTrackerINS_15PointXYZINormalENS0_11ParticleXYREE21sampleWithReplacementERKSt6vectorIiSaIiEERKS5_IdSaIdEEE3gen@Base 1.6
 _ZGVZN3pcl8tracking21ParticleFilterTrackerINS_15PointXYZINormalENS0_12ParticleXYRPEE21sampleWithReplacementERKSt6vectorIiSaIiEERKS5_IdSaIdEEE3gen@Base 1.6
 _ZGVZN3pcl8tracking21ParticleFilterTrackerINS_15PointXYZINormalENS0_12ParticleXYZREE21sampleWithReplacementERKSt6vectorIiSaIiEERKS5_IdSaIdEEE3gen@Base 1.6
 _ZGVZN3pcl8tracking21ParticleFilterTrackerINS_15PointXYZINormalENS0_13ParticleXYRPYEE21sampleWithReplacementERKSt6vectorIiSaIiEERKS5_IdSaIdEEE3gen@Base 1.6
 _ZGVZN3pcl8tracking21ParticleFilterTrackerINS_15PointXYZINormalENS0_14ParticleXYZRPYEE21sampleWithReplacementERKSt6vectorIiSaIiEERKS5_IdSaIdEEE3gen@Base 1.6
 _ZGVZN3pcl8tracking21ParticleFilterTrackerINS_17PointXYZRGBNormalENS0_11ParticleXYREE21sampleWithReplacementERKSt6vectorIiSaIiEERKS5_IdSaIdEEE3gen@Base 1.6
 _ZGVZN3pcl8tracking21ParticleFilterTrackerINS_17PointXYZRGBNormalENS0_12ParticleXYRPEE21sampleWithReplacementERKSt6vectorIiSaIiEERKS5_IdSaIdEEE3gen@Base 1.6
 _ZGVZN3pcl8tracking21ParticleFilterTrackerINS_17PointXYZRGBNormalENS0_12ParticleXYZREE21sampleWithReplacementERKSt6vectorIiSaIiEERKS5_IdSaIdEEE3gen@Base 1.6
 _ZGVZN3pcl8tracking21ParticleFilterTrackerINS_17PointXYZRGBNormalENS0_13ParticleXYRPYEE21sampleWithReplacementERKSt6vectorIiSaIiEERKS5_IdSaIdEEE3gen@Base 1.6
 _ZGVZN3pcl8tracking21ParticleFilterTrackerINS_17PointXYZRGBNormalENS0_14ParticleXYZRPYEE21sampleWithReplacementERKSt6vectorIiSaIiEERKS5_IdSaIdEEE3gen@Base 1.6
 _ZGVZN3pcl8tracking21ParticleFilterTrackerINS_18PointWithViewpointENS0_11ParticleXYREE21sampleWithReplacementERKSt6vectorIiSaIiEERKS5_IdSaIdEEE3gen@Base 1.6
 _ZGVZN3pcl8tracking21ParticleFilterTrackerINS_18PointWithViewpointENS0_12ParticleXYRPEE21sampleWithReplacementERKSt6vectorIiSaIiEERKS5_IdSaIdEEE3gen@Base 1.6
 _ZGVZN3pcl8tracking21ParticleFilterTrackerINS_18PointWithViewpointENS0_12ParticleXYZREE21sampleWithReplacementERKSt6vectorIiSaIiEERKS5_IdSaIdEEE3gen@Base 1.6
 _ZGVZN3pcl8tracking21ParticleFilterTrackerINS_18PointWithViewpointENS0_13ParticleXYRPYEE21sampleWithReplacementERKSt6vectorIiSaIiEERKS5_IdSaIdEEE3gen@Base 1.6
 _ZGVZN3pcl8tracking21ParticleFilterTrackerINS_18PointWithViewpointENS0_14ParticleXYZRPYEE21sampleWithReplacementERKSt6vectorIiSaIiEERKS5_IdSaIdEEE3gen@Base 1.6
 _ZGVZN3pcl8tracking21ParticleFilterTrackerINS_8PointXYZENS0_11ParticleXYREE21sampleWithReplacementERKSt6vectorIiSaIiEERKS5_IdSaIdEEE3gen@Base 1.6
 _ZGVZN3pcl8tracking21ParticleFilterTrackerINS_8PointXYZENS0_12ParticleXYRPEE21sampleWithReplacementERKSt6vectorIiSaIiEERKS5_IdSaIdEEE3gen@Base 1.6
 _ZGVZN3pcl8tracking21ParticleFilterTrackerINS_8PointXYZENS0_12ParticleXYZREE21sampleWithReplacementERKSt6vectorIiSaIiEERKS5_IdSaIdEEE3gen@Base 1.6
 _ZGVZN3pcl8tracking21ParticleFilterTrackerINS_8PointXYZENS0_13ParticleXYRPYEE21sampleWithReplacementERKSt6vectorIiSaIiEERKS5_IdSaIdEEE3gen@Base 1.6
 _ZGVZN3pcl8tracking21ParticleFilterTrackerINS_8PointXYZENS0_14ParticleXYZRPYEE21sampleWithReplacementERKSt6vectorIiSaIiEERKS5_IdSaIdEEE3gen@Base 1.6
 _ZGVZN3pcl8tracking21ParticleFilterTrackerINS_9PointXYZIENS0_11ParticleXYREE21sampleWithReplacementERKSt6vectorIiSaIiEERKS5_IdSaIdEEE3gen@Base 1.6
 _ZGVZN3pcl8tracking21ParticleFilterTrackerINS_9PointXYZIENS0_12ParticleXYRPEE21sampleWithReplacementERKSt6vectorIiSaIiEERKS5_IdSaIdEEE3gen@Base 1.6
 _ZGVZN3pcl8tracking21ParticleFilterTrackerINS_9PointXYZIENS0_12ParticleXYZREE21sampleWithReplacementERKSt6vectorIiSaIiEERKS5_IdSaIdEEE3gen@Base 1.6
 _ZGVZN3pcl8tracking21ParticleFilterTrackerINS_9PointXYZIENS0_13ParticleXYRPYEE21sampleWithReplacementERKSt6vectorIiSaIiEERKS5_IdSaIdEEE3gen@Base 1.6
 _ZGVZN3pcl8tracking21ParticleFilterTrackerINS_9PointXYZIENS0_14ParticleXYZRPYEE21sampleWithReplacementERKSt6vectorIiSaIiEERKS5_IdSaIdEEE3gen@Base 1.6
 (optional=templinst)_ZN3pcl10PointCloudINS_11PointNormalEEC1Ev@Base 1.6
 (optional=templinst)_ZN3pcl10PointCloudINS_11PointNormalEEC2Ev@Base 1.6
 (optional=templinst)_ZN3pcl10PointCloudINS_11PointNormalEED0Ev@Base 1.6
 (optional=templinst)_ZN3pcl10PointCloudINS_11PointNormalEED1Ev@Base 1.6
 (optional=templinst)_ZN3pcl10PointCloudINS_11PointNormalEED2Ev@Base 1.6
 (optional=templinst)_ZN3pcl10PointCloudINS_11PointXYZRGBEEC1Ev@Base 1.6
 (optional=templinst)_ZN3pcl10PointCloudINS_11PointXYZRGBEEC2Ev@Base 1.6
 (optional=templinst)_ZN3pcl10PointCloudINS_11PointXYZRGBEED0Ev@Base 1.6
 (optional=templinst)_ZN3pcl10PointCloudINS_11PointXYZRGBEED1Ev@Base 1.6
 (optional=templinst)_ZN3pcl10PointCloudINS_11PointXYZRGBEED2Ev@Base 1.6
 (optional=templinst)_ZN3pcl10PointCloudINS_12PointXYZRGBAEEC1Ev@Base 1.6
 (optional=templinst)_ZN3pcl10PointCloudINS_12PointXYZRGBAEEC2Ev@Base 1.6
 (optional=templinst)_ZN3pcl10PointCloudINS_12PointXYZRGBAEED0Ev@Base 1.6
 (optional=templinst)_ZN3pcl10PointCloudINS_12PointXYZRGBAEED1Ev@Base 1.6
 (optional=templinst)_ZN3pcl10PointCloudINS_12PointXYZRGBAEED2Ev@Base 1.6
 (optional=templinst)_ZN3pcl10PointCloudINS_13InterestPointEEC1Ev@Base 1.6
 (optional=templinst)_ZN3pcl10PointCloudINS_13InterestPointEEC2Ev@Base 1.6
 (optional=templinst)_ZN3pcl10PointCloudINS_13InterestPointEED0Ev@Base 1.6
 (optional=templinst)_ZN3pcl10PointCloudINS_13InterestPointEED1Ev@Base 1.6
 (optional=templinst)_ZN3pcl10PointCloudINS_13InterestPointEED2Ev@Base 1.6
 (optional=templinst)_ZN3pcl10PointCloudINS_14PointWithRangeEEC1Ev@Base 1.6
 (optional=templinst)_ZN3pcl10PointCloudINS_14PointWithRangeEEC2Ev@Base 1.6
 (optional=templinst)_ZN3pcl10PointCloudINS_14PointWithRangeEED0Ev@Base 1.6
 (optional=templinst)_ZN3pcl10PointCloudINS_14PointWithRangeEED1Ev@Base 1.6
 (optional=templinst)_ZN3pcl10PointCloudINS_14PointWithRangeEED2Ev@Base 1.6
 (optional=templinst)_ZN3pcl10PointCloudINS_14PointWithScaleEEC1Ev@Base 1.6
 (optional=templinst)_ZN3pcl10PointCloudINS_14PointWithScaleEEC2Ev@Base 1.6
 (optional=templinst)_ZN3pcl10PointCloudINS_14PointWithScaleEED0Ev@Base 1.6
 (optional=templinst)_ZN3pcl10PointCloudINS_14PointWithScaleEED1Ev@Base 1.6
 (optional=templinst)_ZN3pcl10PointCloudINS_14PointWithScaleEED2Ev@Base 1.6
 (optional=templinst)_ZN3pcl10PointCloudINS_15PointXYZINormalEEC1Ev@Base 1.6
 (optional=templinst)_ZN3pcl10PointCloudINS_15PointXYZINormalEEC2Ev@Base 1.6
 (optional=templinst)_ZN3pcl10PointCloudINS_15PointXYZINormalEED0Ev@Base 1.6
 (optional=templinst)_ZN3pcl10PointCloudINS_15PointXYZINormalEED1Ev@Base 1.6
 (optional=templinst)_ZN3pcl10PointCloudINS_15PointXYZINormalEED2Ev@Base 1.6
 (optional=templinst)_ZN3pcl10PointCloudINS_17PointXYZRGBNormalEEC1Ev@Base 1.6
 (optional=templinst)_ZN3pcl10PointCloudINS_17PointXYZRGBNormalEEC2Ev@Base 1.6
 (optional=templinst)_ZN3pcl10PointCloudINS_17PointXYZRGBNormalEED0Ev@Base 1.6
 (optional=templinst)_ZN3pcl10PointCloudINS_17PointXYZRGBNormalEED1Ev@Base 1.6
 (optional=templinst)_ZN3pcl10PointCloudINS_17PointXYZRGBNormalEED2Ev@Base 1.6
 (optional=templinst)_ZN3pcl10PointCloudINS_18PointWithViewpointEEC1Ev@Base 1.6
 (optional=templinst)_ZN3pcl10PointCloudINS_18PointWithViewpointEEC2Ev@Base 1.6
 (optional=templinst)_ZN3pcl10PointCloudINS_18PointWithViewpointEED0Ev@Base 1.6
 (optional=templinst)_ZN3pcl10PointCloudINS_18PointWithViewpointEED1Ev@Base 1.6
 (optional=templinst)_ZN3pcl10PointCloudINS_18PointWithViewpointEED2Ev@Base 1.6
 (optional=templinst)_ZN3pcl10PointCloudINS_8PointXYZEEC1Ev@Base 1.6
 (optional=templinst)_ZN3pcl10PointCloudINS_8PointXYZEEC2Ev@Base 1.6
 (optional=templinst)_ZN3pcl10PointCloudINS_8PointXYZEED0Ev@Base 1.6
 (optional=templinst)_ZN3pcl10PointCloudINS_8PointXYZEED1Ev@Base 1.6
 (optional=templinst)_ZN3pcl10PointCloudINS_8PointXYZEED2Ev@Base 1.6
 (optional=templinst)_ZN3pcl10PointCloudINS_8tracking11ParticleXYREEC1Ev@Base 1.6
 (optional=templinst)_ZN3pcl10PointCloudINS_8tracking11ParticleXYREEC2Ev@Base 1.6
 (optional=templinst)_ZN3pcl10PointCloudINS_8tracking11ParticleXYREED0Ev@Base 1.6
 (optional=templinst)_ZN3pcl10PointCloudINS_8tracking11ParticleXYREED1Ev@Base 1.6
 (optional=templinst)_ZN3pcl10PointCloudINS_8tracking11ParticleXYREED2Ev@Base 1.6
 (optional=templinst)_ZN3pcl10PointCloudINS_8tracking12ParticleXYRPEEC1Ev@Base 1.6
 (optional=templinst)_ZN3pcl10PointCloudINS_8tracking12ParticleXYRPEEC2Ev@Base 1.6
 (optional=templinst)_ZN3pcl10PointCloudINS_8tracking12ParticleXYRPEED0Ev@Base 1.6
 (optional=templinst)_ZN3pcl10PointCloudINS_8tracking12ParticleXYRPEED1Ev@Base 1.6
 (optional=templinst)_ZN3pcl10PointCloudINS_8tracking12ParticleXYRPEED2Ev@Base 1.6
 (optional=templinst)_ZN3pcl10PointCloudINS_8tracking12ParticleXYZREEC1Ev@Base 1.6
 (optional=templinst)_ZN3pcl10PointCloudINS_8tracking12ParticleXYZREEC2Ev@Base 1.6
 (optional=templinst)_ZN3pcl10PointCloudINS_8tracking12ParticleXYZREED0Ev@Base 1.6
 (optional=templinst)_ZN3pcl10PointCloudINS_8tracking12ParticleXYZREED1Ev@Base 1.6
 (optional=templinst)_ZN3pcl10PointCloudINS_8tracking12ParticleXYZREED2Ev@Base 1.6
 (optional=templinst)_ZN3pcl10PointCloudINS_8tracking13ParticleXYRPYEEC1Ev@Base 1.6
 (optional=templinst)_ZN3pcl10PointCloudINS_8tracking13ParticleXYRPYEEC2Ev@Base 1.6
 (optional=templinst)_ZN3pcl10PointCloudINS_8tracking13ParticleXYRPYEED0Ev@Base 1.6
 (optional=templinst)_ZN3pcl10PointCloudINS_8tracking13ParticleXYRPYEED1Ev@Base 1.6
 (optional=templinst)_ZN3pcl10PointCloudINS_8tracking13ParticleXYRPYEED2Ev@Base 1.6
 (optional=templinst)_ZN3pcl10PointCloudINS_8tracking14ParticleXYZRPYEEC1Ev@Base 1.6
 (optional=templinst)_ZN3pcl10PointCloudINS_8tracking14ParticleXYZRPYEEC2Ev@Base 1.6
 (optional=templinst)_ZN3pcl10PointCloudINS_8tracking14ParticleXYZRPYEED0Ev@Base 1.6
 (optional=templinst)_ZN3pcl10PointCloudINS_8tracking14ParticleXYZRPYEED1Ev@Base 1.6
 (optional=templinst)_ZN3pcl10PointCloudINS_8tracking14ParticleXYZRPYEED2Ev@Base 1.6
 (optional=templinst)_ZN3pcl10PointCloudINS_9PointXYZIEEC1Ev@Base 1.6
 (optional=templinst)_ZN3pcl10PointCloudINS_9PointXYZIEEC2Ev@Base 1.6
 (optional=templinst)_ZN3pcl10PointCloudINS_9PointXYZIEED0Ev@Base 1.6
 (optional=templinst)_ZN3pcl10PointCloudINS_9PointXYZIEED1Ev@Base 1.6
 (optional=templinst)_ZN3pcl10PointCloudINS_9PointXYZIEED2Ev@Base 1.6
 (optional=templinst)_ZN3pcl11KdTreeFLANNINS_11PointNormalEN5flann9L2_SimpleIfEEE10setEpsilonEf@Base 1.6
 (optional=templinst)_ZN3pcl11KdTreeFLANNINS_11PointNormalEN5flann9L2_SimpleIfEEED0Ev@Base 1.6
 (optional=templinst)_ZN3pcl11KdTreeFLANNINS_11PointNormalEN5flann9L2_SimpleIfEEED1Ev@Base 1.6
 (optional=templinst)_ZN3pcl11KdTreeFLANNINS_11PointNormalEN5flann9L2_SimpleIfEEED2Ev@Base 1.6
 (optional=templinst)_ZN3pcl11KdTreeFLANNINS_11PointXYZHSVEN5flann9L2_SimpleIfEEE10setEpsilonEf@Base 1.6
 (optional=templinst)_ZN3pcl11KdTreeFLANNINS_11PointXYZHSVEN5flann9L2_SimpleIfEEED0Ev@Base 1.6
 (optional=templinst)_ZN3pcl11KdTreeFLANNINS_11PointXYZHSVEN5flann9L2_SimpleIfEEED1Ev@Base 1.6
 (optional=templinst)_ZN3pcl11KdTreeFLANNINS_11PointXYZHSVEN5flann9L2_SimpleIfEEED2Ev@Base 1.6
 (optional=templinst)_ZN3pcl11KdTreeFLANNINS_11PointXYZRGBEN5flann9L2_SimpleIfEEE10setEpsilonEf@Base 1.6
 (optional=templinst)_ZN3pcl11KdTreeFLANNINS_11PointXYZRGBEN5flann9L2_SimpleIfEEED0Ev@Base 1.6
 (optional=templinst)_ZN3pcl11KdTreeFLANNINS_11PointXYZRGBEN5flann9L2_SimpleIfEEED1Ev@Base 1.6
 (optional=templinst)_ZN3pcl11KdTreeFLANNINS_11PointXYZRGBEN5flann9L2_SimpleIfEEED2Ev@Base 1.6
 (optional=templinst)_ZN3pcl11KdTreeFLANNINS_12PointXYZRGBAEN5flann9L2_SimpleIfEEE10setEpsilonEf@Base 1.6
 (optional=templinst)_ZN3pcl11KdTreeFLANNINS_12PointXYZRGBAEN5flann9L2_SimpleIfEEED0Ev@Base 1.6
 (optional=templinst)_ZN3pcl11KdTreeFLANNINS_12PointXYZRGBAEN5flann9L2_SimpleIfEEED1Ev@Base 1.6
 (optional=templinst)_ZN3pcl11KdTreeFLANNINS_12PointXYZRGBAEN5flann9L2_SimpleIfEEED2Ev@Base 1.6
 (optional=templinst)_ZN3pcl11KdTreeFLANNINS_12PointXYZRGBLEN5flann9L2_SimpleIfEEE10setEpsilonEf@Base 1.6
 (optional=templinst)_ZN3pcl11KdTreeFLANNINS_12PointXYZRGBLEN5flann9L2_SimpleIfEEED0Ev@Base 1.6
 (optional=templinst)_ZN3pcl11KdTreeFLANNINS_12PointXYZRGBLEN5flann9L2_SimpleIfEEED1Ev@Base 1.6
 (optional=templinst)_ZN3pcl11KdTreeFLANNINS_12PointXYZRGBLEN5flann9L2_SimpleIfEEED2Ev@Base 1.6
 (optional=templinst)_ZN3pcl11KdTreeFLANNINS_13InterestPointEN5flann9L2_SimpleIfEEE10setEpsilonEf@Base 1.6
 (optional=templinst)_ZN3pcl11KdTreeFLANNINS_13InterestPointEN5flann9L2_SimpleIfEEED0Ev@Base 1.6
 (optional=templinst)_ZN3pcl11KdTreeFLANNINS_13InterestPointEN5flann9L2_SimpleIfEEED1Ev@Base 1.6
 (optional=templinst)_ZN3pcl11KdTreeFLANNINS_13InterestPointEN5flann9L2_SimpleIfEEED2Ev@Base 1.6
 (optional=templinst)_ZN3pcl11KdTreeFLANNINS_14PointWithRangeEN5flann9L2_SimpleIfEEE10setEpsilonEf@Base 1.6
 (optional=templinst)_ZN3pcl11KdTreeFLANNINS_14PointWithRangeEN5flann9L2_SimpleIfEEED0Ev@Base 1.6
 (optional=templinst)_ZN3pcl11KdTreeFLANNINS_14PointWithRangeEN5flann9L2_SimpleIfEEED1Ev@Base 1.6
 (optional=templinst)_ZN3pcl11KdTreeFLANNINS_14PointWithRangeEN5flann9L2_SimpleIfEEED2Ev@Base 1.6
 (optional=templinst)_ZN3pcl11KdTreeFLANNINS_14PointWithScaleEN5flann9L2_SimpleIfEEE10setEpsilonEf@Base 1.6
 (optional=templinst)_ZN3pcl11KdTreeFLANNINS_14PointWithScaleEN5flann9L2_SimpleIfEEED0Ev@Base 1.6
 (optional=templinst)_ZN3pcl11KdTreeFLANNINS_14PointWithScaleEN5flann9L2_SimpleIfEEED1Ev@Base 1.6
 (optional=templinst)_ZN3pcl11KdTreeFLANNINS_14PointWithScaleEN5flann9L2_SimpleIfEEED2Ev@Base 1.6
 (optional=templinst)_ZN3pcl11KdTreeFLANNINS_15PointXYZINormalEN5flann9L2_SimpleIfEEE10setEpsilonEf@Base 1.6
 (optional=templinst)_ZN3pcl11KdTreeFLANNINS_15PointXYZINormalEN5flann9L2_SimpleIfEEED0Ev@Base 1.6
 (optional=templinst)_ZN3pcl11KdTreeFLANNINS_15PointXYZINormalEN5flann9L2_SimpleIfEEED1Ev@Base 1.6
 (optional=templinst)_ZN3pcl11KdTreeFLANNINS_15PointXYZINormalEN5flann9L2_SimpleIfEEED2Ev@Base 1.6
 (optional=templinst)_ZN3pcl11KdTreeFLANNINS_17PointXYZRGBNormalEN5flann9L2_SimpleIfEEE10setEpsilonEf@Base 1.6
 (optional=templinst)_ZN3pcl11KdTreeFLANNINS_17PointXYZRGBNormalEN5flann9L2_SimpleIfEEED0Ev@Base 1.6
 (optional=templinst)_ZN3pcl11KdTreeFLANNINS_17PointXYZRGBNormalEN5flann9L2_SimpleIfEEED1Ev@Base 1.6
 (optional=templinst)_ZN3pcl11KdTreeFLANNINS_17PointXYZRGBNormalEN5flann9L2_SimpleIfEEED2Ev@Base 1.6
 (optional=templinst)_ZN3pcl11KdTreeFLANNINS_18PointWithViewpointEN5flann9L2_SimpleIfEEE10setEpsilonEf@Base 1.6
 (optional=templinst)_ZN3pcl11KdTreeFLANNINS_18PointWithViewpointEN5flann9L2_SimpleIfEEED0Ev@Base 1.6
 (optional=templinst)_ZN3pcl11KdTreeFLANNINS_18PointWithViewpointEN5flann9L2_SimpleIfEEED1Ev@Base 1.6
 (optional=templinst)_ZN3pcl11KdTreeFLANNINS_18PointWithViewpointEN5flann9L2_SimpleIfEEED2Ev@Base 1.6
 (optional=templinst)_ZN3pcl11KdTreeFLANNINS_8PointXYZEN5flann9L2_SimpleIfEEE10setEpsilonEf@Base 1.6
 (optional=templinst)_ZN3pcl11KdTreeFLANNINS_8PointXYZEN5flann9L2_SimpleIfEEED0Ev@Base 1.6
 (optional=templinst)_ZN3pcl11KdTreeFLANNINS_8PointXYZEN5flann9L2_SimpleIfEEED1Ev@Base 1.6
 (optional=templinst)_ZN3pcl11KdTreeFLANNINS_8PointXYZEN5flann9L2_SimpleIfEEED2Ev@Base 1.6
 (optional=templinst)_ZN3pcl11KdTreeFLANNINS_9PointXYZIEN5flann9L2_SimpleIfEEE10setEpsilonEf@Base 1.6
 (optional=templinst)_ZN3pcl11KdTreeFLANNINS_9PointXYZIEN5flann9L2_SimpleIfEEED0Ev@Base 1.6
 (optional=templinst)_ZN3pcl11KdTreeFLANNINS_9PointXYZIEN5flann9L2_SimpleIfEEED1Ev@Base 1.6
 (optional=templinst)_ZN3pcl11KdTreeFLANNINS_9PointXYZIEN5flann9L2_SimpleIfEEED2Ev@Base 1.6
 (optional=templinst)_ZN3pcl11KdTreeFLANNINS_9PointXYZLEN5flann9L2_SimpleIfEEE10setEpsilonEf@Base 1.6
 (optional=templinst)_ZN3pcl11KdTreeFLANNINS_9PointXYZLEN5flann9L2_SimpleIfEEED0Ev@Base 1.6
 (optional=templinst)_ZN3pcl11KdTreeFLANNINS_9PointXYZLEN5flann9L2_SimpleIfEEED1Ev@Base 1.6
 (optional=templinst)_ZN3pcl11KdTreeFLANNINS_9PointXYZLEN5flann9L2_SimpleIfEEED2Ev@Base 1.6
 (optional=templinst)_ZN3pcl11PassThroughINS_11PointNormalEE11applyFilterERSt6vectorIiSaIiEE@Base 1.6
 (optional=templinst)_ZN3pcl11PassThroughINS_11PointNormalEEC1Eb@Base 1.6
 (optional=templinst)_ZN3pcl11PassThroughINS_11PointNormalEEC2Eb@Base 1.6
 (optional=templinst)_ZN3pcl11PassThroughINS_11PointNormalEED0Ev@Base 1.6
 (optional=templinst)_ZN3pcl11PassThroughINS_11PointNormalEED1Ev@Base 1.6
 (optional=templinst)_ZN3pcl11PassThroughINS_11PointNormalEED2Ev@Base 1.6
 (optional=templinst)_ZN3pcl11PassThroughINS_11PointXYZRGBEE11applyFilterERSt6vectorIiSaIiEE@Base 1.6
 (optional=templinst)_ZN3pcl11PassThroughINS_11PointXYZRGBEEC1Eb@Base 1.6
 (optional=templinst)_ZN3pcl11PassThroughINS_11PointXYZRGBEEC2Eb@Base 1.6
 (optional=templinst)_ZN3pcl11PassThroughINS_11PointXYZRGBEED0Ev@Base 1.6
 (optional=templinst)_ZN3pcl11PassThroughINS_11PointXYZRGBEED1Ev@Base 1.6
 (optional=templinst)_ZN3pcl11PassThroughINS_11PointXYZRGBEED2Ev@Base 1.6
 (optional=templinst)_ZN3pcl11PassThroughINS_12PointXYZRGBAEE11applyFilterERSt6vectorIiSaIiEE@Base 1.6
 (optional=templinst)_ZN3pcl11PassThroughINS_12PointXYZRGBAEEC1Eb@Base 1.6
 (optional=templinst)_ZN3pcl11PassThroughINS_12PointXYZRGBAEEC2Eb@Base 1.6
 (optional=templinst)_ZN3pcl11PassThroughINS_12PointXYZRGBAEED0Ev@Base 1.6
 (optional=templinst)_ZN3pcl11PassThroughINS_12PointXYZRGBAEED1Ev@Base 1.6
 (optional=templinst)_ZN3pcl11PassThroughINS_12PointXYZRGBAEED2Ev@Base 1.6
 (optional=templinst)_ZN3pcl11PassThroughINS_13InterestPointEE11applyFilterERSt6vectorIiSaIiEE@Base 1.6
 (optional=templinst)_ZN3pcl11PassThroughINS_13InterestPointEEC1Eb@Base 1.6
 (optional=templinst)_ZN3pcl11PassThroughINS_13InterestPointEEC2Eb@Base 1.6
 (optional=templinst)_ZN3pcl11PassThroughINS_13InterestPointEED0Ev@Base 1.6
 (optional=templinst)_ZN3pcl11PassThroughINS_13InterestPointEED1Ev@Base 1.6
 (optional=templinst)_ZN3pcl11PassThroughINS_13InterestPointEED2Ev@Base 1.6
 (optional=templinst)_ZN3pcl11PassThroughINS_14PointWithRangeEE11applyFilterERSt6vectorIiSaIiEE@Base 1.6
 (optional=templinst)_ZN3pcl11PassThroughINS_14PointWithRangeEEC1Eb@Base 1.6
 (optional=templinst)_ZN3pcl11PassThroughINS_14PointWithRangeEEC2Eb@Base 1.6
 (optional=templinst)_ZN3pcl11PassThroughINS_14PointWithRangeEED0Ev@Base 1.6
 (optional=templinst)_ZN3pcl11PassThroughINS_14PointWithRangeEED1Ev@Base 1.6
 (optional=templinst)_ZN3pcl11PassThroughINS_14PointWithRangeEED2Ev@Base 1.6
 (optional=templinst)_ZN3pcl11PassThroughINS_14PointWithScaleEE11applyFilterERSt6vectorIiSaIiEE@Base 1.6
 (optional=templinst)_ZN3pcl11PassThroughINS_14PointWithScaleEEC1Eb@Base 1.6
 (optional=templinst)_ZN3pcl11PassThroughINS_14PointWithScaleEEC2Eb@Base 1.6
 (optional=templinst)_ZN3pcl11PassThroughINS_14PointWithScaleEED0Ev@Base 1.6
 (optional=templinst)_ZN3pcl11PassThroughINS_14PointWithScaleEED1Ev@Base 1.6
 (optional=templinst)_ZN3pcl11PassThroughINS_14PointWithScaleEED2Ev@Base 1.6
 (optional=templinst)_ZN3pcl11PassThroughINS_15PointXYZINormalEE11applyFilterERSt6vectorIiSaIiEE@Base 1.6
 (optional=templinst)_ZN3pcl11PassThroughINS_15PointXYZINormalEEC1Eb@Base 1.6
 (optional=templinst)_ZN3pcl11PassThroughINS_15PointXYZINormalEEC2Eb@Base 1.6
 (optional=templinst)_ZN3pcl11PassThroughINS_15PointXYZINormalEED0Ev@Base 1.6
 (optional=templinst)_ZN3pcl11PassThroughINS_15PointXYZINormalEED1Ev@Base 1.6
 (optional=templinst)_ZN3pcl11PassThroughINS_15PointXYZINormalEED2Ev@Base 1.6
 (optional=templinst)_ZN3pcl11PassThroughINS_17PointXYZRGBNormalEE11applyFilterERSt6vectorIiSaIiEE@Base 1.6
 (optional=templinst)_ZN3pcl11PassThroughINS_17PointXYZRGBNormalEEC1Eb@Base 1.6
 (optional=templinst)_ZN3pcl11PassThroughINS_17PointXYZRGBNormalEEC2Eb@Base 1.6
 (optional=templinst)_ZN3pcl11PassThroughINS_17PointXYZRGBNormalEED0Ev@Base 1.6
 (optional=templinst)_ZN3pcl11PassThroughINS_17PointXYZRGBNormalEED1Ev@Base 1.6
 (optional=templinst)_ZN3pcl11PassThroughINS_17PointXYZRGBNormalEED2Ev@Base 1.6
 (optional=templinst)_ZN3pcl11PassThroughINS_18PointWithViewpointEE11applyFilterERSt6vectorIiSaIiEE@Base 1.6
 (optional=templinst)_ZN3pcl11PassThroughINS_18PointWithViewpointEEC1Eb@Base 1.6
 (optional=templinst)_ZN3pcl11PassThroughINS_18PointWithViewpointEEC2Eb@Base 1.6
 (optional=templinst)_ZN3pcl11PassThroughINS_18PointWithViewpointEED0Ev@Base 1.6
 (optional=templinst)_ZN3pcl11PassThroughINS_18PointWithViewpointEED1Ev@Base 1.6
 (optional=templinst)_ZN3pcl11PassThroughINS_18PointWithViewpointEED2Ev@Base 1.6
 (optional=templinst)_ZN3pcl11PassThroughINS_8PointXYZEE11applyFilterERSt6vectorIiSaIiEE@Base 1.6
 (optional=templinst)_ZN3pcl11PassThroughINS_8PointXYZEEC1Eb@Base 1.6
 (optional=templinst)_ZN3pcl11PassThroughINS_8PointXYZEEC2Eb@Base 1.6
 (optional=templinst)_ZN3pcl11PassThroughINS_8PointXYZEED0Ev@Base 1.6
 (optional=templinst)_ZN3pcl11PassThroughINS_8PointXYZEED1Ev@Base 1.6
 (optional=templinst)_ZN3pcl11PassThroughINS_8PointXYZEED2Ev@Base 1.6
 (optional=templinst)_ZN3pcl11PassThroughINS_9PointXYZIEE11applyFilterERSt6vectorIiSaIiEE@Base 1.6
 (optional=templinst)_ZN3pcl11PassThroughINS_9PointXYZIEEC1Eb@Base 1.6
 (optional=templinst)_ZN3pcl11PassThroughINS_9PointXYZIEEC2Eb@Base 1.6
 (optional=templinst)_ZN3pcl11PassThroughINS_9PointXYZIEED0Ev@Base 1.6
 (optional=templinst)_ZN3pcl11PassThroughINS_9PointXYZIEED1Ev@Base 1.6
 (optional=templinst)_ZN3pcl11PassThroughINS_9PointXYZIEED2Ev@Base 1.6
 (optional=templinst)_ZN3pcl13FilterIndicesINS_11PointNormalEEC1Eb@Base 1.6
 (optional=templinst)_ZN3pcl13FilterIndicesINS_11PointNormalEEC2Eb@Base 1.6
 (optional=templinst)_ZN3pcl13FilterIndicesINS_11PointNormalEED0Ev@Base 1.6
 (optional=templinst)_ZN3pcl13FilterIndicesINS_11PointNormalEED1Ev@Base 1.6
 (optional=templinst)_ZN3pcl13FilterIndicesINS_11PointNormalEED2Ev@Base 1.6
 (optional=templinst)_ZN3pcl13FilterIndicesINS_11PointXYZRGBEEC1Eb@Base 1.6
 (optional=templinst)_ZN3pcl13FilterIndicesINS_11PointXYZRGBEEC2Eb@Base 1.6
 (optional=templinst)_ZN3pcl13FilterIndicesINS_11PointXYZRGBEED0Ev@Base 1.6
 (optional=templinst)_ZN3pcl13FilterIndicesINS_11PointXYZRGBEED1Ev@Base 1.6
 (optional=templinst)_ZN3pcl13FilterIndicesINS_11PointXYZRGBEED2Ev@Base 1.6
 (optional=templinst)_ZN3pcl13FilterIndicesINS_12PointXYZRGBAEEC1Eb@Base 1.6
 (optional=templinst)_ZN3pcl13FilterIndicesINS_12PointXYZRGBAEEC2Eb@Base 1.6
 (optional=templinst)_ZN3pcl13FilterIndicesINS_12PointXYZRGBAEED0Ev@Base 1.6
 (optional=templinst)_ZN3pcl13FilterIndicesINS_12PointXYZRGBAEED1Ev@Base 1.6
 (optional=templinst)_ZN3pcl13FilterIndicesINS_12PointXYZRGBAEED2Ev@Base 1.6
 (optional=templinst)_ZN3pcl13FilterIndicesINS_13InterestPointEEC1Eb@Base 1.6
 (optional=templinst)_ZN3pcl13FilterIndicesINS_13InterestPointEEC2Eb@Base 1.6
 (optional=templinst)_ZN3pcl13FilterIndicesINS_13InterestPointEED0Ev@Base 1.6
 (optional=templinst)_ZN3pcl13FilterIndicesINS_13InterestPointEED1Ev@Base 1.6
 (optional=templinst)_ZN3pcl13FilterIndicesINS_13InterestPointEED2Ev@Base 1.6
 (optional=templinst)_ZN3pcl13FilterIndicesINS_14PointWithRangeEEC1Eb@Base 1.6
 (optional=templinst)_ZN3pcl13FilterIndicesINS_14PointWithRangeEEC2Eb@Base 1.6
 (optional=templinst)_ZN3pcl13FilterIndicesINS_14PointWithRangeEED0Ev@Base 1.6
 (optional=templinst)_ZN3pcl13FilterIndicesINS_14PointWithRangeEED1Ev@Base 1.6
 (optional=templinst)_ZN3pcl13FilterIndicesINS_14PointWithRangeEED2Ev@Base 1.6
 (optional=templinst)_ZN3pcl13FilterIndicesINS_14PointWithScaleEEC1Eb@Base 1.6
 (optional=templinst)_ZN3pcl13FilterIndicesINS_14PointWithScaleEEC2Eb@Base 1.6
 (optional=templinst)_ZN3pcl13FilterIndicesINS_14PointWithScaleEED0Ev@Base 1.6
 (optional=templinst)_ZN3pcl13FilterIndicesINS_14PointWithScaleEED1Ev@Base 1.6
 (optional=templinst)_ZN3pcl13FilterIndicesINS_14PointWithScaleEED2Ev@Base 1.6
 (optional=templinst)_ZN3pcl13FilterIndicesINS_15PointXYZINormalEEC1Eb@Base 1.6
 (optional=templinst)_ZN3pcl13FilterIndicesINS_15PointXYZINormalEEC2Eb@Base 1.6
 (optional=templinst)_ZN3pcl13FilterIndicesINS_15PointXYZINormalEED0Ev@Base 1.6
 (optional=templinst)_ZN3pcl13FilterIndicesINS_15PointXYZINormalEED1Ev@Base 1.6
 (optional=templinst)_ZN3pcl13FilterIndicesINS_15PointXYZINormalEED2Ev@Base 1.6
 (optional=templinst)_ZN3pcl13FilterIndicesINS_17PointXYZRGBNormalEEC1Eb@Base 1.6
 (optional=templinst)_ZN3pcl13FilterIndicesINS_17PointXYZRGBNormalEEC2Eb@Base 1.6
 (optional=templinst)_ZN3pcl13FilterIndicesINS_17PointXYZRGBNormalEED0Ev@Base 1.6
 (optional=templinst)_ZN3pcl13FilterIndicesINS_17PointXYZRGBNormalEED1Ev@Base 1.6
 (optional=templinst)_ZN3pcl13FilterIndicesINS_17PointXYZRGBNormalEED2Ev@Base 1.6
 (optional=templinst)_ZN3pcl13FilterIndicesINS_18PointWithViewpointEEC1Eb@Base 1.6
 (optional=templinst)_ZN3pcl13FilterIndicesINS_18PointWithViewpointEEC2Eb@Base 1.6
 (optional=templinst)_ZN3pcl13FilterIndicesINS_18PointWithViewpointEED0Ev@Base 1.6
 (optional=templinst)_ZN3pcl13FilterIndicesINS_18PointWithViewpointEED1Ev@Base 1.6
 (optional=templinst)_ZN3pcl13FilterIndicesINS_18PointWithViewpointEED2Ev@Base 1.6
 (optional=templinst)_ZN3pcl13FilterIndicesINS_8PointXYZEEC1Eb@Base 1.6
 (optional=templinst)_ZN3pcl13FilterIndicesINS_8PointXYZEEC2Eb@Base 1.6
 (optional=templinst)_ZN3pcl13FilterIndicesINS_8PointXYZEED0Ev@Base 1.6
 (optional=templinst)_ZN3pcl13FilterIndicesINS_8PointXYZEED1Ev@Base 1.6
 (optional=templinst)_ZN3pcl13FilterIndicesINS_8PointXYZEED2Ev@Base 1.6
 (optional=templinst)_ZN3pcl13FilterIndicesINS_9PointXYZIEEC1Eb@Base 1.6
 (optional=templinst)_ZN3pcl13FilterIndicesINS_9PointXYZIEEC2Eb@Base 1.6
 (optional=templinst)_ZN3pcl13FilterIndicesINS_9PointXYZIEED0Ev@Base 1.6
 (optional=templinst)_ZN3pcl13FilterIndicesINS_9PointXYZIEED1Ev@Base 1.6
 (optional=templinst)_ZN3pcl13FilterIndicesINS_9PointXYZIEED2Ev@Base 1.6
 _ZN3pcl17getTransformationEffffffRN5Eigen9TransformIfLi3ELi2ELi0EEE@Base 1.6
 (optional=templinst)_ZN3pcl19PointRepresentationINS_11PointNormalEED0Ev@Base 1.6
 (optional=templinst)_ZN3pcl19PointRepresentationINS_11PointNormalEED1Ev@Base 1.6
 (optional=templinst)_ZN3pcl19PointRepresentationINS_11PointNormalEED2Ev@Base 1.6
 (optional=templinst)_ZN3pcl19PointRepresentationINS_11PointXYZHSVEED0Ev@Base 1.6
 (optional=templinst)_ZN3pcl19PointRepresentationINS_11PointXYZHSVEED1Ev@Base 1.6
 (optional=templinst)_ZN3pcl19PointRepresentationINS_11PointXYZHSVEED2Ev@Base 1.6
 (optional=templinst)_ZN3pcl19PointRepresentationINS_11PointXYZRGBEED0Ev@Base 1.6
 (optional=templinst)_ZN3pcl19PointRepresentationINS_11PointXYZRGBEED1Ev@Base 1.6
 (optional=templinst)_ZN3pcl19PointRepresentationINS_11PointXYZRGBEED2Ev@Base 1.6
 (optional=templinst)_ZN3pcl19PointRepresentationINS_12PointXYZRGBAEED0Ev@Base 1.6
 (optional=templinst)_ZN3pcl19PointRepresentationINS_12PointXYZRGBAEED1Ev@Base 1.6
 (optional=templinst)_ZN3pcl19PointRepresentationINS_12PointXYZRGBAEED2Ev@Base 1.6
 (optional=templinst)_ZN3pcl19PointRepresentationINS_12PointXYZRGBLEED0Ev@Base 1.6
 (optional=templinst)_ZN3pcl19PointRepresentationINS_12PointXYZRGBLEED1Ev@Base 1.6
 (optional=templinst)_ZN3pcl19PointRepresentationINS_12PointXYZRGBLEED2Ev@Base 1.6
 (optional=templinst)_ZN3pcl19PointRepresentationINS_13InterestPointEED0Ev@Base 1.6
 (optional=templinst)_ZN3pcl19PointRepresentationINS_13InterestPointEED1Ev@Base 1.6
 (optional=templinst)_ZN3pcl19PointRepresentationINS_13InterestPointEED2Ev@Base 1.6
 (optional=templinst)_ZN3pcl19PointRepresentationINS_14PointWithRangeEED0Ev@Base 1.6
 (optional=templinst)_ZN3pcl19PointRepresentationINS_14PointWithRangeEED1Ev@Base 1.6
 (optional=templinst)_ZN3pcl19PointRepresentationINS_14PointWithRangeEED2Ev@Base 1.6
 (optional=templinst)_ZN3pcl19PointRepresentationINS_14PointWithScaleEED0Ev@Base 1.6
 (optional=templinst)_ZN3pcl19PointRepresentationINS_14PointWithScaleEED1Ev@Base 1.6
 (optional=templinst)_ZN3pcl19PointRepresentationINS_14PointWithScaleEED2Ev@Base 1.6
 (optional=templinst)_ZN3pcl19PointRepresentationINS_15PointXYZINormalEED0Ev@Base 1.6
 (optional=templinst)_ZN3pcl19PointRepresentationINS_15PointXYZINormalEED1Ev@Base 1.6
 (optional=templinst)_ZN3pcl19PointRepresentationINS_15PointXYZINormalEED2Ev@Base 1.6
 (optional=templinst)_ZN3pcl19PointRepresentationINS_17PointXYZRGBNormalEED0Ev@Base 1.6
 (optional=templinst)_ZN3pcl19PointRepresentationINS_17PointXYZRGBNormalEED1Ev@Base 1.6
 (optional=templinst)_ZN3pcl19PointRepresentationINS_17PointXYZRGBNormalEED2Ev@Base 1.6
 (optional=templinst)_ZN3pcl19PointRepresentationINS_18PointWithViewpointEED0Ev@Base 1.6
 (optional=templinst)_ZN3pcl19PointRepresentationINS_18PointWithViewpointEED1Ev@Base 1.6
 (optional=templinst)_ZN3pcl19PointRepresentationINS_18PointWithViewpointEED2Ev@Base 1.6
 (optional=templinst)_ZN3pcl19PointRepresentationINS_8PointXYZEED0Ev@Base 1.6
 (optional=templinst)_ZN3pcl19PointRepresentationINS_8PointXYZEED1Ev@Base 1.6
 (optional=templinst)_ZN3pcl19PointRepresentationINS_8PointXYZEED2Ev@Base 1.6
 (optional=templinst)_ZN3pcl19PointRepresentationINS_9PointXYZIEED0Ev@Base 1.6
 (optional=templinst)_ZN3pcl19PointRepresentationINS_9PointXYZIEED1Ev@Base 1.6
 (optional=templinst)_ZN3pcl19PointRepresentationINS_9PointXYZIEED2Ev@Base 1.6
 (optional=templinst)_ZN3pcl19PointRepresentationINS_9PointXYZLEED0Ev@Base 1.6
 (optional=templinst)_ZN3pcl19PointRepresentationINS_9PointXYZLEED1Ev@Base 1.6
 (optional=templinst)_ZN3pcl19PointRepresentationINS_9PointXYZLEED2Ev@Base 1.6
 (optional=templinst)_ZN3pcl19transformPointCloudINS_11PointNormalEEEvRKNS_10PointCloudIT_EERS4_RKN5Eigen9TransformIfLi3ELi2ELi0EEE@Base 1.6
 (optional=templinst)_ZN3pcl19transformPointCloudINS_11PointXYZRGBEEEvRKNS_10PointCloudIT_EERS4_RKN5Eigen9TransformIfLi3ELi2ELi0EEE@Base 1.6
 (optional=templinst)_ZN3pcl19transformPointCloudINS_12PointXYZRGBAEEEvRKNS_10PointCloudIT_EERS4_RKN5Eigen9TransformIfLi3ELi2ELi0EEE@Base 1.6
 (optional=templinst)_ZN3pcl19transformPointCloudINS_13InterestPointEEEvRKNS_10PointCloudIT_EERS4_RKN5Eigen9TransformIfLi3ELi2ELi0EEE@Base 1.6
 (optional=templinst)_ZN3pcl19transformPointCloudINS_14PointWithRangeEEEvRKNS_10PointCloudIT_EERS4_RKN5Eigen9TransformIfLi3ELi2ELi0EEE@Base 1.6
 (optional=templinst)_ZN3pcl19transformPointCloudINS_14PointWithScaleEEEvRKNS_10PointCloudIT_EERS4_RKN5Eigen9TransformIfLi3ELi2ELi0EEE@Base 1.6
 (optional=templinst)_ZN3pcl19transformPointCloudINS_15PointXYZINormalEEEvRKNS_10PointCloudIT_EERS4_RKN5Eigen9TransformIfLi3ELi2ELi0EEE@Base 1.6
 (optional=templinst)_ZN3pcl19transformPointCloudINS_17PointXYZRGBNormalEEEvRKNS_10PointCloudIT_EERS4_RKN5Eigen9TransformIfLi3ELi2ELi0EEE@Base 1.6
 (optional=templinst)_ZN3pcl19transformPointCloudINS_18PointWithViewpointEEEvRKNS_10PointCloudIT_EERS4_RKN5Eigen9TransformIfLi3ELi2ELi0EEE@Base 1.6
 (optional=templinst)_ZN3pcl19transformPointCloudINS_8PointXYZEEEvRKNS_10PointCloudIT_EERS4_RKN5Eigen9TransformIfLi3ELi2ELi0EEE@Base 1.6
 (optional=templinst)_ZN3pcl19transformPointCloudINS_9PointXYZIEEEvRKNS_10PointCloudIT_EERS4_RKN5Eigen9TransformIfLi3ELi2ELi0EEE@Base 1.6
 (optional=templinst)_ZN3pcl26DefaultPointRepresentationINS_11PointNormalEED0Ev@Base 1.6
 (optional=templinst)_ZN3pcl26DefaultPointRepresentationINS_11PointNormalEED1Ev@Base 1.6
 (optional=templinst)_ZN3pcl26DefaultPointRepresentationINS_11PointNormalEED2Ev@Base 1.6
 (optional=templinst)_ZN3pcl26DefaultPointRepresentationINS_11PointXYZHSVEED0Ev@Base 1.6
 (optional=templinst)_ZN3pcl26DefaultPointRepresentationINS_11PointXYZHSVEED1Ev@Base 1.6
 (optional=templinst)_ZN3pcl26DefaultPointRepresentationINS_11PointXYZHSVEED2Ev@Base 1.6
 (optional=templinst)_ZN3pcl26DefaultPointRepresentationINS_11PointXYZRGBEED0Ev@Base 1.6
 (optional=templinst)_ZN3pcl26DefaultPointRepresentationINS_11PointXYZRGBEED1Ev@Base 1.6
 (optional=templinst)_ZN3pcl26DefaultPointRepresentationINS_11PointXYZRGBEED2Ev@Base 1.6
 (optional=templinst)_ZN3pcl26DefaultPointRepresentationINS_12PointXYZRGBAEED0Ev@Base 1.6
 (optional=templinst)_ZN3pcl26DefaultPointRepresentationINS_12PointXYZRGBAEED1Ev@Base 1.6
 (optional=templinst)_ZN3pcl26DefaultPointRepresentationINS_12PointXYZRGBAEED2Ev@Base 1.6
 (optional=templinst)_ZN3pcl26DefaultPointRepresentationINS_12PointXYZRGBLEED0Ev@Base 1.6
 (optional=templinst)_ZN3pcl26DefaultPointRepresentationINS_12PointXYZRGBLEED1Ev@Base 1.6
 (optional=templinst)_ZN3pcl26DefaultPointRepresentationINS_12PointXYZRGBLEED2Ev@Base 1.6
 (optional=templinst)_ZN3pcl26DefaultPointRepresentationINS_13InterestPointEED0Ev@Base 1.6
 (optional=templinst)_ZN3pcl26DefaultPointRepresentationINS_13InterestPointEED1Ev@Base 1.6
 (optional=templinst)_ZN3pcl26DefaultPointRepresentationINS_13InterestPointEED2Ev@Base 1.6
 (optional=templinst)_ZN3pcl26DefaultPointRepresentationINS_14PointWithRangeEED0Ev@Base 1.6
 (optional=templinst)_ZN3pcl26DefaultPointRepresentationINS_14PointWithRangeEED1Ev@Base 1.6
 (optional=templinst)_ZN3pcl26DefaultPointRepresentationINS_14PointWithRangeEED2Ev@Base 1.6
 (optional=templinst)_ZN3pcl26DefaultPointRepresentationINS_14PointWithScaleEED0Ev@Base 1.6
 (optional=templinst)_ZN3pcl26DefaultPointRepresentationINS_14PointWithScaleEED1Ev@Base 1.6
 (optional=templinst)_ZN3pcl26DefaultPointRepresentationINS_14PointWithScaleEED2Ev@Base 1.6
 (optional=templinst)_ZN3pcl26DefaultPointRepresentationINS_15PointXYZINormalEED0Ev@Base 1.6
 (optional=templinst)_ZN3pcl26DefaultPointRepresentationINS_15PointXYZINormalEED1Ev@Base 1.6
 (optional=templinst)_ZN3pcl26DefaultPointRepresentationINS_15PointXYZINormalEED2Ev@Base 1.6
 (optional=templinst)_ZN3pcl26DefaultPointRepresentationINS_17PointXYZRGBNormalEED0Ev@Base 1.6
 (optional=templinst)_ZN3pcl26DefaultPointRepresentationINS_17PointXYZRGBNormalEED1Ev@Base 1.6
 (optional=templinst)_ZN3pcl26DefaultPointRepresentationINS_17PointXYZRGBNormalEED2Ev@Base 1.6
 (optional=templinst)_ZN3pcl26DefaultPointRepresentationINS_18PointWithViewpointEED0Ev@Base 1.6
 (optional=templinst)_ZN3pcl26DefaultPointRepresentationINS_18PointWithViewpointEED1Ev@Base 1.6
 (optional=templinst)_ZN3pcl26DefaultPointRepresentationINS_18PointWithViewpointEED2Ev@Base 1.6
 (optional=templinst)_ZN3pcl26DefaultPointRepresentationINS_8PointXYZEED0Ev@Base 1.6
 (optional=templinst)_ZN3pcl26DefaultPointRepresentationINS_8PointXYZEED1Ev@Base 1.6
 (optional=templinst)_ZN3pcl26DefaultPointRepresentationINS_8PointXYZEED2Ev@Base 1.6
 (optional=templinst)_ZN3pcl26DefaultPointRepresentationINS_9PointXYZIEED0Ev@Base 1.6
 (optional=templinst)_ZN3pcl26DefaultPointRepresentationINS_9PointXYZIEED1Ev@Base 1.6
 (optional=templinst)_ZN3pcl26DefaultPointRepresentationINS_9PointXYZIEED2Ev@Base 1.6
 (optional=templinst)_ZN3pcl26DefaultPointRepresentationINS_9PointXYZLEED0Ev@Base 1.6
 (optional=templinst)_ZN3pcl26DefaultPointRepresentationINS_9PointXYZLEED1Ev@Base 1.6
 (optional=templinst)_ZN3pcl26DefaultPointRepresentationINS_9PointXYZLEED2Ev@Base 1.6
 _ZN3pcl28getTranslationAndEulerAnglesERKN5Eigen9TransformIfLi3ELi2ELi0EEERfS5_S5_S5_S5_S5_@Base 1.6
 (optional=templinst)_ZN3pcl6FilterINS_11PointNormalEE6filterERNS_10PointCloudIS1_EE@Base 1.6
 (optional=templinst)_ZN3pcl6FilterINS_11PointNormalEEC1Eb@Base 1.6
 (optional=templinst)_ZN3pcl6FilterINS_11PointNormalEEC2Eb@Base 1.6
 (optional=templinst)_ZN3pcl6FilterINS_11PointNormalEED0Ev@Base 1.6
 (optional=templinst)_ZN3pcl6FilterINS_11PointNormalEED1Ev@Base 1.6
 (optional=templinst)_ZN3pcl6FilterINS_11PointNormalEED2Ev@Base 1.6
 (optional=templinst)_ZN3pcl6FilterINS_11PointXYZRGBEE6filterERNS_10PointCloudIS1_EE@Base 1.6
 (optional=templinst)_ZN3pcl6FilterINS_11PointXYZRGBEEC1Eb@Base 1.6
 (optional=templinst)_ZN3pcl6FilterINS_11PointXYZRGBEEC2Eb@Base 1.6
 (optional=templinst)_ZN3pcl6FilterINS_11PointXYZRGBEED0Ev@Base 1.6
 (optional=templinst)_ZN3pcl6FilterINS_11PointXYZRGBEED1Ev@Base 1.6
 (optional=templinst)_ZN3pcl6FilterINS_11PointXYZRGBEED2Ev@Base 1.6
 (optional=templinst)_ZN3pcl6FilterINS_12PointXYZRGBAEE6filterERNS_10PointCloudIS1_EE@Base 1.6
 (optional=templinst)_ZN3pcl6FilterINS_12PointXYZRGBAEEC1Eb@Base 1.6
 (optional=templinst)_ZN3pcl6FilterINS_12PointXYZRGBAEEC2Eb@Base 1.6
 (optional=templinst)_ZN3pcl6FilterINS_12PointXYZRGBAEED0Ev@Base 1.6
 (optional=templinst)_ZN3pcl6FilterINS_12PointXYZRGBAEED1Ev@Base 1.6
 (optional=templinst)_ZN3pcl6FilterINS_12PointXYZRGBAEED2Ev@Base 1.6
 (optional=templinst)_ZN3pcl6FilterINS_13InterestPointEE6filterERNS_10PointCloudIS1_EE@Base 1.6
 (optional=templinst)_ZN3pcl6FilterINS_13InterestPointEEC1Eb@Base 1.6
 (optional=templinst)_ZN3pcl6FilterINS_13InterestPointEEC2Eb@Base 1.6
 (optional=templinst)_ZN3pcl6FilterINS_13InterestPointEED0Ev@Base 1.6
 (optional=templinst)_ZN3pcl6FilterINS_13InterestPointEED1Ev@Base 1.6
 (optional=templinst)_ZN3pcl6FilterINS_13InterestPointEED2Ev@Base 1.6
 (optional=templinst)_ZN3pcl6FilterINS_14PointWithRangeEE6filterERNS_10PointCloudIS1_EE@Base 1.6
 (optional=templinst)_ZN3pcl6FilterINS_14PointWithRangeEEC1Eb@Base 1.6
 (optional=templinst)_ZN3pcl6FilterINS_14PointWithRangeEEC2Eb@Base 1.6
 (optional=templinst)_ZN3pcl6FilterINS_14PointWithRangeEED0Ev@Base 1.6
 (optional=templinst)_ZN3pcl6FilterINS_14PointWithRangeEED1Ev@Base 1.6
 (optional=templinst)_ZN3pcl6FilterINS_14PointWithRangeEED2Ev@Base 1.6
 (optional=templinst)_ZN3pcl6FilterINS_14PointWithScaleEE6filterERNS_10PointCloudIS1_EE@Base 1.6
 (optional=templinst)_ZN3pcl6FilterINS_14PointWithScaleEEC1Eb@Base 1.6
 (optional=templinst)_ZN3pcl6FilterINS_14PointWithScaleEEC2Eb@Base 1.6
 (optional=templinst)_ZN3pcl6FilterINS_14PointWithScaleEED0Ev@Base 1.6
 (optional=templinst)_ZN3pcl6FilterINS_14PointWithScaleEED1Ev@Base 1.6
 (optional=templinst)_ZN3pcl6FilterINS_14PointWithScaleEED2Ev@Base 1.6
 (optional=templinst)_ZN3pcl6FilterINS_15PointXYZINormalEE6filterERNS_10PointCloudIS1_EE@Base 1.6
 (optional=templinst)_ZN3pcl6FilterINS_15PointXYZINormalEEC1Eb@Base 1.6
 (optional=templinst)_ZN3pcl6FilterINS_15PointXYZINormalEEC2Eb@Base 1.6
 (optional=templinst)_ZN3pcl6FilterINS_15PointXYZINormalEED0Ev@Base 1.6
 (optional=templinst)_ZN3pcl6FilterINS_15PointXYZINormalEED1Ev@Base 1.6
 (optional=templinst)_ZN3pcl6FilterINS_15PointXYZINormalEED2Ev@Base 1.6
 (optional=templinst)_ZN3pcl6FilterINS_17PointXYZRGBNormalEE6filterERNS_10PointCloudIS1_EE@Base 1.6
 (optional=templinst)_ZN3pcl6FilterINS_17PointXYZRGBNormalEEC1Eb@Base 1.6
 (optional=templinst)_ZN3pcl6FilterINS_17PointXYZRGBNormalEEC2Eb@Base 1.6
 (optional=templinst)_ZN3pcl6FilterINS_17PointXYZRGBNormalEED0Ev@Base 1.6
 (optional=templinst)_ZN3pcl6FilterINS_17PointXYZRGBNormalEED1Ev@Base 1.6
 (optional=templinst)_ZN3pcl6FilterINS_17PointXYZRGBNormalEED2Ev@Base 1.6
 (optional=templinst)_ZN3pcl6FilterINS_18PointWithViewpointEE6filterERNS_10PointCloudIS1_EE@Base 1.6
 (optional=templinst)_ZN3pcl6FilterINS_18PointWithViewpointEEC1Eb@Base 1.6
 (optional=templinst)_ZN3pcl6FilterINS_18PointWithViewpointEEC2Eb@Base 1.6
 (optional=templinst)_ZN3pcl6FilterINS_18PointWithViewpointEED0Ev@Base 1.6
 (optional=templinst)_ZN3pcl6FilterINS_18PointWithViewpointEED1Ev@Base 1.6
 (optional=templinst)_ZN3pcl6FilterINS_18PointWithViewpointEED2Ev@Base 1.6
 (optional=templinst)_ZN3pcl6FilterINS_8PointXYZEE6filterERNS_10PointCloudIS1_EE@Base 1.6
 (optional=templinst)_ZN3pcl6FilterINS_8PointXYZEEC1Eb@Base 1.6
 (optional=templinst)_ZN3pcl6FilterINS_8PointXYZEEC2Eb@Base 1.6
 (optional=templinst)_ZN3pcl6FilterINS_8PointXYZEED0Ev@Base 1.6
 (optional=templinst)_ZN3pcl6FilterINS_8PointXYZEED1Ev@Base 1.6
 (optional=templinst)_ZN3pcl6FilterINS_8PointXYZEED2Ev@Base 1.6
 (optional=templinst)_ZN3pcl6FilterINS_9PointXYZIEE6filterERNS_10PointCloudIS1_EE@Base 1.6
 (optional=templinst)_ZN3pcl6FilterINS_9PointXYZIEEC1Eb@Base 1.6
 (optional=templinst)_ZN3pcl6FilterINS_9PointXYZIEEC2Eb@Base 1.6
 (optional=templinst)_ZN3pcl6FilterINS_9PointXYZIEED0Ev@Base 1.6
 (optional=templinst)_ZN3pcl6FilterINS_9PointXYZIEED1Ev@Base 1.6
 (optional=templinst)_ZN3pcl6FilterINS_9PointXYZIEED2Ev@Base 1.6
 (optional=templinst)_ZN3pcl6KdTreeINS_11PointNormalEE10setEpsilonEf@Base 1.6
 (optional=templinst)_ZN3pcl6KdTreeINS_11PointNormalEE13setInputCloudERKN5boost10shared_ptrIKNS_10PointCloudIS1_EEEERKNS4_IKSt6vectorIiSaIiEEEE@Base 1.6
 (optional=templinst)_ZN3pcl6KdTreeINS_11PointNormalEEC1Eb@Base 1.6
 (optional=templinst)_ZN3pcl6KdTreeINS_11PointNormalEEC2Eb@Base 1.6
 (optional=templinst)_ZN3pcl6KdTreeINS_11PointNormalEED0Ev@Base 1.6
 (optional=templinst)_ZN3pcl6KdTreeINS_11PointNormalEED1Ev@Base 1.6
 (optional=templinst)_ZN3pcl6KdTreeINS_11PointNormalEED2Ev@Base 1.6
 (optional=templinst)_ZN3pcl6KdTreeINS_11PointXYZHSVEE10setEpsilonEf@Base 1.6
 (optional=templinst)_ZN3pcl6KdTreeINS_11PointXYZHSVEE13setInputCloudERKN5boost10shared_ptrIKNS_10PointCloudIS1_EEEERKNS4_IKSt6vectorIiSaIiEEEE@Base 1.6
 (optional=templinst)_ZN3pcl6KdTreeINS_11PointXYZHSVEEC1Eb@Base 1.6
 (optional=templinst)_ZN3pcl6KdTreeINS_11PointXYZHSVEEC2Eb@Base 1.6
 (optional=templinst)_ZN3pcl6KdTreeINS_11PointXYZHSVEED0Ev@Base 1.6
 (optional=templinst)_ZN3pcl6KdTreeINS_11PointXYZHSVEED1Ev@Base 1.6
 (optional=templinst)_ZN3pcl6KdTreeINS_11PointXYZHSVEED2Ev@Base 1.6
 (optional=templinst)_ZN3pcl6KdTreeINS_11PointXYZRGBEE10setEpsilonEf@Base 1.6
 (optional=templinst)_ZN3pcl6KdTreeINS_11PointXYZRGBEE13setInputCloudERKN5boost10shared_ptrIKNS_10PointCloudIS1_EEEERKNS4_IKSt6vectorIiSaIiEEEE@Base 1.6
 (optional=templinst)_ZN3pcl6KdTreeINS_11PointXYZRGBEEC1Eb@Base 1.6
 (optional=templinst)_ZN3pcl6KdTreeINS_11PointXYZRGBEEC2Eb@Base 1.6
 (optional=templinst)_ZN3pcl6KdTreeINS_11PointXYZRGBEED0Ev@Base 1.6
 (optional=templinst)_ZN3pcl6KdTreeINS_11PointXYZRGBEED1Ev@Base 1.6
 (optional=templinst)_ZN3pcl6KdTreeINS_11PointXYZRGBEED2Ev@Base 1.6
 (optional=templinst)_ZN3pcl6KdTreeINS_12PointXYZRGBAEE10setEpsilonEf@Base 1.6
 (optional=templinst)_ZN3pcl6KdTreeINS_12PointXYZRGBAEE13setInputCloudERKN5boost10shared_ptrIKNS_10PointCloudIS1_EEEERKNS4_IKSt6vectorIiSaIiEEEE@Base 1.6
 (optional=templinst)_ZN3pcl6KdTreeINS_12PointXYZRGBAEEC1Eb@Base 1.6
 (optional=templinst)_ZN3pcl6KdTreeINS_12PointXYZRGBAEEC2Eb@Base 1.6
 (optional=templinst)_ZN3pcl6KdTreeINS_12PointXYZRGBAEED0Ev@Base 1.6
 (optional=templinst)_ZN3pcl6KdTreeINS_12PointXYZRGBAEED1Ev@Base 1.6
 (optional=templinst)_ZN3pcl6KdTreeINS_12PointXYZRGBAEED2Ev@Base 1.6
 (optional=templinst)_ZN3pcl6KdTreeINS_12PointXYZRGBLEE10setEpsilonEf@Base 1.6
 (optional=templinst)_ZN3pcl6KdTreeINS_12PointXYZRGBLEE13setInputCloudERKN5boost10shared_ptrIKNS_10PointCloudIS1_EEEERKNS4_IKSt6vectorIiSaIiEEEE@Base 1.6
 (optional=templinst)_ZN3pcl6KdTreeINS_12PointXYZRGBLEEC1Eb@Base 1.6
 (optional=templinst)_ZN3pcl6KdTreeINS_12PointXYZRGBLEEC2Eb@Base 1.6
 (optional=templinst)_ZN3pcl6KdTreeINS_12PointXYZRGBLEED0Ev@Base 1.6
 (optional=templinst)_ZN3pcl6KdTreeINS_12PointXYZRGBLEED1Ev@Base 1.6
 (optional=templinst)_ZN3pcl6KdTreeINS_12PointXYZRGBLEED2Ev@Base 1.6
 (optional=templinst)_ZN3pcl6KdTreeINS_13InterestPointEE10setEpsilonEf@Base 1.6
 (optional=templinst)_ZN3pcl6KdTreeINS_13InterestPointEE13setInputCloudERKN5boost10shared_ptrIKNS_10PointCloudIS1_EEEERKNS4_IKSt6vectorIiSaIiEEEE@Base 1.6
 (optional=templinst)_ZN3pcl6KdTreeINS_13InterestPointEEC1Eb@Base 1.6
 (optional=templinst)_ZN3pcl6KdTreeINS_13InterestPointEEC2Eb@Base 1.6
 (optional=templinst)_ZN3pcl6KdTreeINS_13InterestPointEED0Ev@Base 1.6
 (optional=templinst)_ZN3pcl6KdTreeINS_13InterestPointEED1Ev@Base 1.6
 (optional=templinst)_ZN3pcl6KdTreeINS_13InterestPointEED2Ev@Base 1.6
 (optional=templinst)_ZN3pcl6KdTreeINS_14PointWithRangeEE10setEpsilonEf@Base 1.6
 (optional=templinst)_ZN3pcl6KdTreeINS_14PointWithRangeEE13setInputCloudERKN5boost10shared_ptrIKNS_10PointCloudIS1_EEEERKNS4_IKSt6vectorIiSaIiEEEE@Base 1.6
 (optional=templinst)_ZN3pcl6KdTreeINS_14PointWithRangeEEC1Eb@Base 1.6
 (optional=templinst)_ZN3pcl6KdTreeINS_14PointWithRangeEEC2Eb@Base 1.6
 (optional=templinst)_ZN3pcl6KdTreeINS_14PointWithRangeEED0Ev@Base 1.6
 (optional=templinst)_ZN3pcl6KdTreeINS_14PointWithRangeEED1Ev@Base 1.6
 (optional=templinst)_ZN3pcl6KdTreeINS_14PointWithRangeEED2Ev@Base 1.6
 (optional=templinst)_ZN3pcl6KdTreeINS_14PointWithScaleEE10setEpsilonEf@Base 1.6
 (optional=templinst)_ZN3pcl6KdTreeINS_14PointWithScaleEE13setInputCloudERKN5boost10shared_ptrIKNS_10PointCloudIS1_EEEERKNS4_IKSt6vectorIiSaIiEEEE@Base 1.6
 (optional=templinst)_ZN3pcl6KdTreeINS_14PointWithScaleEEC1Eb@Base 1.6
 (optional=templinst)_ZN3pcl6KdTreeINS_14PointWithScaleEEC2Eb@Base 1.6
 (optional=templinst)_ZN3pcl6KdTreeINS_14PointWithScaleEED0Ev@Base 1.6
 (optional=templinst)_ZN3pcl6KdTreeINS_14PointWithScaleEED1Ev@Base 1.6
 (optional=templinst)_ZN3pcl6KdTreeINS_14PointWithScaleEED2Ev@Base 1.6
 (optional=templinst)_ZN3pcl6KdTreeINS_15PointXYZINormalEE10setEpsilonEf@Base 1.6
 (optional=templinst)_ZN3pcl6KdTreeINS_15PointXYZINormalEE13setInputCloudERKN5boost10shared_ptrIKNS_10PointCloudIS1_EEEERKNS4_IKSt6vectorIiSaIiEEEE@Base 1.6
 (optional=templinst)_ZN3pcl6KdTreeINS_15PointXYZINormalEEC1Eb@Base 1.6
 (optional=templinst)_ZN3pcl6KdTreeINS_15PointXYZINormalEEC2Eb@Base 1.6
 (optional=templinst)_ZN3pcl6KdTreeINS_15PointXYZINormalEED0Ev@Base 1.6
 (optional=templinst)_ZN3pcl6KdTreeINS_15PointXYZINormalEED1Ev@Base 1.6
 (optional=templinst)_ZN3pcl6KdTreeINS_15PointXYZINormalEED2Ev@Base 1.6
 (optional=templinst)_ZN3pcl6KdTreeINS_17PointXYZRGBNormalEE10setEpsilonEf@Base 1.6
 (optional=templinst)_ZN3pcl6KdTreeINS_17PointXYZRGBNormalEE13setInputCloudERKN5boost10shared_ptrIKNS_10PointCloudIS1_EEEERKNS4_IKSt6vectorIiSaIiEEEE@Base 1.6
 (optional=templinst)_ZN3pcl6KdTreeINS_17PointXYZRGBNormalEEC1Eb@Base 1.6
 (optional=templinst)_ZN3pcl6KdTreeINS_17PointXYZRGBNormalEEC2Eb@Base 1.6
 (optional=templinst)_ZN3pcl6KdTreeINS_17PointXYZRGBNormalEED0Ev@Base 1.6
 (optional=templinst)_ZN3pcl6KdTreeINS_17PointXYZRGBNormalEED1Ev@Base 1.6
 (optional=templinst)_ZN3pcl6KdTreeINS_17PointXYZRGBNormalEED2Ev@Base 1.6
 (optional=templinst)_ZN3pcl6KdTreeINS_18PointWithViewpointEE10setEpsilonEf@Base 1.6
 (optional=templinst)_ZN3pcl6KdTreeINS_18PointWithViewpointEE13setInputCloudERKN5boost10shared_ptrIKNS_10PointCloudIS1_EEEERKNS4_IKSt6vectorIiSaIiEEEE@Base 1.6
 (optional=templinst)_ZN3pcl6KdTreeINS_18PointWithViewpointEEC1Eb@Base 1.6
 (optional=templinst)_ZN3pcl6KdTreeINS_18PointWithViewpointEEC2Eb@Base 1.6
 (optional=templinst)_ZN3pcl6KdTreeINS_18PointWithViewpointEED0Ev@Base 1.6
 (optional=templinst)_ZN3pcl6KdTreeINS_18PointWithViewpointEED1Ev@Base 1.6
 (optional=templinst)_ZN3pcl6KdTreeINS_18PointWithViewpointEED2Ev@Base 1.6
 (optional=templinst)_ZN3pcl6KdTreeINS_8PointXYZEE10setEpsilonEf@Base 1.6
 (optional=templinst)_ZN3pcl6KdTreeINS_8PointXYZEE13setInputCloudERKN5boost10shared_ptrIKNS_10PointCloudIS1_EEEERKNS4_IKSt6vectorIiSaIiEEEE@Base 1.6
 (optional=templinst)_ZN3pcl6KdTreeINS_8PointXYZEEC1Eb@Base 1.6
 (optional=templinst)_ZN3pcl6KdTreeINS_8PointXYZEEC2Eb@Base 1.6
 (optional=templinst)_ZN3pcl6KdTreeINS_8PointXYZEED0Ev@Base 1.6
 (optional=templinst)_ZN3pcl6KdTreeINS_8PointXYZEED1Ev@Base 1.6
 (optional=templinst)_ZN3pcl6KdTreeINS_8PointXYZEED2Ev@Base 1.6
 (optional=templinst)_ZN3pcl6KdTreeINS_9PointXYZIEE10setEpsilonEf@Base 1.6
 (optional=templinst)_ZN3pcl6KdTreeINS_9PointXYZIEE13setInputCloudERKN5boost10shared_ptrIKNS_10PointCloudIS1_EEEERKNS4_IKSt6vectorIiSaIiEEEE@Base 1.6
 (optional=templinst)_ZN3pcl6KdTreeINS_9PointXYZIEEC1Eb@Base 1.6
 (optional=templinst)_ZN3pcl6KdTreeINS_9PointXYZIEEC2Eb@Base 1.6
 (optional=templinst)_ZN3pcl6KdTreeINS_9PointXYZIEED0Ev@Base 1.6
 (optional=templinst)_ZN3pcl6KdTreeINS_9PointXYZIEED1Ev@Base 1.6
 (optional=templinst)_ZN3pcl6KdTreeINS_9PointXYZIEED2Ev@Base 1.6
 (optional=templinst)_ZN3pcl6KdTreeINS_9PointXYZLEE10setEpsilonEf@Base 1.6
 (optional=templinst)_ZN3pcl6KdTreeINS_9PointXYZLEE13setInputCloudERKN5boost10shared_ptrIKNS_10PointCloudIS1_EEEERKNS4_IKSt6vectorIiSaIiEEEE@Base 1.6
 (optional=templinst)_ZN3pcl6KdTreeINS_9PointXYZLEEC1Eb@Base 1.6
 (optional=templinst)_ZN3pcl6KdTreeINS_9PointXYZLEEC2Eb@Base 1.6
 (optional=templinst)_ZN3pcl6KdTreeINS_9PointXYZLEED0Ev@Base 1.6
 (optional=templinst)_ZN3pcl6KdTreeINS_9PointXYZLEED1Ev@Base 1.6
 (optional=templinst)_ZN3pcl6KdTreeINS_9PointXYZLEED2Ev@Base 1.6
 (optional=templinst)_ZN3pcl6octree10OctreeBaseIiNS0_26OctreeContainerDataTVectorIiEENS0_20OctreeContainerEmptyIiEEE23deserializeTreeCallbackERNS0_14OctreeLeafNodeIS3_EERKNS0_9OctreeKeyE@Base 1.6
 (optional=templinst)_ZN3pcl6octree14Octree2BufBaseIiNS0_26OctreeContainerDataTVectorIiEENS0_20OctreeContainerEmptyIiEEE21serializeTreeCallbackERNS0_14OctreeLeafNodeIS3_EERKNS0_9OctreeKeyE@Base 1.6
 (optional=templinst)_ZN3pcl6octree14Octree2BufBaseIiNS0_26OctreeContainerDataTVectorIiEENS0_20OctreeContainerEmptyIiEEE23deserializeTreeCallbackERNS0_14OctreeLeafNodeIS3_EERKNS0_9OctreeKeyE@Base 1.6
 (optional=templinst)_ZN3pcl6octree22OctreePointCloudSearchINS_11PointNormalENS0_26OctreeContainerDataTVectorIiEENS0_20OctreeContainerEmptyIiEEED0Ev@Base 1.6
 (optional=templinst)_ZN3pcl6octree22OctreePointCloudSearchINS_11PointNormalENS0_26OctreeContainerDataTVectorIiEENS0_20OctreeContainerEmptyIiEEED1Ev@Base 1.6
 (optional=templinst)_ZN3pcl6octree22OctreePointCloudSearchINS_11PointNormalENS0_26OctreeContainerDataTVectorIiEENS0_20OctreeContainerEmptyIiEEED2Ev@Base 1.6
 (optional=templinst)_ZN3pcl6octree22OctreePointCloudSearchINS_11PointXYZHSVENS0_26OctreeContainerDataTVectorIiEENS0_20OctreeContainerEmptyIiEEED0Ev@Base 1.6
 (optional=templinst)_ZN3pcl6octree22OctreePointCloudSearchINS_11PointXYZHSVENS0_26OctreeContainerDataTVectorIiEENS0_20OctreeContainerEmptyIiEEED1Ev@Base 1.6
 (optional=templinst)_ZN3pcl6octree22OctreePointCloudSearchINS_11PointXYZHSVENS0_26OctreeContainerDataTVectorIiEENS0_20OctreeContainerEmptyIiEEED2Ev@Base 1.6
 (optional=templinst)_ZN3pcl6octree22OctreePointCloudSearchINS_11PointXYZRGBENS0_26OctreeContainerDataTVectorIiEENS0_20OctreeContainerEmptyIiEEED0Ev@Base 1.6
 (optional=templinst)_ZN3pcl6octree22OctreePointCloudSearchINS_11PointXYZRGBENS0_26OctreeContainerDataTVectorIiEENS0_20OctreeContainerEmptyIiEEED1Ev@Base 1.6
 (optional=templinst)_ZN3pcl6octree22OctreePointCloudSearchINS_11PointXYZRGBENS0_26OctreeContainerDataTVectorIiEENS0_20OctreeContainerEmptyIiEEED2Ev@Base 1.6
 (optional=templinst)_ZN3pcl6octree22OctreePointCloudSearchINS_12PointXYZRGBAENS0_26OctreeContainerDataTVectorIiEENS0_20OctreeContainerEmptyIiEEED0Ev@Base 1.6
 (optional=templinst)_ZN3pcl6octree22OctreePointCloudSearchINS_12PointXYZRGBAENS0_26OctreeContainerDataTVectorIiEENS0_20OctreeContainerEmptyIiEEED1Ev@Base 1.6
 (optional=templinst)_ZN3pcl6octree22OctreePointCloudSearchINS_12PointXYZRGBAENS0_26OctreeContainerDataTVectorIiEENS0_20OctreeContainerEmptyIiEEED2Ev@Base 1.6
 (optional=templinst)_ZN3pcl6octree22OctreePointCloudSearchINS_12PointXYZRGBLENS0_26OctreeContainerDataTVectorIiEENS0_20OctreeContainerEmptyIiEEED0Ev@Base 1.6
 (optional=templinst)_ZN3pcl6octree22OctreePointCloudSearchINS_12PointXYZRGBLENS0_26OctreeContainerDataTVectorIiEENS0_20OctreeContainerEmptyIiEEED1Ev@Base 1.6
 (optional=templinst)_ZN3pcl6octree22OctreePointCloudSearchINS_12PointXYZRGBLENS0_26OctreeContainerDataTVectorIiEENS0_20OctreeContainerEmptyIiEEED2Ev@Base 1.6
 (optional=templinst)_ZN3pcl6octree22OctreePointCloudSearchINS_13InterestPointENS0_26OctreeContainerDataTVectorIiEENS0_20OctreeContainerEmptyIiEEED0Ev@Base 1.6
 (optional=templinst)_ZN3pcl6octree22OctreePointCloudSearchINS_13InterestPointENS0_26OctreeContainerDataTVectorIiEENS0_20OctreeContainerEmptyIiEEED1Ev@Base 1.6
 (optional=templinst)_ZN3pcl6octree22OctreePointCloudSearchINS_13InterestPointENS0_26OctreeContainerDataTVectorIiEENS0_20OctreeContainerEmptyIiEEED2Ev@Base 1.6
 (optional=templinst)_ZN3pcl6octree22OctreePointCloudSearchINS_14PointWithRangeENS0_26OctreeContainerDataTVectorIiEENS0_20OctreeContainerEmptyIiEEED0Ev@Base 1.6
 (optional=templinst)_ZN3pcl6octree22OctreePointCloudSearchINS_14PointWithRangeENS0_26OctreeContainerDataTVectorIiEENS0_20OctreeContainerEmptyIiEEED1Ev@Base 1.6
 (optional=templinst)_ZN3pcl6octree22OctreePointCloudSearchINS_14PointWithRangeENS0_26OctreeContainerDataTVectorIiEENS0_20OctreeContainerEmptyIiEEED2Ev@Base 1.6
 (optional=templinst)_ZN3pcl6octree22OctreePointCloudSearchINS_14PointWithScaleENS0_26OctreeContainerDataTVectorIiEENS0_20OctreeContainerEmptyIiEEED0Ev@Base 1.6
 (optional=templinst)_ZN3pcl6octree22OctreePointCloudSearchINS_14PointWithScaleENS0_26OctreeContainerDataTVectorIiEENS0_20OctreeContainerEmptyIiEEED1Ev@Base 1.6
 (optional=templinst)_ZN3pcl6octree22OctreePointCloudSearchINS_14PointWithScaleENS0_26OctreeContainerDataTVectorIiEENS0_20OctreeContainerEmptyIiEEED2Ev@Base 1.6
 (optional=templinst)_ZN3pcl6octree22OctreePointCloudSearchINS_15PointXYZINormalENS0_26OctreeContainerDataTVectorIiEENS0_20OctreeContainerEmptyIiEEED0Ev@Base 1.6
 (optional=templinst)_ZN3pcl6octree22OctreePointCloudSearchINS_15PointXYZINormalENS0_26OctreeContainerDataTVectorIiEENS0_20OctreeContainerEmptyIiEEED1Ev@Base 1.6
 (optional=templinst)_ZN3pcl6octree22OctreePointCloudSearchINS_15PointXYZINormalENS0_26OctreeContainerDataTVectorIiEENS0_20OctreeContainerEmptyIiEEED2Ev@Base 1.6
 (optional=templinst)_ZN3pcl6octree22OctreePointCloudSearchINS_17PointXYZRGBNormalENS0_26OctreeContainerDataTVectorIiEENS0_20OctreeContainerEmptyIiEEED0Ev@Base 1.6
 (optional=templinst)_ZN3pcl6octree22OctreePointCloudSearchINS_17PointXYZRGBNormalENS0_26OctreeContainerDataTVectorIiEENS0_20OctreeContainerEmptyIiEEED1Ev@Base 1.6
 (optional=templinst)_ZN3pcl6octree22OctreePointCloudSearchINS_17PointXYZRGBNormalENS0_26OctreeContainerDataTVectorIiEENS0_20OctreeContainerEmptyIiEEED2Ev@Base 1.6
 (optional=templinst)_ZN3pcl6octree22OctreePointCloudSearchINS_18PointWithViewpointENS0_26OctreeContainerDataTVectorIiEENS0_20OctreeContainerEmptyIiEEED0Ev@Base 1.6
 (optional=templinst)_ZN3pcl6octree22OctreePointCloudSearchINS_18PointWithViewpointENS0_26OctreeContainerDataTVectorIiEENS0_20OctreeContainerEmptyIiEEED1Ev@Base 1.6
 (optional=templinst)_ZN3pcl6octree22OctreePointCloudSearchINS_18PointWithViewpointENS0_26OctreeContainerDataTVectorIiEENS0_20OctreeContainerEmptyIiEEED2Ev@Base 1.6
 (optional=templinst)_ZN3pcl6octree22OctreePointCloudSearchINS_8PointXYZENS0_26OctreeContainerDataTVectorIiEENS0_20OctreeContainerEmptyIiEEED0Ev@Base 1.6
 (optional=templinst)_ZN3pcl6octree22OctreePointCloudSearchINS_8PointXYZENS0_26OctreeContainerDataTVectorIiEENS0_20OctreeContainerEmptyIiEEED1Ev@Base 1.6
 (optional=templinst)_ZN3pcl6octree22OctreePointCloudSearchINS_8PointXYZENS0_26OctreeContainerDataTVectorIiEENS0_20OctreeContainerEmptyIiEEED2Ev@Base 1.6
 (optional=templinst)_ZN3pcl6octree22OctreePointCloudSearchINS_9PointXYZIENS0_26OctreeContainerDataTVectorIiEENS0_20OctreeContainerEmptyIiEEED0Ev@Base 1.6
 (optional=templinst)_ZN3pcl6octree22OctreePointCloudSearchINS_9PointXYZIENS0_26OctreeContainerDataTVectorIiEENS0_20OctreeContainerEmptyIiEEED1Ev@Base 1.6
 (optional=templinst)_ZN3pcl6octree22OctreePointCloudSearchINS_9PointXYZIENS0_26OctreeContainerDataTVectorIiEENS0_20OctreeContainerEmptyIiEEED2Ev@Base 1.6
 (optional=templinst)_ZN3pcl6octree22OctreePointCloudSearchINS_9PointXYZLENS0_26OctreeContainerDataTVectorIiEENS0_20OctreeContainerEmptyIiEEED0Ev@Base 1.6
 (optional=templinst)_ZN3pcl6octree22OctreePointCloudSearchINS_9PointXYZLENS0_26OctreeContainerDataTVectorIiEENS0_20OctreeContainerEmptyIiEEED1Ev@Base 1.6
 (optional=templinst)_ZN3pcl6octree22OctreePointCloudSearchINS_9PointXYZLENS0_26OctreeContainerDataTVectorIiEENS0_20OctreeContainerEmptyIiEEED2Ev@Base 1.6
 (optional=templinst)_ZN3pcl6octree30OctreePointCloudChangeDetectorINS_11PointNormalENS0_26OctreeContainerDataTVectorIiEENS0_20OctreeContainerEmptyIiEEEC1Ed@Base 1.6
 (optional=templinst)_ZN3pcl6octree30OctreePointCloudChangeDetectorINS_11PointNormalENS0_26OctreeContainerDataTVectorIiEENS0_20OctreeContainerEmptyIiEEEC2Ed@Base 1.6
 (optional=templinst)_ZN3pcl6octree30OctreePointCloudChangeDetectorINS_11PointNormalENS0_26OctreeContainerDataTVectorIiEENS0_20OctreeContainerEmptyIiEEED0Ev@Base 1.6
 (optional=templinst)_ZN3pcl6octree30OctreePointCloudChangeDetectorINS_11PointNormalENS0_26OctreeContainerDataTVectorIiEENS0_20OctreeContainerEmptyIiEEED1Ev@Base 1.6
 (optional=templinst)_ZN3pcl6octree30OctreePointCloudChangeDetectorINS_11PointNormalENS0_26OctreeContainerDataTVectorIiEENS0_20OctreeContainerEmptyIiEEED2Ev@Base 1.6
 (optional=templinst)_ZN3pcl6octree30OctreePointCloudChangeDetectorINS_11PointXYZRGBENS0_26OctreeContainerDataTVectorIiEENS0_20OctreeContainerEmptyIiEEEC1Ed@Base 1.6
 (optional=templinst)_ZN3pcl6octree30OctreePointCloudChangeDetectorINS_11PointXYZRGBENS0_26OctreeContainerDataTVectorIiEENS0_20OctreeContainerEmptyIiEEEC2Ed@Base 1.6
 (optional=templinst)_ZN3pcl6octree30OctreePointCloudChangeDetectorINS_11PointXYZRGBENS0_26OctreeContainerDataTVectorIiEENS0_20OctreeContainerEmptyIiEEED0Ev@Base 1.6
 (optional=templinst)_ZN3pcl6octree30OctreePointCloudChangeDetectorINS_11PointXYZRGBENS0_26OctreeContainerDataTVectorIiEENS0_20OctreeContainerEmptyIiEEED1Ev@Base 1.6
 (optional=templinst)_ZN3pcl6octree30OctreePointCloudChangeDetectorINS_11PointXYZRGBENS0_26OctreeContainerDataTVectorIiEENS0_20OctreeContainerEmptyIiEEED2Ev@Base 1.6
 (optional=templinst)_ZN3pcl6octree30OctreePointCloudChangeDetectorINS_12PointXYZRGBAENS0_26OctreeContainerDataTVectorIiEENS0_20OctreeContainerEmptyIiEEEC1Ed@Base 1.6
 (optional=templinst)_ZN3pcl6octree30OctreePointCloudChangeDetectorINS_12PointXYZRGBAENS0_26OctreeContainerDataTVectorIiEENS0_20OctreeContainerEmptyIiEEEC2Ed@Base 1.6
 (optional=templinst)_ZN3pcl6octree30OctreePointCloudChangeDetectorINS_12PointXYZRGBAENS0_26OctreeContainerDataTVectorIiEENS0_20OctreeContainerEmptyIiEEED0Ev@Base 1.6
 (optional=templinst)_ZN3pcl6octree30OctreePointCloudChangeDetectorINS_12PointXYZRGBAENS0_26OctreeContainerDataTVectorIiEENS0_20OctreeContainerEmptyIiEEED1Ev@Base 1.6
 (optional=templinst)_ZN3pcl6octree30OctreePointCloudChangeDetectorINS_12PointXYZRGBAENS0_26OctreeContainerDataTVectorIiEENS0_20OctreeContainerEmptyIiEEED2Ev@Base 1.6
 (optional=templinst)_ZN3pcl6octree30OctreePointCloudChangeDetectorINS_13InterestPointENS0_26OctreeContainerDataTVectorIiEENS0_20OctreeContainerEmptyIiEEEC1Ed@Base 1.6
 (optional=templinst)_ZN3pcl6octree30OctreePointCloudChangeDetectorINS_13InterestPointENS0_26OctreeContainerDataTVectorIiEENS0_20OctreeContainerEmptyIiEEEC2Ed@Base 1.6
 (optional=templinst)_ZN3pcl6octree30OctreePointCloudChangeDetectorINS_13InterestPointENS0_26OctreeContainerDataTVectorIiEENS0_20OctreeContainerEmptyIiEEED0Ev@Base 1.6
 (optional=templinst)_ZN3pcl6octree30OctreePointCloudChangeDetectorINS_13InterestPointENS0_26OctreeContainerDataTVectorIiEENS0_20OctreeContainerEmptyIiEEED1Ev@Base 1.6
 (optional=templinst)_ZN3pcl6octree30OctreePointCloudChangeDetectorINS_13InterestPointENS0_26OctreeContainerDataTVectorIiEENS0_20OctreeContainerEmptyIiEEED2Ev@Base 1.6
 (optional=templinst)_ZN3pcl6octree30OctreePointCloudChangeDetectorINS_14PointWithRangeENS0_26OctreeContainerDataTVectorIiEENS0_20OctreeContainerEmptyIiEEEC1Ed@Base 1.6
 (optional=templinst)_ZN3pcl6octree30OctreePointCloudChangeDetectorINS_14PointWithRangeENS0_26OctreeContainerDataTVectorIiEENS0_20OctreeContainerEmptyIiEEEC2Ed@Base 1.6
 (optional=templinst)_ZN3pcl6octree30OctreePointCloudChangeDetectorINS_14PointWithRangeENS0_26OctreeContainerDataTVectorIiEENS0_20OctreeContainerEmptyIiEEED0Ev@Base 1.6
 (optional=templinst)_ZN3pcl6octree30OctreePointCloudChangeDetectorINS_14PointWithRangeENS0_26OctreeContainerDataTVectorIiEENS0_20OctreeContainerEmptyIiEEED1Ev@Base 1.6
 (optional=templinst)_ZN3pcl6octree30OctreePointCloudChangeDetectorINS_14PointWithRangeENS0_26OctreeContainerDataTVectorIiEENS0_20OctreeContainerEmptyIiEEED2Ev@Base 1.6
 (optional=templinst)_ZN3pcl6octree30OctreePointCloudChangeDetectorINS_14PointWithScaleENS0_26OctreeContainerDataTVectorIiEENS0_20OctreeContainerEmptyIiEEEC1Ed@Base 1.6
 (optional=templinst)_ZN3pcl6octree30OctreePointCloudChangeDetectorINS_14PointWithScaleENS0_26OctreeContainerDataTVectorIiEENS0_20OctreeContainerEmptyIiEEEC2Ed@Base 1.6
 (optional=templinst)_ZN3pcl6octree30OctreePointCloudChangeDetectorINS_14PointWithScaleENS0_26OctreeContainerDataTVectorIiEENS0_20OctreeContainerEmptyIiEEED0Ev@Base 1.6
 (optional=templinst)_ZN3pcl6octree30OctreePointCloudChangeDetectorINS_14PointWithScaleENS0_26OctreeContainerDataTVectorIiEENS0_20OctreeContainerEmptyIiEEED1Ev@Base 1.6
 (optional=templinst)_ZN3pcl6octree30OctreePointCloudChangeDetectorINS_14PointWithScaleENS0_26OctreeContainerDataTVectorIiEENS0_20OctreeContainerEmptyIiEEED2Ev@Base 1.6
 (optional=templinst)_ZN3pcl6octree30OctreePointCloudChangeDetectorINS_15PointXYZINormalENS0_26OctreeContainerDataTVectorIiEENS0_20OctreeContainerEmptyIiEEEC1Ed@Base 1.6
 (optional=templinst)_ZN3pcl6octree30OctreePointCloudChangeDetectorINS_15PointXYZINormalENS0_26OctreeContainerDataTVectorIiEENS0_20OctreeContainerEmptyIiEEEC2Ed@Base 1.6
 (optional=templinst)_ZN3pcl6octree30OctreePointCloudChangeDetectorINS_15PointXYZINormalENS0_26OctreeContainerDataTVectorIiEENS0_20OctreeContainerEmptyIiEEED0Ev@Base 1.6
 (optional=templinst)_ZN3pcl6octree30OctreePointCloudChangeDetectorINS_15PointXYZINormalENS0_26OctreeContainerDataTVectorIiEENS0_20OctreeContainerEmptyIiEEED1Ev@Base 1.6
 (optional=templinst)_ZN3pcl6octree30OctreePointCloudChangeDetectorINS_15PointXYZINormalENS0_26OctreeContainerDataTVectorIiEENS0_20OctreeContainerEmptyIiEEED2Ev@Base 1.6
 (optional=templinst)_ZN3pcl6octree30OctreePointCloudChangeDetectorINS_17PointXYZRGBNormalENS0_26OctreeContainerDataTVectorIiEENS0_20OctreeContainerEmptyIiEEEC1Ed@Base 1.6
 (optional=templinst)_ZN3pcl6octree30OctreePointCloudChangeDetectorINS_17PointXYZRGBNormalENS0_26OctreeContainerDataTVectorIiEENS0_20OctreeContainerEmptyIiEEEC2Ed@Base 1.6
 (optional=templinst)_ZN3pcl6octree30OctreePointCloudChangeDetectorINS_17PointXYZRGBNormalENS0_26OctreeContainerDataTVectorIiEENS0_20OctreeContainerEmptyIiEEED0Ev@Base 1.6
 (optional=templinst)_ZN3pcl6octree30OctreePointCloudChangeDetectorINS_17PointXYZRGBNormalENS0_26OctreeContainerDataTVectorIiEENS0_20OctreeContainerEmptyIiEEED1Ev@Base 1.6
 (optional=templinst)_ZN3pcl6octree30OctreePointCloudChangeDetectorINS_17PointXYZRGBNormalENS0_26OctreeContainerDataTVectorIiEENS0_20OctreeContainerEmptyIiEEED2Ev@Base 1.6
 (optional=templinst)_ZN3pcl6octree30OctreePointCloudChangeDetectorINS_18PointWithViewpointENS0_26OctreeContainerDataTVectorIiEENS0_20OctreeContainerEmptyIiEEEC1Ed@Base 1.6
 (optional=templinst)_ZN3pcl6octree30OctreePointCloudChangeDetectorINS_18PointWithViewpointENS0_26OctreeContainerDataTVectorIiEENS0_20OctreeContainerEmptyIiEEEC2Ed@Base 1.6
 (optional=templinst)_ZN3pcl6octree30OctreePointCloudChangeDetectorINS_18PointWithViewpointENS0_26OctreeContainerDataTVectorIiEENS0_20OctreeContainerEmptyIiEEED0Ev@Base 1.6
 (optional=templinst)_ZN3pcl6octree30OctreePointCloudChangeDetectorINS_18PointWithViewpointENS0_26OctreeContainerDataTVectorIiEENS0_20OctreeContainerEmptyIiEEED1Ev@Base 1.6
 (optional=templinst)_ZN3pcl6octree30OctreePointCloudChangeDetectorINS_18PointWithViewpointENS0_26OctreeContainerDataTVectorIiEENS0_20OctreeContainerEmptyIiEEED2Ev@Base 1.6
 (optional=templinst)_ZN3pcl6octree30OctreePointCloudChangeDetectorINS_8PointXYZENS0_26OctreeContainerDataTVectorIiEENS0_20OctreeContainerEmptyIiEEEC1Ed@Base 1.6
 (optional=templinst)_ZN3pcl6octree30OctreePointCloudChangeDetectorINS_8PointXYZENS0_26OctreeContainerDataTVectorIiEENS0_20OctreeContainerEmptyIiEEEC2Ed@Base 1.6
 (optional=templinst)_ZN3pcl6octree30OctreePointCloudChangeDetectorINS_8PointXYZENS0_26OctreeContainerDataTVectorIiEENS0_20OctreeContainerEmptyIiEEED0Ev@Base 1.6
 (optional=templinst)_ZN3pcl6octree30OctreePointCloudChangeDetectorINS_8PointXYZENS0_26OctreeContainerDataTVectorIiEENS0_20OctreeContainerEmptyIiEEED1Ev@Base 1.6
 (optional=templinst)_ZN3pcl6octree30OctreePointCloudChangeDetectorINS_8PointXYZENS0_26OctreeContainerDataTVectorIiEENS0_20OctreeContainerEmptyIiEEED2Ev@Base 1.6
 (optional=templinst)_ZN3pcl6octree30OctreePointCloudChangeDetectorINS_9PointXYZIENS0_26OctreeContainerDataTVectorIiEENS0_20OctreeContainerEmptyIiEEEC1Ed@Base 1.6
 (optional=templinst)_ZN3pcl6octree30OctreePointCloudChangeDetectorINS_9PointXYZIENS0_26OctreeContainerDataTVectorIiEENS0_20OctreeContainerEmptyIiEEEC2Ed@Base 1.6
 (optional=templinst)_ZN3pcl6octree30OctreePointCloudChangeDetectorINS_9PointXYZIENS0_26OctreeContainerDataTVectorIiEENS0_20OctreeContainerEmptyIiEEED0Ev@Base 1.6
 (optional=templinst)_ZN3pcl6octree30OctreePointCloudChangeDetectorINS_9PointXYZIENS0_26OctreeContainerDataTVectorIiEENS0_20OctreeContainerEmptyIiEEED1Ev@Base 1.6
 (optional=templinst)_ZN3pcl6octree30OctreePointCloudChangeDetectorINS_9PointXYZIENS0_26OctreeContainerDataTVectorIiEENS0_20OctreeContainerEmptyIiEEED2Ev@Base 1.6
 (optional=templinst)_ZN3pcl6search6KdTreeINS_11PointNormalEE13setInputCloudERKN5boost10shared_ptrIKNS_10PointCloudIS2_EEEERKNS5_IKSt6vectorIiSaIiEEEE@Base 1.6
 (optional=templinst)_ZN3pcl6search6KdTreeINS_11PointNormalEE16setSortedResultsEb@Base 1.6
 (optional=templinst)_ZN3pcl6search6KdTreeINS_11PointNormalEEC1Eb@Base 1.6
 (optional=templinst)_ZN3pcl6search6KdTreeINS_11PointNormalEEC2Eb@Base 1.6
 (optional=templinst)_ZN3pcl6search6KdTreeINS_11PointNormalEED0Ev@Base 1.6
 (optional=templinst)_ZN3pcl6search6KdTreeINS_11PointNormalEED1Ev@Base 1.6
 (optional=templinst)_ZN3pcl6search6KdTreeINS_11PointNormalEED2Ev@Base 1.6
 (optional=templinst)_ZN3pcl6search6KdTreeINS_11PointXYZHSVEE13setInputCloudERKN5boost10shared_ptrIKNS_10PointCloudIS2_EEEERKNS5_IKSt6vectorIiSaIiEEEE@Base 1.6
 (optional=templinst)_ZN3pcl6search6KdTreeINS_11PointXYZHSVEE16setSortedResultsEb@Base 1.6
 (optional=templinst)_ZN3pcl6search6KdTreeINS_11PointXYZHSVEEC1Eb@Base 1.6
 (optional=templinst)_ZN3pcl6search6KdTreeINS_11PointXYZHSVEEC2Eb@Base 1.6
 (optional=templinst)_ZN3pcl6search6KdTreeINS_11PointXYZHSVEED0Ev@Base 1.6
 (optional=templinst)_ZN3pcl6search6KdTreeINS_11PointXYZHSVEED1Ev@Base 1.6
 (optional=templinst)_ZN3pcl6search6KdTreeINS_11PointXYZHSVEED2Ev@Base 1.6
 (optional=templinst)_ZN3pcl6search6KdTreeINS_11PointXYZRGBEE13setInputCloudERKN5boost10shared_ptrIKNS_10PointCloudIS2_EEEERKNS5_IKSt6vectorIiSaIiEEEE@Base 1.6
 (optional=templinst)_ZN3pcl6search6KdTreeINS_11PointXYZRGBEE16setSortedResultsEb@Base 1.6
 (optional=templinst)_ZN3pcl6search6KdTreeINS_11PointXYZRGBEEC1Eb@Base 1.6
 (optional=templinst)_ZN3pcl6search6KdTreeINS_11PointXYZRGBEEC2Eb@Base 1.6
 (optional=templinst)_ZN3pcl6search6KdTreeINS_11PointXYZRGBEED0Ev@Base 1.6
 (optional=templinst)_ZN3pcl6search6KdTreeINS_11PointXYZRGBEED1Ev@Base 1.6
 (optional=templinst)_ZN3pcl6search6KdTreeINS_11PointXYZRGBEED2Ev@Base 1.6
 (optional=templinst)_ZN3pcl6search6KdTreeINS_12PointXYZRGBAEE13setInputCloudERKN5boost10shared_ptrIKNS_10PointCloudIS2_EEEERKNS5_IKSt6vectorIiSaIiEEEE@Base 1.6
 (optional=templinst)_ZN3pcl6search6KdTreeINS_12PointXYZRGBAEE16setSortedResultsEb@Base 1.6
 (optional=templinst)_ZN3pcl6search6KdTreeINS_12PointXYZRGBAEEC1Eb@Base 1.6
 (optional=templinst)_ZN3pcl6search6KdTreeINS_12PointXYZRGBAEEC2Eb@Base 1.6
 (optional=templinst)_ZN3pcl6search6KdTreeINS_12PointXYZRGBAEED0Ev@Base 1.6
 (optional=templinst)_ZN3pcl6search6KdTreeINS_12PointXYZRGBAEED1Ev@Base 1.6
 (optional=templinst)_ZN3pcl6search6KdTreeINS_12PointXYZRGBAEED2Ev@Base 1.6
 (optional=templinst)_ZN3pcl6search6KdTreeINS_12PointXYZRGBLEE13setInputCloudERKN5boost10shared_ptrIKNS_10PointCloudIS2_EEEERKNS5_IKSt6vectorIiSaIiEEEE@Base 1.6
 (optional=templinst)_ZN3pcl6search6KdTreeINS_12PointXYZRGBLEE16setSortedResultsEb@Base 1.6
 (optional=templinst)_ZN3pcl6search6KdTreeINS_12PointXYZRGBLEEC1Eb@Base 1.6
 (optional=templinst)_ZN3pcl6search6KdTreeINS_12PointXYZRGBLEEC2Eb@Base 1.6
 (optional=templinst)_ZN3pcl6search6KdTreeINS_12PointXYZRGBLEED0Ev@Base 1.6
 (optional=templinst)_ZN3pcl6search6KdTreeINS_12PointXYZRGBLEED1Ev@Base 1.6
 (optional=templinst)_ZN3pcl6search6KdTreeINS_12PointXYZRGBLEED2Ev@Base 1.6
 (optional=templinst)_ZN3pcl6search6KdTreeINS_13InterestPointEE13setInputCloudERKN5boost10shared_ptrIKNS_10PointCloudIS2_EEEERKNS5_IKSt6vectorIiSaIiEEEE@Base 1.6
 (optional=templinst)_ZN3pcl6search6KdTreeINS_13InterestPointEE16setSortedResultsEb@Base 1.6
 (optional=templinst)_ZN3pcl6search6KdTreeINS_13InterestPointEEC1Eb@Base 1.6
 (optional=templinst)_ZN3pcl6search6KdTreeINS_13InterestPointEEC2Eb@Base 1.6
 (optional=templinst)_ZN3pcl6search6KdTreeINS_13InterestPointEED0Ev@Base 1.6
 (optional=templinst)_ZN3pcl6search6KdTreeINS_13InterestPointEED1Ev@Base 1.6
 (optional=templinst)_ZN3pcl6search6KdTreeINS_13InterestPointEED2Ev@Base 1.6
 (optional=templinst)_ZN3pcl6search6KdTreeINS_14PointWithRangeEE13setInputCloudERKN5boost10shared_ptrIKNS_10PointCloudIS2_EEEERKNS5_IKSt6vectorIiSaIiEEEE@Base 1.6
 (optional=templinst)_ZN3pcl6search6KdTreeINS_14PointWithRangeEE16setSortedResultsEb@Base 1.6
 (optional=templinst)_ZN3pcl6search6KdTreeINS_14PointWithRangeEEC1Eb@Base 1.6
 (optional=templinst)_ZN3pcl6search6KdTreeINS_14PointWithRangeEEC2Eb@Base 1.6
 (optional=templinst)_ZN3pcl6search6KdTreeINS_14PointWithRangeEED0Ev@Base 1.6
 (optional=templinst)_ZN3pcl6search6KdTreeINS_14PointWithRangeEED1Ev@Base 1.6
 (optional=templinst)_ZN3pcl6search6KdTreeINS_14PointWithRangeEED2Ev@Base 1.6
 (optional=templinst)_ZN3pcl6search6KdTreeINS_14PointWithScaleEE13setInputCloudERKN5boost10shared_ptrIKNS_10PointCloudIS2_EEEERKNS5_IKSt6vectorIiSaIiEEEE@Base 1.6
 (optional=templinst)_ZN3pcl6search6KdTreeINS_14PointWithScaleEE16setSortedResultsEb@Base 1.6
 (optional=templinst)_ZN3pcl6search6KdTreeINS_14PointWithScaleEEC1Eb@Base 1.6
 (optional=templinst)_ZN3pcl6search6KdTreeINS_14PointWithScaleEEC2Eb@Base 1.6
 (optional=templinst)_ZN3pcl6search6KdTreeINS_14PointWithScaleEED0Ev@Base 1.6
 (optional=templinst)_ZN3pcl6search6KdTreeINS_14PointWithScaleEED1Ev@Base 1.6
 (optional=templinst)_ZN3pcl6search6KdTreeINS_14PointWithScaleEED2Ev@Base 1.6
 (optional=templinst)_ZN3pcl6search6KdTreeINS_15PointXYZINormalEE13setInputCloudERKN5boost10shared_ptrIKNS_10PointCloudIS2_EEEERKNS5_IKSt6vectorIiSaIiEEEE@Base 1.6
 (optional=templinst)_ZN3pcl6search6KdTreeINS_15PointXYZINormalEE16setSortedResultsEb@Base 1.6
 (optional=templinst)_ZN3pcl6search6KdTreeINS_15PointXYZINormalEEC1Eb@Base 1.6
 (optional=templinst)_ZN3pcl6search6KdTreeINS_15PointXYZINormalEEC2Eb@Base 1.6
 (optional=templinst)_ZN3pcl6search6KdTreeINS_15PointXYZINormalEED0Ev@Base 1.6
 (optional=templinst)_ZN3pcl6search6KdTreeINS_15PointXYZINormalEED1Ev@Base 1.6
 (optional=templinst)_ZN3pcl6search6KdTreeINS_15PointXYZINormalEED2Ev@Base 1.6
 (optional=templinst)_ZN3pcl6search6KdTreeINS_17PointXYZRGBNormalEE13setInputCloudERKN5boost10shared_ptrIKNS_10PointCloudIS2_EEEERKNS5_IKSt6vectorIiSaIiEEEE@Base 1.6
 (optional=templinst)_ZN3pcl6search6KdTreeINS_17PointXYZRGBNormalEE16setSortedResultsEb@Base 1.6
 (optional=templinst)_ZN3pcl6search6KdTreeINS_17PointXYZRGBNormalEEC1Eb@Base 1.6
 (optional=templinst)_ZN3pcl6search6KdTreeINS_17PointXYZRGBNormalEEC2Eb@Base 1.6
 (optional=templinst)_ZN3pcl6search6KdTreeINS_17PointXYZRGBNormalEED0Ev@Base 1.6
 (optional=templinst)_ZN3pcl6search6KdTreeINS_17PointXYZRGBNormalEED1Ev@Base 1.6
 (optional=templinst)_ZN3pcl6search6KdTreeINS_17PointXYZRGBNormalEED2Ev@Base 1.6
 (optional=templinst)_ZN3pcl6search6KdTreeINS_18PointWithViewpointEE13setInputCloudERKN5boost10shared_ptrIKNS_10PointCloudIS2_EEEERKNS5_IKSt6vectorIiSaIiEEEE@Base 1.6
 (optional=templinst)_ZN3pcl6search6KdTreeINS_18PointWithViewpointEE16setSortedResultsEb@Base 1.6
 (optional=templinst)_ZN3pcl6search6KdTreeINS_18PointWithViewpointEEC1Eb@Base 1.6
 (optional=templinst)_ZN3pcl6search6KdTreeINS_18PointWithViewpointEEC2Eb@Base 1.6
 (optional=templinst)_ZN3pcl6search6KdTreeINS_18PointWithViewpointEED0Ev@Base 1.6
 (optional=templinst)_ZN3pcl6search6KdTreeINS_18PointWithViewpointEED1Ev@Base 1.6
 (optional=templinst)_ZN3pcl6search6KdTreeINS_18PointWithViewpointEED2Ev@Base 1.6
 (optional=templinst)_ZN3pcl6search6KdTreeINS_8PointXYZEE13setInputCloudERKN5boost10shared_ptrIKNS_10PointCloudIS2_EEEERKNS5_IKSt6vectorIiSaIiEEEE@Base 1.6
 (optional=templinst)_ZN3pcl6search6KdTreeINS_8PointXYZEE16setSortedResultsEb@Base 1.6
 (optional=templinst)_ZN3pcl6search6KdTreeINS_8PointXYZEEC1Eb@Base 1.6
 (optional=templinst)_ZN3pcl6search6KdTreeINS_8PointXYZEEC2Eb@Base 1.6
 (optional=templinst)_ZN3pcl6search6KdTreeINS_8PointXYZEED0Ev@Base 1.6
 (optional=templinst)_ZN3pcl6search6KdTreeINS_8PointXYZEED1Ev@Base 1.6
 (optional=templinst)_ZN3pcl6search6KdTreeINS_8PointXYZEED2Ev@Base 1.6
 (optional=templinst)_ZN3pcl6search6KdTreeINS_9PointXYZIEE13setInputCloudERKN5boost10shared_ptrIKNS_10PointCloudIS2_EEEERKNS5_IKSt6vectorIiSaIiEEEE@Base 1.6
 (optional=templinst)_ZN3pcl6search6KdTreeINS_9PointXYZIEE16setSortedResultsEb@Base 1.6
 (optional=templinst)_ZN3pcl6search6KdTreeINS_9PointXYZIEEC1Eb@Base 1.6
 (optional=templinst)_ZN3pcl6search6KdTreeINS_9PointXYZIEEC2Eb@Base 1.6
 (optional=templinst)_ZN3pcl6search6KdTreeINS_9PointXYZIEED0Ev@Base 1.6
 (optional=templinst)_ZN3pcl6search6KdTreeINS_9PointXYZIEED1Ev@Base 1.6
 (optional=templinst)_ZN3pcl6search6KdTreeINS_9PointXYZIEED2Ev@Base 1.6
 (optional=templinst)_ZN3pcl6search6KdTreeINS_9PointXYZLEE13setInputCloudERKN5boost10shared_ptrIKNS_10PointCloudIS2_EEEERKNS5_IKSt6vectorIiSaIiEEEE@Base 1.6
 (optional=templinst)_ZN3pcl6search6KdTreeINS_9PointXYZLEE16setSortedResultsEb@Base 1.6
 (optional=templinst)_ZN3pcl6search6KdTreeINS_9PointXYZLEEC1Eb@Base 1.6
 (optional=templinst)_ZN3pcl6search6KdTreeINS_9PointXYZLEEC2Eb@Base 1.6
 (optional=templinst)_ZN3pcl6search6KdTreeINS_9PointXYZLEED0Ev@Base 1.6
 (optional=templinst)_ZN3pcl6search6KdTreeINS_9PointXYZLEED1Ev@Base 1.6
 (optional=templinst)_ZN3pcl6search6KdTreeINS_9PointXYZLEED2Ev@Base 1.6
 (optional=templinst)_ZN3pcl6search6OctreeINS_11PointNormalENS_6octree26OctreeContainerDataTVectorIiEENS3_20OctreeContainerEmptyIiEENS3_10OctreeBaseIiS5_S7_EEE13setInputCloudERKN5boost10shared_ptrIKNS_10PointCloudIS2_EEEE@Base 1.6
 (optional=templinst)_ZN3pcl6search6OctreeINS_11PointNormalENS_6octree26OctreeContainerDataTVectorIiEENS3_20OctreeContainerEmptyIiEENS3_10OctreeBaseIiS5_S7_EEE13setInputCloudERKN5boost10shared_ptrIKNS_10PointCloudIS2_EEEERKNSC_IKSt6vectorIiSaIiEEEE@Base 1.6
 (optional=templinst)_ZN3pcl6search6OctreeINS_11PointNormalENS_6octree26OctreeContainerDataTVectorIiEENS3_20OctreeContainerEmptyIiEENS3_10OctreeBaseIiS5_S7_EEEC1Ed@Base 1.6
 (optional=templinst)_ZN3pcl6search6OctreeINS_11PointNormalENS_6octree26OctreeContainerDataTVectorIiEENS3_20OctreeContainerEmptyIiEENS3_10OctreeBaseIiS5_S7_EEEC2Ed@Base 1.6
 (optional=templinst)_ZN3pcl6search6OctreeINS_11PointNormalENS_6octree26OctreeContainerDataTVectorIiEENS3_20OctreeContainerEmptyIiEENS3_10OctreeBaseIiS5_S7_EEED0Ev@Base 1.6
 (optional=templinst)_ZN3pcl6search6OctreeINS_11PointNormalENS_6octree26OctreeContainerDataTVectorIiEENS3_20OctreeContainerEmptyIiEENS3_10OctreeBaseIiS5_S7_EEED1Ev@Base 1.6
 (optional=templinst)_ZN3pcl6search6OctreeINS_11PointNormalENS_6octree26OctreeContainerDataTVectorIiEENS3_20OctreeContainerEmptyIiEENS3_10OctreeBaseIiS5_S7_EEED2Ev@Base 1.6
 (optional=templinst)_ZN3pcl6search6OctreeINS_11PointXYZHSVENS_6octree26OctreeContainerDataTVectorIiEENS3_20OctreeContainerEmptyIiEENS3_10OctreeBaseIiS5_S7_EEE13setInputCloudERKN5boost10shared_ptrIKNS_10PointCloudIS2_EEEE@Base 1.6
 (optional=templinst)_ZN3pcl6search6OctreeINS_11PointXYZHSVENS_6octree26OctreeContainerDataTVectorIiEENS3_20OctreeContainerEmptyIiEENS3_10OctreeBaseIiS5_S7_EEE13setInputCloudERKN5boost10shared_ptrIKNS_10PointCloudIS2_EEEERKNSC_IKSt6vectorIiSaIiEEEE@Base 1.6
 (optional=templinst)_ZN3pcl6search6OctreeINS_11PointXYZHSVENS_6octree26OctreeContainerDataTVectorIiEENS3_20OctreeContainerEmptyIiEENS3_10OctreeBaseIiS5_S7_EEEC1Ed@Base 1.6
 (optional=templinst)_ZN3pcl6search6OctreeINS_11PointXYZHSVENS_6octree26OctreeContainerDataTVectorIiEENS3_20OctreeContainerEmptyIiEENS3_10OctreeBaseIiS5_S7_EEEC2Ed@Base 1.6
 (optional=templinst)_ZN3pcl6search6OctreeINS_11PointXYZHSVENS_6octree26OctreeContainerDataTVectorIiEENS3_20OctreeContainerEmptyIiEENS3_10OctreeBaseIiS5_S7_EEED0Ev@Base 1.6
 (optional=templinst)_ZN3pcl6search6OctreeINS_11PointXYZHSVENS_6octree26OctreeContainerDataTVectorIiEENS3_20OctreeContainerEmptyIiEENS3_10OctreeBaseIiS5_S7_EEED1Ev@Base 1.6
 (optional=templinst)_ZN3pcl6search6OctreeINS_11PointXYZHSVENS_6octree26OctreeContainerDataTVectorIiEENS3_20OctreeContainerEmptyIiEENS3_10OctreeBaseIiS5_S7_EEED2Ev@Base 1.6
 (optional=templinst)_ZN3pcl6search6OctreeINS_11PointXYZRGBENS_6octree26OctreeContainerDataTVectorIiEENS3_20OctreeContainerEmptyIiEENS3_10OctreeBaseIiS5_S7_EEE13setInputCloudERKN5boost10shared_ptrIKNS_10PointCloudIS2_EEEE@Base 1.6
 (optional=templinst)_ZN3pcl6search6OctreeINS_11PointXYZRGBENS_6octree26OctreeContainerDataTVectorIiEENS3_20OctreeContainerEmptyIiEENS3_10OctreeBaseIiS5_S7_EEE13setInputCloudERKN5boost10shared_ptrIKNS_10PointCloudIS2_EEEERKNSC_IKSt6vectorIiSaIiEEEE@Base 1.6
 (optional=templinst)_ZN3pcl6search6OctreeINS_11PointXYZRGBENS_6octree26OctreeContainerDataTVectorIiEENS3_20OctreeContainerEmptyIiEENS3_10OctreeBaseIiS5_S7_EEEC1Ed@Base 1.6
 (optional=templinst)_ZN3pcl6search6OctreeINS_11PointXYZRGBENS_6octree26OctreeContainerDataTVectorIiEENS3_20OctreeContainerEmptyIiEENS3_10OctreeBaseIiS5_S7_EEEC2Ed@Base 1.6
 (optional=templinst)_ZN3pcl6search6OctreeINS_11PointXYZRGBENS_6octree26OctreeContainerDataTVectorIiEENS3_20OctreeContainerEmptyIiEENS3_10OctreeBaseIiS5_S7_EEED0Ev@Base 1.6
 (optional=templinst)_ZN3pcl6search6OctreeINS_11PointXYZRGBENS_6octree26OctreeContainerDataTVectorIiEENS3_20OctreeContainerEmptyIiEENS3_10OctreeBaseIiS5_S7_EEED1Ev@Base 1.6
 (optional=templinst)_ZN3pcl6search6OctreeINS_11PointXYZRGBENS_6octree26OctreeContainerDataTVectorIiEENS3_20OctreeContainerEmptyIiEENS3_10OctreeBaseIiS5_S7_EEED2Ev@Base 1.6
 (optional=templinst)_ZN3pcl6search6OctreeINS_12PointXYZRGBAENS_6octree26OctreeContainerDataTVectorIiEENS3_20OctreeContainerEmptyIiEENS3_10OctreeBaseIiS5_S7_EEE13setInputCloudERKN5boost10shared_ptrIKNS_10PointCloudIS2_EEEE@Base 1.6
 (optional=templinst)_ZN3pcl6search6OctreeINS_12PointXYZRGBAENS_6octree26OctreeContainerDataTVectorIiEENS3_20OctreeContainerEmptyIiEENS3_10OctreeBaseIiS5_S7_EEE13setInputCloudERKN5boost10shared_ptrIKNS_10PointCloudIS2_EEEERKNSC_IKSt6vectorIiSaIiEEEE@Base 1.6
 (optional=templinst)_ZN3pcl6search6OctreeINS_12PointXYZRGBAENS_6octree26OctreeContainerDataTVectorIiEENS3_20OctreeContainerEmptyIiEENS3_10OctreeBaseIiS5_S7_EEEC1Ed@Base 1.6
 (optional=templinst)_ZN3pcl6search6OctreeINS_12PointXYZRGBAENS_6octree26OctreeContainerDataTVectorIiEENS3_20OctreeContainerEmptyIiEENS3_10OctreeBaseIiS5_S7_EEEC2Ed@Base 1.6
 (optional=templinst)_ZN3pcl6search6OctreeINS_12PointXYZRGBAENS_6octree26OctreeContainerDataTVectorIiEENS3_20OctreeContainerEmptyIiEENS3_10OctreeBaseIiS5_S7_EEED0Ev@Base 1.6
 (optional=templinst)_ZN3pcl6search6OctreeINS_12PointXYZRGBAENS_6octree26OctreeContainerDataTVectorIiEENS3_20OctreeContainerEmptyIiEENS3_10OctreeBaseIiS5_S7_EEED1Ev@Base 1.6
 (optional=templinst)_ZN3pcl6search6OctreeINS_12PointXYZRGBAENS_6octree26OctreeContainerDataTVectorIiEENS3_20OctreeContainerEmptyIiEENS3_10OctreeBaseIiS5_S7_EEED2Ev@Base 1.6
 (optional=templinst)_ZN3pcl6search6OctreeINS_12PointXYZRGBLENS_6octree26OctreeContainerDataTVectorIiEENS3_20OctreeContainerEmptyIiEENS3_10OctreeBaseIiS5_S7_EEE13setInputCloudERKN5boost10shared_ptrIKNS_10PointCloudIS2_EEEE@Base 1.6
 (optional=templinst)_ZN3pcl6search6OctreeINS_12PointXYZRGBLENS_6octree26OctreeContainerDataTVectorIiEENS3_20OctreeContainerEmptyIiEENS3_10OctreeBaseIiS5_S7_EEE13setInputCloudERKN5boost10shared_ptrIKNS_10PointCloudIS2_EEEERKNSC_IKSt6vectorIiSaIiEEEE@Base 1.6
 (optional=templinst)_ZN3pcl6search6OctreeINS_12PointXYZRGBLENS_6octree26OctreeContainerDataTVectorIiEENS3_20OctreeContainerEmptyIiEENS3_10OctreeBaseIiS5_S7_EEEC1Ed@Base 1.6
 (optional=templinst)_ZN3pcl6search6OctreeINS_12PointXYZRGBLENS_6octree26OctreeContainerDataTVectorIiEENS3_20OctreeContainerEmptyIiEENS3_10OctreeBaseIiS5_S7_EEEC2Ed@Base 1.6
 (optional=templinst)_ZN3pcl6search6OctreeINS_12PointXYZRGBLENS_6octree26OctreeContainerDataTVectorIiEENS3_20OctreeContainerEmptyIiEENS3_10OctreeBaseIiS5_S7_EEED0Ev@Base 1.6
 (optional=templinst)_ZN3pcl6search6OctreeINS_12PointXYZRGBLENS_6octree26OctreeContainerDataTVectorIiEENS3_20OctreeContainerEmptyIiEENS3_10OctreeBaseIiS5_S7_EEED1Ev@Base 1.6
 (optional=templinst)_ZN3pcl6search6OctreeINS_12PointXYZRGBLENS_6octree26OctreeContainerDataTVectorIiEENS3_20OctreeContainerEmptyIiEENS3_10OctreeBaseIiS5_S7_EEED2Ev@Base 1.6
 (optional=templinst)_ZN3pcl6search6OctreeINS_13InterestPointENS_6octree26OctreeContainerDataTVectorIiEENS3_20OctreeContainerEmptyIiEENS3_10OctreeBaseIiS5_S7_EEE13setInputCloudERKN5boost10shared_ptrIKNS_10PointCloudIS2_EEEE@Base 1.6
 (optional=templinst)_ZN3pcl6search6OctreeINS_13InterestPointENS_6octree26OctreeContainerDataTVectorIiEENS3_20OctreeContainerEmptyIiEENS3_10OctreeBaseIiS5_S7_EEE13setInputCloudERKN5boost10shared_ptrIKNS_10PointCloudIS2_EEEERKNSC_IKSt6vectorIiSaIiEEEE@Base 1.6
 (optional=templinst)_ZN3pcl6search6OctreeINS_13InterestPointENS_6octree26OctreeContainerDataTVectorIiEENS3_20OctreeContainerEmptyIiEENS3_10OctreeBaseIiS5_S7_EEEC1Ed@Base 1.6
 (optional=templinst)_ZN3pcl6search6OctreeINS_13InterestPointENS_6octree26OctreeContainerDataTVectorIiEENS3_20OctreeContainerEmptyIiEENS3_10OctreeBaseIiS5_S7_EEEC2Ed@Base 1.6
 (optional=templinst)_ZN3pcl6search6OctreeINS_13InterestPointENS_6octree26OctreeContainerDataTVectorIiEENS3_20OctreeContainerEmptyIiEENS3_10OctreeBaseIiS5_S7_EEED0Ev@Base 1.6
 (optional=templinst)_ZN3pcl6search6OctreeINS_13InterestPointENS_6octree26OctreeContainerDataTVectorIiEENS3_20OctreeContainerEmptyIiEENS3_10OctreeBaseIiS5_S7_EEED1Ev@Base 1.6
 (optional=templinst)_ZN3pcl6search6OctreeINS_13InterestPointENS_6octree26OctreeContainerDataTVectorIiEENS3_20OctreeContainerEmptyIiEENS3_10OctreeBaseIiS5_S7_EEED2Ev@Base 1.6
 (optional=templinst)_ZN3pcl6search6OctreeINS_14PointWithRangeENS_6octree26OctreeContainerDataTVectorIiEENS3_20OctreeContainerEmptyIiEENS3_10OctreeBaseIiS5_S7_EEE13setInputCloudERKN5boost10shared_ptrIKNS_10PointCloudIS2_EEEE@Base 1.6
 (optional=templinst)_ZN3pcl6search6OctreeINS_14PointWithRangeENS_6octree26OctreeContainerDataTVectorIiEENS3_20OctreeContainerEmptyIiEENS3_10OctreeBaseIiS5_S7_EEE13setInputCloudERKN5boost10shared_ptrIKNS_10PointCloudIS2_EEEERKNSC_IKSt6vectorIiSaIiEEEE@Base 1.6
 (optional=templinst)_ZN3pcl6search6OctreeINS_14PointWithRangeENS_6octree26OctreeContainerDataTVectorIiEENS3_20OctreeContainerEmptyIiEENS3_10OctreeBaseIiS5_S7_EEEC1Ed@Base 1.6
 (optional=templinst)_ZN3pcl6search6OctreeINS_14PointWithRangeENS_6octree26OctreeContainerDataTVectorIiEENS3_20OctreeContainerEmptyIiEENS3_10OctreeBaseIiS5_S7_EEEC2Ed@Base 1.6
 (optional=templinst)_ZN3pcl6search6OctreeINS_14PointWithRangeENS_6octree26OctreeContainerDataTVectorIiEENS3_20OctreeContainerEmptyIiEENS3_10OctreeBaseIiS5_S7_EEED0Ev@Base 1.6
 (optional=templinst)_ZN3pcl6search6OctreeINS_14PointWithRangeENS_6octree26OctreeContainerDataTVectorIiEENS3_20OctreeContainerEmptyIiEENS3_10OctreeBaseIiS5_S7_EEED1Ev@Base 1.6
 (optional=templinst)_ZN3pcl6search6OctreeINS_14PointWithRangeENS_6octree26OctreeContainerDataTVectorIiEENS3_20OctreeContainerEmptyIiEENS3_10OctreeBaseIiS5_S7_EEED2Ev@Base 1.6
 (optional=templinst)_ZN3pcl6search6OctreeINS_14PointWithScaleENS_6octree26OctreeContainerDataTVectorIiEENS3_20OctreeContainerEmptyIiEENS3_10OctreeBaseIiS5_S7_EEE13setInputCloudERKN5boost10shared_ptrIKNS_10PointCloudIS2_EEEE@Base 1.6
 (optional=templinst)_ZN3pcl6search6OctreeINS_14PointWithScaleENS_6octree26OctreeContainerDataTVectorIiEENS3_20OctreeContainerEmptyIiEENS3_10OctreeBaseIiS5_S7_EEE13setInputCloudERKN5boost10shared_ptrIKNS_10PointCloudIS2_EEEERKNSC_IKSt6vectorIiSaIiEEEE@Base 1.6
 (optional=templinst)_ZN3pcl6search6OctreeINS_14PointWithScaleENS_6octree26OctreeContainerDataTVectorIiEENS3_20OctreeContainerEmptyIiEENS3_10OctreeBaseIiS5_S7_EEEC1Ed@Base 1.6
 (optional=templinst)_ZN3pcl6search6OctreeINS_14PointWithScaleENS_6octree26OctreeContainerDataTVectorIiEENS3_20OctreeContainerEmptyIiEENS3_10OctreeBaseIiS5_S7_EEEC2Ed@Base 1.6
 (optional=templinst)_ZN3pcl6search6OctreeINS_14PointWithScaleENS_6octree26OctreeContainerDataTVectorIiEENS3_20OctreeContainerEmptyIiEENS3_10OctreeBaseIiS5_S7_EEED0Ev@Base 1.6
 (optional=templinst)_ZN3pcl6search6OctreeINS_14PointWithScaleENS_6octree26OctreeContainerDataTVectorIiEENS3_20OctreeContainerEmptyIiEENS3_10OctreeBaseIiS5_S7_EEED1Ev@Base 1.6
 (optional=templinst)_ZN3pcl6search6OctreeINS_14PointWithScaleENS_6octree26OctreeContainerDataTVectorIiEENS3_20OctreeContainerEmptyIiEENS3_10OctreeBaseIiS5_S7_EEED2Ev@Base 1.6
 (optional=templinst)_ZN3pcl6search6OctreeINS_15PointXYZINormalENS_6octree26OctreeContainerDataTVectorIiEENS3_20OctreeContainerEmptyIiEENS3_10OctreeBaseIiS5_S7_EEE13setInputCloudERKN5boost10shared_ptrIKNS_10PointCloudIS2_EEEE@Base 1.6
 (optional=templinst)_ZN3pcl6search6OctreeINS_15PointXYZINormalENS_6octree26OctreeContainerDataTVectorIiEENS3_20OctreeContainerEmptyIiEENS3_10OctreeBaseIiS5_S7_EEE13setInputCloudERKN5boost10shared_ptrIKNS_10PointCloudIS2_EEEERKNSC_IKSt6vectorIiSaIiEEEE@Base 1.6
 (optional=templinst)_ZN3pcl6search6OctreeINS_15PointXYZINormalENS_6octree26OctreeContainerDataTVectorIiEENS3_20OctreeContainerEmptyIiEENS3_10OctreeBaseIiS5_S7_EEEC1Ed@Base 1.6
 (optional=templinst)_ZN3pcl6search6OctreeINS_15PointXYZINormalENS_6octree26OctreeContainerDataTVectorIiEENS3_20OctreeContainerEmptyIiEENS3_10OctreeBaseIiS5_S7_EEEC2Ed@Base 1.6
 (optional=templinst)_ZN3pcl6search6OctreeINS_15PointXYZINormalENS_6octree26OctreeContainerDataTVectorIiEENS3_20OctreeContainerEmptyIiEENS3_10OctreeBaseIiS5_S7_EEED0Ev@Base 1.6
 (optional=templinst)_ZN3pcl6search6OctreeINS_15PointXYZINormalENS_6octree26OctreeContainerDataTVectorIiEENS3_20OctreeContainerEmptyIiEENS3_10OctreeBaseIiS5_S7_EEED1Ev@Base 1.6
 (optional=templinst)_ZN3pcl6search6OctreeINS_15PointXYZINormalENS_6octree26OctreeContainerDataTVectorIiEENS3_20OctreeContainerEmptyIiEENS3_10OctreeBaseIiS5_S7_EEED2Ev@Base 1.6
 (optional=templinst)_ZN3pcl6search6OctreeINS_17PointXYZRGBNormalENS_6octree26OctreeContainerDataTVectorIiEENS3_20OctreeContainerEmptyIiEENS3_10OctreeBaseIiS5_S7_EEE13setInputCloudERKN5boost10shared_ptrIKNS_10PointCloudIS2_EEEE@Base 1.6
 (optional=templinst)_ZN3pcl6search6OctreeINS_17PointXYZRGBNormalENS_6octree26OctreeContainerDataTVectorIiEENS3_20OctreeContainerEmptyIiEENS3_10OctreeBaseIiS5_S7_EEE13setInputCloudERKN5boost10shared_ptrIKNS_10PointCloudIS2_EEEERKNSC_IKSt6vectorIiSaIiEEEE@Base 1.6
 (optional=templinst)_ZN3pcl6search6OctreeINS_17PointXYZRGBNormalENS_6octree26OctreeContainerDataTVectorIiEENS3_20OctreeContainerEmptyIiEENS3_10OctreeBaseIiS5_S7_EEEC1Ed@Base 1.6
 (optional=templinst)_ZN3pcl6search6OctreeINS_17PointXYZRGBNormalENS_6octree26OctreeContainerDataTVectorIiEENS3_20OctreeContainerEmptyIiEENS3_10OctreeBaseIiS5_S7_EEEC2Ed@Base 1.6
 (optional=templinst)_ZN3pcl6search6OctreeINS_17PointXYZRGBNormalENS_6octree26OctreeContainerDataTVectorIiEENS3_20OctreeContainerEmptyIiEENS3_10OctreeBaseIiS5_S7_EEED0Ev@Base 1.6
 (optional=templinst)_ZN3pcl6search6OctreeINS_17PointXYZRGBNormalENS_6octree26OctreeContainerDataTVectorIiEENS3_20OctreeContainerEmptyIiEENS3_10OctreeBaseIiS5_S7_EEED1Ev@Base 1.6
 (optional=templinst)_ZN3pcl6search6OctreeINS_17PointXYZRGBNormalENS_6octree26OctreeContainerDataTVectorIiEENS3_20OctreeContainerEmptyIiEENS3_10OctreeBaseIiS5_S7_EEED2Ev@Base 1.6
 (optional=templinst)_ZN3pcl6search6OctreeINS_18PointWithViewpointENS_6octree26OctreeContainerDataTVectorIiEENS3_20OctreeContainerEmptyIiEENS3_10OctreeBaseIiS5_S7_EEE13setInputCloudERKN5boost10shared_ptrIKNS_10PointCloudIS2_EEEE@Base 1.6
 (optional=templinst)_ZN3pcl6search6OctreeINS_18PointWithViewpointENS_6octree26OctreeContainerDataTVectorIiEENS3_20OctreeContainerEmptyIiEENS3_10OctreeBaseIiS5_S7_EEE13setInputCloudERKN5boost10shared_ptrIKNS_10PointCloudIS2_EEEERKNSC_IKSt6vectorIiSaIiEEEE@Base 1.6
 (optional=templinst)_ZN3pcl6search6OctreeINS_18PointWithViewpointENS_6octree26OctreeContainerDataTVectorIiEENS3_20OctreeContainerEmptyIiEENS3_10OctreeBaseIiS5_S7_EEEC1Ed@Base 1.6
 (optional=templinst)_ZN3pcl6search6OctreeINS_18PointWithViewpointENS_6octree26OctreeContainerDataTVectorIiEENS3_20OctreeContainerEmptyIiEENS3_10OctreeBaseIiS5_S7_EEEC2Ed@Base 1.6
 (optional=templinst)_ZN3pcl6search6OctreeINS_18PointWithViewpointENS_6octree26OctreeContainerDataTVectorIiEENS3_20OctreeContainerEmptyIiEENS3_10OctreeBaseIiS5_S7_EEED0Ev@Base 1.6
 (optional=templinst)_ZN3pcl6search6OctreeINS_18PointWithViewpointENS_6octree26OctreeContainerDataTVectorIiEENS3_20OctreeContainerEmptyIiEENS3_10OctreeBaseIiS5_S7_EEED1Ev@Base 1.6
 (optional=templinst)_ZN3pcl6search6OctreeINS_18PointWithViewpointENS_6octree26OctreeContainerDataTVectorIiEENS3_20OctreeContainerEmptyIiEENS3_10OctreeBaseIiS5_S7_EEED2Ev@Base 1.6
 (optional=templinst)_ZN3pcl6search6OctreeINS_8PointXYZENS_6octree26OctreeContainerDataTVectorIiEENS3_20OctreeContainerEmptyIiEENS3_10OctreeBaseIiS5_S7_EEE13setInputCloudERKN5boost10shared_ptrIKNS_10PointCloudIS2_EEEE@Base 1.6
 (optional=templinst)_ZN3pcl6search6OctreeINS_8PointXYZENS_6octree26OctreeContainerDataTVectorIiEENS3_20OctreeContainerEmptyIiEENS3_10OctreeBaseIiS5_S7_EEE13setInputCloudERKN5boost10shared_ptrIKNS_10PointCloudIS2_EEEERKNSC_IKSt6vectorIiSaIiEEEE@Base 1.6
 (optional=templinst)_ZN3pcl6search6OctreeINS_8PointXYZENS_6octree26OctreeContainerDataTVectorIiEENS3_20OctreeContainerEmptyIiEENS3_10OctreeBaseIiS5_S7_EEEC1Ed@Base 1.6
 (optional=templinst)_ZN3pcl6search6OctreeINS_8PointXYZENS_6octree26OctreeContainerDataTVectorIiEENS3_20OctreeContainerEmptyIiEENS3_10OctreeBaseIiS5_S7_EEEC2Ed@Base 1.6
 (optional=templinst)_ZN3pcl6search6OctreeINS_8PointXYZENS_6octree26OctreeContainerDataTVectorIiEENS3_20OctreeContainerEmptyIiEENS3_10OctreeBaseIiS5_S7_EEED0Ev@Base 1.6
 (optional=templinst)_ZN3pcl6search6OctreeINS_8PointXYZENS_6octree26OctreeContainerDataTVectorIiEENS3_20OctreeContainerEmptyIiEENS3_10OctreeBaseIiS5_S7_EEED1Ev@Base 1.6
 (optional=templinst)_ZN3pcl6search6OctreeINS_8PointXYZENS_6octree26OctreeContainerDataTVectorIiEENS3_20OctreeContainerEmptyIiEENS3_10OctreeBaseIiS5_S7_EEED2Ev@Base 1.6
 (optional=templinst)_ZN3pcl6search6OctreeINS_9PointXYZIENS_6octree26OctreeContainerDataTVectorIiEENS3_20OctreeContainerEmptyIiEENS3_10OctreeBaseIiS5_S7_EEE13setInputCloudERKN5boost10shared_ptrIKNS_10PointCloudIS2_EEEE@Base 1.6
 (optional=templinst)_ZN3pcl6search6OctreeINS_9PointXYZIENS_6octree26OctreeContainerDataTVectorIiEENS3_20OctreeContainerEmptyIiEENS3_10OctreeBaseIiS5_S7_EEE13setInputCloudERKN5boost10shared_ptrIKNS_10PointCloudIS2_EEEERKNSC_IKSt6vectorIiSaIiEEEE@Base 1.6
 (optional=templinst)_ZN3pcl6search6OctreeINS_9PointXYZIENS_6octree26OctreeContainerDataTVectorIiEENS3_20OctreeContainerEmptyIiEENS3_10OctreeBaseIiS5_S7_EEEC1Ed@Base 1.6
 (optional=templinst)_ZN3pcl6search6OctreeINS_9PointXYZIENS_6octree26OctreeContainerDataTVectorIiEENS3_20OctreeContainerEmptyIiEENS3_10OctreeBaseIiS5_S7_EEEC2Ed@Base 1.6
 (optional=templinst)_ZN3pcl6search6OctreeINS_9PointXYZIENS_6octree26OctreeContainerDataTVectorIiEENS3_20OctreeContainerEmptyIiEENS3_10OctreeBaseIiS5_S7_EEED0Ev@Base 1.6
 (optional=templinst)_ZN3pcl6search6OctreeINS_9PointXYZIENS_6octree26OctreeContainerDataTVectorIiEENS3_20OctreeContainerEmptyIiEENS3_10OctreeBaseIiS5_S7_EEED1Ev@Base 1.6
 (optional=templinst)_ZN3pcl6search6OctreeINS_9PointXYZIENS_6octree26OctreeContainerDataTVectorIiEENS3_20OctreeContainerEmptyIiEENS3_10OctreeBaseIiS5_S7_EEED2Ev@Base 1.6
 (optional=templinst)_ZN3pcl6search6OctreeINS_9PointXYZLENS_6octree26OctreeContainerDataTVectorIiEENS3_20OctreeContainerEmptyIiEENS3_10OctreeBaseIiS5_S7_EEE13setInputCloudERKN5boost10shared_ptrIKNS_10PointCloudIS2_EEEE@Base 1.6
 (optional=templinst)_ZN3pcl6search6OctreeINS_9PointXYZLENS_6octree26OctreeContainerDataTVectorIiEENS3_20OctreeContainerEmptyIiEENS3_10OctreeBaseIiS5_S7_EEE13setInputCloudERKN5boost10shared_ptrIKNS_10PointCloudIS2_EEEERKNSC_IKSt6vectorIiSaIiEEEE@Base 1.6
 (optional=templinst)_ZN3pcl6search6OctreeINS_9PointXYZLENS_6octree26OctreeContainerDataTVectorIiEENS3_20OctreeContainerEmptyIiEENS3_10OctreeBaseIiS5_S7_EEEC1Ed@Base 1.6
 (optional=templinst)_ZN3pcl6search6OctreeINS_9PointXYZLENS_6octree26OctreeContainerDataTVectorIiEENS3_20OctreeContainerEmptyIiEENS3_10OctreeBaseIiS5_S7_EEEC2Ed@Base 1.6
 (optional=templinst)_ZN3pcl6search6OctreeINS_9PointXYZLENS_6octree26OctreeContainerDataTVectorIiEENS3_20OctreeContainerEmptyIiEENS3_10OctreeBaseIiS5_S7_EEED0Ev@Base 1.6
 (optional=templinst)_ZN3pcl6search6OctreeINS_9PointXYZLENS_6octree26OctreeContainerDataTVectorIiEENS3_20OctreeContainerEmptyIiEENS3_10OctreeBaseIiS5_S7_EEED1Ev@Base 1.6
 (optional=templinst)_ZN3pcl6search6OctreeINS_9PointXYZLENS_6octree26OctreeContainerDataTVectorIiEENS3_20OctreeContainerEmptyIiEENS3_10OctreeBaseIiS5_S7_EEED2Ev@Base 1.6
 (optional=templinst)_ZN3pcl6search6SearchINS_11PointNormalEE13setInputCloudERKN5boost10shared_ptrIKNS_10PointCloudIS2_EEEERKNS5_IKSt6vectorIiSaIiEEEE@Base 1.6
 (optional=templinst)_ZN3pcl6search6SearchINS_11PointNormalEE16setSortedResultsEb@Base 1.6
 (optional=templinst)_ZN3pcl6search6SearchINS_11PointNormalEED0Ev@Base 1.6
 (optional=templinst)_ZN3pcl6search6SearchINS_11PointNormalEED1Ev@Base 1.6
 (optional=templinst)_ZN3pcl6search6SearchINS_11PointNormalEED2Ev@Base 1.6
 (optional=templinst)_ZN3pcl6search6SearchINS_11PointXYZHSVEE13setInputCloudERKN5boost10shared_ptrIKNS_10PointCloudIS2_EEEERKNS5_IKSt6vectorIiSaIiEEEE@Base 1.6
 (optional=templinst)_ZN3pcl6search6SearchINS_11PointXYZHSVEE16setSortedResultsEb@Base 1.6
 (optional=templinst)_ZN3pcl6search6SearchINS_11PointXYZHSVEED0Ev@Base 1.6
 (optional=templinst)_ZN3pcl6search6SearchINS_11PointXYZHSVEED1Ev@Base 1.6
 (optional=templinst)_ZN3pcl6search6SearchINS_11PointXYZHSVEED2Ev@Base 1.6
 (optional=templinst)_ZN3pcl6search6SearchINS_11PointXYZRGBEE13setInputCloudERKN5boost10shared_ptrIKNS_10PointCloudIS2_EEEERKNS5_IKSt6vectorIiSaIiEEEE@Base 1.6
 (optional=templinst)_ZN3pcl6search6SearchINS_11PointXYZRGBEE16setSortedResultsEb@Base 1.6
 (optional=templinst)_ZN3pcl6search6SearchINS_11PointXYZRGBEED0Ev@Base 1.6
 (optional=templinst)_ZN3pcl6search6SearchINS_11PointXYZRGBEED1Ev@Base 1.6
 (optional=templinst)_ZN3pcl6search6SearchINS_11PointXYZRGBEED2Ev@Base 1.6
 (optional=templinst)_ZN3pcl6search6SearchINS_12PointXYZRGBAEE13setInputCloudERKN5boost10shared_ptrIKNS_10PointCloudIS2_EEEERKNS5_IKSt6vectorIiSaIiEEEE@Base 1.6
 (optional=templinst)_ZN3pcl6search6SearchINS_12PointXYZRGBAEE16setSortedResultsEb@Base 1.6
 (optional=templinst)_ZN3pcl6search6SearchINS_12PointXYZRGBAEED0Ev@Base 1.6
 (optional=templinst)_ZN3pcl6search6SearchINS_12PointXYZRGBAEED1Ev@Base 1.6
 (optional=templinst)_ZN3pcl6search6SearchINS_12PointXYZRGBAEED2Ev@Base 1.6
 (optional=templinst)_ZN3pcl6search6SearchINS_12PointXYZRGBLEE13setInputCloudERKN5boost10shared_ptrIKNS_10PointCloudIS2_EEEERKNS5_IKSt6vectorIiSaIiEEEE@Base 1.6
 (optional=templinst)_ZN3pcl6search6SearchINS_12PointXYZRGBLEE16setSortedResultsEb@Base 1.6
 (optional=templinst)_ZN3pcl6search6SearchINS_12PointXYZRGBLEED0Ev@Base 1.6
 (optional=templinst)_ZN3pcl6search6SearchINS_12PointXYZRGBLEED1Ev@Base 1.6
 (optional=templinst)_ZN3pcl6search6SearchINS_12PointXYZRGBLEED2Ev@Base 1.6
 (optional=templinst)_ZN3pcl6search6SearchINS_13InterestPointEE13setInputCloudERKN5boost10shared_ptrIKNS_10PointCloudIS2_EEEERKNS5_IKSt6vectorIiSaIiEEEE@Base 1.6
 (optional=templinst)_ZN3pcl6search6SearchINS_13InterestPointEE16setSortedResultsEb@Base 1.6
 (optional=templinst)_ZN3pcl6search6SearchINS_13InterestPointEED0Ev@Base 1.6
 (optional=templinst)_ZN3pcl6search6SearchINS_13InterestPointEED1Ev@Base 1.6
 (optional=templinst)_ZN3pcl6search6SearchINS_13InterestPointEED2Ev@Base 1.6
 (optional=templinst)_ZN3pcl6search6SearchINS_14PointWithRangeEE13setInputCloudERKN5boost10shared_ptrIKNS_10PointCloudIS2_EEEERKNS5_IKSt6vectorIiSaIiEEEE@Base 1.6
 (optional=templinst)_ZN3pcl6search6SearchINS_14PointWithRangeEE16setSortedResultsEb@Base 1.6
 (optional=templinst)_ZN3pcl6search6SearchINS_14PointWithRangeEED0Ev@Base 1.6
 (optional=templinst)_ZN3pcl6search6SearchINS_14PointWithRangeEED1Ev@Base 1.6
 (optional=templinst)_ZN3pcl6search6SearchINS_14PointWithRangeEED2Ev@Base 1.6
 (optional=templinst)_ZN3pcl6search6SearchINS_14PointWithScaleEE13setInputCloudERKN5boost10shared_ptrIKNS_10PointCloudIS2_EEEERKNS5_IKSt6vectorIiSaIiEEEE@Base 1.6
 (optional=templinst)_ZN3pcl6search6SearchINS_14PointWithScaleEE16setSortedResultsEb@Base 1.6
 (optional=templinst)_ZN3pcl6search6SearchINS_14PointWithScaleEED0Ev@Base 1.6
 (optional=templinst)_ZN3pcl6search6SearchINS_14PointWithScaleEED1Ev@Base 1.6
 (optional=templinst)_ZN3pcl6search6SearchINS_14PointWithScaleEED2Ev@Base 1.6
 (optional=templinst)_ZN3pcl6search6SearchINS_15PointXYZINormalEE13setInputCloudERKN5boost10shared_ptrIKNS_10PointCloudIS2_EEEERKNS5_IKSt6vectorIiSaIiEEEE@Base 1.6
 (optional=templinst)_ZN3pcl6search6SearchINS_15PointXYZINormalEE16setSortedResultsEb@Base 1.6
 (optional=templinst)_ZN3pcl6search6SearchINS_15PointXYZINormalEED0Ev@Base 1.6
 (optional=templinst)_ZN3pcl6search6SearchINS_15PointXYZINormalEED1Ev@Base 1.6
 (optional=templinst)_ZN3pcl6search6SearchINS_15PointXYZINormalEED2Ev@Base 1.6
 (optional=templinst)_ZN3pcl6search6SearchINS_17PointXYZRGBNormalEE13setInputCloudERKN5boost10shared_ptrIKNS_10PointCloudIS2_EEEERKNS5_IKSt6vectorIiSaIiEEEE@Base 1.6
 (optional=templinst)_ZN3pcl6search6SearchINS_17PointXYZRGBNormalEE16setSortedResultsEb@Base 1.6
 (optional=templinst)_ZN3pcl6search6SearchINS_17PointXYZRGBNormalEED0Ev@Base 1.6
 (optional=templinst)_ZN3pcl6search6SearchINS_17PointXYZRGBNormalEED1Ev@Base 1.6
 (optional=templinst)_ZN3pcl6search6SearchINS_17PointXYZRGBNormalEED2Ev@Base 1.6
 (optional=templinst)_ZN3pcl6search6SearchINS_18PointWithViewpointEE13setInputCloudERKN5boost10shared_ptrIKNS_10PointCloudIS2_EEEERKNS5_IKSt6vectorIiSaIiEEEE@Base 1.6
 (optional=templinst)_ZN3pcl6search6SearchINS_18PointWithViewpointEE16setSortedResultsEb@Base 1.6
 (optional=templinst)_ZN3pcl6search6SearchINS_18PointWithViewpointEED0Ev@Base 1.6
 (optional=templinst)_ZN3pcl6search6SearchINS_18PointWithViewpointEED1Ev@Base 1.6
 (optional=templinst)_ZN3pcl6search6SearchINS_18PointWithViewpointEED2Ev@Base 1.6
 (optional=templinst)_ZN3pcl6search6SearchINS_8PointXYZEE13setInputCloudERKN5boost10shared_ptrIKNS_10PointCloudIS2_EEEERKNS5_IKSt6vectorIiSaIiEEEE@Base 1.6
 (optional=templinst)_ZN3pcl6search6SearchINS_8PointXYZEE16setSortedResultsEb@Base 1.6
 (optional=templinst)_ZN3pcl6search6SearchINS_8PointXYZEED0Ev@Base 1.6
 (optional=templinst)_ZN3pcl6search6SearchINS_8PointXYZEED1Ev@Base 1.6
 (optional=templinst)_ZN3pcl6search6SearchINS_8PointXYZEED2Ev@Base 1.6
 (optional=templinst)_ZN3pcl6search6SearchINS_9PointXYZIEE13setInputCloudERKN5boost10shared_ptrIKNS_10PointCloudIS2_EEEERKNS5_IKSt6vectorIiSaIiEEEE@Base 1.6
 (optional=templinst)_ZN3pcl6search6SearchINS_9PointXYZIEE16setSortedResultsEb@Base 1.6
 (optional=templinst)_ZN3pcl6search6SearchINS_9PointXYZIEED0Ev@Base 1.6
 (optional=templinst)_ZN3pcl6search6SearchINS_9PointXYZIEED1Ev@Base 1.6
 (optional=templinst)_ZN3pcl6search6SearchINS_9PointXYZIEED2Ev@Base 1.6
 (optional=templinst)_ZN3pcl6search6SearchINS_9PointXYZLEE13setInputCloudERKN5boost10shared_ptrIKNS_10PointCloudIS2_EEEERKNS5_IKSt6vectorIiSaIiEEEE@Base 1.6
 (optional=templinst)_ZN3pcl6search6SearchINS_9PointXYZLEE16setSortedResultsEb@Base 1.6
 (optional=templinst)_ZN3pcl6search6SearchINS_9PointXYZLEED0Ev@Base 1.6
 (optional=templinst)_ZN3pcl6search6SearchINS_9PointXYZLEED1Ev@Base 1.6
 (optional=templinst)_ZN3pcl6search6SearchINS_9PointXYZLEED2Ev@Base 1.6
 (optional=templinst)_ZN3pcl7PCLBaseINS_11PointNormalEE11initComputeEv@Base 1.6
 (optional=templinst)_ZN3pcl7PCLBaseINS_11PointNormalEE13setInputCloudERKN5boost10shared_ptrIKNS_10PointCloudIS1_EEEE@Base 1.6
 (optional=templinst)_ZN3pcl7PCLBaseINS_11PointNormalEED0Ev@Base 1.6
 (optional=templinst)_ZN3pcl7PCLBaseINS_11PointNormalEED1Ev@Base 1.6
 (optional=templinst)_ZN3pcl7PCLBaseINS_11PointNormalEED2Ev@Base 1.6
 (optional=templinst)_ZN3pcl7PCLBaseINS_11PointXYZRGBEE11initComputeEv@Base 1.6
 (optional=templinst)_ZN3pcl7PCLBaseINS_11PointXYZRGBEE13setInputCloudERKN5boost10shared_ptrIKNS_10PointCloudIS1_EEEE@Base 1.6
 (optional=templinst)_ZN3pcl7PCLBaseINS_11PointXYZRGBEED0Ev@Base 1.6
 (optional=templinst)_ZN3pcl7PCLBaseINS_11PointXYZRGBEED1Ev@Base 1.6
 (optional=templinst)_ZN3pcl7PCLBaseINS_11PointXYZRGBEED2Ev@Base 1.6
 (optional=templinst)_ZN3pcl7PCLBaseINS_12PointXYZRGBAEE11initComputeEv@Base 1.6
 (optional=templinst)_ZN3pcl7PCLBaseINS_12PointXYZRGBAEE13setInputCloudERKN5boost10shared_ptrIKNS_10PointCloudIS1_EEEE@Base 1.6
 (optional=templinst)_ZN3pcl7PCLBaseINS_12PointXYZRGBAEED0Ev@Base 1.6
 (optional=templinst)_ZN3pcl7PCLBaseINS_12PointXYZRGBAEED1Ev@Base 1.6
 (optional=templinst)_ZN3pcl7PCLBaseINS_12PointXYZRGBAEED2Ev@Base 1.6
 (optional=templinst)_ZN3pcl7PCLBaseINS_13InterestPointEE11initComputeEv@Base 1.6
 (optional=templinst)_ZN3pcl7PCLBaseINS_13InterestPointEE13setInputCloudERKN5boost10shared_ptrIKNS_10PointCloudIS1_EEEE@Base 1.6
 (optional=templinst)_ZN3pcl7PCLBaseINS_13InterestPointEED0Ev@Base 1.6
 (optional=templinst)_ZN3pcl7PCLBaseINS_13InterestPointEED1Ev@Base 1.6
 (optional=templinst)_ZN3pcl7PCLBaseINS_13InterestPointEED2Ev@Base 1.6
 (optional=templinst)_ZN3pcl7PCLBaseINS_14PointWithRangeEE11initComputeEv@Base 1.6
 (optional=templinst)_ZN3pcl7PCLBaseINS_14PointWithRangeEE13setInputCloudERKN5boost10shared_ptrIKNS_10PointCloudIS1_EEEE@Base 1.6
 (optional=templinst)_ZN3pcl7PCLBaseINS_14PointWithRangeEED0Ev@Base 1.6
 (optional=templinst)_ZN3pcl7PCLBaseINS_14PointWithRangeEED1Ev@Base 1.6
 (optional=templinst)_ZN3pcl7PCLBaseINS_14PointWithRangeEED2Ev@Base 1.6
 (optional=templinst)_ZN3pcl7PCLBaseINS_14PointWithScaleEE11initComputeEv@Base 1.6
 (optional=templinst)_ZN3pcl7PCLBaseINS_14PointWithScaleEE13setInputCloudERKN5boost10shared_ptrIKNS_10PointCloudIS1_EEEE@Base 1.6
 (optional=templinst)_ZN3pcl7PCLBaseINS_14PointWithScaleEED0Ev@Base 1.6
 (optional=templinst)_ZN3pcl7PCLBaseINS_14PointWithScaleEED1Ev@Base 1.6
 (optional=templinst)_ZN3pcl7PCLBaseINS_14PointWithScaleEED2Ev@Base 1.6
 (optional=templinst)_ZN3pcl7PCLBaseINS_15PointXYZINormalEE11initComputeEv@Base 1.6
 (optional=templinst)_ZN3pcl7PCLBaseINS_15PointXYZINormalEE13setInputCloudERKN5boost10shared_ptrIKNS_10PointCloudIS1_EEEE@Base 1.6
 (optional=templinst)_ZN3pcl7PCLBaseINS_15PointXYZINormalEED0Ev@Base 1.6
 (optional=templinst)_ZN3pcl7PCLBaseINS_15PointXYZINormalEED1Ev@Base 1.6
 (optional=templinst)_ZN3pcl7PCLBaseINS_15PointXYZINormalEED2Ev@Base 1.6
 (optional=templinst)_ZN3pcl7PCLBaseINS_17PointXYZRGBNormalEE11initComputeEv@Base 1.6
 (optional=templinst)_ZN3pcl7PCLBaseINS_17PointXYZRGBNormalEE13setInputCloudERKN5boost10shared_ptrIKNS_10PointCloudIS1_EEEE@Base 1.6
 (optional=templinst)_ZN3pcl7PCLBaseINS_17PointXYZRGBNormalEED0Ev@Base 1.6
 (optional=templinst)_ZN3pcl7PCLBaseINS_17PointXYZRGBNormalEED1Ev@Base 1.6
 (optional=templinst)_ZN3pcl7PCLBaseINS_17PointXYZRGBNormalEED2Ev@Base 1.6
 (optional=templinst)_ZN3pcl7PCLBaseINS_18PointWithViewpointEE11initComputeEv@Base 1.6
 (optional=templinst)_ZN3pcl7PCLBaseINS_18PointWithViewpointEE13setInputCloudERKN5boost10shared_ptrIKNS_10PointCloudIS1_EEEE@Base 1.6
 (optional=templinst)_ZN3pcl7PCLBaseINS_18PointWithViewpointEED0Ev@Base 1.6
 (optional=templinst)_ZN3pcl7PCLBaseINS_18PointWithViewpointEED1Ev@Base 1.6
 (optional=templinst)_ZN3pcl7PCLBaseINS_18PointWithViewpointEED2Ev@Base 1.6
 (optional=templinst)_ZN3pcl7PCLBaseINS_8PointXYZEE11initComputeEv@Base 1.6
 (optional=templinst)_ZN3pcl7PCLBaseINS_8PointXYZEE13setInputCloudERKN5boost10shared_ptrIKNS_10PointCloudIS1_EEEE@Base 1.6
 (optional=templinst)_ZN3pcl7PCLBaseINS_8PointXYZEED0Ev@Base 1.6
 (optional=templinst)_ZN3pcl7PCLBaseINS_8PointXYZEED1Ev@Base 1.6
 (optional=templinst)_ZN3pcl7PCLBaseINS_8PointXYZEED2Ev@Base 1.6
 (optional=templinst)_ZN3pcl7PCLBaseINS_9PointXYZIEE11initComputeEv@Base 1.6
 (optional=templinst)_ZN3pcl7PCLBaseINS_9PointXYZIEE13setInputCloudERKN5boost10shared_ptrIKNS_10PointCloudIS1_EEEE@Base 1.6
 (optional=templinst)_ZN3pcl7PCLBaseINS_9PointXYZIEED0Ev@Base 1.6
 (optional=templinst)_ZN3pcl7PCLBaseINS_9PointXYZIEED1Ev@Base 1.6
 (optional=templinst)_ZN3pcl7PCLBaseINS_9PointXYZIEED2Ev@Base 1.6
 _ZN3pcl8tracking11ParticleXYR6sampleERKSt6vectorIdSaIdEES6_@Base 1.6
 _ZN3pcl8tracking11ParticleXYR7toStateERKN5Eigen9TransformIfLi3ELi2ELi0EEE@Base 1.6
 _ZN3pcl8tracking12ParticleXYRP6sampleERKSt6vectorIdSaIdEES6_@Base 1.6
 _ZN3pcl8tracking12ParticleXYRP7toStateERKN5Eigen9TransformIfLi3ELi2ELi0EEE@Base 1.6
 _ZN3pcl8tracking12ParticleXYZR6sampleERKSt6vectorIdSaIdEES6_@Base 1.6
 _ZN3pcl8tracking12ParticleXYZR7toStateERKN5Eigen9TransformIfLi3ELi2ELi0EEE@Base 1.6
 _ZN3pcl8tracking12sampleNormalEdd@Base 1.6
 _ZN3pcl8tracking13ParticleXYRPY6sampleERKSt6vectorIdSaIdEES6_@Base 1.6
 _ZN3pcl8tracking13ParticleXYRPY7toStateERKN5Eigen9TransformIfLi3ELi2ELi0EEE@Base 1.6
 _ZN3pcl8tracking14ParticleXYZRPY6sampleERKSt6vectorIdSaIdEES6_@Base 1.6
 _ZN3pcl8tracking14ParticleXYZRPY7toStateERKN5Eigen9TransformIfLi3ELi2ELi0EEE@Base 1.6
 (optional=templinst)_ZN3pcl8tracking14PointCoherenceINS_11PointNormalEED0Ev@Base 1.6
 (optional=templinst)_ZN3pcl8tracking14PointCoherenceINS_11PointNormalEED1Ev@Base 1.6
 (optional=templinst)_ZN3pcl8tracking14PointCoherenceINS_11PointNormalEED2Ev@Base 1.6
 (optional=templinst)_ZN3pcl8tracking14PointCoherenceINS_11PointXYZHSVEED0Ev@Base 1.6
 (optional=templinst)_ZN3pcl8tracking14PointCoherenceINS_11PointXYZHSVEED1Ev@Base 1.6
 (optional=templinst)_ZN3pcl8tracking14PointCoherenceINS_11PointXYZHSVEED2Ev@Base 1.6
 (optional=templinst)_ZN3pcl8tracking14PointCoherenceINS_11PointXYZRGBEED0Ev@Base 1.6
 (optional=templinst)_ZN3pcl8tracking14PointCoherenceINS_11PointXYZRGBEED1Ev@Base 1.6
 (optional=templinst)_ZN3pcl8tracking14PointCoherenceINS_11PointXYZRGBEED2Ev@Base 1.6
 (optional=templinst)_ZN3pcl8tracking14PointCoherenceINS_12PointXYZRGBAEED0Ev@Base 1.6
 (optional=templinst)_ZN3pcl8tracking14PointCoherenceINS_12PointXYZRGBAEED1Ev@Base 1.6
 (optional=templinst)_ZN3pcl8tracking14PointCoherenceINS_12PointXYZRGBAEED2Ev@Base 1.6
 (optional=templinst)_ZN3pcl8tracking14PointCoherenceINS_12PointXYZRGBLEED0Ev@Base 1.6
 (optional=templinst)_ZN3pcl8tracking14PointCoherenceINS_12PointXYZRGBLEED1Ev@Base 1.6
 (optional=templinst)_ZN3pcl8tracking14PointCoherenceINS_12PointXYZRGBLEED2Ev@Base 1.6
 (optional=templinst)_ZN3pcl8tracking14PointCoherenceINS_13InterestPointEED0Ev@Base 1.6
 (optional=templinst)_ZN3pcl8tracking14PointCoherenceINS_13InterestPointEED1Ev@Base 1.6
 (optional=templinst)_ZN3pcl8tracking14PointCoherenceINS_13InterestPointEED2Ev@Base 1.6
 (optional=templinst)_ZN3pcl8tracking14PointCoherenceINS_14PointWithRangeEED0Ev@Base 1.6
 (optional=templinst)_ZN3pcl8tracking14PointCoherenceINS_14PointWithRangeEED1Ev@Base 1.6
 (optional=templinst)_ZN3pcl8tracking14PointCoherenceINS_14PointWithRangeEED2Ev@Base 1.6
 (optional=templinst)_ZN3pcl8tracking14PointCoherenceINS_14PointWithScaleEED0Ev@Base 1.6
 (optional=templinst)_ZN3pcl8tracking14PointCoherenceINS_14PointWithScaleEED1Ev@Base 1.6
 (optional=templinst)_ZN3pcl8tracking14PointCoherenceINS_14PointWithScaleEED2Ev@Base 1.6
 (optional=templinst)_ZN3pcl8tracking14PointCoherenceINS_15PointXYZINormalEED0Ev@Base 1.6
 (optional=templinst)_ZN3pcl8tracking14PointCoherenceINS_15PointXYZINormalEED1Ev@Base 1.6
 (optional=templinst)_ZN3pcl8tracking14PointCoherenceINS_15PointXYZINormalEED2Ev@Base 1.6
 (optional=templinst)_ZN3pcl8tracking14PointCoherenceINS_17PointXYZRGBNormalEED0Ev@Base 1.6
 (optional=templinst)_ZN3pcl8tracking14PointCoherenceINS_17PointXYZRGBNormalEED1Ev@Base 1.6
 (optional=templinst)_ZN3pcl8tracking14PointCoherenceINS_17PointXYZRGBNormalEED2Ev@Base 1.6
 (optional=templinst)_ZN3pcl8tracking14PointCoherenceINS_18PointWithViewpointEED0Ev@Base 1.6
 (optional=templinst)_ZN3pcl8tracking14PointCoherenceINS_18PointWithViewpointEED1Ev@Base 1.6
 (optional=templinst)_ZN3pcl8tracking14PointCoherenceINS_18PointWithViewpointEED2Ev@Base 1.6
 (optional=templinst)_ZN3pcl8tracking14PointCoherenceINS_6NormalEED0Ev@Base 1.6
 (optional=templinst)_ZN3pcl8tracking14PointCoherenceINS_6NormalEED1Ev@Base 1.6
 (optional=templinst)_ZN3pcl8tracking14PointCoherenceINS_6NormalEED2Ev@Base 1.6
 (optional=templinst)_ZN3pcl8tracking14PointCoherenceINS_8PointXYZEED0Ev@Base 1.6
 (optional=templinst)_ZN3pcl8tracking14PointCoherenceINS_8PointXYZEED1Ev@Base 1.6
 (optional=templinst)_ZN3pcl8tracking14PointCoherenceINS_8PointXYZEED2Ev@Base 1.6
 (optional=templinst)_ZN3pcl8tracking14PointCoherenceINS_9PointXYZIEED0Ev@Base 1.6
 (optional=templinst)_ZN3pcl8tracking14PointCoherenceINS_9PointXYZIEED1Ev@Base 1.6
 (optional=templinst)_ZN3pcl8tracking14PointCoherenceINS_9PointXYZIEED2Ev@Base 1.6
 (optional=templinst)_ZN3pcl8tracking14PointCoherenceINS_9PointXYZLEED0Ev@Base 1.6
 (optional=templinst)_ZN3pcl8tracking14PointCoherenceINS_9PointXYZLEED1Ev@Base 1.6
 (optional=templinst)_ZN3pcl8tracking14PointCoherenceINS_9PointXYZLEED2Ev@Base 1.6
 (optional=templinst)_ZN3pcl8tracking15NormalCoherenceINS_11PointNormalEE16computeCoherenceERS2_S4_@Base 1.6
 (optional=templinst)_ZN3pcl8tracking15NormalCoherenceINS_11PointNormalEE9getWeightEv@Base 1.6
 (optional=templinst)_ZN3pcl8tracking15NormalCoherenceINS_11PointNormalEE9setWeightEd@Base 1.6
 (optional=templinst)_ZN3pcl8tracking15NormalCoherenceINS_11PointNormalEEC1Ev@Base 1.6
 (optional=templinst)_ZN3pcl8tracking15NormalCoherenceINS_11PointNormalEEC2Ev@Base 1.6
 (optional=templinst)_ZN3pcl8tracking15NormalCoherenceINS_11PointNormalEED0Ev@Base 1.6
 (optional=templinst)_ZN3pcl8tracking15NormalCoherenceINS_11PointNormalEED1Ev@Base 1.6
 (optional=templinst)_ZN3pcl8tracking15NormalCoherenceINS_11PointNormalEED2Ev@Base 1.6
 (optional=templinst)_ZN3pcl8tracking15NormalCoherenceINS_15PointXYZINormalEE16computeCoherenceERS2_S4_@Base 1.6
 (optional=templinst)_ZN3pcl8tracking15NormalCoherenceINS_15PointXYZINormalEE9getWeightEv@Base 1.6
 (optional=templinst)_ZN3pcl8tracking15NormalCoherenceINS_15PointXYZINormalEE9setWeightEd@Base 1.6
 (optional=templinst)_ZN3pcl8tracking15NormalCoherenceINS_15PointXYZINormalEEC1Ev@Base 1.6
 (optional=templinst)_ZN3pcl8tracking15NormalCoherenceINS_15PointXYZINormalEEC2Ev@Base 1.6
 (optional=templinst)_ZN3pcl8tracking15NormalCoherenceINS_15PointXYZINormalEED0Ev@Base 1.6
 (optional=templinst)_ZN3pcl8tracking15NormalCoherenceINS_15PointXYZINormalEED1Ev@Base 1.6
 (optional=templinst)_ZN3pcl8tracking15NormalCoherenceINS_15PointXYZINormalEED2Ev@Base 1.6
 (optional=templinst)_ZN3pcl8tracking15NormalCoherenceINS_17PointXYZRGBNormalEE16computeCoherenceERS2_S4_@Base 1.6
 (optional=templinst)_ZN3pcl8tracking15NormalCoherenceINS_17PointXYZRGBNormalEE9getWeightEv@Base 1.6
 (optional=templinst)_ZN3pcl8tracking15NormalCoherenceINS_17PointXYZRGBNormalEE9setWeightEd@Base 1.6
 (optional=templinst)_ZN3pcl8tracking15NormalCoherenceINS_17PointXYZRGBNormalEEC1Ev@Base 1.6
 (optional=templinst)_ZN3pcl8tracking15NormalCoherenceINS_17PointXYZRGBNormalEEC2Ev@Base 1.6
 (optional=templinst)_ZN3pcl8tracking15NormalCoherenceINS_17PointXYZRGBNormalEED0Ev@Base 1.6
 (optional=templinst)_ZN3pcl8tracking15NormalCoherenceINS_17PointXYZRGBNormalEED1Ev@Base 1.6
 (optional=templinst)_ZN3pcl8tracking15NormalCoherenceINS_17PointXYZRGBNormalEED2Ev@Base 1.6
 (optional=templinst)_ZN3pcl8tracking15NormalCoherenceINS_6NormalEE16computeCoherenceERS2_S4_@Base 1.6
 (optional=templinst)_ZN3pcl8tracking15NormalCoherenceINS_6NormalEE9getWeightEv@Base 1.6
 (optional=templinst)_ZN3pcl8tracking15NormalCoherenceINS_6NormalEE9setWeightEd@Base 1.6
 (optional=templinst)_ZN3pcl8tracking15NormalCoherenceINS_6NormalEEC1Ev@Base 1.6
 (optional=templinst)_ZN3pcl8tracking15NormalCoherenceINS_6NormalEEC2Ev@Base 1.6
 (optional=templinst)_ZN3pcl8tracking15NormalCoherenceINS_6NormalEED0Ev@Base 1.6
 (optional=templinst)_ZN3pcl8tracking15NormalCoherenceINS_6NormalEED1Ev@Base 1.6
 (optional=templinst)_ZN3pcl8tracking15NormalCoherenceINS_6NormalEED2Ev@Base 1.6
 (optional=templinst)_ZN3pcl8tracking17DistanceCoherenceINS_11PointNormalEE16computeCoherenceERS2_S4_@Base 1.6
 (optional=templinst)_ZN3pcl8tracking17DistanceCoherenceINS_11PointNormalEE9getWeightEv@Base 1.6
 (optional=templinst)_ZN3pcl8tracking17DistanceCoherenceINS_11PointNormalEE9setWeightEd@Base 1.6
 (optional=templinst)_ZN3pcl8tracking17DistanceCoherenceINS_11PointNormalEEC1Ev@Base 1.6
 (optional=templinst)_ZN3pcl8tracking17DistanceCoherenceINS_11PointNormalEEC2Ev@Base 1.6
 (optional=templinst)_ZN3pcl8tracking17DistanceCoherenceINS_11PointNormalEED0Ev@Base 1.6
 (optional=templinst)_ZN3pcl8tracking17DistanceCoherenceINS_11PointNormalEED1Ev@Base 1.6
 (optional=templinst)_ZN3pcl8tracking17DistanceCoherenceINS_11PointNormalEED2Ev@Base 1.6
 (optional=templinst)_ZN3pcl8tracking17DistanceCoherenceINS_11PointXYZHSVEE16computeCoherenceERS2_S4_@Base 1.6
 (optional=templinst)_ZN3pcl8tracking17DistanceCoherenceINS_11PointXYZHSVEE9getWeightEv@Base 1.6
 (optional=templinst)_ZN3pcl8tracking17DistanceCoherenceINS_11PointXYZHSVEE9setWeightEd@Base 1.6
 (optional=templinst)_ZN3pcl8tracking17DistanceCoherenceINS_11PointXYZHSVEEC1Ev@Base 1.6
 (optional=templinst)_ZN3pcl8tracking17DistanceCoherenceINS_11PointXYZHSVEEC2Ev@Base 1.6
 (optional=templinst)_ZN3pcl8tracking17DistanceCoherenceINS_11PointXYZHSVEED0Ev@Base 1.6
 (optional=templinst)_ZN3pcl8tracking17DistanceCoherenceINS_11PointXYZHSVEED1Ev@Base 1.6
 (optional=templinst)_ZN3pcl8tracking17DistanceCoherenceINS_11PointXYZHSVEED2Ev@Base 1.6
 (optional=templinst)_ZN3pcl8tracking17DistanceCoherenceINS_11PointXYZRGBEE16computeCoherenceERS2_S4_@Base 1.6
 (optional=templinst)_ZN3pcl8tracking17DistanceCoherenceINS_11PointXYZRGBEE9getWeightEv@Base 1.6
 (optional=templinst)_ZN3pcl8tracking17DistanceCoherenceINS_11PointXYZRGBEE9setWeightEd@Base 1.6
 (optional=templinst)_ZN3pcl8tracking17DistanceCoherenceINS_11PointXYZRGBEEC1Ev@Base 1.6
 (optional=templinst)_ZN3pcl8tracking17DistanceCoherenceINS_11PointXYZRGBEEC2Ev@Base 1.6
 (optional=templinst)_ZN3pcl8tracking17DistanceCoherenceINS_11PointXYZRGBEED0Ev@Base 1.6
 (optional=templinst)_ZN3pcl8tracking17DistanceCoherenceINS_11PointXYZRGBEED1Ev@Base 1.6
 (optional=templinst)_ZN3pcl8tracking17DistanceCoherenceINS_11PointXYZRGBEED2Ev@Base 1.6
 (optional=templinst)_ZN3pcl8tracking17DistanceCoherenceINS_12PointXYZRGBAEE16computeCoherenceERS2_S4_@Base 1.6
 (optional=templinst)_ZN3pcl8tracking17DistanceCoherenceINS_12PointXYZRGBAEE9getWeightEv@Base 1.6
 (optional=templinst)_ZN3pcl8tracking17DistanceCoherenceINS_12PointXYZRGBAEE9setWeightEd@Base 1.6
 (optional=templinst)_ZN3pcl8tracking17DistanceCoherenceINS_12PointXYZRGBAEEC1Ev@Base 1.6
 (optional=templinst)_ZN3pcl8tracking17DistanceCoherenceINS_12PointXYZRGBAEEC2Ev@Base 1.6
 (optional=templinst)_ZN3pcl8tracking17DistanceCoherenceINS_12PointXYZRGBAEED0Ev@Base 1.6
 (optional=templinst)_ZN3pcl8tracking17DistanceCoherenceINS_12PointXYZRGBAEED1Ev@Base 1.6
 (optional=templinst)_ZN3pcl8tracking17DistanceCoherenceINS_12PointXYZRGBAEED2Ev@Base 1.6
 (optional=templinst)_ZN3pcl8tracking17DistanceCoherenceINS_12PointXYZRGBLEE16computeCoherenceERS2_S4_@Base 1.6
 (optional=templinst)_ZN3pcl8tracking17DistanceCoherenceINS_12PointXYZRGBLEE9getWeightEv@Base 1.6
 (optional=templinst)_ZN3pcl8tracking17DistanceCoherenceINS_12PointXYZRGBLEE9setWeightEd@Base 1.6
 (optional=templinst)_ZN3pcl8tracking17DistanceCoherenceINS_12PointXYZRGBLEEC1Ev@Base 1.6
 (optional=templinst)_ZN3pcl8tracking17DistanceCoherenceINS_12PointXYZRGBLEEC2Ev@Base 1.6
 (optional=templinst)_ZN3pcl8tracking17DistanceCoherenceINS_12PointXYZRGBLEED0Ev@Base 1.6
 (optional=templinst)_ZN3pcl8tracking17DistanceCoherenceINS_12PointXYZRGBLEED1Ev@Base 1.6
 (optional=templinst)_ZN3pcl8tracking17DistanceCoherenceINS_12PointXYZRGBLEED2Ev@Base 1.6
 (optional=templinst)_ZN3pcl8tracking17DistanceCoherenceINS_13InterestPointEE16computeCoherenceERS2_S4_@Base 1.6
 (optional=templinst)_ZN3pcl8tracking17DistanceCoherenceINS_13InterestPointEE9getWeightEv@Base 1.6
 (optional=templinst)_ZN3pcl8tracking17DistanceCoherenceINS_13InterestPointEE9setWeightEd@Base 1.6
 (optional=templinst)_ZN3pcl8tracking17DistanceCoherenceINS_13InterestPointEEC1Ev@Base 1.6
 (optional=templinst)_ZN3pcl8tracking17DistanceCoherenceINS_13InterestPointEEC2Ev@Base 1.6
 (optional=templinst)_ZN3pcl8tracking17DistanceCoherenceINS_13InterestPointEED0Ev@Base 1.6
 (optional=templinst)_ZN3pcl8tracking17DistanceCoherenceINS_13InterestPointEED1Ev@Base 1.6
 (optional=templinst)_ZN3pcl8tracking17DistanceCoherenceINS_13InterestPointEED2Ev@Base 1.6
 (optional=templinst)_ZN3pcl8tracking17DistanceCoherenceINS_14PointWithRangeEE16computeCoherenceERS2_S4_@Base 1.6
 (optional=templinst)_ZN3pcl8tracking17DistanceCoherenceINS_14PointWithRangeEE9getWeightEv@Base 1.6
 (optional=templinst)_ZN3pcl8tracking17DistanceCoherenceINS_14PointWithRangeEE9setWeightEd@Base 1.6
 (optional=templinst)_ZN3pcl8tracking17DistanceCoherenceINS_14PointWithRangeEEC1Ev@Base 1.6
 (optional=templinst)_ZN3pcl8tracking17DistanceCoherenceINS_14PointWithRangeEEC2Ev@Base 1.6
 (optional=templinst)_ZN3pcl8tracking17DistanceCoherenceINS_14PointWithRangeEED0Ev@Base 1.6
 (optional=templinst)_ZN3pcl8tracking17DistanceCoherenceINS_14PointWithRangeEED1Ev@Base 1.6
 (optional=templinst)_ZN3pcl8tracking17DistanceCoherenceINS_14PointWithRangeEED2Ev@Base 1.6
 (optional=templinst)_ZN3pcl8tracking17DistanceCoherenceINS_14PointWithScaleEE16computeCoherenceERS2_S4_@Base 1.6
 (optional=templinst)_ZN3pcl8tracking17DistanceCoherenceINS_14PointWithScaleEE9getWeightEv@Base 1.6
 (optional=templinst)_ZN3pcl8tracking17DistanceCoherenceINS_14PointWithScaleEE9setWeightEd@Base 1.6
 (optional=templinst)_ZN3pcl8tracking17DistanceCoherenceINS_14PointWithScaleEEC1Ev@Base 1.6
 (optional=templinst)_ZN3pcl8tracking17DistanceCoherenceINS_14PointWithScaleEEC2Ev@Base 1.6
 (optional=templinst)_ZN3pcl8tracking17DistanceCoherenceINS_14PointWithScaleEED0Ev@Base 1.6
 (optional=templinst)_ZN3pcl8tracking17DistanceCoherenceINS_14PointWithScaleEED1Ev@Base 1.6
 (optional=templinst)_ZN3pcl8tracking17DistanceCoherenceINS_14PointWithScaleEED2Ev@Base 1.6
 (optional=templinst)_ZN3pcl8tracking17DistanceCoherenceINS_15PointXYZINormalEE16computeCoherenceERS2_S4_@Base 1.6
 (optional=templinst)_ZN3pcl8tracking17DistanceCoherenceINS_15PointXYZINormalEE9getWeightEv@Base 1.6
 (optional=templinst)_ZN3pcl8tracking17DistanceCoherenceINS_15PointXYZINormalEE9setWeightEd@Base 1.6
 (optional=templinst)_ZN3pcl8tracking17DistanceCoherenceINS_15PointXYZINormalEEC1Ev@Base 1.6
 (optional=templinst)_ZN3pcl8tracking17DistanceCoherenceINS_15PointXYZINormalEEC2Ev@Base 1.6
 (optional=templinst)_ZN3pcl8tracking17DistanceCoherenceINS_15PointXYZINormalEED0Ev@Base 1.6
 (optional=templinst)_ZN3pcl8tracking17DistanceCoherenceINS_15PointXYZINormalEED1Ev@Base 1.6
 (optional=templinst)_ZN3pcl8tracking17DistanceCoherenceINS_15PointXYZINormalEED2Ev@Base 1.6
 (optional=templinst)_ZN3pcl8tracking17DistanceCoherenceINS_17PointXYZRGBNormalEE16computeCoherenceERS2_S4_@Base 1.6
 (optional=templinst)_ZN3pcl8tracking17DistanceCoherenceINS_17PointXYZRGBNormalEE9getWeightEv@Base 1.6
 (optional=templinst)_ZN3pcl8tracking17DistanceCoherenceINS_17PointXYZRGBNormalEE9setWeightEd@Base 1.6
 (optional=templinst)_ZN3pcl8tracking17DistanceCoherenceINS_17PointXYZRGBNormalEEC1Ev@Base 1.6
 (optional=templinst)_ZN3pcl8tracking17DistanceCoherenceINS_17PointXYZRGBNormalEEC2Ev@Base 1.6
 (optional=templinst)_ZN3pcl8tracking17DistanceCoherenceINS_17PointXYZRGBNormalEED0Ev@Base 1.6
 (optional=templinst)_ZN3pcl8tracking17DistanceCoherenceINS_17PointXYZRGBNormalEED1Ev@Base 1.6
 (optional=templinst)_ZN3pcl8tracking17DistanceCoherenceINS_17PointXYZRGBNormalEED2Ev@Base 1.6
 (optional=templinst)_ZN3pcl8tracking17DistanceCoherenceINS_18PointWithViewpointEE16computeCoherenceERS2_S4_@Base 1.6
 (optional=templinst)_ZN3pcl8tracking17DistanceCoherenceINS_18PointWithViewpointEE9getWeightEv@Base 1.6
 (optional=templinst)_ZN3pcl8tracking17DistanceCoherenceINS_18PointWithViewpointEE9setWeightEd@Base 1.6
 (optional=templinst)_ZN3pcl8tracking17DistanceCoherenceINS_18PointWithViewpointEEC1Ev@Base 1.6
 (optional=templinst)_ZN3pcl8tracking17DistanceCoherenceINS_18PointWithViewpointEEC2Ev@Base 1.6
 (optional=templinst)_ZN3pcl8tracking17DistanceCoherenceINS_18PointWithViewpointEED0Ev@Base 1.6
 (optional=templinst)_ZN3pcl8tracking17DistanceCoherenceINS_18PointWithViewpointEED1Ev@Base 1.6
 (optional=templinst)_ZN3pcl8tracking17DistanceCoherenceINS_18PointWithViewpointEED2Ev@Base 1.6
 (optional=templinst)_ZN3pcl8tracking17DistanceCoherenceINS_8PointXYZEE16computeCoherenceERS2_S4_@Base 1.6
 (optional=templinst)_ZN3pcl8tracking17DistanceCoherenceINS_8PointXYZEE9getWeightEv@Base 1.6
 (optional=templinst)_ZN3pcl8tracking17DistanceCoherenceINS_8PointXYZEE9setWeightEd@Base 1.6
 (optional=templinst)_ZN3pcl8tracking17DistanceCoherenceINS_8PointXYZEEC1Ev@Base 1.6
 (optional=templinst)_ZN3pcl8tracking17DistanceCoherenceINS_8PointXYZEEC2Ev@Base 1.6
 (optional=templinst)_ZN3pcl8tracking17DistanceCoherenceINS_8PointXYZEED0Ev@Base 1.6
 (optional=templinst)_ZN3pcl8tracking17DistanceCoherenceINS_8PointXYZEED1Ev@Base 1.6
 (optional=templinst)_ZN3pcl8tracking17DistanceCoherenceINS_8PointXYZEED2Ev@Base 1.6
 (optional=templinst)_ZN3pcl8tracking17DistanceCoherenceINS_9PointXYZIEE16computeCoherenceERS2_S4_@Base 1.6
 (optional=templinst)_ZN3pcl8tracking17DistanceCoherenceINS_9PointXYZIEE9getWeightEv@Base 1.6
 (optional=templinst)_ZN3pcl8tracking17DistanceCoherenceINS_9PointXYZIEE9setWeightEd@Base 1.6
 (optional=templinst)_ZN3pcl8tracking17DistanceCoherenceINS_9PointXYZIEEC1Ev@Base 1.6
 (optional=templinst)_ZN3pcl8tracking17DistanceCoherenceINS_9PointXYZIEEC2Ev@Base 1.6
 (optional=templinst)_ZN3pcl8tracking17DistanceCoherenceINS_9PointXYZIEED0Ev@Base 1.6
 (optional=templinst)_ZN3pcl8tracking17DistanceCoherenceINS_9PointXYZIEED1Ev@Base 1.6
 (optional=templinst)_ZN3pcl8tracking17DistanceCoherenceINS_9PointXYZIEED2Ev@Base 1.6
 (optional=templinst)_ZN3pcl8tracking17DistanceCoherenceINS_9PointXYZLEE16computeCoherenceERS2_S4_@Base 1.6
 (optional=templinst)_ZN3pcl8tracking17DistanceCoherenceINS_9PointXYZLEE9getWeightEv@Base 1.6
 (optional=templinst)_ZN3pcl8tracking17DistanceCoherenceINS_9PointXYZLEE9setWeightEd@Base 1.6
 (optional=templinst)_ZN3pcl8tracking17DistanceCoherenceINS_9PointXYZLEEC1Ev@Base 1.6
 (optional=templinst)_ZN3pcl8tracking17DistanceCoherenceINS_9PointXYZLEEC2Ev@Base 1.6
 (optional=templinst)_ZN3pcl8tracking17DistanceCoherenceINS_9PointXYZLEED0Ev@Base 1.6
 (optional=templinst)_ZN3pcl8tracking17DistanceCoherenceINS_9PointXYZLEED1Ev@Base 1.6
 (optional=templinst)_ZN3pcl8tracking17DistanceCoherenceINS_9PointXYZLEED2Ev@Base 1.6
 (optional=templinst)_ZN3pcl8tracking17HSVColorCoherenceINS_11PointXYZRGBEE10getHWeightEv@Base 1.6
 (optional=templinst)_ZN3pcl8tracking17HSVColorCoherenceINS_11PointXYZRGBEE10getSWeightEv@Base 1.6
 (optional=templinst)_ZN3pcl8tracking17HSVColorCoherenceINS_11PointXYZRGBEE10getVWeightEv@Base 1.6
 (optional=templinst)_ZN3pcl8tracking17HSVColorCoherenceINS_11PointXYZRGBEE10setHWeightEd@Base 1.6
 (optional=templinst)_ZN3pcl8tracking17HSVColorCoherenceINS_11PointXYZRGBEE10setSWeightEd@Base 1.6
 (optional=templinst)_ZN3pcl8tracking17HSVColorCoherenceINS_11PointXYZRGBEE10setVWeightEd@Base 1.6
 (optional=templinst)_ZN3pcl8tracking17HSVColorCoherenceINS_11PointXYZRGBEE16computeCoherenceERS2_S4_@Base 1.6
 (optional=templinst)_ZN3pcl8tracking17HSVColorCoherenceINS_11PointXYZRGBEE9getWeightEv@Base 1.6
 (optional=templinst)_ZN3pcl8tracking17HSVColorCoherenceINS_11PointXYZRGBEE9setWeightEd@Base 1.6
 (optional=templinst)_ZN3pcl8tracking17HSVColorCoherenceINS_11PointXYZRGBEEC1Ev@Base 1.6
 (optional=templinst)_ZN3pcl8tracking17HSVColorCoherenceINS_11PointXYZRGBEEC2Ev@Base 1.6
 (optional=templinst)_ZN3pcl8tracking17HSVColorCoherenceINS_11PointXYZRGBEED0Ev@Base 1.6
 (optional=templinst)_ZN3pcl8tracking17HSVColorCoherenceINS_11PointXYZRGBEED1Ev@Base 1.6
 (optional=templinst)_ZN3pcl8tracking17HSVColorCoherenceINS_11PointXYZRGBEED2Ev@Base 1.6
 (optional=templinst)_ZN3pcl8tracking17HSVColorCoherenceINS_12PointXYZRGBAEE10getHWeightEv@Base 1.6
 (optional=templinst)_ZN3pcl8tracking17HSVColorCoherenceINS_12PointXYZRGBAEE10getSWeightEv@Base 1.6
 (optional=templinst)_ZN3pcl8tracking17HSVColorCoherenceINS_12PointXYZRGBAEE10getVWeightEv@Base 1.6
 (optional=templinst)_ZN3pcl8tracking17HSVColorCoherenceINS_12PointXYZRGBAEE10setHWeightEd@Base 1.6
 (optional=templinst)_ZN3pcl8tracking17HSVColorCoherenceINS_12PointXYZRGBAEE10setSWeightEd@Base 1.6
 (optional=templinst)_ZN3pcl8tracking17HSVColorCoherenceINS_12PointXYZRGBAEE10setVWeightEd@Base 1.6
 (optional=templinst)_ZN3pcl8tracking17HSVColorCoherenceINS_12PointXYZRGBAEE16computeCoherenceERS2_S4_@Base 1.6
 (optional=templinst)_ZN3pcl8tracking17HSVColorCoherenceINS_12PointXYZRGBAEE9getWeightEv@Base 1.6
 (optional=templinst)_ZN3pcl8tracking17HSVColorCoherenceINS_12PointXYZRGBAEE9setWeightEd@Base 1.6
 (optional=templinst)_ZN3pcl8tracking17HSVColorCoherenceINS_12PointXYZRGBAEEC1Ev@Base 1.6
 (optional=templinst)_ZN3pcl8tracking17HSVColorCoherenceINS_12PointXYZRGBAEEC2Ev@Base 1.6
 (optional=templinst)_ZN3pcl8tracking17HSVColorCoherenceINS_12PointXYZRGBAEED0Ev@Base 1.6
 (optional=templinst)_ZN3pcl8tracking17HSVColorCoherenceINS_12PointXYZRGBAEED1Ev@Base 1.6
 (optional=templinst)_ZN3pcl8tracking17HSVColorCoherenceINS_12PointXYZRGBAEED2Ev@Base 1.6
 (optional=templinst)_ZN3pcl8tracking17HSVColorCoherenceINS_17PointXYZRGBNormalEE10getHWeightEv@Base 1.6
 (optional=templinst)_ZN3pcl8tracking17HSVColorCoherenceINS_17PointXYZRGBNormalEE10getSWeightEv@Base 1.6
 (optional=templinst)_ZN3pcl8tracking17HSVColorCoherenceINS_17PointXYZRGBNormalEE10getVWeightEv@Base 1.6
 (optional=templinst)_ZN3pcl8tracking17HSVColorCoherenceINS_17PointXYZRGBNormalEE10setHWeightEd@Base 1.6
 (optional=templinst)_ZN3pcl8tracking17HSVColorCoherenceINS_17PointXYZRGBNormalEE10setSWeightEd@Base 1.6
 (optional=templinst)_ZN3pcl8tracking17HSVColorCoherenceINS_17PointXYZRGBNormalEE10setVWeightEd@Base 1.6
 (optional=templinst)_ZN3pcl8tracking17HSVColorCoherenceINS_17PointXYZRGBNormalEE16computeCoherenceERS2_S4_@Base 1.6
 (optional=templinst)_ZN3pcl8tracking17HSVColorCoherenceINS_17PointXYZRGBNormalEE9getWeightEv@Base 1.6
 (optional=templinst)_ZN3pcl8tracking17HSVColorCoherenceINS_17PointXYZRGBNormalEE9setWeightEd@Base 1.6
 (optional=templinst)_ZN3pcl8tracking17HSVColorCoherenceINS_17PointXYZRGBNormalEEC1Ev@Base 1.6
 (optional=templinst)_ZN3pcl8tracking17HSVColorCoherenceINS_17PointXYZRGBNormalEEC2Ev@Base 1.6
 (optional=templinst)_ZN3pcl8tracking17HSVColorCoherenceINS_17PointXYZRGBNormalEED0Ev@Base 1.6
 (optional=templinst)_ZN3pcl8tracking17HSVColorCoherenceINS_17PointXYZRGBNormalEED1Ev@Base 1.6
 (optional=templinst)_ZN3pcl8tracking17HSVColorCoherenceINS_17PointXYZRGBNormalEED2Ev@Base 1.6
 (optional=templinst)_ZN3pcl8tracking19PointCloudCoherenceINS_11PointNormalEE11initComputeEv@Base 1.6
 (optional=templinst)_ZN3pcl8tracking19PointCloudCoherenceINS_11PointNormalEE14setTargetCloudERKN5boost10shared_ptrIKNS_10PointCloudIS2_EEEE@Base 1.6
 (optional=templinst)_ZN3pcl8tracking19PointCloudCoherenceINS_11PointNormalEED0Ev@Base 1.6
 (optional=templinst)_ZN3pcl8tracking19PointCloudCoherenceINS_11PointNormalEED1Ev@Base 1.6
 (optional=templinst)_ZN3pcl8tracking19PointCloudCoherenceINS_11PointNormalEED2Ev@Base 1.6
 (optional=templinst)_ZN3pcl8tracking19PointCloudCoherenceINS_11PointXYZHSVEE11initComputeEv@Base 1.6
 (optional=templinst)_ZN3pcl8tracking19PointCloudCoherenceINS_11PointXYZHSVEE14setTargetCloudERKN5boost10shared_ptrIKNS_10PointCloudIS2_EEEE@Base 1.6
 (optional=templinst)_ZN3pcl8tracking19PointCloudCoherenceINS_11PointXYZHSVEED0Ev@Base 1.6
 (optional=templinst)_ZN3pcl8tracking19PointCloudCoherenceINS_11PointXYZHSVEED1Ev@Base 1.6
 (optional=templinst)_ZN3pcl8tracking19PointCloudCoherenceINS_11PointXYZHSVEED2Ev@Base 1.6
 (optional=templinst)_ZN3pcl8tracking19PointCloudCoherenceINS_11PointXYZRGBEE11initComputeEv@Base 1.6
 (optional=templinst)_ZN3pcl8tracking19PointCloudCoherenceINS_11PointXYZRGBEE14setTargetCloudERKN5boost10shared_ptrIKNS_10PointCloudIS2_EEEE@Base 1.6
 (optional=templinst)_ZN3pcl8tracking19PointCloudCoherenceINS_11PointXYZRGBEED0Ev@Base 1.6
 (optional=templinst)_ZN3pcl8tracking19PointCloudCoherenceINS_11PointXYZRGBEED1Ev@Base 1.6
 (optional=templinst)_ZN3pcl8tracking19PointCloudCoherenceINS_11PointXYZRGBEED2Ev@Base 1.6
 (optional=templinst)_ZN3pcl8tracking19PointCloudCoherenceINS_12PointXYZRGBAEE11initComputeEv@Base 1.6
 (optional=templinst)_ZN3pcl8tracking19PointCloudCoherenceINS_12PointXYZRGBAEE14setTargetCloudERKN5boost10shared_ptrIKNS_10PointCloudIS2_EEEE@Base 1.6
 (optional=templinst)_ZN3pcl8tracking19PointCloudCoherenceINS_12PointXYZRGBAEED0Ev@Base 1.6
 (optional=templinst)_ZN3pcl8tracking19PointCloudCoherenceINS_12PointXYZRGBAEED1Ev@Base 1.6
 (optional=templinst)_ZN3pcl8tracking19PointCloudCoherenceINS_12PointXYZRGBAEED2Ev@Base 1.6
 (optional=templinst)_ZN3pcl8tracking19PointCloudCoherenceINS_12PointXYZRGBLEE11initComputeEv@Base 1.6
 (optional=templinst)_ZN3pcl8tracking19PointCloudCoherenceINS_12PointXYZRGBLEE14setTargetCloudERKN5boost10shared_ptrIKNS_10PointCloudIS2_EEEE@Base 1.6
 (optional=templinst)_ZN3pcl8tracking19PointCloudCoherenceINS_12PointXYZRGBLEED0Ev@Base 1.6
 (optional=templinst)_ZN3pcl8tracking19PointCloudCoherenceINS_12PointXYZRGBLEED1Ev@Base 1.6
 (optional=templinst)_ZN3pcl8tracking19PointCloudCoherenceINS_12PointXYZRGBLEED2Ev@Base 1.6
 (optional=templinst)_ZN3pcl8tracking19PointCloudCoherenceINS_13InterestPointEE11initComputeEv@Base 1.6
 (optional=templinst)_ZN3pcl8tracking19PointCloudCoherenceINS_13InterestPointEE14setTargetCloudERKN5boost10shared_ptrIKNS_10PointCloudIS2_EEEE@Base 1.6
 (optional=templinst)_ZN3pcl8tracking19PointCloudCoherenceINS_13InterestPointEED0Ev@Base 1.6
 (optional=templinst)_ZN3pcl8tracking19PointCloudCoherenceINS_13InterestPointEED1Ev@Base 1.6
 (optional=templinst)_ZN3pcl8tracking19PointCloudCoherenceINS_13InterestPointEED2Ev@Base 1.6
 (optional=templinst)_ZN3pcl8tracking19PointCloudCoherenceINS_14PointWithRangeEE11initComputeEv@Base 1.6
 (optional=templinst)_ZN3pcl8tracking19PointCloudCoherenceINS_14PointWithRangeEE14setTargetCloudERKN5boost10shared_ptrIKNS_10PointCloudIS2_EEEE@Base 1.6
 (optional=templinst)_ZN3pcl8tracking19PointCloudCoherenceINS_14PointWithRangeEED0Ev@Base 1.6
 (optional=templinst)_ZN3pcl8tracking19PointCloudCoherenceINS_14PointWithRangeEED1Ev@Base 1.6
 (optional=templinst)_ZN3pcl8tracking19PointCloudCoherenceINS_14PointWithRangeEED2Ev@Base 1.6
 (optional=templinst)_ZN3pcl8tracking19PointCloudCoherenceINS_14PointWithScaleEE11initComputeEv@Base 1.6
 (optional=templinst)_ZN3pcl8tracking19PointCloudCoherenceINS_14PointWithScaleEE14setTargetCloudERKN5boost10shared_ptrIKNS_10PointCloudIS2_EEEE@Base 1.6
 (optional=templinst)_ZN3pcl8tracking19PointCloudCoherenceINS_14PointWithScaleEED0Ev@Base 1.6
 (optional=templinst)_ZN3pcl8tracking19PointCloudCoherenceINS_14PointWithScaleEED1Ev@Base 1.6
 (optional=templinst)_ZN3pcl8tracking19PointCloudCoherenceINS_14PointWithScaleEED2Ev@Base 1.6
 (optional=templinst)_ZN3pcl8tracking19PointCloudCoherenceINS_15PointXYZINormalEE11initComputeEv@Base 1.6
 (optional=templinst)_ZN3pcl8tracking19PointCloudCoherenceINS_15PointXYZINormalEE14setTargetCloudERKN5boost10shared_ptrIKNS_10PointCloudIS2_EEEE@Base 1.6
 (optional=templinst)_ZN3pcl8tracking19PointCloudCoherenceINS_15PointXYZINormalEED0Ev@Base 1.6
 (optional=templinst)_ZN3pcl8tracking19PointCloudCoherenceINS_15PointXYZINormalEED1Ev@Base 1.6
 (optional=templinst)_ZN3pcl8tracking19PointCloudCoherenceINS_15PointXYZINormalEED2Ev@Base 1.6
 (optional=templinst)_ZN3pcl8tracking19PointCloudCoherenceINS_17PointXYZRGBNormalEE11initComputeEv@Base 1.6
 (optional=templinst)_ZN3pcl8tracking19PointCloudCoherenceINS_17PointXYZRGBNormalEE14setTargetCloudERKN5boost10shared_ptrIKNS_10PointCloudIS2_EEEE@Base 1.6
 (optional=templinst)_ZN3pcl8tracking19PointCloudCoherenceINS_17PointXYZRGBNormalEED0Ev@Base 1.6
 (optional=templinst)_ZN3pcl8tracking19PointCloudCoherenceINS_17PointXYZRGBNormalEED1Ev@Base 1.6
 (optional=templinst)_ZN3pcl8tracking19PointCloudCoherenceINS_17PointXYZRGBNormalEED2Ev@Base 1.6
 (optional=templinst)_ZN3pcl8tracking19PointCloudCoherenceINS_18PointWithViewpointEE11initComputeEv@Base 1.6
 (optional=templinst)_ZN3pcl8tracking19PointCloudCoherenceINS_18PointWithViewpointEE14setTargetCloudERKN5boost10shared_ptrIKNS_10PointCloudIS2_EEEE@Base 1.6
 (optional=templinst)_ZN3pcl8tracking19PointCloudCoherenceINS_18PointWithViewpointEED0Ev@Base 1.6
 (optional=templinst)_ZN3pcl8tracking19PointCloudCoherenceINS_18PointWithViewpointEED1Ev@Base 1.6
 (optional=templinst)_ZN3pcl8tracking19PointCloudCoherenceINS_18PointWithViewpointEED2Ev@Base 1.6
 (optional=templinst)_ZN3pcl8tracking19PointCloudCoherenceINS_8PointXYZEE11initComputeEv@Base 1.6
 (optional=templinst)_ZN3pcl8tracking19PointCloudCoherenceINS_8PointXYZEE14setTargetCloudERKN5boost10shared_ptrIKNS_10PointCloudIS2_EEEE@Base 1.6
 (optional=templinst)_ZN3pcl8tracking19PointCloudCoherenceINS_8PointXYZEED0Ev@Base 1.6
 (optional=templinst)_ZN3pcl8tracking19PointCloudCoherenceINS_8PointXYZEED1Ev@Base 1.6
 (optional=templinst)_ZN3pcl8tracking19PointCloudCoherenceINS_8PointXYZEED2Ev@Base 1.6
 (optional=templinst)_ZN3pcl8tracking19PointCloudCoherenceINS_9PointXYZIEE11initComputeEv@Base 1.6
 (optional=templinst)_ZN3pcl8tracking19PointCloudCoherenceINS_9PointXYZIEE14setTargetCloudERKN5boost10shared_ptrIKNS_10PointCloudIS2_EEEE@Base 1.6
 (optional=templinst)_ZN3pcl8tracking19PointCloudCoherenceINS_9PointXYZIEED0Ev@Base 1.6
 (optional=templinst)_ZN3pcl8tracking19PointCloudCoherenceINS_9PointXYZIEED1Ev@Base 1.6
 (optional=templinst)_ZN3pcl8tracking19PointCloudCoherenceINS_9PointXYZIEED2Ev@Base 1.6
 (optional=templinst)_ZN3pcl8tracking19PointCloudCoherenceINS_9PointXYZLEE11initComputeEv@Base 1.6
 (optional=templinst)_ZN3pcl8tracking19PointCloudCoherenceINS_9PointXYZLEE14setTargetCloudERKN5boost10shared_ptrIKNS_10PointCloudIS2_EEEE@Base 1.6
 (optional=templinst)_ZN3pcl8tracking19PointCloudCoherenceINS_9PointXYZLEED0Ev@Base 1.6
 (optional=templinst)_ZN3pcl8tracking19PointCloudCoherenceINS_9PointXYZLEED1Ev@Base 1.6
 (optional=templinst)_ZN3pcl8tracking19PointCloudCoherenceINS_9PointXYZLEED2Ev@Base 1.6
 (optional=templinst)_ZN3pcl8tracking21ParticleFilterTrackerINS_11PointNormalENS0_11ParticleXYREE11initComputeEv@Base 1.6
 (optional=templinst)_ZN3pcl8tracking21ParticleFilterTrackerINS_11PointNormalENS0_11ParticleXYREE12getUseNormalEv@Base 1.6
 (optional=templinst)_ZN3pcl8tracking21ParticleFilterTrackerINS_11PointNormalENS0_11ParticleXYREE12setUseNormalEb@Base 1.6
 (optional=templinst)_ZN3pcl8tracking21ParticleFilterTrackerINS_11PointNormalENS0_11ParticleXYREE13genAliasTableERSt6vectorIiSaIiEERS5_IdSaIdEERKN5boost10shared_ptrIKNS_10PointCloudIS3_EEEE@Base 1.6
 (optional=templinst)_ZN3pcl8tracking21ParticleFilterTrackerINS_11PointNormalENS0_11ParticleXYREE13initParticlesEb@Base 1.6
 (optional=templinst)_ZN3pcl8tracking21ParticleFilterTrackerINS_11PointNormalENS0_11ParticleXYREE13resetTrackingEv@Base 1.6
 (optional=templinst)_ZN3pcl8tracking21ParticleFilterTrackerINS_11PointNormalENS0_11ParticleXYREE13setMinIndicesEi@Base 1.6
 (optional=templinst)_ZN3pcl8tracking21ParticleFilterTrackerINS_11PointNormalENS0_11ParticleXYREE13toEigenMatrixERKS3_@Base 1.6
 (optional=templinst)_ZN3pcl8tracking21ParticleFilterTrackerINS_11PointNormalENS0_11ParticleXYREE14getMotionRatioEv@Base 1.6
 (optional=templinst)_ZN3pcl8tracking21ParticleFilterTrackerINS_11PointNormalENS0_11ParticleXYREE14setMotionRatioEd@Base 1.6
 (optional=templinst)_ZN3pcl8tracking21ParticleFilterTrackerINS_11PointNormalENS0_11ParticleXYREE14setParticleNumEi@Base 1.6
 (optional=templinst)_ZN3pcl8tracking21ParticleFilterTrackerINS_11PointNormalENS0_11ParticleXYREE15calcBoundingBoxERdS5_S5_S5_S5_S5_@Base 1.6
 (optional=templinst)_ZN3pcl8tracking21ParticleFilterTrackerINS_11PointNormalENS0_11ParticleXYREE15computeTrackingEv@Base 1.6
 (optional=templinst)_ZN3pcl8tracking21ParticleFilterTrackerINS_11PointNormalENS0_11ParticleXYREE15normalizeWeightEv@Base 1.6
 (optional=templinst)_ZN3pcl8tracking21ParticleFilterTrackerINS_11PointNormalENS0_11ParticleXYREE15setIterationNumEi@Base 1.6
 (optional=templinst)_ZN3pcl8tracking21ParticleFilterTrackerINS_11PointNormalENS0_11ParticleXYREE17getReferenceCloudEv@Base 1.6
 (optional=templinst)_ZN3pcl8tracking21ParticleFilterTrackerINS_11PointNormalENS0_11ParticleXYREE17setCloudCoherenceERKN5boost10shared_ptrINS0_19PointCloudCoherenceIS2_EEEE@Base 1.6
 (optional=templinst)_ZN3pcl8tracking21ParticleFilterTrackerINS_11PointNormalENS0_11ParticleXYREE17setReferenceCloudERKN5boost10shared_ptrIKNS_10PointCloudIS2_EEEE@Base 1.6
 (optional=templinst)_ZN3pcl8tracking21ParticleFilterTrackerINS_11PointNormalENS0_11ParticleXYREE19cropInputPointCloudERKN5boost10shared_ptrIKNS_10PointCloudIS2_EEEERS8_@Base 1.6
 (optional=templinst)_ZN3pcl8tracking21ParticleFilterTrackerINS_11PointNormalENS0_11ParticleXYREE19setInitialNoiseMeanERKSt6vectorIdSaIdEE@Base 1.6
 (optional=templinst)_ZN3pcl8tracking21ParticleFilterTrackerINS_11PointNormalENS0_11ParticleXYREE19testChangeDetectionERKN5boost10shared_ptrIKNS_10PointCloudIS2_EEEE@Base 1.6
 (optional=templinst)_ZN3pcl8tracking21ParticleFilterTrackerINS_11PointNormalENS0_11ParticleXYREE20getUseChangeDetectorEv@Base 1.6
 (optional=templinst)_ZN3pcl8tracking21ParticleFilterTrackerINS_11PointNormalENS0_11ParticleXYREE20setOcclusionAngleTheEd@Base 1.6
 (optional=templinst)_ZN3pcl8tracking21ParticleFilterTrackerINS_11PointNormalENS0_11ParticleXYREE20setUseChangeDetectorEb@Base 1.6
 (optional=templinst)_ZN3pcl8tracking21ParticleFilterTrackerINS_11PointNormalENS0_11ParticleXYREE21sampleWithReplacementERKSt6vectorIiSaIiEERKS5_IdSaIdEE@Base 1.6
 (optional=templinst)_ZN3pcl8tracking21ParticleFilterTrackerINS_11PointNormalENS0_11ParticleXYREE22setStepNoiseCovarianceERKSt6vectorIdSaIdEE@Base 1.6
 (optional=templinst)_ZN3pcl8tracking21ParticleFilterTrackerINS_11PointNormalENS0_11ParticleXYREE23normalizeParticleWeightEddd@Base 1.6
 (optional=templinst)_ZN3pcl8tracking21ParticleFilterTrackerINS_11PointNormalENS0_11ParticleXYREE23resampleWithReplacementEv@Base 1.6
 (optional=templinst)_ZN3pcl8tracking21ParticleFilterTrackerINS_11PointNormalENS0_11ParticleXYREE24setResampleLikelihoodThrEd@Base 1.6
 (optional=templinst)_ZN3pcl8tracking21ParticleFilterTrackerINS_11PointNormalENS0_11ParticleXYREE25setInitialNoiseCovarianceERKSt6vectorIdSaIdEE@Base 1.6
 (optional=templinst)_ZN3pcl8tracking21ParticleFilterTrackerINS_11PointNormalENS0_11ParticleXYREE28computeTransformedPointCloudERKS3_RSt6vectorIiSaIiEERNS_10PointCloudIS2_EE@Base 1.6
 (optional=templinst)_ZN3pcl8tracking21ParticleFilterTrackerINS_11PointNormalENS0_11ParticleXYREE28getIntervalOfChangeDetectionEv@Base 1.6
 (optional=templinst)_ZN3pcl8tracking21ParticleFilterTrackerINS_11PointNormalENS0_11ParticleXYREE28setIntervalOfChangeDetectionEj@Base 1.6
 (optional=templinst)_ZN3pcl8tracking21ParticleFilterTrackerINS_11PointNormalENS0_11ParticleXYREE29getMinPointsOfChangeDetectionEv@Base 1.6
 (optional=templinst)_ZN3pcl8tracking21ParticleFilterTrackerINS_11PointNormalENS0_11ParticleXYREE29setMinPointsOfChangeDetectionEj@Base 1.6
 (optional=templinst)_ZN3pcl8tracking21ParticleFilterTrackerINS_11PointNormalENS0_11ParticleXYREE30getResolutionOfChangeDetectionEv@Base 1.6
 (optional=templinst)_ZN3pcl8tracking21ParticleFilterTrackerINS_11PointNormalENS0_11ParticleXYREE30setResolutionOfChangeDetectionEd@Base 1.6
 (optional=templinst)_ZN3pcl8tracking21ParticleFilterTrackerINS_11PointNormalENS0_11ParticleXYREE38computeTransformedPointCloudWithNormalERKS3_RSt6vectorIiSaIiEERNS_10PointCloudIS2_EE@Base 1.6
 (optional=templinst)_ZN3pcl8tracking21ParticleFilterTrackerINS_11PointNormalENS0_11ParticleXYREE41computeTransformedPointCloudWithoutNormalERKS3_RNS_10PointCloudIS2_EE@Base 1.6
 (optional=templinst)_ZN3pcl8tracking21ParticleFilterTrackerINS_11PointNormalENS0_11ParticleXYREE6updateEv@Base 1.6
 (optional=templinst)_ZN3pcl8tracking21ParticleFilterTrackerINS_11PointNormalENS0_11ParticleXYREE6weightEv@Base 1.6
 (optional=templinst)_ZN3pcl8tracking21ParticleFilterTrackerINS_11PointNormalENS0_11ParticleXYREE8getAlphaEv@Base 1.6
 (optional=templinst)_ZN3pcl8tracking21ParticleFilterTrackerINS_11PointNormalENS0_11ParticleXYREE8resampleEv@Base 1.6
 (optional=templinst)_ZN3pcl8tracking21ParticleFilterTrackerINS_11PointNormalENS0_11ParticleXYREE8setAlphaEd@Base 1.6
 (optional=templinst)_ZN3pcl8tracking21ParticleFilterTrackerINS_11PointNormalENS0_11ParticleXYREE8setTransERKN5Eigen9TransformIfLi3ELi2ELi0EEE@Base 1.6
 (optional=templinst)_ZN3pcl8tracking21ParticleFilterTrackerINS_11PointNormalENS0_11ParticleXYREEC1Ev@Base 1.6
 (optional=templinst)_ZN3pcl8tracking21ParticleFilterTrackerINS_11PointNormalENS0_11ParticleXYREEC2Ev@Base 1.6
 (optional=templinst)_ZN3pcl8tracking21ParticleFilterTrackerINS_11PointNormalENS0_11ParticleXYREED0Ev@Base 1.6
 (optional=templinst)_ZN3pcl8tracking21ParticleFilterTrackerINS_11PointNormalENS0_11ParticleXYREED1Ev@Base 1.6
 (optional=templinst)_ZN3pcl8tracking21ParticleFilterTrackerINS_11PointNormalENS0_11ParticleXYREED2Ev@Base 1.6
 (optional=templinst)_ZN3pcl8tracking21ParticleFilterTrackerINS_11PointNormalENS0_12ParticleXYRPEE11initComputeEv@Base 1.6
 (optional=templinst)_ZN3pcl8tracking21ParticleFilterTrackerINS_11PointNormalENS0_12ParticleXYRPEE12getUseNormalEv@Base 1.6
 (optional=templinst)_ZN3pcl8tracking21ParticleFilterTrackerINS_11PointNormalENS0_12ParticleXYRPEE12setUseNormalEb@Base 1.6
 (optional=templinst)_ZN3pcl8tracking21ParticleFilterTrackerINS_11PointNormalENS0_12ParticleXYRPEE13genAliasTableERSt6vectorIiSaIiEERS5_IdSaIdEERKN5boost10shared_ptrIKNS_10PointCloudIS3_EEEE@Base 1.6
 (optional=templinst)_ZN3pcl8tracking21ParticleFilterTrackerINS_11PointNormalENS0_12ParticleXYRPEE13initParticlesEb@Base 1.6
 (optional=templinst)_ZN3pcl8tracking21ParticleFilterTrackerINS_11PointNormalENS0_12ParticleXYRPEE13resetTrackingEv@Base 1.6
 (optional=templinst)_ZN3pcl8tracking21ParticleFilterTrackerINS_11PointNormalENS0_12ParticleXYRPEE13setMinIndicesEi@Base 1.6
 (optional=templinst)_ZN3pcl8tracking21ParticleFilterTrackerINS_11PointNormalENS0_12ParticleXYRPEE13toEigenMatrixERKS3_@Base 1.6
 (optional=templinst)_ZN3pcl8tracking21ParticleFilterTrackerINS_11PointNormalENS0_12ParticleXYRPEE14getMotionRatioEv@Base 1.6
 (optional=templinst)_ZN3pcl8tracking21ParticleFilterTrackerINS_11PointNormalENS0_12ParticleXYRPEE14setMotionRatioEd@Base 1.6
 (optional=templinst)_ZN3pcl8tracking21ParticleFilterTrackerINS_11PointNormalENS0_12ParticleXYRPEE14setParticleNumEi@Base 1.6
 (optional=templinst)_ZN3pcl8tracking21ParticleFilterTrackerINS_11PointNormalENS0_12ParticleXYRPEE15calcBoundingBoxERdS5_S5_S5_S5_S5_@Base 1.6
 (optional=templinst)_ZN3pcl8tracking21ParticleFilterTrackerINS_11PointNormalENS0_12ParticleXYRPEE15computeTrackingEv@Base 1.6
 (optional=templinst)_ZN3pcl8tracking21ParticleFilterTrackerINS_11PointNormalENS0_12ParticleXYRPEE15normalizeWeightEv@Base 1.6
 (optional=templinst)_ZN3pcl8tracking21ParticleFilterTrackerINS_11PointNormalENS0_12ParticleXYRPEE15setIterationNumEi@Base 1.6
 (optional=templinst)_ZN3pcl8tracking21ParticleFilterTrackerINS_11PointNormalENS0_12ParticleXYRPEE17getReferenceCloudEv@Base 1.6
 (optional=templinst)_ZN3pcl8tracking21ParticleFilterTrackerINS_11PointNormalENS0_12ParticleXYRPEE17setCloudCoherenceERKN5boost10shared_ptrINS0_19PointCloudCoherenceIS2_EEEE@Base 1.6
 (optional=templinst)_ZN3pcl8tracking21ParticleFilterTrackerINS_11PointNormalENS0_12ParticleXYRPEE17setReferenceCloudERKN5boost10shared_ptrIKNS_10PointCloudIS2_EEEE@Base 1.6
 (optional=templinst)_ZN3pcl8tracking21ParticleFilterTrackerINS_11PointNormalENS0_12ParticleXYRPEE19cropInputPointCloudERKN5boost10shared_ptrIKNS_10PointCloudIS2_EEEERS8_@Base 1.6
 (optional=templinst)_ZN3pcl8tracking21ParticleFilterTrackerINS_11PointNormalENS0_12ParticleXYRPEE19setInitialNoiseMeanERKSt6vectorIdSaIdEE@Base 1.6
 (optional=templinst)_ZN3pcl8tracking21ParticleFilterTrackerINS_11PointNormalENS0_12ParticleXYRPEE19testChangeDetectionERKN5boost10shared_ptrIKNS_10PointCloudIS2_EEEE@Base 1.6
 (optional=templinst)_ZN3pcl8tracking21ParticleFilterTrackerINS_11PointNormalENS0_12ParticleXYRPEE20getUseChangeDetectorEv@Base 1.6
 (optional=templinst)_ZN3pcl8tracking21ParticleFilterTrackerINS_11PointNormalENS0_12ParticleXYRPEE20setOcclusionAngleTheEd@Base 1.6
 (optional=templinst)_ZN3pcl8tracking21ParticleFilterTrackerINS_11PointNormalENS0_12ParticleXYRPEE20setUseChangeDetectorEb@Base 1.6
 (optional=templinst)_ZN3pcl8tracking21ParticleFilterTrackerINS_11PointNormalENS0_12ParticleXYRPEE21sampleWithReplacementERKSt6vectorIiSaIiEERKS5_IdSaIdEE@Base 1.6
 (optional=templinst)_ZN3pcl8tracking21ParticleFilterTrackerINS_11PointNormalENS0_12ParticleXYRPEE22setStepNoiseCovarianceERKSt6vectorIdSaIdEE@Base 1.6
 (optional=templinst)_ZN3pcl8tracking21ParticleFilterTrackerINS_11PointNormalENS0_12ParticleXYRPEE23normalizeParticleWeightEddd@Base 1.6
 (optional=templinst)_ZN3pcl8tracking21ParticleFilterTrackerINS_11PointNormalENS0_12ParticleXYRPEE23resampleWithReplacementEv@Base 1.6
 (optional=templinst)_ZN3pcl8tracking21ParticleFilterTrackerINS_11PointNormalENS0_12ParticleXYRPEE24setResampleLikelihoodThrEd@Base 1.6
 (optional=templinst)_ZN3pcl8tracking21ParticleFilterTrackerINS_11PointNormalENS0_12ParticleXYRPEE25setInitialNoiseCovarianceERKSt6vectorIdSaIdEE@Base 1.6
 (optional=templinst)_ZN3pcl8tracking21ParticleFilterTrackerINS_11PointNormalENS0_12ParticleXYRPEE28computeTransformedPointCloudERKS3_RSt6vectorIiSaIiEERNS_10PointCloudIS2_EE@Base 1.6
 (optional=templinst)_ZN3pcl8tracking21ParticleFilterTrackerINS_11PointNormalENS0_12ParticleXYRPEE28getIntervalOfChangeDetectionEv@Base 1.6
 (optional=templinst)_ZN3pcl8tracking21ParticleFilterTrackerINS_11PointNormalENS0_12ParticleXYRPEE28setIntervalOfChangeDetectionEj@Base 1.6
 (optional=templinst)_ZN3pcl8tracking21ParticleFilterTrackerINS_11PointNormalENS0_12ParticleXYRPEE29getMinPointsOfChangeDetectionEv@Base 1.6
 (optional=templinst)_ZN3pcl8tracking21ParticleFilterTrackerINS_11PointNormalENS0_12ParticleXYRPEE29setMinPointsOfChangeDetectionEj@Base 1.6
 (optional=templinst)_ZN3pcl8tracking21ParticleFilterTrackerINS_11PointNormalENS0_12ParticleXYRPEE30getResolutionOfChangeDetectionEv@Base 1.6
 (optional=templinst)_ZN3pcl8tracking21ParticleFilterTrackerINS_11PointNormalENS0_12ParticleXYRPEE30setResolutionOfChangeDetectionEd@Base 1.6
 (optional=templinst)_ZN3pcl8tracking21ParticleFilterTrackerINS_11PointNormalENS0_12ParticleXYRPEE38computeTransformedPointCloudWithNormalERKS3_RSt6vectorIiSaIiEERNS_10PointCloudIS2_EE@Base 1.6
 (optional=templinst)_ZN3pcl8tracking21ParticleFilterTrackerINS_11PointNormalENS0_12ParticleXYRPEE41computeTransformedPointCloudWithoutNormalERKS3_RNS_10PointCloudIS2_EE@Base 1.6
 (optional=templinst)_ZN3pcl8tracking21ParticleFilterTrackerINS_11PointNormalENS0_12ParticleXYRPEE6updateEv@Base 1.6
 (optional=templinst)_ZN3pcl8tracking21ParticleFilterTrackerINS_11PointNormalENS0_12ParticleXYRPEE6weightEv@Base 1.6
 (optional=templinst)_ZN3pcl8tracking21ParticleFilterTrackerINS_11PointNormalENS0_12ParticleXYRPEE8getAlphaEv@Base 1.6
 (optional=templinst)_ZN3pcl8tracking21ParticleFilterTrackerINS_11PointNormalENS0_12ParticleXYRPEE8resampleEv@Base 1.6
 (optional=templinst)_ZN3pcl8tracking21ParticleFilterTrackerINS_11PointNormalENS0_12ParticleXYRPEE8setAlphaEd@Base 1.6
 (optional=templinst)_ZN3pcl8tracking21ParticleFilterTrackerINS_11PointNormalENS0_12ParticleXYRPEE8setTransERKN5Eigen9TransformIfLi3ELi2ELi0EEE@Base 1.6
 (optional=templinst)_ZN3pcl8tracking21ParticleFilterTrackerINS_11PointNormalENS0_12ParticleXYRPEEC1Ev@Base 1.6
 (optional=templinst)_ZN3pcl8tracking21ParticleFilterTrackerINS_11PointNormalENS0_12ParticleXYRPEEC2Ev@Base 1.6
 (optional=templinst)_ZN3pcl8tracking21ParticleFilterTrackerINS_11PointNormalENS0_12ParticleXYRPEED0Ev@Base 1.6
 (optional=templinst)_ZN3pcl8tracking21ParticleFilterTrackerINS_11PointNormalENS0_12ParticleXYRPEED1Ev@Base 1.6
 (optional=templinst)_ZN3pcl8tracking21ParticleFilterTrackerINS_11PointNormalENS0_12ParticleXYRPEED2Ev@Base 1.6
 (optional=templinst)_ZN3pcl8tracking21ParticleFilterTrackerINS_11PointNormalENS0_12ParticleXYZREE11initComputeEv@Base 1.6
 (optional=templinst)_ZN3pcl8tracking21ParticleFilterTrackerINS_11PointNormalENS0_12ParticleXYZREE12getUseNormalEv@Base 1.6
 (optional=templinst)_ZN3pcl8tracking21ParticleFilterTrackerINS_11PointNormalENS0_12ParticleXYZREE12setUseNormalEb@Base 1.6
 (optional=templinst)_ZN3pcl8tracking21ParticleFilterTrackerINS_11PointNormalENS0_12ParticleXYZREE13genAliasTableERSt6vectorIiSaIiEERS5_IdSaIdEERKN5boost10shared_ptrIKNS_10PointCloudIS3_EEEE@Base 1.6
 (optional=templinst)_ZN3pcl8tracking21ParticleFilterTrackerINS_11PointNormalENS0_12ParticleXYZREE13initParticlesEb@Base 1.6
 (optional=templinst)_ZN3pcl8tracking21ParticleFilterTrackerINS_11PointNormalENS0_12ParticleXYZREE13resetTrackingEv@Base 1.6
 (optional=templinst)_ZN3pcl8tracking21ParticleFilterTrackerINS_11PointNormalENS0_12ParticleXYZREE13setMinIndicesEi@Base 1.6
 (optional=templinst)_ZN3pcl8tracking21ParticleFilterTrackerINS_11PointNormalENS0_12ParticleXYZREE13toEigenMatrixERKS3_@Base 1.6
 (optional=templinst)_ZN3pcl8tracking21ParticleFilterTrackerINS_11PointNormalENS0_12ParticleXYZREE14getMotionRatioEv@Base 1.6
 (optional=templinst)_ZN3pcl8tracking21ParticleFilterTrackerINS_11PointNormalENS0_12ParticleXYZREE14setMotionRatioEd@Base 1.6
 (optional=templinst)_ZN3pcl8tracking21ParticleFilterTrackerINS_11PointNormalENS0_12ParticleXYZREE14setParticleNumEi@Base 1.6
 (optional=templinst)_ZN3pcl8tracking21ParticleFilterTrackerINS_11PointNormalENS0_12ParticleXYZREE15calcBoundingBoxERdS5_S5_S5_S5_S5_@Base 1.6
 (optional=templinst)_ZN3pcl8tracking21ParticleFilterTrackerINS_11PointNormalENS0_12ParticleXYZREE15computeTrackingEv@Base 1.6
 (optional=templinst)_ZN3pcl8tracking21ParticleFilterTrackerINS_11PointNormalENS0_12ParticleXYZREE15normalizeWeightEv@Base 1.6
 (optional=templinst)_ZN3pcl8tracking21ParticleFilterTrackerINS_11PointNormalENS0_12ParticleXYZREE15setIterationNumEi@Base 1.6
 (optional=templinst)_ZN3pcl8tracking21ParticleFilterTrackerINS_11PointNormalENS0_12ParticleXYZREE17getReferenceCloudEv@Base 1.6
 (optional=templinst)_ZN3pcl8tracking21ParticleFilterTrackerINS_11PointNormalENS0_12ParticleXYZREE17setCloudCoherenceERKN5boost10shared_ptrINS0_19PointCloudCoherenceIS2_EEEE@Base 1.6
 (optional=templinst)_ZN3pcl8tracking21ParticleFilterTrackerINS_11PointNormalENS0_12ParticleXYZREE17setReferenceCloudERKN5boost10shared_ptrIKNS_10PointCloudIS2_EEEE@Base 1.6
 (optional=templinst)_ZN3pcl8tracking21ParticleFilterTrackerINS_11PointNormalENS0_12ParticleXYZREE19cropInputPointCloudERKN5boost10shared_ptrIKNS_10PointCloudIS2_EEEERS8_@Base 1.6
 (optional=templinst)_ZN3pcl8tracking21ParticleFilterTrackerINS_11PointNormalENS0_12ParticleXYZREE19setInitialNoiseMeanERKSt6vectorIdSaIdEE@Base 1.6
 (optional=templinst)_ZN3pcl8tracking21ParticleFilterTrackerINS_11PointNormalENS0_12ParticleXYZREE19testChangeDetectionERKN5boost10shared_ptrIKNS_10PointCloudIS2_EEEE@Base 1.6
 (optional=templinst)_ZN3pcl8tracking21ParticleFilterTrackerINS_11PointNormalENS0_12ParticleXYZREE20getUseChangeDetectorEv@Base 1.6
 (optional=templinst)_ZN3pcl8tracking21ParticleFilterTrackerINS_11PointNormalENS0_12ParticleXYZREE20setOcclusionAngleTheEd@Base 1.6
 (optional=templinst)_ZN3pcl8tracking21ParticleFilterTrackerINS_11PointNormalENS0_12ParticleXYZREE20setUseChangeDetectorEb@Base 1.6
 (optional=templinst)_ZN3pcl8tracking21ParticleFilterTrackerINS_11PointNormalENS0_12ParticleXYZREE21sampleWithReplacementERKSt6vectorIiSaIiEERKS5_IdSaIdEE@Base 1.6
 (optional=templinst)_ZN3pcl8tracking21ParticleFilterTrackerINS_11PointNormalENS0_12ParticleXYZREE22setStepNoiseCovarianceERKSt6vectorIdSaIdEE@Base 1.6
 (optional=templinst)_ZN3pcl8tracking21ParticleFilterTrackerINS_11PointNormalENS0_12ParticleXYZREE23normalizeParticleWeightEddd@Base 1.6
 (optional=templinst)_ZN3pcl8tracking21ParticleFilterTrackerINS_11PointNormalENS0_12ParticleXYZREE23resampleWithReplacementEv@Base 1.6
 (optional=templinst)_ZN3pcl8tracking21ParticleFilterTrackerINS_11PointNormalENS0_12ParticleXYZREE24setResampleLikelihoodThrEd@Base 1.6
 (optional=templinst)_ZN3pcl8tracking21ParticleFilterTrackerINS_11PointNormalENS0_12ParticleXYZREE25setInitialNoiseCovarianceERKSt6vectorIdSaIdEE@Base 1.6
 (optional=templinst)_ZN3pcl8tracking21ParticleFilterTrackerINS_11PointNormalENS0_12ParticleXYZREE28computeTransformedPointCloudERKS3_RSt6vectorIiSaIiEERNS_10PointCloudIS2_EE@Base 1.6
 (optional=templinst)_ZN3pcl8tracking21ParticleFilterTrackerINS_11PointNormalENS0_12ParticleXYZREE28getIntervalOfChangeDetectionEv@Base 1.6
 (optional=templinst)_ZN3pcl8tracking21ParticleFilterTrackerINS_11PointNormalENS0_12ParticleXYZREE28setIntervalOfChangeDetectionEj@Base 1.6
 (optional=templinst)_ZN3pcl8tracking21ParticleFilterTrackerINS_11PointNormalENS0_12ParticleXYZREE29getMinPointsOfChangeDetectionEv@Base 1.6
 (optional=templinst)_ZN3pcl8tracking21ParticleFilterTrackerINS_11PointNormalENS0_12ParticleXYZREE29setMinPointsOfChangeDetectionEj@Base 1.6
 (optional=templinst)_ZN3pcl8tracking21ParticleFilterTrackerINS_11PointNormalENS0_12ParticleXYZREE30getResolutionOfChangeDetectionEv@Base 1.6
 (optional=templinst)_ZN3pcl8tracking21ParticleFilterTrackerINS_11PointNormalENS0_12ParticleXYZREE30setResolutionOfChangeDetectionEd@Base 1.6
 (optional=templinst)_ZN3pcl8tracking21ParticleFilterTrackerINS_11PointNormalENS0_12ParticleXYZREE38computeTransformedPointCloudWithNormalERKS3_RSt6vectorIiSaIiEERNS_10PointCloudIS2_EE@Base 1.6
 (optional=templinst)_ZN3pcl8tracking21ParticleFilterTrackerINS_11PointNormalENS0_12ParticleXYZREE41computeTransformedPointCloudWithoutNormalERKS3_RNS_10PointCloudIS2_EE@Base 1.6
 (optional=templinst)_ZN3pcl8tracking21ParticleFilterTrackerINS_11PointNormalENS0_12ParticleXYZREE6updateEv@Base 1.6
 (optional=templinst)_ZN3pcl8tracking21ParticleFilterTrackerINS_11PointNormalENS0_12ParticleXYZREE6weightEv@Base 1.6
 (optional=templinst)_ZN3pcl8tracking21ParticleFilterTrackerINS_11PointNormalENS0_12ParticleXYZREE8getAlphaEv@Base 1.6
 (optional=templinst)_ZN3pcl8tracking21ParticleFilterTrackerINS_11PointNormalENS0_12ParticleXYZREE8resampleEv@Base 1.6
 (optional=templinst)_ZN3pcl8tracking21ParticleFilterTrackerINS_11PointNormalENS0_12ParticleXYZREE8setAlphaEd@Base 1.6
 (optional=templinst)_ZN3pcl8tracking21ParticleFilterTrackerINS_11PointNormalENS0_12ParticleXYZREE8setTransERKN5Eigen9TransformIfLi3ELi2ELi0EEE@Base 1.6
 (optional=templinst)_ZN3pcl8tracking21ParticleFilterTrackerINS_11PointNormalENS0_12ParticleXYZREEC1Ev@Base 1.6
 (optional=templinst)_ZN3pcl8tracking21ParticleFilterTrackerINS_11PointNormalENS0_12ParticleXYZREEC2Ev@Base 1.6
 (optional=templinst)_ZN3pcl8tracking21ParticleFilterTrackerINS_11PointNormalENS0_12ParticleXYZREED0Ev@Base 1.6
 (optional=templinst)_ZN3pcl8tracking21ParticleFilterTrackerINS_11PointNormalENS0_12ParticleXYZREED1Ev@Base 1.6
 (optional=templinst)_ZN3pcl8tracking21ParticleFilterTrackerINS_11PointNormalENS0_12ParticleXYZREED2Ev@Base 1.6
 (optional=templinst)_ZN3pcl8tracking21ParticleFilterTrackerINS_11PointNormalENS0_13ParticleXYRPYEE11initComputeEv@Base 1.6
 (optional=templinst)_ZN3pcl8tracking21ParticleFilterTrackerINS_11PointNormalENS0_13ParticleXYRPYEE12getUseNormalEv@Base 1.6
 (optional=templinst)_ZN3pcl8tracking21ParticleFilterTrackerINS_11PointNormalENS0_13ParticleXYRPYEE12setUseNormalEb@Base 1.6
 (optional=templinst)_ZN3pcl8tracking21ParticleFilterTrackerINS_11PointNormalENS0_13ParticleXYRPYEE13genAliasTableERSt6vectorIiSaIiEERS5_IdSaIdEERKN5boost10shared_ptrIKNS_10PointCloudIS3_EEEE@Base 1.6
 (optional=templinst)_ZN3pcl8tracking21ParticleFilterTrackerINS_11PointNormalENS0_13ParticleXYRPYEE13initParticlesEb@Base 1.6
 (optional=templinst)_ZN3pcl8tracking21ParticleFilterTrackerINS_11PointNormalENS0_13ParticleXYRPYEE13resetTrackingEv@Base 1.6
 (optional=templinst)_ZN3pcl8tracking21ParticleFilterTrackerINS_11PointNormalENS0_13ParticleXYRPYEE13setMinIndicesEi@Base 1.6
 (optional=templinst)_ZN3pcl8tracking21ParticleFilterTrackerINS_11PointNormalENS0_13ParticleXYRPYEE13toEigenMatrixERKS3_@Base 1.6
 (optional=templinst)_ZN3pcl8tracking21ParticleFilterTrackerINS_11PointNormalENS0_13ParticleXYRPYEE14getMotionRatioEv@Base 1.6
 (optional=templinst)_ZN3pcl8tracking21ParticleFilterTrackerINS_11PointNormalENS0_13ParticleXYRPYEE14setMotionRatioEd@Base 1.6
 (optional=templinst)_ZN3pcl8tracking21ParticleFilterTrackerINS_11PointNormalENS0_13ParticleXYRPYEE14setParticleNumEi@Base 1.6
 (optional=templinst)_ZN3pcl8tracking21ParticleFilterTrackerINS_11PointNormalENS0_13ParticleXYRPYEE15calcBoundingBoxERdS5_S5_S5_S5_S5_@Base 1.6
 (optional=templinst)_ZN3pcl8tracking21ParticleFilterTrackerINS_11PointNormalENS0_13ParticleXYRPYEE15computeTrackingEv@Base 1.6
 (optional=templinst)_ZN3pcl8tracking21ParticleFilterTrackerINS_11PointNormalENS0_13ParticleXYRPYEE15normalizeWeightEv@Base 1.6
 (optional=templinst)_ZN3pcl8tracking21ParticleFilterTrackerINS_11PointNormalENS0_13ParticleXYRPYEE15setIterationNumEi@Base 1.6
 (optional=templinst)_ZN3pcl8tracking21ParticleFilterTrackerINS_11PointNormalENS0_13ParticleXYRPYEE17getReferenceCloudEv@Base 1.6
 (optional=templinst)_ZN3pcl8tracking21ParticleFilterTrackerINS_11PointNormalENS0_13ParticleXYRPYEE17setCloudCoherenceERKN5boost10shared_ptrINS0_19PointCloudCoherenceIS2_EEEE@Base 1.6
 (optional=templinst)_ZN3pcl8tracking21ParticleFilterTrackerINS_11PointNormalENS0_13ParticleXYRPYEE17setReferenceCloudERKN5boost10shared_ptrIKNS_10PointCloudIS2_EEEE@Base 1.6
 (optional=templinst)_ZN3pcl8tracking21ParticleFilterTrackerINS_11PointNormalENS0_13ParticleXYRPYEE19cropInputPointCloudERKN5boost10shared_ptrIKNS_10PointCloudIS2_EEEERS8_@Base 1.6
 (optional=templinst)_ZN3pcl8tracking21ParticleFilterTrackerINS_11PointNormalENS0_13ParticleXYRPYEE19setInitialNoiseMeanERKSt6vectorIdSaIdEE@Base 1.6
 (optional=templinst)_ZN3pcl8tracking21ParticleFilterTrackerINS_11PointNormalENS0_13ParticleXYRPYEE19testChangeDetectionERKN5boost10shared_ptrIKNS_10PointCloudIS2_EEEE@Base 1.6
 (optional=templinst)_ZN3pcl8tracking21ParticleFilterTrackerINS_11PointNormalENS0_13ParticleXYRPYEE20getUseChangeDetectorEv@Base 1.6
 (optional=templinst)_ZN3pcl8tracking21ParticleFilterTrackerINS_11PointNormalENS0_13ParticleXYRPYEE20setOcclusionAngleTheEd@Base 1.6
 (optional=templinst)_ZN3pcl8tracking21ParticleFilterTrackerINS_11PointNormalENS0_13ParticleXYRPYEE20setUseChangeDetectorEb@Base 1.6
 (optional=templinst)_ZN3pcl8tracking21ParticleFilterTrackerINS_11PointNormalENS0_13ParticleXYRPYEE21sampleWithReplacementERKSt6vectorIiSaIiEERKS5_IdSaIdEE@Base 1.6
 (optional=templinst)_ZN3pcl8tracking21ParticleFilterTrackerINS_11PointNormalENS0_13ParticleXYRPYEE22setStepNoiseCovarianceERKSt6vectorIdSaIdEE@Base 1.6
 (optional=templinst)_ZN3pcl8tracking21ParticleFilterTrackerINS_11PointNormalENS0_13ParticleXYRPYEE23normalizeParticleWeightEddd@Base 1.6
 (optional=templinst)_ZN3pcl8tracking21ParticleFilterTrackerINS_11PointNormalENS0_13ParticleXYRPYEE23resampleWithReplacementEv@Base 1.6
 (optional=templinst)_ZN3pcl8tracking21ParticleFilterTrackerINS_11PointNormalENS0_13ParticleXYRPYEE24setResampleLikelihoodThrEd@Base 1.6
 (optional=templinst)_ZN3pcl8tracking21ParticleFilterTrackerINS_11PointNormalENS0_13ParticleXYRPYEE25setInitialNoiseCovarianceERKSt6vectorIdSaIdEE@Base 1.6
 (optional=templinst)_ZN3pcl8tracking21ParticleFilterTrackerINS_11PointNormalENS0_13ParticleXYRPYEE28computeTransformedPointCloudERKS3_RSt6vectorIiSaIiEERNS_10PointCloudIS2_EE@Base 1.6
 (optional=templinst)_ZN3pcl8tracking21ParticleFilterTrackerINS_11PointNormalENS0_13ParticleXYRPYEE28getIntervalOfChangeDetectionEv@Base 1.6
 (optional=templinst)_ZN3pcl8tracking21ParticleFilterTrackerINS_11PointNormalENS0_13ParticleXYRPYEE28setIntervalOfChangeDetectionEj@Base 1.6
 (optional=templinst)_ZN3pcl8tracking21ParticleFilterTrackerINS_11PointNormalENS0_13ParticleXYRPYEE29getMinPointsOfChangeDetectionEv@Base 1.6
 (optional=templinst)_ZN3pcl8tracking21ParticleFilterTrackerINS_11PointNormalENS0_13ParticleXYRPYEE29setMinPointsOfChangeDetectionEj@Base 1.6
 (optional=templinst)_ZN3pcl8tracking21ParticleFilterTrackerINS_11PointNormalENS0_13ParticleXYRPYEE30getResolutionOfChangeDetectionEv@Base 1.6
 (optional=templinst)_ZN3pcl8tracking21ParticleFilterTrackerINS_11PointNormalENS0_13ParticleXYRPYEE30setResolutionOfChangeDetectionEd@Base 1.6
 (optional=templinst)_ZN3pcl8tracking21ParticleFilterTrackerINS_11PointNormalENS0_13ParticleXYRPYEE38computeTransformedPointCloudWithNormalERKS3_RSt6vectorIiSaIiEERNS_10PointCloudIS2_EE@Base 1.6
 (optional=templinst)_ZN3pcl8tracking21ParticleFilterTrackerINS_11PointNormalENS0_13ParticleXYRPYEE41computeTransformedPointCloudWithoutNormalERKS3_RNS_10PointCloudIS2_EE@Base 1.6
 (optional=templinst)_ZN3pcl8tracking21ParticleFilterTrackerINS_11PointNormalENS0_13ParticleXYRPYEE6updateEv@Base 1.6
 (optional=templinst)_ZN3pcl8tracking21ParticleFilterTrackerINS_11PointNormalENS0_13ParticleXYRPYEE6weightEv@Base 1.6
 (optional=templinst)_ZN3pcl8tracking21ParticleFilterTrackerINS_11PointNormalENS0_13ParticleXYRPYEE8getAlphaEv@Base 1.6
 (optional=templinst)_ZN3pcl8tracking21ParticleFilterTrackerINS_11PointNormalENS0_13ParticleXYRPYEE8resampleEv@Base 1.6
 (optional=templinst)_ZN3pcl8tracking21ParticleFilterTrackerINS_11PointNormalENS0_13ParticleXYRPYEE8setAlphaEd@Base 1.6
 (optional=templinst)_ZN3pcl8tracking21ParticleFilterTrackerINS_11PointNormalENS0_13ParticleXYRPYEE8setTransERKN5Eigen9TransformIfLi3ELi2ELi0EEE@Base 1.6
 (optional=templinst)_ZN3pcl8tracking21ParticleFilterTrackerINS_11PointNormalENS0_13ParticleXYRPYEEC1Ev@Base 1.6
 (optional=templinst)_ZN3pcl8tracking21ParticleFilterTrackerINS_11PointNormalENS0_13ParticleXYRPYEEC2Ev@Base 1.6
 (optional=templinst)_ZN3pcl8tracking21ParticleFilterTrackerINS_11PointNormalENS0_13ParticleXYRPYEED0Ev@Base 1.6
 (optional=templinst)_ZN3pcl8tracking21ParticleFilterTrackerINS_11PointNormalENS0_13ParticleXYRPYEED1Ev@Base 1.6
 (optional=templinst)_ZN3pcl8tracking21ParticleFilterTrackerINS_11PointNormalENS0_13ParticleXYRPYEED2Ev@Base 1.6
 (optional=templinst)_ZN3pcl8tracking21ParticleFilterTrackerINS_11PointNormalENS0_14ParticleXYZRPYEE11initComputeEv@Base 1.6
 (optional=templinst)_ZN3pcl8tracking21ParticleFilterTrackerINS_11PointNormalENS0_14ParticleXYZRPYEE12getUseNormalEv@Base 1.6
 (optional=templinst)_ZN3pcl8tracking21ParticleFilterTrackerINS_11PointNormalENS0_14ParticleXYZRPYEE12setUseNormalEb@Base 1.6
 (optional=templinst)_ZN3pcl8tracking21ParticleFilterTrackerINS_11PointNormalENS0_14ParticleXYZRPYEE13genAliasTableERSt6vectorIiSaIiEERS5_IdSaIdEERKN5boost10shared_ptrIKNS_10PointCloudIS3_EEEE@Base 1.6
 (optional=templinst)_ZN3pcl8tracking21ParticleFilterTrackerINS_11PointNormalENS0_14ParticleXYZRPYEE13initParticlesEb@Base 1.6
 (optional=templinst)_ZN3pcl8tracking21ParticleFilterTrackerINS_11PointNormalENS0_14ParticleXYZRPYEE13resetTrackingEv@Base 1.6
 (optional=templinst)_ZN3pcl8tracking21ParticleFilterTrackerINS_11PointNormalENS0_14ParticleXYZRPYEE13setMinIndicesEi@Base 1.6
 (optional=templinst)_ZN3pcl8tracking21ParticleFilterTrackerINS_11PointNormalENS0_14ParticleXYZRPYEE13toEigenMatrixERKS3_@Base 1.6
 (optional=templinst)_ZN3pcl8tracking21ParticleFilterTrackerINS_11PointNormalENS0_14ParticleXYZRPYEE14getMotionRatioEv@Base 1.6
 (optional=templinst)_ZN3pcl8tracking21ParticleFilterTrackerINS_11PointNormalENS0_14ParticleXYZRPYEE14setMotionRatioEd@Base 1.6
 (optional=templinst)_ZN3pcl8tracking21ParticleFilterTrackerINS_11PointNormalENS0_14ParticleXYZRPYEE14setParticleNumEi@Base 1.6
 (optional=templinst)_ZN3pcl8tracking21ParticleFilterTrackerINS_11PointNormalENS0_14ParticleXYZRPYEE15calcBoundingBoxERdS5_S5_S5_S5_S5_@Base 1.6
 (optional=templinst)_ZN3pcl8tracking21ParticleFilterTrackerINS_11PointNormalENS0_14ParticleXYZRPYEE15computeTrackingEv@Base 1.6
 (optional=templinst)_ZN3pcl8tracking21ParticleFilterTrackerINS_11PointNormalENS0_14ParticleXYZRPYEE15normalizeWeightEv@Base 1.6
 (optional=templinst)_ZN3pcl8tracking21ParticleFilterTrackerINS_11PointNormalENS0_14ParticleXYZRPYEE15setIterationNumEi@Base 1.6
 (optional=templinst)_ZN3pcl8tracking21ParticleFilterTrackerINS_11PointNormalENS0_14ParticleXYZRPYEE17getReferenceCloudEv@Base 1.6
 (optional=templinst)_ZN3pcl8tracking21ParticleFilterTrackerINS_11PointNormalENS0_14ParticleXYZRPYEE17setCloudCoherenceERKN5boost10shared_ptrINS0_19PointCloudCoherenceIS2_EEEE@Base 1.6
 (optional=templinst)_ZN3pcl8tracking21ParticleFilterTrackerINS_11PointNormalENS0_14ParticleXYZRPYEE17setReferenceCloudERKN5boost10shared_ptrIKNS_10PointCloudIS2_EEEE@Base 1.6
 (optional=templinst)_ZN3pcl8tracking21ParticleFilterTrackerINS_11PointNormalENS0_14ParticleXYZRPYEE19cropInputPointCloudERKN5boost10shared_ptrIKNS_10PointCloudIS2_EEEERS8_@Base 1.6
 (optional=templinst)_ZN3pcl8tracking21ParticleFilterTrackerINS_11PointNormalENS0_14ParticleXYZRPYEE19setInitialNoiseMeanERKSt6vectorIdSaIdEE@Base 1.6
 (optional=templinst)_ZN3pcl8tracking21ParticleFilterTrackerINS_11PointNormalENS0_14ParticleXYZRPYEE19testChangeDetectionERKN5boost10shared_ptrIKNS_10PointCloudIS2_EEEE@Base 1.6
 (optional=templinst)_ZN3pcl8tracking21ParticleFilterTrackerINS_11PointNormalENS0_14ParticleXYZRPYEE20getUseChangeDetectorEv@Base 1.6
 (optional=templinst)_ZN3pcl8tracking21ParticleFilterTrackerINS_11PointNormalENS0_14ParticleXYZRPYEE20setOcclusionAngleTheEd@Base 1.6
 (optional=templinst)_ZN3pcl8tracking21ParticleFilterTrackerINS_11PointNormalENS0_14ParticleXYZRPYEE20setUseChangeDetectorEb@Base 1.6
 (optional=templinst)_ZN3pcl8tracking21ParticleFilterTrackerINS_11PointNormalENS0_14ParticleXYZRPYEE21sampleWithReplacementERKSt6vectorIiSaIiEERKS5_IdSaIdEE@Base 1.6
 (optional=templinst)_ZN3pcl8tracking21ParticleFilterTrackerINS_11PointNormalENS0_14ParticleXYZRPYEE22setStepNoiseCovarianceERKSt6vectorIdSaIdEE@Base 1.6
 (optional=templinst)_ZN3pcl8tracking21ParticleFilterTrackerINS_11PointNormalENS0_14ParticleXYZRPYEE23normalizeParticleWeightEddd@Base 1.6
 (optional=templinst)_ZN3pcl8tracking21ParticleFilterTrackerINS_11PointNormalENS0_14ParticleXYZRPYEE23resampleWithReplacementEv@Base 1.6
 (optional=templinst)_ZN3pcl8tracking21ParticleFilterTrackerINS_11PointNormalENS0_14ParticleXYZRPYEE24setResampleLikelihoodThrEd@Base 1.6
 (optional=templinst)_ZN3pcl8tracking21ParticleFilterTrackerINS_11PointNormalENS0_14ParticleXYZRPYEE25setInitialNoiseCovarianceERKSt6vectorIdSaIdEE@Base 1.6
 (optional=templinst)_ZN3pcl8tracking21ParticleFilterTrackerINS_11PointNormalENS0_14ParticleXYZRPYEE28computeTransformedPointCloudERKS3_RSt6vectorIiSaIiEERNS_10PointCloudIS2_EE@Base 1.6
 (optional=templinst)_ZN3pcl8tracking21ParticleFilterTrackerINS_11PointNormalENS0_14ParticleXYZRPYEE28getIntervalOfChangeDetectionEv@Base 1.6
 (optional=templinst)_ZN3pcl8tracking21ParticleFilterTrackerINS_11PointNormalENS0_14ParticleXYZRPYEE28setIntervalOfChangeDetectionEj@Base 1.6
 (optional=templinst)_ZN3pcl8tracking21ParticleFilterTrackerINS_11PointNormalENS0_14ParticleXYZRPYEE29getMinPointsOfChangeDetectionEv@Base 1.6
 (optional=templinst)_ZN3pcl8tracking21ParticleFilterTrackerINS_11PointNormalENS0_14ParticleXYZRPYEE29setMinPointsOfChangeDetectionEj@Base 1.6
 (optional=templinst)_ZN3pcl8tracking21ParticleFilterTrackerINS_11PointNormalENS0_14ParticleXYZRPYEE30getResolutionOfChangeDetectionEv@Base 1.6
 (optional=templinst)_ZN3pcl8tracking21ParticleFilterTrackerINS_11PointNormalENS0_14ParticleXYZRPYEE30setResolutionOfChangeDetectionEd@Base 1.6
 (optional=templinst)_ZN3pcl8tracking21ParticleFilterTrackerINS_11PointNormalENS0_14ParticleXYZRPYEE38computeTransformedPointCloudWithNormalERKS3_RSt6vectorIiSaIiEERNS_10PointCloudIS2_EE@Base 1.6
 (optional=templinst)_ZN3pcl8tracking21ParticleFilterTrackerINS_11PointNormalENS0_14ParticleXYZRPYEE41computeTransformedPointCloudWithoutNormalERKS3_RNS_10PointCloudIS2_EE@Base 1.6
 (optional=templinst)_ZN3pcl8tracking21ParticleFilterTrackerINS_11PointNormalENS0_14ParticleXYZRPYEE6updateEv@Base 1.6
 (optional=templinst)_ZN3pcl8tracking21ParticleFilterTrackerINS_11PointNormalENS0_14ParticleXYZRPYEE6weightEv@Base 1.6
 (optional=templinst)_ZN3pcl8tracking21ParticleFilterTrackerINS_11PointNormalENS0_14ParticleXYZRPYEE8getAlphaEv@Base 1.6
 (optional=templinst)_ZN3pcl8tracking21ParticleFilterTrackerINS_11PointNormalENS0_14ParticleXYZRPYEE8resampleEv@Base 1.6
 (optional=templinst)_ZN3pcl8tracking21ParticleFilterTrackerINS_11PointNormalENS0_14ParticleXYZRPYEE8setAlphaEd@Base 1.6
 (optional=templinst)_ZN3pcl8tracking21ParticleFilterTrackerINS_11PointNormalENS0_14ParticleXYZRPYEE8setTransERKN5Eigen9TransformIfLi3ELi2ELi0EEE@Base 1.6
 (optional=templinst)_ZN3pcl8tracking21ParticleFilterTrackerINS_11PointNormalENS0_14ParticleXYZRPYEEC1Ev@Base 1.6
 (optional=templinst)_ZN3pcl8tracking21ParticleFilterTrackerINS_11PointNormalENS0_14ParticleXYZRPYEEC2Ev@Base 1.6
 (optional=templinst)_ZN3pcl8tracking21ParticleFilterTrackerINS_11PointNormalENS0_14ParticleXYZRPYEED0Ev@Base 1.6
 (optional=templinst)_ZN3pcl8tracking21ParticleFilterTrackerINS_11PointNormalENS0_14ParticleXYZRPYEED1Ev@Base 1.6
 (optional=templinst)_ZN3pcl8tracking21ParticleFilterTrackerINS_11PointNormalENS0_14ParticleXYZRPYEED2Ev@Base 1.6
 (optional=templinst)_ZN3pcl8tracking21ParticleFilterTrackerINS_11PointXYZRGBENS0_11ParticleXYREE11initComputeEv@Base 1.6
 (optional=templinst)_ZN3pcl8tracking21ParticleFilterTrackerINS_11PointXYZRGBENS0_11ParticleXYREE12getUseNormalEv@Base 1.6
 (optional=templinst)_ZN3pcl8tracking21ParticleFilterTrackerINS_11PointXYZRGBENS0_11ParticleXYREE12setUseNormalEb@Base 1.6
 (optional=templinst)_ZN3pcl8tracking21ParticleFilterTrackerINS_11PointXYZRGBENS0_11ParticleXYREE13genAliasTableERSt6vectorIiSaIiEERS5_IdSaIdEERKN5boost10shared_ptrIKNS_10PointCloudIS3_EEEE@Base 1.6
 (optional=templinst)_ZN3pcl8tracking21ParticleFilterTrackerINS_11PointXYZRGBENS0_11ParticleXYREE13initParticlesEb@Base 1.6
 (optional=templinst)_ZN3pcl8tracking21ParticleFilterTrackerINS_11PointXYZRGBENS0_11ParticleXYREE13resetTrackingEv@Base 1.6
 (optional=templinst)_ZN3pcl8tracking21ParticleFilterTrackerINS_11PointXYZRGBENS0_11ParticleXYREE13setMinIndicesEi@Base 1.6
 (optional=templinst)_ZN3pcl8tracking21ParticleFilterTrackerINS_11PointXYZRGBENS0_11ParticleXYREE13toEigenMatrixERKS3_@Base 1.6
 (optional=templinst)_ZN3pcl8tracking21ParticleFilterTrackerINS_11PointXYZRGBENS0_11ParticleXYREE14getMotionRatioEv@Base 1.6
 (optional=templinst)_ZN3pcl8tracking21ParticleFilterTrackerINS_11PointXYZRGBENS0_11ParticleXYREE14setMotionRatioEd@Base 1.6
 (optional=templinst)_ZN3pcl8tracking21ParticleFilterTrackerINS_11PointXYZRGBENS0_11ParticleXYREE14setParticleNumEi@Base 1.6
 (optional=templinst)_ZN3pcl8tracking21ParticleFilterTrackerINS_11PointXYZRGBENS0_11ParticleXYREE15calcBoundingBoxERdS5_S5_S5_S5_S5_@Base 1.6
 (optional=templinst)_ZN3pcl8tracking21ParticleFilterTrackerINS_11PointXYZRGBENS0_11ParticleXYREE15computeTrackingEv@Base 1.6
 (optional=templinst)_ZN3pcl8tracking21ParticleFilterTrackerINS_11PointXYZRGBENS0_11ParticleXYREE15normalizeWeightEv@Base 1.6
 (optional=templinst)_ZN3pcl8tracking21ParticleFilterTrackerINS_11PointXYZRGBENS0_11ParticleXYREE15setIterationNumEi@Base 1.6
 (optional=templinst)_ZN3pcl8tracking21ParticleFilterTrackerINS_11PointXYZRGBENS0_11ParticleXYREE17getReferenceCloudEv@Base 1.6
 (optional=templinst)_ZN3pcl8tracking21ParticleFilterTrackerINS_11PointXYZRGBENS0_11ParticleXYREE17setCloudCoherenceERKN5boost10shared_ptrINS0_19PointCloudCoherenceIS2_EEEE@Base 1.6
 (optional=templinst)_ZN3pcl8tracking21ParticleFilterTrackerINS_11PointXYZRGBENS0_11ParticleXYREE17setReferenceCloudERKN5boost10shared_ptrIKNS_10PointCloudIS2_EEEE@Base 1.6
 (optional=templinst)_ZN3pcl8tracking21ParticleFilterTrackerINS_11PointXYZRGBENS0_11ParticleXYREE19cropInputPointCloudERKN5boost10shared_ptrIKNS_10PointCloudIS2_EEEERS8_@Base 1.6
 (optional=templinst)_ZN3pcl8tracking21ParticleFilterTrackerINS_11PointXYZRGBENS0_11ParticleXYREE19setInitialNoiseMeanERKSt6vectorIdSaIdEE@Base 1.6
 (optional=templinst)_ZN3pcl8tracking21ParticleFilterTrackerINS_11PointXYZRGBENS0_11ParticleXYREE19testChangeDetectionERKN5boost10shared_ptrIKNS_10PointCloudIS2_EEEE@Base 1.6
 (optional=templinst)_ZN3pcl8tracking21ParticleFilterTrackerINS_11PointXYZRGBENS0_11ParticleXYREE20getUseChangeDetectorEv@Base 1.6
 (optional=templinst)_ZN3pcl8tracking21ParticleFilterTrackerINS_11PointXYZRGBENS0_11ParticleXYREE20setOcclusionAngleTheEd@Base 1.6
 (optional=templinst)_ZN3pcl8tracking21ParticleFilterTrackerINS_11PointXYZRGBENS0_11ParticleXYREE20setUseChangeDetectorEb@Base 1.6
 (optional=templinst)_ZN3pcl8tracking21ParticleFilterTrackerINS_11PointXYZRGBENS0_11ParticleXYREE21sampleWithReplacementERKSt6vectorIiSaIiEERKS5_IdSaIdEE@Base 1.6
 (optional=templinst)_ZN3pcl8tracking21ParticleFilterTrackerINS_11PointXYZRGBENS0_11ParticleXYREE22setStepNoiseCovarianceERKSt6vectorIdSaIdEE@Base 1.6
 (optional=templinst)_ZN3pcl8tracking21ParticleFilterTrackerINS_11PointXYZRGBENS0_11ParticleXYREE23normalizeParticleWeightEddd@Base 1.6
 (optional=templinst)_ZN3pcl8tracking21ParticleFilterTrackerINS_11PointXYZRGBENS0_11ParticleXYREE23resampleWithReplacementEv@Base 1.6
 (optional=templinst)_ZN3pcl8tracking21ParticleFilterTrackerINS_11PointXYZRGBENS0_11ParticleXYREE24setResampleLikelihoodThrEd@Base 1.6
 (optional=templinst)_ZN3pcl8tracking21ParticleFilterTrackerINS_11PointXYZRGBENS0_11ParticleXYREE25setInitialNoiseCovarianceERKSt6vectorIdSaIdEE@Base 1.6
 (optional=templinst)_ZN3pcl8tracking21ParticleFilterTrackerINS_11PointXYZRGBENS0_11ParticleXYREE28computeTransformedPointCloudERKS3_RSt6vectorIiSaIiEERNS_10PointCloudIS2_EE@Base 1.6
 (optional=templinst)_ZN3pcl8tracking21ParticleFilterTrackerINS_11PointXYZRGBENS0_11ParticleXYREE28getIntervalOfChangeDetectionEv@Base 1.6
 (optional=templinst)_ZN3pcl8tracking21ParticleFilterTrackerINS_11PointXYZRGBENS0_11ParticleXYREE28setIntervalOfChangeDetectionEj@Base 1.6
 (optional=templinst)_ZN3pcl8tracking21ParticleFilterTrackerINS_11PointXYZRGBENS0_11ParticleXYREE29getMinPointsOfChangeDetectionEv@Base 1.6
 (optional=templinst)_ZN3pcl8tracking21ParticleFilterTrackerINS_11PointXYZRGBENS0_11ParticleXYREE29setMinPointsOfChangeDetectionEj@Base 1.6
 (optional=templinst)_ZN3pcl8tracking21ParticleFilterTrackerINS_11PointXYZRGBENS0_11ParticleXYREE30getResolutionOfChangeDetectionEv@Base 1.6
 (optional=templinst)_ZN3pcl8tracking21ParticleFilterTrackerINS_11PointXYZRGBENS0_11ParticleXYREE30setResolutionOfChangeDetectionEd@Base 1.6
 (optional=templinst)_ZN3pcl8tracking21ParticleFilterTrackerINS_11PointXYZRGBENS0_11ParticleXYREE38computeTransformedPointCloudWithNormalERKS3_RSt6vectorIiSaIiEERNS_10PointCloudIS2_EE@Base 1.6
 (optional=templinst)_ZN3pcl8tracking21ParticleFilterTrackerINS_11PointXYZRGBENS0_11ParticleXYREE41computeTransformedPointCloudWithoutNormalERKS3_RNS_10PointCloudIS2_EE@Base 1.6
 (optional=templinst)_ZN3pcl8tracking21ParticleFilterTrackerINS_11PointXYZRGBENS0_11ParticleXYREE6updateEv@Base 1.6
 (optional=templinst)_ZN3pcl8tracking21ParticleFilterTrackerINS_11PointXYZRGBENS0_11ParticleXYREE6weightEv@Base 1.6
 (optional=templinst)_ZN3pcl8tracking21ParticleFilterTrackerINS_11PointXYZRGBENS0_11ParticleXYREE8getAlphaEv@Base 1.6
 (optional=templinst)_ZN3pcl8tracking21ParticleFilterTrackerINS_11PointXYZRGBENS0_11ParticleXYREE8resampleEv@Base 1.6
 (optional=templinst)_ZN3pcl8tracking21ParticleFilterTrackerINS_11PointXYZRGBENS0_11ParticleXYREE8setAlphaEd@Base 1.6
 (optional=templinst)_ZN3pcl8tracking21ParticleFilterTrackerINS_11PointXYZRGBENS0_11ParticleXYREE8setTransERKN5Eigen9TransformIfLi3ELi2ELi0EEE@Base 1.6
 (optional=templinst)_ZN3pcl8tracking21ParticleFilterTrackerINS_11PointXYZRGBENS0_11ParticleXYREEC1Ev@Base 1.6
 (optional=templinst)_ZN3pcl8tracking21ParticleFilterTrackerINS_11PointXYZRGBENS0_11ParticleXYREEC2Ev@Base 1.6
 (optional=templinst)_ZN3pcl8tracking21ParticleFilterTrackerINS_11PointXYZRGBENS0_11ParticleXYREED0Ev@Base 1.6
 (optional=templinst)_ZN3pcl8tracking21ParticleFilterTrackerINS_11PointXYZRGBENS0_11ParticleXYREED1Ev@Base 1.6
 (optional=templinst)_ZN3pcl8tracking21ParticleFilterTrackerINS_11PointXYZRGBENS0_11ParticleXYREED2Ev@Base 1.6
 (optional=templinst)_ZN3pcl8tracking21ParticleFilterTrackerINS_11PointXYZRGBENS0_12ParticleXYRPEE11initComputeEv@Base 1.6
 (optional=templinst)_ZN3pcl8tracking21ParticleFilterTrackerINS_11PointXYZRGBENS0_12ParticleXYRPEE12getUseNormalEv@Base 1.6
 (optional=templinst)_ZN3pcl8tracking21ParticleFilterTrackerINS_11PointXYZRGBENS0_12ParticleXYRPEE12setUseNormalEb@Base 1.6
 (optional=templinst)_ZN3pcl8tracking21ParticleFilterTrackerINS_11PointXYZRGBENS0_12ParticleXYRPEE13genAliasTableERSt6vectorIiSaIiEERS5_IdSaIdEERKN5boost10shared_ptrIKNS_10PointCloudIS3_EEEE@Base 1.6
 (optional=templinst)_ZN3pcl8tracking21ParticleFilterTrackerINS_11PointXYZRGBENS0_12ParticleXYRPEE13initParticlesEb@Base 1.6
 (optional=templinst)_ZN3pcl8tracking21ParticleFilterTrackerINS_11PointXYZRGBENS0_12ParticleXYRPEE13resetTrackingEv@Base 1.6
 (optional=templinst)_ZN3pcl8tracking21ParticleFilterTrackerINS_11PointXYZRGBENS0_12ParticleXYRPEE13setMinIndicesEi@Base 1.6
 (optional=templinst)_ZN3pcl8tracking21ParticleFilterTrackerINS_11PointXYZRGBENS0_12ParticleXYRPEE13toEigenMatrixERKS3_@Base 1.6
 (optional=templinst)_ZN3pcl8tracking21ParticleFilterTrackerINS_11PointXYZRGBENS0_12ParticleXYRPEE14getMotionRatioEv@Base 1.6
 (optional=templinst)_ZN3pcl8tracking21ParticleFilterTrackerINS_11PointXYZRGBENS0_12ParticleXYRPEE14setMotionRatioEd@Base 1.6
 (optional=templinst)_ZN3pcl8tracking21ParticleFilterTrackerINS_11PointXYZRGBENS0_12ParticleXYRPEE14setParticleNumEi@Base 1.6
 (optional=templinst)_ZN3pcl8tracking21ParticleFilterTrackerINS_11PointXYZRGBENS0_12ParticleXYRPEE15calcBoundingBoxERdS5_S5_S5_S5_S5_@Base 1.6
 (optional=templinst)_ZN3pcl8tracking21ParticleFilterTrackerINS_11PointXYZRGBENS0_12ParticleXYRPEE15computeTrackingEv@Base 1.6
 (optional=templinst)_ZN3pcl8tracking21ParticleFilterTrackerINS_11PointXYZRGBENS0_12ParticleXYRPEE15normalizeWeightEv@Base 1.6
 (optional=templinst)_ZN3pcl8tracking21ParticleFilterTrackerINS_11PointXYZRGBENS0_12ParticleXYRPEE15setIterationNumEi@Base 1.6
 (optional=templinst)_ZN3pcl8tracking21ParticleFilterTrackerINS_11PointXYZRGBENS0_12ParticleXYRPEE17getReferenceCloudEv@Base 1.6
 (optional=templinst)_ZN3pcl8tracking21ParticleFilterTrackerINS_11PointXYZRGBENS0_12ParticleXYRPEE17setCloudCoherenceERKN5boost10shared_ptrINS0_19PointCloudCoherenceIS2_EEEE@Base 1.6
 (optional=templinst)_ZN3pcl8tracking21ParticleFilterTrackerINS_11PointXYZRGBENS0_12ParticleXYRPEE17setReferenceCloudERKN5boost10shared_ptrIKNS_10PointCloudIS2_EEEE@Base 1.6
 (optional=templinst)_ZN3pcl8tracking21ParticleFilterTrackerINS_11PointXYZRGBENS0_12ParticleXYRPEE19cropInputPointCloudERKN5boost10shared_ptrIKNS_10PointCloudIS2_EEEERS8_@Base 1.6
 (optional=templinst)_ZN3pcl8tracking21ParticleFilterTrackerINS_11PointXYZRGBENS0_12ParticleXYRPEE19setInitialNoiseMeanERKSt6vectorIdSaIdEE@Base 1.6
 (optional=templinst)_ZN3pcl8tracking21ParticleFilterTrackerINS_11PointXYZRGBENS0_12ParticleXYRPEE19testChangeDetectionERKN5boost10shared_ptrIKNS_10PointCloudIS2_EEEE@Base 1.6
 (optional=templinst)_ZN3pcl8tracking21ParticleFilterTrackerINS_11PointXYZRGBENS0_12ParticleXYRPEE20getUseChangeDetectorEv@Base 1.6
 (optional=templinst)_ZN3pcl8tracking21ParticleFilterTrackerINS_11PointXYZRGBENS0_12ParticleXYRPEE20setOcclusionAngleTheEd@Base 1.6
 (optional=templinst)_ZN3pcl8tracking21ParticleFilterTrackerINS_11PointXYZRGBENS0_12ParticleXYRPEE20setUseChangeDetectorEb@Base 1.6
 (optional=templinst)_ZN3pcl8tracking21ParticleFilterTrackerINS_11PointXYZRGBENS0_12ParticleXYRPEE21sampleWithReplacementERKSt6vectorIiSaIiEERKS5_IdSaIdEE@Base 1.6
 (optional=templinst)_ZN3pcl8tracking21ParticleFilterTrackerINS_11PointXYZRGBENS0_12ParticleXYRPEE22setStepNoiseCovarianceERKSt6vectorIdSaIdEE@Base 1.6
 (optional=templinst)_ZN3pcl8tracking21ParticleFilterTrackerINS_11PointXYZRGBENS0_12ParticleXYRPEE23normalizeParticleWeightEddd@Base 1.6
 (optional=templinst)_ZN3pcl8tracking21ParticleFilterTrackerINS_11PointXYZRGBENS0_12ParticleXYRPEE23resampleWithReplacementEv@Base 1.6
 (optional=templinst)_ZN3pcl8tracking21ParticleFilterTrackerINS_11PointXYZRGBENS0_12ParticleXYRPEE24setResampleLikelihoodThrEd@Base 1.6
 (optional=templinst)_ZN3pcl8tracking21ParticleFilterTrackerINS_11PointXYZRGBENS0_12ParticleXYRPEE25setInitialNoiseCovarianceERKSt6vectorIdSaIdEE@Base 1.6
 (optional=templinst)_ZN3pcl8tracking21ParticleFilterTrackerINS_11PointXYZRGBENS0_12ParticleXYRPEE28computeTransformedPointCloudERKS3_RSt6vectorIiSaIiEERNS_10PointCloudIS2_EE@Base 1.6
 (optional=templinst)_ZN3pcl8tracking21ParticleFilterTrackerINS_11PointXYZRGBENS0_12ParticleXYRPEE28getIntervalOfChangeDetectionEv@Base 1.6
 (optional=templinst)_ZN3pcl8tracking21ParticleFilterTrackerINS_11PointXYZRGBENS0_12ParticleXYRPEE28setIntervalOfChangeDetectionEj@Base 1.6
 (optional=templinst)_ZN3pcl8tracking21ParticleFilterTrackerINS_11PointXYZRGBENS0_12ParticleXYRPEE29getMinPointsOfChangeDetectionEv@Base 1.6
 (optional=templinst)_ZN3pcl8tracking21ParticleFilterTrackerINS_11PointXYZRGBENS0_12ParticleXYRPEE29setMinPointsOfChangeDetectionEj@Base 1.6
 (optional=templinst)_ZN3pcl8tracking21ParticleFilterTrackerINS_11PointXYZRGBENS0_12ParticleXYRPEE30getResolutionOfChangeDetectionEv@Base 1.6
 (optional=templinst)_ZN3pcl8tracking21ParticleFilterTrackerINS_11PointXYZRGBENS0_12ParticleXYRPEE30setResolutionOfChangeDetectionEd@Base 1.6
 (optional=templinst)_ZN3pcl8tracking21ParticleFilterTrackerINS_11PointXYZRGBENS0_12ParticleXYRPEE38computeTransformedPointCloudWithNormalERKS3_RSt6vectorIiSaIiEERNS_10PointCloudIS2_EE@Base 1.6
 (optional=templinst)_ZN3pcl8tracking21ParticleFilterTrackerINS_11PointXYZRGBENS0_12ParticleXYRPEE41computeTransformedPointCloudWithoutNormalERKS3_RNS_10PointCloudIS2_EE@Base 1.6
 (optional=templinst)_ZN3pcl8tracking21ParticleFilterTrackerINS_11PointXYZRGBENS0_12ParticleXYRPEE6updateEv@Base 1.6
 (optional=templinst)_ZN3pcl8tracking21ParticleFilterTrackerINS_11PointXYZRGBENS0_12ParticleXYRPEE6weightEv@Base 1.6
 (optional=templinst)_ZN3pcl8tracking21ParticleFilterTrackerINS_11PointXYZRGBENS0_12ParticleXYRPEE8getAlphaEv@Base 1.6
 (optional=templinst)_ZN3pcl8tracking21ParticleFilterTrackerINS_11PointXYZRGBENS0_12ParticleXYRPEE8resampleEv@Base 1.6
 (optional=templinst)_ZN3pcl8tracking21ParticleFilterTrackerINS_11PointXYZRGBENS0_12ParticleXYRPEE8setAlphaEd@Base 1.6
 (optional=templinst)_ZN3pcl8tracking21ParticleFilterTrackerINS_11PointXYZRGBENS0_12ParticleXYRPEE8setTransERKN5Eigen9TransformIfLi3ELi2ELi0EEE@Base 1.6
 (optional=templinst)_ZN3pcl8tracking21ParticleFilterTrackerINS_11PointXYZRGBENS0_12ParticleXYRPEEC1Ev@Base 1.6
 (optional=templinst)_ZN3pcl8tracking21ParticleFilterTrackerINS_11PointXYZRGBENS0_12ParticleXYRPEEC2Ev@Base 1.6
 (optional=templinst)_ZN3pcl8tracking21ParticleFilterTrackerINS_11PointXYZRGBENS0_12ParticleXYRPEED0Ev@Base 1.6
 (optional=templinst)_ZN3pcl8tracking21ParticleFilterTrackerINS_11PointXYZRGBENS0_12ParticleXYRPEED1Ev@Base 1.6
 (optional=templinst)_ZN3pcl8tracking21ParticleFilterTrackerINS_11PointXYZRGBENS0_12ParticleXYRPEED2Ev@Base 1.6
 (optional=templinst)_ZN3pcl8tracking21ParticleFilterTrackerINS_11PointXYZRGBENS0_12ParticleXYZREE11initComputeEv@Base 1.6
 (optional=templinst)_ZN3pcl8tracking21ParticleFilterTrackerINS_11PointXYZRGBENS0_12ParticleXYZREE12getUseNormalEv@Base 1.6
 (optional=templinst)_ZN3pcl8tracking21ParticleFilterTrackerINS_11PointXYZRGBENS0_12ParticleXYZREE12setUseNormalEb@Base 1.6
 (optional=templinst)_ZN3pcl8tracking21ParticleFilterTrackerINS_11PointXYZRGBENS0_12ParticleXYZREE13genAliasTableERSt6vectorIiSaIiEERS5_IdSaIdEERKN5boost10shared_ptrIKNS_10PointCloudIS3_EEEE@Base 1.6
 (optional=templinst)_ZN3pcl8tracking21ParticleFilterTrackerINS_11PointXYZRGBENS0_12ParticleXYZREE13initParticlesEb@Base 1.6
 (optional=templinst)_ZN3pcl8tracking21ParticleFilterTrackerINS_11PointXYZRGBENS0_12ParticleXYZREE13resetTrackingEv@Base 1.6
 (optional=templinst)_ZN3pcl8tracking21ParticleFilterTrackerINS_11PointXYZRGBENS0_12ParticleXYZREE13setMinIndicesEi@Base 1.6
 (optional=templinst)_ZN3pcl8tracking21ParticleFilterTrackerINS_11PointXYZRGBENS0_12ParticleXYZREE13toEigenMatrixERKS3_@Base 1.6
 (optional=templinst)_ZN3pcl8tracking21ParticleFilterTrackerINS_11PointXYZRGBENS0_12ParticleXYZREE14getMotionRatioEv@Base 1.6
 (optional=templinst)_ZN3pcl8tracking21ParticleFilterTrackerINS_11PointXYZRGBENS0_12ParticleXYZREE14setMotionRatioEd@Base 1.6
 (optional=templinst)_ZN3pcl8tracking21ParticleFilterTrackerINS_11PointXYZRGBENS0_12ParticleXYZREE14setParticleNumEi@Base 1.6
 (optional=templinst)_ZN3pcl8tracking21ParticleFilterTrackerINS_11PointXYZRGBENS0_12ParticleXYZREE15calcBoundingBoxERdS5_S5_S5_S5_S5_@Base 1.6
 (optional=templinst)_ZN3pcl8tracking21ParticleFilterTrackerINS_11PointXYZRGBENS0_12ParticleXYZREE15computeTrackingEv@Base 1.6
 (optional=templinst)_ZN3pcl8tracking21ParticleFilterTrackerINS_11PointXYZRGBENS0_12ParticleXYZREE15normalizeWeightEv@Base 1.6
 (optional=templinst)_ZN3pcl8tracking21ParticleFilterTrackerINS_11PointXYZRGBENS0_12ParticleXYZREE15setIterationNumEi@Base 1.6
 (optional=templinst)_ZN3pcl8tracking21ParticleFilterTrackerINS_11PointXYZRGBENS0_12ParticleXYZREE17getReferenceCloudEv@Base 1.6
 (optional=templinst)_ZN3pcl8tracking21ParticleFilterTrackerINS_11PointXYZRGBENS0_12ParticleXYZREE17setCloudCoherenceERKN5boost10shared_ptrINS0_19PointCloudCoherenceIS2_EEEE@Base 1.6
 (optional=templinst)_ZN3pcl8tracking21ParticleFilterTrackerINS_11PointXYZRGBENS0_12ParticleXYZREE17setReferenceCloudERKN5boost10shared_ptrIKNS_10PointCloudIS2_EEEE@Base 1.6
 (optional=templinst)_ZN3pcl8tracking21ParticleFilterTrackerINS_11PointXYZRGBENS0_12ParticleXYZREE19cropInputPointCloudERKN5boost10shared_ptrIKNS_10PointCloudIS2_EEEERS8_@Base 1.6
 (optional=templinst)_ZN3pcl8tracking21ParticleFilterTrackerINS_11PointXYZRGBENS0_12ParticleXYZREE19setInitialNoiseMeanERKSt6vectorIdSaIdEE@Base 1.6
 (optional=templinst)_ZN3pcl8tracking21ParticleFilterTrackerINS_11PointXYZRGBENS0_12ParticleXYZREE19testChangeDetectionERKN5boost10shared_ptrIKNS_10PointCloudIS2_EEEE@Base 1.6
 (optional=templinst)_ZN3pcl8tracking21ParticleFilterTrackerINS_11PointXYZRGBENS0_12ParticleXYZREE20getUseChangeDetectorEv@Base 1.6
 (optional=templinst)_ZN3pcl8tracking21ParticleFilterTrackerINS_11PointXYZRGBENS0_12ParticleXYZREE20setOcclusionAngleTheEd@Base 1.6
 (optional=templinst)_ZN3pcl8tracking21ParticleFilterTrackerINS_11PointXYZRGBENS0_12ParticleXYZREE20setUseChangeDetectorEb@Base 1.6
 (optional=templinst)_ZN3pcl8tracking21ParticleFilterTrackerINS_11PointXYZRGBENS0_12ParticleXYZREE21sampleWithReplacementERKSt6vectorIiSaIiEERKS5_IdSaIdEE@Base 1.6
 (optional=templinst)_ZN3pcl8tracking21ParticleFilterTrackerINS_11PointXYZRGBENS0_12ParticleXYZREE22setStepNoiseCovarianceERKSt6vectorIdSaIdEE@Base 1.6
 (optional=templinst)_ZN3pcl8tracking21ParticleFilterTrackerINS_11PointXYZRGBENS0_12ParticleXYZREE23normalizeParticleWeightEddd@Base 1.6
 (optional=templinst)_ZN3pcl8tracking21ParticleFilterTrackerINS_11PointXYZRGBENS0_12ParticleXYZREE23resampleWithReplacementEv@Base 1.6
 (optional=templinst)_ZN3pcl8tracking21ParticleFilterTrackerINS_11PointXYZRGBENS0_12ParticleXYZREE24setResampleLikelihoodThrEd@Base 1.6
 (optional=templinst)_ZN3pcl8tracking21ParticleFilterTrackerINS_11PointXYZRGBENS0_12ParticleXYZREE25setInitialNoiseCovarianceERKSt6vectorIdSaIdEE@Base 1.6
 (optional=templinst)_ZN3pcl8tracking21ParticleFilterTrackerINS_11PointXYZRGBENS0_12ParticleXYZREE28computeTransformedPointCloudERKS3_RSt6vectorIiSaIiEERNS_10PointCloudIS2_EE@Base 1.6
 (optional=templinst)_ZN3pcl8tracking21ParticleFilterTrackerINS_11PointXYZRGBENS0_12ParticleXYZREE28getIntervalOfChangeDetectionEv@Base 1.6
 (optional=templinst)_ZN3pcl8tracking21ParticleFilterTrackerINS_11PointXYZRGBENS0_12ParticleXYZREE28setIntervalOfChangeDetectionEj@Base 1.6
 (optional=templinst)_ZN3pcl8tracking21ParticleFilterTrackerINS_11PointXYZRGBENS0_12ParticleXYZREE29getMinPointsOfChangeDetectionEv@Base 1.6
 (optional=templinst)_ZN3pcl8tracking21ParticleFilterTrackerINS_11PointXYZRGBENS0_12ParticleXYZREE29setMinPointsOfChangeDetectionEj@Base 1.6
 (optional=templinst)_ZN3pcl8tracking21ParticleFilterTrackerINS_11PointXYZRGBENS0_12ParticleXYZREE30getResolutionOfChangeDetectionEv@Base 1.6
 (optional=templinst)_ZN3pcl8tracking21ParticleFilterTrackerINS_11PointXYZRGBENS0_12ParticleXYZREE30setResolutionOfChangeDetectionEd@Base 1.6
 (optional=templinst)_ZN3pcl8tracking21ParticleFilterTrackerINS_11PointXYZRGBENS0_12ParticleXYZREE38computeTransformedPointCloudWithNormalERKS3_RSt6vectorIiSaIiEERNS_10PointCloudIS2_EE@Base 1.6
 (optional=templinst)_ZN3pcl8tracking21ParticleFilterTrackerINS_11PointXYZRGBENS0_12ParticleXYZREE41computeTransformedPointCloudWithoutNormalERKS3_RNS_10PointCloudIS2_EE@Base 1.6
 (optional=templinst)_ZN3pcl8tracking21ParticleFilterTrackerINS_11PointXYZRGBENS0_12ParticleXYZREE6updateEv@Base 1.6
 (optional=templinst)_ZN3pcl8tracking21ParticleFilterTrackerINS_11PointXYZRGBENS0_12ParticleXYZREE6weightEv@Base 1.6
 (optional=templinst)_ZN3pcl8tracking21ParticleFilterTrackerINS_11PointXYZRGBENS0_12ParticleXYZREE8getAlphaEv@Base 1.6
 (optional=templinst)_ZN3pcl8tracking21ParticleFilterTrackerINS_11PointXYZRGBENS0_12ParticleXYZREE8resampleEv@Base 1.6
 (optional=templinst)_ZN3pcl8tracking21ParticleFilterTrackerINS_11PointXYZRGBENS0_12ParticleXYZREE8setAlphaEd@Base 1.6
 (optional=templinst)_ZN3pcl8tracking21ParticleFilterTrackerINS_11PointXYZRGBENS0_12ParticleXYZREE8setTransERKN5Eigen9TransformIfLi3ELi2ELi0EEE@Base 1.6
 (optional=templinst)_ZN3pcl8tracking21ParticleFilterTrackerINS_11PointXYZRGBENS0_12ParticleXYZREEC1Ev@Base 1.6
 (optional=templinst)_ZN3pcl8tracking21ParticleFilterTrackerINS_11PointXYZRGBENS0_12ParticleXYZREEC2Ev@Base 1.6
 (optional=templinst)_ZN3pcl8tracking21ParticleFilterTrackerINS_11PointXYZRGBENS0_12ParticleXYZREED0Ev@Base 1.6
 (optional=templinst)_ZN3pcl8tracking21ParticleFilterTrackerINS_11PointXYZRGBENS0_12ParticleXYZREED1Ev@Base 1.6
 (optional=templinst)_ZN3pcl8tracking21ParticleFilterTrackerINS_11PointXYZRGBENS0_12ParticleXYZREED2Ev@Base 1.6
 (optional=templinst)_ZN3pcl8tracking21ParticleFilterTrackerINS_11PointXYZRGBENS0_13ParticleXYRPYEE11initComputeEv@Base 1.6
 (optional=templinst)_ZN3pcl8tracking21ParticleFilterTrackerINS_11PointXYZRGBENS0_13ParticleXYRPYEE12getUseNormalEv@Base 1.6
 (optional=templinst)_ZN3pcl8tracking21ParticleFilterTrackerINS_11PointXYZRGBENS0_13ParticleXYRPYEE12setUseNormalEb@Base 1.6
 (optional=templinst)_ZN3pcl8tracking21ParticleFilterTrackerINS_11PointXYZRGBENS0_13ParticleXYRPYEE13genAliasTableERSt6vectorIiSaIiEERS5_IdSaIdEERKN5boost10shared_ptrIKNS_10PointCloudIS3_EEEE@Base 1.6
 (optional=templinst)_ZN3pcl8tracking21ParticleFilterTrackerINS_11PointXYZRGBENS0_13ParticleXYRPYEE13initParticlesEb@Base 1.6
 (optional=templinst)_ZN3pcl8tracking21ParticleFilterTrackerINS_11PointXYZRGBENS0_13ParticleXYRPYEE13resetTrackingEv@Base 1.6
 (optional=templinst)_ZN3pcl8tracking21ParticleFilterTrackerINS_11PointXYZRGBENS0_13ParticleXYRPYEE13setMinIndicesEi@Base 1.6
 (optional=templinst)_ZN3pcl8tracking21ParticleFilterTrackerINS_11PointXYZRGBENS0_13ParticleXYRPYEE13toEigenMatrixERKS3_@Base 1.6
 (optional=templinst)_ZN3pcl8tracking21ParticleFilterTrackerINS_11PointXYZRGBENS0_13ParticleXYRPYEE14getMotionRatioEv@Base 1.6
 (optional=templinst)_ZN3pcl8tracking21ParticleFilterTrackerINS_11PointXYZRGBENS0_13ParticleXYRPYEE14setMotionRatioEd@Base 1.6
 (optional=templinst)_ZN3pcl8tracking21ParticleFilterTrackerINS_11PointXYZRGBENS0_13ParticleXYRPYEE14setParticleNumEi@Base 1.6
 (optional=templinst)_ZN3pcl8tracking21ParticleFilterTrackerINS_11PointXYZRGBENS0_13ParticleXYRPYEE15calcBoundingBoxERdS5_S5_S5_S5_S5_@Base 1.6
 (optional=templinst)_ZN3pcl8tracking21ParticleFilterTrackerINS_11PointXYZRGBENS0_13ParticleXYRPYEE15computeTrackingEv@Base 1.6
 (optional=templinst)_ZN3pcl8tracking21ParticleFilterTrackerINS_11PointXYZRGBENS0_13ParticleXYRPYEE15normalizeWeightEv@Base 1.6
 (optional=templinst)_ZN3pcl8tracking21ParticleFilterTrackerINS_11PointXYZRGBENS0_13ParticleXYRPYEE15setIterationNumEi@Base 1.6
 (optional=templinst)_ZN3pcl8tracking21ParticleFilterTrackerINS_11PointXYZRGBENS0_13ParticleXYRPYEE17getReferenceCloudEv@Base 1.6
 (optional=templinst)_ZN3pcl8tracking21ParticleFilterTrackerINS_11PointXYZRGBENS0_13ParticleXYRPYEE17setCloudCoherenceERKN5boost10shared_ptrINS0_19PointCloudCoherenceIS2_EEEE@Base 1.6
 (optional=templinst)_ZN3pcl8tracking21ParticleFilterTrackerINS_11PointXYZRGBENS0_13ParticleXYRPYEE17setReferenceCloudERKN5boost10shared_ptrIKNS_10PointCloudIS2_EEEE@Base 1.6
 (optional=templinst)_ZN3pcl8tracking21ParticleFilterTrackerINS_11PointXYZRGBENS0_13ParticleXYRPYEE19cropInputPointCloudERKN5boost10shared_ptrIKNS_10PointCloudIS2_EEEERS8_@Base 1.6
 (optional=templinst)_ZN3pcl8tracking21ParticleFilterTrackerINS_11PointXYZRGBENS0_13ParticleXYRPYEE19setInitialNoiseMeanERKSt6vectorIdSaIdEE@Base 1.6
 (optional=templinst)_ZN3pcl8tracking21ParticleFilterTrackerINS_11PointXYZRGBENS0_13ParticleXYRPYEE19testChangeDetectionERKN5boost10shared_ptrIKNS_10PointCloudIS2_EEEE@Base 1.6
 (optional=templinst)_ZN3pcl8tracking21ParticleFilterTrackerINS_11PointXYZRGBENS0_13ParticleXYRPYEE20getUseChangeDetectorEv@Base 1.6
 (optional=templinst)_ZN3pcl8tracking21ParticleFilterTrackerINS_11PointXYZRGBENS0_13ParticleXYRPYEE20setOcclusionAngleTheEd@Base 1.6
 (optional=templinst)_ZN3pcl8tracking21ParticleFilterTrackerINS_11PointXYZRGBENS0_13ParticleXYRPYEE20setUseChangeDetectorEb@Base 1.6
 (optional=templinst)_ZN3pcl8tracking21ParticleFilterTrackerINS_11PointXYZRGBENS0_13ParticleXYRPYEE21sampleWithReplacementERKSt6vectorIiSaIiEERKS5_IdSaIdEE@Base 1.6
 (optional=templinst)_ZN3pcl8tracking21ParticleFilterTrackerINS_11PointXYZRGBENS0_13ParticleXYRPYEE22setStepNoiseCovarianceERKSt6vectorIdSaIdEE@Base 1.6
 (optional=templinst)_ZN3pcl8tracking21ParticleFilterTrackerINS_11PointXYZRGBENS0_13ParticleXYRPYEE23normalizeParticleWeightEddd@Base 1.6
 (optional=templinst)_ZN3pcl8tracking21ParticleFilterTrackerINS_11PointXYZRGBENS0_13ParticleXYRPYEE23resampleWithReplacementEv@Base 1.6
 (optional=templinst)_ZN3pcl8tracking21ParticleFilterTrackerINS_11PointXYZRGBENS0_13ParticleXYRPYEE24setResampleLikelihoodThrEd@Base 1.6
 (optional=templinst)_ZN3pcl8tracking21ParticleFilterTrackerINS_11PointXYZRGBENS0_13ParticleXYRPYEE25setInitialNoiseCovarianceERKSt6vectorIdSaIdEE@Base 1.6
 (optional=templinst)_ZN3pcl8tracking21ParticleFilterTrackerINS_11PointXYZRGBENS0_13ParticleXYRPYEE28computeTransformedPointCloudERKS3_RSt6vectorIiSaIiEERNS_10PointCloudIS2_EE@Base 1.6
 (optional=templinst)_ZN3pcl8tracking21ParticleFilterTrackerINS_11PointXYZRGBENS0_13ParticleXYRPYEE28getIntervalOfChangeDetectionEv@Base 1.6
 (optional=templinst)_ZN3pcl8tracking21ParticleFilterTrackerINS_11PointXYZRGBENS0_13ParticleXYRPYEE28setIntervalOfChangeDetectionEj@Base 1.6
 (optional=templinst)_ZN3pcl8tracking21ParticleFilterTrackerINS_11PointXYZRGBENS0_13ParticleXYRPYEE29getMinPointsOfChangeDetectionEv@Base 1.6
 (optional=templinst)_ZN3pcl8tracking21ParticleFilterTrackerINS_11PointXYZRGBENS0_13ParticleXYRPYEE29setMinPointsOfChangeDetectionEj@Base 1.6
 (optional=templinst)_ZN3pcl8tracking21ParticleFilterTrackerINS_11PointXYZRGBENS0_13ParticleXYRPYEE30getResolutionOfChangeDetectionEv@Base 1.6
 (optional=templinst)_ZN3pcl8tracking21ParticleFilterTrackerINS_11PointXYZRGBENS0_13ParticleXYRPYEE30setResolutionOfChangeDetectionEd@Base 1.6
 (optional=templinst)_ZN3pcl8tracking21ParticleFilterTrackerINS_11PointXYZRGBENS0_13ParticleXYRPYEE38computeTransformedPointCloudWithNormalERKS3_RSt6vectorIiSaIiEERNS_10PointCloudIS2_EE@Base 1.6
 (optional=templinst)_ZN3pcl8tracking21ParticleFilterTrackerINS_11PointXYZRGBENS0_13ParticleXYRPYEE41computeTransformedPointCloudWithoutNormalERKS3_RNS_10PointCloudIS2_EE@Base 1.6
 (optional=templinst)_ZN3pcl8tracking21ParticleFilterTrackerINS_11PointXYZRGBENS0_13ParticleXYRPYEE6updateEv@Base 1.6
 (optional=templinst)_ZN3pcl8tracking21ParticleFilterTrackerINS_11PointXYZRGBENS0_13ParticleXYRPYEE6weightEv@Base 1.6
 (optional=templinst)_ZN3pcl8tracking21ParticleFilterTrackerINS_11PointXYZRGBENS0_13ParticleXYRPYEE8getAlphaEv@Base 1.6
 (optional=templinst)_ZN3pcl8tracking21ParticleFilterTrackerINS_11PointXYZRGBENS0_13ParticleXYRPYEE8resampleEv@Base 1.6
 (optional=templinst)_ZN3pcl8tracking21ParticleFilterTrackerINS_11PointXYZRGBENS0_13ParticleXYRPYEE8setAlphaEd@Base 1.6
 (optional=templinst)_ZN3pcl8tracking21ParticleFilterTrackerINS_11PointXYZRGBENS0_13ParticleXYRPYEE8setTransERKN5Eigen9TransformIfLi3ELi2ELi0EEE@Base 1.6
 (optional=templinst)_ZN3pcl8tracking21ParticleFilterTrackerINS_11PointXYZRGBENS0_13ParticleXYRPYEEC1Ev@Base 1.6
 (optional=templinst)_ZN3pcl8tracking21ParticleFilterTrackerINS_11PointXYZRGBENS0_13ParticleXYRPYEEC2Ev@Base 1.6
 (optional=templinst)_ZN3pcl8tracking21ParticleFilterTrackerINS_11PointXYZRGBENS0_13ParticleXYRPYEED0Ev@Base 1.6
 (optional=templinst)_ZN3pcl8tracking21ParticleFilterTrackerINS_11PointXYZRGBENS0_13ParticleXYRPYEED1Ev@Base 1.6
 (optional=templinst)_ZN3pcl8tracking21ParticleFilterTrackerINS_11PointXYZRGBENS0_13ParticleXYRPYEED2Ev@Base 1.6
 (optional=templinst)_ZN3pcl8tracking21ParticleFilterTrackerINS_11PointXYZRGBENS0_14ParticleXYZRPYEE11initComputeEv@Base 1.6
 (optional=templinst)_ZN3pcl8tracking21ParticleFilterTrackerINS_11PointXYZRGBENS0_14ParticleXYZRPYEE12getUseNormalEv@Base 1.6
 (optional=templinst)_ZN3pcl8tracking21ParticleFilterTrackerINS_11PointXYZRGBENS0_14ParticleXYZRPYEE12setUseNormalEb@Base 1.6
 (optional=templinst)_ZN3pcl8tracking21ParticleFilterTrackerINS_11PointXYZRGBENS0_14ParticleXYZRPYEE13genAliasTableERSt6vectorIiSaIiEERS5_IdSaIdEERKN5boost10shared_ptrIKNS_10PointCloudIS3_EEEE@Base 1.6
 (optional=templinst)_ZN3pcl8tracking21ParticleFilterTrackerINS_11PointXYZRGBENS0_14ParticleXYZRPYEE13initParticlesEb@Base 1.6
 (optional=templinst)_ZN3pcl8tracking21ParticleFilterTrackerINS_11PointXYZRGBENS0_14ParticleXYZRPYEE13resetTrackingEv@Base 1.6
 (optional=templinst)_ZN3pcl8tracking21ParticleFilterTrackerINS_11PointXYZRGBENS0_14ParticleXYZRPYEE13setMinIndicesEi@Base 1.6
 (optional=templinst)_ZN3pcl8tracking21ParticleFilterTrackerINS_11PointXYZRGBENS0_14ParticleXYZRPYEE13toEigenMatrixERKS3_@Base 1.6
 (optional=templinst)_ZN3pcl8tracking21ParticleFilterTrackerINS_11PointXYZRGBENS0_14ParticleXYZRPYEE14getMotionRatioEv@Base 1.6
 (optional=templinst)_ZN3pcl8tracking21ParticleFilterTrackerINS_11PointXYZRGBENS0_14ParticleXYZRPYEE14setMotionRatioEd@Base 1.6
 (optional=templinst)_ZN3pcl8tracking21ParticleFilterTrackerINS_11PointXYZRGBENS0_14ParticleXYZRPYEE14setParticleNumEi@Base 1.6
 (optional=templinst)_ZN3pcl8tracking21ParticleFilterTrackerINS_11PointXYZRGBENS0_14ParticleXYZRPYEE15calcBoundingBoxERdS5_S5_S5_S5_S5_@Base 1.6
 (optional=templinst)_ZN3pcl8tracking21ParticleFilterTrackerINS_11PointXYZRGBENS0_14ParticleXYZRPYEE15computeTrackingEv@Base 1.6
 (optional=templinst)_ZN3pcl8tracking21ParticleFilterTrackerINS_11PointXYZRGBENS0_14ParticleXYZRPYEE15normalizeWeightEv@Base 1.6
 (optional=templinst)_ZN3pcl8tracking21ParticleFilterTrackerINS_11PointXYZRGBENS0_14ParticleXYZRPYEE15setIterationNumEi@Base 1.6
 (optional=templinst)_ZN3pcl8tracking21ParticleFilterTrackerINS_11PointXYZRGBENS0_14ParticleXYZRPYEE17getReferenceCloudEv@Base 1.6
 (optional=templinst)_ZN3pcl8tracking21ParticleFilterTrackerINS_11PointXYZRGBENS0_14ParticleXYZRPYEE17setCloudCoherenceERKN5boost10shared_ptrINS0_19PointCloudCoherenceIS2_EEEE@Base 1.6
 (optional=templinst)_ZN3pcl8tracking21ParticleFilterTrackerINS_11PointXYZRGBENS0_14ParticleXYZRPYEE17setReferenceCloudERKN5boost10shared_ptrIKNS_10PointCloudIS2_EEEE@Base 1.6
 (optional=templinst)_ZN3pcl8tracking21ParticleFilterTrackerINS_11PointXYZRGBENS0_14ParticleXYZRPYEE19cropInputPointCloudERKN5boost10shared_ptrIKNS_10PointCloudIS2_EEEERS8_@Base 1.6
 (optional=templinst)_ZN3pcl8tracking21ParticleFilterTrackerINS_11PointXYZRGBENS0_14ParticleXYZRPYEE19setInitialNoiseMeanERKSt6vectorIdSaIdEE@Base 1.6
 (optional=templinst)_ZN3pcl8tracking21ParticleFilterTrackerINS_11PointXYZRGBENS0_14ParticleXYZRPYEE19testChangeDetectionERKN5boost10shared_ptrIKNS_10PointCloudIS2_EEEE@Base 1.6
 (optional=templinst)_ZN3pcl8tracking21ParticleFilterTrackerINS_11PointXYZRGBENS0_14ParticleXYZRPYEE20getUseChangeDetectorEv@Base 1.6
 (optional=templinst)_ZN3pcl8tracking21ParticleFilterTrackerINS_11PointXYZRGBENS0_14ParticleXYZRPYEE20setOcclusionAngleTheEd@Base 1.6
 (optional=templinst)_ZN3pcl8tracking21ParticleFilterTrackerINS_11PointXYZRGBENS0_14ParticleXYZRPYEE20setUseChangeDetectorEb@Base 1.6
 (optional=templinst)_ZN3pcl8tracking21ParticleFilterTrackerINS_11PointXYZRGBENS0_14ParticleXYZRPYEE21sampleWithReplacementERKSt6vectorIiSaIiEERKS5_IdSaIdEE@Base 1.6
 (optional=templinst)_ZN3pcl8tracking21ParticleFilterTrackerINS_11PointXYZRGBENS0_14ParticleXYZRPYEE22setStepNoiseCovarianceERKSt6vectorIdSaIdEE@Base 1.6
 (optional=templinst)_ZN3pcl8tracking21ParticleFilterTrackerINS_11PointXYZRGBENS0_14ParticleXYZRPYEE23normalizeParticleWeightEddd@Base 1.6
 (optional=templinst)_ZN3pcl8tracking21ParticleFilterTrackerINS_11PointXYZRGBENS0_14ParticleXYZRPYEE23resampleWithReplacementEv@Base 1.6
 (optional=templinst)_ZN3pcl8tracking21ParticleFilterTrackerINS_11PointXYZRGBENS0_14ParticleXYZRPYEE24setResampleLikelihoodThrEd@Base 1.6
 (optional=templinst)_ZN3pcl8tracking21ParticleFilterTrackerINS_11PointXYZRGBENS0_14ParticleXYZRPYEE25setInitialNoiseCovarianceERKSt6vectorIdSaIdEE@Base 1.6
 (optional=templinst)_ZN3pcl8tracking21ParticleFilterTrackerINS_11PointXYZRGBENS0_14ParticleXYZRPYEE28computeTransformedPointCloudERKS3_RSt6vectorIiSaIiEERNS_10PointCloudIS2_EE@Base 1.6
 (optional=templinst)_ZN3pcl8tracking21ParticleFilterTrackerINS_11PointXYZRGBENS0_14ParticleXYZRPYEE28getIntervalOfChangeDetectionEv@Base 1.6
 (optional=templinst)_ZN3pcl8tracking21ParticleFilterTrackerINS_11PointXYZRGBENS0_14ParticleXYZRPYEE28setIntervalOfChangeDetectionEj@Base 1.6
 (optional=templinst)_ZN3pcl8tracking21ParticleFilterTrackerINS_11PointXYZRGBENS0_14ParticleXYZRPYEE29getMinPointsOfChangeDetectionEv@Base 1.6
 (optional=templinst)_ZN3pcl8tracking21ParticleFilterTrackerINS_11PointXYZRGBENS0_14ParticleXYZRPYEE29setMinPointsOfChangeDetectionEj@Base 1.6
 (optional=templinst)_ZN3pcl8tracking21ParticleFilterTrackerINS_11PointXYZRGBENS0_14ParticleXYZRPYEE30getResolutionOfChangeDetectionEv@Base 1.6
 (optional=templinst)_ZN3pcl8tracking21ParticleFilterTrackerINS_11PointXYZRGBENS0_14ParticleXYZRPYEE30setResolutionOfChangeDetectionEd@Base 1.6
 (optional=templinst)_ZN3pcl8tracking21ParticleFilterTrackerINS_11PointXYZRGBENS0_14ParticleXYZRPYEE38computeTransformedPointCloudWithNormalERKS3_RSt6vectorIiSaIiEERNS_10PointCloudIS2_EE@Base 1.6
 (optional=templinst)_ZN3pcl8tracking21ParticleFilterTrackerINS_11PointXYZRGBENS0_14ParticleXYZRPYEE41computeTransformedPointCloudWithoutNormalERKS3_RNS_10PointCloudIS2_EE@Base 1.6
 (optional=templinst)_ZN3pcl8tracking21ParticleFilterTrackerINS_11PointXYZRGBENS0_14ParticleXYZRPYEE6updateEv@Base 1.6
 (optional=templinst)_ZN3pcl8tracking21ParticleFilterTrackerINS_11PointXYZRGBENS0_14ParticleXYZRPYEE6weightEv@Base 1.6
 (optional=templinst)_ZN3pcl8tracking21ParticleFilterTrackerINS_11PointXYZRGBENS0_14ParticleXYZRPYEE8getAlphaEv@Base 1.6
 (optional=templinst)_ZN3pcl8tracking21ParticleFilterTrackerINS_11PointXYZRGBENS0_14ParticleXYZRPYEE8resampleEv@Base 1.6
 (optional=templinst)_ZN3pcl8tracking21ParticleFilterTrackerINS_11PointXYZRGBENS0_14ParticleXYZRPYEE8setAlphaEd@Base 1.6
 (optional=templinst)_ZN3pcl8tracking21ParticleFilterTrackerINS_11PointXYZRGBENS0_14ParticleXYZRPYEE8setTransERKN5Eigen9TransformIfLi3ELi2ELi0EEE@Base 1.6
 (optional=templinst)_ZN3pcl8tracking21ParticleFilterTrackerINS_11PointXYZRGBENS0_14ParticleXYZRPYEEC1Ev@Base 1.6
 (optional=templinst)_ZN3pcl8tracking21ParticleFilterTrackerINS_11PointXYZRGBENS0_14ParticleXYZRPYEEC2Ev@Base 1.6
 (optional=templinst)_ZN3pcl8tracking21ParticleFilterTrackerINS_11PointXYZRGBENS0_14ParticleXYZRPYEED0Ev@Base 1.6
 (optional=templinst)_ZN3pcl8tracking21ParticleFilterTrackerINS_11PointXYZRGBENS0_14ParticleXYZRPYEED1Ev@Base 1.6
 (optional=templinst)_ZN3pcl8tracking21ParticleFilterTrackerINS_11PointXYZRGBENS0_14ParticleXYZRPYEED2Ev@Base 1.6
 (optional=templinst)_ZN3pcl8tracking21ParticleFilterTrackerINS_12PointXYZRGBAENS0_11ParticleXYREE11initComputeEv@Base 1.6
 (optional=templinst)_ZN3pcl8tracking21ParticleFilterTrackerINS_12PointXYZRGBAENS0_11ParticleXYREE12getUseNormalEv@Base 1.6
 (optional=templinst)_ZN3pcl8tracking21ParticleFilterTrackerINS_12PointXYZRGBAENS0_11ParticleXYREE12setUseNormalEb@Base 1.6
 (optional=templinst)_ZN3pcl8tracking21ParticleFilterTrackerINS_12PointXYZRGBAENS0_11ParticleXYREE13genAliasTableERSt6vectorIiSaIiEERS5_IdSaIdEERKN5boost10shared_ptrIKNS_10PointCloudIS3_EEEE@Base 1.6
 (optional=templinst)_ZN3pcl8tracking21ParticleFilterTrackerINS_12PointXYZRGBAENS0_11ParticleXYREE13initParticlesEb@Base 1.6
 (optional=templinst)_ZN3pcl8tracking21ParticleFilterTrackerINS_12PointXYZRGBAENS0_11ParticleXYREE13resetTrackingEv@Base 1.6
 (optional=templinst)_ZN3pcl8tracking21ParticleFilterTrackerINS_12PointXYZRGBAENS0_11ParticleXYREE13setMinIndicesEi@Base 1.6
 (optional=templinst)_ZN3pcl8tracking21ParticleFilterTrackerINS_12PointXYZRGBAENS0_11ParticleXYREE13toEigenMatrixERKS3_@Base 1.6
 (optional=templinst)_ZN3pcl8tracking21ParticleFilterTrackerINS_12PointXYZRGBAENS0_11ParticleXYREE14getMotionRatioEv@Base 1.6
 (optional=templinst)_ZN3pcl8tracking21ParticleFilterTrackerINS_12PointXYZRGBAENS0_11ParticleXYREE14setMotionRatioEd@Base 1.6
 (optional=templinst)_ZN3pcl8tracking21ParticleFilterTrackerINS_12PointXYZRGBAENS0_11ParticleXYREE14setParticleNumEi@Base 1.6
 (optional=templinst)_ZN3pcl8tracking21ParticleFilterTrackerINS_12PointXYZRGBAENS0_11ParticleXYREE15calcBoundingBoxERdS5_S5_S5_S5_S5_@Base 1.6
 (optional=templinst)_ZN3pcl8tracking21ParticleFilterTrackerINS_12PointXYZRGBAENS0_11ParticleXYREE15computeTrackingEv@Base 1.6
 (optional=templinst)_ZN3pcl8tracking21ParticleFilterTrackerINS_12PointXYZRGBAENS0_11ParticleXYREE15normalizeWeightEv@Base 1.6
 (optional=templinst)_ZN3pcl8tracking21ParticleFilterTrackerINS_12PointXYZRGBAENS0_11ParticleXYREE15setIterationNumEi@Base 1.6
 (optional=templinst)_ZN3pcl8tracking21ParticleFilterTrackerINS_12PointXYZRGBAENS0_11ParticleXYREE17getReferenceCloudEv@Base 1.6
 (optional=templinst)_ZN3pcl8tracking21ParticleFilterTrackerINS_12PointXYZRGBAENS0_11ParticleXYREE17setCloudCoherenceERKN5boost10shared_ptrINS0_19PointCloudCoherenceIS2_EEEE@Base 1.6
 (optional=templinst)_ZN3pcl8tracking21ParticleFilterTrackerINS_12PointXYZRGBAENS0_11ParticleXYREE17setReferenceCloudERKN5boost10shared_ptrIKNS_10PointCloudIS2_EEEE@Base 1.6
 (optional=templinst)_ZN3pcl8tracking21ParticleFilterTrackerINS_12PointXYZRGBAENS0_11ParticleXYREE19cropInputPointCloudERKN5boost10shared_ptrIKNS_10PointCloudIS2_EEEERS8_@Base 1.6
 (optional=templinst)_ZN3pcl8tracking21ParticleFilterTrackerINS_12PointXYZRGBAENS0_11ParticleXYREE19setInitialNoiseMeanERKSt6vectorIdSaIdEE@Base 1.6
 (optional=templinst)_ZN3pcl8tracking21ParticleFilterTrackerINS_12PointXYZRGBAENS0_11ParticleXYREE19testChangeDetectionERKN5boost10shared_ptrIKNS_10PointCloudIS2_EEEE@Base 1.6
 (optional=templinst)_ZN3pcl8tracking21ParticleFilterTrackerINS_12PointXYZRGBAENS0_11ParticleXYREE20getUseChangeDetectorEv@Base 1.6
 (optional=templinst)_ZN3pcl8tracking21ParticleFilterTrackerINS_12PointXYZRGBAENS0_11ParticleXYREE20setOcclusionAngleTheEd@Base 1.6
 (optional=templinst)_ZN3pcl8tracking21ParticleFilterTrackerINS_12PointXYZRGBAENS0_11ParticleXYREE20setUseChangeDetectorEb@Base 1.6
 (optional=templinst)_ZN3pcl8tracking21ParticleFilterTrackerINS_12PointXYZRGBAENS0_11ParticleXYREE21sampleWithReplacementERKSt6vectorIiSaIiEERKS5_IdSaIdEE@Base 1.6
 (optional=templinst)_ZN3pcl8tracking21ParticleFilterTrackerINS_12PointXYZRGBAENS0_11ParticleXYREE22setStepNoiseCovarianceERKSt6vectorIdSaIdEE@Base 1.6
 (optional=templinst)_ZN3pcl8tracking21ParticleFilterTrackerINS_12PointXYZRGBAENS0_11ParticleXYREE23normalizeParticleWeightEddd@Base 1.6
 (optional=templinst)_ZN3pcl8tracking21ParticleFilterTrackerINS_12PointXYZRGBAENS0_11ParticleXYREE23resampleWithReplacementEv@Base 1.6
 (optional=templinst)_ZN3pcl8tracking21ParticleFilterTrackerINS_12PointXYZRGBAENS0_11ParticleXYREE24setResampleLikelihoodThrEd@Base 1.6
 (optional=templinst)_ZN3pcl8tracking21ParticleFilterTrackerINS_12PointXYZRGBAENS0_11ParticleXYREE25setInitialNoiseCovarianceERKSt6vectorIdSaIdEE@Base 1.6
 (optional=templinst)_ZN3pcl8tracking21ParticleFilterTrackerINS_12PointXYZRGBAENS0_11ParticleXYREE28computeTransformedPointCloudERKS3_RSt6vectorIiSaIiEERNS_10PointCloudIS2_EE@Base 1.6
 (optional=templinst)_ZN3pcl8tracking21ParticleFilterTrackerINS_12PointXYZRGBAENS0_11ParticleXYREE28getIntervalOfChangeDetectionEv@Base 1.6
 (optional=templinst)_ZN3pcl8tracking21ParticleFilterTrackerINS_12PointXYZRGBAENS0_11ParticleXYREE28setIntervalOfChangeDetectionEj@Base 1.6
 (optional=templinst)_ZN3pcl8tracking21ParticleFilterTrackerINS_12PointXYZRGBAENS0_11ParticleXYREE29getMinPointsOfChangeDetectionEv@Base 1.6
 (optional=templinst)_ZN3pcl8tracking21ParticleFilterTrackerINS_12PointXYZRGBAENS0_11ParticleXYREE29setMinPointsOfChangeDetectionEj@Base 1.6
 (optional=templinst)_ZN3pcl8tracking21ParticleFilterTrackerINS_12PointXYZRGBAENS0_11ParticleXYREE30getResolutionOfChangeDetectionEv@Base 1.6
 (optional=templinst)_ZN3pcl8tracking21ParticleFilterTrackerINS_12PointXYZRGBAENS0_11ParticleXYREE30setResolutionOfChangeDetectionEd@Base 1.6
 (optional=templinst)_ZN3pcl8tracking21ParticleFilterTrackerINS_12PointXYZRGBAENS0_11ParticleXYREE38computeTransformedPointCloudWithNormalERKS3_RSt6vectorIiSaIiEERNS_10PointCloudIS2_EE@Base 1.6
 (optional=templinst)_ZN3pcl8tracking21ParticleFilterTrackerINS_12PointXYZRGBAENS0_11ParticleXYREE41computeTransformedPointCloudWithoutNormalERKS3_RNS_10PointCloudIS2_EE@Base 1.6
 (optional=templinst)_ZN3pcl8tracking21ParticleFilterTrackerINS_12PointXYZRGBAENS0_11ParticleXYREE6updateEv@Base 1.6
 (optional=templinst)_ZN3pcl8tracking21ParticleFilterTrackerINS_12PointXYZRGBAENS0_11ParticleXYREE6weightEv@Base 1.6
 (optional=templinst)_ZN3pcl8tracking21ParticleFilterTrackerINS_12PointXYZRGBAENS0_11ParticleXYREE8getAlphaEv@Base 1.6
 (optional=templinst)_ZN3pcl8tracking21ParticleFilterTrackerINS_12PointXYZRGBAENS0_11ParticleXYREE8resampleEv@Base 1.6
 (optional=templinst)_ZN3pcl8tracking21ParticleFilterTrackerINS_12PointXYZRGBAENS0_11ParticleXYREE8setAlphaEd@Base 1.6
 (optional=templinst)_ZN3pcl8tracking21ParticleFilterTrackerINS_12PointXYZRGBAENS0_11ParticleXYREE8setTransERKN5Eigen9TransformIfLi3ELi2ELi0EEE@Base 1.6
 (optional=templinst)_ZN3pcl8tracking21ParticleFilterTrackerINS_12PointXYZRGBAENS0_11ParticleXYREEC1Ev@Base 1.6
 (optional=templinst)_ZN3pcl8tracking21ParticleFilterTrackerINS_12PointXYZRGBAENS0_11ParticleXYREEC2Ev@Base 1.6
 (optional=templinst)_ZN3pcl8tracking21ParticleFilterTrackerINS_12PointXYZRGBAENS0_11ParticleXYREED0Ev@Base 1.6
 (optional=templinst)_ZN3pcl8tracking21ParticleFilterTrackerINS_12PointXYZRGBAENS0_11ParticleXYREED1Ev@Base 1.6
 (optional=templinst)_ZN3pcl8tracking21ParticleFilterTrackerINS_12PointXYZRGBAENS0_11ParticleXYREED2Ev@Base 1.6
 (optional=templinst)_ZN3pcl8tracking21ParticleFilterTrackerINS_12PointXYZRGBAENS0_12ParticleXYRPEE11initComputeEv@Base 1.6
 (optional=templinst)_ZN3pcl8tracking21ParticleFilterTrackerINS_12PointXYZRGBAENS0_12ParticleXYRPEE12getUseNormalEv@Base 1.6
 (optional=templinst)_ZN3pcl8tracking21ParticleFilterTrackerINS_12PointXYZRGBAENS0_12ParticleXYRPEE12setUseNormalEb@Base 1.6
 (optional=templinst)_ZN3pcl8tracking21ParticleFilterTrackerINS_12PointXYZRGBAENS0_12ParticleXYRPEE13genAliasTableERSt6vectorIiSaIiEERS5_IdSaIdEERKN5boost10shared_ptrIKNS_10PointCloudIS3_EEEE@Base 1.6
 (optional=templinst)_ZN3pcl8tracking21ParticleFilterTrackerINS_12PointXYZRGBAENS0_12ParticleXYRPEE13initParticlesEb@Base 1.6
 (optional=templinst)_ZN3pcl8tracking21ParticleFilterTrackerINS_12PointXYZRGBAENS0_12ParticleXYRPEE13resetTrackingEv@Base 1.6
 (optional=templinst)_ZN3pcl8tracking21ParticleFilterTrackerINS_12PointXYZRGBAENS0_12ParticleXYRPEE13setMinIndicesEi@Base 1.6
 (optional=templinst)_ZN3pcl8tracking21ParticleFilterTrackerINS_12PointXYZRGBAENS0_12ParticleXYRPEE13toEigenMatrixERKS3_@Base 1.6
 (optional=templinst)_ZN3pcl8tracking21ParticleFilterTrackerINS_12PointXYZRGBAENS0_12ParticleXYRPEE14getMotionRatioEv@Base 1.6
 (optional=templinst)_ZN3pcl8tracking21ParticleFilterTrackerINS_12PointXYZRGBAENS0_12ParticleXYRPEE14setMotionRatioEd@Base 1.6
 (optional=templinst)_ZN3pcl8tracking21ParticleFilterTrackerINS_12PointXYZRGBAENS0_12ParticleXYRPEE14setParticleNumEi@Base 1.6
 (optional=templinst)_ZN3pcl8tracking21ParticleFilterTrackerINS_12PointXYZRGBAENS0_12ParticleXYRPEE15calcBoundingBoxERdS5_S5_S5_S5_S5_@Base 1.6
 (optional=templinst)_ZN3pcl8tracking21ParticleFilterTrackerINS_12PointXYZRGBAENS0_12ParticleXYRPEE15computeTrackingEv@Base 1.6
 (optional=templinst)_ZN3pcl8tracking21ParticleFilterTrackerINS_12PointXYZRGBAENS0_12ParticleXYRPEE15normalizeWeightEv@Base 1.6
 (optional=templinst)_ZN3pcl8tracking21ParticleFilterTrackerINS_12PointXYZRGBAENS0_12ParticleXYRPEE15setIterationNumEi@Base 1.6
 (optional=templinst)_ZN3pcl8tracking21ParticleFilterTrackerINS_12PointXYZRGBAENS0_12ParticleXYRPEE17getReferenceCloudEv@Base 1.6
 (optional=templinst)_ZN3pcl8tracking21ParticleFilterTrackerINS_12PointXYZRGBAENS0_12ParticleXYRPEE17setCloudCoherenceERKN5boost10shared_ptrINS0_19PointCloudCoherenceIS2_EEEE@Base 1.6
 (optional=templinst)_ZN3pcl8tracking21ParticleFilterTrackerINS_12PointXYZRGBAENS0_12ParticleXYRPEE17setReferenceCloudERKN5boost10shared_ptrIKNS_10PointCloudIS2_EEEE@Base 1.6
 (optional=templinst)_ZN3pcl8tracking21ParticleFilterTrackerINS_12PointXYZRGBAENS0_12ParticleXYRPEE19cropInputPointCloudERKN5boost10shared_ptrIKNS_10PointCloudIS2_EEEERS8_@Base 1.6
 (optional=templinst)_ZN3pcl8tracking21ParticleFilterTrackerINS_12PointXYZRGBAENS0_12ParticleXYRPEE19setInitialNoiseMeanERKSt6vectorIdSaIdEE@Base 1.6
 (optional=templinst)_ZN3pcl8tracking21ParticleFilterTrackerINS_12PointXYZRGBAENS0_12ParticleXYRPEE19testChangeDetectionERKN5boost10shared_ptrIKNS_10PointCloudIS2_EEEE@Base 1.6
 (optional=templinst)_ZN3pcl8tracking21ParticleFilterTrackerINS_12PointXYZRGBAENS0_12ParticleXYRPEE20getUseChangeDetectorEv@Base 1.6
 (optional=templinst)_ZN3pcl8tracking21ParticleFilterTrackerINS_12PointXYZRGBAENS0_12ParticleXYRPEE20setOcclusionAngleTheEd@Base 1.6
 (optional=templinst)_ZN3pcl8tracking21ParticleFilterTrackerINS_12PointXYZRGBAENS0_12ParticleXYRPEE20setUseChangeDetectorEb@Base 1.6
 (optional=templinst)_ZN3pcl8tracking21ParticleFilterTrackerINS_12PointXYZRGBAENS0_12ParticleXYRPEE21sampleWithReplacementERKSt6vectorIiSaIiEERKS5_IdSaIdEE@Base 1.6
 (optional=templinst)_ZN3pcl8tracking21ParticleFilterTrackerINS_12PointXYZRGBAENS0_12ParticleXYRPEE22setStepNoiseCovarianceERKSt6vectorIdSaIdEE@Base 1.6
 (optional=templinst)_ZN3pcl8tracking21ParticleFilterTrackerINS_12PointXYZRGBAENS0_12ParticleXYRPEE23normalizeParticleWeightEddd@Base 1.6
 (optional=templinst)_ZN3pcl8tracking21ParticleFilterTrackerINS_12PointXYZRGBAENS0_12ParticleXYRPEE23resampleWithReplacementEv@Base 1.6
 (optional=templinst)_ZN3pcl8tracking21ParticleFilterTrackerINS_12PointXYZRGBAENS0_12ParticleXYRPEE24setResampleLikelihoodThrEd@Base 1.6
 (optional=templinst)_ZN3pcl8tracking21ParticleFilterTrackerINS_12PointXYZRGBAENS0_12ParticleXYRPEE25setInitialNoiseCovarianceERKSt6vectorIdSaIdEE@Base 1.6
 (optional=templinst)_ZN3pcl8tracking21ParticleFilterTrackerINS_12PointXYZRGBAENS0_12ParticleXYRPEE28computeTransformedPointCloudERKS3_RSt6vectorIiSaIiEERNS_10PointCloudIS2_EE@Base 1.6
 (optional=templinst)_ZN3pcl8tracking21ParticleFilterTrackerINS_12PointXYZRGBAENS0_12ParticleXYRPEE28getIntervalOfChangeDetectionEv@Base 1.6
 (optional=templinst)_ZN3pcl8tracking21ParticleFilterTrackerINS_12PointXYZRGBAENS0_12ParticleXYRPEE28setIntervalOfChangeDetectionEj@Base 1.6
 (optional=templinst)_ZN3pcl8tracking21ParticleFilterTrackerINS_12PointXYZRGBAENS0_12ParticleXYRPEE29getMinPointsOfChangeDetectionEv@Base 1.6
 (optional=templinst)_ZN3pcl8tracking21ParticleFilterTrackerINS_12PointXYZRGBAENS0_12ParticleXYRPEE29setMinPointsOfChangeDetectionEj@Base 1.6
 (optional=templinst)_ZN3pcl8tracking21ParticleFilterTrackerINS_12PointXYZRGBAENS0_12ParticleXYRPEE30getResolutionOfChangeDetectionEv@Base 1.6
 (optional=templinst)_ZN3pcl8tracking21ParticleFilterTrackerINS_12PointXYZRGBAENS0_12ParticleXYRPEE30setResolutionOfChangeDetectionEd@Base 1.6
 (optional=templinst)_ZN3pcl8tracking21ParticleFilterTrackerINS_12PointXYZRGBAENS0_12ParticleXYRPEE38computeTransformedPointCloudWithNormalERKS3_RSt6vectorIiSaIiEERNS_10PointCloudIS2_EE@Base 1.6
 (optional=templinst)_ZN3pcl8tracking21ParticleFilterTrackerINS_12PointXYZRGBAENS0_12ParticleXYRPEE41computeTransformedPointCloudWithoutNormalERKS3_RNS_10PointCloudIS2_EE@Base 1.6
 (optional=templinst)_ZN3pcl8tracking21ParticleFilterTrackerINS_12PointXYZRGBAENS0_12ParticleXYRPEE6updateEv@Base 1.6
 (optional=templinst)_ZN3pcl8tracking21ParticleFilterTrackerINS_12PointXYZRGBAENS0_12ParticleXYRPEE6weightEv@Base 1.6
 (optional=templinst)_ZN3pcl8tracking21ParticleFilterTrackerINS_12PointXYZRGBAENS0_12ParticleXYRPEE8getAlphaEv@Base 1.6
 (optional=templinst)_ZN3pcl8tracking21ParticleFilterTrackerINS_12PointXYZRGBAENS0_12ParticleXYRPEE8resampleEv@Base 1.6
 (optional=templinst)_ZN3pcl8tracking21ParticleFilterTrackerINS_12PointXYZRGBAENS0_12ParticleXYRPEE8setAlphaEd@Base 1.6
 (optional=templinst)_ZN3pcl8tracking21ParticleFilterTrackerINS_12PointXYZRGBAENS0_12ParticleXYRPEE8setTransERKN5Eigen9TransformIfLi3ELi2ELi0EEE@Base 1.6
 (optional=templinst)_ZN3pcl8tracking21ParticleFilterTrackerINS_12PointXYZRGBAENS0_12ParticleXYRPEEC1Ev@Base 1.6
 (optional=templinst)_ZN3pcl8tracking21ParticleFilterTrackerINS_12PointXYZRGBAENS0_12ParticleXYRPEEC2Ev@Base 1.6
 (optional=templinst)_ZN3pcl8tracking21ParticleFilterTrackerINS_12PointXYZRGBAENS0_12ParticleXYRPEED0Ev@Base 1.6
 (optional=templinst)_ZN3pcl8tracking21ParticleFilterTrackerINS_12PointXYZRGBAENS0_12ParticleXYRPEED1Ev@Base 1.6
 (optional=templinst)_ZN3pcl8tracking21ParticleFilterTrackerINS_12PointXYZRGBAENS0_12ParticleXYRPEED2Ev@Base 1.6
 (optional=templinst)_ZN3pcl8tracking21ParticleFilterTrackerINS_12PointXYZRGBAENS0_12ParticleXYZREE11initComputeEv@Base 1.6
 (optional=templinst)_ZN3pcl8tracking21ParticleFilterTrackerINS_12PointXYZRGBAENS0_12ParticleXYZREE12getUseNormalEv@Base 1.6
 (optional=templinst)_ZN3pcl8tracking21ParticleFilterTrackerINS_12PointXYZRGBAENS0_12ParticleXYZREE12setUseNormalEb@Base 1.6
 (optional=templinst)_ZN3pcl8tracking21ParticleFilterTrackerINS_12PointXYZRGBAENS0_12ParticleXYZREE13genAliasTableERSt6vectorIiSaIiEERS5_IdSaIdEERKN5boost10shared_ptrIKNS_10PointCloudIS3_EEEE@Base 1.6
 (optional=templinst)_ZN3pcl8tracking21ParticleFilterTrackerINS_12PointXYZRGBAENS0_12ParticleXYZREE13initParticlesEb@Base 1.6
 (optional=templinst)_ZN3pcl8tracking21ParticleFilterTrackerINS_12PointXYZRGBAENS0_12ParticleXYZREE13resetTrackingEv@Base 1.6
 (optional=templinst)_ZN3pcl8tracking21ParticleFilterTrackerINS_12PointXYZRGBAENS0_12ParticleXYZREE13setMinIndicesEi@Base 1.6
 (optional=templinst)_ZN3pcl8tracking21ParticleFilterTrackerINS_12PointXYZRGBAENS0_12ParticleXYZREE13toEigenMatrixERKS3_@Base 1.6
 (optional=templinst)_ZN3pcl8tracking21ParticleFilterTrackerINS_12PointXYZRGBAENS0_12ParticleXYZREE14getMotionRatioEv@Base 1.6
 (optional=templinst)_ZN3pcl8tracking21ParticleFilterTrackerINS_12PointXYZRGBAENS0_12ParticleXYZREE14setMotionRatioEd@Base 1.6
 (optional=templinst)_ZN3pcl8tracking21ParticleFilterTrackerINS_12PointXYZRGBAENS0_12ParticleXYZREE14setParticleNumEi@Base 1.6
 (optional=templinst)_ZN3pcl8tracking21ParticleFilterTrackerINS_12PointXYZRGBAENS0_12ParticleXYZREE15calcBoundingBoxERdS5_S5_S5_S5_S5_@Base 1.6
 (optional=templinst)_ZN3pcl8tracking21ParticleFilterTrackerINS_12PointXYZRGBAENS0_12ParticleXYZREE15computeTrackingEv@Base 1.6
 (optional=templinst)_ZN3pcl8tracking21ParticleFilterTrackerINS_12PointXYZRGBAENS0_12ParticleXYZREE15normalizeWeightEv@Base 1.6
 (optional=templinst)_ZN3pcl8tracking21ParticleFilterTrackerINS_12PointXYZRGBAENS0_12ParticleXYZREE15setIterationNumEi@Base 1.6
 (optional=templinst)_ZN3pcl8tracking21ParticleFilterTrackerINS_12PointXYZRGBAENS0_12ParticleXYZREE17getReferenceCloudEv@Base 1.6
 (optional=templinst)_ZN3pcl8tracking21ParticleFilterTrackerINS_12PointXYZRGBAENS0_12ParticleXYZREE17setCloudCoherenceERKN5boost10shared_ptrINS0_19PointCloudCoherenceIS2_EEEE@Base 1.6
 (optional=templinst)_ZN3pcl8tracking21ParticleFilterTrackerINS_12PointXYZRGBAENS0_12ParticleXYZREE17setReferenceCloudERKN5boost10shared_ptrIKNS_10PointCloudIS2_EEEE@Base 1.6
 (optional=templinst)_ZN3pcl8tracking21ParticleFilterTrackerINS_12PointXYZRGBAENS0_12ParticleXYZREE19cropInputPointCloudERKN5boost10shared_ptrIKNS_10PointCloudIS2_EEEERS8_@Base 1.6
 (optional=templinst)_ZN3pcl8tracking21ParticleFilterTrackerINS_12PointXYZRGBAENS0_12ParticleXYZREE19setInitialNoiseMeanERKSt6vectorIdSaIdEE@Base 1.6
 (optional=templinst)_ZN3pcl8tracking21ParticleFilterTrackerINS_12PointXYZRGBAENS0_12ParticleXYZREE19testChangeDetectionERKN5boost10shared_ptrIKNS_10PointCloudIS2_EEEE@Base 1.6
 (optional=templinst)_ZN3pcl8tracking21ParticleFilterTrackerINS_12PointXYZRGBAENS0_12ParticleXYZREE20getUseChangeDetectorEv@Base 1.6
 (optional=templinst)_ZN3pcl8tracking21ParticleFilterTrackerINS_12PointXYZRGBAENS0_12ParticleXYZREE20setOcclusionAngleTheEd@Base 1.6
 (optional=templinst)_ZN3pcl8tracking21ParticleFilterTrackerINS_12PointXYZRGBAENS0_12ParticleXYZREE20setUseChangeDetectorEb@Base 1.6
 (optional=templinst)_ZN3pcl8tracking21ParticleFilterTrackerINS_12PointXYZRGBAENS0_12ParticleXYZREE21sampleWithReplacementERKSt6vectorIiSaIiEERKS5_IdSaIdEE@Base 1.6
 (optional=templinst)_ZN3pcl8tracking21ParticleFilterTrackerINS_12PointXYZRGBAENS0_12ParticleXYZREE22setStepNoiseCovarianceERKSt6vectorIdSaIdEE@Base 1.6
 (optional=templinst)_ZN3pcl8tracking21ParticleFilterTrackerINS_12PointXYZRGBAENS0_12ParticleXYZREE23normalizeParticleWeightEddd@Base 1.6
 (optional=templinst)_ZN3pcl8tracking21ParticleFilterTrackerINS_12PointXYZRGBAENS0_12ParticleXYZREE23resampleWithReplacementEv@Base 1.6
 (optional=templinst)_ZN3pcl8tracking21ParticleFilterTrackerINS_12PointXYZRGBAENS0_12ParticleXYZREE24setResampleLikelihoodThrEd@Base 1.6
 (optional=templinst)_ZN3pcl8tracking21ParticleFilterTrackerINS_12PointXYZRGBAENS0_12ParticleXYZREE25setInitialNoiseCovarianceERKSt6vectorIdSaIdEE@Base 1.6
 (optional=templinst)_ZN3pcl8tracking21ParticleFilterTrackerINS_12PointXYZRGBAENS0_12ParticleXYZREE28computeTransformedPointCloudERKS3_RSt6vectorIiSaIiEERNS_10PointCloudIS2_EE@Base 1.6
 (optional=templinst)_ZN3pcl8tracking21ParticleFilterTrackerINS_12PointXYZRGBAENS0_12ParticleXYZREE28getIntervalOfChangeDetectionEv@Base 1.6
 (optional=templinst)_ZN3pcl8tracking21ParticleFilterTrackerINS_12PointXYZRGBAENS0_12ParticleXYZREE28setIntervalOfChangeDetectionEj@Base 1.6
 (optional=templinst)_ZN3pcl8tracking21ParticleFilterTrackerINS_12PointXYZRGBAENS0_12ParticleXYZREE29getMinPointsOfChangeDetectionEv@Base 1.6
 (optional=templinst)_ZN3pcl8tracking21ParticleFilterTrackerINS_12PointXYZRGBAENS0_12ParticleXYZREE29setMinPointsOfChangeDetectionEj@Base 1.6
 (optional=templinst)_ZN3pcl8tracking21ParticleFilterTrackerINS_12PointXYZRGBAENS0_12ParticleXYZREE30getResolutionOfChangeDetectionEv@Base 1.6
 (optional=templinst)_ZN3pcl8tracking21ParticleFilterTrackerINS_12PointXYZRGBAENS0_12ParticleXYZREE30setResolutionOfChangeDetectionEd@Base 1.6
 (optional=templinst)_ZN3pcl8tracking21ParticleFilterTrackerINS_12PointXYZRGBAENS0_12ParticleXYZREE38computeTransformedPointCloudWithNormalERKS3_RSt6vectorIiSaIiEERNS_10PointCloudIS2_EE@Base 1.6
 (optional=templinst)_ZN3pcl8tracking21ParticleFilterTrackerINS_12PointXYZRGBAENS0_12ParticleXYZREE41computeTransformedPointCloudWithoutNormalERKS3_RNS_10PointCloudIS2_EE@Base 1.6
 (optional=templinst)_ZN3pcl8tracking21ParticleFilterTrackerINS_12PointXYZRGBAENS0_12ParticleXYZREE6updateEv@Base 1.6
 (optional=templinst)_ZN3pcl8tracking21ParticleFilterTrackerINS_12PointXYZRGBAENS0_12ParticleXYZREE6weightEv@Base 1.6
 (optional=templinst)_ZN3pcl8tracking21ParticleFilterTrackerINS_12PointXYZRGBAENS0_12ParticleXYZREE8getAlphaEv@Base 1.6
 (optional=templinst)_ZN3pcl8tracking21ParticleFilterTrackerINS_12PointXYZRGBAENS0_12ParticleXYZREE8resampleEv@Base 1.6
 (optional=templinst)_ZN3pcl8tracking21ParticleFilterTrackerINS_12PointXYZRGBAENS0_12ParticleXYZREE8setAlphaEd@Base 1.6
 (optional=templinst)_ZN3pcl8tracking21ParticleFilterTrackerINS_12PointXYZRGBAENS0_12ParticleXYZREE8setTransERKN5Eigen9TransformIfLi3ELi2ELi0EEE@Base 1.6
 (optional=templinst)_ZN3pcl8tracking21ParticleFilterTrackerINS_12PointXYZRGBAENS0_12ParticleXYZREEC1Ev@Base 1.6
 (optional=templinst)_ZN3pcl8tracking21ParticleFilterTrackerINS_12PointXYZRGBAENS0_12ParticleXYZREEC2Ev@Base 1.6
 (optional=templinst)_ZN3pcl8tracking21ParticleFilterTrackerINS_12PointXYZRGBAENS0_12ParticleXYZREED0Ev@Base 1.6
 (optional=templinst)_ZN3pcl8tracking21ParticleFilterTrackerINS_12PointXYZRGBAENS0_12ParticleXYZREED1Ev@Base 1.6
 (optional=templinst)_ZN3pcl8tracking21ParticleFilterTrackerINS_12PointXYZRGBAENS0_12ParticleXYZREED2Ev@Base 1.6
 (optional=templinst)_ZN3pcl8tracking21ParticleFilterTrackerINS_12PointXYZRGBAENS0_13ParticleXYRPYEE11initComputeEv@Base 1.6
 (optional=templinst)_ZN3pcl8tracking21ParticleFilterTrackerINS_12PointXYZRGBAENS0_13ParticleXYRPYEE12getUseNormalEv@Base 1.6
 (optional=templinst)_ZN3pcl8tracking21ParticleFilterTrackerINS_12PointXYZRGBAENS0_13ParticleXYRPYEE12setUseNormalEb@Base 1.6
 (optional=templinst)_ZN3pcl8tracking21ParticleFilterTrackerINS_12PointXYZRGBAENS0_13ParticleXYRPYEE13genAliasTableERSt6vectorIiSaIiEERS5_IdSaIdEERKN5boost10shared_ptrIKNS_10PointCloudIS3_EEEE@Base 1.6
 (optional=templinst)_ZN3pcl8tracking21ParticleFilterTrackerINS_12PointXYZRGBAENS0_13ParticleXYRPYEE13initParticlesEb@Base 1.6
 (optional=templinst)_ZN3pcl8tracking21ParticleFilterTrackerINS_12PointXYZRGBAENS0_13ParticleXYRPYEE13resetTrackingEv@Base 1.6
 (optional=templinst)_ZN3pcl8tracking21ParticleFilterTrackerINS_12PointXYZRGBAENS0_13ParticleXYRPYEE13setMinIndicesEi@Base 1.6
 (optional=templinst)_ZN3pcl8tracking21ParticleFilterTrackerINS_12PointXYZRGBAENS0_13ParticleXYRPYEE13toEigenMatrixERKS3_@Base 1.6
 (optional=templinst)_ZN3pcl8tracking21ParticleFilterTrackerINS_12PointXYZRGBAENS0_13ParticleXYRPYEE14getMotionRatioEv@Base 1.6
 (optional=templinst)_ZN3pcl8tracking21ParticleFilterTrackerINS_12PointXYZRGBAENS0_13ParticleXYRPYEE14setMotionRatioEd@Base 1.6
 (optional=templinst)_ZN3pcl8tracking21ParticleFilterTrackerINS_12PointXYZRGBAENS0_13ParticleXYRPYEE14setParticleNumEi@Base 1.6
 (optional=templinst)_ZN3pcl8tracking21ParticleFilterTrackerINS_12PointXYZRGBAENS0_13ParticleXYRPYEE15calcBoundingBoxERdS5_S5_S5_S5_S5_@Base 1.6
 (optional=templinst)_ZN3pcl8tracking21ParticleFilterTrackerINS_12PointXYZRGBAENS0_13ParticleXYRPYEE15computeTrackingEv@Base 1.6
 (optional=templinst)_ZN3pcl8tracking21ParticleFilterTrackerINS_12PointXYZRGBAENS0_13ParticleXYRPYEE15normalizeWeightEv@Base 1.6
 (optional=templinst)_ZN3pcl8tracking21ParticleFilterTrackerINS_12PointXYZRGBAENS0_13ParticleXYRPYEE15setIterationNumEi@Base 1.6
 (optional=templinst)_ZN3pcl8tracking21ParticleFilterTrackerINS_12PointXYZRGBAENS0_13ParticleXYRPYEE17getReferenceCloudEv@Base 1.6
 (optional=templinst)_ZN3pcl8tracking21ParticleFilterTrackerINS_12PointXYZRGBAENS0_13ParticleXYRPYEE17setCloudCoherenceERKN5boost10shared_ptrINS0_19PointCloudCoherenceIS2_EEEE@Base 1.6
 (optional=templinst)_ZN3pcl8tracking21ParticleFilterTrackerINS_12PointXYZRGBAENS0_13ParticleXYRPYEE17setReferenceCloudERKN5boost10shared_ptrIKNS_10PointCloudIS2_EEEE@Base 1.6
 (optional=templinst)_ZN3pcl8tracking21ParticleFilterTrackerINS_12PointXYZRGBAENS0_13ParticleXYRPYEE19cropInputPointCloudERKN5boost10shared_ptrIKNS_10PointCloudIS2_EEEERS8_@Base 1.6
 (optional=templinst)_ZN3pcl8tracking21ParticleFilterTrackerINS_12PointXYZRGBAENS0_13ParticleXYRPYEE19setInitialNoiseMeanERKSt6vectorIdSaIdEE@Base 1.6
 (optional=templinst)_ZN3pcl8tracking21ParticleFilterTrackerINS_12PointXYZRGBAENS0_13ParticleXYRPYEE19testChangeDetectionERKN5boost10shared_ptrIKNS_10PointCloudIS2_EEEE@Base 1.6
 (optional=templinst)_ZN3pcl8tracking21ParticleFilterTrackerINS_12PointXYZRGBAENS0_13ParticleXYRPYEE20getUseChangeDetectorEv@Base 1.6
 (optional=templinst)_ZN3pcl8tracking21ParticleFilterTrackerINS_12PointXYZRGBAENS0_13ParticleXYRPYEE20setOcclusionAngleTheEd@Base 1.6
 (optional=templinst)_ZN3pcl8tracking21ParticleFilterTrackerINS_12PointXYZRGBAENS0_13ParticleXYRPYEE20setUseChangeDetectorEb@Base 1.6
 (optional=templinst)_ZN3pcl8tracking21ParticleFilterTrackerINS_12PointXYZRGBAENS0_13ParticleXYRPYEE21sampleWithReplacementERKSt6vectorIiSaIiEERKS5_IdSaIdEE@Base 1.6
 (optional=templinst)_ZN3pcl8tracking21ParticleFilterTrackerINS_12PointXYZRGBAENS0_13ParticleXYRPYEE22setStepNoiseCovarianceERKSt6vectorIdSaIdEE@Base 1.6
 (optional=templinst)_ZN3pcl8tracking21ParticleFilterTrackerINS_12PointXYZRGBAENS0_13ParticleXYRPYEE23normalizeParticleWeightEddd@Base 1.6
 (optional=templinst)_ZN3pcl8tracking21ParticleFilterTrackerINS_12PointXYZRGBAENS0_13ParticleXYRPYEE23resampleWithReplacementEv@Base 1.6
 (optional=templinst)_ZN3pcl8tracking21ParticleFilterTrackerINS_12PointXYZRGBAENS0_13ParticleXYRPYEE24setResampleLikelihoodThrEd@Base 1.6
 (optional=templinst)_ZN3pcl8tracking21ParticleFilterTrackerINS_12PointXYZRGBAENS0_13ParticleXYRPYEE25setInitialNoiseCovarianceERKSt6vectorIdSaIdEE@Base 1.6
 (optional=templinst)_ZN3pcl8tracking21ParticleFilterTrackerINS_12PointXYZRGBAENS0_13ParticleXYRPYEE28computeTransformedPointCloudERKS3_RSt6vectorIiSaIiEERNS_10PointCloudIS2_EE@Base 1.6
 (optional=templinst)_ZN3pcl8tracking21ParticleFilterTrackerINS_12PointXYZRGBAENS0_13ParticleXYRPYEE28getIntervalOfChangeDetectionEv@Base 1.6
 (optional=templinst)_ZN3pcl8tracking21ParticleFilterTrackerINS_12PointXYZRGBAENS0_13ParticleXYRPYEE28setIntervalOfChangeDetectionEj@Base 1.6
 (optional=templinst)_ZN3pcl8tracking21ParticleFilterTrackerINS_12PointXYZRGBAENS0_13ParticleXYRPYEE29getMinPointsOfChangeDetectionEv@Base 1.6
 (optional=templinst)_ZN3pcl8tracking21ParticleFilterTrackerINS_12PointXYZRGBAENS0_13ParticleXYRPYEE29setMinPointsOfChangeDetectionEj@Base 1.6
 (optional=templinst)_ZN3pcl8tracking21ParticleFilterTrackerINS_12PointXYZRGBAENS0_13ParticleXYRPYEE30getResolutionOfChangeDetectionEv@Base 1.6
 (optional=templinst)_ZN3pcl8tracking21ParticleFilterTrackerINS_12PointXYZRGBAENS0_13ParticleXYRPYEE30setResolutionOfChangeDetectionEd@Base 1.6
 (optional=templinst)_ZN3pcl8tracking21ParticleFilterTrackerINS_12PointXYZRGBAENS0_13ParticleXYRPYEE38computeTransformedPointCloudWithNormalERKS3_RSt6vectorIiSaIiEERNS_10PointCloudIS2_EE@Base 1.6
 (optional=templinst)_ZN3pcl8tracking21ParticleFilterTrackerINS_12PointXYZRGBAENS0_13ParticleXYRPYEE41computeTransformedPointCloudWithoutNormalERKS3_RNS_10PointCloudIS2_EE@Base 1.6
 (optional=templinst)_ZN3pcl8tracking21ParticleFilterTrackerINS_12PointXYZRGBAENS0_13ParticleXYRPYEE6updateEv@Base 1.6
 (optional=templinst)_ZN3pcl8tracking21ParticleFilterTrackerINS_12PointXYZRGBAENS0_13ParticleXYRPYEE6weightEv@Base 1.6
 (optional=templinst)_ZN3pcl8tracking21ParticleFilterTrackerINS_12PointXYZRGBAENS0_13ParticleXYRPYEE8getAlphaEv@Base 1.6
 (optional=templinst)_ZN3pcl8tracking21ParticleFilterTrackerINS_12PointXYZRGBAENS0_13ParticleXYRPYEE8resampleEv@Base 1.6
 (optional=templinst)_ZN3pcl8tracking21ParticleFilterTrackerINS_12PointXYZRGBAENS0_13ParticleXYRPYEE8setAlphaEd@Base 1.6
 (optional=templinst)_ZN3pcl8tracking21ParticleFilterTrackerINS_12PointXYZRGBAENS0_13ParticleXYRPYEE8setTransERKN5Eigen9TransformIfLi3ELi2ELi0EEE@Base 1.6
 (optional=templinst)_ZN3pcl8tracking21ParticleFilterTrackerINS_12PointXYZRGBAENS0_13ParticleXYRPYEEC1Ev@Base 1.6
 (optional=templinst)_ZN3pcl8tracking21ParticleFilterTrackerINS_12PointXYZRGBAENS0_13ParticleXYRPYEEC2Ev@Base 1.6
 (optional=templinst)_ZN3pcl8tracking21ParticleFilterTrackerINS_12PointXYZRGBAENS0_13ParticleXYRPYEED0Ev@Base 1.6
 (optional=templinst)_ZN3pcl8tracking21ParticleFilterTrackerINS_12PointXYZRGBAENS0_13ParticleXYRPYEED1Ev@Base 1.6
 (optional=templinst)_ZN3pcl8tracking21ParticleFilterTrackerINS_12PointXYZRGBAENS0_13ParticleXYRPYEED2Ev@Base 1.6
 (optional=templinst)_ZN3pcl8tracking21ParticleFilterTrackerINS_12PointXYZRGBAENS0_14ParticleXYZRPYEE11initComputeEv@Base 1.6
 (optional=templinst)_ZN3pcl8tracking21ParticleFilterTrackerINS_12PointXYZRGBAENS0_14ParticleXYZRPYEE12getUseNormalEv@Base 1.6
 (optional=templinst)_ZN3pcl8tracking21ParticleFilterTrackerINS_12PointXYZRGBAENS0_14ParticleXYZRPYEE12setUseNormalEb@Base 1.6
 (optional=templinst)_ZN3pcl8tracking21ParticleFilterTrackerINS_12PointXYZRGBAENS0_14ParticleXYZRPYEE13genAliasTableERSt6vectorIiSaIiEERS5_IdSaIdEERKN5boost10shared_ptrIKNS_10PointCloudIS3_EEEE@Base 1.6
 (optional=templinst)_ZN3pcl8tracking21ParticleFilterTrackerINS_12PointXYZRGBAENS0_14ParticleXYZRPYEE13initParticlesEb@Base 1.6
 (optional=templinst)_ZN3pcl8tracking21ParticleFilterTrackerINS_12PointXYZRGBAENS0_14ParticleXYZRPYEE13resetTrackingEv@Base 1.6
 (optional=templinst)_ZN3pcl8tracking21ParticleFilterTrackerINS_12PointXYZRGBAENS0_14ParticleXYZRPYEE13setMinIndicesEi@Base 1.6
 (optional=templinst)_ZN3pcl8tracking21ParticleFilterTrackerINS_12PointXYZRGBAENS0_14ParticleXYZRPYEE13toEigenMatrixERKS3_@Base 1.6
 (optional=templinst)_ZN3pcl8tracking21ParticleFilterTrackerINS_12PointXYZRGBAENS0_14ParticleXYZRPYEE14getMotionRatioEv@Base 1.6
 (optional=templinst)_ZN3pcl8tracking21ParticleFilterTrackerINS_12PointXYZRGBAENS0_14ParticleXYZRPYEE14setMotionRatioEd@Base 1.6
 (optional=templinst)_ZN3pcl8tracking21ParticleFilterTrackerINS_12PointXYZRGBAENS0_14ParticleXYZRPYEE14setParticleNumEi@Base 1.6
 (optional=templinst)_ZN3pcl8tracking21ParticleFilterTrackerINS_12PointXYZRGBAENS0_14ParticleXYZRPYEE15calcBoundingBoxERdS5_S5_S5_S5_S5_@Base 1.6
 (optional=templinst)_ZN3pcl8tracking21ParticleFilterTrackerINS_12PointXYZRGBAENS0_14ParticleXYZRPYEE15computeTrackingEv@Base 1.6
 (optional=templinst)_ZN3pcl8tracking21ParticleFilterTrackerINS_12PointXYZRGBAENS0_14ParticleXYZRPYEE15normalizeWeightEv@Base 1.6
 (optional=templinst)_ZN3pcl8tracking21ParticleFilterTrackerINS_12PointXYZRGBAENS0_14ParticleXYZRPYEE15setIterationNumEi@Base 1.6
 (optional=templinst)_ZN3pcl8tracking21ParticleFilterTrackerINS_12PointXYZRGBAENS0_14ParticleXYZRPYEE17getReferenceCloudEv@Base 1.6
 (optional=templinst)_ZN3pcl8tracking21ParticleFilterTrackerINS_12PointXYZRGBAENS0_14ParticleXYZRPYEE17setCloudCoherenceERKN5boost10shared_ptrINS0_19PointCloudCoherenceIS2_EEEE@Base 1.6
 (optional=templinst)_ZN3pcl8tracking21ParticleFilterTrackerINS_12PointXYZRGBAENS0_14ParticleXYZRPYEE17setReferenceCloudERKN5boost10shared_ptrIKNS_10PointCloudIS2_EEEE@Base 1.6
 (optional=templinst)_ZN3pcl8tracking21ParticleFilterTrackerINS_12PointXYZRGBAENS0_14ParticleXYZRPYEE19cropInputPointCloudERKN5boost10shared_ptrIKNS_10PointCloudIS2_EEEERS8_@Base 1.6
 (optional=templinst)_ZN3pcl8tracking21ParticleFilterTrackerINS_12PointXYZRGBAENS0_14ParticleXYZRPYEE19setInitialNoiseMeanERKSt6vectorIdSaIdEE@Base 1.6
 (optional=templinst)_ZN3pcl8tracking21ParticleFilterTrackerINS_12PointXYZRGBAENS0_14ParticleXYZRPYEE19testChangeDetectionERKN5boost10shared_ptrIKNS_10PointCloudIS2_EEEE@Base 1.6
 (optional=templinst)_ZN3pcl8tracking21ParticleFilterTrackerINS_12PointXYZRGBAENS0_14ParticleXYZRPYEE20getUseChangeDetectorEv@Base 1.6
 (optional=templinst)_ZN3pcl8tracking21ParticleFilterTrackerINS_12PointXYZRGBAENS0_14ParticleXYZRPYEE20setOcclusionAngleTheEd@Base 1.6
 (optional=templinst)_ZN3pcl8tracking21ParticleFilterTrackerINS_12PointXYZRGBAENS0_14ParticleXYZRPYEE20setUseChangeDetectorEb@Base 1.6
 (optional=templinst)_ZN3pcl8tracking21ParticleFilterTrackerINS_12PointXYZRGBAENS0_14ParticleXYZRPYEE21sampleWithReplacementERKSt6vectorIiSaIiEERKS5_IdSaIdEE@Base 1.6
 (optional=templinst)_ZN3pcl8tracking21ParticleFilterTrackerINS_12PointXYZRGBAENS0_14ParticleXYZRPYEE22setStepNoiseCovarianceERKSt6vectorIdSaIdEE@Base 1.6
 (optional=templinst)_ZN3pcl8tracking21ParticleFilterTrackerINS_12PointXYZRGBAENS0_14ParticleXYZRPYEE23normalizeParticleWeightEddd@Base 1.6
 (optional=templinst)_ZN3pcl8tracking21ParticleFilterTrackerINS_12PointXYZRGBAENS0_14ParticleXYZRPYEE23resampleWithReplacementEv@Base 1.6
 (optional=templinst)_ZN3pcl8tracking21ParticleFilterTrackerINS_12PointXYZRGBAENS0_14ParticleXYZRPYEE24setResampleLikelihoodThrEd@Base 1.6
 (optional=templinst)_ZN3pcl8tracking21ParticleFilterTrackerINS_12PointXYZRGBAENS0_14ParticleXYZRPYEE25setInitialNoiseCovarianceERKSt6vectorIdSaIdEE@Base 1.6
 (optional=templinst)_ZN3pcl8tracking21ParticleFilterTrackerINS_12PointXYZRGBAENS0_14ParticleXYZRPYEE28computeTransformedPointCloudERKS3_RSt6vectorIiSaIiEERNS_10PointCloudIS2_EE@Base 1.6
 (optional=templinst)_ZN3pcl8tracking21ParticleFilterTrackerINS_12PointXYZRGBAENS0_14ParticleXYZRPYEE28getIntervalOfChangeDetectionEv@Base 1.6
 (optional=templinst)_ZN3pcl8tracking21ParticleFilterTrackerINS_12PointXYZRGBAENS0_14ParticleXYZRPYEE28setIntervalOfChangeDetectionEj@Base 1.6
 (optional=templinst)_ZN3pcl8tracking21ParticleFilterTrackerINS_12PointXYZRGBAENS0_14ParticleXYZRPYEE29getMinPointsOfChangeDetectionEv@Base 1.6
 (optional=templinst)_ZN3pcl8tracking21ParticleFilterTrackerINS_12PointXYZRGBAENS0_14ParticleXYZRPYEE29setMinPointsOfChangeDetectionEj@Base 1.6
 (optional=templinst)_ZN3pcl8tracking21ParticleFilterTrackerINS_12PointXYZRGBAENS0_14ParticleXYZRPYEE30getResolutionOfChangeDetectionEv@Base 1.6
 (optional=templinst)_ZN3pcl8tracking21ParticleFilterTrackerINS_12PointXYZRGBAENS0_14ParticleXYZRPYEE30setResolutionOfChangeDetectionEd@Base 1.6
 (optional=templinst)_ZN3pcl8tracking21ParticleFilterTrackerINS_12PointXYZRGBAENS0_14ParticleXYZRPYEE38computeTransformedPointCloudWithNormalERKS3_RSt6vectorIiSaIiEERNS_10PointCloudIS2_EE@Base 1.6
 (optional=templinst)_ZN3pcl8tracking21ParticleFilterTrackerINS_12PointXYZRGBAENS0_14ParticleXYZRPYEE41computeTransformedPointCloudWithoutNormalERKS3_RNS_10PointCloudIS2_EE@Base 1.6
 (optional=templinst)_ZN3pcl8tracking21ParticleFilterTrackerINS_12PointXYZRGBAENS0_14ParticleXYZRPYEE6updateEv@Base 1.6
 (optional=templinst)_ZN3pcl8tracking21ParticleFilterTrackerINS_12PointXYZRGBAENS0_14ParticleXYZRPYEE6weightEv@Base 1.6
 (optional=templinst)_ZN3pcl8tracking21ParticleFilterTrackerINS_12PointXYZRGBAENS0_14ParticleXYZRPYEE8getAlphaEv@Base 1.6
 (optional=templinst)_ZN3pcl8tracking21ParticleFilterTrackerINS_12PointXYZRGBAENS0_14ParticleXYZRPYEE8resampleEv@Base 1.6
 (optional=templinst)_ZN3pcl8tracking21ParticleFilterTrackerINS_12PointXYZRGBAENS0_14ParticleXYZRPYEE8setAlphaEd@Base 1.6
 (optional=templinst)_ZN3pcl8tracking21ParticleFilterTrackerINS_12PointXYZRGBAENS0_14ParticleXYZRPYEE8setTransERKN5Eigen9TransformIfLi3ELi2ELi0EEE@Base 1.6
 (optional=templinst)_ZN3pcl8tracking21ParticleFilterTrackerINS_12PointXYZRGBAENS0_14ParticleXYZRPYEEC1Ev@Base 1.6
 (optional=templinst)_ZN3pcl8tracking21ParticleFilterTrackerINS_12PointXYZRGBAENS0_14ParticleXYZRPYEEC2Ev@Base 1.6
 (optional=templinst)_ZN3pcl8tracking21ParticleFilterTrackerINS_12PointXYZRGBAENS0_14ParticleXYZRPYEED0Ev@Base 1.6
 (optional=templinst)_ZN3pcl8tracking21ParticleFilterTrackerINS_12PointXYZRGBAENS0_14ParticleXYZRPYEED1Ev@Base 1.6
 (optional=templinst)_ZN3pcl8tracking21ParticleFilterTrackerINS_12PointXYZRGBAENS0_14ParticleXYZRPYEED2Ev@Base 1.6
 (optional=templinst)_ZN3pcl8tracking21ParticleFilterTrackerINS_13InterestPointENS0_11ParticleXYREE11initComputeEv@Base 1.6
 (optional=templinst)_ZN3pcl8tracking21ParticleFilterTrackerINS_13InterestPointENS0_11ParticleXYREE12getUseNormalEv@Base 1.6
 (optional=templinst)_ZN3pcl8tracking21ParticleFilterTrackerINS_13InterestPointENS0_11ParticleXYREE12setUseNormalEb@Base 1.6
 (optional=templinst)_ZN3pcl8tracking21ParticleFilterTrackerINS_13InterestPointENS0_11ParticleXYREE13genAliasTableERSt6vectorIiSaIiEERS5_IdSaIdEERKN5boost10shared_ptrIKNS_10PointCloudIS3_EEEE@Base 1.6
 (optional=templinst)_ZN3pcl8tracking21ParticleFilterTrackerINS_13InterestPointENS0_11ParticleXYREE13initParticlesEb@Base 1.6
 (optional=templinst)_ZN3pcl8tracking21ParticleFilterTrackerINS_13InterestPointENS0_11ParticleXYREE13resetTrackingEv@Base 1.6
 (optional=templinst)_ZN3pcl8tracking21ParticleFilterTrackerINS_13InterestPointENS0_11ParticleXYREE13setMinIndicesEi@Base 1.6
 (optional=templinst)_ZN3pcl8tracking21ParticleFilterTrackerINS_13InterestPointENS0_11ParticleXYREE13toEigenMatrixERKS3_@Base 1.6
 (optional=templinst)_ZN3pcl8tracking21ParticleFilterTrackerINS_13InterestPointENS0_11ParticleXYREE14getMotionRatioEv@Base 1.6
 (optional=templinst)_ZN3pcl8tracking21ParticleFilterTrackerINS_13InterestPointENS0_11ParticleXYREE14setMotionRatioEd@Base 1.6
 (optional=templinst)_ZN3pcl8tracking21ParticleFilterTrackerINS_13InterestPointENS0_11ParticleXYREE14setParticleNumEi@Base 1.6
 (optional=templinst)_ZN3pcl8tracking21ParticleFilterTrackerINS_13InterestPointENS0_11ParticleXYREE15calcBoundingBoxERdS5_S5_S5_S5_S5_@Base 1.6
 (optional=templinst)_ZN3pcl8tracking21ParticleFilterTrackerINS_13InterestPointENS0_11ParticleXYREE15computeTrackingEv@Base 1.6
 (optional=templinst)_ZN3pcl8tracking21ParticleFilterTrackerINS_13InterestPointENS0_11ParticleXYREE15normalizeWeightEv@Base 1.6
 (optional=templinst)_ZN3pcl8tracking21ParticleFilterTrackerINS_13InterestPointENS0_11ParticleXYREE15setIterationNumEi@Base 1.6
 (optional=templinst)_ZN3pcl8tracking21ParticleFilterTrackerINS_13InterestPointENS0_11ParticleXYREE17getReferenceCloudEv@Base 1.6
 (optional=templinst)_ZN3pcl8tracking21ParticleFilterTrackerINS_13InterestPointENS0_11ParticleXYREE17setCloudCoherenceERKN5boost10shared_ptrINS0_19PointCloudCoherenceIS2_EEEE@Base 1.6
 (optional=templinst)_ZN3pcl8tracking21ParticleFilterTrackerINS_13InterestPointENS0_11ParticleXYREE17setReferenceCloudERKN5boost10shared_ptrIKNS_10PointCloudIS2_EEEE@Base 1.6
 (optional=templinst)_ZN3pcl8tracking21ParticleFilterTrackerINS_13InterestPointENS0_11ParticleXYREE19cropInputPointCloudERKN5boost10shared_ptrIKNS_10PointCloudIS2_EEEERS8_@Base 1.6
 (optional=templinst)_ZN3pcl8tracking21ParticleFilterTrackerINS_13InterestPointENS0_11ParticleXYREE19setInitialNoiseMeanERKSt6vectorIdSaIdEE@Base 1.6
 (optional=templinst)_ZN3pcl8tracking21ParticleFilterTrackerINS_13InterestPointENS0_11ParticleXYREE19testChangeDetectionERKN5boost10shared_ptrIKNS_10PointCloudIS2_EEEE@Base 1.6
 (optional=templinst)_ZN3pcl8tracking21ParticleFilterTrackerINS_13InterestPointENS0_11ParticleXYREE20getUseChangeDetectorEv@Base 1.6
 (optional=templinst)_ZN3pcl8tracking21ParticleFilterTrackerINS_13InterestPointENS0_11ParticleXYREE20setOcclusionAngleTheEd@Base 1.6
 (optional=templinst)_ZN3pcl8tracking21ParticleFilterTrackerINS_13InterestPointENS0_11ParticleXYREE20setUseChangeDetectorEb@Base 1.6
 (optional=templinst)_ZN3pcl8tracking21ParticleFilterTrackerINS_13InterestPointENS0_11ParticleXYREE21sampleWithReplacementERKSt6vectorIiSaIiEERKS5_IdSaIdEE@Base 1.6
 (optional=templinst)_ZN3pcl8tracking21ParticleFilterTrackerINS_13InterestPointENS0_11ParticleXYREE22setStepNoiseCovarianceERKSt6vectorIdSaIdEE@Base 1.6
 (optional=templinst)_ZN3pcl8tracking21ParticleFilterTrackerINS_13InterestPointENS0_11ParticleXYREE23normalizeParticleWeightEddd@Base 1.6
 (optional=templinst)_ZN3pcl8tracking21ParticleFilterTrackerINS_13InterestPointENS0_11ParticleXYREE23resampleWithReplacementEv@Base 1.6
 (optional=templinst)_ZN3pcl8tracking21ParticleFilterTrackerINS_13InterestPointENS0_11ParticleXYREE24setResampleLikelihoodThrEd@Base 1.6
 (optional=templinst)_ZN3pcl8tracking21ParticleFilterTrackerINS_13InterestPointENS0_11ParticleXYREE25setInitialNoiseCovarianceERKSt6vectorIdSaIdEE@Base 1.6
 (optional=templinst)_ZN3pcl8tracking21ParticleFilterTrackerINS_13InterestPointENS0_11ParticleXYREE28computeTransformedPointCloudERKS3_RSt6vectorIiSaIiEERNS_10PointCloudIS2_EE@Base 1.6
 (optional=templinst)_ZN3pcl8tracking21ParticleFilterTrackerINS_13InterestPointENS0_11ParticleXYREE28getIntervalOfChangeDetectionEv@Base 1.6
 (optional=templinst)_ZN3pcl8tracking21ParticleFilterTrackerINS_13InterestPointENS0_11ParticleXYREE28setIntervalOfChangeDetectionEj@Base 1.6
 (optional=templinst)_ZN3pcl8tracking21ParticleFilterTrackerINS_13InterestPointENS0_11ParticleXYREE29getMinPointsOfChangeDetectionEv@Base 1.6
 (optional=templinst)_ZN3pcl8tracking21ParticleFilterTrackerINS_13InterestPointENS0_11ParticleXYREE29setMinPointsOfChangeDetectionEj@Base 1.6
 (optional=templinst)_ZN3pcl8tracking21ParticleFilterTrackerINS_13InterestPointENS0_11ParticleXYREE30getResolutionOfChangeDetectionEv@Base 1.6
 (optional=templinst)_ZN3pcl8tracking21ParticleFilterTrackerINS_13InterestPointENS0_11ParticleXYREE30setResolutionOfChangeDetectionEd@Base 1.6
 (optional=templinst)_ZN3pcl8tracking21ParticleFilterTrackerINS_13InterestPointENS0_11ParticleXYREE38computeTransformedPointCloudWithNormalERKS3_RSt6vectorIiSaIiEERNS_10PointCloudIS2_EE@Base 1.6
 (optional=templinst)_ZN3pcl8tracking21ParticleFilterTrackerINS_13InterestPointENS0_11ParticleXYREE41computeTransformedPointCloudWithoutNormalERKS3_RNS_10PointCloudIS2_EE@Base 1.6
 (optional=templinst)_ZN3pcl8tracking21ParticleFilterTrackerINS_13InterestPointENS0_11ParticleXYREE6updateEv@Base 1.6
 (optional=templinst)_ZN3pcl8tracking21ParticleFilterTrackerINS_13InterestPointENS0_11ParticleXYREE6weightEv@Base 1.6
 (optional=templinst)_ZN3pcl8tracking21ParticleFilterTrackerINS_13InterestPointENS0_11ParticleXYREE8getAlphaEv@Base 1.6
 (optional=templinst)_ZN3pcl8tracking21ParticleFilterTrackerINS_13InterestPointENS0_11ParticleXYREE8resampleEv@Base 1.6
 (optional=templinst)_ZN3pcl8tracking21ParticleFilterTrackerINS_13InterestPointENS0_11ParticleXYREE8setAlphaEd@Base 1.6
 (optional=templinst)_ZN3pcl8tracking21ParticleFilterTrackerINS_13InterestPointENS0_11ParticleXYREE8setTransERKN5Eigen9TransformIfLi3ELi2ELi0EEE@Base 1.6
 (optional=templinst)_ZN3pcl8tracking21ParticleFilterTrackerINS_13InterestPointENS0_11ParticleXYREEC1Ev@Base 1.6
 (optional=templinst)_ZN3pcl8tracking21ParticleFilterTrackerINS_13InterestPointENS0_11ParticleXYREEC2Ev@Base 1.6
 (optional=templinst)_ZN3pcl8tracking21ParticleFilterTrackerINS_13InterestPointENS0_11ParticleXYREED0Ev@Base 1.6
 (optional=templinst)_ZN3pcl8tracking21ParticleFilterTrackerINS_13InterestPointENS0_11ParticleXYREED1Ev@Base 1.6
 (optional=templinst)_ZN3pcl8tracking21ParticleFilterTrackerINS_13InterestPointENS0_11ParticleXYREED2Ev@Base 1.6
 (optional=templinst)_ZN3pcl8tracking21ParticleFilterTrackerINS_13InterestPointENS0_12ParticleXYRPEE11initComputeEv@Base 1.6
 (optional=templinst)_ZN3pcl8tracking21ParticleFilterTrackerINS_13InterestPointENS0_12ParticleXYRPEE12getUseNormalEv@Base 1.6
 (optional=templinst)_ZN3pcl8tracking21ParticleFilterTrackerINS_13InterestPointENS0_12ParticleXYRPEE12setUseNormalEb@Base 1.6
 (optional=templinst)_ZN3pcl8tracking21ParticleFilterTrackerINS_13InterestPointENS0_12ParticleXYRPEE13genAliasTableERSt6vectorIiSaIiEERS5_IdSaIdEERKN5boost10shared_ptrIKNS_10PointCloudIS3_EEEE@Base 1.6
 (optional=templinst)_ZN3pcl8tracking21ParticleFilterTrackerINS_13InterestPointENS0_12ParticleXYRPEE13initParticlesEb@Base 1.6
 (optional=templinst)_ZN3pcl8tracking21ParticleFilterTrackerINS_13InterestPointENS0_12ParticleXYRPEE13resetTrackingEv@Base 1.6
 (optional=templinst)_ZN3pcl8tracking21ParticleFilterTrackerINS_13InterestPointENS0_12ParticleXYRPEE13setMinIndicesEi@Base 1.6
 (optional=templinst)_ZN3pcl8tracking21ParticleFilterTrackerINS_13InterestPointENS0_12ParticleXYRPEE13toEigenMatrixERKS3_@Base 1.6
 (optional=templinst)_ZN3pcl8tracking21ParticleFilterTrackerINS_13InterestPointENS0_12ParticleXYRPEE14getMotionRatioEv@Base 1.6
 (optional=templinst)_ZN3pcl8tracking21ParticleFilterTrackerINS_13InterestPointENS0_12ParticleXYRPEE14setMotionRatioEd@Base 1.6
 (optional=templinst)_ZN3pcl8tracking21ParticleFilterTrackerINS_13InterestPointENS0_12ParticleXYRPEE14setParticleNumEi@Base 1.6
 (optional=templinst)_ZN3pcl8tracking21ParticleFilterTrackerINS_13InterestPointENS0_12ParticleXYRPEE15calcBoundingBoxERdS5_S5_S5_S5_S5_@Base 1.6
 (optional=templinst)_ZN3pcl8tracking21ParticleFilterTrackerINS_13InterestPointENS0_12ParticleXYRPEE15computeTrackingEv@Base 1.6
 (optional=templinst)_ZN3pcl8tracking21ParticleFilterTrackerINS_13InterestPointENS0_12ParticleXYRPEE15normalizeWeightEv@Base 1.6
 (optional=templinst)_ZN3pcl8tracking21ParticleFilterTrackerINS_13InterestPointENS0_12ParticleXYRPEE15setIterationNumEi@Base 1.6
 (optional=templinst)_ZN3pcl8tracking21ParticleFilterTrackerINS_13InterestPointENS0_12ParticleXYRPEE17getReferenceCloudEv@Base 1.6
 (optional=templinst)_ZN3pcl8tracking21ParticleFilterTrackerINS_13InterestPointENS0_12ParticleXYRPEE17setCloudCoherenceERKN5boost10shared_ptrINS0_19PointCloudCoherenceIS2_EEEE@Base 1.6
 (optional=templinst)_ZN3pcl8tracking21ParticleFilterTrackerINS_13InterestPointENS0_12ParticleXYRPEE17setReferenceCloudERKN5boost10shared_ptrIKNS_10PointCloudIS2_EEEE@Base 1.6
 (optional=templinst)_ZN3pcl8tracking21ParticleFilterTrackerINS_13InterestPointENS0_12ParticleXYRPEE19cropInputPointCloudERKN5boost10shared_ptrIKNS_10PointCloudIS2_EEEERS8_@Base 1.6
 (optional=templinst)_ZN3pcl8tracking21ParticleFilterTrackerINS_13InterestPointENS0_12ParticleXYRPEE19setInitialNoiseMeanERKSt6vectorIdSaIdEE@Base 1.6
 (optional=templinst)_ZN3pcl8tracking21ParticleFilterTrackerINS_13InterestPointENS0_12ParticleXYRPEE19testChangeDetectionERKN5boost10shared_ptrIKNS_10PointCloudIS2_EEEE@Base 1.6
 (optional=templinst)_ZN3pcl8tracking21ParticleFilterTrackerINS_13InterestPointENS0_12ParticleXYRPEE20getUseChangeDetectorEv@Base 1.6
 (optional=templinst)_ZN3pcl8tracking21ParticleFilterTrackerINS_13InterestPointENS0_12ParticleXYRPEE20setOcclusionAngleTheEd@Base 1.6
 (optional=templinst)_ZN3pcl8tracking21ParticleFilterTrackerINS_13InterestPointENS0_12ParticleXYRPEE20setUseChangeDetectorEb@Base 1.6
 (optional=templinst)_ZN3pcl8tracking21ParticleFilterTrackerINS_13InterestPointENS0_12ParticleXYRPEE21sampleWithReplacementERKSt6vectorIiSaIiEERKS5_IdSaIdEE@Base 1.6
 (optional=templinst)_ZN3pcl8tracking21ParticleFilterTrackerINS_13InterestPointENS0_12ParticleXYRPEE22setStepNoiseCovarianceERKSt6vectorIdSaIdEE@Base 1.6
 (optional=templinst)_ZN3pcl8tracking21ParticleFilterTrackerINS_13InterestPointENS0_12ParticleXYRPEE23normalizeParticleWeightEddd@Base 1.6
 (optional=templinst)_ZN3pcl8tracking21ParticleFilterTrackerINS_13InterestPointENS0_12ParticleXYRPEE23resampleWithReplacementEv@Base 1.6
 (optional=templinst)_ZN3pcl8tracking21ParticleFilterTrackerINS_13InterestPointENS0_12ParticleXYRPEE24setResampleLikelihoodThrEd@Base 1.6
 (optional=templinst)_ZN3pcl8tracking21ParticleFilterTrackerINS_13InterestPointENS0_12ParticleXYRPEE25setInitialNoiseCovarianceERKSt6vectorIdSaIdEE@Base 1.6
 (optional=templinst)_ZN3pcl8tracking21ParticleFilterTrackerINS_13InterestPointENS0_12ParticleXYRPEE28computeTransformedPointCloudERKS3_RSt6vectorIiSaIiEERNS_10PointCloudIS2_EE@Base 1.6
 (optional=templinst)_ZN3pcl8tracking21ParticleFilterTrackerINS_13InterestPointENS0_12ParticleXYRPEE28getIntervalOfChangeDetectionEv@Base 1.6
 (optional=templinst)_ZN3pcl8tracking21ParticleFilterTrackerINS_13InterestPointENS0_12ParticleXYRPEE28setIntervalOfChangeDetectionEj@Base 1.6
 (optional=templinst)_ZN3pcl8tracking21ParticleFilterTrackerINS_13InterestPointENS0_12ParticleXYRPEE29getMinPointsOfChangeDetectionEv@Base 1.6
 (optional=templinst)_ZN3pcl8tracking21ParticleFilterTrackerINS_13InterestPointENS0_12ParticleXYRPEE29setMinPointsOfChangeDetectionEj@Base 1.6
 (optional=templinst)_ZN3pcl8tracking21ParticleFilterTrackerINS_13InterestPointENS0_12ParticleXYRPEE30getResolutionOfChangeDetectionEv@Base 1.6
 (optional=templinst)_ZN3pcl8tracking21ParticleFilterTrackerINS_13InterestPointENS0_12ParticleXYRPEE30setResolutionOfChangeDetectionEd@Base 1.6
 (optional=templinst)_ZN3pcl8tracking21ParticleFilterTrackerINS_13InterestPointENS0_12ParticleXYRPEE38computeTransformedPointCloudWithNormalERKS3_RSt6vectorIiSaIiEERNS_10PointCloudIS2_EE@Base 1.6
 (optional=templinst)_ZN3pcl8tracking21ParticleFilterTrackerINS_13InterestPointENS0_12ParticleXYRPEE41computeTransformedPointCloudWithoutNormalERKS3_RNS_10PointCloudIS2_EE@Base 1.6
 (optional=templinst)_ZN3pcl8tracking21ParticleFilterTrackerINS_13InterestPointENS0_12ParticleXYRPEE6updateEv@Base 1.6
 (optional=templinst)_ZN3pcl8tracking21ParticleFilterTrackerINS_13InterestPointENS0_12ParticleXYRPEE6weightEv@Base 1.6
 (optional=templinst)_ZN3pcl8tracking21ParticleFilterTrackerINS_13InterestPointENS0_12ParticleXYRPEE8getAlphaEv@Base 1.6
 (optional=templinst)_ZN3pcl8tracking21ParticleFilterTrackerINS_13InterestPointENS0_12ParticleXYRPEE8resampleEv@Base 1.6
 (optional=templinst)_ZN3pcl8tracking21ParticleFilterTrackerINS_13InterestPointENS0_12ParticleXYRPEE8setAlphaEd@Base 1.6
 (optional=templinst)_ZN3pcl8tracking21ParticleFilterTrackerINS_13InterestPointENS0_12ParticleXYRPEE8setTransERKN5Eigen9TransformIfLi3ELi2ELi0EEE@Base 1.6
 (optional=templinst)_ZN3pcl8tracking21ParticleFilterTrackerINS_13InterestPointENS0_12ParticleXYRPEEC1Ev@Base 1.6
 (optional=templinst)_ZN3pcl8tracking21ParticleFilterTrackerINS_13InterestPointENS0_12ParticleXYRPEEC2Ev@Base 1.6
 (optional=templinst)_ZN3pcl8tracking21ParticleFilterTrackerINS_13InterestPointENS0_12ParticleXYRPEED0Ev@Base 1.6
 (optional=templinst)_ZN3pcl8tracking21ParticleFilterTrackerINS_13InterestPointENS0_12ParticleXYRPEED1Ev@Base 1.6
 (optional=templinst)_ZN3pcl8tracking21ParticleFilterTrackerINS_13InterestPointENS0_12ParticleXYRPEED2Ev@Base 1.6
 (optional=templinst)_ZN3pcl8tracking21ParticleFilterTrackerINS_13InterestPointENS0_12ParticleXYZREE11initComputeEv@Base 1.6
 (optional=templinst)_ZN3pcl8tracking21ParticleFilterTrackerINS_13InterestPointENS0_12ParticleXYZREE12getUseNormalEv@Base 1.6
 (optional=templinst)_ZN3pcl8tracking21ParticleFilterTrackerINS_13InterestPointENS0_12ParticleXYZREE12setUseNormalEb@Base 1.6
 (optional=templinst)_ZN3pcl8tracking21ParticleFilterTrackerINS_13InterestPointENS0_12ParticleXYZREE13genAliasTableERSt6vectorIiSaIiEERS5_IdSaIdEERKN5boost10shared_ptrIKNS_10PointCloudIS3_EEEE@Base 1.6
 (optional=templinst)_ZN3pcl8tracking21ParticleFilterTrackerINS_13InterestPointENS0_12ParticleXYZREE13initParticlesEb@Base 1.6
 (optional=templinst)_ZN3pcl8tracking21ParticleFilterTrackerINS_13InterestPointENS0_12ParticleXYZREE13resetTrackingEv@Base 1.6
 (optional=templinst)_ZN3pcl8tracking21ParticleFilterTrackerINS_13InterestPointENS0_12ParticleXYZREE13setMinIndicesEi@Base 1.6
 (optional=templinst)_ZN3pcl8tracking21ParticleFilterTrackerINS_13InterestPointENS0_12ParticleXYZREE13toEigenMatrixERKS3_@Base 1.6
 (optional=templinst)_ZN3pcl8tracking21ParticleFilterTrackerINS_13InterestPointENS0_12ParticleXYZREE14getMotionRatioEv@Base 1.6
 (optional=templinst)_ZN3pcl8tracking21ParticleFilterTrackerINS_13InterestPointENS0_12ParticleXYZREE14setMotionRatioEd@Base 1.6
 (optional=templinst)_ZN3pcl8tracking21ParticleFilterTrackerINS_13InterestPointENS0_12ParticleXYZREE14setParticleNumEi@Base 1.6
 (optional=templinst)_ZN3pcl8tracking21ParticleFilterTrackerINS_13InterestPointENS0_12ParticleXYZREE15calcBoundingBoxERdS5_S5_S5_S5_S5_@Base 1.6
 (optional=templinst)_ZN3pcl8tracking21ParticleFilterTrackerINS_13InterestPointENS0_12ParticleXYZREE15computeTrackingEv@Base 1.6
 (optional=templinst)_ZN3pcl8tracking21ParticleFilterTrackerINS_13InterestPointENS0_12ParticleXYZREE15normalizeWeightEv@Base 1.6
 (optional=templinst)_ZN3pcl8tracking21ParticleFilterTrackerINS_13InterestPointENS0_12ParticleXYZREE15setIterationNumEi@Base 1.6
 (optional=templinst)_ZN3pcl8tracking21ParticleFilterTrackerINS_13InterestPointENS0_12ParticleXYZREE17getReferenceCloudEv@Base 1.6
 (optional=templinst)_ZN3pcl8tracking21ParticleFilterTrackerINS_13InterestPointENS0_12ParticleXYZREE17setCloudCoherenceERKN5boost10shared_ptrINS0_19PointCloudCoherenceIS2_EEEE@Base 1.6
 (optional=templinst)_ZN3pcl8tracking21ParticleFilterTrackerINS_13InterestPointENS0_12ParticleXYZREE17setReferenceCloudERKN5boost10shared_ptrIKNS_10PointCloudIS2_EEEE@Base 1.6
 (optional=templinst)_ZN3pcl8tracking21ParticleFilterTrackerINS_13InterestPointENS0_12ParticleXYZREE19cropInputPointCloudERKN5boost10shared_ptrIKNS_10PointCloudIS2_EEEERS8_@Base 1.6
 (optional=templinst)_ZN3pcl8tracking21ParticleFilterTrackerINS_13InterestPointENS0_12ParticleXYZREE19setInitialNoiseMeanERKSt6vectorIdSaIdEE@Base 1.6
 (optional=templinst)_ZN3pcl8tracking21ParticleFilterTrackerINS_13InterestPointENS0_12ParticleXYZREE19testChangeDetectionERKN5boost10shared_ptrIKNS_10PointCloudIS2_EEEE@Base 1.6
 (optional=templinst)_ZN3pcl8tracking21ParticleFilterTrackerINS_13InterestPointENS0_12ParticleXYZREE20getUseChangeDetectorEv@Base 1.6
 (optional=templinst)_ZN3pcl8tracking21ParticleFilterTrackerINS_13InterestPointENS0_12ParticleXYZREE20setOcclusionAngleTheEd@Base 1.6
 (optional=templinst)_ZN3pcl8tracking21ParticleFilterTrackerINS_13InterestPointENS0_12ParticleXYZREE20setUseChangeDetectorEb@Base 1.6
 (optional=templinst)_ZN3pcl8tracking21ParticleFilterTrackerINS_13InterestPointENS0_12ParticleXYZREE21sampleWithReplacementERKSt6vectorIiSaIiEERKS5_IdSaIdEE@Base 1.6
 (optional=templinst)_ZN3pcl8tracking21ParticleFilterTrackerINS_13InterestPointENS0_12ParticleXYZREE22setStepNoiseCovarianceERKSt6vectorIdSaIdEE@Base 1.6
 (optional=templinst)_ZN3pcl8tracking21ParticleFilterTrackerINS_13InterestPointENS0_12ParticleXYZREE23normalizeParticleWeightEddd@Base 1.6
 (optional=templinst)_ZN3pcl8tracking21ParticleFilterTrackerINS_13InterestPointENS0_12ParticleXYZREE23resampleWithReplacementEv@Base 1.6
 (optional=templinst)_ZN3pcl8tracking21ParticleFilterTrackerINS_13InterestPointENS0_12ParticleXYZREE24setResampleLikelihoodThrEd@Base 1.6
 (optional=templinst)_ZN3pcl8tracking21ParticleFilterTrackerINS_13InterestPointENS0_12ParticleXYZREE25setInitialNoiseCovarianceERKSt6vectorIdSaIdEE@Base 1.6
 (optional=templinst)_ZN3pcl8tracking21ParticleFilterTrackerINS_13InterestPointENS0_12ParticleXYZREE28computeTransformedPointCloudERKS3_RSt6vectorIiSaIiEERNS_10PointCloudIS2_EE@Base 1.6
 (optional=templinst)_ZN3pcl8tracking21ParticleFilterTrackerINS_13InterestPointENS0_12ParticleXYZREE28getIntervalOfChangeDetectionEv@Base 1.6
 (optional=templinst)_ZN3pcl8tracking21ParticleFilterTrackerINS_13InterestPointENS0_12ParticleXYZREE28setIntervalOfChangeDetectionEj@Base 1.6
 (optional=templinst)_ZN3pcl8tracking21ParticleFilterTrackerINS_13InterestPointENS0_12ParticleXYZREE29getMinPointsOfChangeDetectionEv@Base 1.6
 (optional=templinst)_ZN3pcl8tracking21ParticleFilterTrackerINS_13InterestPointENS0_12ParticleXYZREE29setMinPointsOfChangeDetectionEj@Base 1.6
 (optional=templinst)_ZN3pcl8tracking21ParticleFilterTrackerINS_13InterestPointENS0_12ParticleXYZREE30getResolutionOfChangeDetectionEv@Base 1.6
 (optional=templinst)_ZN3pcl8tracking21ParticleFilterTrackerINS_13InterestPointENS0_12ParticleXYZREE30setResolutionOfChangeDetectionEd@Base 1.6
 (optional=templinst)_ZN3pcl8tracking21ParticleFilterTrackerINS_13InterestPointENS0_12ParticleXYZREE38computeTransformedPointCloudWithNormalERKS3_RSt6vectorIiSaIiEERNS_10PointCloudIS2_EE@Base 1.6
 (optional=templinst)_ZN3pcl8tracking21ParticleFilterTrackerINS_13InterestPointENS0_12ParticleXYZREE41computeTransformedPointCloudWithoutNormalERKS3_RNS_10PointCloudIS2_EE@Base 1.6
 (optional=templinst)_ZN3pcl8tracking21ParticleFilterTrackerINS_13InterestPointENS0_12ParticleXYZREE6updateEv@Base 1.6
 (optional=templinst)_ZN3pcl8tracking21ParticleFilterTrackerINS_13InterestPointENS0_12ParticleXYZREE6weightEv@Base 1.6
 (optional=templinst)_ZN3pcl8tracking21ParticleFilterTrackerINS_13InterestPointENS0_12ParticleXYZREE8getAlphaEv@Base 1.6
 (optional=templinst)_ZN3pcl8tracking21ParticleFilterTrackerINS_13InterestPointENS0_12ParticleXYZREE8resampleEv@Base 1.6
 (optional=templinst)_ZN3pcl8tracking21ParticleFilterTrackerINS_13InterestPointENS0_12ParticleXYZREE8setAlphaEd@Base 1.6
 (optional=templinst)_ZN3pcl8tracking21ParticleFilterTrackerINS_13InterestPointENS0_12ParticleXYZREE8setTransERKN5Eigen9TransformIfLi3ELi2ELi0EEE@Base 1.6
 (optional=templinst)_ZN3pcl8tracking21ParticleFilterTrackerINS_13InterestPointENS0_12ParticleXYZREEC1Ev@Base 1.6
 (optional=templinst)_ZN3pcl8tracking21ParticleFilterTrackerINS_13InterestPointENS0_12ParticleXYZREEC2Ev@Base 1.6
 (optional=templinst)_ZN3pcl8tracking21ParticleFilterTrackerINS_13InterestPointENS0_12ParticleXYZREED0Ev@Base 1.6
 (optional=templinst)_ZN3pcl8tracking21ParticleFilterTrackerINS_13InterestPointENS0_12ParticleXYZREED1Ev@Base 1.6
 (optional=templinst)_ZN3pcl8tracking21ParticleFilterTrackerINS_13InterestPointENS0_12ParticleXYZREED2Ev@Base 1.6
 (optional=templinst)_ZN3pcl8tracking21ParticleFilterTrackerINS_13InterestPointENS0_13ParticleXYRPYEE11initComputeEv@Base 1.6
 (optional=templinst)_ZN3pcl8tracking21ParticleFilterTrackerINS_13InterestPointENS0_13ParticleXYRPYEE12getUseNormalEv@Base 1.6
 (optional=templinst)_ZN3pcl8tracking21ParticleFilterTrackerINS_13InterestPointENS0_13ParticleXYRPYEE12setUseNormalEb@Base 1.6
 (optional=templinst)_ZN3pcl8tracking21ParticleFilterTrackerINS_13InterestPointENS0_13ParticleXYRPYEE13genAliasTableERSt6vectorIiSaIiEERS5_IdSaIdEERKN5boost10shared_ptrIKNS_10PointCloudIS3_EEEE@Base 1.6
 (optional=templinst)_ZN3pcl8tracking21ParticleFilterTrackerINS_13InterestPointENS0_13ParticleXYRPYEE13initParticlesEb@Base 1.6
 (optional=templinst)_ZN3pcl8tracking21ParticleFilterTrackerINS_13InterestPointENS0_13ParticleXYRPYEE13resetTrackingEv@Base 1.6
 (optional=templinst)_ZN3pcl8tracking21ParticleFilterTrackerINS_13InterestPointENS0_13ParticleXYRPYEE13setMinIndicesEi@Base 1.6
 (optional=templinst)_ZN3pcl8tracking21ParticleFilterTrackerINS_13InterestPointENS0_13ParticleXYRPYEE13toEigenMatrixERKS3_@Base 1.6
 (optional=templinst)_ZN3pcl8tracking21ParticleFilterTrackerINS_13InterestPointENS0_13ParticleXYRPYEE14getMotionRatioEv@Base 1.6
 (optional=templinst)_ZN3pcl8tracking21ParticleFilterTrackerINS_13InterestPointENS0_13ParticleXYRPYEE14setMotionRatioEd@Base 1.6
 (optional=templinst)_ZN3pcl8tracking21ParticleFilterTrackerINS_13InterestPointENS0_13ParticleXYRPYEE14setParticleNumEi@Base 1.6
 (optional=templinst)_ZN3pcl8tracking21ParticleFilterTrackerINS_13InterestPointENS0_13ParticleXYRPYEE15calcBoundingBoxERdS5_S5_S5_S5_S5_@Base 1.6
 (optional=templinst)_ZN3pcl8tracking21ParticleFilterTrackerINS_13InterestPointENS0_13ParticleXYRPYEE15computeTrackingEv@Base 1.6
 (optional=templinst)_ZN3pcl8tracking21ParticleFilterTrackerINS_13InterestPointENS0_13ParticleXYRPYEE15normalizeWeightEv@Base 1.6
 (optional=templinst)_ZN3pcl8tracking21ParticleFilterTrackerINS_13InterestPointENS0_13ParticleXYRPYEE15setIterationNumEi@Base 1.6
 (optional=templinst)_ZN3pcl8tracking21ParticleFilterTrackerINS_13InterestPointENS0_13ParticleXYRPYEE17getReferenceCloudEv@Base 1.6
 (optional=templinst)_ZN3pcl8tracking21ParticleFilterTrackerINS_13InterestPointENS0_13ParticleXYRPYEE17setCloudCoherenceERKN5boost10shared_ptrINS0_19PointCloudCoherenceIS2_EEEE@Base 1.6
 (optional=templinst)_ZN3pcl8tracking21ParticleFilterTrackerINS_13InterestPointENS0_13ParticleXYRPYEE17setReferenceCloudERKN5boost10shared_ptrIKNS_10PointCloudIS2_EEEE@Base 1.6
 (optional=templinst)_ZN3pcl8tracking21ParticleFilterTrackerINS_13InterestPointENS0_13ParticleXYRPYEE19cropInputPointCloudERKN5boost10shared_ptrIKNS_10PointCloudIS2_EEEERS8_@Base 1.6
 (optional=templinst)_ZN3pcl8tracking21ParticleFilterTrackerINS_13InterestPointENS0_13ParticleXYRPYEE19setInitialNoiseMeanERKSt6vectorIdSaIdEE@Base 1.6
 (optional=templinst)_ZN3pcl8tracking21ParticleFilterTrackerINS_13InterestPointENS0_13ParticleXYRPYEE19testChangeDetectionERKN5boost10shared_ptrIKNS_10PointCloudIS2_EEEE@Base 1.6
 (optional=templinst)_ZN3pcl8tracking21ParticleFilterTrackerINS_13InterestPointENS0_13ParticleXYRPYEE20getUseChangeDetectorEv@Base 1.6
 (optional=templinst)_ZN3pcl8tracking21ParticleFilterTrackerINS_13InterestPointENS0_13ParticleXYRPYEE20setOcclusionAngleTheEd@Base 1.6
 (optional=templinst)_ZN3pcl8tracking21ParticleFilterTrackerINS_13InterestPointENS0_13ParticleXYRPYEE20setUseChangeDetectorEb@Base 1.6
 (optional=templinst)_ZN3pcl8tracking21ParticleFilterTrackerINS_13InterestPointENS0_13ParticleXYRPYEE21sampleWithReplacementERKSt6vectorIiSaIiEERKS5_IdSaIdEE@Base 1.6
 (optional=templinst)_ZN3pcl8tracking21ParticleFilterTrackerINS_13InterestPointENS0_13ParticleXYRPYEE22setStepNoiseCovarianceERKSt6vectorIdSaIdEE@Base 1.6
 (optional=templinst)_ZN3pcl8tracking21ParticleFilterTrackerINS_13InterestPointENS0_13ParticleXYRPYEE23normalizeParticleWeightEddd@Base 1.6
 (optional=templinst)_ZN3pcl8tracking21ParticleFilterTrackerINS_13InterestPointENS0_13ParticleXYRPYEE23resampleWithReplacementEv@Base 1.6
 (optional=templinst)_ZN3pcl8tracking21ParticleFilterTrackerINS_13InterestPointENS0_13ParticleXYRPYEE24setResampleLikelihoodThrEd@Base 1.6
 (optional=templinst)_ZN3pcl8tracking21ParticleFilterTrackerINS_13InterestPointENS0_13ParticleXYRPYEE25setInitialNoiseCovarianceERKSt6vectorIdSaIdEE@Base 1.6
 (optional=templinst)_ZN3pcl8tracking21ParticleFilterTrackerINS_13InterestPointENS0_13ParticleXYRPYEE28computeTransformedPointCloudERKS3_RSt6vectorIiSaIiEERNS_10PointCloudIS2_EE@Base 1.6
 (optional=templinst)_ZN3pcl8tracking21ParticleFilterTrackerINS_13InterestPointENS0_13ParticleXYRPYEE28getIntervalOfChangeDetectionEv@Base 1.6
 (optional=templinst)_ZN3pcl8tracking21ParticleFilterTrackerINS_13InterestPointENS0_13ParticleXYRPYEE28setIntervalOfChangeDetectionEj@Base 1.6
 (optional=templinst)_ZN3pcl8tracking21ParticleFilterTrackerINS_13InterestPointENS0_13ParticleXYRPYEE29getMinPointsOfChangeDetectionEv@Base 1.6
 (optional=templinst)_ZN3pcl8tracking21ParticleFilterTrackerINS_13InterestPointENS0_13ParticleXYRPYEE29setMinPointsOfChangeDetectionEj@Base 1.6
 (optional=templinst)_ZN3pcl8tracking21ParticleFilterTrackerINS_13InterestPointENS0_13ParticleXYRPYEE30getResolutionOfChangeDetectionEv@Base 1.6
 (optional=templinst)_ZN3pcl8tracking21ParticleFilterTrackerINS_13InterestPointENS0_13ParticleXYRPYEE30setResolutionOfChangeDetectionEd@Base 1.6
 (optional=templinst)_ZN3pcl8tracking21ParticleFilterTrackerINS_13InterestPointENS0_13ParticleXYRPYEE38computeTransformedPointCloudWithNormalERKS3_RSt6vectorIiSaIiEERNS_10PointCloudIS2_EE@Base 1.6
 (optional=templinst)_ZN3pcl8tracking21ParticleFilterTrackerINS_13InterestPointENS0_13ParticleXYRPYEE41computeTransformedPointCloudWithoutNormalERKS3_RNS_10PointCloudIS2_EE@Base 1.6
 (optional=templinst)_ZN3pcl8tracking21ParticleFilterTrackerINS_13InterestPointENS0_13ParticleXYRPYEE6updateEv@Base 1.6
 (optional=templinst)_ZN3pcl8tracking21ParticleFilterTrackerINS_13InterestPointENS0_13ParticleXYRPYEE6weightEv@Base 1.6
 (optional=templinst)_ZN3pcl8tracking21ParticleFilterTrackerINS_13InterestPointENS0_13ParticleXYRPYEE8getAlphaEv@Base 1.6
 (optional=templinst)_ZN3pcl8tracking21ParticleFilterTrackerINS_13InterestPointENS0_13ParticleXYRPYEE8resampleEv@Base 1.6
 (optional=templinst)_ZN3pcl8tracking21ParticleFilterTrackerINS_13InterestPointENS0_13ParticleXYRPYEE8setAlphaEd@Base 1.6
 (optional=templinst)_ZN3pcl8tracking21ParticleFilterTrackerINS_13InterestPointENS0_13ParticleXYRPYEE8setTransERKN5Eigen9TransformIfLi3ELi2ELi0EEE@Base 1.6
 (optional=templinst)_ZN3pcl8tracking21ParticleFilterTrackerINS_13InterestPointENS0_13ParticleXYRPYEEC1Ev@Base 1.6
 (optional=templinst)_ZN3pcl8tracking21ParticleFilterTrackerINS_13InterestPointENS0_13ParticleXYRPYEEC2Ev@Base 1.6
 (optional=templinst)_ZN3pcl8tracking21ParticleFilterTrackerINS_13InterestPointENS0_13ParticleXYRPYEED0Ev@Base 1.6
 (optional=templinst)_ZN3pcl8tracking21ParticleFilterTrackerINS_13InterestPointENS0_13ParticleXYRPYEED1Ev@Base 1.6
 (optional=templinst)_ZN3pcl8tracking21ParticleFilterTrackerINS_13InterestPointENS0_13ParticleXYRPYEED2Ev@Base 1.6
 (optional=templinst)_ZN3pcl8tracking21ParticleFilterTrackerINS_13InterestPointENS0_14ParticleXYZRPYEE11initComputeEv@Base 1.6
 (optional=templinst)_ZN3pcl8tracking21ParticleFilterTrackerINS_13InterestPointENS0_14ParticleXYZRPYEE12getUseNormalEv@Base 1.6
 (optional=templinst)_ZN3pcl8tracking21ParticleFilterTrackerINS_13InterestPointENS0_14ParticleXYZRPYEE12setUseNormalEb@Base 1.6
 (optional=templinst)_ZN3pcl8tracking21ParticleFilterTrackerINS_13InterestPointENS0_14ParticleXYZRPYEE13genAliasTableERSt6vectorIiSaIiEERS5_IdSaIdEERKN5boost10shared_ptrIKNS_10PointCloudIS3_EEEE@Base 1.6
 (optional=templinst)_ZN3pcl8tracking21ParticleFilterTrackerINS_13InterestPointENS0_14ParticleXYZRPYEE13initParticlesEb@Base 1.6
 (optional=templinst)_ZN3pcl8tracking21ParticleFilterTrackerINS_13InterestPointENS0_14ParticleXYZRPYEE13resetTrackingEv@Base 1.6
 (optional=templinst)_ZN3pcl8tracking21ParticleFilterTrackerINS_13InterestPointENS0_14ParticleXYZRPYEE13setMinIndicesEi@Base 1.6
 (optional=templinst)_ZN3pcl8tracking21ParticleFilterTrackerINS_13InterestPointENS0_14ParticleXYZRPYEE13toEigenMatrixERKS3_@Base 1.6
 (optional=templinst)_ZN3pcl8tracking21ParticleFilterTrackerINS_13InterestPointENS0_14ParticleXYZRPYEE14getMotionRatioEv@Base 1.6
 (optional=templinst)_ZN3pcl8tracking21ParticleFilterTrackerINS_13InterestPointENS0_14ParticleXYZRPYEE14setMotionRatioEd@Base 1.6
 (optional=templinst)_ZN3pcl8tracking21ParticleFilterTrackerINS_13InterestPointENS0_14ParticleXYZRPYEE14setParticleNumEi@Base 1.6
 (optional=templinst)_ZN3pcl8tracking21ParticleFilterTrackerINS_13InterestPointENS0_14ParticleXYZRPYEE15calcBoundingBoxERdS5_S5_S5_S5_S5_@Base 1.6
 (optional=templinst)_ZN3pcl8tracking21ParticleFilterTrackerINS_13InterestPointENS0_14ParticleXYZRPYEE15computeTrackingEv@Base 1.6
 (optional=templinst)_ZN3pcl8tracking21ParticleFilterTrackerINS_13InterestPointENS0_14ParticleXYZRPYEE15normalizeWeightEv@Base 1.6
 (optional=templinst)_ZN3pcl8tracking21ParticleFilterTrackerINS_13InterestPointENS0_14ParticleXYZRPYEE15setIterationNumEi@Base 1.6
 (optional=templinst)_ZN3pcl8tracking21ParticleFilterTrackerINS_13InterestPointENS0_14ParticleXYZRPYEE17getReferenceCloudEv@Base 1.6
 (optional=templinst)_ZN3pcl8tracking21ParticleFilterTrackerINS_13InterestPointENS0_14ParticleXYZRPYEE17setCloudCoherenceERKN5boost10shared_ptrINS0_19PointCloudCoherenceIS2_EEEE@Base 1.6
 (optional=templinst)_ZN3pcl8tracking21ParticleFilterTrackerINS_13InterestPointENS0_14ParticleXYZRPYEE17setReferenceCloudERKN5boost10shared_ptrIKNS_10PointCloudIS2_EEEE@Base 1.6
 (optional=templinst)_ZN3pcl8tracking21ParticleFilterTrackerINS_13InterestPointENS0_14ParticleXYZRPYEE19cropInputPointCloudERKN5boost10shared_ptrIKNS_10PointCloudIS2_EEEERS8_@Base 1.6
 (optional=templinst)_ZN3pcl8tracking21ParticleFilterTrackerINS_13InterestPointENS0_14ParticleXYZRPYEE19setInitialNoiseMeanERKSt6vectorIdSaIdEE@Base 1.6
 (optional=templinst)_ZN3pcl8tracking21ParticleFilterTrackerINS_13InterestPointENS0_14ParticleXYZRPYEE19testChangeDetectionERKN5boost10shared_ptrIKNS_10PointCloudIS2_EEEE@Base 1.6
 (optional=templinst)_ZN3pcl8tracking21ParticleFilterTrackerINS_13InterestPointENS0_14ParticleXYZRPYEE20getUseChangeDetectorEv@Base 1.6
 (optional=templinst)_ZN3pcl8tracking21ParticleFilterTrackerINS_13InterestPointENS0_14ParticleXYZRPYEE20setOcclusionAngleTheEd@Base 1.6
 (optional=templinst)_ZN3pcl8tracking21ParticleFilterTrackerINS_13InterestPointENS0_14ParticleXYZRPYEE20setUseChangeDetectorEb@Base 1.6
 (optional=templinst)_ZN3pcl8tracking21ParticleFilterTrackerINS_13InterestPointENS0_14ParticleXYZRPYEE21sampleWithReplacementERKSt6vectorIiSaIiEERKS5_IdSaIdEE@Base 1.6
 (optional=templinst)_ZN3pcl8tracking21ParticleFilterTrackerINS_13InterestPointENS0_14ParticleXYZRPYEE22setStepNoiseCovarianceERKSt6vectorIdSaIdEE@Base 1.6
 (optional=templinst)_ZN3pcl8tracking21ParticleFilterTrackerINS_13InterestPointENS0_14ParticleXYZRPYEE23normalizeParticleWeightEddd@Base 1.6
 (optional=templinst)_ZN3pcl8tracking21ParticleFilterTrackerINS_13InterestPointENS0_14ParticleXYZRPYEE23resampleWithReplacementEv@Base 1.6
 (optional=templinst)_ZN3pcl8tracking21ParticleFilterTrackerINS_13InterestPointENS0_14ParticleXYZRPYEE24setResampleLikelihoodThrEd@Base 1.6
 (optional=templinst)_ZN3pcl8tracking21ParticleFilterTrackerINS_13InterestPointENS0_14ParticleXYZRPYEE25setInitialNoiseCovarianceERKSt6vectorIdSaIdEE@Base 1.6
 (optional=templinst)_ZN3pcl8tracking21ParticleFilterTrackerINS_13InterestPointENS0_14ParticleXYZRPYEE28computeTransformedPointCloudERKS3_RSt6vectorIiSaIiEERNS_10PointCloudIS2_EE@Base 1.6
 (optional=templinst)_ZN3pcl8tracking21ParticleFilterTrackerINS_13InterestPointENS0_14ParticleXYZRPYEE28getIntervalOfChangeDetectionEv@Base 1.6
 (optional=templinst)_ZN3pcl8tracking21ParticleFilterTrackerINS_13InterestPointENS0_14ParticleXYZRPYEE28setIntervalOfChangeDetectionEj@Base 1.6
 (optional=templinst)_ZN3pcl8tracking21ParticleFilterTrackerINS_13InterestPointENS0_14ParticleXYZRPYEE29getMinPointsOfChangeDetectionEv@Base 1.6
 (optional=templinst)_ZN3pcl8tracking21ParticleFilterTrackerINS_13InterestPointENS0_14ParticleXYZRPYEE29setMinPointsOfChangeDetectionEj@Base 1.6
 (optional=templinst)_ZN3pcl8tracking21ParticleFilterTrackerINS_13InterestPointENS0_14ParticleXYZRPYEE30getResolutionOfChangeDetectionEv@Base 1.6
 (optional=templinst)_ZN3pcl8tracking21ParticleFilterTrackerINS_13InterestPointENS0_14ParticleXYZRPYEE30setResolutionOfChangeDetectionEd@Base 1.6
 (optional=templinst)_ZN3pcl8tracking21ParticleFilterTrackerINS_13InterestPointENS0_14ParticleXYZRPYEE38computeTransformedPointCloudWithNormalERKS3_RSt6vectorIiSaIiEERNS_10PointCloudIS2_EE@Base 1.6
 (optional=templinst)_ZN3pcl8tracking21ParticleFilterTrackerINS_13InterestPointENS0_14ParticleXYZRPYEE41computeTransformedPointCloudWithoutNormalERKS3_RNS_10PointCloudIS2_EE@Base 1.6
 (optional=templinst)_ZN3pcl8tracking21ParticleFilterTrackerINS_13InterestPointENS0_14ParticleXYZRPYEE6updateEv@Base 1.6
 (optional=templinst)_ZN3pcl8tracking21ParticleFilterTrackerINS_13InterestPointENS0_14ParticleXYZRPYEE6weightEv@Base 1.6
 (optional=templinst)_ZN3pcl8tracking21ParticleFilterTrackerINS_13InterestPointENS0_14ParticleXYZRPYEE8getAlphaEv@Base 1.6
 (optional=templinst)_ZN3pcl8tracking21ParticleFilterTrackerINS_13InterestPointENS0_14ParticleXYZRPYEE8resampleEv@Base 1.6
 (optional=templinst)_ZN3pcl8tracking21ParticleFilterTrackerINS_13InterestPointENS0_14ParticleXYZRPYEE8setAlphaEd@Base 1.6
 (optional=templinst)_ZN3pcl8tracking21ParticleFilterTrackerINS_13InterestPointENS0_14ParticleXYZRPYEE8setTransERKN5Eigen9TransformIfLi3ELi2ELi0EEE@Base 1.6
 (optional=templinst)_ZN3pcl8tracking21ParticleFilterTrackerINS_13InterestPointENS0_14ParticleXYZRPYEEC1Ev@Base 1.6
 (optional=templinst)_ZN3pcl8tracking21ParticleFilterTrackerINS_13InterestPointENS0_14ParticleXYZRPYEEC2Ev@Base 1.6
 (optional=templinst)_ZN3pcl8tracking21ParticleFilterTrackerINS_13InterestPointENS0_14ParticleXYZRPYEED0Ev@Base 1.6
 (optional=templinst)_ZN3pcl8tracking21ParticleFilterTrackerINS_13InterestPointENS0_14ParticleXYZRPYEED1Ev@Base 1.6
 (optional=templinst)_ZN3pcl8tracking21ParticleFilterTrackerINS_13InterestPointENS0_14ParticleXYZRPYEED2Ev@Base 1.6
 (optional=templinst)_ZN3pcl8tracking21ParticleFilterTrackerINS_14PointWithRangeENS0_11ParticleXYREE11initComputeEv@Base 1.6
 (optional=templinst)_ZN3pcl8tracking21ParticleFilterTrackerINS_14PointWithRangeENS0_11ParticleXYREE12getUseNormalEv@Base 1.6
 (optional=templinst)_ZN3pcl8tracking21ParticleFilterTrackerINS_14PointWithRangeENS0_11ParticleXYREE12setUseNormalEb@Base 1.6
 (optional=templinst)_ZN3pcl8tracking21ParticleFilterTrackerINS_14PointWithRangeENS0_11ParticleXYREE13genAliasTableERSt6vectorIiSaIiEERS5_IdSaIdEERKN5boost10shared_ptrIKNS_10PointCloudIS3_EEEE@Base 1.6
 (optional=templinst)_ZN3pcl8tracking21ParticleFilterTrackerINS_14PointWithRangeENS0_11ParticleXYREE13initParticlesEb@Base 1.6
 (optional=templinst)_ZN3pcl8tracking21ParticleFilterTrackerINS_14PointWithRangeENS0_11ParticleXYREE13resetTrackingEv@Base 1.6
 (optional=templinst)_ZN3pcl8tracking21ParticleFilterTrackerINS_14PointWithRangeENS0_11ParticleXYREE13setMinIndicesEi@Base 1.6
 (optional=templinst)_ZN3pcl8tracking21ParticleFilterTrackerINS_14PointWithRangeENS0_11ParticleXYREE13toEigenMatrixERKS3_@Base 1.6
 (optional=templinst)_ZN3pcl8tracking21ParticleFilterTrackerINS_14PointWithRangeENS0_11ParticleXYREE14getMotionRatioEv@Base 1.6
 (optional=templinst)_ZN3pcl8tracking21ParticleFilterTrackerINS_14PointWithRangeENS0_11ParticleXYREE14setMotionRatioEd@Base 1.6
 (optional=templinst)_ZN3pcl8tracking21ParticleFilterTrackerINS_14PointWithRangeENS0_11ParticleXYREE14setParticleNumEi@Base 1.6
 (optional=templinst)_ZN3pcl8tracking21ParticleFilterTrackerINS_14PointWithRangeENS0_11ParticleXYREE15calcBoundingBoxERdS5_S5_S5_S5_S5_@Base 1.6
 (optional=templinst)_ZN3pcl8tracking21ParticleFilterTrackerINS_14PointWithRangeENS0_11ParticleXYREE15computeTrackingEv@Base 1.6
 (optional=templinst)_ZN3pcl8tracking21ParticleFilterTrackerINS_14PointWithRangeENS0_11ParticleXYREE15normalizeWeightEv@Base 1.6
 (optional=templinst)_ZN3pcl8tracking21ParticleFilterTrackerINS_14PointWithRangeENS0_11ParticleXYREE15setIterationNumEi@Base 1.6
 (optional=templinst)_ZN3pcl8tracking21ParticleFilterTrackerINS_14PointWithRangeENS0_11ParticleXYREE17getReferenceCloudEv@Base 1.6
 (optional=templinst)_ZN3pcl8tracking21ParticleFilterTrackerINS_14PointWithRangeENS0_11ParticleXYREE17setCloudCoherenceERKN5boost10shared_ptrINS0_19PointCloudCoherenceIS2_EEEE@Base 1.6
 (optional=templinst)_ZN3pcl8tracking21ParticleFilterTrackerINS_14PointWithRangeENS0_11ParticleXYREE17setReferenceCloudERKN5boost10shared_ptrIKNS_10PointCloudIS2_EEEE@Base 1.6
 (optional=templinst)_ZN3pcl8tracking21ParticleFilterTrackerINS_14PointWithRangeENS0_11ParticleXYREE19cropInputPointCloudERKN5boost10shared_ptrIKNS_10PointCloudIS2_EEEERS8_@Base 1.6
 (optional=templinst)_ZN3pcl8tracking21ParticleFilterTrackerINS_14PointWithRangeENS0_11ParticleXYREE19setInitialNoiseMeanERKSt6vectorIdSaIdEE@Base 1.6
 (optional=templinst)_ZN3pcl8tracking21ParticleFilterTrackerINS_14PointWithRangeENS0_11ParticleXYREE19testChangeDetectionERKN5boost10shared_ptrIKNS_10PointCloudIS2_EEEE@Base 1.6
 (optional=templinst)_ZN3pcl8tracking21ParticleFilterTrackerINS_14PointWithRangeENS0_11ParticleXYREE20getUseChangeDetectorEv@Base 1.6
 (optional=templinst)_ZN3pcl8tracking21ParticleFilterTrackerINS_14PointWithRangeENS0_11ParticleXYREE20setOcclusionAngleTheEd@Base 1.6
 (optional=templinst)_ZN3pcl8tracking21ParticleFilterTrackerINS_14PointWithRangeENS0_11ParticleXYREE20setUseChangeDetectorEb@Base 1.6
 (optional=templinst)_ZN3pcl8tracking21ParticleFilterTrackerINS_14PointWithRangeENS0_11ParticleXYREE21sampleWithReplacementERKSt6vectorIiSaIiEERKS5_IdSaIdEE@Base 1.6
 (optional=templinst)_ZN3pcl8tracking21ParticleFilterTrackerINS_14PointWithRangeENS0_11ParticleXYREE22setStepNoiseCovarianceERKSt6vectorIdSaIdEE@Base 1.6
 (optional=templinst)_ZN3pcl8tracking21ParticleFilterTrackerINS_14PointWithRangeENS0_11ParticleXYREE23normalizeParticleWeightEddd@Base 1.6
 (optional=templinst)_ZN3pcl8tracking21ParticleFilterTrackerINS_14PointWithRangeENS0_11ParticleXYREE23resampleWithReplacementEv@Base 1.6
 (optional=templinst)_ZN3pcl8tracking21ParticleFilterTrackerINS_14PointWithRangeENS0_11ParticleXYREE24setResampleLikelihoodThrEd@Base 1.6
 (optional=templinst)_ZN3pcl8tracking21ParticleFilterTrackerINS_14PointWithRangeENS0_11ParticleXYREE25setInitialNoiseCovarianceERKSt6vectorIdSaIdEE@Base 1.6
 (optional=templinst)_ZN3pcl8tracking21ParticleFilterTrackerINS_14PointWithRangeENS0_11ParticleXYREE28computeTransformedPointCloudERKS3_RSt6vectorIiSaIiEERNS_10PointCloudIS2_EE@Base 1.6
 (optional=templinst)_ZN3pcl8tracking21ParticleFilterTrackerINS_14PointWithRangeENS0_11ParticleXYREE28getIntervalOfChangeDetectionEv@Base 1.6
 (optional=templinst)_ZN3pcl8tracking21ParticleFilterTrackerINS_14PointWithRangeENS0_11ParticleXYREE28setIntervalOfChangeDetectionEj@Base 1.6
 (optional=templinst)_ZN3pcl8tracking21ParticleFilterTrackerINS_14PointWithRangeENS0_11ParticleXYREE29getMinPointsOfChangeDetectionEv@Base 1.6
 (optional=templinst)_ZN3pcl8tracking21ParticleFilterTrackerINS_14PointWithRangeENS0_11ParticleXYREE29setMinPointsOfChangeDetectionEj@Base 1.6
 (optional=templinst)_ZN3pcl8tracking21ParticleFilterTrackerINS_14PointWithRangeENS0_11ParticleXYREE30getResolutionOfChangeDetectionEv@Base 1.6
 (optional=templinst)_ZN3pcl8tracking21ParticleFilterTrackerINS_14PointWithRangeENS0_11ParticleXYREE30setResolutionOfChangeDetectionEd@Base 1.6
 (optional=templinst)_ZN3pcl8tracking21ParticleFilterTrackerINS_14PointWithRangeENS0_11ParticleXYREE38computeTransformedPointCloudWithNormalERKS3_RSt6vectorIiSaIiEERNS_10PointCloudIS2_EE@Base 1.6
 (optional=templinst)_ZN3pcl8tracking21ParticleFilterTrackerINS_14PointWithRangeENS0_11ParticleXYREE41computeTransformedPointCloudWithoutNormalERKS3_RNS_10PointCloudIS2_EE@Base 1.6
 (optional=templinst)_ZN3pcl8tracking21ParticleFilterTrackerINS_14PointWithRangeENS0_11ParticleXYREE6updateEv@Base 1.6
 (optional=templinst)_ZN3pcl8tracking21ParticleFilterTrackerINS_14PointWithRangeENS0_11ParticleXYREE6weightEv@Base 1.6
 (optional=templinst)_ZN3pcl8tracking21ParticleFilterTrackerINS_14PointWithRangeENS0_11ParticleXYREE8getAlphaEv@Base 1.6
 (optional=templinst)_ZN3pcl8tracking21ParticleFilterTrackerINS_14PointWithRangeENS0_11ParticleXYREE8resampleEv@Base 1.6
 (optional=templinst)_ZN3pcl8tracking21ParticleFilterTrackerINS_14PointWithRangeENS0_11ParticleXYREE8setAlphaEd@Base 1.6
 (optional=templinst)_ZN3pcl8tracking21ParticleFilterTrackerINS_14PointWithRangeENS0_11ParticleXYREE8setTransERKN5Eigen9TransformIfLi3ELi2ELi0EEE@Base 1.6
 (optional=templinst)_ZN3pcl8tracking21ParticleFilterTrackerINS_14PointWithRangeENS0_11ParticleXYREEC1Ev@Base 1.6
 (optional=templinst)_ZN3pcl8tracking21ParticleFilterTrackerINS_14PointWithRangeENS0_11ParticleXYREEC2Ev@Base 1.6
 (optional=templinst)_ZN3pcl8tracking21ParticleFilterTrackerINS_14PointWithRangeENS0_11ParticleXYREED0Ev@Base 1.6
 (optional=templinst)_ZN3pcl8tracking21ParticleFilterTrackerINS_14PointWithRangeENS0_11ParticleXYREED1Ev@Base 1.6
 (optional=templinst)_ZN3pcl8tracking21ParticleFilterTrackerINS_14PointWithRangeENS0_11ParticleXYREED2Ev@Base 1.6
 (optional=templinst)_ZN3pcl8tracking21ParticleFilterTrackerINS_14PointWithRangeENS0_12ParticleXYRPEE11initComputeEv@Base 1.6
 (optional=templinst)_ZN3pcl8tracking21ParticleFilterTrackerINS_14PointWithRangeENS0_12ParticleXYRPEE12getUseNormalEv@Base 1.6
 (optional=templinst)_ZN3pcl8tracking21ParticleFilterTrackerINS_14PointWithRangeENS0_12ParticleXYRPEE12setUseNormalEb@Base 1.6
 (optional=templinst)_ZN3pcl8tracking21ParticleFilterTrackerINS_14PointWithRangeENS0_12ParticleXYRPEE13genAliasTableERSt6vectorIiSaIiEERS5_IdSaIdEERKN5boost10shared_ptrIKNS_10PointCloudIS3_EEEE@Base 1.6
 (optional=templinst)_ZN3pcl8tracking21ParticleFilterTrackerINS_14PointWithRangeENS0_12ParticleXYRPEE13initParticlesEb@Base 1.6
 (optional=templinst)_ZN3pcl8tracking21ParticleFilterTrackerINS_14PointWithRangeENS0_12ParticleXYRPEE13resetTrackingEv@Base 1.6
 (optional=templinst)_ZN3pcl8tracking21ParticleFilterTrackerINS_14PointWithRangeENS0_12ParticleXYRPEE13setMinIndicesEi@Base 1.6
 (optional=templinst)_ZN3pcl8tracking21ParticleFilterTrackerINS_14PointWithRangeENS0_12ParticleXYRPEE13toEigenMatrixERKS3_@Base 1.6
 (optional=templinst)_ZN3pcl8tracking21ParticleFilterTrackerINS_14PointWithRangeENS0_12ParticleXYRPEE14getMotionRatioEv@Base 1.6
 (optional=templinst)_ZN3pcl8tracking21ParticleFilterTrackerINS_14PointWithRangeENS0_12ParticleXYRPEE14setMotionRatioEd@Base 1.6
 (optional=templinst)_ZN3pcl8tracking21ParticleFilterTrackerINS_14PointWithRangeENS0_12ParticleXYRPEE14setParticleNumEi@Base 1.6
 (optional=templinst)_ZN3pcl8tracking21ParticleFilterTrackerINS_14PointWithRangeENS0_12ParticleXYRPEE15calcBoundingBoxERdS5_S5_S5_S5_S5_@Base 1.6
 (optional=templinst)_ZN3pcl8tracking21ParticleFilterTrackerINS_14PointWithRangeENS0_12ParticleXYRPEE15computeTrackingEv@Base 1.6
 (optional=templinst)_ZN3pcl8tracking21ParticleFilterTrackerINS_14PointWithRangeENS0_12ParticleXYRPEE15normalizeWeightEv@Base 1.6
 (optional=templinst)_ZN3pcl8tracking21ParticleFilterTrackerINS_14PointWithRangeENS0_12ParticleXYRPEE15setIterationNumEi@Base 1.6
 (optional=templinst)_ZN3pcl8tracking21ParticleFilterTrackerINS_14PointWithRangeENS0_12ParticleXYRPEE17getReferenceCloudEv@Base 1.6
 (optional=templinst)_ZN3pcl8tracking21ParticleFilterTrackerINS_14PointWithRangeENS0_12ParticleXYRPEE17setCloudCoherenceERKN5boost10shared_ptrINS0_19PointCloudCoherenceIS2_EEEE@Base 1.6
 (optional=templinst)_ZN3pcl8tracking21ParticleFilterTrackerINS_14PointWithRangeENS0_12ParticleXYRPEE17setReferenceCloudERKN5boost10shared_ptrIKNS_10PointCloudIS2_EEEE@Base 1.6
 (optional=templinst)_ZN3pcl8tracking21ParticleFilterTrackerINS_14PointWithRangeENS0_12ParticleXYRPEE19cropInputPointCloudERKN5boost10shared_ptrIKNS_10PointCloudIS2_EEEERS8_@Base 1.6
 (optional=templinst)_ZN3pcl8tracking21ParticleFilterTrackerINS_14PointWithRangeENS0_12ParticleXYRPEE19setInitialNoiseMeanERKSt6vectorIdSaIdEE@Base 1.6
 (optional=templinst)_ZN3pcl8tracking21ParticleFilterTrackerINS_14PointWithRangeENS0_12ParticleXYRPEE19testChangeDetectionERKN5boost10shared_ptrIKNS_10PointCloudIS2_EEEE@Base 1.6
 (optional=templinst)_ZN3pcl8tracking21ParticleFilterTrackerINS_14PointWithRangeENS0_12ParticleXYRPEE20getUseChangeDetectorEv@Base 1.6
 (optional=templinst)_ZN3pcl8tracking21ParticleFilterTrackerINS_14PointWithRangeENS0_12ParticleXYRPEE20setOcclusionAngleTheEd@Base 1.6
 (optional=templinst)_ZN3pcl8tracking21ParticleFilterTrackerINS_14PointWithRangeENS0_12ParticleXYRPEE20setUseChangeDetectorEb@Base 1.6
 (optional=templinst)_ZN3pcl8tracking21ParticleFilterTrackerINS_14PointWithRangeENS0_12ParticleXYRPEE21sampleWithReplacementERKSt6vectorIiSaIiEERKS5_IdSaIdEE@Base 1.6
 (optional=templinst)_ZN3pcl8tracking21ParticleFilterTrackerINS_14PointWithRangeENS0_12ParticleXYRPEE22setStepNoiseCovarianceERKSt6vectorIdSaIdEE@Base 1.6
 (optional=templinst)_ZN3pcl8tracking21ParticleFilterTrackerINS_14PointWithRangeENS0_12ParticleXYRPEE23normalizeParticleWeightEddd@Base 1.6
 (optional=templinst)_ZN3pcl8tracking21ParticleFilterTrackerINS_14PointWithRangeENS0_12ParticleXYRPEE23resampleWithReplacementEv@Base 1.6
 (optional=templinst)_ZN3pcl8tracking21ParticleFilterTrackerINS_14PointWithRangeENS0_12ParticleXYRPEE24setResampleLikelihoodThrEd@Base 1.6
 (optional=templinst)_ZN3pcl8tracking21ParticleFilterTrackerINS_14PointWithRangeENS0_12ParticleXYRPEE25setInitialNoiseCovarianceERKSt6vectorIdSaIdEE@Base 1.6
 (optional=templinst)_ZN3pcl8tracking21ParticleFilterTrackerINS_14PointWithRangeENS0_12ParticleXYRPEE28computeTransformedPointCloudERKS3_RSt6vectorIiSaIiEERNS_10PointCloudIS2_EE@Base 1.6
 (optional=templinst)_ZN3pcl8tracking21ParticleFilterTrackerINS_14PointWithRangeENS0_12ParticleXYRPEE28getIntervalOfChangeDetectionEv@Base 1.6
 (optional=templinst)_ZN3pcl8tracking21ParticleFilterTrackerINS_14PointWithRangeENS0_12ParticleXYRPEE28setIntervalOfChangeDetectionEj@Base 1.6
 (optional=templinst)_ZN3pcl8tracking21ParticleFilterTrackerINS_14PointWithRangeENS0_12ParticleXYRPEE29getMinPointsOfChangeDetectionEv@Base 1.6
 (optional=templinst)_ZN3pcl8tracking21ParticleFilterTrackerINS_14PointWithRangeENS0_12ParticleXYRPEE29setMinPointsOfChangeDetectionEj@Base 1.6
 (optional=templinst)_ZN3pcl8tracking21ParticleFilterTrackerINS_14PointWithRangeENS0_12ParticleXYRPEE30getResolutionOfChangeDetectionEv@Base 1.6
 (optional=templinst)_ZN3pcl8tracking21ParticleFilterTrackerINS_14PointWithRangeENS0_12ParticleXYRPEE30setResolutionOfChangeDetectionEd@Base 1.6
 (optional=templinst)_ZN3pcl8tracking21ParticleFilterTrackerINS_14PointWithRangeENS0_12ParticleXYRPEE38computeTransformedPointCloudWithNormalERKS3_RSt6vectorIiSaIiEERNS_10PointCloudIS2_EE@Base 1.6
 (optional=templinst)_ZN3pcl8tracking21ParticleFilterTrackerINS_14PointWithRangeENS0_12ParticleXYRPEE41computeTransformedPointCloudWithoutNormalERKS3_RNS_10PointCloudIS2_EE@Base 1.6
 (optional=templinst)_ZN3pcl8tracking21ParticleFilterTrackerINS_14PointWithRangeENS0_12ParticleXYRPEE6updateEv@Base 1.6
 (optional=templinst)_ZN3pcl8tracking21ParticleFilterTrackerINS_14PointWithRangeENS0_12ParticleXYRPEE6weightEv@Base 1.6
 (optional=templinst)_ZN3pcl8tracking21ParticleFilterTrackerINS_14PointWithRangeENS0_12ParticleXYRPEE8getAlphaEv@Base 1.6
 (optional=templinst)_ZN3pcl8tracking21ParticleFilterTrackerINS_14PointWithRangeENS0_12ParticleXYRPEE8resampleEv@Base 1.6
 (optional=templinst)_ZN3pcl8tracking21ParticleFilterTrackerINS_14PointWithRangeENS0_12ParticleXYRPEE8setAlphaEd@Base 1.6
 (optional=templinst)_ZN3pcl8tracking21ParticleFilterTrackerINS_14PointWithRangeENS0_12ParticleXYRPEE8setTransERKN5Eigen9TransformIfLi3ELi2ELi0EEE@Base 1.6
 (optional=templinst)_ZN3pcl8tracking21ParticleFilterTrackerINS_14PointWithRangeENS0_12ParticleXYRPEEC1Ev@Base 1.6
 (optional=templinst)_ZN3pcl8tracking21ParticleFilterTrackerINS_14PointWithRangeENS0_12ParticleXYRPEEC2Ev@Base 1.6
 (optional=templinst)_ZN3pcl8tracking21ParticleFilterTrackerINS_14PointWithRangeENS0_12ParticleXYRPEED0Ev@Base 1.6
 (optional=templinst)_ZN3pcl8tracking21ParticleFilterTrackerINS_14PointWithRangeENS0_12ParticleXYRPEED1Ev@Base 1.6
 (optional=templinst)_ZN3pcl8tracking21ParticleFilterTrackerINS_14PointWithRangeENS0_12ParticleXYRPEED2Ev@Base 1.6
 (optional=templinst)_ZN3pcl8tracking21ParticleFilterTrackerINS_14PointWithRangeENS0_12ParticleXYZREE11initComputeEv@Base 1.6
 (optional=templinst)_ZN3pcl8tracking21ParticleFilterTrackerINS_14PointWithRangeENS0_12ParticleXYZREE12getUseNormalEv@Base 1.6
 (optional=templinst)_ZN3pcl8tracking21ParticleFilterTrackerINS_14PointWithRangeENS0_12ParticleXYZREE12setUseNormalEb@Base 1.6
 (optional=templinst)_ZN3pcl8tracking21ParticleFilterTrackerINS_14PointWithRangeENS0_12ParticleXYZREE13genAliasTableERSt6vectorIiSaIiEERS5_IdSaIdEERKN5boost10shared_ptrIKNS_10PointCloudIS3_EEEE@Base 1.6
 (optional=templinst)_ZN3pcl8tracking21ParticleFilterTrackerINS_14PointWithRangeENS0_12ParticleXYZREE13initParticlesEb@Base 1.6
 (optional=templinst)_ZN3pcl8tracking21ParticleFilterTrackerINS_14PointWithRangeENS0_12ParticleXYZREE13resetTrackingEv@Base 1.6
 (optional=templinst)_ZN3pcl8tracking21ParticleFilterTrackerINS_14PointWithRangeENS0_12ParticleXYZREE13setMinIndicesEi@Base 1.6
 (optional=templinst)_ZN3pcl8tracking21ParticleFilterTrackerINS_14PointWithRangeENS0_12ParticleXYZREE13toEigenMatrixERKS3_@Base 1.6
 (optional=templinst)_ZN3pcl8tracking21ParticleFilterTrackerINS_14PointWithRangeENS0_12ParticleXYZREE14getMotionRatioEv@Base 1.6
 (optional=templinst)_ZN3pcl8tracking21ParticleFilterTrackerINS_14PointWithRangeENS0_12ParticleXYZREE14setMotionRatioEd@Base 1.6
 (optional=templinst)_ZN3pcl8tracking21ParticleFilterTrackerINS_14PointWithRangeENS0_12ParticleXYZREE14setParticleNumEi@Base 1.6
 (optional=templinst)_ZN3pcl8tracking21ParticleFilterTrackerINS_14PointWithRangeENS0_12ParticleXYZREE15calcBoundingBoxERdS5_S5_S5_S5_S5_@Base 1.6
 (optional=templinst)_ZN3pcl8tracking21ParticleFilterTrackerINS_14PointWithRangeENS0_12ParticleXYZREE15computeTrackingEv@Base 1.6
 (optional=templinst)_ZN3pcl8tracking21ParticleFilterTrackerINS_14PointWithRangeENS0_12ParticleXYZREE15normalizeWeightEv@Base 1.6
 (optional=templinst)_ZN3pcl8tracking21ParticleFilterTrackerINS_14PointWithRangeENS0_12ParticleXYZREE15setIterationNumEi@Base 1.6
 (optional=templinst)_ZN3pcl8tracking21ParticleFilterTrackerINS_14PointWithRangeENS0_12ParticleXYZREE17getReferenceCloudEv@Base 1.6
 (optional=templinst)_ZN3pcl8tracking21ParticleFilterTrackerINS_14PointWithRangeENS0_12ParticleXYZREE17setCloudCoherenceERKN5boost10shared_ptrINS0_19PointCloudCoherenceIS2_EEEE@Base 1.6
 (optional=templinst)_ZN3pcl8tracking21ParticleFilterTrackerINS_14PointWithRangeENS0_12ParticleXYZREE17setReferenceCloudERKN5boost10shared_ptrIKNS_10PointCloudIS2_EEEE@Base 1.6
 (optional=templinst)_ZN3pcl8tracking21ParticleFilterTrackerINS_14PointWithRangeENS0_12ParticleXYZREE19cropInputPointCloudERKN5boost10shared_ptrIKNS_10PointCloudIS2_EEEERS8_@Base 1.6
 (optional=templinst)_ZN3pcl8tracking21ParticleFilterTrackerINS_14PointWithRangeENS0_12ParticleXYZREE19setInitialNoiseMeanERKSt6vectorIdSaIdEE@Base 1.6
 (optional=templinst)_ZN3pcl8tracking21ParticleFilterTrackerINS_14PointWithRangeENS0_12ParticleXYZREE19testChangeDetectionERKN5boost10shared_ptrIKNS_10PointCloudIS2_EEEE@Base 1.6
 (optional=templinst)_ZN3pcl8tracking21ParticleFilterTrackerINS_14PointWithRangeENS0_12ParticleXYZREE20getUseChangeDetectorEv@Base 1.6
 (optional=templinst)_ZN3pcl8tracking21ParticleFilterTrackerINS_14PointWithRangeENS0_12ParticleXYZREE20setOcclusionAngleTheEd@Base 1.6
 (optional=templinst)_ZN3pcl8tracking21ParticleFilterTrackerINS_14PointWithRangeENS0_12ParticleXYZREE20setUseChangeDetectorEb@Base 1.6
 (optional=templinst)_ZN3pcl8tracking21ParticleFilterTrackerINS_14PointWithRangeENS0_12ParticleXYZREE21sampleWithReplacementERKSt6vectorIiSaIiEERKS5_IdSaIdEE@Base 1.6
 (optional=templinst)_ZN3pcl8tracking21ParticleFilterTrackerINS_14PointWithRangeENS0_12ParticleXYZREE22setStepNoiseCovarianceERKSt6vectorIdSaIdEE@Base 1.6
 (optional=templinst)_ZN3pcl8tracking21ParticleFilterTrackerINS_14PointWithRangeENS0_12ParticleXYZREE23normalizeParticleWeightEddd@Base 1.6
 (optional=templinst)_ZN3pcl8tracking21ParticleFilterTrackerINS_14PointWithRangeENS0_12ParticleXYZREE23resampleWithReplacementEv@Base 1.6
 (optional=templinst)_ZN3pcl8tracking21ParticleFilterTrackerINS_14PointWithRangeENS0_12ParticleXYZREE24setResampleLikelihoodThrEd@Base 1.6
 (optional=templinst)_ZN3pcl8tracking21ParticleFilterTrackerINS_14PointWithRangeENS0_12ParticleXYZREE25setInitialNoiseCovarianceERKSt6vectorIdSaIdEE@Base 1.6
 (optional=templinst)_ZN3pcl8tracking21ParticleFilterTrackerINS_14PointWithRangeENS0_12ParticleXYZREE28computeTransformedPointCloudERKS3_RSt6vectorIiSaIiEERNS_10PointCloudIS2_EE@Base 1.6
 (optional=templinst)_ZN3pcl8tracking21ParticleFilterTrackerINS_14PointWithRangeENS0_12ParticleXYZREE28getIntervalOfChangeDetectionEv@Base 1.6
 (optional=templinst)_ZN3pcl8tracking21ParticleFilterTrackerINS_14PointWithRangeENS0_12ParticleXYZREE28setIntervalOfChangeDetectionEj@Base 1.6
 (optional=templinst)_ZN3pcl8tracking21ParticleFilterTrackerINS_14PointWithRangeENS0_12ParticleXYZREE29getMinPointsOfChangeDetectionEv@Base 1.6
 (optional=templinst)_ZN3pcl8tracking21ParticleFilterTrackerINS_14PointWithRangeENS0_12ParticleXYZREE29setMinPointsOfChangeDetectionEj@Base 1.6
 (optional=templinst)_ZN3pcl8tracking21ParticleFilterTrackerINS_14PointWithRangeENS0_12ParticleXYZREE30getResolutionOfChangeDetectionEv@Base 1.6
 (optional=templinst)_ZN3pcl8tracking21ParticleFilterTrackerINS_14PointWithRangeENS0_12ParticleXYZREE30setResolutionOfChangeDetectionEd@Base 1.6
 (optional=templinst)_ZN3pcl8tracking21ParticleFilterTrackerINS_14PointWithRangeENS0_12ParticleXYZREE38computeTransformedPointCloudWithNormalERKS3_RSt6vectorIiSaIiEERNS_10PointCloudIS2_EE@Base 1.6
 (optional=templinst)_ZN3pcl8tracking21ParticleFilterTrackerINS_14PointWithRangeENS0_12ParticleXYZREE41computeTransformedPointCloudWithoutNormalERKS3_RNS_10PointCloudIS2_EE@Base 1.6
 (optional=templinst)_ZN3pcl8tracking21ParticleFilterTrackerINS_14PointWithRangeENS0_12ParticleXYZREE6updateEv@Base 1.6
 (optional=templinst)_ZN3pcl8tracking21ParticleFilterTrackerINS_14PointWithRangeENS0_12ParticleXYZREE6weightEv@Base 1.6
 (optional=templinst)_ZN3pcl8tracking21ParticleFilterTrackerINS_14PointWithRangeENS0_12ParticleXYZREE8getAlphaEv@Base 1.6
 (optional=templinst)_ZN3pcl8tracking21ParticleFilterTrackerINS_14PointWithRangeENS0_12ParticleXYZREE8resampleEv@Base 1.6
 (optional=templinst)_ZN3pcl8tracking21ParticleFilterTrackerINS_14PointWithRangeENS0_12ParticleXYZREE8setAlphaEd@Base 1.6
 (optional=templinst)_ZN3pcl8tracking21ParticleFilterTrackerINS_14PointWithRangeENS0_12ParticleXYZREE8setTransERKN5Eigen9TransformIfLi3ELi2ELi0EEE@Base 1.6
 (optional=templinst)_ZN3pcl8tracking21ParticleFilterTrackerINS_14PointWithRangeENS0_12ParticleXYZREEC1Ev@Base 1.6
 (optional=templinst)_ZN3pcl8tracking21ParticleFilterTrackerINS_14PointWithRangeENS0_12ParticleXYZREEC2Ev@Base 1.6
 (optional=templinst)_ZN3pcl8tracking21ParticleFilterTrackerINS_14PointWithRangeENS0_12ParticleXYZREED0Ev@Base 1.6
 (optional=templinst)_ZN3pcl8tracking21ParticleFilterTrackerINS_14PointWithRangeENS0_12ParticleXYZREED1Ev@Base 1.6
 (optional=templinst)_ZN3pcl8tracking21ParticleFilterTrackerINS_14PointWithRangeENS0_12ParticleXYZREED2Ev@Base 1.6
 (optional=templinst)_ZN3pcl8tracking21ParticleFilterTrackerINS_14PointWithRangeENS0_13ParticleXYRPYEE11initComputeEv@Base 1.6
 (optional=templinst)_ZN3pcl8tracking21ParticleFilterTrackerINS_14PointWithRangeENS0_13ParticleXYRPYEE12getUseNormalEv@Base 1.6
 (optional=templinst)_ZN3pcl8tracking21ParticleFilterTrackerINS_14PointWithRangeENS0_13ParticleXYRPYEE12setUseNormalEb@Base 1.6
 (optional=templinst)_ZN3pcl8tracking21ParticleFilterTrackerINS_14PointWithRangeENS0_13ParticleXYRPYEE13genAliasTableERSt6vectorIiSaIiEERS5_IdSaIdEERKN5boost10shared_ptrIKNS_10PointCloudIS3_EEEE@Base 1.6
 (optional=templinst)_ZN3pcl8tracking21ParticleFilterTrackerINS_14PointWithRangeENS0_13ParticleXYRPYEE13initParticlesEb@Base 1.6
 (optional=templinst)_ZN3pcl8tracking21ParticleFilterTrackerINS_14PointWithRangeENS0_13ParticleXYRPYEE13resetTrackingEv@Base 1.6
 (optional=templinst)_ZN3pcl8tracking21ParticleFilterTrackerINS_14PointWithRangeENS0_13ParticleXYRPYEE13setMinIndicesEi@Base 1.6
 (optional=templinst)_ZN3pcl8tracking21ParticleFilterTrackerINS_14PointWithRangeENS0_13ParticleXYRPYEE13toEigenMatrixERKS3_@Base 1.6
 (optional=templinst)_ZN3pcl8tracking21ParticleFilterTrackerINS_14PointWithRangeENS0_13ParticleXYRPYEE14getMotionRatioEv@Base 1.6
 (optional=templinst)_ZN3pcl8tracking21ParticleFilterTrackerINS_14PointWithRangeENS0_13ParticleXYRPYEE14setMotionRatioEd@Base 1.6
 (optional=templinst)_ZN3pcl8tracking21ParticleFilterTrackerINS_14PointWithRangeENS0_13ParticleXYRPYEE14setParticleNumEi@Base 1.6
 (optional=templinst)_ZN3pcl8tracking21ParticleFilterTrackerINS_14PointWithRangeENS0_13ParticleXYRPYEE15calcBoundingBoxERdS5_S5_S5_S5_S5_@Base 1.6
 (optional=templinst)_ZN3pcl8tracking21ParticleFilterTrackerINS_14PointWithRangeENS0_13ParticleXYRPYEE15computeTrackingEv@Base 1.6
 (optional=templinst)_ZN3pcl8tracking21ParticleFilterTrackerINS_14PointWithRangeENS0_13ParticleXYRPYEE15normalizeWeightEv@Base 1.6
 (optional=templinst)_ZN3pcl8tracking21ParticleFilterTrackerINS_14PointWithRangeENS0_13ParticleXYRPYEE15setIterationNumEi@Base 1.6
 (optional=templinst)_ZN3pcl8tracking21ParticleFilterTrackerINS_14PointWithRangeENS0_13ParticleXYRPYEE17getReferenceCloudEv@Base 1.6
 (optional=templinst)_ZN3pcl8tracking21ParticleFilterTrackerINS_14PointWithRangeENS0_13ParticleXYRPYEE17setCloudCoherenceERKN5boost10shared_ptrINS0_19PointCloudCoherenceIS2_EEEE@Base 1.6
 (optional=templinst)_ZN3pcl8tracking21ParticleFilterTrackerINS_14PointWithRangeENS0_13ParticleXYRPYEE17setReferenceCloudERKN5boost10shared_ptrIKNS_10PointCloudIS2_EEEE@Base 1.6
 (optional=templinst)_ZN3pcl8tracking21ParticleFilterTrackerINS_14PointWithRangeENS0_13ParticleXYRPYEE19cropInputPointCloudERKN5boost10shared_ptrIKNS_10PointCloudIS2_EEEERS8_@Base 1.6
 (optional=templinst)_ZN3pcl8tracking21ParticleFilterTrackerINS_14PointWithRangeENS0_13ParticleXYRPYEE19setInitialNoiseMeanERKSt6vectorIdSaIdEE@Base 1.6
 (optional=templinst)_ZN3pcl8tracking21ParticleFilterTrackerINS_14PointWithRangeENS0_13ParticleXYRPYEE19testChangeDetectionERKN5boost10shared_ptrIKNS_10PointCloudIS2_EEEE@Base 1.6
 (optional=templinst)_ZN3pcl8tracking21ParticleFilterTrackerINS_14PointWithRangeENS0_13ParticleXYRPYEE20getUseChangeDetectorEv@Base 1.6
 (optional=templinst)_ZN3pcl8tracking21ParticleFilterTrackerINS_14PointWithRangeENS0_13ParticleXYRPYEE20setOcclusionAngleTheEd@Base 1.6
 (optional=templinst)_ZN3pcl8tracking21ParticleFilterTrackerINS_14PointWithRangeENS0_13ParticleXYRPYEE20setUseChangeDetectorEb@Base 1.6
 (optional=templinst)_ZN3pcl8tracking21ParticleFilterTrackerINS_14PointWithRangeENS0_13ParticleXYRPYEE21sampleWithReplacementERKSt6vectorIiSaIiEERKS5_IdSaIdEE@Base 1.6
 (optional=templinst)_ZN3pcl8tracking21ParticleFilterTrackerINS_14PointWithRangeENS0_13ParticleXYRPYEE22setStepNoiseCovarianceERKSt6vectorIdSaIdEE@Base 1.6
 (optional=templinst)_ZN3pcl8tracking21ParticleFilterTrackerINS_14PointWithRangeENS0_13ParticleXYRPYEE23normalizeParticleWeightEddd@Base 1.6
 (optional=templinst)_ZN3pcl8tracking21ParticleFilterTrackerINS_14PointWithRangeENS0_13ParticleXYRPYEE23resampleWithReplacementEv@Base 1.6
 (optional=templinst)_ZN3pcl8tracking21ParticleFilterTrackerINS_14PointWithRangeENS0_13ParticleXYRPYEE24setResampleLikelihoodThrEd@Base 1.6
 (optional=templinst)_ZN3pcl8tracking21ParticleFilterTrackerINS_14PointWithRangeENS0_13ParticleXYRPYEE25setInitialNoiseCovarianceERKSt6vectorIdSaIdEE@Base 1.6
 (optional=templinst)_ZN3pcl8tracking21ParticleFilterTrackerINS_14PointWithRangeENS0_13ParticleXYRPYEE28computeTransformedPointCloudERKS3_RSt6vectorIiSaIiEERNS_10PointCloudIS2_EE@Base 1.6
 (optional=templinst)_ZN3pcl8tracking21ParticleFilterTrackerINS_14PointWithRangeENS0_13ParticleXYRPYEE28getIntervalOfChangeDetectionEv@Base 1.6
 (optional=templinst)_ZN3pcl8tracking21ParticleFilterTrackerINS_14PointWithRangeENS0_13ParticleXYRPYEE28setIntervalOfChangeDetectionEj@Base 1.6
 (optional=templinst)_ZN3pcl8tracking21ParticleFilterTrackerINS_14PointWithRangeENS0_13ParticleXYRPYEE29getMinPointsOfChangeDetectionEv@Base 1.6
 (optional=templinst)_ZN3pcl8tracking21ParticleFilterTrackerINS_14PointWithRangeENS0_13ParticleXYRPYEE29setMinPointsOfChangeDetectionEj@Base 1.6
 (optional=templinst)_ZN3pcl8tracking21ParticleFilterTrackerINS_14PointWithRangeENS0_13ParticleXYRPYEE30getResolutionOfChangeDetectionEv@Base 1.6
 (optional=templinst)_ZN3pcl8tracking21ParticleFilterTrackerINS_14PointWithRangeENS0_13ParticleXYRPYEE30setResolutionOfChangeDetectionEd@Base 1.6
 (optional=templinst)_ZN3pcl8tracking21ParticleFilterTrackerINS_14PointWithRangeENS0_13ParticleXYRPYEE38computeTransformedPointCloudWithNormalERKS3_RSt6vectorIiSaIiEERNS_10PointCloudIS2_EE@Base 1.6
 (optional=templinst)_ZN3pcl8tracking21ParticleFilterTrackerINS_14PointWithRangeENS0_13ParticleXYRPYEE41computeTransformedPointCloudWithoutNormalERKS3_RNS_10PointCloudIS2_EE@Base 1.6
 (optional=templinst)_ZN3pcl8tracking21ParticleFilterTrackerINS_14PointWithRangeENS0_13ParticleXYRPYEE6updateEv@Base 1.6
 (optional=templinst)_ZN3pcl8tracking21ParticleFilterTrackerINS_14PointWithRangeENS0_13ParticleXYRPYEE6weightEv@Base 1.6
 (optional=templinst)_ZN3pcl8tracking21ParticleFilterTrackerINS_14PointWithRangeENS0_13ParticleXYRPYEE8getAlphaEv@Base 1.6
 (optional=templinst)_ZN3pcl8tracking21ParticleFilterTrackerINS_14PointWithRangeENS0_13ParticleXYRPYEE8resampleEv@Base 1.6
 (optional=templinst)_ZN3pcl8tracking21ParticleFilterTrackerINS_14PointWithRangeENS0_13ParticleXYRPYEE8setAlphaEd@Base 1.6
 (optional=templinst)_ZN3pcl8tracking21ParticleFilterTrackerINS_14PointWithRangeENS0_13ParticleXYRPYEE8setTransERKN5Eigen9TransformIfLi3ELi2ELi0EEE@Base 1.6
 (optional=templinst)_ZN3pcl8tracking21ParticleFilterTrackerINS_14PointWithRangeENS0_13ParticleXYRPYEEC1Ev@Base 1.6
 (optional=templinst)_ZN3pcl8tracking21ParticleFilterTrackerINS_14PointWithRangeENS0_13ParticleXYRPYEEC2Ev@Base 1.6
 (optional=templinst)_ZN3pcl8tracking21ParticleFilterTrackerINS_14PointWithRangeENS0_13ParticleXYRPYEED0Ev@Base 1.6
 (optional=templinst)_ZN3pcl8tracking21ParticleFilterTrackerINS_14PointWithRangeENS0_13ParticleXYRPYEED1Ev@Base 1.6
 (optional=templinst)_ZN3pcl8tracking21ParticleFilterTrackerINS_14PointWithRangeENS0_13ParticleXYRPYEED2Ev@Base 1.6
 (optional=templinst)_ZN3pcl8tracking21ParticleFilterTrackerINS_14PointWithRangeENS0_14ParticleXYZRPYEE11initComputeEv@Base 1.6
 (optional=templinst)_ZN3pcl8tracking21ParticleFilterTrackerINS_14PointWithRangeENS0_14ParticleXYZRPYEE12getUseNormalEv@Base 1.6
 (optional=templinst)_ZN3pcl8tracking21ParticleFilterTrackerINS_14PointWithRangeENS0_14ParticleXYZRPYEE12setUseNormalEb@Base 1.6
 (optional=templinst)_ZN3pcl8tracking21ParticleFilterTrackerINS_14PointWithRangeENS0_14ParticleXYZRPYEE13genAliasTableERSt6vectorIiSaIiEERS5_IdSaIdEERKN5boost10shared_ptrIKNS_10PointCloudIS3_EEEE@Base 1.6
 (optional=templinst)_ZN3pcl8tracking21ParticleFilterTrackerINS_14PointWithRangeENS0_14ParticleXYZRPYEE13initParticlesEb@Base 1.6
 (optional=templinst)_ZN3pcl8tracking21ParticleFilterTrackerINS_14PointWithRangeENS0_14ParticleXYZRPYEE13resetTrackingEv@Base 1.6
 (optional=templinst)_ZN3pcl8tracking21ParticleFilterTrackerINS_14PointWithRangeENS0_14ParticleXYZRPYEE13setMinIndicesEi@Base 1.6
 (optional=templinst)_ZN3pcl8tracking21ParticleFilterTrackerINS_14PointWithRangeENS0_14ParticleXYZRPYEE13toEigenMatrixERKS3_@Base 1.6
 (optional=templinst)_ZN3pcl8tracking21ParticleFilterTrackerINS_14PointWithRangeENS0_14ParticleXYZRPYEE14getMotionRatioEv@Base 1.6
 (optional=templinst)_ZN3pcl8tracking21ParticleFilterTrackerINS_14PointWithRangeENS0_14ParticleXYZRPYEE14setMotionRatioEd@Base 1.6
 (optional=templinst)_ZN3pcl8tracking21ParticleFilterTrackerINS_14PointWithRangeENS0_14ParticleXYZRPYEE14setParticleNumEi@Base 1.6
 (optional=templinst)_ZN3pcl8tracking21ParticleFilterTrackerINS_14PointWithRangeENS0_14ParticleXYZRPYEE15calcBoundingBoxERdS5_S5_S5_S5_S5_@Base 1.6
 (optional=templinst)_ZN3pcl8tracking21ParticleFilterTrackerINS_14PointWithRangeENS0_14ParticleXYZRPYEE15computeTrackingEv@Base 1.6
 (optional=templinst)_ZN3pcl8tracking21ParticleFilterTrackerINS_14PointWithRangeENS0_14ParticleXYZRPYEE15normalizeWeightEv@Base 1.6
 (optional=templinst)_ZN3pcl8tracking21ParticleFilterTrackerINS_14PointWithRangeENS0_14ParticleXYZRPYEE15setIterationNumEi@Base 1.6
 (optional=templinst)_ZN3pcl8tracking21ParticleFilterTrackerINS_14PointWithRangeENS0_14ParticleXYZRPYEE17getReferenceCloudEv@Base 1.6
 (optional=templinst)_ZN3pcl8tracking21ParticleFilterTrackerINS_14PointWithRangeENS0_14ParticleXYZRPYEE17setCloudCoherenceERKN5boost10shared_ptrINS0_19PointCloudCoherenceIS2_EEEE@Base 1.6
 (optional=templinst)_ZN3pcl8tracking21ParticleFilterTrackerINS_14PointWithRangeENS0_14ParticleXYZRPYEE17setReferenceCloudERKN5boost10shared_ptrIKNS_10PointCloudIS2_EEEE@Base 1.6
 (optional=templinst)_ZN3pcl8tracking21ParticleFilterTrackerINS_14PointWithRangeENS0_14ParticleXYZRPYEE19cropInputPointCloudERKN5boost10shared_ptrIKNS_10PointCloudIS2_EEEERS8_@Base 1.6
 (optional=templinst)_ZN3pcl8tracking21ParticleFilterTrackerINS_14PointWithRangeENS0_14ParticleXYZRPYEE19setInitialNoiseMeanERKSt6vectorIdSaIdEE@Base 1.6
 (optional=templinst)_ZN3pcl8tracking21ParticleFilterTrackerINS_14PointWithRangeENS0_14ParticleXYZRPYEE19testChangeDetectionERKN5boost10shared_ptrIKNS_10PointCloudIS2_EEEE@Base 1.6
 (optional=templinst)_ZN3pcl8tracking21ParticleFilterTrackerINS_14PointWithRangeENS0_14ParticleXYZRPYEE20getUseChangeDetectorEv@Base 1.6
 (optional=templinst)_ZN3pcl8tracking21ParticleFilterTrackerINS_14PointWithRangeENS0_14ParticleXYZRPYEE20setOcclusionAngleTheEd@Base 1.6
 (optional=templinst)_ZN3pcl8tracking21ParticleFilterTrackerINS_14PointWithRangeENS0_14ParticleXYZRPYEE20setUseChangeDetectorEb@Base 1.6
 (optional=templinst)_ZN3pcl8tracking21ParticleFilterTrackerINS_14PointWithRangeENS0_14ParticleXYZRPYEE21sampleWithReplacementERKSt6vectorIiSaIiEERKS5_IdSaIdEE@Base 1.6
 (optional=templinst)_ZN3pcl8tracking21ParticleFilterTrackerINS_14PointWithRangeENS0_14ParticleXYZRPYEE22setStepNoiseCovarianceERKSt6vectorIdSaIdEE@Base 1.6
 (optional=templinst)_ZN3pcl8tracking21ParticleFilterTrackerINS_14PointWithRangeENS0_14ParticleXYZRPYEE23normalizeParticleWeightEddd@Base 1.6
 (optional=templinst)_ZN3pcl8tracking21ParticleFilterTrackerINS_14PointWithRangeENS0_14ParticleXYZRPYEE23resampleWithReplacementEv@Base 1.6
 (optional=templinst)_ZN3pcl8tracking21ParticleFilterTrackerINS_14PointWithRangeENS0_14ParticleXYZRPYEE24setResampleLikelihoodThrEd@Base 1.6
 (optional=templinst)_ZN3pcl8tracking21ParticleFilterTrackerINS_14PointWithRangeENS0_14ParticleXYZRPYEE25setInitialNoiseCovarianceERKSt6vectorIdSaIdEE@Base 1.6
 (optional=templinst)_ZN3pcl8tracking21ParticleFilterTrackerINS_14PointWithRangeENS0_14ParticleXYZRPYEE28computeTransformedPointCloudERKS3_RSt6vectorIiSaIiEERNS_10PointCloudIS2_EE@Base 1.6
 (optional=templinst)_ZN3pcl8tracking21ParticleFilterTrackerINS_14PointWithRangeENS0_14ParticleXYZRPYEE28getIntervalOfChangeDetectionEv@Base 1.6
 (optional=templinst)_ZN3pcl8tracking21ParticleFilterTrackerINS_14PointWithRangeENS0_14ParticleXYZRPYEE28setIntervalOfChangeDetectionEj@Base 1.6
 (optional=templinst)_ZN3pcl8tracking21ParticleFilterTrackerINS_14PointWithRangeENS0_14ParticleXYZRPYEE29getMinPointsOfChangeDetectionEv@Base 1.6
 (optional=templinst)_ZN3pcl8tracking21ParticleFilterTrackerINS_14PointWithRangeENS0_14ParticleXYZRPYEE29setMinPointsOfChangeDetectionEj@Base 1.6
 (optional=templinst)_ZN3pcl8tracking21ParticleFilterTrackerINS_14PointWithRangeENS0_14ParticleXYZRPYEE30getResolutionOfChangeDetectionEv@Base 1.6
 (optional=templinst)_ZN3pcl8tracking21ParticleFilterTrackerINS_14PointWithRangeENS0_14ParticleXYZRPYEE30setResolutionOfChangeDetectionEd@Base 1.6
 (optional=templinst)_ZN3pcl8tracking21ParticleFilterTrackerINS_14PointWithRangeENS0_14ParticleXYZRPYEE38computeTransformedPointCloudWithNormalERKS3_RSt6vectorIiSaIiEERNS_10PointCloudIS2_EE@Base 1.6
 (optional=templinst)_ZN3pcl8tracking21ParticleFilterTrackerINS_14PointWithRangeENS0_14ParticleXYZRPYEE41computeTransformedPointCloudWithoutNormalERKS3_RNS_10PointCloudIS2_EE@Base 1.6
 (optional=templinst)_ZN3pcl8tracking21ParticleFilterTrackerINS_14PointWithRangeENS0_14ParticleXYZRPYEE6updateEv@Base 1.6
 (optional=templinst)_ZN3pcl8tracking21ParticleFilterTrackerINS_14PointWithRangeENS0_14ParticleXYZRPYEE6weightEv@Base 1.6
 (optional=templinst)_ZN3pcl8tracking21ParticleFilterTrackerINS_14PointWithRangeENS0_14ParticleXYZRPYEE8getAlphaEv@Base 1.6
 (optional=templinst)_ZN3pcl8tracking21ParticleFilterTrackerINS_14PointWithRangeENS0_14ParticleXYZRPYEE8resampleEv@Base 1.6
 (optional=templinst)_ZN3pcl8tracking21ParticleFilterTrackerINS_14PointWithRangeENS0_14ParticleXYZRPYEE8setAlphaEd@Base 1.6
 (optional=templinst)_ZN3pcl8tracking21ParticleFilterTrackerINS_14PointWithRangeENS0_14ParticleXYZRPYEE8setTransERKN5Eigen9TransformIfLi3ELi2ELi0EEE@Base 1.6
 (optional=templinst)_ZN3pcl8tracking21ParticleFilterTrackerINS_14PointWithRangeENS0_14ParticleXYZRPYEEC1Ev@Base 1.6
 (optional=templinst)_ZN3pcl8tracking21ParticleFilterTrackerINS_14PointWithRangeENS0_14ParticleXYZRPYEEC2Ev@Base 1.6
 (optional=templinst)_ZN3pcl8tracking21ParticleFilterTrackerINS_14PointWithRangeENS0_14ParticleXYZRPYEED0Ev@Base 1.6
 (optional=templinst)_ZN3pcl8tracking21ParticleFilterTrackerINS_14PointWithRangeENS0_14ParticleXYZRPYEED1Ev@Base 1.6
 (optional=templinst)_ZN3pcl8tracking21ParticleFilterTrackerINS_14PointWithRangeENS0_14ParticleXYZRPYEED2Ev@Base 1.6
 (optional=templinst)_ZN3pcl8tracking21ParticleFilterTrackerINS_14PointWithScaleENS0_11ParticleXYREE11initComputeEv@Base 1.6
 (optional=templinst)_ZN3pcl8tracking21ParticleFilterTrackerINS_14PointWithScaleENS0_11ParticleXYREE12getUseNormalEv@Base 1.6
 (optional=templinst)_ZN3pcl8tracking21ParticleFilterTrackerINS_14PointWithScaleENS0_11ParticleXYREE12setUseNormalEb@Base 1.6
 (optional=templinst)_ZN3pcl8tracking21ParticleFilterTrackerINS_14PointWithScaleENS0_11ParticleXYREE13genAliasTableERSt6vectorIiSaIiEERS5_IdSaIdEERKN5boost10shared_ptrIKNS_10PointCloudIS3_EEEE@Base 1.6
 (optional=templinst)_ZN3pcl8tracking21ParticleFilterTrackerINS_14PointWithScaleENS0_11ParticleXYREE13initParticlesEb@Base 1.6
 (optional=templinst)_ZN3pcl8tracking21ParticleFilterTrackerINS_14PointWithScaleENS0_11ParticleXYREE13resetTrackingEv@Base 1.6
 (optional=templinst)_ZN3pcl8tracking21ParticleFilterTrackerINS_14PointWithScaleENS0_11ParticleXYREE13setMinIndicesEi@Base 1.6
 (optional=templinst)_ZN3pcl8tracking21ParticleFilterTrackerINS_14PointWithScaleENS0_11ParticleXYREE13toEigenMatrixERKS3_@Base 1.6
 (optional=templinst)_ZN3pcl8tracking21ParticleFilterTrackerINS_14PointWithScaleENS0_11ParticleXYREE14getMotionRatioEv@Base 1.6
 (optional=templinst)_ZN3pcl8tracking21ParticleFilterTrackerINS_14PointWithScaleENS0_11ParticleXYREE14setMotionRatioEd@Base 1.6
 (optional=templinst)_ZN3pcl8tracking21ParticleFilterTrackerINS_14PointWithScaleENS0_11ParticleXYREE14setParticleNumEi@Base 1.6
 (optional=templinst)_ZN3pcl8tracking21ParticleFilterTrackerINS_14PointWithScaleENS0_11ParticleXYREE15calcBoundingBoxERdS5_S5_S5_S5_S5_@Base 1.6
 (optional=templinst)_ZN3pcl8tracking21ParticleFilterTrackerINS_14PointWithScaleENS0_11ParticleXYREE15computeTrackingEv@Base 1.6
 (optional=templinst)_ZN3pcl8tracking21ParticleFilterTrackerINS_14PointWithScaleENS0_11ParticleXYREE15normalizeWeightEv@Base 1.6
 (optional=templinst)_ZN3pcl8tracking21ParticleFilterTrackerINS_14PointWithScaleENS0_11ParticleXYREE15setIterationNumEi@Base 1.6
 (optional=templinst)_ZN3pcl8tracking21ParticleFilterTrackerINS_14PointWithScaleENS0_11ParticleXYREE17getReferenceCloudEv@Base 1.6
 (optional=templinst)_ZN3pcl8tracking21ParticleFilterTrackerINS_14PointWithScaleENS0_11ParticleXYREE17setCloudCoherenceERKN5boost10shared_ptrINS0_19PointCloudCoherenceIS2_EEEE@Base 1.6
 (optional=templinst)_ZN3pcl8tracking21ParticleFilterTrackerINS_14PointWithScaleENS0_11ParticleXYREE17setReferenceCloudERKN5boost10shared_ptrIKNS_10PointCloudIS2_EEEE@Base 1.6
 (optional=templinst)_ZN3pcl8tracking21ParticleFilterTrackerINS_14PointWithScaleENS0_11ParticleXYREE19cropInputPointCloudERKN5boost10shared_ptrIKNS_10PointCloudIS2_EEEERS8_@Base 1.6
 (optional=templinst)_ZN3pcl8tracking21ParticleFilterTrackerINS_14PointWithScaleENS0_11ParticleXYREE19setInitialNoiseMeanERKSt6vectorIdSaIdEE@Base 1.6
 (optional=templinst)_ZN3pcl8tracking21ParticleFilterTrackerINS_14PointWithScaleENS0_11ParticleXYREE19testChangeDetectionERKN5boost10shared_ptrIKNS_10PointCloudIS2_EEEE@Base 1.6
 (optional=templinst)_ZN3pcl8tracking21ParticleFilterTrackerINS_14PointWithScaleENS0_11ParticleXYREE20getUseChangeDetectorEv@Base 1.6
 (optional=templinst)_ZN3pcl8tracking21ParticleFilterTrackerINS_14PointWithScaleENS0_11ParticleXYREE20setOcclusionAngleTheEd@Base 1.6
 (optional=templinst)_ZN3pcl8tracking21ParticleFilterTrackerINS_14PointWithScaleENS0_11ParticleXYREE20setUseChangeDetectorEb@Base 1.6
 (optional=templinst)_ZN3pcl8tracking21ParticleFilterTrackerINS_14PointWithScaleENS0_11ParticleXYREE21sampleWithReplacementERKSt6vectorIiSaIiEERKS5_IdSaIdEE@Base 1.6
 (optional=templinst)_ZN3pcl8tracking21ParticleFilterTrackerINS_14PointWithScaleENS0_11ParticleXYREE22setStepNoiseCovarianceERKSt6vectorIdSaIdEE@Base 1.6
 (optional=templinst)_ZN3pcl8tracking21ParticleFilterTrackerINS_14PointWithScaleENS0_11ParticleXYREE23normalizeParticleWeightEddd@Base 1.6
 (optional=templinst)_ZN3pcl8tracking21ParticleFilterTrackerINS_14PointWithScaleENS0_11ParticleXYREE23resampleWithReplacementEv@Base 1.6
 (optional=templinst)_ZN3pcl8tracking21ParticleFilterTrackerINS_14PointWithScaleENS0_11ParticleXYREE24setResampleLikelihoodThrEd@Base 1.6
 (optional=templinst)_ZN3pcl8tracking21ParticleFilterTrackerINS_14PointWithScaleENS0_11ParticleXYREE25setInitialNoiseCovarianceERKSt6vectorIdSaIdEE@Base 1.6
 (optional=templinst)_ZN3pcl8tracking21ParticleFilterTrackerINS_14PointWithScaleENS0_11ParticleXYREE28computeTransformedPointCloudERKS3_RSt6vectorIiSaIiEERNS_10PointCloudIS2_EE@Base 1.6
 (optional=templinst)_ZN3pcl8tracking21ParticleFilterTrackerINS_14PointWithScaleENS0_11ParticleXYREE28getIntervalOfChangeDetectionEv@Base 1.6
 (optional=templinst)_ZN3pcl8tracking21ParticleFilterTrackerINS_14PointWithScaleENS0_11ParticleXYREE28setIntervalOfChangeDetectionEj@Base 1.6
 (optional=templinst)_ZN3pcl8tracking21ParticleFilterTrackerINS_14PointWithScaleENS0_11ParticleXYREE29getMinPointsOfChangeDetectionEv@Base 1.6
 (optional=templinst)_ZN3pcl8tracking21ParticleFilterTrackerINS_14PointWithScaleENS0_11ParticleXYREE29setMinPointsOfChangeDetectionEj@Base 1.6
 (optional=templinst)_ZN3pcl8tracking21ParticleFilterTrackerINS_14PointWithScaleENS0_11ParticleXYREE30getResolutionOfChangeDetectionEv@Base 1.6
 (optional=templinst)_ZN3pcl8tracking21ParticleFilterTrackerINS_14PointWithScaleENS0_11ParticleXYREE30setResolutionOfChangeDetectionEd@Base 1.6
 (optional=templinst)_ZN3pcl8tracking21ParticleFilterTrackerINS_14PointWithScaleENS0_11ParticleXYREE38computeTransformedPointCloudWithNormalERKS3_RSt6vectorIiSaIiEERNS_10PointCloudIS2_EE@Base 1.6
 (optional=templinst)_ZN3pcl8tracking21ParticleFilterTrackerINS_14PointWithScaleENS0_11ParticleXYREE41computeTransformedPointCloudWithoutNormalERKS3_RNS_10PointCloudIS2_EE@Base 1.6
 (optional=templinst)_ZN3pcl8tracking21ParticleFilterTrackerINS_14PointWithScaleENS0_11ParticleXYREE6updateEv@Base 1.6
 (optional=templinst)_ZN3pcl8tracking21ParticleFilterTrackerINS_14PointWithScaleENS0_11ParticleXYREE6weightEv@Base 1.6
 (optional=templinst)_ZN3pcl8tracking21ParticleFilterTrackerINS_14PointWithScaleENS0_11ParticleXYREE8getAlphaEv@Base 1.6
 (optional=templinst)_ZN3pcl8tracking21ParticleFilterTrackerINS_14PointWithScaleENS0_11ParticleXYREE8resampleEv@Base 1.6
 (optional=templinst)_ZN3pcl8tracking21ParticleFilterTrackerINS_14PointWithScaleENS0_11ParticleXYREE8setAlphaEd@Base 1.6
 (optional=templinst)_ZN3pcl8tracking21ParticleFilterTrackerINS_14PointWithScaleENS0_11ParticleXYREE8setTransERKN5Eigen9TransformIfLi3ELi2ELi0EEE@Base 1.6
 (optional=templinst)_ZN3pcl8tracking21ParticleFilterTrackerINS_14PointWithScaleENS0_11ParticleXYREEC1Ev@Base 1.6
 (optional=templinst)_ZN3pcl8tracking21ParticleFilterTrackerINS_14PointWithScaleENS0_11ParticleXYREEC2Ev@Base 1.6
 (optional=templinst)_ZN3pcl8tracking21ParticleFilterTrackerINS_14PointWithScaleENS0_11ParticleXYREED0Ev@Base 1.6
 (optional=templinst)_ZN3pcl8tracking21ParticleFilterTrackerINS_14PointWithScaleENS0_11ParticleXYREED1Ev@Base 1.6
 (optional=templinst)_ZN3pcl8tracking21ParticleFilterTrackerINS_14PointWithScaleENS0_11ParticleXYREED2Ev@Base 1.6
 (optional=templinst)_ZN3pcl8tracking21ParticleFilterTrackerINS_14PointWithScaleENS0_12ParticleXYRPEE11initComputeEv@Base 1.6
 (optional=templinst)_ZN3pcl8tracking21ParticleFilterTrackerINS_14PointWithScaleENS0_12ParticleXYRPEE12getUseNormalEv@Base 1.6
 (optional=templinst)_ZN3pcl8tracking21ParticleFilterTrackerINS_14PointWithScaleENS0_12ParticleXYRPEE12setUseNormalEb@Base 1.6
 (optional=templinst)_ZN3pcl8tracking21ParticleFilterTrackerINS_14PointWithScaleENS0_12ParticleXYRPEE13genAliasTableERSt6vectorIiSaIiEERS5_IdSaIdEERKN5boost10shared_ptrIKNS_10PointCloudIS3_EEEE@Base 1.6
 (optional=templinst)_ZN3pcl8tracking21ParticleFilterTrackerINS_14PointWithScaleENS0_12ParticleXYRPEE13initParticlesEb@Base 1.6
 (optional=templinst)_ZN3pcl8tracking21ParticleFilterTrackerINS_14PointWithScaleENS0_12ParticleXYRPEE13resetTrackingEv@Base 1.6
 (optional=templinst)_ZN3pcl8tracking21ParticleFilterTrackerINS_14PointWithScaleENS0_12ParticleXYRPEE13setMinIndicesEi@Base 1.6
 (optional=templinst)_ZN3pcl8tracking21ParticleFilterTrackerINS_14PointWithScaleENS0_12ParticleXYRPEE13toEigenMatrixERKS3_@Base 1.6
 (optional=templinst)_ZN3pcl8tracking21ParticleFilterTrackerINS_14PointWithScaleENS0_12ParticleXYRPEE14getMotionRatioEv@Base 1.6
 (optional=templinst)_ZN3pcl8tracking21ParticleFilterTrackerINS_14PointWithScaleENS0_12ParticleXYRPEE14setMotionRatioEd@Base 1.6
 (optional=templinst)_ZN3pcl8tracking21ParticleFilterTrackerINS_14PointWithScaleENS0_12ParticleXYRPEE14setParticleNumEi@Base 1.6
 (optional=templinst)_ZN3pcl8tracking21ParticleFilterTrackerINS_14PointWithScaleENS0_12ParticleXYRPEE15calcBoundingBoxERdS5_S5_S5_S5_S5_@Base 1.6
 (optional=templinst)_ZN3pcl8tracking21ParticleFilterTrackerINS_14PointWithScaleENS0_12ParticleXYRPEE15computeTrackingEv@Base 1.6
 (optional=templinst)_ZN3pcl8tracking21ParticleFilterTrackerINS_14PointWithScaleENS0_12ParticleXYRPEE15normalizeWeightEv@Base 1.6
 (optional=templinst)_ZN3pcl8tracking21ParticleFilterTrackerINS_14PointWithScaleENS0_12ParticleXYRPEE15setIterationNumEi@Base 1.6
 (optional=templinst)_ZN3pcl8tracking21ParticleFilterTrackerINS_14PointWithScaleENS0_12ParticleXYRPEE17getReferenceCloudEv@Base 1.6
 (optional=templinst)_ZN3pcl8tracking21ParticleFilterTrackerINS_14PointWithScaleENS0_12ParticleXYRPEE17setCloudCoherenceERKN5boost10shared_ptrINS0_19PointCloudCoherenceIS2_EEEE@Base 1.6
 (optional=templinst)_ZN3pcl8tracking21ParticleFilterTrackerINS_14PointWithScaleENS0_12ParticleXYRPEE17setReferenceCloudERKN5boost10shared_ptrIKNS_10PointCloudIS2_EEEE@Base 1.6
 (optional=templinst)_ZN3pcl8tracking21ParticleFilterTrackerINS_14PointWithScaleENS0_12ParticleXYRPEE19cropInputPointCloudERKN5boost10shared_ptrIKNS_10PointCloudIS2_EEEERS8_@Base 1.6
 (optional=templinst)_ZN3pcl8tracking21ParticleFilterTrackerINS_14PointWithScaleENS0_12ParticleXYRPEE19setInitialNoiseMeanERKSt6vectorIdSaIdEE@Base 1.6
 (optional=templinst)_ZN3pcl8tracking21ParticleFilterTrackerINS_14PointWithScaleENS0_12ParticleXYRPEE19testChangeDetectionERKN5boost10shared_ptrIKNS_10PointCloudIS2_EEEE@Base 1.6
 (optional=templinst)_ZN3pcl8tracking21ParticleFilterTrackerINS_14PointWithScaleENS0_12ParticleXYRPEE20getUseChangeDetectorEv@Base 1.6
 (optional=templinst)_ZN3pcl8tracking21ParticleFilterTrackerINS_14PointWithScaleENS0_12ParticleXYRPEE20setOcclusionAngleTheEd@Base 1.6
 (optional=templinst)_ZN3pcl8tracking21ParticleFilterTrackerINS_14PointWithScaleENS0_12ParticleXYRPEE20setUseChangeDetectorEb@Base 1.6
 (optional=templinst)_ZN3pcl8tracking21ParticleFilterTrackerINS_14PointWithScaleENS0_12ParticleXYRPEE21sampleWithReplacementERKSt6vectorIiSaIiEERKS5_IdSaIdEE@Base 1.6
 (optional=templinst)_ZN3pcl8tracking21ParticleFilterTrackerINS_14PointWithScaleENS0_12ParticleXYRPEE22setStepNoiseCovarianceERKSt6vectorIdSaIdEE@Base 1.6
 (optional=templinst)_ZN3pcl8tracking21ParticleFilterTrackerINS_14PointWithScaleENS0_12ParticleXYRPEE23normalizeParticleWeightEddd@Base 1.6
 (optional=templinst)_ZN3pcl8tracking21ParticleFilterTrackerINS_14PointWithScaleENS0_12ParticleXYRPEE23resampleWithReplacementEv@Base 1.6
 (optional=templinst)_ZN3pcl8tracking21ParticleFilterTrackerINS_14PointWithScaleENS0_12ParticleXYRPEE24setResampleLikelihoodThrEd@Base 1.6
 (optional=templinst)_ZN3pcl8tracking21ParticleFilterTrackerINS_14PointWithScaleENS0_12ParticleXYRPEE25setInitialNoiseCovarianceERKSt6vectorIdSaIdEE@Base 1.6
 (optional=templinst)_ZN3pcl8tracking21ParticleFilterTrackerINS_14PointWithScaleENS0_12ParticleXYRPEE28computeTransformedPointCloudERKS3_RSt6vectorIiSaIiEERNS_10PointCloudIS2_EE@Base 1.6
 (optional=templinst)_ZN3pcl8tracking21ParticleFilterTrackerINS_14PointWithScaleENS0_12ParticleXYRPEE28getIntervalOfChangeDetectionEv@Base 1.6
 (optional=templinst)_ZN3pcl8tracking21ParticleFilterTrackerINS_14PointWithScaleENS0_12ParticleXYRPEE28setIntervalOfChangeDetectionEj@Base 1.6
 (optional=templinst)_ZN3pcl8tracking21ParticleFilterTrackerINS_14PointWithScaleENS0_12ParticleXYRPEE29getMinPointsOfChangeDetectionEv@Base 1.6
 (optional=templinst)_ZN3pcl8tracking21ParticleFilterTrackerINS_14PointWithScaleENS0_12ParticleXYRPEE29setMinPointsOfChangeDetectionEj@Base 1.6
 (optional=templinst)_ZN3pcl8tracking21ParticleFilterTrackerINS_14PointWithScaleENS0_12ParticleXYRPEE30getResolutionOfChangeDetectionEv@Base 1.6
 (optional=templinst)_ZN3pcl8tracking21ParticleFilterTrackerINS_14PointWithScaleENS0_12ParticleXYRPEE30setResolutionOfChangeDetectionEd@Base 1.6
 (optional=templinst)_ZN3pcl8tracking21ParticleFilterTrackerINS_14PointWithScaleENS0_12ParticleXYRPEE38computeTransformedPointCloudWithNormalERKS3_RSt6vectorIiSaIiEERNS_10PointCloudIS2_EE@Base 1.6
 (optional=templinst)_ZN3pcl8tracking21ParticleFilterTrackerINS_14PointWithScaleENS0_12ParticleXYRPEE41computeTransformedPointCloudWithoutNormalERKS3_RNS_10PointCloudIS2_EE@Base 1.6
 (optional=templinst)_ZN3pcl8tracking21ParticleFilterTrackerINS_14PointWithScaleENS0_12ParticleXYRPEE6updateEv@Base 1.6
 (optional=templinst)_ZN3pcl8tracking21ParticleFilterTrackerINS_14PointWithScaleENS0_12ParticleXYRPEE6weightEv@Base 1.6
 (optional=templinst)_ZN3pcl8tracking21ParticleFilterTrackerINS_14PointWithScaleENS0_12ParticleXYRPEE8getAlphaEv@Base 1.6
 (optional=templinst)_ZN3pcl8tracking21ParticleFilterTrackerINS_14PointWithScaleENS0_12ParticleXYRPEE8resampleEv@Base 1.6
 (optional=templinst)_ZN3pcl8tracking21ParticleFilterTrackerINS_14PointWithScaleENS0_12ParticleXYRPEE8setAlphaEd@Base 1.6
 (optional=templinst)_ZN3pcl8tracking21ParticleFilterTrackerINS_14PointWithScaleENS0_12ParticleXYRPEE8setTransERKN5Eigen9TransformIfLi3ELi2ELi0EEE@Base 1.6
 (optional=templinst)_ZN3pcl8tracking21ParticleFilterTrackerINS_14PointWithScaleENS0_12ParticleXYRPEEC1Ev@Base 1.6
 (optional=templinst)_ZN3pcl8tracking21ParticleFilterTrackerINS_14PointWithScaleENS0_12ParticleXYRPEEC2Ev@Base 1.6
 (optional=templinst)_ZN3pcl8tracking21ParticleFilterTrackerINS_14PointWithScaleENS0_12ParticleXYRPEED0Ev@Base 1.6
 (optional=templinst)_ZN3pcl8tracking21ParticleFilterTrackerINS_14PointWithScaleENS0_12ParticleXYRPEED1Ev@Base 1.6
 (optional=templinst)_ZN3pcl8tracking21ParticleFilterTrackerINS_14PointWithScaleENS0_12ParticleXYRPEED2Ev@Base 1.6
 (optional=templinst)_ZN3pcl8tracking21ParticleFilterTrackerINS_14PointWithScaleENS0_12ParticleXYZREE11initComputeEv@Base 1.6
 (optional=templinst)_ZN3pcl8tracking21ParticleFilterTrackerINS_14PointWithScaleENS0_12ParticleXYZREE12getUseNormalEv@Base 1.6
 (optional=templinst)_ZN3pcl8tracking21ParticleFilterTrackerINS_14PointWithScaleENS0_12ParticleXYZREE12setUseNormalEb@Base 1.6
 (optional=templinst)_ZN3pcl8tracking21ParticleFilterTrackerINS_14PointWithScaleENS0_12ParticleXYZREE13genAliasTableERSt6vectorIiSaIiEERS5_IdSaIdEERKN5boost10shared_ptrIKNS_10PointCloudIS3_EEEE@Base 1.6
 (optional=templinst)_ZN3pcl8tracking21ParticleFilterTrackerINS_14PointWithScaleENS0_12ParticleXYZREE13initParticlesEb@Base 1.6
 (optional=templinst)_ZN3pcl8tracking21ParticleFilterTrackerINS_14PointWithScaleENS0_12ParticleXYZREE13resetTrackingEv@Base 1.6
 (optional=templinst)_ZN3pcl8tracking21ParticleFilterTrackerINS_14PointWithScaleENS0_12ParticleXYZREE13setMinIndicesEi@Base 1.6
 (optional=templinst)_ZN3pcl8tracking21ParticleFilterTrackerINS_14PointWithScaleENS0_12ParticleXYZREE13toEigenMatrixERKS3_@Base 1.6
 (optional=templinst)_ZN3pcl8tracking21ParticleFilterTrackerINS_14PointWithScaleENS0_12ParticleXYZREE14getMotionRatioEv@Base 1.6
 (optional=templinst)_ZN3pcl8tracking21ParticleFilterTrackerINS_14PointWithScaleENS0_12ParticleXYZREE14setMotionRatioEd@Base 1.6
 (optional=templinst)_ZN3pcl8tracking21ParticleFilterTrackerINS_14PointWithScaleENS0_12ParticleXYZREE14setParticleNumEi@Base 1.6
 (optional=templinst)_ZN3pcl8tracking21ParticleFilterTrackerINS_14PointWithScaleENS0_12ParticleXYZREE15calcBoundingBoxERdS5_S5_S5_S5_S5_@Base 1.6
 (optional=templinst)_ZN3pcl8tracking21ParticleFilterTrackerINS_14PointWithScaleENS0_12ParticleXYZREE15computeTrackingEv@Base 1.6
 (optional=templinst)_ZN3pcl8tracking21ParticleFilterTrackerINS_14PointWithScaleENS0_12ParticleXYZREE15normalizeWeightEv@Base 1.6
 (optional=templinst)_ZN3pcl8tracking21ParticleFilterTrackerINS_14PointWithScaleENS0_12ParticleXYZREE15setIterationNumEi@Base 1.6
 (optional=templinst)_ZN3pcl8tracking21ParticleFilterTrackerINS_14PointWithScaleENS0_12ParticleXYZREE17getReferenceCloudEv@Base 1.6
 (optional=templinst)_ZN3pcl8tracking21ParticleFilterTrackerINS_14PointWithScaleENS0_12ParticleXYZREE17setCloudCoherenceERKN5boost10shared_ptrINS0_19PointCloudCoherenceIS2_EEEE@Base 1.6
 (optional=templinst)_ZN3pcl8tracking21ParticleFilterTrackerINS_14PointWithScaleENS0_12ParticleXYZREE17setReferenceCloudERKN5boost10shared_ptrIKNS_10PointCloudIS2_EEEE@Base 1.6
 (optional=templinst)_ZN3pcl8tracking21ParticleFilterTrackerINS_14PointWithScaleENS0_12ParticleXYZREE19cropInputPointCloudERKN5boost10shared_ptrIKNS_10PointCloudIS2_EEEERS8_@Base 1.6
 (optional=templinst)_ZN3pcl8tracking21ParticleFilterTrackerINS_14PointWithScaleENS0_12ParticleXYZREE19setInitialNoiseMeanERKSt6vectorIdSaIdEE@Base 1.6
 (optional=templinst)_ZN3pcl8tracking21ParticleFilterTrackerINS_14PointWithScaleENS0_12ParticleXYZREE19testChangeDetectionERKN5boost10shared_ptrIKNS_10PointCloudIS2_EEEE@Base 1.6
 (optional=templinst)_ZN3pcl8tracking21ParticleFilterTrackerINS_14PointWithScaleENS0_12ParticleXYZREE20getUseChangeDetectorEv@Base 1.6
 (optional=templinst)_ZN3pcl8tracking21ParticleFilterTrackerINS_14PointWithScaleENS0_12ParticleXYZREE20setOcclusionAngleTheEd@Base 1.6
 (optional=templinst)_ZN3pcl8tracking21ParticleFilterTrackerINS_14PointWithScaleENS0_12ParticleXYZREE20setUseChangeDetectorEb@Base 1.6
 (optional=templinst)_ZN3pcl8tracking21ParticleFilterTrackerINS_14PointWithScaleENS0_12ParticleXYZREE21sampleWithReplacementERKSt6vectorIiSaIiEERKS5_IdSaIdEE@Base 1.6
 (optional=templinst)_ZN3pcl8tracking21ParticleFilterTrackerINS_14PointWithScaleENS0_12ParticleXYZREE22setStepNoiseCovarianceERKSt6vectorIdSaIdEE@Base 1.6
 (optional=templinst)_ZN3pcl8tracking21ParticleFilterTrackerINS_14PointWithScaleENS0_12ParticleXYZREE23normalizeParticleWeightEddd@Base 1.6
 (optional=templinst)_ZN3pcl8tracking21ParticleFilterTrackerINS_14PointWithScaleENS0_12ParticleXYZREE23resampleWithReplacementEv@Base 1.6
 (optional=templinst)_ZN3pcl8tracking21ParticleFilterTrackerINS_14PointWithScaleENS0_12ParticleXYZREE24setResampleLikelihoodThrEd@Base 1.6
 (optional=templinst)_ZN3pcl8tracking21ParticleFilterTrackerINS_14PointWithScaleENS0_12ParticleXYZREE25setInitialNoiseCovarianceERKSt6vectorIdSaIdEE@Base 1.6
 (optional=templinst)_ZN3pcl8tracking21ParticleFilterTrackerINS_14PointWithScaleENS0_12ParticleXYZREE28computeTransformedPointCloudERKS3_RSt6vectorIiSaIiEERNS_10PointCloudIS2_EE@Base 1.6
 (optional=templinst)_ZN3pcl8tracking21ParticleFilterTrackerINS_14PointWithScaleENS0_12ParticleXYZREE28getIntervalOfChangeDetectionEv@Base 1.6
 (optional=templinst)_ZN3pcl8tracking21ParticleFilterTrackerINS_14PointWithScaleENS0_12ParticleXYZREE28setIntervalOfChangeDetectionEj@Base 1.6
 (optional=templinst)_ZN3pcl8tracking21ParticleFilterTrackerINS_14PointWithScaleENS0_12ParticleXYZREE29getMinPointsOfChangeDetectionEv@Base 1.6
 (optional=templinst)_ZN3pcl8tracking21ParticleFilterTrackerINS_14PointWithScaleENS0_12ParticleXYZREE29setMinPointsOfChangeDetectionEj@Base 1.6
 (optional=templinst)_ZN3pcl8tracking21ParticleFilterTrackerINS_14PointWithScaleENS0_12ParticleXYZREE30getResolutionOfChangeDetectionEv@Base 1.6
 (optional=templinst)_ZN3pcl8tracking21ParticleFilterTrackerINS_14PointWithScaleENS0_12ParticleXYZREE30setResolutionOfChangeDetectionEd@Base 1.6
 (optional=templinst)_ZN3pcl8tracking21ParticleFilterTrackerINS_14PointWithScaleENS0_12ParticleXYZREE38computeTransformedPointCloudWithNormalERKS3_RSt6vectorIiSaIiEERNS_10PointCloudIS2_EE@Base 1.6
 (optional=templinst)_ZN3pcl8tracking21ParticleFilterTrackerINS_14PointWithScaleENS0_12ParticleXYZREE41computeTransformedPointCloudWithoutNormalERKS3_RNS_10PointCloudIS2_EE@Base 1.6
 (optional=templinst)_ZN3pcl8tracking21ParticleFilterTrackerINS_14PointWithScaleENS0_12ParticleXYZREE6updateEv@Base 1.6
 (optional=templinst)_ZN3pcl8tracking21ParticleFilterTrackerINS_14PointWithScaleENS0_12ParticleXYZREE6weightEv@Base 1.6
 (optional=templinst)_ZN3pcl8tracking21ParticleFilterTrackerINS_14PointWithScaleENS0_12ParticleXYZREE8getAlphaEv@Base 1.6
 (optional=templinst)_ZN3pcl8tracking21ParticleFilterTrackerINS_14PointWithScaleENS0_12ParticleXYZREE8resampleEv@Base 1.6
 (optional=templinst)_ZN3pcl8tracking21ParticleFilterTrackerINS_14PointWithScaleENS0_12ParticleXYZREE8setAlphaEd@Base 1.6
 (optional=templinst)_ZN3pcl8tracking21ParticleFilterTrackerINS_14PointWithScaleENS0_12ParticleXYZREE8setTransERKN5Eigen9TransformIfLi3ELi2ELi0EEE@Base 1.6
 (optional=templinst)_ZN3pcl8tracking21ParticleFilterTrackerINS_14PointWithScaleENS0_12ParticleXYZREEC1Ev@Base 1.6
 (optional=templinst)_ZN3pcl8tracking21ParticleFilterTrackerINS_14PointWithScaleENS0_12ParticleXYZREEC2Ev@Base 1.6
 (optional=templinst)_ZN3pcl8tracking21ParticleFilterTrackerINS_14PointWithScaleENS0_12ParticleXYZREED0Ev@Base 1.6
 (optional=templinst)_ZN3pcl8tracking21ParticleFilterTrackerINS_14PointWithScaleENS0_12ParticleXYZREED1Ev@Base 1.6
 (optional=templinst)_ZN3pcl8tracking21ParticleFilterTrackerINS_14PointWithScaleENS0_12ParticleXYZREED2Ev@Base 1.6
 (optional=templinst)_ZN3pcl8tracking21ParticleFilterTrackerINS_14PointWithScaleENS0_13ParticleXYRPYEE11initComputeEv@Base 1.6
 (optional=templinst)_ZN3pcl8tracking21ParticleFilterTrackerINS_14PointWithScaleENS0_13ParticleXYRPYEE12getUseNormalEv@Base 1.6
 (optional=templinst)_ZN3pcl8tracking21ParticleFilterTrackerINS_14PointWithScaleENS0_13ParticleXYRPYEE12setUseNormalEb@Base 1.6
 (optional=templinst)_ZN3pcl8tracking21ParticleFilterTrackerINS_14PointWithScaleENS0_13ParticleXYRPYEE13genAliasTableERSt6vectorIiSaIiEERS5_IdSaIdEERKN5boost10shared_ptrIKNS_10PointCloudIS3_EEEE@Base 1.6
 (optional=templinst)_ZN3pcl8tracking21ParticleFilterTrackerINS_14PointWithScaleENS0_13ParticleXYRPYEE13initParticlesEb@Base 1.6
 (optional=templinst)_ZN3pcl8tracking21ParticleFilterTrackerINS_14PointWithScaleENS0_13ParticleXYRPYEE13resetTrackingEv@Base 1.6
 (optional=templinst)_ZN3pcl8tracking21ParticleFilterTrackerINS_14PointWithScaleENS0_13ParticleXYRPYEE13setMinIndicesEi@Base 1.6
 (optional=templinst)_ZN3pcl8tracking21ParticleFilterTrackerINS_14PointWithScaleENS0_13ParticleXYRPYEE13toEigenMatrixERKS3_@Base 1.6
 (optional=templinst)_ZN3pcl8tracking21ParticleFilterTrackerINS_14PointWithScaleENS0_13ParticleXYRPYEE14getMotionRatioEv@Base 1.6
 (optional=templinst)_ZN3pcl8tracking21ParticleFilterTrackerINS_14PointWithScaleENS0_13ParticleXYRPYEE14setMotionRatioEd@Base 1.6
 (optional=templinst)_ZN3pcl8tracking21ParticleFilterTrackerINS_14PointWithScaleENS0_13ParticleXYRPYEE14setParticleNumEi@Base 1.6
 (optional=templinst)_ZN3pcl8tracking21ParticleFilterTrackerINS_14PointWithScaleENS0_13ParticleXYRPYEE15calcBoundingBoxERdS5_S5_S5_S5_S5_@Base 1.6
 (optional=templinst)_ZN3pcl8tracking21ParticleFilterTrackerINS_14PointWithScaleENS0_13ParticleXYRPYEE15computeTrackingEv@Base 1.6
 (optional=templinst)_ZN3pcl8tracking21ParticleFilterTrackerINS_14PointWithScaleENS0_13ParticleXYRPYEE15normalizeWeightEv@Base 1.6
 (optional=templinst)_ZN3pcl8tracking21ParticleFilterTrackerINS_14PointWithScaleENS0_13ParticleXYRPYEE15setIterationNumEi@Base 1.6
 (optional=templinst)_ZN3pcl8tracking21ParticleFilterTrackerINS_14PointWithScaleENS0_13ParticleXYRPYEE17getReferenceCloudEv@Base 1.6
 (optional=templinst)_ZN3pcl8tracking21ParticleFilterTrackerINS_14PointWithScaleENS0_13ParticleXYRPYEE17setCloudCoherenceERKN5boost10shared_ptrINS0_19PointCloudCoherenceIS2_EEEE@Base 1.6
 (optional=templinst)_ZN3pcl8tracking21ParticleFilterTrackerINS_14PointWithScaleENS0_13ParticleXYRPYEE17setReferenceCloudERKN5boost10shared_ptrIKNS_10PointCloudIS2_EEEE@Base 1.6
 (optional=templinst)_ZN3pcl8tracking21ParticleFilterTrackerINS_14PointWithScaleENS0_13ParticleXYRPYEE19cropInputPointCloudERKN5boost10shared_ptrIKNS_10PointCloudIS2_EEEERS8_@Base 1.6
 (optional=templinst)_ZN3pcl8tracking21ParticleFilterTrackerINS_14PointWithScaleENS0_13ParticleXYRPYEE19setInitialNoiseMeanERKSt6vectorIdSaIdEE@Base 1.6
 (optional=templinst)_ZN3pcl8tracking21ParticleFilterTrackerINS_14PointWithScaleENS0_13ParticleXYRPYEE19testChangeDetectionERKN5boost10shared_ptrIKNS_10PointCloudIS2_EEEE@Base 1.6
 (optional=templinst)_ZN3pcl8tracking21ParticleFilterTrackerINS_14PointWithScaleENS0_13ParticleXYRPYEE20getUseChangeDetectorEv@Base 1.6
 (optional=templinst)_ZN3pcl8tracking21ParticleFilterTrackerINS_14PointWithScaleENS0_13ParticleXYRPYEE20setOcclusionAngleTheEd@Base 1.6
 (optional=templinst)_ZN3pcl8tracking21ParticleFilterTrackerINS_14PointWithScaleENS0_13ParticleXYRPYEE20setUseChangeDetectorEb@Base 1.6
 (optional=templinst)_ZN3pcl8tracking21ParticleFilterTrackerINS_14PointWithScaleENS0_13ParticleXYRPYEE21sampleWithReplacementERKSt6vectorIiSaIiEERKS5_IdSaIdEE@Base 1.6
 (optional=templinst)_ZN3pcl8tracking21ParticleFilterTrackerINS_14PointWithScaleENS0_13ParticleXYRPYEE22setStepNoiseCovarianceERKSt6vectorIdSaIdEE@Base 1.6
 (optional=templinst)_ZN3pcl8tracking21ParticleFilterTrackerINS_14PointWithScaleENS0_13ParticleXYRPYEE23normalizeParticleWeightEddd@Base 1.6
 (optional=templinst)_ZN3pcl8tracking21ParticleFilterTrackerINS_14PointWithScaleENS0_13ParticleXYRPYEE23resampleWithReplacementEv@Base 1.6
 (optional=templinst)_ZN3pcl8tracking21ParticleFilterTrackerINS_14PointWithScaleENS0_13ParticleXYRPYEE24setResampleLikelihoodThrEd@Base 1.6
 (optional=templinst)_ZN3pcl8tracking21ParticleFilterTrackerINS_14PointWithScaleENS0_13ParticleXYRPYEE25setInitialNoiseCovarianceERKSt6vectorIdSaIdEE@Base 1.6
 (optional=templinst)_ZN3pcl8tracking21ParticleFilterTrackerINS_14PointWithScaleENS0_13ParticleXYRPYEE28computeTransformedPointCloudERKS3_RSt6vectorIiSaIiEERNS_10PointCloudIS2_EE@Base 1.6
 (optional=templinst)_ZN3pcl8tracking21ParticleFilterTrackerINS_14PointWithScaleENS0_13ParticleXYRPYEE28getIntervalOfChangeDetectionEv@Base 1.6
 (optional=templinst)_ZN3pcl8tracking21ParticleFilterTrackerINS_14PointWithScaleENS0_13ParticleXYRPYEE28setIntervalOfChangeDetectionEj@Base 1.6
 (optional=templinst)_ZN3pcl8tracking21ParticleFilterTrackerINS_14PointWithScaleENS0_13ParticleXYRPYEE29getMinPointsOfChangeDetectionEv@Base 1.6
 (optional=templinst)_ZN3pcl8tracking21ParticleFilterTrackerINS_14PointWithScaleENS0_13ParticleXYRPYEE29setMinPointsOfChangeDetectionEj@Base 1.6
 (optional=templinst)_ZN3pcl8tracking21ParticleFilterTrackerINS_14PointWithScaleENS0_13ParticleXYRPYEE30getResolutionOfChangeDetectionEv@Base 1.6
 (optional=templinst)_ZN3pcl8tracking21ParticleFilterTrackerINS_14PointWithScaleENS0_13ParticleXYRPYEE30setResolutionOfChangeDetectionEd@Base 1.6
 (optional=templinst)_ZN3pcl8tracking21ParticleFilterTrackerINS_14PointWithScaleENS0_13ParticleXYRPYEE38computeTransformedPointCloudWithNormalERKS3_RSt6vectorIiSaIiEERNS_10PointCloudIS2_EE@Base 1.6
 (optional=templinst)_ZN3pcl8tracking21ParticleFilterTrackerINS_14PointWithScaleENS0_13ParticleXYRPYEE41computeTransformedPointCloudWithoutNormalERKS3_RNS_10PointCloudIS2_EE@Base 1.6
 (optional=templinst)_ZN3pcl8tracking21ParticleFilterTrackerINS_14PointWithScaleENS0_13ParticleXYRPYEE6updateEv@Base 1.6
 (optional=templinst)_ZN3pcl8tracking21ParticleFilterTrackerINS_14PointWithScaleENS0_13ParticleXYRPYEE6weightEv@Base 1.6
 (optional=templinst)_ZN3pcl8tracking21ParticleFilterTrackerINS_14PointWithScaleENS0_13ParticleXYRPYEE8getAlphaEv@Base 1.6
 (optional=templinst)_ZN3pcl8tracking21ParticleFilterTrackerINS_14PointWithScaleENS0_13ParticleXYRPYEE8resampleEv@Base 1.6
 (optional=templinst)_ZN3pcl8tracking21ParticleFilterTrackerINS_14PointWithScaleENS0_13ParticleXYRPYEE8setAlphaEd@Base 1.6
 (optional=templinst)_ZN3pcl8tracking21ParticleFilterTrackerINS_14PointWithScaleENS0_13ParticleXYRPYEE8setTransERKN5Eigen9TransformIfLi3ELi2ELi0EEE@Base 1.6
 (optional=templinst)_ZN3pcl8tracking21ParticleFilterTrackerINS_14PointWithScaleENS0_13ParticleXYRPYEEC1Ev@Base 1.6
 (optional=templinst)_ZN3pcl8tracking21ParticleFilterTrackerINS_14PointWithScaleENS0_13ParticleXYRPYEEC2Ev@Base 1.6
 (optional=templinst)_ZN3pcl8tracking21ParticleFilterTrackerINS_14PointWithScaleENS0_13ParticleXYRPYEED0Ev@Base 1.6
 (optional=templinst)_ZN3pcl8tracking21ParticleFilterTrackerINS_14PointWithScaleENS0_13ParticleXYRPYEED1Ev@Base 1.6
 (optional=templinst)_ZN3pcl8tracking21ParticleFilterTrackerINS_14PointWithScaleENS0_13ParticleXYRPYEED2Ev@Base 1.6
 (optional=templinst)_ZN3pcl8tracking21ParticleFilterTrackerINS_14PointWithScaleENS0_14ParticleXYZRPYEE11initComputeEv@Base 1.6
 (optional=templinst)_ZN3pcl8tracking21ParticleFilterTrackerINS_14PointWithScaleENS0_14ParticleXYZRPYEE12getUseNormalEv@Base 1.6
 (optional=templinst)_ZN3pcl8tracking21ParticleFilterTrackerINS_14PointWithScaleENS0_14ParticleXYZRPYEE12setUseNormalEb@Base 1.6
 (optional=templinst)_ZN3pcl8tracking21ParticleFilterTrackerINS_14PointWithScaleENS0_14ParticleXYZRPYEE13genAliasTableERSt6vectorIiSaIiEERS5_IdSaIdEERKN5boost10shared_ptrIKNS_10PointCloudIS3_EEEE@Base 1.6
 (optional=templinst)_ZN3pcl8tracking21ParticleFilterTrackerINS_14PointWithScaleENS0_14ParticleXYZRPYEE13initParticlesEb@Base 1.6
 (optional=templinst)_ZN3pcl8tracking21ParticleFilterTrackerINS_14PointWithScaleENS0_14ParticleXYZRPYEE13resetTrackingEv@Base 1.6
 (optional=templinst)_ZN3pcl8tracking21ParticleFilterTrackerINS_14PointWithScaleENS0_14ParticleXYZRPYEE13setMinIndicesEi@Base 1.6
 (optional=templinst)_ZN3pcl8tracking21ParticleFilterTrackerINS_14PointWithScaleENS0_14ParticleXYZRPYEE13toEigenMatrixERKS3_@Base 1.6
 (optional=templinst)_ZN3pcl8tracking21ParticleFilterTrackerINS_14PointWithScaleENS0_14ParticleXYZRPYEE14getMotionRatioEv@Base 1.6
 (optional=templinst)_ZN3pcl8tracking21ParticleFilterTrackerINS_14PointWithScaleENS0_14ParticleXYZRPYEE14setMotionRatioEd@Base 1.6
 (optional=templinst)_ZN3pcl8tracking21ParticleFilterTrackerINS_14PointWithScaleENS0_14ParticleXYZRPYEE14setParticleNumEi@Base 1.6
 (optional=templinst)_ZN3pcl8tracking21ParticleFilterTrackerINS_14PointWithScaleENS0_14ParticleXYZRPYEE15calcBoundingBoxERdS5_S5_S5_S5_S5_@Base 1.6
 (optional=templinst)_ZN3pcl8tracking21ParticleFilterTrackerINS_14PointWithScaleENS0_14ParticleXYZRPYEE15computeTrackingEv@Base 1.6
 (optional=templinst)_ZN3pcl8tracking21ParticleFilterTrackerINS_14PointWithScaleENS0_14ParticleXYZRPYEE15normalizeWeightEv@Base 1.6
 (optional=templinst)_ZN3pcl8tracking21ParticleFilterTrackerINS_14PointWithScaleENS0_14ParticleXYZRPYEE15setIterationNumEi@Base 1.6
 (optional=templinst)_ZN3pcl8tracking21ParticleFilterTrackerINS_14PointWithScaleENS0_14ParticleXYZRPYEE17getReferenceCloudEv@Base 1.6
 (optional=templinst)_ZN3pcl8tracking21ParticleFilterTrackerINS_14PointWithScaleENS0_14ParticleXYZRPYEE17setCloudCoherenceERKN5boost10shared_ptrINS0_19PointCloudCoherenceIS2_EEEE@Base 1.6
 (optional=templinst)_ZN3pcl8tracking21ParticleFilterTrackerINS_14PointWithScaleENS0_14ParticleXYZRPYEE17setReferenceCloudERKN5boost10shared_ptrIKNS_10PointCloudIS2_EEEE@Base 1.6
 (optional=templinst)_ZN3pcl8tracking21ParticleFilterTrackerINS_14PointWithScaleENS0_14ParticleXYZRPYEE19cropInputPointCloudERKN5boost10shared_ptrIKNS_10PointCloudIS2_EEEERS8_@Base 1.6
 (optional=templinst)_ZN3pcl8tracking21ParticleFilterTrackerINS_14PointWithScaleENS0_14ParticleXYZRPYEE19setInitialNoiseMeanERKSt6vectorIdSaIdEE@Base 1.6
 (optional=templinst)_ZN3pcl8tracking21ParticleFilterTrackerINS_14PointWithScaleENS0_14ParticleXYZRPYEE19testChangeDetectionERKN5boost10shared_ptrIKNS_10PointCloudIS2_EEEE@Base 1.6
 (optional=templinst)_ZN3pcl8tracking21ParticleFilterTrackerINS_14PointWithScaleENS0_14ParticleXYZRPYEE20getUseChangeDetectorEv@Base 1.6
 (optional=templinst)_ZN3pcl8tracking21ParticleFilterTrackerINS_14PointWithScaleENS0_14ParticleXYZRPYEE20setOcclusionAngleTheEd@Base 1.6
 (optional=templinst)_ZN3pcl8tracking21ParticleFilterTrackerINS_14PointWithScaleENS0_14ParticleXYZRPYEE20setUseChangeDetectorEb@Base 1.6
 (optional=templinst)_ZN3pcl8tracking21ParticleFilterTrackerINS_14PointWithScaleENS0_14ParticleXYZRPYEE21sampleWithReplacementERKSt6vectorIiSaIiEERKS5_IdSaIdEE@Base 1.6
 (optional=templinst)_ZN3pcl8tracking21ParticleFilterTrackerINS_14PointWithScaleENS0_14ParticleXYZRPYEE22setStepNoiseCovarianceERKSt6vectorIdSaIdEE@Base 1.6
 (optional=templinst)_ZN3pcl8tracking21ParticleFilterTrackerINS_14PointWithScaleENS0_14ParticleXYZRPYEE23normalizeParticleWeightEddd@Base 1.6
 (optional=templinst)_ZN3pcl8tracking21ParticleFilterTrackerINS_14PointWithScaleENS0_14ParticleXYZRPYEE23resampleWithReplacementEv@Base 1.6
 (optional=templinst)_ZN3pcl8tracking21ParticleFilterTrackerINS_14PointWithScaleENS0_14ParticleXYZRPYEE24setResampleLikelihoodThrEd@Base 1.6
 (optional=templinst)_ZN3pcl8tracking21ParticleFilterTrackerINS_14PointWithScaleENS0_14ParticleXYZRPYEE25setInitialNoiseCovarianceERKSt6vectorIdSaIdEE@Base 1.6
 (optional=templinst)_ZN3pcl8tracking21ParticleFilterTrackerINS_14PointWithScaleENS0_14ParticleXYZRPYEE28computeTransformedPointCloudERKS3_RSt6vectorIiSaIiEERNS_10PointCloudIS2_EE@Base 1.6
 (optional=templinst)_ZN3pcl8tracking21ParticleFilterTrackerINS_14PointWithScaleENS0_14ParticleXYZRPYEE28getIntervalOfChangeDetectionEv@Base 1.6
 (optional=templinst)_ZN3pcl8tracking21ParticleFilterTrackerINS_14PointWithScaleENS0_14ParticleXYZRPYEE28setIntervalOfChangeDetectionEj@Base 1.6
 (optional=templinst)_ZN3pcl8tracking21ParticleFilterTrackerINS_14PointWithScaleENS0_14ParticleXYZRPYEE29getMinPointsOfChangeDetectionEv@Base 1.6
 (optional=templinst)_ZN3pcl8tracking21ParticleFilterTrackerINS_14PointWithScaleENS0_14ParticleXYZRPYEE29setMinPointsOfChangeDetectionEj@Base 1.6
 (optional=templinst)_ZN3pcl8tracking21ParticleFilterTrackerINS_14PointWithScaleENS0_14ParticleXYZRPYEE30getResolutionOfChangeDetectionEv@Base 1.6
 (optional=templinst)_ZN3pcl8tracking21ParticleFilterTrackerINS_14PointWithScaleENS0_14ParticleXYZRPYEE30setResolutionOfChangeDetectionEd@Base 1.6
 (optional=templinst)_ZN3pcl8tracking21ParticleFilterTrackerINS_14PointWithScaleENS0_14ParticleXYZRPYEE38computeTransformedPointCloudWithNormalERKS3_RSt6vectorIiSaIiEERNS_10PointCloudIS2_EE@Base 1.6
 (optional=templinst)_ZN3pcl8tracking21ParticleFilterTrackerINS_14PointWithScaleENS0_14ParticleXYZRPYEE41computeTransformedPointCloudWithoutNormalERKS3_RNS_10PointCloudIS2_EE@Base 1.6
 (optional=templinst)_ZN3pcl8tracking21ParticleFilterTrackerINS_14PointWithScaleENS0_14ParticleXYZRPYEE6updateEv@Base 1.6
 (optional=templinst)_ZN3pcl8tracking21ParticleFilterTrackerINS_14PointWithScaleENS0_14ParticleXYZRPYEE6weightEv@Base 1.6
 (optional=templinst)_ZN3pcl8tracking21ParticleFilterTrackerINS_14PointWithScaleENS0_14ParticleXYZRPYEE8getAlphaEv@Base 1.6
 (optional=templinst)_ZN3pcl8tracking21ParticleFilterTrackerINS_14PointWithScaleENS0_14ParticleXYZRPYEE8resampleEv@Base 1.6
 (optional=templinst)_ZN3pcl8tracking21ParticleFilterTrackerINS_14PointWithScaleENS0_14ParticleXYZRPYEE8setAlphaEd@Base 1.6
 (optional=templinst)_ZN3pcl8tracking21ParticleFilterTrackerINS_14PointWithScaleENS0_14ParticleXYZRPYEE8setTransERKN5Eigen9TransformIfLi3ELi2ELi0EEE@Base 1.6
 (optional=templinst)_ZN3pcl8tracking21ParticleFilterTrackerINS_14PointWithScaleENS0_14ParticleXYZRPYEEC1Ev@Base 1.6
 (optional=templinst)_ZN3pcl8tracking21ParticleFilterTrackerINS_14PointWithScaleENS0_14ParticleXYZRPYEEC2Ev@Base 1.6
 (optional=templinst)_ZN3pcl8tracking21ParticleFilterTrackerINS_14PointWithScaleENS0_14ParticleXYZRPYEED0Ev@Base 1.6
 (optional=templinst)_ZN3pcl8tracking21ParticleFilterTrackerINS_14PointWithScaleENS0_14ParticleXYZRPYEED1Ev@Base 1.6
 (optional=templinst)_ZN3pcl8tracking21ParticleFilterTrackerINS_14PointWithScaleENS0_14ParticleXYZRPYEED2Ev@Base 1.6
 (optional=templinst)_ZN3pcl8tracking21ParticleFilterTrackerINS_15PointXYZINormalENS0_11ParticleXYREE11initComputeEv@Base 1.6
 (optional=templinst)_ZN3pcl8tracking21ParticleFilterTrackerINS_15PointXYZINormalENS0_11ParticleXYREE12getUseNormalEv@Base 1.6
 (optional=templinst)_ZN3pcl8tracking21ParticleFilterTrackerINS_15PointXYZINormalENS0_11ParticleXYREE12setUseNormalEb@Base 1.6
 (optional=templinst)_ZN3pcl8tracking21ParticleFilterTrackerINS_15PointXYZINormalENS0_11ParticleXYREE13genAliasTableERSt6vectorIiSaIiEERS5_IdSaIdEERKN5boost10shared_ptrIKNS_10PointCloudIS3_EEEE@Base 1.6
 (optional=templinst)_ZN3pcl8tracking21ParticleFilterTrackerINS_15PointXYZINormalENS0_11ParticleXYREE13initParticlesEb@Base 1.6
 (optional=templinst)_ZN3pcl8tracking21ParticleFilterTrackerINS_15PointXYZINormalENS0_11ParticleXYREE13resetTrackingEv@Base 1.6
 (optional=templinst)_ZN3pcl8tracking21ParticleFilterTrackerINS_15PointXYZINormalENS0_11ParticleXYREE13setMinIndicesEi@Base 1.6
 (optional=templinst)_ZN3pcl8tracking21ParticleFilterTrackerINS_15PointXYZINormalENS0_11ParticleXYREE13toEigenMatrixERKS3_@Base 1.6
 (optional=templinst)_ZN3pcl8tracking21ParticleFilterTrackerINS_15PointXYZINormalENS0_11ParticleXYREE14getMotionRatioEv@Base 1.6
 (optional=templinst)_ZN3pcl8tracking21ParticleFilterTrackerINS_15PointXYZINormalENS0_11ParticleXYREE14setMotionRatioEd@Base 1.6
 (optional=templinst)_ZN3pcl8tracking21ParticleFilterTrackerINS_15PointXYZINormalENS0_11ParticleXYREE14setParticleNumEi@Base 1.6
 (optional=templinst)_ZN3pcl8tracking21ParticleFilterTrackerINS_15PointXYZINormalENS0_11ParticleXYREE15calcBoundingBoxERdS5_S5_S5_S5_S5_@Base 1.6
 (optional=templinst)_ZN3pcl8tracking21ParticleFilterTrackerINS_15PointXYZINormalENS0_11ParticleXYREE15computeTrackingEv@Base 1.6
 (optional=templinst)_ZN3pcl8tracking21ParticleFilterTrackerINS_15PointXYZINormalENS0_11ParticleXYREE15normalizeWeightEv@Base 1.6
 (optional=templinst)_ZN3pcl8tracking21ParticleFilterTrackerINS_15PointXYZINormalENS0_11ParticleXYREE15setIterationNumEi@Base 1.6
 (optional=templinst)_ZN3pcl8tracking21ParticleFilterTrackerINS_15PointXYZINormalENS0_11ParticleXYREE17getReferenceCloudEv@Base 1.6
 (optional=templinst)_ZN3pcl8tracking21ParticleFilterTrackerINS_15PointXYZINormalENS0_11ParticleXYREE17setCloudCoherenceERKN5boost10shared_ptrINS0_19PointCloudCoherenceIS2_EEEE@Base 1.6
 (optional=templinst)_ZN3pcl8tracking21ParticleFilterTrackerINS_15PointXYZINormalENS0_11ParticleXYREE17setReferenceCloudERKN5boost10shared_ptrIKNS_10PointCloudIS2_EEEE@Base 1.6
 (optional=templinst)_ZN3pcl8tracking21ParticleFilterTrackerINS_15PointXYZINormalENS0_11ParticleXYREE19cropInputPointCloudERKN5boost10shared_ptrIKNS_10PointCloudIS2_EEEERS8_@Base 1.6
 (optional=templinst)_ZN3pcl8tracking21ParticleFilterTrackerINS_15PointXYZINormalENS0_11ParticleXYREE19setInitialNoiseMeanERKSt6vectorIdSaIdEE@Base 1.6
 (optional=templinst)_ZN3pcl8tracking21ParticleFilterTrackerINS_15PointXYZINormalENS0_11ParticleXYREE19testChangeDetectionERKN5boost10shared_ptrIKNS_10PointCloudIS2_EEEE@Base 1.6
 (optional=templinst)_ZN3pcl8tracking21ParticleFilterTrackerINS_15PointXYZINormalENS0_11ParticleXYREE20getUseChangeDetectorEv@Base 1.6
 (optional=templinst)_ZN3pcl8tracking21ParticleFilterTrackerINS_15PointXYZINormalENS0_11ParticleXYREE20setOcclusionAngleTheEd@Base 1.6
 (optional=templinst)_ZN3pcl8tracking21ParticleFilterTrackerINS_15PointXYZINormalENS0_11ParticleXYREE20setUseChangeDetectorEb@Base 1.6
 (optional=templinst)_ZN3pcl8tracking21ParticleFilterTrackerINS_15PointXYZINormalENS0_11ParticleXYREE21sampleWithReplacementERKSt6vectorIiSaIiEERKS5_IdSaIdEE@Base 1.6
 (optional=templinst)_ZN3pcl8tracking21ParticleFilterTrackerINS_15PointXYZINormalENS0_11ParticleXYREE22setStepNoiseCovarianceERKSt6vectorIdSaIdEE@Base 1.6
 (optional=templinst)_ZN3pcl8tracking21ParticleFilterTrackerINS_15PointXYZINormalENS0_11ParticleXYREE23normalizeParticleWeightEddd@Base 1.6
 (optional=templinst)_ZN3pcl8tracking21ParticleFilterTrackerINS_15PointXYZINormalENS0_11ParticleXYREE23resampleWithReplacementEv@Base 1.6
 (optional=templinst)_ZN3pcl8tracking21ParticleFilterTrackerINS_15PointXYZINormalENS0_11ParticleXYREE24setResampleLikelihoodThrEd@Base 1.6
 (optional=templinst)_ZN3pcl8tracking21ParticleFilterTrackerINS_15PointXYZINormalENS0_11ParticleXYREE25setInitialNoiseCovarianceERKSt6vectorIdSaIdEE@Base 1.6
 (optional=templinst)_ZN3pcl8tracking21ParticleFilterTrackerINS_15PointXYZINormalENS0_11ParticleXYREE28computeTransformedPointCloudERKS3_RSt6vectorIiSaIiEERNS_10PointCloudIS2_EE@Base 1.6
 (optional=templinst)_ZN3pcl8tracking21ParticleFilterTrackerINS_15PointXYZINormalENS0_11ParticleXYREE28getIntervalOfChangeDetectionEv@Base 1.6
 (optional=templinst)_ZN3pcl8tracking21ParticleFilterTrackerINS_15PointXYZINormalENS0_11ParticleXYREE28setIntervalOfChangeDetectionEj@Base 1.6
 (optional=templinst)_ZN3pcl8tracking21ParticleFilterTrackerINS_15PointXYZINormalENS0_11ParticleXYREE29getMinPointsOfChangeDetectionEv@Base 1.6
 (optional=templinst)_ZN3pcl8tracking21ParticleFilterTrackerINS_15PointXYZINormalENS0_11ParticleXYREE29setMinPointsOfChangeDetectionEj@Base 1.6
 (optional=templinst)_ZN3pcl8tracking21ParticleFilterTrackerINS_15PointXYZINormalENS0_11ParticleXYREE30getResolutionOfChangeDetectionEv@Base 1.6
 (optional=templinst)_ZN3pcl8tracking21ParticleFilterTrackerINS_15PointXYZINormalENS0_11ParticleXYREE30setResolutionOfChangeDetectionEd@Base 1.6
 (optional=templinst)_ZN3pcl8tracking21ParticleFilterTrackerINS_15PointXYZINormalENS0_11ParticleXYREE38computeTransformedPointCloudWithNormalERKS3_RSt6vectorIiSaIiEERNS_10PointCloudIS2_EE@Base 1.6
 (optional=templinst)_ZN3pcl8tracking21ParticleFilterTrackerINS_15PointXYZINormalENS0_11ParticleXYREE41computeTransformedPointCloudWithoutNormalERKS3_RNS_10PointCloudIS2_EE@Base 1.6
 (optional=templinst)_ZN3pcl8tracking21ParticleFilterTrackerINS_15PointXYZINormalENS0_11ParticleXYREE6updateEv@Base 1.6
 (optional=templinst)_ZN3pcl8tracking21ParticleFilterTrackerINS_15PointXYZINormalENS0_11ParticleXYREE6weightEv@Base 1.6
 (optional=templinst)_ZN3pcl8tracking21ParticleFilterTrackerINS_15PointXYZINormalENS0_11ParticleXYREE8getAlphaEv@Base 1.6
 (optional=templinst)_ZN3pcl8tracking21ParticleFilterTrackerINS_15PointXYZINormalENS0_11ParticleXYREE8resampleEv@Base 1.6
 (optional=templinst)_ZN3pcl8tracking21ParticleFilterTrackerINS_15PointXYZINormalENS0_11ParticleXYREE8setAlphaEd@Base 1.6
 (optional=templinst)_ZN3pcl8tracking21ParticleFilterTrackerINS_15PointXYZINormalENS0_11ParticleXYREE8setTransERKN5Eigen9TransformIfLi3ELi2ELi0EEE@Base 1.6
 (optional=templinst)_ZN3pcl8tracking21ParticleFilterTrackerINS_15PointXYZINormalENS0_11ParticleXYREEC1Ev@Base 1.6
 (optional=templinst)_ZN3pcl8tracking21ParticleFilterTrackerINS_15PointXYZINormalENS0_11ParticleXYREEC2Ev@Base 1.6
 (optional=templinst)_ZN3pcl8tracking21ParticleFilterTrackerINS_15PointXYZINormalENS0_11ParticleXYREED0Ev@Base 1.6
 (optional=templinst)_ZN3pcl8tracking21ParticleFilterTrackerINS_15PointXYZINormalENS0_11ParticleXYREED1Ev@Base 1.6
 (optional=templinst)_ZN3pcl8tracking21ParticleFilterTrackerINS_15PointXYZINormalENS0_11ParticleXYREED2Ev@Base 1.6
 (optional=templinst)_ZN3pcl8tracking21ParticleFilterTrackerINS_15PointXYZINormalENS0_12ParticleXYRPEE11initComputeEv@Base 1.6
 (optional=templinst)_ZN3pcl8tracking21ParticleFilterTrackerINS_15PointXYZINormalENS0_12ParticleXYRPEE12getUseNormalEv@Base 1.6
 (optional=templinst)_ZN3pcl8tracking21ParticleFilterTrackerINS_15PointXYZINormalENS0_12ParticleXYRPEE12setUseNormalEb@Base 1.6
 (optional=templinst)_ZN3pcl8tracking21ParticleFilterTrackerINS_15PointXYZINormalENS0_12ParticleXYRPEE13genAliasTableERSt6vectorIiSaIiEERS5_IdSaIdEERKN5boost10shared_ptrIKNS_10PointCloudIS3_EEEE@Base 1.6
 (optional=templinst)_ZN3pcl8tracking21ParticleFilterTrackerINS_15PointXYZINormalENS0_12ParticleXYRPEE13initParticlesEb@Base 1.6
 (optional=templinst)_ZN3pcl8tracking21ParticleFilterTrackerINS_15PointXYZINormalENS0_12ParticleXYRPEE13resetTrackingEv@Base 1.6
 (optional=templinst)_ZN3pcl8tracking21ParticleFilterTrackerINS_15PointXYZINormalENS0_12ParticleXYRPEE13setMinIndicesEi@Base 1.6
 (optional=templinst)_ZN3pcl8tracking21ParticleFilterTrackerINS_15PointXYZINormalENS0_12ParticleXYRPEE13toEigenMatrixERKS3_@Base 1.6
 (optional=templinst)_ZN3pcl8tracking21ParticleFilterTrackerINS_15PointXYZINormalENS0_12ParticleXYRPEE14getMotionRatioEv@Base 1.6
 (optional=templinst)_ZN3pcl8tracking21ParticleFilterTrackerINS_15PointXYZINormalENS0_12ParticleXYRPEE14setMotionRatioEd@Base 1.6
 (optional=templinst)_ZN3pcl8tracking21ParticleFilterTrackerINS_15PointXYZINormalENS0_12ParticleXYRPEE14setParticleNumEi@Base 1.6
 (optional=templinst)_ZN3pcl8tracking21ParticleFilterTrackerINS_15PointXYZINormalENS0_12ParticleXYRPEE15calcBoundingBoxERdS5_S5_S5_S5_S5_@Base 1.6
 (optional=templinst)_ZN3pcl8tracking21ParticleFilterTrackerINS_15PointXYZINormalENS0_12ParticleXYRPEE15computeTrackingEv@Base 1.6
 (optional=templinst)_ZN3pcl8tracking21ParticleFilterTrackerINS_15PointXYZINormalENS0_12ParticleXYRPEE15normalizeWeightEv@Base 1.6
 (optional=templinst)_ZN3pcl8tracking21ParticleFilterTrackerINS_15PointXYZINormalENS0_12ParticleXYRPEE15setIterationNumEi@Base 1.6
 (optional=templinst)_ZN3pcl8tracking21ParticleFilterTrackerINS_15PointXYZINormalENS0_12ParticleXYRPEE17getReferenceCloudEv@Base 1.6
 (optional=templinst)_ZN3pcl8tracking21ParticleFilterTrackerINS_15PointXYZINormalENS0_12ParticleXYRPEE17setCloudCoherenceERKN5boost10shared_ptrINS0_19PointCloudCoherenceIS2_EEEE@Base 1.6
 (optional=templinst)_ZN3pcl8tracking21ParticleFilterTrackerINS_15PointXYZINormalENS0_12ParticleXYRPEE17setReferenceCloudERKN5boost10shared_ptrIKNS_10PointCloudIS2_EEEE@Base 1.6
 (optional=templinst)_ZN3pcl8tracking21ParticleFilterTrackerINS_15PointXYZINormalENS0_12ParticleXYRPEE19cropInputPointCloudERKN5boost10shared_ptrIKNS_10PointCloudIS2_EEEERS8_@Base 1.6
 (optional=templinst)_ZN3pcl8tracking21ParticleFilterTrackerINS_15PointXYZINormalENS0_12ParticleXYRPEE19setInitialNoiseMeanERKSt6vectorIdSaIdEE@Base 1.6
 (optional=templinst)_ZN3pcl8tracking21ParticleFilterTrackerINS_15PointXYZINormalENS0_12ParticleXYRPEE19testChangeDetectionERKN5boost10shared_ptrIKNS_10PointCloudIS2_EEEE@Base 1.6
 (optional=templinst)_ZN3pcl8tracking21ParticleFilterTrackerINS_15PointXYZINormalENS0_12ParticleXYRPEE20getUseChangeDetectorEv@Base 1.6
 (optional=templinst)_ZN3pcl8tracking21ParticleFilterTrackerINS_15PointXYZINormalENS0_12ParticleXYRPEE20setOcclusionAngleTheEd@Base 1.6
 (optional=templinst)_ZN3pcl8tracking21ParticleFilterTrackerINS_15PointXYZINormalENS0_12ParticleXYRPEE20setUseChangeDetectorEb@Base 1.6
 (optional=templinst)_ZN3pcl8tracking21ParticleFilterTrackerINS_15PointXYZINormalENS0_12ParticleXYRPEE21sampleWithReplacementERKSt6vectorIiSaIiEERKS5_IdSaIdEE@Base 1.6
 (optional=templinst)_ZN3pcl8tracking21ParticleFilterTrackerINS_15PointXYZINormalENS0_12ParticleXYRPEE22setStepNoiseCovarianceERKSt6vectorIdSaIdEE@Base 1.6
 (optional=templinst)_ZN3pcl8tracking21ParticleFilterTrackerINS_15PointXYZINormalENS0_12ParticleXYRPEE23normalizeParticleWeightEddd@Base 1.6
 (optional=templinst)_ZN3pcl8tracking21ParticleFilterTrackerINS_15PointXYZINormalENS0_12ParticleXYRPEE23resampleWithReplacementEv@Base 1.6
 (optional=templinst)_ZN3pcl8tracking21ParticleFilterTrackerINS_15PointXYZINormalENS0_12ParticleXYRPEE24setResampleLikelihoodThrEd@Base 1.6
 (optional=templinst)_ZN3pcl8tracking21ParticleFilterTrackerINS_15PointXYZINormalENS0_12ParticleXYRPEE25setInitialNoiseCovarianceERKSt6vectorIdSaIdEE@Base 1.6
 (optional=templinst)_ZN3pcl8tracking21ParticleFilterTrackerINS_15PointXYZINormalENS0_12ParticleXYRPEE28computeTransformedPointCloudERKS3_RSt6vectorIiSaIiEERNS_10PointCloudIS2_EE@Base 1.6
 (optional=templinst)_ZN3pcl8tracking21ParticleFilterTrackerINS_15PointXYZINormalENS0_12ParticleXYRPEE28getIntervalOfChangeDetectionEv@Base 1.6
 (optional=templinst)_ZN3pcl8tracking21ParticleFilterTrackerINS_15PointXYZINormalENS0_12ParticleXYRPEE28setIntervalOfChangeDetectionEj@Base 1.6
 (optional=templinst)_ZN3pcl8tracking21ParticleFilterTrackerINS_15PointXYZINormalENS0_12ParticleXYRPEE29getMinPointsOfChangeDetectionEv@Base 1.6
 (optional=templinst)_ZN3pcl8tracking21ParticleFilterTrackerINS_15PointXYZINormalENS0_12ParticleXYRPEE29setMinPointsOfChangeDetectionEj@Base 1.6
 (optional=templinst)_ZN3pcl8tracking21ParticleFilterTrackerINS_15PointXYZINormalENS0_12ParticleXYRPEE30getResolutionOfChangeDetectionEv@Base 1.6
 (optional=templinst)_ZN3pcl8tracking21ParticleFilterTrackerINS_15PointXYZINormalENS0_12ParticleXYRPEE30setResolutionOfChangeDetectionEd@Base 1.6
 (optional=templinst)_ZN3pcl8tracking21ParticleFilterTrackerINS_15PointXYZINormalENS0_12ParticleXYRPEE38computeTransformedPointCloudWithNormalERKS3_RSt6vectorIiSaIiEERNS_10PointCloudIS2_EE@Base 1.6
 (optional=templinst)_ZN3pcl8tracking21ParticleFilterTrackerINS_15PointXYZINormalENS0_12ParticleXYRPEE41computeTransformedPointCloudWithoutNormalERKS3_RNS_10PointCloudIS2_EE@Base 1.6
 (optional=templinst)_ZN3pcl8tracking21ParticleFilterTrackerINS_15PointXYZINormalENS0_12ParticleXYRPEE6updateEv@Base 1.6
 (optional=templinst)_ZN3pcl8tracking21ParticleFilterTrackerINS_15PointXYZINormalENS0_12ParticleXYRPEE6weightEv@Base 1.6
 (optional=templinst)_ZN3pcl8tracking21ParticleFilterTrackerINS_15PointXYZINormalENS0_12ParticleXYRPEE8getAlphaEv@Base 1.6
 (optional=templinst)_ZN3pcl8tracking21ParticleFilterTrackerINS_15PointXYZINormalENS0_12ParticleXYRPEE8resampleEv@Base 1.6
 (optional=templinst)_ZN3pcl8tracking21ParticleFilterTrackerINS_15PointXYZINormalENS0_12ParticleXYRPEE8setAlphaEd@Base 1.6
 (optional=templinst)_ZN3pcl8tracking21ParticleFilterTrackerINS_15PointXYZINormalENS0_12ParticleXYRPEE8setTransERKN5Eigen9TransformIfLi3ELi2ELi0EEE@Base 1.6
 (optional=templinst)_ZN3pcl8tracking21ParticleFilterTrackerINS_15PointXYZINormalENS0_12ParticleXYRPEEC1Ev@Base 1.6
 (optional=templinst)_ZN3pcl8tracking21ParticleFilterTrackerINS_15PointXYZINormalENS0_12ParticleXYRPEEC2Ev@Base 1.6
 (optional=templinst)_ZN3pcl8tracking21ParticleFilterTrackerINS_15PointXYZINormalENS0_12ParticleXYRPEED0Ev@Base 1.6
 (optional=templinst)_ZN3pcl8tracking21ParticleFilterTrackerINS_15PointXYZINormalENS0_12ParticleXYRPEED1Ev@Base 1.6
 (optional=templinst)_ZN3pcl8tracking21ParticleFilterTrackerINS_15PointXYZINormalENS0_12ParticleXYRPEED2Ev@Base 1.6
 (optional=templinst)_ZN3pcl8tracking21ParticleFilterTrackerINS_15PointXYZINormalENS0_12ParticleXYZREE11initComputeEv@Base 1.6
 (optional=templinst)_ZN3pcl8tracking21ParticleFilterTrackerINS_15PointXYZINormalENS0_12ParticleXYZREE12getUseNormalEv@Base 1.6
 (optional=templinst)_ZN3pcl8tracking21ParticleFilterTrackerINS_15PointXYZINormalENS0_12ParticleXYZREE12setUseNormalEb@Base 1.6
 (optional=templinst)_ZN3pcl8tracking21ParticleFilterTrackerINS_15PointXYZINormalENS0_12ParticleXYZREE13genAliasTableERSt6vectorIiSaIiEERS5_IdSaIdEERKN5boost10shared_ptrIKNS_10PointCloudIS3_EEEE@Base 1.6
 (optional=templinst)_ZN3pcl8tracking21ParticleFilterTrackerINS_15PointXYZINormalENS0_12ParticleXYZREE13initParticlesEb@Base 1.6
 (optional=templinst)_ZN3pcl8tracking21ParticleFilterTrackerINS_15PointXYZINormalENS0_12ParticleXYZREE13resetTrackingEv@Base 1.6
 (optional=templinst)_ZN3pcl8tracking21ParticleFilterTrackerINS_15PointXYZINormalENS0_12ParticleXYZREE13setMinIndicesEi@Base 1.6
 (optional=templinst)_ZN3pcl8tracking21ParticleFilterTrackerINS_15PointXYZINormalENS0_12ParticleXYZREE13toEigenMatrixERKS3_@Base 1.6
 (optional=templinst)_ZN3pcl8tracking21ParticleFilterTrackerINS_15PointXYZINormalENS0_12ParticleXYZREE14getMotionRatioEv@Base 1.6
 (optional=templinst)_ZN3pcl8tracking21ParticleFilterTrackerINS_15PointXYZINormalENS0_12ParticleXYZREE14setMotionRatioEd@Base 1.6
 (optional=templinst)_ZN3pcl8tracking21ParticleFilterTrackerINS_15PointXYZINormalENS0_12ParticleXYZREE14setParticleNumEi@Base 1.6
 (optional=templinst)_ZN3pcl8tracking21ParticleFilterTrackerINS_15PointXYZINormalENS0_12ParticleXYZREE15calcBoundingBoxERdS5_S5_S5_S5_S5_@Base 1.6
 (optional=templinst)_ZN3pcl8tracking21ParticleFilterTrackerINS_15PointXYZINormalENS0_12ParticleXYZREE15computeTrackingEv@Base 1.6
 (optional=templinst)_ZN3pcl8tracking21ParticleFilterTrackerINS_15PointXYZINormalENS0_12ParticleXYZREE15normalizeWeightEv@Base 1.6
 (optional=templinst)_ZN3pcl8tracking21ParticleFilterTrackerINS_15PointXYZINormalENS0_12ParticleXYZREE15setIterationNumEi@Base 1.6
 (optional=templinst)_ZN3pcl8tracking21ParticleFilterTrackerINS_15PointXYZINormalENS0_12ParticleXYZREE17getReferenceCloudEv@Base 1.6
 (optional=templinst)_ZN3pcl8tracking21ParticleFilterTrackerINS_15PointXYZINormalENS0_12ParticleXYZREE17setCloudCoherenceERKN5boost10shared_ptrINS0_19PointCloudCoherenceIS2_EEEE@Base 1.6
 (optional=templinst)_ZN3pcl8tracking21ParticleFilterTrackerINS_15PointXYZINormalENS0_12ParticleXYZREE17setReferenceCloudERKN5boost10shared_ptrIKNS_10PointCloudIS2_EEEE@Base 1.6
 (optional=templinst)_ZN3pcl8tracking21ParticleFilterTrackerINS_15PointXYZINormalENS0_12ParticleXYZREE19cropInputPointCloudERKN5boost10shared_ptrIKNS_10PointCloudIS2_EEEERS8_@Base 1.6
 (optional=templinst)_ZN3pcl8tracking21ParticleFilterTrackerINS_15PointXYZINormalENS0_12ParticleXYZREE19setInitialNoiseMeanERKSt6vectorIdSaIdEE@Base 1.6
 (optional=templinst)_ZN3pcl8tracking21ParticleFilterTrackerINS_15PointXYZINormalENS0_12ParticleXYZREE19testChangeDetectionERKN5boost10shared_ptrIKNS_10PointCloudIS2_EEEE@Base 1.6
 (optional=templinst)_ZN3pcl8tracking21ParticleFilterTrackerINS_15PointXYZINormalENS0_12ParticleXYZREE20getUseChangeDetectorEv@Base 1.6
 (optional=templinst)_ZN3pcl8tracking21ParticleFilterTrackerINS_15PointXYZINormalENS0_12ParticleXYZREE20setOcclusionAngleTheEd@Base 1.6
 (optional=templinst)_ZN3pcl8tracking21ParticleFilterTrackerINS_15PointXYZINormalENS0_12ParticleXYZREE20setUseChangeDetectorEb@Base 1.6
 (optional=templinst)_ZN3pcl8tracking21ParticleFilterTrackerINS_15PointXYZINormalENS0_12ParticleXYZREE21sampleWithReplacementERKSt6vectorIiSaIiEERKS5_IdSaIdEE@Base 1.6
 (optional=templinst)_ZN3pcl8tracking21ParticleFilterTrackerINS_15PointXYZINormalENS0_12ParticleXYZREE22setStepNoiseCovarianceERKSt6vectorIdSaIdEE@Base 1.6
 (optional=templinst)_ZN3pcl8tracking21ParticleFilterTrackerINS_15PointXYZINormalENS0_12ParticleXYZREE23normalizeParticleWeightEddd@Base 1.6
 (optional=templinst)_ZN3pcl8tracking21ParticleFilterTrackerINS_15PointXYZINormalENS0_12ParticleXYZREE23resampleWithReplacementEv@Base 1.6
 (optional=templinst)_ZN3pcl8tracking21ParticleFilterTrackerINS_15PointXYZINormalENS0_12ParticleXYZREE24setResampleLikelihoodThrEd@Base 1.6
 (optional=templinst)_ZN3pcl8tracking21ParticleFilterTrackerINS_15PointXYZINormalENS0_12ParticleXYZREE25setInitialNoiseCovarianceERKSt6vectorIdSaIdEE@Base 1.6
 (optional=templinst)_ZN3pcl8tracking21ParticleFilterTrackerINS_15PointXYZINormalENS0_12ParticleXYZREE28computeTransformedPointCloudERKS3_RSt6vectorIiSaIiEERNS_10PointCloudIS2_EE@Base 1.6
 (optional=templinst)_ZN3pcl8tracking21ParticleFilterTrackerINS_15PointXYZINormalENS0_12ParticleXYZREE28getIntervalOfChangeDetectionEv@Base 1.6
 (optional=templinst)_ZN3pcl8tracking21ParticleFilterTrackerINS_15PointXYZINormalENS0_12ParticleXYZREE28setIntervalOfChangeDetectionEj@Base 1.6
 (optional=templinst)_ZN3pcl8tracking21ParticleFilterTrackerINS_15PointXYZINormalENS0_12ParticleXYZREE29getMinPointsOfChangeDetectionEv@Base 1.6
 (optional=templinst)_ZN3pcl8tracking21ParticleFilterTrackerINS_15PointXYZINormalENS0_12ParticleXYZREE29setMinPointsOfChangeDetectionEj@Base 1.6
 (optional=templinst)_ZN3pcl8tracking21ParticleFilterTrackerINS_15PointXYZINormalENS0_12ParticleXYZREE30getResolutionOfChangeDetectionEv@Base 1.6
 (optional=templinst)_ZN3pcl8tracking21ParticleFilterTrackerINS_15PointXYZINormalENS0_12ParticleXYZREE30setResolutionOfChangeDetectionEd@Base 1.6
 (optional=templinst)_ZN3pcl8tracking21ParticleFilterTrackerINS_15PointXYZINormalENS0_12ParticleXYZREE38computeTransformedPointCloudWithNormalERKS3_RSt6vectorIiSaIiEERNS_10PointCloudIS2_EE@Base 1.6
 (optional=templinst)_ZN3pcl8tracking21ParticleFilterTrackerINS_15PointXYZINormalENS0_12ParticleXYZREE41computeTransformedPointCloudWithoutNormalERKS3_RNS_10PointCloudIS2_EE@Base 1.6
 (optional=templinst)_ZN3pcl8tracking21ParticleFilterTrackerINS_15PointXYZINormalENS0_12ParticleXYZREE6updateEv@Base 1.6
 (optional=templinst)_ZN3pcl8tracking21ParticleFilterTrackerINS_15PointXYZINormalENS0_12ParticleXYZREE6weightEv@Base 1.6
 (optional=templinst)_ZN3pcl8tracking21ParticleFilterTrackerINS_15PointXYZINormalENS0_12ParticleXYZREE8getAlphaEv@Base 1.6
 (optional=templinst)_ZN3pcl8tracking21ParticleFilterTrackerINS_15PointXYZINormalENS0_12ParticleXYZREE8resampleEv@Base 1.6
 (optional=templinst)_ZN3pcl8tracking21ParticleFilterTrackerINS_15PointXYZINormalENS0_12ParticleXYZREE8setAlphaEd@Base 1.6
 (optional=templinst)_ZN3pcl8tracking21ParticleFilterTrackerINS_15PointXYZINormalENS0_12ParticleXYZREE8setTransERKN5Eigen9TransformIfLi3ELi2ELi0EEE@Base 1.6
 (optional=templinst)_ZN3pcl8tracking21ParticleFilterTrackerINS_15PointXYZINormalENS0_12ParticleXYZREEC1Ev@Base 1.6
 (optional=templinst)_ZN3pcl8tracking21ParticleFilterTrackerINS_15PointXYZINormalENS0_12ParticleXYZREEC2Ev@Base 1.6
 (optional=templinst)_ZN3pcl8tracking21ParticleFilterTrackerINS_15PointXYZINormalENS0_12ParticleXYZREED0Ev@Base 1.6
 (optional=templinst)_ZN3pcl8tracking21ParticleFilterTrackerINS_15PointXYZINormalENS0_12ParticleXYZREED1Ev@Base 1.6
 (optional=templinst)_ZN3pcl8tracking21ParticleFilterTrackerINS_15PointXYZINormalENS0_12ParticleXYZREED2Ev@Base 1.6
 (optional=templinst)_ZN3pcl8tracking21ParticleFilterTrackerINS_15PointXYZINormalENS0_13ParticleXYRPYEE11initComputeEv@Base 1.6
 (optional=templinst)_ZN3pcl8tracking21ParticleFilterTrackerINS_15PointXYZINormalENS0_13ParticleXYRPYEE12getUseNormalEv@Base 1.6
 (optional=templinst)_ZN3pcl8tracking21ParticleFilterTrackerINS_15PointXYZINormalENS0_13ParticleXYRPYEE12setUseNormalEb@Base 1.6
 (optional=templinst)_ZN3pcl8tracking21ParticleFilterTrackerINS_15PointXYZINormalENS0_13ParticleXYRPYEE13genAliasTableERSt6vectorIiSaIiEERS5_IdSaIdEERKN5boost10shared_ptrIKNS_10PointCloudIS3_EEEE@Base 1.6
 (optional=templinst)_ZN3pcl8tracking21ParticleFilterTrackerINS_15PointXYZINormalENS0_13ParticleXYRPYEE13initParticlesEb@Base 1.6
 (optional=templinst)_ZN3pcl8tracking21ParticleFilterTrackerINS_15PointXYZINormalENS0_13ParticleXYRPYEE13resetTrackingEv@Base 1.6
 (optional=templinst)_ZN3pcl8tracking21ParticleFilterTrackerINS_15PointXYZINormalENS0_13ParticleXYRPYEE13setMinIndicesEi@Base 1.6
 (optional=templinst)_ZN3pcl8tracking21ParticleFilterTrackerINS_15PointXYZINormalENS0_13ParticleXYRPYEE13toEigenMatrixERKS3_@Base 1.6
 (optional=templinst)_ZN3pcl8tracking21ParticleFilterTrackerINS_15PointXYZINormalENS0_13ParticleXYRPYEE14getMotionRatioEv@Base 1.6
 (optional=templinst)_ZN3pcl8tracking21ParticleFilterTrackerINS_15PointXYZINormalENS0_13ParticleXYRPYEE14setMotionRatioEd@Base 1.6
 (optional=templinst)_ZN3pcl8tracking21ParticleFilterTrackerINS_15PointXYZINormalENS0_13ParticleXYRPYEE14setParticleNumEi@Base 1.6
 (optional=templinst)_ZN3pcl8tracking21ParticleFilterTrackerINS_15PointXYZINormalENS0_13ParticleXYRPYEE15calcBoundingBoxERdS5_S5_S5_S5_S5_@Base 1.6
 (optional=templinst)_ZN3pcl8tracking21ParticleFilterTrackerINS_15PointXYZINormalENS0_13ParticleXYRPYEE15computeTrackingEv@Base 1.6
 (optional=templinst)_ZN3pcl8tracking21ParticleFilterTrackerINS_15PointXYZINormalENS0_13ParticleXYRPYEE15normalizeWeightEv@Base 1.6
 (optional=templinst)_ZN3pcl8tracking21ParticleFilterTrackerINS_15PointXYZINormalENS0_13ParticleXYRPYEE15setIterationNumEi@Base 1.6
 (optional=templinst)_ZN3pcl8tracking21ParticleFilterTrackerINS_15PointXYZINormalENS0_13ParticleXYRPYEE17getReferenceCloudEv@Base 1.6
 (optional=templinst)_ZN3pcl8tracking21ParticleFilterTrackerINS_15PointXYZINormalENS0_13ParticleXYRPYEE17setCloudCoherenceERKN5boost10shared_ptrINS0_19PointCloudCoherenceIS2_EEEE@Base 1.6
 (optional=templinst)_ZN3pcl8tracking21ParticleFilterTrackerINS_15PointXYZINormalENS0_13ParticleXYRPYEE17setReferenceCloudERKN5boost10shared_ptrIKNS_10PointCloudIS2_EEEE@Base 1.6
 (optional=templinst)_ZN3pcl8tracking21ParticleFilterTrackerINS_15PointXYZINormalENS0_13ParticleXYRPYEE19cropInputPointCloudERKN5boost10shared_ptrIKNS_10PointCloudIS2_EEEERS8_@Base 1.6
 (optional=templinst)_ZN3pcl8tracking21ParticleFilterTrackerINS_15PointXYZINormalENS0_13ParticleXYRPYEE19setInitialNoiseMeanERKSt6vectorIdSaIdEE@Base 1.6
 (optional=templinst)_ZN3pcl8tracking21ParticleFilterTrackerINS_15PointXYZINormalENS0_13ParticleXYRPYEE19testChangeDetectionERKN5boost10shared_ptrIKNS_10PointCloudIS2_EEEE@Base 1.6
 (optional=templinst)_ZN3pcl8tracking21ParticleFilterTrackerINS_15PointXYZINormalENS0_13ParticleXYRPYEE20getUseChangeDetectorEv@Base 1.6
 (optional=templinst)_ZN3pcl8tracking21ParticleFilterTrackerINS_15PointXYZINormalENS0_13ParticleXYRPYEE20setOcclusionAngleTheEd@Base 1.6
 (optional=templinst)_ZN3pcl8tracking21ParticleFilterTrackerINS_15PointXYZINormalENS0_13ParticleXYRPYEE20setUseChangeDetectorEb@Base 1.6
 (optional=templinst)_ZN3pcl8tracking21ParticleFilterTrackerINS_15PointXYZINormalENS0_13ParticleXYRPYEE21sampleWithReplacementERKSt6vectorIiSaIiEERKS5_IdSaIdEE@Base 1.6
 (optional=templinst)_ZN3pcl8tracking21ParticleFilterTrackerINS_15PointXYZINormalENS0_13ParticleXYRPYEE22setStepNoiseCovarianceERKSt6vectorIdSaIdEE@Base 1.6
 (optional=templinst)_ZN3pcl8tracking21ParticleFilterTrackerINS_15PointXYZINormalENS0_13ParticleXYRPYEE23normalizeParticleWeightEddd@Base 1.6
 (optional=templinst)_ZN3pcl8tracking21ParticleFilterTrackerINS_15PointXYZINormalENS0_13ParticleXYRPYEE23resampleWithReplacementEv@Base 1.6
 (optional=templinst)_ZN3pcl8tracking21ParticleFilterTrackerINS_15PointXYZINormalENS0_13ParticleXYRPYEE24setResampleLikelihoodThrEd@Base 1.6
 (optional=templinst)_ZN3pcl8tracking21ParticleFilterTrackerINS_15PointXYZINormalENS0_13ParticleXYRPYEE25setInitialNoiseCovarianceERKSt6vectorIdSaIdEE@Base 1.6
 (optional=templinst)_ZN3pcl8tracking21ParticleFilterTrackerINS_15PointXYZINormalENS0_13ParticleXYRPYEE28computeTransformedPointCloudERKS3_RSt6vectorIiSaIiEERNS_10PointCloudIS2_EE@Base 1.6
 (optional=templinst)_ZN3pcl8tracking21ParticleFilterTrackerINS_15PointXYZINormalENS0_13ParticleXYRPYEE28getIntervalOfChangeDetectionEv@Base 1.6
 (optional=templinst)_ZN3pcl8tracking21ParticleFilterTrackerINS_15PointXYZINormalENS0_13ParticleXYRPYEE28setIntervalOfChangeDetectionEj@Base 1.6
 (optional=templinst)_ZN3pcl8tracking21ParticleFilterTrackerINS_15PointXYZINormalENS0_13ParticleXYRPYEE29getMinPointsOfChangeDetectionEv@Base 1.6
 (optional=templinst)_ZN3pcl8tracking21ParticleFilterTrackerINS_15PointXYZINormalENS0_13ParticleXYRPYEE29setMinPointsOfChangeDetectionEj@Base 1.6
 (optional=templinst)_ZN3pcl8tracking21ParticleFilterTrackerINS_15PointXYZINormalENS0_13ParticleXYRPYEE30getResolutionOfChangeDetectionEv@Base 1.6
 (optional=templinst)_ZN3pcl8tracking21ParticleFilterTrackerINS_15PointXYZINormalENS0_13ParticleXYRPYEE30setResolutionOfChangeDetectionEd@Base 1.6
 (optional=templinst)_ZN3pcl8tracking21ParticleFilterTrackerINS_15PointXYZINormalENS0_13ParticleXYRPYEE38computeTransformedPointCloudWithNormalERKS3_RSt6vectorIiSaIiEERNS_10PointCloudIS2_EE@Base 1.6
 (optional=templinst)_ZN3pcl8tracking21ParticleFilterTrackerINS_15PointXYZINormalENS0_13ParticleXYRPYEE41computeTransformedPointCloudWithoutNormalERKS3_RNS_10PointCloudIS2_EE@Base 1.6
 (optional=templinst)_ZN3pcl8tracking21ParticleFilterTrackerINS_15PointXYZINormalENS0_13ParticleXYRPYEE6updateEv@Base 1.6
 (optional=templinst)_ZN3pcl8tracking21ParticleFilterTrackerINS_15PointXYZINormalENS0_13ParticleXYRPYEE6weightEv@Base 1.6
 (optional=templinst)_ZN3pcl8tracking21ParticleFilterTrackerINS_15PointXYZINormalENS0_13ParticleXYRPYEE8getAlphaEv@Base 1.6
 (optional=templinst)_ZN3pcl8tracking21ParticleFilterTrackerINS_15PointXYZINormalENS0_13ParticleXYRPYEE8resampleEv@Base 1.6
 (optional=templinst)_ZN3pcl8tracking21ParticleFilterTrackerINS_15PointXYZINormalENS0_13ParticleXYRPYEE8setAlphaEd@Base 1.6
 (optional=templinst)_ZN3pcl8tracking21ParticleFilterTrackerINS_15PointXYZINormalENS0_13ParticleXYRPYEE8setTransERKN5Eigen9TransformIfLi3ELi2ELi0EEE@Base 1.6
 (optional=templinst)_ZN3pcl8tracking21ParticleFilterTrackerINS_15PointXYZINormalENS0_13ParticleXYRPYEEC1Ev@Base 1.6
 (optional=templinst)_ZN3pcl8tracking21ParticleFilterTrackerINS_15PointXYZINormalENS0_13ParticleXYRPYEEC2Ev@Base 1.6
 (optional=templinst)_ZN3pcl8tracking21ParticleFilterTrackerINS_15PointXYZINormalENS0_13ParticleXYRPYEED0Ev@Base 1.6
 (optional=templinst)_ZN3pcl8tracking21ParticleFilterTrackerINS_15PointXYZINormalENS0_13ParticleXYRPYEED1Ev@Base 1.6
 (optional=templinst)_ZN3pcl8tracking21ParticleFilterTrackerINS_15PointXYZINormalENS0_13ParticleXYRPYEED2Ev@Base 1.6
 (optional=templinst)_ZN3pcl8tracking21ParticleFilterTrackerINS_15PointXYZINormalENS0_14ParticleXYZRPYEE11initComputeEv@Base 1.6
 (optional=templinst)_ZN3pcl8tracking21ParticleFilterTrackerINS_15PointXYZINormalENS0_14ParticleXYZRPYEE12getUseNormalEv@Base 1.6
 (optional=templinst)_ZN3pcl8tracking21ParticleFilterTrackerINS_15PointXYZINormalENS0_14ParticleXYZRPYEE12setUseNormalEb@Base 1.6
 (optional=templinst)_ZN3pcl8tracking21ParticleFilterTrackerINS_15PointXYZINormalENS0_14ParticleXYZRPYEE13genAliasTableERSt6vectorIiSaIiEERS5_IdSaIdEERKN5boost10shared_ptrIKNS_10PointCloudIS3_EEEE@Base 1.6
 (optional=templinst)_ZN3pcl8tracking21ParticleFilterTrackerINS_15PointXYZINormalENS0_14ParticleXYZRPYEE13initParticlesEb@Base 1.6
 (optional=templinst)_ZN3pcl8tracking21ParticleFilterTrackerINS_15PointXYZINormalENS0_14ParticleXYZRPYEE13resetTrackingEv@Base 1.6
 (optional=templinst)_ZN3pcl8tracking21ParticleFilterTrackerINS_15PointXYZINormalENS0_14ParticleXYZRPYEE13setMinIndicesEi@Base 1.6
 (optional=templinst)_ZN3pcl8tracking21ParticleFilterTrackerINS_15PointXYZINormalENS0_14ParticleXYZRPYEE13toEigenMatrixERKS3_@Base 1.6
 (optional=templinst)_ZN3pcl8tracking21ParticleFilterTrackerINS_15PointXYZINormalENS0_14ParticleXYZRPYEE14getMotionRatioEv@Base 1.6
 (optional=templinst)_ZN3pcl8tracking21ParticleFilterTrackerINS_15PointXYZINormalENS0_14ParticleXYZRPYEE14setMotionRatioEd@Base 1.6
 (optional=templinst)_ZN3pcl8tracking21ParticleFilterTrackerINS_15PointXYZINormalENS0_14ParticleXYZRPYEE14setParticleNumEi@Base 1.6
 (optional=templinst)_ZN3pcl8tracking21ParticleFilterTrackerINS_15PointXYZINormalENS0_14ParticleXYZRPYEE15calcBoundingBoxERdS5_S5_S5_S5_S5_@Base 1.6
 (optional=templinst)_ZN3pcl8tracking21ParticleFilterTrackerINS_15PointXYZINormalENS0_14ParticleXYZRPYEE15computeTrackingEv@Base 1.6
 (optional=templinst)_ZN3pcl8tracking21ParticleFilterTrackerINS_15PointXYZINormalENS0_14ParticleXYZRPYEE15normalizeWeightEv@Base 1.6
 (optional=templinst)_ZN3pcl8tracking21ParticleFilterTrackerINS_15PointXYZINormalENS0_14ParticleXYZRPYEE15setIterationNumEi@Base 1.6
 (optional=templinst)_ZN3pcl8tracking21ParticleFilterTrackerINS_15PointXYZINormalENS0_14ParticleXYZRPYEE17getReferenceCloudEv@Base 1.6
 (optional=templinst)_ZN3pcl8tracking21ParticleFilterTrackerINS_15PointXYZINormalENS0_14ParticleXYZRPYEE17setCloudCoherenceERKN5boost10shared_ptrINS0_19PointCloudCoherenceIS2_EEEE@Base 1.6
 (optional=templinst)_ZN3pcl8tracking21ParticleFilterTrackerINS_15PointXYZINormalENS0_14ParticleXYZRPYEE17setReferenceCloudERKN5boost10shared_ptrIKNS_10PointCloudIS2_EEEE@Base 1.6
 (optional=templinst)_ZN3pcl8tracking21ParticleFilterTrackerINS_15PointXYZINormalENS0_14ParticleXYZRPYEE19cropInputPointCloudERKN5boost10shared_ptrIKNS_10PointCloudIS2_EEEERS8_@Base 1.6
 (optional=templinst)_ZN3pcl8tracking21ParticleFilterTrackerINS_15PointXYZINormalENS0_14ParticleXYZRPYEE19setInitialNoiseMeanERKSt6vectorIdSaIdEE@Base 1.6
 (optional=templinst)_ZN3pcl8tracking21ParticleFilterTrackerINS_15PointXYZINormalENS0_14ParticleXYZRPYEE19testChangeDetectionERKN5boost10shared_ptrIKNS_10PointCloudIS2_EEEE@Base 1.6
 (optional=templinst)_ZN3pcl8tracking21ParticleFilterTrackerINS_15PointXYZINormalENS0_14ParticleXYZRPYEE20getUseChangeDetectorEv@Base 1.6
 (optional=templinst)_ZN3pcl8tracking21ParticleFilterTrackerINS_15PointXYZINormalENS0_14ParticleXYZRPYEE20setOcclusionAngleTheEd@Base 1.6
 (optional=templinst)_ZN3pcl8tracking21ParticleFilterTrackerINS_15PointXYZINormalENS0_14ParticleXYZRPYEE20setUseChangeDetectorEb@Base 1.6
 (optional=templinst)_ZN3pcl8tracking21ParticleFilterTrackerINS_15PointXYZINormalENS0_14ParticleXYZRPYEE21sampleWithReplacementERKSt6vectorIiSaIiEERKS5_IdSaIdEE@Base 1.6
 (optional=templinst)_ZN3pcl8tracking21ParticleFilterTrackerINS_15PointXYZINormalENS0_14ParticleXYZRPYEE22setStepNoiseCovarianceERKSt6vectorIdSaIdEE@Base 1.6
 (optional=templinst)_ZN3pcl8tracking21ParticleFilterTrackerINS_15PointXYZINormalENS0_14ParticleXYZRPYEE23normalizeParticleWeightEddd@Base 1.6
 (optional=templinst)_ZN3pcl8tracking21ParticleFilterTrackerINS_15PointXYZINormalENS0_14ParticleXYZRPYEE23resampleWithReplacementEv@Base 1.6
 (optional=templinst)_ZN3pcl8tracking21ParticleFilterTrackerINS_15PointXYZINormalENS0_14ParticleXYZRPYEE24setResampleLikelihoodThrEd@Base 1.6
 (optional=templinst)_ZN3pcl8tracking21ParticleFilterTrackerINS_15PointXYZINormalENS0_14ParticleXYZRPYEE25setInitialNoiseCovarianceERKSt6vectorIdSaIdEE@Base 1.6
 (optional=templinst)_ZN3pcl8tracking21ParticleFilterTrackerINS_15PointXYZINormalENS0_14ParticleXYZRPYEE28computeTransformedPointCloudERKS3_RSt6vectorIiSaIiEERNS_10PointCloudIS2_EE@Base 1.6
 (optional=templinst)_ZN3pcl8tracking21ParticleFilterTrackerINS_15PointXYZINormalENS0_14ParticleXYZRPYEE28getIntervalOfChangeDetectionEv@Base 1.6
 (optional=templinst)_ZN3pcl8tracking21ParticleFilterTrackerINS_15PointXYZINormalENS0_14ParticleXYZRPYEE28setIntervalOfChangeDetectionEj@Base 1.6
 (optional=templinst)_ZN3pcl8tracking21ParticleFilterTrackerINS_15PointXYZINormalENS0_14ParticleXYZRPYEE29getMinPointsOfChangeDetectionEv@Base 1.6
 (optional=templinst)_ZN3pcl8tracking21ParticleFilterTrackerINS_15PointXYZINormalENS0_14ParticleXYZRPYEE29setMinPointsOfChangeDetectionEj@Base 1.6
 (optional=templinst)_ZN3pcl8tracking21ParticleFilterTrackerINS_15PointXYZINormalENS0_14ParticleXYZRPYEE30getResolutionOfChangeDetectionEv@Base 1.6
 (optional=templinst)_ZN3pcl8tracking21ParticleFilterTrackerINS_15PointXYZINormalENS0_14ParticleXYZRPYEE30setResolutionOfChangeDetectionEd@Base 1.6
 (optional=templinst)_ZN3pcl8tracking21ParticleFilterTrackerINS_15PointXYZINormalENS0_14ParticleXYZRPYEE38computeTransformedPointCloudWithNormalERKS3_RSt6vectorIiSaIiEERNS_10PointCloudIS2_EE@Base 1.6
 (optional=templinst)_ZN3pcl8tracking21ParticleFilterTrackerINS_15PointXYZINormalENS0_14ParticleXYZRPYEE41computeTransformedPointCloudWithoutNormalERKS3_RNS_10PointCloudIS2_EE@Base 1.6
 (optional=templinst)_ZN3pcl8tracking21ParticleFilterTrackerINS_15PointXYZINormalENS0_14ParticleXYZRPYEE6updateEv@Base 1.6
 (optional=templinst)_ZN3pcl8tracking21ParticleFilterTrackerINS_15PointXYZINormalENS0_14ParticleXYZRPYEE6weightEv@Base 1.6
 (optional=templinst)_ZN3pcl8tracking21ParticleFilterTrackerINS_15PointXYZINormalENS0_14ParticleXYZRPYEE8getAlphaEv@Base 1.6
 (optional=templinst)_ZN3pcl8tracking21ParticleFilterTrackerINS_15PointXYZINormalENS0_14ParticleXYZRPYEE8resampleEv@Base 1.6
 (optional=templinst)_ZN3pcl8tracking21ParticleFilterTrackerINS_15PointXYZINormalENS0_14ParticleXYZRPYEE8setAlphaEd@Base 1.6
 (optional=templinst)_ZN3pcl8tracking21ParticleFilterTrackerINS_15PointXYZINormalENS0_14ParticleXYZRPYEE8setTransERKN5Eigen9TransformIfLi3ELi2ELi0EEE@Base 1.6
 (optional=templinst)_ZN3pcl8tracking21ParticleFilterTrackerINS_15PointXYZINormalENS0_14ParticleXYZRPYEEC1Ev@Base 1.6
 (optional=templinst)_ZN3pcl8tracking21ParticleFilterTrackerINS_15PointXYZINormalENS0_14ParticleXYZRPYEEC2Ev@Base 1.6
 (optional=templinst)_ZN3pcl8tracking21ParticleFilterTrackerINS_15PointXYZINormalENS0_14ParticleXYZRPYEED0Ev@Base 1.6
 (optional=templinst)_ZN3pcl8tracking21ParticleFilterTrackerINS_15PointXYZINormalENS0_14ParticleXYZRPYEED1Ev@Base 1.6
 (optional=templinst)_ZN3pcl8tracking21ParticleFilterTrackerINS_15PointXYZINormalENS0_14ParticleXYZRPYEED2Ev@Base 1.6
 (optional=templinst)_ZN3pcl8tracking21ParticleFilterTrackerINS_17PointXYZRGBNormalENS0_11ParticleXYREE11initComputeEv@Base 1.6
 (optional=templinst)_ZN3pcl8tracking21ParticleFilterTrackerINS_17PointXYZRGBNormalENS0_11ParticleXYREE12getUseNormalEv@Base 1.6
 (optional=templinst)_ZN3pcl8tracking21ParticleFilterTrackerINS_17PointXYZRGBNormalENS0_11ParticleXYREE12setUseNormalEb@Base 1.6
 (optional=templinst)_ZN3pcl8tracking21ParticleFilterTrackerINS_17PointXYZRGBNormalENS0_11ParticleXYREE13genAliasTableERSt6vectorIiSaIiEERS5_IdSaIdEERKN5boost10shared_ptrIKNS_10PointCloudIS3_EEEE@Base 1.6
 (optional=templinst)_ZN3pcl8tracking21ParticleFilterTrackerINS_17PointXYZRGBNormalENS0_11ParticleXYREE13initParticlesEb@Base 1.6
 (optional=templinst)_ZN3pcl8tracking21ParticleFilterTrackerINS_17PointXYZRGBNormalENS0_11ParticleXYREE13resetTrackingEv@Base 1.6
 (optional=templinst)_ZN3pcl8tracking21ParticleFilterTrackerINS_17PointXYZRGBNormalENS0_11ParticleXYREE13setMinIndicesEi@Base 1.6
 (optional=templinst)_ZN3pcl8tracking21ParticleFilterTrackerINS_17PointXYZRGBNormalENS0_11ParticleXYREE13toEigenMatrixERKS3_@Base 1.6
 (optional=templinst)_ZN3pcl8tracking21ParticleFilterTrackerINS_17PointXYZRGBNormalENS0_11ParticleXYREE14getMotionRatioEv@Base 1.6
 (optional=templinst)_ZN3pcl8tracking21ParticleFilterTrackerINS_17PointXYZRGBNormalENS0_11ParticleXYREE14setMotionRatioEd@Base 1.6
 (optional=templinst)_ZN3pcl8tracking21ParticleFilterTrackerINS_17PointXYZRGBNormalENS0_11ParticleXYREE14setParticleNumEi@Base 1.6
 (optional=templinst)_ZN3pcl8tracking21ParticleFilterTrackerINS_17PointXYZRGBNormalENS0_11ParticleXYREE15calcBoundingBoxERdS5_S5_S5_S5_S5_@Base 1.6
 (optional=templinst)_ZN3pcl8tracking21ParticleFilterTrackerINS_17PointXYZRGBNormalENS0_11ParticleXYREE15computeTrackingEv@Base 1.6
 (optional=templinst)_ZN3pcl8tracking21ParticleFilterTrackerINS_17PointXYZRGBNormalENS0_11ParticleXYREE15normalizeWeightEv@Base 1.6
 (optional=templinst)_ZN3pcl8tracking21ParticleFilterTrackerINS_17PointXYZRGBNormalENS0_11ParticleXYREE15setIterationNumEi@Base 1.6
 (optional=templinst)_ZN3pcl8tracking21ParticleFilterTrackerINS_17PointXYZRGBNormalENS0_11ParticleXYREE17getReferenceCloudEv@Base 1.6
 (optional=templinst)_ZN3pcl8tracking21ParticleFilterTrackerINS_17PointXYZRGBNormalENS0_11ParticleXYREE17setCloudCoherenceERKN5boost10shared_ptrINS0_19PointCloudCoherenceIS2_EEEE@Base 1.6
 (optional=templinst)_ZN3pcl8tracking21ParticleFilterTrackerINS_17PointXYZRGBNormalENS0_11ParticleXYREE17setReferenceCloudERKN5boost10shared_ptrIKNS_10PointCloudIS2_EEEE@Base 1.6
 (optional=templinst)_ZN3pcl8tracking21ParticleFilterTrackerINS_17PointXYZRGBNormalENS0_11ParticleXYREE19cropInputPointCloudERKN5boost10shared_ptrIKNS_10PointCloudIS2_EEEERS8_@Base 1.6
 (optional=templinst)_ZN3pcl8tracking21ParticleFilterTrackerINS_17PointXYZRGBNormalENS0_11ParticleXYREE19setInitialNoiseMeanERKSt6vectorIdSaIdEE@Base 1.6
 (optional=templinst)_ZN3pcl8tracking21ParticleFilterTrackerINS_17PointXYZRGBNormalENS0_11ParticleXYREE19testChangeDetectionERKN5boost10shared_ptrIKNS_10PointCloudIS2_EEEE@Base 1.6
 (optional=templinst)_ZN3pcl8tracking21ParticleFilterTrackerINS_17PointXYZRGBNormalENS0_11ParticleXYREE20getUseChangeDetectorEv@Base 1.6
 (optional=templinst)_ZN3pcl8tracking21ParticleFilterTrackerINS_17PointXYZRGBNormalENS0_11ParticleXYREE20setOcclusionAngleTheEd@Base 1.6
 (optional=templinst)_ZN3pcl8tracking21ParticleFilterTrackerINS_17PointXYZRGBNormalENS0_11ParticleXYREE20setUseChangeDetectorEb@Base 1.6
 (optional=templinst)_ZN3pcl8tracking21ParticleFilterTrackerINS_17PointXYZRGBNormalENS0_11ParticleXYREE21sampleWithReplacementERKSt6vectorIiSaIiEERKS5_IdSaIdEE@Base 1.6
 (optional=templinst)_ZN3pcl8tracking21ParticleFilterTrackerINS_17PointXYZRGBNormalENS0_11ParticleXYREE22setStepNoiseCovarianceERKSt6vectorIdSaIdEE@Base 1.6
 (optional=templinst)_ZN3pcl8tracking21ParticleFilterTrackerINS_17PointXYZRGBNormalENS0_11ParticleXYREE23normalizeParticleWeightEddd@Base 1.6
 (optional=templinst)_ZN3pcl8tracking21ParticleFilterTrackerINS_17PointXYZRGBNormalENS0_11ParticleXYREE23resampleWithReplacementEv@Base 1.6
 (optional=templinst)_ZN3pcl8tracking21ParticleFilterTrackerINS_17PointXYZRGBNormalENS0_11ParticleXYREE24setResampleLikelihoodThrEd@Base 1.6
 (optional=templinst)_ZN3pcl8tracking21ParticleFilterTrackerINS_17PointXYZRGBNormalENS0_11ParticleXYREE25setInitialNoiseCovarianceERKSt6vectorIdSaIdEE@Base 1.6
 (optional=templinst)_ZN3pcl8tracking21ParticleFilterTrackerINS_17PointXYZRGBNormalENS0_11ParticleXYREE28computeTransformedPointCloudERKS3_RSt6vectorIiSaIiEERNS_10PointCloudIS2_EE@Base 1.6
 (optional=templinst)_ZN3pcl8tracking21ParticleFilterTrackerINS_17PointXYZRGBNormalENS0_11ParticleXYREE28getIntervalOfChangeDetectionEv@Base 1.6
 (optional=templinst)_ZN3pcl8tracking21ParticleFilterTrackerINS_17PointXYZRGBNormalENS0_11ParticleXYREE28setIntervalOfChangeDetectionEj@Base 1.6
 (optional=templinst)_ZN3pcl8tracking21ParticleFilterTrackerINS_17PointXYZRGBNormalENS0_11ParticleXYREE29getMinPointsOfChangeDetectionEv@Base 1.6
 (optional=templinst)_ZN3pcl8tracking21ParticleFilterTrackerINS_17PointXYZRGBNormalENS0_11ParticleXYREE29setMinPointsOfChangeDetectionEj@Base 1.6
 (optional=templinst)_ZN3pcl8tracking21ParticleFilterTrackerINS_17PointXYZRGBNormalENS0_11ParticleXYREE30getResolutionOfChangeDetectionEv@Base 1.6
 (optional=templinst)_ZN3pcl8tracking21ParticleFilterTrackerINS_17PointXYZRGBNormalENS0_11ParticleXYREE30setResolutionOfChangeDetectionEd@Base 1.6
 (optional=templinst)_ZN3pcl8tracking21ParticleFilterTrackerINS_17PointXYZRGBNormalENS0_11ParticleXYREE38computeTransformedPointCloudWithNormalERKS3_RSt6vectorIiSaIiEERNS_10PointCloudIS2_EE@Base 1.6
 (optional=templinst)_ZN3pcl8tracking21ParticleFilterTrackerINS_17PointXYZRGBNormalENS0_11ParticleXYREE41computeTransformedPointCloudWithoutNormalERKS3_RNS_10PointCloudIS2_EE@Base 1.6
 (optional=templinst)_ZN3pcl8tracking21ParticleFilterTrackerINS_17PointXYZRGBNormalENS0_11ParticleXYREE6updateEv@Base 1.6
 (optional=templinst)_ZN3pcl8tracking21ParticleFilterTrackerINS_17PointXYZRGBNormalENS0_11ParticleXYREE6weightEv@Base 1.6
 (optional=templinst)_ZN3pcl8tracking21ParticleFilterTrackerINS_17PointXYZRGBNormalENS0_11ParticleXYREE8getAlphaEv@Base 1.6
 (optional=templinst)_ZN3pcl8tracking21ParticleFilterTrackerINS_17PointXYZRGBNormalENS0_11ParticleXYREE8resampleEv@Base 1.6
 (optional=templinst)_ZN3pcl8tracking21ParticleFilterTrackerINS_17PointXYZRGBNormalENS0_11ParticleXYREE8setAlphaEd@Base 1.6
 (optional=templinst)_ZN3pcl8tracking21ParticleFilterTrackerINS_17PointXYZRGBNormalENS0_11ParticleXYREE8setTransERKN5Eigen9TransformIfLi3ELi2ELi0EEE@Base 1.6
 (optional=templinst)_ZN3pcl8tracking21ParticleFilterTrackerINS_17PointXYZRGBNormalENS0_11ParticleXYREEC1Ev@Base 1.6
 (optional=templinst)_ZN3pcl8tracking21ParticleFilterTrackerINS_17PointXYZRGBNormalENS0_11ParticleXYREEC2Ev@Base 1.6
 (optional=templinst)_ZN3pcl8tracking21ParticleFilterTrackerINS_17PointXYZRGBNormalENS0_11ParticleXYREED0Ev@Base 1.6
 (optional=templinst)_ZN3pcl8tracking21ParticleFilterTrackerINS_17PointXYZRGBNormalENS0_11ParticleXYREED1Ev@Base 1.6
 (optional=templinst)_ZN3pcl8tracking21ParticleFilterTrackerINS_17PointXYZRGBNormalENS0_11ParticleXYREED2Ev@Base 1.6
 (optional=templinst)_ZN3pcl8tracking21ParticleFilterTrackerINS_17PointXYZRGBNormalENS0_12ParticleXYRPEE11initComputeEv@Base 1.6
 (optional=templinst)_ZN3pcl8tracking21ParticleFilterTrackerINS_17PointXYZRGBNormalENS0_12ParticleXYRPEE12getUseNormalEv@Base 1.6
 (optional=templinst)_ZN3pcl8tracking21ParticleFilterTrackerINS_17PointXYZRGBNormalENS0_12ParticleXYRPEE12setUseNormalEb@Base 1.6
 (optional=templinst)_ZN3pcl8tracking21ParticleFilterTrackerINS_17PointXYZRGBNormalENS0_12ParticleXYRPEE13genAliasTableERSt6vectorIiSaIiEERS5_IdSaIdEERKN5boost10shared_ptrIKNS_10PointCloudIS3_EEEE@Base 1.6
 (optional=templinst)_ZN3pcl8tracking21ParticleFilterTrackerINS_17PointXYZRGBNormalENS0_12ParticleXYRPEE13initParticlesEb@Base 1.6
 (optional=templinst)_ZN3pcl8tracking21ParticleFilterTrackerINS_17PointXYZRGBNormalENS0_12ParticleXYRPEE13resetTrackingEv@Base 1.6
 (optional=templinst)_ZN3pcl8tracking21ParticleFilterTrackerINS_17PointXYZRGBNormalENS0_12ParticleXYRPEE13setMinIndicesEi@Base 1.6
 (optional=templinst)_ZN3pcl8tracking21ParticleFilterTrackerINS_17PointXYZRGBNormalENS0_12ParticleXYRPEE13toEigenMatrixERKS3_@Base 1.6
 (optional=templinst)_ZN3pcl8tracking21ParticleFilterTrackerINS_17PointXYZRGBNormalENS0_12ParticleXYRPEE14getMotionRatioEv@Base 1.6
 (optional=templinst)_ZN3pcl8tracking21ParticleFilterTrackerINS_17PointXYZRGBNormalENS0_12ParticleXYRPEE14setMotionRatioEd@Base 1.6
 (optional=templinst)_ZN3pcl8tracking21ParticleFilterTrackerINS_17PointXYZRGBNormalENS0_12ParticleXYRPEE14setParticleNumEi@Base 1.6
 (optional=templinst)_ZN3pcl8tracking21ParticleFilterTrackerINS_17PointXYZRGBNormalENS0_12ParticleXYRPEE15calcBoundingBoxERdS5_S5_S5_S5_S5_@Base 1.6
 (optional=templinst)_ZN3pcl8tracking21ParticleFilterTrackerINS_17PointXYZRGBNormalENS0_12ParticleXYRPEE15computeTrackingEv@Base 1.6
 (optional=templinst)_ZN3pcl8tracking21ParticleFilterTrackerINS_17PointXYZRGBNormalENS0_12ParticleXYRPEE15normalizeWeightEv@Base 1.6
 (optional=templinst)_ZN3pcl8tracking21ParticleFilterTrackerINS_17PointXYZRGBNormalENS0_12ParticleXYRPEE15setIterationNumEi@Base 1.6
 (optional=templinst)_ZN3pcl8tracking21ParticleFilterTrackerINS_17PointXYZRGBNormalENS0_12ParticleXYRPEE17getReferenceCloudEv@Base 1.6
 (optional=templinst)_ZN3pcl8tracking21ParticleFilterTrackerINS_17PointXYZRGBNormalENS0_12ParticleXYRPEE17setCloudCoherenceERKN5boost10shared_ptrINS0_19PointCloudCoherenceIS2_EEEE@Base 1.6
 (optional=templinst)_ZN3pcl8tracking21ParticleFilterTrackerINS_17PointXYZRGBNormalENS0_12ParticleXYRPEE17setReferenceCloudERKN5boost10shared_ptrIKNS_10PointCloudIS2_EEEE@Base 1.6
 (optional=templinst)_ZN3pcl8tracking21ParticleFilterTrackerINS_17PointXYZRGBNormalENS0_12ParticleXYRPEE19cropInputPointCloudERKN5boost10shared_ptrIKNS_10PointCloudIS2_EEEERS8_@Base 1.6
 (optional=templinst)_ZN3pcl8tracking21ParticleFilterTrackerINS_17PointXYZRGBNormalENS0_12ParticleXYRPEE19setInitialNoiseMeanERKSt6vectorIdSaIdEE@Base 1.6
 (optional=templinst)_ZN3pcl8tracking21ParticleFilterTrackerINS_17PointXYZRGBNormalENS0_12ParticleXYRPEE19testChangeDetectionERKN5boost10shared_ptrIKNS_10PointCloudIS2_EEEE@Base 1.6
 (optional=templinst)_ZN3pcl8tracking21ParticleFilterTrackerINS_17PointXYZRGBNormalENS0_12ParticleXYRPEE20getUseChangeDetectorEv@Base 1.6
 (optional=templinst)_ZN3pcl8tracking21ParticleFilterTrackerINS_17PointXYZRGBNormalENS0_12ParticleXYRPEE20setOcclusionAngleTheEd@Base 1.6
 (optional=templinst)_ZN3pcl8tracking21ParticleFilterTrackerINS_17PointXYZRGBNormalENS0_12ParticleXYRPEE20setUseChangeDetectorEb@Base 1.6
 (optional=templinst)_ZN3pcl8tracking21ParticleFilterTrackerINS_17PointXYZRGBNormalENS0_12ParticleXYRPEE21sampleWithReplacementERKSt6vectorIiSaIiEERKS5_IdSaIdEE@Base 1.6
 (optional=templinst)_ZN3pcl8tracking21ParticleFilterTrackerINS_17PointXYZRGBNormalENS0_12ParticleXYRPEE22setStepNoiseCovarianceERKSt6vectorIdSaIdEE@Base 1.6
 (optional=templinst)_ZN3pcl8tracking21ParticleFilterTrackerINS_17PointXYZRGBNormalENS0_12ParticleXYRPEE23normalizeParticleWeightEddd@Base 1.6
 (optional=templinst)_ZN3pcl8tracking21ParticleFilterTrackerINS_17PointXYZRGBNormalENS0_12ParticleXYRPEE23resampleWithReplacementEv@Base 1.6
 (optional=templinst)_ZN3pcl8tracking21ParticleFilterTrackerINS_17PointXYZRGBNormalENS0_12ParticleXYRPEE24setResampleLikelihoodThrEd@Base 1.6
 (optional=templinst)_ZN3pcl8tracking21ParticleFilterTrackerINS_17PointXYZRGBNormalENS0_12ParticleXYRPEE25setInitialNoiseCovarianceERKSt6vectorIdSaIdEE@Base 1.6
 (optional=templinst)_ZN3pcl8tracking21ParticleFilterTrackerINS_17PointXYZRGBNormalENS0_12ParticleXYRPEE28computeTransformedPointCloudERKS3_RSt6vectorIiSaIiEERNS_10PointCloudIS2_EE@Base 1.6
 (optional=templinst)_ZN3pcl8tracking21ParticleFilterTrackerINS_17PointXYZRGBNormalENS0_12ParticleXYRPEE28getIntervalOfChangeDetectionEv@Base 1.6
 (optional=templinst)_ZN3pcl8tracking21ParticleFilterTrackerINS_17PointXYZRGBNormalENS0_12ParticleXYRPEE28setIntervalOfChangeDetectionEj@Base 1.6
 (optional=templinst)_ZN3pcl8tracking21ParticleFilterTrackerINS_17PointXYZRGBNormalENS0_12ParticleXYRPEE29getMinPointsOfChangeDetectionEv@Base 1.6
 (optional=templinst)_ZN3pcl8tracking21ParticleFilterTrackerINS_17PointXYZRGBNormalENS0_12ParticleXYRPEE29setMinPointsOfChangeDetectionEj@Base 1.6
 (optional=templinst)_ZN3pcl8tracking21ParticleFilterTrackerINS_17PointXYZRGBNormalENS0_12ParticleXYRPEE30getResolutionOfChangeDetectionEv@Base 1.6
 (optional=templinst)_ZN3pcl8tracking21ParticleFilterTrackerINS_17PointXYZRGBNormalENS0_12ParticleXYRPEE30setResolutionOfChangeDetectionEd@Base 1.6
 (optional=templinst)_ZN3pcl8tracking21ParticleFilterTrackerINS_17PointXYZRGBNormalENS0_12ParticleXYRPEE38computeTransformedPointCloudWithNormalERKS3_RSt6vectorIiSaIiEERNS_10PointCloudIS2_EE@Base 1.6
 (optional=templinst)_ZN3pcl8tracking21ParticleFilterTrackerINS_17PointXYZRGBNormalENS0_12ParticleXYRPEE41computeTransformedPointCloudWithoutNormalERKS3_RNS_10PointCloudIS2_EE@Base 1.6
 (optional=templinst)_ZN3pcl8tracking21ParticleFilterTrackerINS_17PointXYZRGBNormalENS0_12ParticleXYRPEE6updateEv@Base 1.6
 (optional=templinst)_ZN3pcl8tracking21ParticleFilterTrackerINS_17PointXYZRGBNormalENS0_12ParticleXYRPEE6weightEv@Base 1.6
 (optional=templinst)_ZN3pcl8tracking21ParticleFilterTrackerINS_17PointXYZRGBNormalENS0_12ParticleXYRPEE8getAlphaEv@Base 1.6
 (optional=templinst)_ZN3pcl8tracking21ParticleFilterTrackerINS_17PointXYZRGBNormalENS0_12ParticleXYRPEE8resampleEv@Base 1.6
 (optional=templinst)_ZN3pcl8tracking21ParticleFilterTrackerINS_17PointXYZRGBNormalENS0_12ParticleXYRPEE8setAlphaEd@Base 1.6
 (optional=templinst)_ZN3pcl8tracking21ParticleFilterTrackerINS_17PointXYZRGBNormalENS0_12ParticleXYRPEE8setTransERKN5Eigen9TransformIfLi3ELi2ELi0EEE@Base 1.6
 (optional=templinst)_ZN3pcl8tracking21ParticleFilterTrackerINS_17PointXYZRGBNormalENS0_12ParticleXYRPEEC1Ev@Base 1.6
 (optional=templinst)_ZN3pcl8tracking21ParticleFilterTrackerINS_17PointXYZRGBNormalENS0_12ParticleXYRPEEC2Ev@Base 1.6
 (optional=templinst)_ZN3pcl8tracking21ParticleFilterTrackerINS_17PointXYZRGBNormalENS0_12ParticleXYRPEED0Ev@Base 1.6
 (optional=templinst)_ZN3pcl8tracking21ParticleFilterTrackerINS_17PointXYZRGBNormalENS0_12ParticleXYRPEED1Ev@Base 1.6
 (optional=templinst)_ZN3pcl8tracking21ParticleFilterTrackerINS_17PointXYZRGBNormalENS0_12ParticleXYRPEED2Ev@Base 1.6
 (optional=templinst)_ZN3pcl8tracking21ParticleFilterTrackerINS_17PointXYZRGBNormalENS0_12ParticleXYZREE11initComputeEv@Base 1.6
 (optional=templinst)_ZN3pcl8tracking21ParticleFilterTrackerINS_17PointXYZRGBNormalENS0_12ParticleXYZREE12getUseNormalEv@Base 1.6
 (optional=templinst)_ZN3pcl8tracking21ParticleFilterTrackerINS_17PointXYZRGBNormalENS0_12ParticleXYZREE12setUseNormalEb@Base 1.6
 (optional=templinst)_ZN3pcl8tracking21ParticleFilterTrackerINS_17PointXYZRGBNormalENS0_12ParticleXYZREE13genAliasTableERSt6vectorIiSaIiEERS5_IdSaIdEERKN5boost10shared_ptrIKNS_10PointCloudIS3_EEEE@Base 1.6
 (optional=templinst)_ZN3pcl8tracking21ParticleFilterTrackerINS_17PointXYZRGBNormalENS0_12ParticleXYZREE13initParticlesEb@Base 1.6
 (optional=templinst)_ZN3pcl8tracking21ParticleFilterTrackerINS_17PointXYZRGBNormalENS0_12ParticleXYZREE13resetTrackingEv@Base 1.6
 (optional=templinst)_ZN3pcl8tracking21ParticleFilterTrackerINS_17PointXYZRGBNormalENS0_12ParticleXYZREE13setMinIndicesEi@Base 1.6
 (optional=templinst)_ZN3pcl8tracking21ParticleFilterTrackerINS_17PointXYZRGBNormalENS0_12ParticleXYZREE13toEigenMatrixERKS3_@Base 1.6
 (optional=templinst)_ZN3pcl8tracking21ParticleFilterTrackerINS_17PointXYZRGBNormalENS0_12ParticleXYZREE14getMotionRatioEv@Base 1.6
 (optional=templinst)_ZN3pcl8tracking21ParticleFilterTrackerINS_17PointXYZRGBNormalENS0_12ParticleXYZREE14setMotionRatioEd@Base 1.6
 (optional=templinst)_ZN3pcl8tracking21ParticleFilterTrackerINS_17PointXYZRGBNormalENS0_12ParticleXYZREE14setParticleNumEi@Base 1.6
 (optional=templinst)_ZN3pcl8tracking21ParticleFilterTrackerINS_17PointXYZRGBNormalENS0_12ParticleXYZREE15calcBoundingBoxERdS5_S5_S5_S5_S5_@Base 1.6
 (optional=templinst)_ZN3pcl8tracking21ParticleFilterTrackerINS_17PointXYZRGBNormalENS0_12ParticleXYZREE15computeTrackingEv@Base 1.6
 (optional=templinst)_ZN3pcl8tracking21ParticleFilterTrackerINS_17PointXYZRGBNormalENS0_12ParticleXYZREE15normalizeWeightEv@Base 1.6
 (optional=templinst)_ZN3pcl8tracking21ParticleFilterTrackerINS_17PointXYZRGBNormalENS0_12ParticleXYZREE15setIterationNumEi@Base 1.6
 (optional=templinst)_ZN3pcl8tracking21ParticleFilterTrackerINS_17PointXYZRGBNormalENS0_12ParticleXYZREE17getReferenceCloudEv@Base 1.6
 (optional=templinst)_ZN3pcl8tracking21ParticleFilterTrackerINS_17PointXYZRGBNormalENS0_12ParticleXYZREE17setCloudCoherenceERKN5boost10shared_ptrINS0_19PointCloudCoherenceIS2_EEEE@Base 1.6
 (optional=templinst)_ZN3pcl8tracking21ParticleFilterTrackerINS_17PointXYZRGBNormalENS0_12ParticleXYZREE17setReferenceCloudERKN5boost10shared_ptrIKNS_10PointCloudIS2_EEEE@Base 1.6
 (optional=templinst)_ZN3pcl8tracking21ParticleFilterTrackerINS_17PointXYZRGBNormalENS0_12ParticleXYZREE19cropInputPointCloudERKN5boost10shared_ptrIKNS_10PointCloudIS2_EEEERS8_@Base 1.6
 (optional=templinst)_ZN3pcl8tracking21ParticleFilterTrackerINS_17PointXYZRGBNormalENS0_12ParticleXYZREE19setInitialNoiseMeanERKSt6vectorIdSaIdEE@Base 1.6
 (optional=templinst)_ZN3pcl8tracking21ParticleFilterTrackerINS_17PointXYZRGBNormalENS0_12ParticleXYZREE19testChangeDetectionERKN5boost10shared_ptrIKNS_10PointCloudIS2_EEEE@Base 1.6
 (optional=templinst)_ZN3pcl8tracking21ParticleFilterTrackerINS_17PointXYZRGBNormalENS0_12ParticleXYZREE20getUseChangeDetectorEv@Base 1.6
 (optional=templinst)_ZN3pcl8tracking21ParticleFilterTrackerINS_17PointXYZRGBNormalENS0_12ParticleXYZREE20setOcclusionAngleTheEd@Base 1.6
 (optional=templinst)_ZN3pcl8tracking21ParticleFilterTrackerINS_17PointXYZRGBNormalENS0_12ParticleXYZREE20setUseChangeDetectorEb@Base 1.6
 (optional=templinst)_ZN3pcl8tracking21ParticleFilterTrackerINS_17PointXYZRGBNormalENS0_12ParticleXYZREE21sampleWithReplacementERKSt6vectorIiSaIiEERKS5_IdSaIdEE@Base 1.6
 (optional=templinst)_ZN3pcl8tracking21ParticleFilterTrackerINS_17PointXYZRGBNormalENS0_12ParticleXYZREE22setStepNoiseCovarianceERKSt6vectorIdSaIdEE@Base 1.6
 (optional=templinst)_ZN3pcl8tracking21ParticleFilterTrackerINS_17PointXYZRGBNormalENS0_12ParticleXYZREE23normalizeParticleWeightEddd@Base 1.6
 (optional=templinst)_ZN3pcl8tracking21ParticleFilterTrackerINS_17PointXYZRGBNormalENS0_12ParticleXYZREE23resampleWithReplacementEv@Base 1.6
 (optional=templinst)_ZN3pcl8tracking21ParticleFilterTrackerINS_17PointXYZRGBNormalENS0_12ParticleXYZREE24setResampleLikelihoodThrEd@Base 1.6
 (optional=templinst)_ZN3pcl8tracking21ParticleFilterTrackerINS_17PointXYZRGBNormalENS0_12ParticleXYZREE25setInitialNoiseCovarianceERKSt6vectorIdSaIdEE@Base 1.6
 (optional=templinst)_ZN3pcl8tracking21ParticleFilterTrackerINS_17PointXYZRGBNormalENS0_12ParticleXYZREE28computeTransformedPointCloudERKS3_RSt6vectorIiSaIiEERNS_10PointCloudIS2_EE@Base 1.6
 (optional=templinst)_ZN3pcl8tracking21ParticleFilterTrackerINS_17PointXYZRGBNormalENS0_12ParticleXYZREE28getIntervalOfChangeDetectionEv@Base 1.6
 (optional=templinst)_ZN3pcl8tracking21ParticleFilterTrackerINS_17PointXYZRGBNormalENS0_12ParticleXYZREE28setIntervalOfChangeDetectionEj@Base 1.6
 (optional=templinst)_ZN3pcl8tracking21ParticleFilterTrackerINS_17PointXYZRGBNormalENS0_12ParticleXYZREE29getMinPointsOfChangeDetectionEv@Base 1.6
 (optional=templinst)_ZN3pcl8tracking21ParticleFilterTrackerINS_17PointXYZRGBNormalENS0_12ParticleXYZREE29setMinPointsOfChangeDetectionEj@Base 1.6
 (optional=templinst)_ZN3pcl8tracking21ParticleFilterTrackerINS_17PointXYZRGBNormalENS0_12ParticleXYZREE30getResolutionOfChangeDetectionEv@Base 1.6
 (optional=templinst)_ZN3pcl8tracking21ParticleFilterTrackerINS_17PointXYZRGBNormalENS0_12ParticleXYZREE30setResolutionOfChangeDetectionEd@Base 1.6
 (optional=templinst)_ZN3pcl8tracking21ParticleFilterTrackerINS_17PointXYZRGBNormalENS0_12ParticleXYZREE38computeTransformedPointCloudWithNormalERKS3_RSt6vectorIiSaIiEERNS_10PointCloudIS2_EE@Base 1.6
 (optional=templinst)_ZN3pcl8tracking21ParticleFilterTrackerINS_17PointXYZRGBNormalENS0_12ParticleXYZREE41computeTransformedPointCloudWithoutNormalERKS3_RNS_10PointCloudIS2_EE@Base 1.6
 (optional=templinst)_ZN3pcl8tracking21ParticleFilterTrackerINS_17PointXYZRGBNormalENS0_12ParticleXYZREE6updateEv@Base 1.6
 (optional=templinst)_ZN3pcl8tracking21ParticleFilterTrackerINS_17PointXYZRGBNormalENS0_12ParticleXYZREE6weightEv@Base 1.6
 (optional=templinst)_ZN3pcl8tracking21ParticleFilterTrackerINS_17PointXYZRGBNormalENS0_12ParticleXYZREE8getAlphaEv@Base 1.6
 (optional=templinst)_ZN3pcl8tracking21ParticleFilterTrackerINS_17PointXYZRGBNormalENS0_12ParticleXYZREE8resampleEv@Base 1.6
 (optional=templinst)_ZN3pcl8tracking21ParticleFilterTrackerINS_17PointXYZRGBNormalENS0_12ParticleXYZREE8setAlphaEd@Base 1.6
 (optional=templinst)_ZN3pcl8tracking21ParticleFilterTrackerINS_17PointXYZRGBNormalENS0_12ParticleXYZREE8setTransERKN5Eigen9TransformIfLi3ELi2ELi0EEE@Base 1.6
 (optional=templinst)_ZN3pcl8tracking21ParticleFilterTrackerINS_17PointXYZRGBNormalENS0_12ParticleXYZREEC1Ev@Base 1.6
 (optional=templinst)_ZN3pcl8tracking21ParticleFilterTrackerINS_17PointXYZRGBNormalENS0_12ParticleXYZREEC2Ev@Base 1.6
 (optional=templinst)_ZN3pcl8tracking21ParticleFilterTrackerINS_17PointXYZRGBNormalENS0_12ParticleXYZREED0Ev@Base 1.6
 (optional=templinst)_ZN3pcl8tracking21ParticleFilterTrackerINS_17PointXYZRGBNormalENS0_12ParticleXYZREED1Ev@Base 1.6
 (optional=templinst)_ZN3pcl8tracking21ParticleFilterTrackerINS_17PointXYZRGBNormalENS0_12ParticleXYZREED2Ev@Base 1.6
 (optional=templinst)_ZN3pcl8tracking21ParticleFilterTrackerINS_17PointXYZRGBNormalENS0_13ParticleXYRPYEE11initComputeEv@Base 1.6
 (optional=templinst)_ZN3pcl8tracking21ParticleFilterTrackerINS_17PointXYZRGBNormalENS0_13ParticleXYRPYEE12getUseNormalEv@Base 1.6
 (optional=templinst)_ZN3pcl8tracking21ParticleFilterTrackerINS_17PointXYZRGBNormalENS0_13ParticleXYRPYEE12setUseNormalEb@Base 1.6
 (optional=templinst)_ZN3pcl8tracking21ParticleFilterTrackerINS_17PointXYZRGBNormalENS0_13ParticleXYRPYEE13genAliasTableERSt6vectorIiSaIiEERS5_IdSaIdEERKN5boost10shared_ptrIKNS_10PointCloudIS3_EEEE@Base 1.6
 (optional=templinst)_ZN3pcl8tracking21ParticleFilterTrackerINS_17PointXYZRGBNormalENS0_13ParticleXYRPYEE13initParticlesEb@Base 1.6
 (optional=templinst)_ZN3pcl8tracking21ParticleFilterTrackerINS_17PointXYZRGBNormalENS0_13ParticleXYRPYEE13resetTrackingEv@Base 1.6
 (optional=templinst)_ZN3pcl8tracking21ParticleFilterTrackerINS_17PointXYZRGBNormalENS0_13ParticleXYRPYEE13setMinIndicesEi@Base 1.6
 (optional=templinst)_ZN3pcl8tracking21ParticleFilterTrackerINS_17PointXYZRGBNormalENS0_13ParticleXYRPYEE13toEigenMatrixERKS3_@Base 1.6
 (optional=templinst)_ZN3pcl8tracking21ParticleFilterTrackerINS_17PointXYZRGBNormalENS0_13ParticleXYRPYEE14getMotionRatioEv@Base 1.6
 (optional=templinst)_ZN3pcl8tracking21ParticleFilterTrackerINS_17PointXYZRGBNormalENS0_13ParticleXYRPYEE14setMotionRatioEd@Base 1.6
 (optional=templinst)_ZN3pcl8tracking21ParticleFilterTrackerINS_17PointXYZRGBNormalENS0_13ParticleXYRPYEE14setParticleNumEi@Base 1.6
 (optional=templinst)_ZN3pcl8tracking21ParticleFilterTrackerINS_17PointXYZRGBNormalENS0_13ParticleXYRPYEE15calcBoundingBoxERdS5_S5_S5_S5_S5_@Base 1.6
 (optional=templinst)_ZN3pcl8tracking21ParticleFilterTrackerINS_17PointXYZRGBNormalENS0_13ParticleXYRPYEE15computeTrackingEv@Base 1.6
 (optional=templinst)_ZN3pcl8tracking21ParticleFilterTrackerINS_17PointXYZRGBNormalENS0_13ParticleXYRPYEE15normalizeWeightEv@Base 1.6
 (optional=templinst)_ZN3pcl8tracking21ParticleFilterTrackerINS_17PointXYZRGBNormalENS0_13ParticleXYRPYEE15setIterationNumEi@Base 1.6
 (optional=templinst)_ZN3pcl8tracking21ParticleFilterTrackerINS_17PointXYZRGBNormalENS0_13ParticleXYRPYEE17getReferenceCloudEv@Base 1.6
 (optional=templinst)_ZN3pcl8tracking21ParticleFilterTrackerINS_17PointXYZRGBNormalENS0_13ParticleXYRPYEE17setCloudCoherenceERKN5boost10shared_ptrINS0_19PointCloudCoherenceIS2_EEEE@Base 1.6
 (optional=templinst)_ZN3pcl8tracking21ParticleFilterTrackerINS_17PointXYZRGBNormalENS0_13ParticleXYRPYEE17setReferenceCloudERKN5boost10shared_ptrIKNS_10PointCloudIS2_EEEE@Base 1.6
 (optional=templinst)_ZN3pcl8tracking21ParticleFilterTrackerINS_17PointXYZRGBNormalENS0_13ParticleXYRPYEE19cropInputPointCloudERKN5boost10shared_ptrIKNS_10PointCloudIS2_EEEERS8_@Base 1.6
 (optional=templinst)_ZN3pcl8tracking21ParticleFilterTrackerINS_17PointXYZRGBNormalENS0_13ParticleXYRPYEE19setInitialNoiseMeanERKSt6vectorIdSaIdEE@Base 1.6
 (optional=templinst)_ZN3pcl8tracking21ParticleFilterTrackerINS_17PointXYZRGBNormalENS0_13ParticleXYRPYEE19testChangeDetectionERKN5boost10shared_ptrIKNS_10PointCloudIS2_EEEE@Base 1.6
 (optional=templinst)_ZN3pcl8tracking21ParticleFilterTrackerINS_17PointXYZRGBNormalENS0_13ParticleXYRPYEE20getUseChangeDetectorEv@Base 1.6
 (optional=templinst)_ZN3pcl8tracking21ParticleFilterTrackerINS_17PointXYZRGBNormalENS0_13ParticleXYRPYEE20setOcclusionAngleTheEd@Base 1.6
 (optional=templinst)_ZN3pcl8tracking21ParticleFilterTrackerINS_17PointXYZRGBNormalENS0_13ParticleXYRPYEE20setUseChangeDetectorEb@Base 1.6
 (optional=templinst)_ZN3pcl8tracking21ParticleFilterTrackerINS_17PointXYZRGBNormalENS0_13ParticleXYRPYEE21sampleWithReplacementERKSt6vectorIiSaIiEERKS5_IdSaIdEE@Base 1.6
 (optional=templinst)_ZN3pcl8tracking21ParticleFilterTrackerINS_17PointXYZRGBNormalENS0_13ParticleXYRPYEE22setStepNoiseCovarianceERKSt6vectorIdSaIdEE@Base 1.6
 (optional=templinst)_ZN3pcl8tracking21ParticleFilterTrackerINS_17PointXYZRGBNormalENS0_13ParticleXYRPYEE23normalizeParticleWeightEddd@Base 1.6
 (optional=templinst)_ZN3pcl8tracking21ParticleFilterTrackerINS_17PointXYZRGBNormalENS0_13ParticleXYRPYEE23resampleWithReplacementEv@Base 1.6
 (optional=templinst)_ZN3pcl8tracking21ParticleFilterTrackerINS_17PointXYZRGBNormalENS0_13ParticleXYRPYEE24setResampleLikelihoodThrEd@Base 1.6
 (optional=templinst)_ZN3pcl8tracking21ParticleFilterTrackerINS_17PointXYZRGBNormalENS0_13ParticleXYRPYEE25setInitialNoiseCovarianceERKSt6vectorIdSaIdEE@Base 1.6
 (optional=templinst)_ZN3pcl8tracking21ParticleFilterTrackerINS_17PointXYZRGBNormalENS0_13ParticleXYRPYEE28computeTransformedPointCloudERKS3_RSt6vectorIiSaIiEERNS_10PointCloudIS2_EE@Base 1.6
 (optional=templinst)_ZN3pcl8tracking21ParticleFilterTrackerINS_17PointXYZRGBNormalENS0_13ParticleXYRPYEE28getIntervalOfChangeDetectionEv@Base 1.6
 (optional=templinst)_ZN3pcl8tracking21ParticleFilterTrackerINS_17PointXYZRGBNormalENS0_13ParticleXYRPYEE28setIntervalOfChangeDetectionEj@Base 1.6
 (optional=templinst)_ZN3pcl8tracking21ParticleFilterTrackerINS_17PointXYZRGBNormalENS0_13ParticleXYRPYEE29getMinPointsOfChangeDetectionEv@Base 1.6
 (optional=templinst)_ZN3pcl8tracking21ParticleFilterTrackerINS_17PointXYZRGBNormalENS0_13ParticleXYRPYEE29setMinPointsOfChangeDetectionEj@Base 1.6
 (optional=templinst)_ZN3pcl8tracking21ParticleFilterTrackerINS_17PointXYZRGBNormalENS0_13ParticleXYRPYEE30getResolutionOfChangeDetectionEv@Base 1.6
 (optional=templinst)_ZN3pcl8tracking21ParticleFilterTrackerINS_17PointXYZRGBNormalENS0_13ParticleXYRPYEE30setResolutionOfChangeDetectionEd@Base 1.6
 (optional=templinst)_ZN3pcl8tracking21ParticleFilterTrackerINS_17PointXYZRGBNormalENS0_13ParticleXYRPYEE38computeTransformedPointCloudWithNormalERKS3_RSt6vectorIiSaIiEERNS_10PointCloudIS2_EE@Base 1.6
 (optional=templinst)_ZN3pcl8tracking21ParticleFilterTrackerINS_17PointXYZRGBNormalENS0_13ParticleXYRPYEE41computeTransformedPointCloudWithoutNormalERKS3_RNS_10PointCloudIS2_EE@Base 1.6
 (optional=templinst)_ZN3pcl8tracking21ParticleFilterTrackerINS_17PointXYZRGBNormalENS0_13ParticleXYRPYEE6updateEv@Base 1.6
 (optional=templinst)_ZN3pcl8tracking21ParticleFilterTrackerINS_17PointXYZRGBNormalENS0_13ParticleXYRPYEE6weightEv@Base 1.6
 (optional=templinst)_ZN3pcl8tracking21ParticleFilterTrackerINS_17PointXYZRGBNormalENS0_13ParticleXYRPYEE8getAlphaEv@Base 1.6
 (optional=templinst)_ZN3pcl8tracking21ParticleFilterTrackerINS_17PointXYZRGBNormalENS0_13ParticleXYRPYEE8resampleEv@Base 1.6
 (optional=templinst)_ZN3pcl8tracking21ParticleFilterTrackerINS_17PointXYZRGBNormalENS0_13ParticleXYRPYEE8setAlphaEd@Base 1.6
 (optional=templinst)_ZN3pcl8tracking21ParticleFilterTrackerINS_17PointXYZRGBNormalENS0_13ParticleXYRPYEE8setTransERKN5Eigen9TransformIfLi3ELi2ELi0EEE@Base 1.6
 (optional=templinst)_ZN3pcl8tracking21ParticleFilterTrackerINS_17PointXYZRGBNormalENS0_13ParticleXYRPYEEC1Ev@Base 1.6
 (optional=templinst)_ZN3pcl8tracking21ParticleFilterTrackerINS_17PointXYZRGBNormalENS0_13ParticleXYRPYEEC2Ev@Base 1.6
 (optional=templinst)_ZN3pcl8tracking21ParticleFilterTrackerINS_17PointXYZRGBNormalENS0_13ParticleXYRPYEED0Ev@Base 1.6
 (optional=templinst)_ZN3pcl8tracking21ParticleFilterTrackerINS_17PointXYZRGBNormalENS0_13ParticleXYRPYEED1Ev@Base 1.6
 (optional=templinst)_ZN3pcl8tracking21ParticleFilterTrackerINS_17PointXYZRGBNormalENS0_13ParticleXYRPYEED2Ev@Base 1.6
 (optional=templinst)_ZN3pcl8tracking21ParticleFilterTrackerINS_17PointXYZRGBNormalENS0_14ParticleXYZRPYEE11initComputeEv@Base 1.6
 (optional=templinst)_ZN3pcl8tracking21ParticleFilterTrackerINS_17PointXYZRGBNormalENS0_14ParticleXYZRPYEE12getUseNormalEv@Base 1.6
 (optional=templinst)_ZN3pcl8tracking21ParticleFilterTrackerINS_17PointXYZRGBNormalENS0_14ParticleXYZRPYEE12setUseNormalEb@Base 1.6
 (optional=templinst)_ZN3pcl8tracking21ParticleFilterTrackerINS_17PointXYZRGBNormalENS0_14ParticleXYZRPYEE13genAliasTableERSt6vectorIiSaIiEERS5_IdSaIdEERKN5boost10shared_ptrIKNS_10PointCloudIS3_EEEE@Base 1.6
 (optional=templinst)_ZN3pcl8tracking21ParticleFilterTrackerINS_17PointXYZRGBNormalENS0_14ParticleXYZRPYEE13initParticlesEb@Base 1.6
 (optional=templinst)_ZN3pcl8tracking21ParticleFilterTrackerINS_17PointXYZRGBNormalENS0_14ParticleXYZRPYEE13resetTrackingEv@Base 1.6
 (optional=templinst)_ZN3pcl8tracking21ParticleFilterTrackerINS_17PointXYZRGBNormalENS0_14ParticleXYZRPYEE13setMinIndicesEi@Base 1.6
 (optional=templinst)_ZN3pcl8tracking21ParticleFilterTrackerINS_17PointXYZRGBNormalENS0_14ParticleXYZRPYEE13toEigenMatrixERKS3_@Base 1.6
 (optional=templinst)_ZN3pcl8tracking21ParticleFilterTrackerINS_17PointXYZRGBNormalENS0_14ParticleXYZRPYEE14getMotionRatioEv@Base 1.6
 (optional=templinst)_ZN3pcl8tracking21ParticleFilterTrackerINS_17PointXYZRGBNormalENS0_14ParticleXYZRPYEE14setMotionRatioEd@Base 1.6
 (optional=templinst)_ZN3pcl8tracking21ParticleFilterTrackerINS_17PointXYZRGBNormalENS0_14ParticleXYZRPYEE14setParticleNumEi@Base 1.6
 (optional=templinst)_ZN3pcl8tracking21ParticleFilterTrackerINS_17PointXYZRGBNormalENS0_14ParticleXYZRPYEE15calcBoundingBoxERdS5_S5_S5_S5_S5_@Base 1.6
 (optional=templinst)_ZN3pcl8tracking21ParticleFilterTrackerINS_17PointXYZRGBNormalENS0_14ParticleXYZRPYEE15computeTrackingEv@Base 1.6
 (optional=templinst)_ZN3pcl8tracking21ParticleFilterTrackerINS_17PointXYZRGBNormalENS0_14ParticleXYZRPYEE15normalizeWeightEv@Base 1.6
 (optional=templinst)_ZN3pcl8tracking21ParticleFilterTrackerINS_17PointXYZRGBNormalENS0_14ParticleXYZRPYEE15setIterationNumEi@Base 1.6
 (optional=templinst)_ZN3pcl8tracking21ParticleFilterTrackerINS_17PointXYZRGBNormalENS0_14ParticleXYZRPYEE17getReferenceCloudEv@Base 1.6
 (optional=templinst)_ZN3pcl8tracking21ParticleFilterTrackerINS_17PointXYZRGBNormalENS0_14ParticleXYZRPYEE17setCloudCoherenceERKN5boost10shared_ptrINS0_19PointCloudCoherenceIS2_EEEE@Base 1.6
 (optional=templinst)_ZN3pcl8tracking21ParticleFilterTrackerINS_17PointXYZRGBNormalENS0_14ParticleXYZRPYEE17setReferenceCloudERKN5boost10shared_ptrIKNS_10PointCloudIS2_EEEE@Base 1.6
 (optional=templinst)_ZN3pcl8tracking21ParticleFilterTrackerINS_17PointXYZRGBNormalENS0_14ParticleXYZRPYEE19cropInputPointCloudERKN5boost10shared_ptrIKNS_10PointCloudIS2_EEEERS8_@Base 1.6
 (optional=templinst)_ZN3pcl8tracking21ParticleFilterTrackerINS_17PointXYZRGBNormalENS0_14ParticleXYZRPYEE19setInitialNoiseMeanERKSt6vectorIdSaIdEE@Base 1.6
 (optional=templinst)_ZN3pcl8tracking21ParticleFilterTrackerINS_17PointXYZRGBNormalENS0_14ParticleXYZRPYEE19testChangeDetectionERKN5boost10shared_ptrIKNS_10PointCloudIS2_EEEE@Base 1.6
 (optional=templinst)_ZN3pcl8tracking21ParticleFilterTrackerINS_17PointXYZRGBNormalENS0_14ParticleXYZRPYEE20getUseChangeDetectorEv@Base 1.6
 (optional=templinst)_ZN3pcl8tracking21ParticleFilterTrackerINS_17PointXYZRGBNormalENS0_14ParticleXYZRPYEE20setOcclusionAngleTheEd@Base 1.6
 (optional=templinst)_ZN3pcl8tracking21ParticleFilterTrackerINS_17PointXYZRGBNormalENS0_14ParticleXYZRPYEE20setUseChangeDetectorEb@Base 1.6
 (optional=templinst)_ZN3pcl8tracking21ParticleFilterTrackerINS_17PointXYZRGBNormalENS0_14ParticleXYZRPYEE21sampleWithReplacementERKSt6vectorIiSaIiEERKS5_IdSaIdEE@Base 1.6
 (optional=templinst)_ZN3pcl8tracking21ParticleFilterTrackerINS_17PointXYZRGBNormalENS0_14ParticleXYZRPYEE22setStepNoiseCovarianceERKSt6vectorIdSaIdEE@Base 1.6
 (optional=templinst)_ZN3pcl8tracking21ParticleFilterTrackerINS_17PointXYZRGBNormalENS0_14ParticleXYZRPYEE23normalizeParticleWeightEddd@Base 1.6
 (optional=templinst)_ZN3pcl8tracking21ParticleFilterTrackerINS_17PointXYZRGBNormalENS0_14ParticleXYZRPYEE23resampleWithReplacementEv@Base 1.6
 (optional=templinst)_ZN3pcl8tracking21ParticleFilterTrackerINS_17PointXYZRGBNormalENS0_14ParticleXYZRPYEE24setResampleLikelihoodThrEd@Base 1.6
 (optional=templinst)_ZN3pcl8tracking21ParticleFilterTrackerINS_17PointXYZRGBNormalENS0_14ParticleXYZRPYEE25setInitialNoiseCovarianceERKSt6vectorIdSaIdEE@Base 1.6
 (optional=templinst)_ZN3pcl8tracking21ParticleFilterTrackerINS_17PointXYZRGBNormalENS0_14ParticleXYZRPYEE28computeTransformedPointCloudERKS3_RSt6vectorIiSaIiEERNS_10PointCloudIS2_EE@Base 1.6
 (optional=templinst)_ZN3pcl8tracking21ParticleFilterTrackerINS_17PointXYZRGBNormalENS0_14ParticleXYZRPYEE28getIntervalOfChangeDetectionEv@Base 1.6
 (optional=templinst)_ZN3pcl8tracking21ParticleFilterTrackerINS_17PointXYZRGBNormalENS0_14ParticleXYZRPYEE28setIntervalOfChangeDetectionEj@Base 1.6
 (optional=templinst)_ZN3pcl8tracking21ParticleFilterTrackerINS_17PointXYZRGBNormalENS0_14ParticleXYZRPYEE29getMinPointsOfChangeDetectionEv@Base 1.6
 (optional=templinst)_ZN3pcl8tracking21ParticleFilterTrackerINS_17PointXYZRGBNormalENS0_14ParticleXYZRPYEE29setMinPointsOfChangeDetectionEj@Base 1.6
 (optional=templinst)_ZN3pcl8tracking21ParticleFilterTrackerINS_17PointXYZRGBNormalENS0_14ParticleXYZRPYEE30getResolutionOfChangeDetectionEv@Base 1.6
 (optional=templinst)_ZN3pcl8tracking21ParticleFilterTrackerINS_17PointXYZRGBNormalENS0_14ParticleXYZRPYEE30setResolutionOfChangeDetectionEd@Base 1.6
 (optional=templinst)_ZN3pcl8tracking21ParticleFilterTrackerINS_17PointXYZRGBNormalENS0_14ParticleXYZRPYEE38computeTransformedPointCloudWithNormalERKS3_RSt6vectorIiSaIiEERNS_10PointCloudIS2_EE@Base 1.6
 (optional=templinst)_ZN3pcl8tracking21ParticleFilterTrackerINS_17PointXYZRGBNormalENS0_14ParticleXYZRPYEE41computeTransformedPointCloudWithoutNormalERKS3_RNS_10PointCloudIS2_EE@Base 1.6
 (optional=templinst)_ZN3pcl8tracking21ParticleFilterTrackerINS_17PointXYZRGBNormalENS0_14ParticleXYZRPYEE6updateEv@Base 1.6
 (optional=templinst)_ZN3pcl8tracking21ParticleFilterTrackerINS_17PointXYZRGBNormalENS0_14ParticleXYZRPYEE6weightEv@Base 1.6
 (optional=templinst)_ZN3pcl8tracking21ParticleFilterTrackerINS_17PointXYZRGBNormalENS0_14ParticleXYZRPYEE8getAlphaEv@Base 1.6
 (optional=templinst)_ZN3pcl8tracking21ParticleFilterTrackerINS_17PointXYZRGBNormalENS0_14ParticleXYZRPYEE8resampleEv@Base 1.6
 (optional=templinst)_ZN3pcl8tracking21ParticleFilterTrackerINS_17PointXYZRGBNormalENS0_14ParticleXYZRPYEE8setAlphaEd@Base 1.6
 (optional=templinst)_ZN3pcl8tracking21ParticleFilterTrackerINS_17PointXYZRGBNormalENS0_14ParticleXYZRPYEE8setTransERKN5Eigen9TransformIfLi3ELi2ELi0EEE@Base 1.6
 (optional=templinst)_ZN3pcl8tracking21ParticleFilterTrackerINS_17PointXYZRGBNormalENS0_14ParticleXYZRPYEEC1Ev@Base 1.6
 (optional=templinst)_ZN3pcl8tracking21ParticleFilterTrackerINS_17PointXYZRGBNormalENS0_14ParticleXYZRPYEEC2Ev@Base 1.6
 (optional=templinst)_ZN3pcl8tracking21ParticleFilterTrackerINS_17PointXYZRGBNormalENS0_14ParticleXYZRPYEED0Ev@Base 1.6
 (optional=templinst)_ZN3pcl8tracking21ParticleFilterTrackerINS_17PointXYZRGBNormalENS0_14ParticleXYZRPYEED1Ev@Base 1.6
 (optional=templinst)_ZN3pcl8tracking21ParticleFilterTrackerINS_17PointXYZRGBNormalENS0_14ParticleXYZRPYEED2Ev@Base 1.6
 (optional=templinst)_ZN3pcl8tracking21ParticleFilterTrackerINS_18PointWithViewpointENS0_11ParticleXYREE11initComputeEv@Base 1.6
 (optional=templinst)_ZN3pcl8tracking21ParticleFilterTrackerINS_18PointWithViewpointENS0_11ParticleXYREE12getUseNormalEv@Base 1.6
 (optional=templinst)_ZN3pcl8tracking21ParticleFilterTrackerINS_18PointWithViewpointENS0_11ParticleXYREE12setUseNormalEb@Base 1.6
 (optional=templinst)_ZN3pcl8tracking21ParticleFilterTrackerINS_18PointWithViewpointENS0_11ParticleXYREE13genAliasTableERSt6vectorIiSaIiEERS5_IdSaIdEERKN5boost10shared_ptrIKNS_10PointCloudIS3_EEEE@Base 1.6
 (optional=templinst)_ZN3pcl8tracking21ParticleFilterTrackerINS_18PointWithViewpointENS0_11ParticleXYREE13initParticlesEb@Base 1.6
 (optional=templinst)_ZN3pcl8tracking21ParticleFilterTrackerINS_18PointWithViewpointENS0_11ParticleXYREE13resetTrackingEv@Base 1.6
 (optional=templinst)_ZN3pcl8tracking21ParticleFilterTrackerINS_18PointWithViewpointENS0_11ParticleXYREE13setMinIndicesEi@Base 1.6
 (optional=templinst)_ZN3pcl8tracking21ParticleFilterTrackerINS_18PointWithViewpointENS0_11ParticleXYREE13toEigenMatrixERKS3_@Base 1.6
 (optional=templinst)_ZN3pcl8tracking21ParticleFilterTrackerINS_18PointWithViewpointENS0_11ParticleXYREE14getMotionRatioEv@Base 1.6
 (optional=templinst)_ZN3pcl8tracking21ParticleFilterTrackerINS_18PointWithViewpointENS0_11ParticleXYREE14setMotionRatioEd@Base 1.6
 (optional=templinst)_ZN3pcl8tracking21ParticleFilterTrackerINS_18PointWithViewpointENS0_11ParticleXYREE14setParticleNumEi@Base 1.6
 (optional=templinst)_ZN3pcl8tracking21ParticleFilterTrackerINS_18PointWithViewpointENS0_11ParticleXYREE15calcBoundingBoxERdS5_S5_S5_S5_S5_@Base 1.6
 (optional=templinst)_ZN3pcl8tracking21ParticleFilterTrackerINS_18PointWithViewpointENS0_11ParticleXYREE15computeTrackingEv@Base 1.6
 (optional=templinst)_ZN3pcl8tracking21ParticleFilterTrackerINS_18PointWithViewpointENS0_11ParticleXYREE15normalizeWeightEv@Base 1.6
 (optional=templinst)_ZN3pcl8tracking21ParticleFilterTrackerINS_18PointWithViewpointENS0_11ParticleXYREE15setIterationNumEi@Base 1.6
 (optional=templinst)_ZN3pcl8tracking21ParticleFilterTrackerINS_18PointWithViewpointENS0_11ParticleXYREE17getReferenceCloudEv@Base 1.6
 (optional=templinst)_ZN3pcl8tracking21ParticleFilterTrackerINS_18PointWithViewpointENS0_11ParticleXYREE17setCloudCoherenceERKN5boost10shared_ptrINS0_19PointCloudCoherenceIS2_EEEE@Base 1.6
 (optional=templinst)_ZN3pcl8tracking21ParticleFilterTrackerINS_18PointWithViewpointENS0_11ParticleXYREE17setReferenceCloudERKN5boost10shared_ptrIKNS_10PointCloudIS2_EEEE@Base 1.6
 (optional=templinst)_ZN3pcl8tracking21ParticleFilterTrackerINS_18PointWithViewpointENS0_11ParticleXYREE19cropInputPointCloudERKN5boost10shared_ptrIKNS_10PointCloudIS2_EEEERS8_@Base 1.6
 (optional=templinst)_ZN3pcl8tracking21ParticleFilterTrackerINS_18PointWithViewpointENS0_11ParticleXYREE19setInitialNoiseMeanERKSt6vectorIdSaIdEE@Base 1.6
 (optional=templinst)_ZN3pcl8tracking21ParticleFilterTrackerINS_18PointWithViewpointENS0_11ParticleXYREE19testChangeDetectionERKN5boost10shared_ptrIKNS_10PointCloudIS2_EEEE@Base 1.6
 (optional=templinst)_ZN3pcl8tracking21ParticleFilterTrackerINS_18PointWithViewpointENS0_11ParticleXYREE20getUseChangeDetectorEv@Base 1.6
 (optional=templinst)_ZN3pcl8tracking21ParticleFilterTrackerINS_18PointWithViewpointENS0_11ParticleXYREE20setOcclusionAngleTheEd@Base 1.6
 (optional=templinst)_ZN3pcl8tracking21ParticleFilterTrackerINS_18PointWithViewpointENS0_11ParticleXYREE20setUseChangeDetectorEb@Base 1.6
 (optional=templinst)_ZN3pcl8tracking21ParticleFilterTrackerINS_18PointWithViewpointENS0_11ParticleXYREE21sampleWithReplacementERKSt6vectorIiSaIiEERKS5_IdSaIdEE@Base 1.6
 (optional=templinst)_ZN3pcl8tracking21ParticleFilterTrackerINS_18PointWithViewpointENS0_11ParticleXYREE22setStepNoiseCovarianceERKSt6vectorIdSaIdEE@Base 1.6
 (optional=templinst)_ZN3pcl8tracking21ParticleFilterTrackerINS_18PointWithViewpointENS0_11ParticleXYREE23normalizeParticleWeightEddd@Base 1.6
 (optional=templinst)_ZN3pcl8tracking21ParticleFilterTrackerINS_18PointWithViewpointENS0_11ParticleXYREE23resampleWithReplacementEv@Base 1.6
 (optional=templinst)_ZN3pcl8tracking21ParticleFilterTrackerINS_18PointWithViewpointENS0_11ParticleXYREE24setResampleLikelihoodThrEd@Base 1.6
 (optional=templinst)_ZN3pcl8tracking21ParticleFilterTrackerINS_18PointWithViewpointENS0_11ParticleXYREE25setInitialNoiseCovarianceERKSt6vectorIdSaIdEE@Base 1.6
 (optional=templinst)_ZN3pcl8tracking21ParticleFilterTrackerINS_18PointWithViewpointENS0_11ParticleXYREE28computeTransformedPointCloudERKS3_RSt6vectorIiSaIiEERNS_10PointCloudIS2_EE@Base 1.6
 (optional=templinst)_ZN3pcl8tracking21ParticleFilterTrackerINS_18PointWithViewpointENS0_11ParticleXYREE28getIntervalOfChangeDetectionEv@Base 1.6
 (optional=templinst)_ZN3pcl8tracking21ParticleFilterTrackerINS_18PointWithViewpointENS0_11ParticleXYREE28setIntervalOfChangeDetectionEj@Base 1.6
 (optional=templinst)_ZN3pcl8tracking21ParticleFilterTrackerINS_18PointWithViewpointENS0_11ParticleXYREE29getMinPointsOfChangeDetectionEv@Base 1.6
 (optional=templinst)_ZN3pcl8tracking21ParticleFilterTrackerINS_18PointWithViewpointENS0_11ParticleXYREE29setMinPointsOfChangeDetectionEj@Base 1.6
 (optional=templinst)_ZN3pcl8tracking21ParticleFilterTrackerINS_18PointWithViewpointENS0_11ParticleXYREE30getResolutionOfChangeDetectionEv@Base 1.6
 (optional=templinst)_ZN3pcl8tracking21ParticleFilterTrackerINS_18PointWithViewpointENS0_11ParticleXYREE30setResolutionOfChangeDetectionEd@Base 1.6
 (optional=templinst)_ZN3pcl8tracking21ParticleFilterTrackerINS_18PointWithViewpointENS0_11ParticleXYREE38computeTransformedPointCloudWithNormalERKS3_RSt6vectorIiSaIiEERNS_10PointCloudIS2_EE@Base 1.6
 (optional=templinst)_ZN3pcl8tracking21ParticleFilterTrackerINS_18PointWithViewpointENS0_11ParticleXYREE41computeTransformedPointCloudWithoutNormalERKS3_RNS_10PointCloudIS2_EE@Base 1.6
 (optional=templinst)_ZN3pcl8tracking21ParticleFilterTrackerINS_18PointWithViewpointENS0_11ParticleXYREE6updateEv@Base 1.6
 (optional=templinst)_ZN3pcl8tracking21ParticleFilterTrackerINS_18PointWithViewpointENS0_11ParticleXYREE6weightEv@Base 1.6
 (optional=templinst)_ZN3pcl8tracking21ParticleFilterTrackerINS_18PointWithViewpointENS0_11ParticleXYREE8getAlphaEv@Base 1.6
 (optional=templinst)_ZN3pcl8tracking21ParticleFilterTrackerINS_18PointWithViewpointENS0_11ParticleXYREE8resampleEv@Base 1.6
 (optional=templinst)_ZN3pcl8tracking21ParticleFilterTrackerINS_18PointWithViewpointENS0_11ParticleXYREE8setAlphaEd@Base 1.6
 (optional=templinst)_ZN3pcl8tracking21ParticleFilterTrackerINS_18PointWithViewpointENS0_11ParticleXYREE8setTransERKN5Eigen9TransformIfLi3ELi2ELi0EEE@Base 1.6
 (optional=templinst)_ZN3pcl8tracking21ParticleFilterTrackerINS_18PointWithViewpointENS0_11ParticleXYREEC1Ev@Base 1.6
 (optional=templinst)_ZN3pcl8tracking21ParticleFilterTrackerINS_18PointWithViewpointENS0_11ParticleXYREEC2Ev@Base 1.6
 (optional=templinst)_ZN3pcl8tracking21ParticleFilterTrackerINS_18PointWithViewpointENS0_11ParticleXYREED0Ev@Base 1.6
 (optional=templinst)_ZN3pcl8tracking21ParticleFilterTrackerINS_18PointWithViewpointENS0_11ParticleXYREED1Ev@Base 1.6
 (optional=templinst)_ZN3pcl8tracking21ParticleFilterTrackerINS_18PointWithViewpointENS0_11ParticleXYREED2Ev@Base 1.6
 (optional=templinst)_ZN3pcl8tracking21ParticleFilterTrackerINS_18PointWithViewpointENS0_12ParticleXYRPEE11initComputeEv@Base 1.6
 (optional=templinst)_ZN3pcl8tracking21ParticleFilterTrackerINS_18PointWithViewpointENS0_12ParticleXYRPEE12getUseNormalEv@Base 1.6
 (optional=templinst)_ZN3pcl8tracking21ParticleFilterTrackerINS_18PointWithViewpointENS0_12ParticleXYRPEE12setUseNormalEb@Base 1.6
 (optional=templinst)_ZN3pcl8tracking21ParticleFilterTrackerINS_18PointWithViewpointENS0_12ParticleXYRPEE13genAliasTableERSt6vectorIiSaIiEERS5_IdSaIdEERKN5boost10shared_ptrIKNS_10PointCloudIS3_EEEE@Base 1.6
 (optional=templinst)_ZN3pcl8tracking21ParticleFilterTrackerINS_18PointWithViewpointENS0_12ParticleXYRPEE13initParticlesEb@Base 1.6
 (optional=templinst)_ZN3pcl8tracking21ParticleFilterTrackerINS_18PointWithViewpointENS0_12ParticleXYRPEE13resetTrackingEv@Base 1.6
 (optional=templinst)_ZN3pcl8tracking21ParticleFilterTrackerINS_18PointWithViewpointENS0_12ParticleXYRPEE13setMinIndicesEi@Base 1.6
 (optional=templinst)_ZN3pcl8tracking21ParticleFilterTrackerINS_18PointWithViewpointENS0_12ParticleXYRPEE13toEigenMatrixERKS3_@Base 1.6
 (optional=templinst)_ZN3pcl8tracking21ParticleFilterTrackerINS_18PointWithViewpointENS0_12ParticleXYRPEE14getMotionRatioEv@Base 1.6
 (optional=templinst)_ZN3pcl8tracking21ParticleFilterTrackerINS_18PointWithViewpointENS0_12ParticleXYRPEE14setMotionRatioEd@Base 1.6
 (optional=templinst)_ZN3pcl8tracking21ParticleFilterTrackerINS_18PointWithViewpointENS0_12ParticleXYRPEE14setParticleNumEi@Base 1.6
 (optional=templinst)_ZN3pcl8tracking21ParticleFilterTrackerINS_18PointWithViewpointENS0_12ParticleXYRPEE15calcBoundingBoxERdS5_S5_S5_S5_S5_@Base 1.6
 (optional=templinst)_ZN3pcl8tracking21ParticleFilterTrackerINS_18PointWithViewpointENS0_12ParticleXYRPEE15computeTrackingEv@Base 1.6
 (optional=templinst)_ZN3pcl8tracking21ParticleFilterTrackerINS_18PointWithViewpointENS0_12ParticleXYRPEE15normalizeWeightEv@Base 1.6
 (optional=templinst)_ZN3pcl8tracking21ParticleFilterTrackerINS_18PointWithViewpointENS0_12ParticleXYRPEE15setIterationNumEi@Base 1.6
 (optional=templinst)_ZN3pcl8tracking21ParticleFilterTrackerINS_18PointWithViewpointENS0_12ParticleXYRPEE17getReferenceCloudEv@Base 1.6
 (optional=templinst)_ZN3pcl8tracking21ParticleFilterTrackerINS_18PointWithViewpointENS0_12ParticleXYRPEE17setCloudCoherenceERKN5boost10shared_ptrINS0_19PointCloudCoherenceIS2_EEEE@Base 1.6
 (optional=templinst)_ZN3pcl8tracking21ParticleFilterTrackerINS_18PointWithViewpointENS0_12ParticleXYRPEE17setReferenceCloudERKN5boost10shared_ptrIKNS_10PointCloudIS2_EEEE@Base 1.6
 (optional=templinst)_ZN3pcl8tracking21ParticleFilterTrackerINS_18PointWithViewpointENS0_12ParticleXYRPEE19cropInputPointCloudERKN5boost10shared_ptrIKNS_10PointCloudIS2_EEEERS8_@Base 1.6
 (optional=templinst)_ZN3pcl8tracking21ParticleFilterTrackerINS_18PointWithViewpointENS0_12ParticleXYRPEE19setInitialNoiseMeanERKSt6vectorIdSaIdEE@Base 1.6
 (optional=templinst)_ZN3pcl8tracking21ParticleFilterTrackerINS_18PointWithViewpointENS0_12ParticleXYRPEE19testChangeDetectionERKN5boost10shared_ptrIKNS_10PointCloudIS2_EEEE@Base 1.6
 (optional=templinst)_ZN3pcl8tracking21ParticleFilterTrackerINS_18PointWithViewpointENS0_12ParticleXYRPEE20getUseChangeDetectorEv@Base 1.6
 (optional=templinst)_ZN3pcl8tracking21ParticleFilterTrackerINS_18PointWithViewpointENS0_12ParticleXYRPEE20setOcclusionAngleTheEd@Base 1.6
 (optional=templinst)_ZN3pcl8tracking21ParticleFilterTrackerINS_18PointWithViewpointENS0_12ParticleXYRPEE20setUseChangeDetectorEb@Base 1.6
 (optional=templinst)_ZN3pcl8tracking21ParticleFilterTrackerINS_18PointWithViewpointENS0_12ParticleXYRPEE21sampleWithReplacementERKSt6vectorIiSaIiEERKS5_IdSaIdEE@Base 1.6
 (optional=templinst)_ZN3pcl8tracking21ParticleFilterTrackerINS_18PointWithViewpointENS0_12ParticleXYRPEE22setStepNoiseCovarianceERKSt6vectorIdSaIdEE@Base 1.6
 (optional=templinst)_ZN3pcl8tracking21ParticleFilterTrackerINS_18PointWithViewpointENS0_12ParticleXYRPEE23normalizeParticleWeightEddd@Base 1.6
 (optional=templinst)_ZN3pcl8tracking21ParticleFilterTrackerINS_18PointWithViewpointENS0_12ParticleXYRPEE23resampleWithReplacementEv@Base 1.6
 (optional=templinst)_ZN3pcl8tracking21ParticleFilterTrackerINS_18PointWithViewpointENS0_12ParticleXYRPEE24setResampleLikelihoodThrEd@Base 1.6
 (optional=templinst)_ZN3pcl8tracking21ParticleFilterTrackerINS_18PointWithViewpointENS0_12ParticleXYRPEE25setInitialNoiseCovarianceERKSt6vectorIdSaIdEE@Base 1.6
 (optional=templinst)_ZN3pcl8tracking21ParticleFilterTrackerINS_18PointWithViewpointENS0_12ParticleXYRPEE28computeTransformedPointCloudERKS3_RSt6vectorIiSaIiEERNS_10PointCloudIS2_EE@Base 1.6
 (optional=templinst)_ZN3pcl8tracking21ParticleFilterTrackerINS_18PointWithViewpointENS0_12ParticleXYRPEE28getIntervalOfChangeDetectionEv@Base 1.6
 (optional=templinst)_ZN3pcl8tracking21ParticleFilterTrackerINS_18PointWithViewpointENS0_12ParticleXYRPEE28setIntervalOfChangeDetectionEj@Base 1.6
 (optional=templinst)_ZN3pcl8tracking21ParticleFilterTrackerINS_18PointWithViewpointENS0_12ParticleXYRPEE29getMinPointsOfChangeDetectionEv@Base 1.6
 (optional=templinst)_ZN3pcl8tracking21ParticleFilterTrackerINS_18PointWithViewpointENS0_12ParticleXYRPEE29setMinPointsOfChangeDetectionEj@Base 1.6
 (optional=templinst)_ZN3pcl8tracking21ParticleFilterTrackerINS_18PointWithViewpointENS0_12ParticleXYRPEE30getResolutionOfChangeDetectionEv@Base 1.6
 (optional=templinst)_ZN3pcl8tracking21ParticleFilterTrackerINS_18PointWithViewpointENS0_12ParticleXYRPEE30setResolutionOfChangeDetectionEd@Base 1.6
 (optional=templinst)_ZN3pcl8tracking21ParticleFilterTrackerINS_18PointWithViewpointENS0_12ParticleXYRPEE38computeTransformedPointCloudWithNormalERKS3_RSt6vectorIiSaIiEERNS_10PointCloudIS2_EE@Base 1.6
 (optional=templinst)_ZN3pcl8tracking21ParticleFilterTrackerINS_18PointWithViewpointENS0_12ParticleXYRPEE41computeTransformedPointCloudWithoutNormalERKS3_RNS_10PointCloudIS2_EE@Base 1.6
 (optional=templinst)_ZN3pcl8tracking21ParticleFilterTrackerINS_18PointWithViewpointENS0_12ParticleXYRPEE6updateEv@Base 1.6
 (optional=templinst)_ZN3pcl8tracking21ParticleFilterTrackerINS_18PointWithViewpointENS0_12ParticleXYRPEE6weightEv@Base 1.6
 (optional=templinst)_ZN3pcl8tracking21ParticleFilterTrackerINS_18PointWithViewpointENS0_12ParticleXYRPEE8getAlphaEv@Base 1.6
 (optional=templinst)_ZN3pcl8tracking21ParticleFilterTrackerINS_18PointWithViewpointENS0_12ParticleXYRPEE8resampleEv@Base 1.6
 (optional=templinst)_ZN3pcl8tracking21ParticleFilterTrackerINS_18PointWithViewpointENS0_12ParticleXYRPEE8setAlphaEd@Base 1.6
 (optional=templinst)_ZN3pcl8tracking21ParticleFilterTrackerINS_18PointWithViewpointENS0_12ParticleXYRPEE8setTransERKN5Eigen9TransformIfLi3ELi2ELi0EEE@Base 1.6
 (optional=templinst)_ZN3pcl8tracking21ParticleFilterTrackerINS_18PointWithViewpointENS0_12ParticleXYRPEEC1Ev@Base 1.6
 (optional=templinst)_ZN3pcl8tracking21ParticleFilterTrackerINS_18PointWithViewpointENS0_12ParticleXYRPEEC2Ev@Base 1.6
 (optional=templinst)_ZN3pcl8tracking21ParticleFilterTrackerINS_18PointWithViewpointENS0_12ParticleXYRPEED0Ev@Base 1.6
 (optional=templinst)_ZN3pcl8tracking21ParticleFilterTrackerINS_18PointWithViewpointENS0_12ParticleXYRPEED1Ev@Base 1.6
 (optional=templinst)_ZN3pcl8tracking21ParticleFilterTrackerINS_18PointWithViewpointENS0_12ParticleXYRPEED2Ev@Base 1.6
 (optional=templinst)_ZN3pcl8tracking21ParticleFilterTrackerINS_18PointWithViewpointENS0_12ParticleXYZREE11initComputeEv@Base 1.6
 (optional=templinst)_ZN3pcl8tracking21ParticleFilterTrackerINS_18PointWithViewpointENS0_12ParticleXYZREE12getUseNormalEv@Base 1.6
 (optional=templinst)_ZN3pcl8tracking21ParticleFilterTrackerINS_18PointWithViewpointENS0_12ParticleXYZREE12setUseNormalEb@Base 1.6
 (optional=templinst)_ZN3pcl8tracking21ParticleFilterTrackerINS_18PointWithViewpointENS0_12ParticleXYZREE13genAliasTableERSt6vectorIiSaIiEERS5_IdSaIdEERKN5boost10shared_ptrIKNS_10PointCloudIS3_EEEE@Base 1.6
 (optional=templinst)_ZN3pcl8tracking21ParticleFilterTrackerINS_18PointWithViewpointENS0_12ParticleXYZREE13initParticlesEb@Base 1.6
 (optional=templinst)_ZN3pcl8tracking21ParticleFilterTrackerINS_18PointWithViewpointENS0_12ParticleXYZREE13resetTrackingEv@Base 1.6
 (optional=templinst)_ZN3pcl8tracking21ParticleFilterTrackerINS_18PointWithViewpointENS0_12ParticleXYZREE13setMinIndicesEi@Base 1.6
 (optional=templinst)_ZN3pcl8tracking21ParticleFilterTrackerINS_18PointWithViewpointENS0_12ParticleXYZREE13toEigenMatrixERKS3_@Base 1.6
 (optional=templinst)_ZN3pcl8tracking21ParticleFilterTrackerINS_18PointWithViewpointENS0_12ParticleXYZREE14getMotionRatioEv@Base 1.6
 (optional=templinst)_ZN3pcl8tracking21ParticleFilterTrackerINS_18PointWithViewpointENS0_12ParticleXYZREE14setMotionRatioEd@Base 1.6
 (optional=templinst)_ZN3pcl8tracking21ParticleFilterTrackerINS_18PointWithViewpointENS0_12ParticleXYZREE14setParticleNumEi@Base 1.6
 (optional=templinst)_ZN3pcl8tracking21ParticleFilterTrackerINS_18PointWithViewpointENS0_12ParticleXYZREE15calcBoundingBoxERdS5_S5_S5_S5_S5_@Base 1.6
 (optional=templinst)_ZN3pcl8tracking21ParticleFilterTrackerINS_18PointWithViewpointENS0_12ParticleXYZREE15computeTrackingEv@Base 1.6
 (optional=templinst)_ZN3pcl8tracking21ParticleFilterTrackerINS_18PointWithViewpointENS0_12ParticleXYZREE15normalizeWeightEv@Base 1.6
 (optional=templinst)_ZN3pcl8tracking21ParticleFilterTrackerINS_18PointWithViewpointENS0_12ParticleXYZREE15setIterationNumEi@Base 1.6
 (optional=templinst)_ZN3pcl8tracking21ParticleFilterTrackerINS_18PointWithViewpointENS0_12ParticleXYZREE17getReferenceCloudEv@Base 1.6
 (optional=templinst)_ZN3pcl8tracking21ParticleFilterTrackerINS_18PointWithViewpointENS0_12ParticleXYZREE17setCloudCoherenceERKN5boost10shared_ptrINS0_19PointCloudCoherenceIS2_EEEE@Base 1.6
 (optional=templinst)_ZN3pcl8tracking21ParticleFilterTrackerINS_18PointWithViewpointENS0_12ParticleXYZREE17setReferenceCloudERKN5boost10shared_ptrIKNS_10PointCloudIS2_EEEE@Base 1.6
 (optional=templinst)_ZN3pcl8tracking21ParticleFilterTrackerINS_18PointWithViewpointENS0_12ParticleXYZREE19cropInputPointCloudERKN5boost10shared_ptrIKNS_10PointCloudIS2_EEEERS8_@Base 1.6
 (optional=templinst)_ZN3pcl8tracking21ParticleFilterTrackerINS_18PointWithViewpointENS0_12ParticleXYZREE19setInitialNoiseMeanERKSt6vectorIdSaIdEE@Base 1.6
 (optional=templinst)_ZN3pcl8tracking21ParticleFilterTrackerINS_18PointWithViewpointENS0_12ParticleXYZREE19testChangeDetectionERKN5boost10shared_ptrIKNS_10PointCloudIS2_EEEE@Base 1.6
 (optional=templinst)_ZN3pcl8tracking21ParticleFilterTrackerINS_18PointWithViewpointENS0_12ParticleXYZREE20getUseChangeDetectorEv@Base 1.6
 (optional=templinst)_ZN3pcl8tracking21ParticleFilterTrackerINS_18PointWithViewpointENS0_12ParticleXYZREE20setOcclusionAngleTheEd@Base 1.6
 (optional=templinst)_ZN3pcl8tracking21ParticleFilterTrackerINS_18PointWithViewpointENS0_12ParticleXYZREE20setUseChangeDetectorEb@Base 1.6
 (optional=templinst)_ZN3pcl8tracking21ParticleFilterTrackerINS_18PointWithViewpointENS0_12ParticleXYZREE21sampleWithReplacementERKSt6vectorIiSaIiEERKS5_IdSaIdEE@Base 1.6
 (optional=templinst)_ZN3pcl8tracking21ParticleFilterTrackerINS_18PointWithViewpointENS0_12ParticleXYZREE22setStepNoiseCovarianceERKSt6vectorIdSaIdEE@Base 1.6
 (optional=templinst)_ZN3pcl8tracking21ParticleFilterTrackerINS_18PointWithViewpointENS0_12ParticleXYZREE23normalizeParticleWeightEddd@Base 1.6
 (optional=templinst)_ZN3pcl8tracking21ParticleFilterTrackerINS_18PointWithViewpointENS0_12ParticleXYZREE23resampleWithReplacementEv@Base 1.6
 (optional=templinst)_ZN3pcl8tracking21ParticleFilterTrackerINS_18PointWithViewpointENS0_12ParticleXYZREE24setResampleLikelihoodThrEd@Base 1.6
 (optional=templinst)_ZN3pcl8tracking21ParticleFilterTrackerINS_18PointWithViewpointENS0_12ParticleXYZREE25setInitialNoiseCovarianceERKSt6vectorIdSaIdEE@Base 1.6
 (optional=templinst)_ZN3pcl8tracking21ParticleFilterTrackerINS_18PointWithViewpointENS0_12ParticleXYZREE28computeTransformedPointCloudERKS3_RSt6vectorIiSaIiEERNS_10PointCloudIS2_EE@Base 1.6
 (optional=templinst)_ZN3pcl8tracking21ParticleFilterTrackerINS_18PointWithViewpointENS0_12ParticleXYZREE28getIntervalOfChangeDetectionEv@Base 1.6
 (optional=templinst)_ZN3pcl8tracking21ParticleFilterTrackerINS_18PointWithViewpointENS0_12ParticleXYZREE28setIntervalOfChangeDetectionEj@Base 1.6
 (optional=templinst)_ZN3pcl8tracking21ParticleFilterTrackerINS_18PointWithViewpointENS0_12ParticleXYZREE29getMinPointsOfChangeDetectionEv@Base 1.6
 (optional=templinst)_ZN3pcl8tracking21ParticleFilterTrackerINS_18PointWithViewpointENS0_12ParticleXYZREE29setMinPointsOfChangeDetectionEj@Base 1.6
 (optional=templinst)_ZN3pcl8tracking21ParticleFilterTrackerINS_18PointWithViewpointENS0_12ParticleXYZREE30getResolutionOfChangeDetectionEv@Base 1.6
 (optional=templinst)_ZN3pcl8tracking21ParticleFilterTrackerINS_18PointWithViewpointENS0_12ParticleXYZREE30setResolutionOfChangeDetectionEd@Base 1.6
 (optional=templinst)_ZN3pcl8tracking21ParticleFilterTrackerINS_18PointWithViewpointENS0_12ParticleXYZREE38computeTransformedPointCloudWithNormalERKS3_RSt6vectorIiSaIiEERNS_10PointCloudIS2_EE@Base 1.6
 (optional=templinst)_ZN3pcl8tracking21ParticleFilterTrackerINS_18PointWithViewpointENS0_12ParticleXYZREE41computeTransformedPointCloudWithoutNormalERKS3_RNS_10PointCloudIS2_EE@Base 1.6
 (optional=templinst)_ZN3pcl8tracking21ParticleFilterTrackerINS_18PointWithViewpointENS0_12ParticleXYZREE6updateEv@Base 1.6
 (optional=templinst)_ZN3pcl8tracking21ParticleFilterTrackerINS_18PointWithViewpointENS0_12ParticleXYZREE6weightEv@Base 1.6
 (optional=templinst)_ZN3pcl8tracking21ParticleFilterTrackerINS_18PointWithViewpointENS0_12ParticleXYZREE8getAlphaEv@Base 1.6
 (optional=templinst)_ZN3pcl8tracking21ParticleFilterTrackerINS_18PointWithViewpointENS0_12ParticleXYZREE8resampleEv@Base 1.6
 (optional=templinst)_ZN3pcl8tracking21ParticleFilterTrackerINS_18PointWithViewpointENS0_12ParticleXYZREE8setAlphaEd@Base 1.6
 (optional=templinst)_ZN3pcl8tracking21ParticleFilterTrackerINS_18PointWithViewpointENS0_12ParticleXYZREE8setTransERKN5Eigen9TransformIfLi3ELi2ELi0EEE@Base 1.6
 (optional=templinst)_ZN3pcl8tracking21ParticleFilterTrackerINS_18PointWithViewpointENS0_12ParticleXYZREEC1Ev@Base 1.6
 (optional=templinst)_ZN3pcl8tracking21ParticleFilterTrackerINS_18PointWithViewpointENS0_12ParticleXYZREEC2Ev@Base 1.6
 (optional=templinst)_ZN3pcl8tracking21ParticleFilterTrackerINS_18PointWithViewpointENS0_12ParticleXYZREED0Ev@Base 1.6
 (optional=templinst)_ZN3pcl8tracking21ParticleFilterTrackerINS_18PointWithViewpointENS0_12ParticleXYZREED1Ev@Base 1.6
 (optional=templinst)_ZN3pcl8tracking21ParticleFilterTrackerINS_18PointWithViewpointENS0_12ParticleXYZREED2Ev@Base 1.6
 (optional=templinst)_ZN3pcl8tracking21ParticleFilterTrackerINS_18PointWithViewpointENS0_13ParticleXYRPYEE11initComputeEv@Base 1.6
 (optional=templinst)_ZN3pcl8tracking21ParticleFilterTrackerINS_18PointWithViewpointENS0_13ParticleXYRPYEE12getUseNormalEv@Base 1.6
 (optional=templinst)_ZN3pcl8tracking21ParticleFilterTrackerINS_18PointWithViewpointENS0_13ParticleXYRPYEE12setUseNormalEb@Base 1.6
 (optional=templinst)_ZN3pcl8tracking21ParticleFilterTrackerINS_18PointWithViewpointENS0_13ParticleXYRPYEE13genAliasTableERSt6vectorIiSaIiEERS5_IdSaIdEERKN5boost10shared_ptrIKNS_10PointCloudIS3_EEEE@Base 1.6
 (optional=templinst)_ZN3pcl8tracking21ParticleFilterTrackerINS_18PointWithViewpointENS0_13ParticleXYRPYEE13initParticlesEb@Base 1.6
 (optional=templinst)_ZN3pcl8tracking21ParticleFilterTrackerINS_18PointWithViewpointENS0_13ParticleXYRPYEE13resetTrackingEv@Base 1.6
 (optional=templinst)_ZN3pcl8tracking21ParticleFilterTrackerINS_18PointWithViewpointENS0_13ParticleXYRPYEE13setMinIndicesEi@Base 1.6
 (optional=templinst)_ZN3pcl8tracking21ParticleFilterTrackerINS_18PointWithViewpointENS0_13ParticleXYRPYEE13toEigenMatrixERKS3_@Base 1.6
 (optional=templinst)_ZN3pcl8tracking21ParticleFilterTrackerINS_18PointWithViewpointENS0_13ParticleXYRPYEE14getMotionRatioEv@Base 1.6
 (optional=templinst)_ZN3pcl8tracking21ParticleFilterTrackerINS_18PointWithViewpointENS0_13ParticleXYRPYEE14setMotionRatioEd@Base 1.6
 (optional=templinst)_ZN3pcl8tracking21ParticleFilterTrackerINS_18PointWithViewpointENS0_13ParticleXYRPYEE14setParticleNumEi@Base 1.6
 (optional=templinst)_ZN3pcl8tracking21ParticleFilterTrackerINS_18PointWithViewpointENS0_13ParticleXYRPYEE15calcBoundingBoxERdS5_S5_S5_S5_S5_@Base 1.6
 (optional=templinst)_ZN3pcl8tracking21ParticleFilterTrackerINS_18PointWithViewpointENS0_13ParticleXYRPYEE15computeTrackingEv@Base 1.6
 (optional=templinst)_ZN3pcl8tracking21ParticleFilterTrackerINS_18PointWithViewpointENS0_13ParticleXYRPYEE15normalizeWeightEv@Base 1.6
 (optional=templinst)_ZN3pcl8tracking21ParticleFilterTrackerINS_18PointWithViewpointENS0_13ParticleXYRPYEE15setIterationNumEi@Base 1.6
 (optional=templinst)_ZN3pcl8tracking21ParticleFilterTrackerINS_18PointWithViewpointENS0_13ParticleXYRPYEE17getReferenceCloudEv@Base 1.6
 (optional=templinst)_ZN3pcl8tracking21ParticleFilterTrackerINS_18PointWithViewpointENS0_13ParticleXYRPYEE17setCloudCoherenceERKN5boost10shared_ptrINS0_19PointCloudCoherenceIS2_EEEE@Base 1.6
 (optional=templinst)_ZN3pcl8tracking21ParticleFilterTrackerINS_18PointWithViewpointENS0_13ParticleXYRPYEE17setReferenceCloudERKN5boost10shared_ptrIKNS_10PointCloudIS2_EEEE@Base 1.6
 (optional=templinst)_ZN3pcl8tracking21ParticleFilterTrackerINS_18PointWithViewpointENS0_13ParticleXYRPYEE19cropInputPointCloudERKN5boost10shared_ptrIKNS_10PointCloudIS2_EEEERS8_@Base 1.6
 (optional=templinst)_ZN3pcl8tracking21ParticleFilterTrackerINS_18PointWithViewpointENS0_13ParticleXYRPYEE19setInitialNoiseMeanERKSt6vectorIdSaIdEE@Base 1.6
 (optional=templinst)_ZN3pcl8tracking21ParticleFilterTrackerINS_18PointWithViewpointENS0_13ParticleXYRPYEE19testChangeDetectionERKN5boost10shared_ptrIKNS_10PointCloudIS2_EEEE@Base 1.6
 (optional=templinst)_ZN3pcl8tracking21ParticleFilterTrackerINS_18PointWithViewpointENS0_13ParticleXYRPYEE20getUseChangeDetectorEv@Base 1.6
 (optional=templinst)_ZN3pcl8tracking21ParticleFilterTrackerINS_18PointWithViewpointENS0_13ParticleXYRPYEE20setOcclusionAngleTheEd@Base 1.6
 (optional=templinst)_ZN3pcl8tracking21ParticleFilterTrackerINS_18PointWithViewpointENS0_13ParticleXYRPYEE20setUseChangeDetectorEb@Base 1.6
 (optional=templinst)_ZN3pcl8tracking21ParticleFilterTrackerINS_18PointWithViewpointENS0_13ParticleXYRPYEE21sampleWithReplacementERKSt6vectorIiSaIiEERKS5_IdSaIdEE@Base 1.6
 (optional=templinst)_ZN3pcl8tracking21ParticleFilterTrackerINS_18PointWithViewpointENS0_13ParticleXYRPYEE22setStepNoiseCovarianceERKSt6vectorIdSaIdEE@Base 1.6
 (optional=templinst)_ZN3pcl8tracking21ParticleFilterTrackerINS_18PointWithViewpointENS0_13ParticleXYRPYEE23normalizeParticleWeightEddd@Base 1.6
 (optional=templinst)_ZN3pcl8tracking21ParticleFilterTrackerINS_18PointWithViewpointENS0_13ParticleXYRPYEE23resampleWithReplacementEv@Base 1.6
 (optional=templinst)_ZN3pcl8tracking21ParticleFilterTrackerINS_18PointWithViewpointENS0_13ParticleXYRPYEE24setResampleLikelihoodThrEd@Base 1.6
 (optional=templinst)_ZN3pcl8tracking21ParticleFilterTrackerINS_18PointWithViewpointENS0_13ParticleXYRPYEE25setInitialNoiseCovarianceERKSt6vectorIdSaIdEE@Base 1.6
 (optional=templinst)_ZN3pcl8tracking21ParticleFilterTrackerINS_18PointWithViewpointENS0_13ParticleXYRPYEE28computeTransformedPointCloudERKS3_RSt6vectorIiSaIiEERNS_10PointCloudIS2_EE@Base 1.6
 (optional=templinst)_ZN3pcl8tracking21ParticleFilterTrackerINS_18PointWithViewpointENS0_13ParticleXYRPYEE28getIntervalOfChangeDetectionEv@Base 1.6
 (optional=templinst)_ZN3pcl8tracking21ParticleFilterTrackerINS_18PointWithViewpointENS0_13ParticleXYRPYEE28setIntervalOfChangeDetectionEj@Base 1.6
 (optional=templinst)_ZN3pcl8tracking21ParticleFilterTrackerINS_18PointWithViewpointENS0_13ParticleXYRPYEE29getMinPointsOfChangeDetectionEv@Base 1.6
 (optional=templinst)_ZN3pcl8tracking21ParticleFilterTrackerINS_18PointWithViewpointENS0_13ParticleXYRPYEE29setMinPointsOfChangeDetectionEj@Base 1.6
 (optional=templinst)_ZN3pcl8tracking21ParticleFilterTrackerINS_18PointWithViewpointENS0_13ParticleXYRPYEE30getResolutionOfChangeDetectionEv@Base 1.6
 (optional=templinst)_ZN3pcl8tracking21ParticleFilterTrackerINS_18PointWithViewpointENS0_13ParticleXYRPYEE30setResolutionOfChangeDetectionEd@Base 1.6
 (optional=templinst)_ZN3pcl8tracking21ParticleFilterTrackerINS_18PointWithViewpointENS0_13ParticleXYRPYEE38computeTransformedPointCloudWithNormalERKS3_RSt6vectorIiSaIiEERNS_10PointCloudIS2_EE@Base 1.6
 (optional=templinst)_ZN3pcl8tracking21ParticleFilterTrackerINS_18PointWithViewpointENS0_13ParticleXYRPYEE41computeTransformedPointCloudWithoutNormalERKS3_RNS_10PointCloudIS2_EE@Base 1.6
 (optional=templinst)_ZN3pcl8tracking21ParticleFilterTrackerINS_18PointWithViewpointENS0_13ParticleXYRPYEE6updateEv@Base 1.6
 (optional=templinst)_ZN3pcl8tracking21ParticleFilterTrackerINS_18PointWithViewpointENS0_13ParticleXYRPYEE6weightEv@Base 1.6
 (optional=templinst)_ZN3pcl8tracking21ParticleFilterTrackerINS_18PointWithViewpointENS0_13ParticleXYRPYEE8getAlphaEv@Base 1.6
 (optional=templinst)_ZN3pcl8tracking21ParticleFilterTrackerINS_18PointWithViewpointENS0_13ParticleXYRPYEE8resampleEv@Base 1.6
 (optional=templinst)_ZN3pcl8tracking21ParticleFilterTrackerINS_18PointWithViewpointENS0_13ParticleXYRPYEE8setAlphaEd@Base 1.6
 (optional=templinst)_ZN3pcl8tracking21ParticleFilterTrackerINS_18PointWithViewpointENS0_13ParticleXYRPYEE8setTransERKN5Eigen9TransformIfLi3ELi2ELi0EEE@Base 1.6
 (optional=templinst)_ZN3pcl8tracking21ParticleFilterTrackerINS_18PointWithViewpointENS0_13ParticleXYRPYEEC1Ev@Base 1.6
 (optional=templinst)_ZN3pcl8tracking21ParticleFilterTrackerINS_18PointWithViewpointENS0_13ParticleXYRPYEEC2Ev@Base 1.6
 (optional=templinst)_ZN3pcl8tracking21ParticleFilterTrackerINS_18PointWithViewpointENS0_13ParticleXYRPYEED0Ev@Base 1.6
 (optional=templinst)_ZN3pcl8tracking21ParticleFilterTrackerINS_18PointWithViewpointENS0_13ParticleXYRPYEED1Ev@Base 1.6
 (optional=templinst)_ZN3pcl8tracking21ParticleFilterTrackerINS_18PointWithViewpointENS0_13ParticleXYRPYEED2Ev@Base 1.6
 (optional=templinst)_ZN3pcl8tracking21ParticleFilterTrackerINS_18PointWithViewpointENS0_14ParticleXYZRPYEE11initComputeEv@Base 1.6
 (optional=templinst)_ZN3pcl8tracking21ParticleFilterTrackerINS_18PointWithViewpointENS0_14ParticleXYZRPYEE12getUseNormalEv@Base 1.6
 (optional=templinst)_ZN3pcl8tracking21ParticleFilterTrackerINS_18PointWithViewpointENS0_14ParticleXYZRPYEE12setUseNormalEb@Base 1.6
 (optional=templinst)_ZN3pcl8tracking21ParticleFilterTrackerINS_18PointWithViewpointENS0_14ParticleXYZRPYEE13genAliasTableERSt6vectorIiSaIiEERS5_IdSaIdEERKN5boost10shared_ptrIKNS_10PointCloudIS3_EEEE@Base 1.6
 (optional=templinst)_ZN3pcl8tracking21ParticleFilterTrackerINS_18PointWithViewpointENS0_14ParticleXYZRPYEE13initParticlesEb@Base 1.6
 (optional=templinst)_ZN3pcl8tracking21ParticleFilterTrackerINS_18PointWithViewpointENS0_14ParticleXYZRPYEE13resetTrackingEv@Base 1.6
 (optional=templinst)_ZN3pcl8tracking21ParticleFilterTrackerINS_18PointWithViewpointENS0_14ParticleXYZRPYEE13setMinIndicesEi@Base 1.6
 (optional=templinst)_ZN3pcl8tracking21ParticleFilterTrackerINS_18PointWithViewpointENS0_14ParticleXYZRPYEE13toEigenMatrixERKS3_@Base 1.6
 (optional=templinst)_ZN3pcl8tracking21ParticleFilterTrackerINS_18PointWithViewpointENS0_14ParticleXYZRPYEE14getMotionRatioEv@Base 1.6
 (optional=templinst)_ZN3pcl8tracking21ParticleFilterTrackerINS_18PointWithViewpointENS0_14ParticleXYZRPYEE14setMotionRatioEd@Base 1.6
 (optional=templinst)_ZN3pcl8tracking21ParticleFilterTrackerINS_18PointWithViewpointENS0_14ParticleXYZRPYEE14setParticleNumEi@Base 1.6
 (optional=templinst)_ZN3pcl8tracking21ParticleFilterTrackerINS_18PointWithViewpointENS0_14ParticleXYZRPYEE15calcBoundingBoxERdS5_S5_S5_S5_S5_@Base 1.6
 (optional=templinst)_ZN3pcl8tracking21ParticleFilterTrackerINS_18PointWithViewpointENS0_14ParticleXYZRPYEE15computeTrackingEv@Base 1.6
 (optional=templinst)_ZN3pcl8tracking21ParticleFilterTrackerINS_18PointWithViewpointENS0_14ParticleXYZRPYEE15normalizeWeightEv@Base 1.6
 (optional=templinst)_ZN3pcl8tracking21ParticleFilterTrackerINS_18PointWithViewpointENS0_14ParticleXYZRPYEE15setIterationNumEi@Base 1.6
 (optional=templinst)_ZN3pcl8tracking21ParticleFilterTrackerINS_18PointWithViewpointENS0_14ParticleXYZRPYEE17getReferenceCloudEv@Base 1.6
 (optional=templinst)_ZN3pcl8tracking21ParticleFilterTrackerINS_18PointWithViewpointENS0_14ParticleXYZRPYEE17setCloudCoherenceERKN5boost10shared_ptrINS0_19PointCloudCoherenceIS2_EEEE@Base 1.6
 (optional=templinst)_ZN3pcl8tracking21ParticleFilterTrackerINS_18PointWithViewpointENS0_14ParticleXYZRPYEE17setReferenceCloudERKN5boost10shared_ptrIKNS_10PointCloudIS2_EEEE@Base 1.6
 (optional=templinst)_ZN3pcl8tracking21ParticleFilterTrackerINS_18PointWithViewpointENS0_14ParticleXYZRPYEE19cropInputPointCloudERKN5boost10shared_ptrIKNS_10PointCloudIS2_EEEERS8_@Base 1.6
 (optional=templinst)_ZN3pcl8tracking21ParticleFilterTrackerINS_18PointWithViewpointENS0_14ParticleXYZRPYEE19setInitialNoiseMeanERKSt6vectorIdSaIdEE@Base 1.6
 (optional=templinst)_ZN3pcl8tracking21ParticleFilterTrackerINS_18PointWithViewpointENS0_14ParticleXYZRPYEE19testChangeDetectionERKN5boost10shared_ptrIKNS_10PointCloudIS2_EEEE@Base 1.6
 (optional=templinst)_ZN3pcl8tracking21ParticleFilterTrackerINS_18PointWithViewpointENS0_14ParticleXYZRPYEE20getUseChangeDetectorEv@Base 1.6
 (optional=templinst)_ZN3pcl8tracking21ParticleFilterTrackerINS_18PointWithViewpointENS0_14ParticleXYZRPYEE20setOcclusionAngleTheEd@Base 1.6
 (optional=templinst)_ZN3pcl8tracking21ParticleFilterTrackerINS_18PointWithViewpointENS0_14ParticleXYZRPYEE20setUseChangeDetectorEb@Base 1.6
 (optional=templinst)_ZN3pcl8tracking21ParticleFilterTrackerINS_18PointWithViewpointENS0_14ParticleXYZRPYEE21sampleWithReplacementERKSt6vectorIiSaIiEERKS5_IdSaIdEE@Base 1.6
 (optional=templinst)_ZN3pcl8tracking21ParticleFilterTrackerINS_18PointWithViewpointENS0_14ParticleXYZRPYEE22setStepNoiseCovarianceERKSt6vectorIdSaIdEE@Base 1.6
 (optional=templinst)_ZN3pcl8tracking21ParticleFilterTrackerINS_18PointWithViewpointENS0_14ParticleXYZRPYEE23normalizeParticleWeightEddd@Base 1.6
 (optional=templinst)_ZN3pcl8tracking21ParticleFilterTrackerINS_18PointWithViewpointENS0_14ParticleXYZRPYEE23resampleWithReplacementEv@Base 1.6
 (optional=templinst)_ZN3pcl8tracking21ParticleFilterTrackerINS_18PointWithViewpointENS0_14ParticleXYZRPYEE24setResampleLikelihoodThrEd@Base 1.6
 (optional=templinst)_ZN3pcl8tracking21ParticleFilterTrackerINS_18PointWithViewpointENS0_14ParticleXYZRPYEE25setInitialNoiseCovarianceERKSt6vectorIdSaIdEE@Base 1.6
 (optional=templinst)_ZN3pcl8tracking21ParticleFilterTrackerINS_18PointWithViewpointENS0_14ParticleXYZRPYEE28computeTransformedPointCloudERKS3_RSt6vectorIiSaIiEERNS_10PointCloudIS2_EE@Base 1.6
 (optional=templinst)_ZN3pcl8tracking21ParticleFilterTrackerINS_18PointWithViewpointENS0_14ParticleXYZRPYEE28getIntervalOfChangeDetectionEv@Base 1.6
 (optional=templinst)_ZN3pcl8tracking21ParticleFilterTrackerINS_18PointWithViewpointENS0_14ParticleXYZRPYEE28setIntervalOfChangeDetectionEj@Base 1.6
 (optional=templinst)_ZN3pcl8tracking21ParticleFilterTrackerINS_18PointWithViewpointENS0_14ParticleXYZRPYEE29getMinPointsOfChangeDetectionEv@Base 1.6
 (optional=templinst)_ZN3pcl8tracking21ParticleFilterTrackerINS_18PointWithViewpointENS0_14ParticleXYZRPYEE29setMinPointsOfChangeDetectionEj@Base 1.6
 (optional=templinst)_ZN3pcl8tracking21ParticleFilterTrackerINS_18PointWithViewpointENS0_14ParticleXYZRPYEE30getResolutionOfChangeDetectionEv@Base 1.6
 (optional=templinst)_ZN3pcl8tracking21ParticleFilterTrackerINS_18PointWithViewpointENS0_14ParticleXYZRPYEE30setResolutionOfChangeDetectionEd@Base 1.6
 (optional=templinst)_ZN3pcl8tracking21ParticleFilterTrackerINS_18PointWithViewpointENS0_14ParticleXYZRPYEE38computeTransformedPointCloudWithNormalERKS3_RSt6vectorIiSaIiEERNS_10PointCloudIS2_EE@Base 1.6
 (optional=templinst)_ZN3pcl8tracking21ParticleFilterTrackerINS_18PointWithViewpointENS0_14ParticleXYZRPYEE41computeTransformedPointCloudWithoutNormalERKS3_RNS_10PointCloudIS2_EE@Base 1.6
 (optional=templinst)_ZN3pcl8tracking21ParticleFilterTrackerINS_18PointWithViewpointENS0_14ParticleXYZRPYEE6updateEv@Base 1.6
 (optional=templinst)_ZN3pcl8tracking21ParticleFilterTrackerINS_18PointWithViewpointENS0_14ParticleXYZRPYEE6weightEv@Base 1.6
 (optional=templinst)_ZN3pcl8tracking21ParticleFilterTrackerINS_18PointWithViewpointENS0_14ParticleXYZRPYEE8getAlphaEv@Base 1.6
 (optional=templinst)_ZN3pcl8tracking21ParticleFilterTrackerINS_18PointWithViewpointENS0_14ParticleXYZRPYEE8resampleEv@Base 1.6
 (optional=templinst)_ZN3pcl8tracking21ParticleFilterTrackerINS_18PointWithViewpointENS0_14ParticleXYZRPYEE8setAlphaEd@Base 1.6
 (optional=templinst)_ZN3pcl8tracking21ParticleFilterTrackerINS_18PointWithViewpointENS0_14ParticleXYZRPYEE8setTransERKN5Eigen9TransformIfLi3ELi2ELi0EEE@Base 1.6
 (optional=templinst)_ZN3pcl8tracking21ParticleFilterTrackerINS_18PointWithViewpointENS0_14ParticleXYZRPYEEC1Ev@Base 1.6
 (optional=templinst)_ZN3pcl8tracking21ParticleFilterTrackerINS_18PointWithViewpointENS0_14ParticleXYZRPYEEC2Ev@Base 1.6
 (optional=templinst)_ZN3pcl8tracking21ParticleFilterTrackerINS_18PointWithViewpointENS0_14ParticleXYZRPYEED0Ev@Base 1.6
 (optional=templinst)_ZN3pcl8tracking21ParticleFilterTrackerINS_18PointWithViewpointENS0_14ParticleXYZRPYEED1Ev@Base 1.6
 (optional=templinst)_ZN3pcl8tracking21ParticleFilterTrackerINS_18PointWithViewpointENS0_14ParticleXYZRPYEED2Ev@Base 1.6
 (optional=templinst)_ZN3pcl8tracking21ParticleFilterTrackerINS_8PointXYZENS0_11ParticleXYREE11initComputeEv@Base 1.6
 (optional=templinst)_ZN3pcl8tracking21ParticleFilterTrackerINS_8PointXYZENS0_11ParticleXYREE12getUseNormalEv@Base 1.6
 (optional=templinst)_ZN3pcl8tracking21ParticleFilterTrackerINS_8PointXYZENS0_11ParticleXYREE12setUseNormalEb@Base 1.6
 (optional=templinst)_ZN3pcl8tracking21ParticleFilterTrackerINS_8PointXYZENS0_11ParticleXYREE13genAliasTableERSt6vectorIiSaIiEERS5_IdSaIdEERKN5boost10shared_ptrIKNS_10PointCloudIS3_EEEE@Base 1.6
 (optional=templinst)_ZN3pcl8tracking21ParticleFilterTrackerINS_8PointXYZENS0_11ParticleXYREE13initParticlesEb@Base 1.6
 (optional=templinst)_ZN3pcl8tracking21ParticleFilterTrackerINS_8PointXYZENS0_11ParticleXYREE13resetTrackingEv@Base 1.6
 (optional=templinst)_ZN3pcl8tracking21ParticleFilterTrackerINS_8PointXYZENS0_11ParticleXYREE13setMinIndicesEi@Base 1.6
 (optional=templinst)_ZN3pcl8tracking21ParticleFilterTrackerINS_8PointXYZENS0_11ParticleXYREE13toEigenMatrixERKS3_@Base 1.6
 (optional=templinst)_ZN3pcl8tracking21ParticleFilterTrackerINS_8PointXYZENS0_11ParticleXYREE14getMotionRatioEv@Base 1.6
 (optional=templinst)_ZN3pcl8tracking21ParticleFilterTrackerINS_8PointXYZENS0_11ParticleXYREE14setMotionRatioEd@Base 1.6
 (optional=templinst)_ZN3pcl8tracking21ParticleFilterTrackerINS_8PointXYZENS0_11ParticleXYREE14setParticleNumEi@Base 1.6
 (optional=templinst)_ZN3pcl8tracking21ParticleFilterTrackerINS_8PointXYZENS0_11ParticleXYREE15calcBoundingBoxERdS5_S5_S5_S5_S5_@Base 1.6
 (optional=templinst)_ZN3pcl8tracking21ParticleFilterTrackerINS_8PointXYZENS0_11ParticleXYREE15computeTrackingEv@Base 1.6
 (optional=templinst)_ZN3pcl8tracking21ParticleFilterTrackerINS_8PointXYZENS0_11ParticleXYREE15normalizeWeightEv@Base 1.6
 (optional=templinst)_ZN3pcl8tracking21ParticleFilterTrackerINS_8PointXYZENS0_11ParticleXYREE15setIterationNumEi@Base 1.6
 (optional=templinst)_ZN3pcl8tracking21ParticleFilterTrackerINS_8PointXYZENS0_11ParticleXYREE17getReferenceCloudEv@Base 1.6
 (optional=templinst)_ZN3pcl8tracking21ParticleFilterTrackerINS_8PointXYZENS0_11ParticleXYREE17setCloudCoherenceERKN5boost10shared_ptrINS0_19PointCloudCoherenceIS2_EEEE@Base 1.6
 (optional=templinst)_ZN3pcl8tracking21ParticleFilterTrackerINS_8PointXYZENS0_11ParticleXYREE17setReferenceCloudERKN5boost10shared_ptrIKNS_10PointCloudIS2_EEEE@Base 1.6
 (optional=templinst)_ZN3pcl8tracking21ParticleFilterTrackerINS_8PointXYZENS0_11ParticleXYREE19cropInputPointCloudERKN5boost10shared_ptrIKNS_10PointCloudIS2_EEEERS8_@Base 1.6
 (optional=templinst)_ZN3pcl8tracking21ParticleFilterTrackerINS_8PointXYZENS0_11ParticleXYREE19setInitialNoiseMeanERKSt6vectorIdSaIdEE@Base 1.6
 (optional=templinst)_ZN3pcl8tracking21ParticleFilterTrackerINS_8PointXYZENS0_11ParticleXYREE19testChangeDetectionERKN5boost10shared_ptrIKNS_10PointCloudIS2_EEEE@Base 1.6
 (optional=templinst)_ZN3pcl8tracking21ParticleFilterTrackerINS_8PointXYZENS0_11ParticleXYREE20getUseChangeDetectorEv@Base 1.6
 (optional=templinst)_ZN3pcl8tracking21ParticleFilterTrackerINS_8PointXYZENS0_11ParticleXYREE20setOcclusionAngleTheEd@Base 1.6
 (optional=templinst)_ZN3pcl8tracking21ParticleFilterTrackerINS_8PointXYZENS0_11ParticleXYREE20setUseChangeDetectorEb@Base 1.6
 (optional=templinst)_ZN3pcl8tracking21ParticleFilterTrackerINS_8PointXYZENS0_11ParticleXYREE21sampleWithReplacementERKSt6vectorIiSaIiEERKS5_IdSaIdEE@Base 1.6
 (optional=templinst)_ZN3pcl8tracking21ParticleFilterTrackerINS_8PointXYZENS0_11ParticleXYREE22setStepNoiseCovarianceERKSt6vectorIdSaIdEE@Base 1.6
 (optional=templinst)_ZN3pcl8tracking21ParticleFilterTrackerINS_8PointXYZENS0_11ParticleXYREE23normalizeParticleWeightEddd@Base 1.6
 (optional=templinst)_ZN3pcl8tracking21ParticleFilterTrackerINS_8PointXYZENS0_11ParticleXYREE23resampleWithReplacementEv@Base 1.6
 (optional=templinst)_ZN3pcl8tracking21ParticleFilterTrackerINS_8PointXYZENS0_11ParticleXYREE24setResampleLikelihoodThrEd@Base 1.6
 (optional=templinst)_ZN3pcl8tracking21ParticleFilterTrackerINS_8PointXYZENS0_11ParticleXYREE25setInitialNoiseCovarianceERKSt6vectorIdSaIdEE@Base 1.6
 (optional=templinst)_ZN3pcl8tracking21ParticleFilterTrackerINS_8PointXYZENS0_11ParticleXYREE28computeTransformedPointCloudERKS3_RSt6vectorIiSaIiEERNS_10PointCloudIS2_EE@Base 1.6
 (optional=templinst)_ZN3pcl8tracking21ParticleFilterTrackerINS_8PointXYZENS0_11ParticleXYREE28getIntervalOfChangeDetectionEv@Base 1.6
 (optional=templinst)_ZN3pcl8tracking21ParticleFilterTrackerINS_8PointXYZENS0_11ParticleXYREE28setIntervalOfChangeDetectionEj@Base 1.6
 (optional=templinst)_ZN3pcl8tracking21ParticleFilterTrackerINS_8PointXYZENS0_11ParticleXYREE29getMinPointsOfChangeDetectionEv@Base 1.6
 (optional=templinst)_ZN3pcl8tracking21ParticleFilterTrackerINS_8PointXYZENS0_11ParticleXYREE29setMinPointsOfChangeDetectionEj@Base 1.6
 (optional=templinst)_ZN3pcl8tracking21ParticleFilterTrackerINS_8PointXYZENS0_11ParticleXYREE30getResolutionOfChangeDetectionEv@Base 1.6
 (optional=templinst)_ZN3pcl8tracking21ParticleFilterTrackerINS_8PointXYZENS0_11ParticleXYREE30setResolutionOfChangeDetectionEd@Base 1.6
 (optional=templinst)_ZN3pcl8tracking21ParticleFilterTrackerINS_8PointXYZENS0_11ParticleXYREE38computeTransformedPointCloudWithNormalERKS3_RSt6vectorIiSaIiEERNS_10PointCloudIS2_EE@Base 1.6
 (optional=templinst)_ZN3pcl8tracking21ParticleFilterTrackerINS_8PointXYZENS0_11ParticleXYREE41computeTransformedPointCloudWithoutNormalERKS3_RNS_10PointCloudIS2_EE@Base 1.6
 (optional=templinst)_ZN3pcl8tracking21ParticleFilterTrackerINS_8PointXYZENS0_11ParticleXYREE6updateEv@Base 1.6
 (optional=templinst)_ZN3pcl8tracking21ParticleFilterTrackerINS_8PointXYZENS0_11ParticleXYREE6weightEv@Base 1.6
 (optional=templinst)_ZN3pcl8tracking21ParticleFilterTrackerINS_8PointXYZENS0_11ParticleXYREE8getAlphaEv@Base 1.6
 (optional=templinst)_ZN3pcl8tracking21ParticleFilterTrackerINS_8PointXYZENS0_11ParticleXYREE8resampleEv@Base 1.6
 (optional=templinst)_ZN3pcl8tracking21ParticleFilterTrackerINS_8PointXYZENS0_11ParticleXYREE8setAlphaEd@Base 1.6
 (optional=templinst)_ZN3pcl8tracking21ParticleFilterTrackerINS_8PointXYZENS0_11ParticleXYREE8setTransERKN5Eigen9TransformIfLi3ELi2ELi0EEE@Base 1.6
 (optional=templinst)_ZN3pcl8tracking21ParticleFilterTrackerINS_8PointXYZENS0_11ParticleXYREEC1Ev@Base 1.6
 (optional=templinst)_ZN3pcl8tracking21ParticleFilterTrackerINS_8PointXYZENS0_11ParticleXYREEC2Ev@Base 1.6
 (optional=templinst)_ZN3pcl8tracking21ParticleFilterTrackerINS_8PointXYZENS0_11ParticleXYREED0Ev@Base 1.6
 (optional=templinst)_ZN3pcl8tracking21ParticleFilterTrackerINS_8PointXYZENS0_11ParticleXYREED1Ev@Base 1.6
 (optional=templinst)_ZN3pcl8tracking21ParticleFilterTrackerINS_8PointXYZENS0_11ParticleXYREED2Ev@Base 1.6
 (optional=templinst)_ZN3pcl8tracking21ParticleFilterTrackerINS_8PointXYZENS0_12ParticleXYRPEE11initComputeEv@Base 1.6
 (optional=templinst)_ZN3pcl8tracking21ParticleFilterTrackerINS_8PointXYZENS0_12ParticleXYRPEE12getUseNormalEv@Base 1.6
 (optional=templinst)_ZN3pcl8tracking21ParticleFilterTrackerINS_8PointXYZENS0_12ParticleXYRPEE12setUseNormalEb@Base 1.6
 (optional=templinst)_ZN3pcl8tracking21ParticleFilterTrackerINS_8PointXYZENS0_12ParticleXYRPEE13genAliasTableERSt6vectorIiSaIiEERS5_IdSaIdEERKN5boost10shared_ptrIKNS_10PointCloudIS3_EEEE@Base 1.6
 (optional=templinst)_ZN3pcl8tracking21ParticleFilterTrackerINS_8PointXYZENS0_12ParticleXYRPEE13initParticlesEb@Base 1.6
 (optional=templinst)_ZN3pcl8tracking21ParticleFilterTrackerINS_8PointXYZENS0_12ParticleXYRPEE13resetTrackingEv@Base 1.6
 (optional=templinst)_ZN3pcl8tracking21ParticleFilterTrackerINS_8PointXYZENS0_12ParticleXYRPEE13setMinIndicesEi@Base 1.6
 (optional=templinst)_ZN3pcl8tracking21ParticleFilterTrackerINS_8PointXYZENS0_12ParticleXYRPEE13toEigenMatrixERKS3_@Base 1.6
 (optional=templinst)_ZN3pcl8tracking21ParticleFilterTrackerINS_8PointXYZENS0_12ParticleXYRPEE14getMotionRatioEv@Base 1.6
 (optional=templinst)_ZN3pcl8tracking21ParticleFilterTrackerINS_8PointXYZENS0_12ParticleXYRPEE14setMotionRatioEd@Base 1.6
 (optional=templinst)_ZN3pcl8tracking21ParticleFilterTrackerINS_8PointXYZENS0_12ParticleXYRPEE14setParticleNumEi@Base 1.6
 (optional=templinst)_ZN3pcl8tracking21ParticleFilterTrackerINS_8PointXYZENS0_12ParticleXYRPEE15calcBoundingBoxERdS5_S5_S5_S5_S5_@Base 1.6
 (optional=templinst)_ZN3pcl8tracking21ParticleFilterTrackerINS_8PointXYZENS0_12ParticleXYRPEE15computeTrackingEv@Base 1.6
 (optional=templinst)_ZN3pcl8tracking21ParticleFilterTrackerINS_8PointXYZENS0_12ParticleXYRPEE15normalizeWeightEv@Base 1.6
 (optional=templinst)_ZN3pcl8tracking21ParticleFilterTrackerINS_8PointXYZENS0_12ParticleXYRPEE15setIterationNumEi@Base 1.6
 (optional=templinst)_ZN3pcl8tracking21ParticleFilterTrackerINS_8PointXYZENS0_12ParticleXYRPEE17getReferenceCloudEv@Base 1.6
 (optional=templinst)_ZN3pcl8tracking21ParticleFilterTrackerINS_8PointXYZENS0_12ParticleXYRPEE17setCloudCoherenceERKN5boost10shared_ptrINS0_19PointCloudCoherenceIS2_EEEE@Base 1.6
 (optional=templinst)_ZN3pcl8tracking21ParticleFilterTrackerINS_8PointXYZENS0_12ParticleXYRPEE17setReferenceCloudERKN5boost10shared_ptrIKNS_10PointCloudIS2_EEEE@Base 1.6
 (optional=templinst)_ZN3pcl8tracking21ParticleFilterTrackerINS_8PointXYZENS0_12ParticleXYRPEE19cropInputPointCloudERKN5boost10shared_ptrIKNS_10PointCloudIS2_EEEERS8_@Base 1.6
 (optional=templinst)_ZN3pcl8tracking21ParticleFilterTrackerINS_8PointXYZENS0_12ParticleXYRPEE19setInitialNoiseMeanERKSt6vectorIdSaIdEE@Base 1.6
 (optional=templinst)_ZN3pcl8tracking21ParticleFilterTrackerINS_8PointXYZENS0_12ParticleXYRPEE19testChangeDetectionERKN5boost10shared_ptrIKNS_10PointCloudIS2_EEEE@Base 1.6
 (optional=templinst)_ZN3pcl8tracking21ParticleFilterTrackerINS_8PointXYZENS0_12ParticleXYRPEE20getUseChangeDetectorEv@Base 1.6
 (optional=templinst)_ZN3pcl8tracking21ParticleFilterTrackerINS_8PointXYZENS0_12ParticleXYRPEE20setOcclusionAngleTheEd@Base 1.6
 (optional=templinst)_ZN3pcl8tracking21ParticleFilterTrackerINS_8PointXYZENS0_12ParticleXYRPEE20setUseChangeDetectorEb@Base 1.6
 (optional=templinst)_ZN3pcl8tracking21ParticleFilterTrackerINS_8PointXYZENS0_12ParticleXYRPEE21sampleWithReplacementERKSt6vectorIiSaIiEERKS5_IdSaIdEE@Base 1.6
 (optional=templinst)_ZN3pcl8tracking21ParticleFilterTrackerINS_8PointXYZENS0_12ParticleXYRPEE22setStepNoiseCovarianceERKSt6vectorIdSaIdEE@Base 1.6
 (optional=templinst)_ZN3pcl8tracking21ParticleFilterTrackerINS_8PointXYZENS0_12ParticleXYRPEE23normalizeParticleWeightEddd@Base 1.6
 (optional=templinst)_ZN3pcl8tracking21ParticleFilterTrackerINS_8PointXYZENS0_12ParticleXYRPEE23resampleWithReplacementEv@Base 1.6
 (optional=templinst)_ZN3pcl8tracking21ParticleFilterTrackerINS_8PointXYZENS0_12ParticleXYRPEE24setResampleLikelihoodThrEd@Base 1.6
 (optional=templinst)_ZN3pcl8tracking21ParticleFilterTrackerINS_8PointXYZENS0_12ParticleXYRPEE25setInitialNoiseCovarianceERKSt6vectorIdSaIdEE@Base 1.6
 (optional=templinst)_ZN3pcl8tracking21ParticleFilterTrackerINS_8PointXYZENS0_12ParticleXYRPEE28computeTransformedPointCloudERKS3_RSt6vectorIiSaIiEERNS_10PointCloudIS2_EE@Base 1.6
 (optional=templinst)_ZN3pcl8tracking21ParticleFilterTrackerINS_8PointXYZENS0_12ParticleXYRPEE28getIntervalOfChangeDetectionEv@Base 1.6
 (optional=templinst)_ZN3pcl8tracking21ParticleFilterTrackerINS_8PointXYZENS0_12ParticleXYRPEE28setIntervalOfChangeDetectionEj@Base 1.6
 (optional=templinst)_ZN3pcl8tracking21ParticleFilterTrackerINS_8PointXYZENS0_12ParticleXYRPEE29getMinPointsOfChangeDetectionEv@Base 1.6
 (optional=templinst)_ZN3pcl8tracking21ParticleFilterTrackerINS_8PointXYZENS0_12ParticleXYRPEE29setMinPointsOfChangeDetectionEj@Base 1.6
 (optional=templinst)_ZN3pcl8tracking21ParticleFilterTrackerINS_8PointXYZENS0_12ParticleXYRPEE30getResolutionOfChangeDetectionEv@Base 1.6
 (optional=templinst)_ZN3pcl8tracking21ParticleFilterTrackerINS_8PointXYZENS0_12ParticleXYRPEE30setResolutionOfChangeDetectionEd@Base 1.6
 (optional=templinst)_ZN3pcl8tracking21ParticleFilterTrackerINS_8PointXYZENS0_12ParticleXYRPEE38computeTransformedPointCloudWithNormalERKS3_RSt6vectorIiSaIiEERNS_10PointCloudIS2_EE@Base 1.6
 (optional=templinst)_ZN3pcl8tracking21ParticleFilterTrackerINS_8PointXYZENS0_12ParticleXYRPEE41computeTransformedPointCloudWithoutNormalERKS3_RNS_10PointCloudIS2_EE@Base 1.6
 (optional=templinst)_ZN3pcl8tracking21ParticleFilterTrackerINS_8PointXYZENS0_12ParticleXYRPEE6updateEv@Base 1.6
 (optional=templinst)_ZN3pcl8tracking21ParticleFilterTrackerINS_8PointXYZENS0_12ParticleXYRPEE6weightEv@Base 1.6
 (optional=templinst)_ZN3pcl8tracking21ParticleFilterTrackerINS_8PointXYZENS0_12ParticleXYRPEE8getAlphaEv@Base 1.6
 (optional=templinst)_ZN3pcl8tracking21ParticleFilterTrackerINS_8PointXYZENS0_12ParticleXYRPEE8resampleEv@Base 1.6
 (optional=templinst)_ZN3pcl8tracking21ParticleFilterTrackerINS_8PointXYZENS0_12ParticleXYRPEE8setAlphaEd@Base 1.6
 (optional=templinst)_ZN3pcl8tracking21ParticleFilterTrackerINS_8PointXYZENS0_12ParticleXYRPEE8setTransERKN5Eigen9TransformIfLi3ELi2ELi0EEE@Base 1.6
 (optional=templinst)_ZN3pcl8tracking21ParticleFilterTrackerINS_8PointXYZENS0_12ParticleXYRPEEC1Ev@Base 1.6
 (optional=templinst)_ZN3pcl8tracking21ParticleFilterTrackerINS_8PointXYZENS0_12ParticleXYRPEEC2Ev@Base 1.6
 (optional=templinst)_ZN3pcl8tracking21ParticleFilterTrackerINS_8PointXYZENS0_12ParticleXYRPEED0Ev@Base 1.6
 (optional=templinst)_ZN3pcl8tracking21ParticleFilterTrackerINS_8PointXYZENS0_12ParticleXYRPEED1Ev@Base 1.6
 (optional=templinst)_ZN3pcl8tracking21ParticleFilterTrackerINS_8PointXYZENS0_12ParticleXYRPEED2Ev@Base 1.6
 (optional=templinst)_ZN3pcl8tracking21ParticleFilterTrackerINS_8PointXYZENS0_12ParticleXYZREE11initComputeEv@Base 1.6
 (optional=templinst)_ZN3pcl8tracking21ParticleFilterTrackerINS_8PointXYZENS0_12ParticleXYZREE12getUseNormalEv@Base 1.6
 (optional=templinst)_ZN3pcl8tracking21ParticleFilterTrackerINS_8PointXYZENS0_12ParticleXYZREE12setUseNormalEb@Base 1.6
 (optional=templinst)_ZN3pcl8tracking21ParticleFilterTrackerINS_8PointXYZENS0_12ParticleXYZREE13genAliasTableERSt6vectorIiSaIiEERS5_IdSaIdEERKN5boost10shared_ptrIKNS_10PointCloudIS3_EEEE@Base 1.6
 (optional=templinst)_ZN3pcl8tracking21ParticleFilterTrackerINS_8PointXYZENS0_12ParticleXYZREE13initParticlesEb@Base 1.6
 (optional=templinst)_ZN3pcl8tracking21ParticleFilterTrackerINS_8PointXYZENS0_12ParticleXYZREE13resetTrackingEv@Base 1.6
 (optional=templinst)_ZN3pcl8tracking21ParticleFilterTrackerINS_8PointXYZENS0_12ParticleXYZREE13setMinIndicesEi@Base 1.6
 (optional=templinst)_ZN3pcl8tracking21ParticleFilterTrackerINS_8PointXYZENS0_12ParticleXYZREE13toEigenMatrixERKS3_@Base 1.6
 (optional=templinst)_ZN3pcl8tracking21ParticleFilterTrackerINS_8PointXYZENS0_12ParticleXYZREE14getMotionRatioEv@Base 1.6
 (optional=templinst)_ZN3pcl8tracking21ParticleFilterTrackerINS_8PointXYZENS0_12ParticleXYZREE14setMotionRatioEd@Base 1.6
 (optional=templinst)_ZN3pcl8tracking21ParticleFilterTrackerINS_8PointXYZENS0_12ParticleXYZREE14setParticleNumEi@Base 1.6
 (optional=templinst)_ZN3pcl8tracking21ParticleFilterTrackerINS_8PointXYZENS0_12ParticleXYZREE15calcBoundingBoxERdS5_S5_S5_S5_S5_@Base 1.6
 (optional=templinst)_ZN3pcl8tracking21ParticleFilterTrackerINS_8PointXYZENS0_12ParticleXYZREE15computeTrackingEv@Base 1.6
 (optional=templinst)_ZN3pcl8tracking21ParticleFilterTrackerINS_8PointXYZENS0_12ParticleXYZREE15normalizeWeightEv@Base 1.6
 (optional=templinst)_ZN3pcl8tracking21ParticleFilterTrackerINS_8PointXYZENS0_12ParticleXYZREE15setIterationNumEi@Base 1.6
 (optional=templinst)_ZN3pcl8tracking21ParticleFilterTrackerINS_8PointXYZENS0_12ParticleXYZREE17getReferenceCloudEv@Base 1.6
 (optional=templinst)_ZN3pcl8tracking21ParticleFilterTrackerINS_8PointXYZENS0_12ParticleXYZREE17setCloudCoherenceERKN5boost10shared_ptrINS0_19PointCloudCoherenceIS2_EEEE@Base 1.6
 (optional=templinst)_ZN3pcl8tracking21ParticleFilterTrackerINS_8PointXYZENS0_12ParticleXYZREE17setReferenceCloudERKN5boost10shared_ptrIKNS_10PointCloudIS2_EEEE@Base 1.6
 (optional=templinst)_ZN3pcl8tracking21ParticleFilterTrackerINS_8PointXYZENS0_12ParticleXYZREE19cropInputPointCloudERKN5boost10shared_ptrIKNS_10PointCloudIS2_EEEERS8_@Base 1.6
 (optional=templinst)_ZN3pcl8tracking21ParticleFilterTrackerINS_8PointXYZENS0_12ParticleXYZREE19setInitialNoiseMeanERKSt6vectorIdSaIdEE@Base 1.6
 (optional=templinst)_ZN3pcl8tracking21ParticleFilterTrackerINS_8PointXYZENS0_12ParticleXYZREE19testChangeDetectionERKN5boost10shared_ptrIKNS_10PointCloudIS2_EEEE@Base 1.6
 (optional=templinst)_ZN3pcl8tracking21ParticleFilterTrackerINS_8PointXYZENS0_12ParticleXYZREE20getUseChangeDetectorEv@Base 1.6
 (optional=templinst)_ZN3pcl8tracking21ParticleFilterTrackerINS_8PointXYZENS0_12ParticleXYZREE20setOcclusionAngleTheEd@Base 1.6
 (optional=templinst)_ZN3pcl8tracking21ParticleFilterTrackerINS_8PointXYZENS0_12ParticleXYZREE20setUseChangeDetectorEb@Base 1.6
 (optional=templinst)_ZN3pcl8tracking21ParticleFilterTrackerINS_8PointXYZENS0_12ParticleXYZREE21sampleWithReplacementERKSt6vectorIiSaIiEERKS5_IdSaIdEE@Base 1.6
 (optional=templinst)_ZN3pcl8tracking21ParticleFilterTrackerINS_8PointXYZENS0_12ParticleXYZREE22setStepNoiseCovarianceERKSt6vectorIdSaIdEE@Base 1.6
 (optional=templinst)_ZN3pcl8tracking21ParticleFilterTrackerINS_8PointXYZENS0_12ParticleXYZREE23normalizeParticleWeightEddd@Base 1.6
 (optional=templinst)_ZN3pcl8tracking21ParticleFilterTrackerINS_8PointXYZENS0_12ParticleXYZREE23resampleWithReplacementEv@Base 1.6
 (optional=templinst)_ZN3pcl8tracking21ParticleFilterTrackerINS_8PointXYZENS0_12ParticleXYZREE24setResampleLikelihoodThrEd@Base 1.6
 (optional=templinst)_ZN3pcl8tracking21ParticleFilterTrackerINS_8PointXYZENS0_12ParticleXYZREE25setInitialNoiseCovarianceERKSt6vectorIdSaIdEE@Base 1.6
 (optional=templinst)_ZN3pcl8tracking21ParticleFilterTrackerINS_8PointXYZENS0_12ParticleXYZREE28computeTransformedPointCloudERKS3_RSt6vectorIiSaIiEERNS_10PointCloudIS2_EE@Base 1.6
 (optional=templinst)_ZN3pcl8tracking21ParticleFilterTrackerINS_8PointXYZENS0_12ParticleXYZREE28getIntervalOfChangeDetectionEv@Base 1.6
 (optional=templinst)_ZN3pcl8tracking21ParticleFilterTrackerINS_8PointXYZENS0_12ParticleXYZREE28setIntervalOfChangeDetectionEj@Base 1.6
 (optional=templinst)_ZN3pcl8tracking21ParticleFilterTrackerINS_8PointXYZENS0_12ParticleXYZREE29getMinPointsOfChangeDetectionEv@Base 1.6
 (optional=templinst)_ZN3pcl8tracking21ParticleFilterTrackerINS_8PointXYZENS0_12ParticleXYZREE29setMinPointsOfChangeDetectionEj@Base 1.6
 (optional=templinst)_ZN3pcl8tracking21ParticleFilterTrackerINS_8PointXYZENS0_12ParticleXYZREE30getResolutionOfChangeDetectionEv@Base 1.6
 (optional=templinst)_ZN3pcl8tracking21ParticleFilterTrackerINS_8PointXYZENS0_12ParticleXYZREE30setResolutionOfChangeDetectionEd@Base 1.6
 (optional=templinst)_ZN3pcl8tracking21ParticleFilterTrackerINS_8PointXYZENS0_12ParticleXYZREE38computeTransformedPointCloudWithNormalERKS3_RSt6vectorIiSaIiEERNS_10PointCloudIS2_EE@Base 1.6
 (optional=templinst)_ZN3pcl8tracking21ParticleFilterTrackerINS_8PointXYZENS0_12ParticleXYZREE41computeTransformedPointCloudWithoutNormalERKS3_RNS_10PointCloudIS2_EE@Base 1.6
 (optional=templinst)_ZN3pcl8tracking21ParticleFilterTrackerINS_8PointXYZENS0_12ParticleXYZREE6updateEv@Base 1.6
 (optional=templinst)_ZN3pcl8tracking21ParticleFilterTrackerINS_8PointXYZENS0_12ParticleXYZREE6weightEv@Base 1.6
 (optional=templinst)_ZN3pcl8tracking21ParticleFilterTrackerINS_8PointXYZENS0_12ParticleXYZREE8getAlphaEv@Base 1.6
 (optional=templinst)_ZN3pcl8tracking21ParticleFilterTrackerINS_8PointXYZENS0_12ParticleXYZREE8resampleEv@Base 1.6
 (optional=templinst)_ZN3pcl8tracking21ParticleFilterTrackerINS_8PointXYZENS0_12ParticleXYZREE8setAlphaEd@Base 1.6
 (optional=templinst)_ZN3pcl8tracking21ParticleFilterTrackerINS_8PointXYZENS0_12ParticleXYZREE8setTransERKN5Eigen9TransformIfLi3ELi2ELi0EEE@Base 1.6
 (optional=templinst)_ZN3pcl8tracking21ParticleFilterTrackerINS_8PointXYZENS0_12ParticleXYZREEC1Ev@Base 1.6
 (optional=templinst)_ZN3pcl8tracking21ParticleFilterTrackerINS_8PointXYZENS0_12ParticleXYZREEC2Ev@Base 1.6
 (optional=templinst)_ZN3pcl8tracking21ParticleFilterTrackerINS_8PointXYZENS0_12ParticleXYZREED0Ev@Base 1.6
 (optional=templinst)_ZN3pcl8tracking21ParticleFilterTrackerINS_8PointXYZENS0_12ParticleXYZREED1Ev@Base 1.6
 (optional=templinst)_ZN3pcl8tracking21ParticleFilterTrackerINS_8PointXYZENS0_12ParticleXYZREED2Ev@Base 1.6
 (optional=templinst)_ZN3pcl8tracking21ParticleFilterTrackerINS_8PointXYZENS0_13ParticleXYRPYEE11initComputeEv@Base 1.6
 (optional=templinst)_ZN3pcl8tracking21ParticleFilterTrackerINS_8PointXYZENS0_13ParticleXYRPYEE12getUseNormalEv@Base 1.6
 (optional=templinst)_ZN3pcl8tracking21ParticleFilterTrackerINS_8PointXYZENS0_13ParticleXYRPYEE12setUseNormalEb@Base 1.6
 (optional=templinst)_ZN3pcl8tracking21ParticleFilterTrackerINS_8PointXYZENS0_13ParticleXYRPYEE13genAliasTableERSt6vectorIiSaIiEERS5_IdSaIdEERKN5boost10shared_ptrIKNS_10PointCloudIS3_EEEE@Base 1.6
 (optional=templinst)_ZN3pcl8tracking21ParticleFilterTrackerINS_8PointXYZENS0_13ParticleXYRPYEE13initParticlesEb@Base 1.6
 (optional=templinst)_ZN3pcl8tracking21ParticleFilterTrackerINS_8PointXYZENS0_13ParticleXYRPYEE13resetTrackingEv@Base 1.6
 (optional=templinst)_ZN3pcl8tracking21ParticleFilterTrackerINS_8PointXYZENS0_13ParticleXYRPYEE13setMinIndicesEi@Base 1.6
 (optional=templinst)_ZN3pcl8tracking21ParticleFilterTrackerINS_8PointXYZENS0_13ParticleXYRPYEE13toEigenMatrixERKS3_@Base 1.6
 (optional=templinst)_ZN3pcl8tracking21ParticleFilterTrackerINS_8PointXYZENS0_13ParticleXYRPYEE14getMotionRatioEv@Base 1.6
 (optional=templinst)_ZN3pcl8tracking21ParticleFilterTrackerINS_8PointXYZENS0_13ParticleXYRPYEE14setMotionRatioEd@Base 1.6
 (optional=templinst)_ZN3pcl8tracking21ParticleFilterTrackerINS_8PointXYZENS0_13ParticleXYRPYEE14setParticleNumEi@Base 1.6
 (optional=templinst)_ZN3pcl8tracking21ParticleFilterTrackerINS_8PointXYZENS0_13ParticleXYRPYEE15calcBoundingBoxERdS5_S5_S5_S5_S5_@Base 1.6
 (optional=templinst)_ZN3pcl8tracking21ParticleFilterTrackerINS_8PointXYZENS0_13ParticleXYRPYEE15computeTrackingEv@Base 1.6
 (optional=templinst)_ZN3pcl8tracking21ParticleFilterTrackerINS_8PointXYZENS0_13ParticleXYRPYEE15normalizeWeightEv@Base 1.6
 (optional=templinst)_ZN3pcl8tracking21ParticleFilterTrackerINS_8PointXYZENS0_13ParticleXYRPYEE15setIterationNumEi@Base 1.6
 (optional=templinst)_ZN3pcl8tracking21ParticleFilterTrackerINS_8PointXYZENS0_13ParticleXYRPYEE17getReferenceCloudEv@Base 1.6
 (optional=templinst)_ZN3pcl8tracking21ParticleFilterTrackerINS_8PointXYZENS0_13ParticleXYRPYEE17setCloudCoherenceERKN5boost10shared_ptrINS0_19PointCloudCoherenceIS2_EEEE@Base 1.6
 (optional=templinst)_ZN3pcl8tracking21ParticleFilterTrackerINS_8PointXYZENS0_13ParticleXYRPYEE17setReferenceCloudERKN5boost10shared_ptrIKNS_10PointCloudIS2_EEEE@Base 1.6
 (optional=templinst)_ZN3pcl8tracking21ParticleFilterTrackerINS_8PointXYZENS0_13ParticleXYRPYEE19cropInputPointCloudERKN5boost10shared_ptrIKNS_10PointCloudIS2_EEEERS8_@Base 1.6
 (optional=templinst)_ZN3pcl8tracking21ParticleFilterTrackerINS_8PointXYZENS0_13ParticleXYRPYEE19setInitialNoiseMeanERKSt6vectorIdSaIdEE@Base 1.6
 (optional=templinst)_ZN3pcl8tracking21ParticleFilterTrackerINS_8PointXYZENS0_13ParticleXYRPYEE19testChangeDetectionERKN5boost10shared_ptrIKNS_10PointCloudIS2_EEEE@Base 1.6
 (optional=templinst)_ZN3pcl8tracking21ParticleFilterTrackerINS_8PointXYZENS0_13ParticleXYRPYEE20getUseChangeDetectorEv@Base 1.6
 (optional=templinst)_ZN3pcl8tracking21ParticleFilterTrackerINS_8PointXYZENS0_13ParticleXYRPYEE20setOcclusionAngleTheEd@Base 1.6
 (optional=templinst)_ZN3pcl8tracking21ParticleFilterTrackerINS_8PointXYZENS0_13ParticleXYRPYEE20setUseChangeDetectorEb@Base 1.6
 (optional=templinst)_ZN3pcl8tracking21ParticleFilterTrackerINS_8PointXYZENS0_13ParticleXYRPYEE21sampleWithReplacementERKSt6vectorIiSaIiEERKS5_IdSaIdEE@Base 1.6
 (optional=templinst)_ZN3pcl8tracking21ParticleFilterTrackerINS_8PointXYZENS0_13ParticleXYRPYEE22setStepNoiseCovarianceERKSt6vectorIdSaIdEE@Base 1.6
 (optional=templinst)_ZN3pcl8tracking21ParticleFilterTrackerINS_8PointXYZENS0_13ParticleXYRPYEE23normalizeParticleWeightEddd@Base 1.6
 (optional=templinst)_ZN3pcl8tracking21ParticleFilterTrackerINS_8PointXYZENS0_13ParticleXYRPYEE23resampleWithReplacementEv@Base 1.6
 (optional=templinst)_ZN3pcl8tracking21ParticleFilterTrackerINS_8PointXYZENS0_13ParticleXYRPYEE24setResampleLikelihoodThrEd@Base 1.6
 (optional=templinst)_ZN3pcl8tracking21ParticleFilterTrackerINS_8PointXYZENS0_13ParticleXYRPYEE25setInitialNoiseCovarianceERKSt6vectorIdSaIdEE@Base 1.6
 (optional=templinst)_ZN3pcl8tracking21ParticleFilterTrackerINS_8PointXYZENS0_13ParticleXYRPYEE28computeTransformedPointCloudERKS3_RSt6vectorIiSaIiEERNS_10PointCloudIS2_EE@Base 1.6
 (optional=templinst)_ZN3pcl8tracking21ParticleFilterTrackerINS_8PointXYZENS0_13ParticleXYRPYEE28getIntervalOfChangeDetectionEv@Base 1.6
 (optional=templinst)_ZN3pcl8tracking21ParticleFilterTrackerINS_8PointXYZENS0_13ParticleXYRPYEE28setIntervalOfChangeDetectionEj@Base 1.6
 (optional=templinst)_ZN3pcl8tracking21ParticleFilterTrackerINS_8PointXYZENS0_13ParticleXYRPYEE29getMinPointsOfChangeDetectionEv@Base 1.6
 (optional=templinst)_ZN3pcl8tracking21ParticleFilterTrackerINS_8PointXYZENS0_13ParticleXYRPYEE29setMinPointsOfChangeDetectionEj@Base 1.6
 (optional=templinst)_ZN3pcl8tracking21ParticleFilterTrackerINS_8PointXYZENS0_13ParticleXYRPYEE30getResolutionOfChangeDetectionEv@Base 1.6
 (optional=templinst)_ZN3pcl8tracking21ParticleFilterTrackerINS_8PointXYZENS0_13ParticleXYRPYEE30setResolutionOfChangeDetectionEd@Base 1.6
 (optional=templinst)_ZN3pcl8tracking21ParticleFilterTrackerINS_8PointXYZENS0_13ParticleXYRPYEE38computeTransformedPointCloudWithNormalERKS3_RSt6vectorIiSaIiEERNS_10PointCloudIS2_EE@Base 1.6
 (optional=templinst)_ZN3pcl8tracking21ParticleFilterTrackerINS_8PointXYZENS0_13ParticleXYRPYEE41computeTransformedPointCloudWithoutNormalERKS3_RNS_10PointCloudIS2_EE@Base 1.6
 (optional=templinst)_ZN3pcl8tracking21ParticleFilterTrackerINS_8PointXYZENS0_13ParticleXYRPYEE6updateEv@Base 1.6
 (optional=templinst)_ZN3pcl8tracking21ParticleFilterTrackerINS_8PointXYZENS0_13ParticleXYRPYEE6weightEv@Base 1.6
 (optional=templinst)_ZN3pcl8tracking21ParticleFilterTrackerINS_8PointXYZENS0_13ParticleXYRPYEE8getAlphaEv@Base 1.6
 (optional=templinst)_ZN3pcl8tracking21ParticleFilterTrackerINS_8PointXYZENS0_13ParticleXYRPYEE8resampleEv@Base 1.6
 (optional=templinst)_ZN3pcl8tracking21ParticleFilterTrackerINS_8PointXYZENS0_13ParticleXYRPYEE8setAlphaEd@Base 1.6
 (optional=templinst)_ZN3pcl8tracking21ParticleFilterTrackerINS_8PointXYZENS0_13ParticleXYRPYEE8setTransERKN5Eigen9TransformIfLi3ELi2ELi0EEE@Base 1.6
 (optional=templinst)_ZN3pcl8tracking21ParticleFilterTrackerINS_8PointXYZENS0_13ParticleXYRPYEEC1Ev@Base 1.6
 (optional=templinst)_ZN3pcl8tracking21ParticleFilterTrackerINS_8PointXYZENS0_13ParticleXYRPYEEC2Ev@Base 1.6
 (optional=templinst)_ZN3pcl8tracking21ParticleFilterTrackerINS_8PointXYZENS0_13ParticleXYRPYEED0Ev@Base 1.6
 (optional=templinst)_ZN3pcl8tracking21ParticleFilterTrackerINS_8PointXYZENS0_13ParticleXYRPYEED1Ev@Base 1.6
 (optional=templinst)_ZN3pcl8tracking21ParticleFilterTrackerINS_8PointXYZENS0_13ParticleXYRPYEED2Ev@Base 1.6
 (optional=templinst)_ZN3pcl8tracking21ParticleFilterTrackerINS_8PointXYZENS0_14ParticleXYZRPYEE11initComputeEv@Base 1.6
 (optional=templinst)_ZN3pcl8tracking21ParticleFilterTrackerINS_8PointXYZENS0_14ParticleXYZRPYEE12getUseNormalEv@Base 1.6
 (optional=templinst)_ZN3pcl8tracking21ParticleFilterTrackerINS_8PointXYZENS0_14ParticleXYZRPYEE12setUseNormalEb@Base 1.6
 (optional=templinst)_ZN3pcl8tracking21ParticleFilterTrackerINS_8PointXYZENS0_14ParticleXYZRPYEE13genAliasTableERSt6vectorIiSaIiEERS5_IdSaIdEERKN5boost10shared_ptrIKNS_10PointCloudIS3_EEEE@Base 1.6
 (optional=templinst)_ZN3pcl8tracking21ParticleFilterTrackerINS_8PointXYZENS0_14ParticleXYZRPYEE13initParticlesEb@Base 1.6
 (optional=templinst)_ZN3pcl8tracking21ParticleFilterTrackerINS_8PointXYZENS0_14ParticleXYZRPYEE13resetTrackingEv@Base 1.6
 (optional=templinst)_ZN3pcl8tracking21ParticleFilterTrackerINS_8PointXYZENS0_14ParticleXYZRPYEE13setMinIndicesEi@Base 1.6
 (optional=templinst)_ZN3pcl8tracking21ParticleFilterTrackerINS_8PointXYZENS0_14ParticleXYZRPYEE13toEigenMatrixERKS3_@Base 1.6
 (optional=templinst)_ZN3pcl8tracking21ParticleFilterTrackerINS_8PointXYZENS0_14ParticleXYZRPYEE14getMotionRatioEv@Base 1.6
 (optional=templinst)_ZN3pcl8tracking21ParticleFilterTrackerINS_8PointXYZENS0_14ParticleXYZRPYEE14setMotionRatioEd@Base 1.6
 (optional=templinst)_ZN3pcl8tracking21ParticleFilterTrackerINS_8PointXYZENS0_14ParticleXYZRPYEE14setParticleNumEi@Base 1.6
 (optional=templinst)_ZN3pcl8tracking21ParticleFilterTrackerINS_8PointXYZENS0_14ParticleXYZRPYEE15calcBoundingBoxERdS5_S5_S5_S5_S5_@Base 1.6
 (optional=templinst)_ZN3pcl8tracking21ParticleFilterTrackerINS_8PointXYZENS0_14ParticleXYZRPYEE15computeTrackingEv@Base 1.6
 (optional=templinst)_ZN3pcl8tracking21ParticleFilterTrackerINS_8PointXYZENS0_14ParticleXYZRPYEE15normalizeWeightEv@Base 1.6
 (optional=templinst)_ZN3pcl8tracking21ParticleFilterTrackerINS_8PointXYZENS0_14ParticleXYZRPYEE15setIterationNumEi@Base 1.6
 (optional=templinst)_ZN3pcl8tracking21ParticleFilterTrackerINS_8PointXYZENS0_14ParticleXYZRPYEE17getReferenceCloudEv@Base 1.6
 (optional=templinst)_ZN3pcl8tracking21ParticleFilterTrackerINS_8PointXYZENS0_14ParticleXYZRPYEE17setCloudCoherenceERKN5boost10shared_ptrINS0_19PointCloudCoherenceIS2_EEEE@Base 1.6
 (optional=templinst)_ZN3pcl8tracking21ParticleFilterTrackerINS_8PointXYZENS0_14ParticleXYZRPYEE17setReferenceCloudERKN5boost10shared_ptrIKNS_10PointCloudIS2_EEEE@Base 1.6
 (optional=templinst)_ZN3pcl8tracking21ParticleFilterTrackerINS_8PointXYZENS0_14ParticleXYZRPYEE19cropInputPointCloudERKN5boost10shared_ptrIKNS_10PointCloudIS2_EEEERS8_@Base 1.6
 (optional=templinst)_ZN3pcl8tracking21ParticleFilterTrackerINS_8PointXYZENS0_14ParticleXYZRPYEE19setInitialNoiseMeanERKSt6vectorIdSaIdEE@Base 1.6
 (optional=templinst)_ZN3pcl8tracking21ParticleFilterTrackerINS_8PointXYZENS0_14ParticleXYZRPYEE19testChangeDetectionERKN5boost10shared_ptrIKNS_10PointCloudIS2_EEEE@Base 1.6
 (optional=templinst)_ZN3pcl8tracking21ParticleFilterTrackerINS_8PointXYZENS0_14ParticleXYZRPYEE20getUseChangeDetectorEv@Base 1.6
 (optional=templinst)_ZN3pcl8tracking21ParticleFilterTrackerINS_8PointXYZENS0_14ParticleXYZRPYEE20setOcclusionAngleTheEd@Base 1.6
 (optional=templinst)_ZN3pcl8tracking21ParticleFilterTrackerINS_8PointXYZENS0_14ParticleXYZRPYEE20setUseChangeDetectorEb@Base 1.6
 (optional=templinst)_ZN3pcl8tracking21ParticleFilterTrackerINS_8PointXYZENS0_14ParticleXYZRPYEE21sampleWithReplacementERKSt6vectorIiSaIiEERKS5_IdSaIdEE@Base 1.6
 (optional=templinst)_ZN3pcl8tracking21ParticleFilterTrackerINS_8PointXYZENS0_14ParticleXYZRPYEE22setStepNoiseCovarianceERKSt6vectorIdSaIdEE@Base 1.6
 (optional=templinst)_ZN3pcl8tracking21ParticleFilterTrackerINS_8PointXYZENS0_14ParticleXYZRPYEE23normalizeParticleWeightEddd@Base 1.6
 (optional=templinst)_ZN3pcl8tracking21ParticleFilterTrackerINS_8PointXYZENS0_14ParticleXYZRPYEE23resampleWithReplacementEv@Base 1.6
 (optional=templinst)_ZN3pcl8tracking21ParticleFilterTrackerINS_8PointXYZENS0_14ParticleXYZRPYEE24setResampleLikelihoodThrEd@Base 1.6
 (optional=templinst)_ZN3pcl8tracking21ParticleFilterTrackerINS_8PointXYZENS0_14ParticleXYZRPYEE25setInitialNoiseCovarianceERKSt6vectorIdSaIdEE@Base 1.6
 (optional=templinst)_ZN3pcl8tracking21ParticleFilterTrackerINS_8PointXYZENS0_14ParticleXYZRPYEE28computeTransformedPointCloudERKS3_RSt6vectorIiSaIiEERNS_10PointCloudIS2_EE@Base 1.6
 (optional=templinst)_ZN3pcl8tracking21ParticleFilterTrackerINS_8PointXYZENS0_14ParticleXYZRPYEE28getIntervalOfChangeDetectionEv@Base 1.6
 (optional=templinst)_ZN3pcl8tracking21ParticleFilterTrackerINS_8PointXYZENS0_14ParticleXYZRPYEE28setIntervalOfChangeDetectionEj@Base 1.6
 (optional=templinst)_ZN3pcl8tracking21ParticleFilterTrackerINS_8PointXYZENS0_14ParticleXYZRPYEE29getMinPointsOfChangeDetectionEv@Base 1.6
 (optional=templinst)_ZN3pcl8tracking21ParticleFilterTrackerINS_8PointXYZENS0_14ParticleXYZRPYEE29setMinPointsOfChangeDetectionEj@Base 1.6
 (optional=templinst)_ZN3pcl8tracking21ParticleFilterTrackerINS_8PointXYZENS0_14ParticleXYZRPYEE30getResolutionOfChangeDetectionEv@Base 1.6
 (optional=templinst)_ZN3pcl8tracking21ParticleFilterTrackerINS_8PointXYZENS0_14ParticleXYZRPYEE30setResolutionOfChangeDetectionEd@Base 1.6
 (optional=templinst)_ZN3pcl8tracking21ParticleFilterTrackerINS_8PointXYZENS0_14ParticleXYZRPYEE38computeTransformedPointCloudWithNormalERKS3_RSt6vectorIiSaIiEERNS_10PointCloudIS2_EE@Base 1.6
 (optional=templinst)_ZN3pcl8tracking21ParticleFilterTrackerINS_8PointXYZENS0_14ParticleXYZRPYEE41computeTransformedPointCloudWithoutNormalERKS3_RNS_10PointCloudIS2_EE@Base 1.6
 (optional=templinst)_ZN3pcl8tracking21ParticleFilterTrackerINS_8PointXYZENS0_14ParticleXYZRPYEE6updateEv@Base 1.6
 (optional=templinst)_ZN3pcl8tracking21ParticleFilterTrackerINS_8PointXYZENS0_14ParticleXYZRPYEE6weightEv@Base 1.6
 (optional=templinst)_ZN3pcl8tracking21ParticleFilterTrackerINS_8PointXYZENS0_14ParticleXYZRPYEE8getAlphaEv@Base 1.6
 (optional=templinst)_ZN3pcl8tracking21ParticleFilterTrackerINS_8PointXYZENS0_14ParticleXYZRPYEE8resampleEv@Base 1.6
 (optional=templinst)_ZN3pcl8tracking21ParticleFilterTrackerINS_8PointXYZENS0_14ParticleXYZRPYEE8setAlphaEd@Base 1.6
 (optional=templinst)_ZN3pcl8tracking21ParticleFilterTrackerINS_8PointXYZENS0_14ParticleXYZRPYEE8setTransERKN5Eigen9TransformIfLi3ELi2ELi0EEE@Base 1.6
 (optional=templinst)_ZN3pcl8tracking21ParticleFilterTrackerINS_8PointXYZENS0_14ParticleXYZRPYEEC1Ev@Base 1.6
 (optional=templinst)_ZN3pcl8tracking21ParticleFilterTrackerINS_8PointXYZENS0_14ParticleXYZRPYEEC2Ev@Base 1.6
 (optional=templinst)_ZN3pcl8tracking21ParticleFilterTrackerINS_8PointXYZENS0_14ParticleXYZRPYEED0Ev@Base 1.6
 (optional=templinst)_ZN3pcl8tracking21ParticleFilterTrackerINS_8PointXYZENS0_14ParticleXYZRPYEED1Ev@Base 1.6
 (optional=templinst)_ZN3pcl8tracking21ParticleFilterTrackerINS_8PointXYZENS0_14ParticleXYZRPYEED2Ev@Base 1.6
 (optional=templinst)_ZN3pcl8tracking21ParticleFilterTrackerINS_9PointXYZIENS0_11ParticleXYREE11initComputeEv@Base 1.6
 (optional=templinst)_ZN3pcl8tracking21ParticleFilterTrackerINS_9PointXYZIENS0_11ParticleXYREE12getUseNormalEv@Base 1.6
 (optional=templinst)_ZN3pcl8tracking21ParticleFilterTrackerINS_9PointXYZIENS0_11ParticleXYREE12setUseNormalEb@Base 1.6
 (optional=templinst)_ZN3pcl8tracking21ParticleFilterTrackerINS_9PointXYZIENS0_11ParticleXYREE13genAliasTableERSt6vectorIiSaIiEERS5_IdSaIdEERKN5boost10shared_ptrIKNS_10PointCloudIS3_EEEE@Base 1.6
 (optional=templinst)_ZN3pcl8tracking21ParticleFilterTrackerINS_9PointXYZIENS0_11ParticleXYREE13initParticlesEb@Base 1.6
 (optional=templinst)_ZN3pcl8tracking21ParticleFilterTrackerINS_9PointXYZIENS0_11ParticleXYREE13resetTrackingEv@Base 1.6
 (optional=templinst)_ZN3pcl8tracking21ParticleFilterTrackerINS_9PointXYZIENS0_11ParticleXYREE13setMinIndicesEi@Base 1.6
 (optional=templinst)_ZN3pcl8tracking21ParticleFilterTrackerINS_9PointXYZIENS0_11ParticleXYREE13toEigenMatrixERKS3_@Base 1.6
 (optional=templinst)_ZN3pcl8tracking21ParticleFilterTrackerINS_9PointXYZIENS0_11ParticleXYREE14getMotionRatioEv@Base 1.6
 (optional=templinst)_ZN3pcl8tracking21ParticleFilterTrackerINS_9PointXYZIENS0_11ParticleXYREE14setMotionRatioEd@Base 1.6
 (optional=templinst)_ZN3pcl8tracking21ParticleFilterTrackerINS_9PointXYZIENS0_11ParticleXYREE14setParticleNumEi@Base 1.6
 (optional=templinst)_ZN3pcl8tracking21ParticleFilterTrackerINS_9PointXYZIENS0_11ParticleXYREE15calcBoundingBoxERdS5_S5_S5_S5_S5_@Base 1.6
 (optional=templinst)_ZN3pcl8tracking21ParticleFilterTrackerINS_9PointXYZIENS0_11ParticleXYREE15computeTrackingEv@Base 1.6
 (optional=templinst)_ZN3pcl8tracking21ParticleFilterTrackerINS_9PointXYZIENS0_11ParticleXYREE15normalizeWeightEv@Base 1.6
 (optional=templinst)_ZN3pcl8tracking21ParticleFilterTrackerINS_9PointXYZIENS0_11ParticleXYREE15setIterationNumEi@Base 1.6
 (optional=templinst)_ZN3pcl8tracking21ParticleFilterTrackerINS_9PointXYZIENS0_11ParticleXYREE17getReferenceCloudEv@Base 1.6
 (optional=templinst)_ZN3pcl8tracking21ParticleFilterTrackerINS_9PointXYZIENS0_11ParticleXYREE17setCloudCoherenceERKN5boost10shared_ptrINS0_19PointCloudCoherenceIS2_EEEE@Base 1.6
 (optional=templinst)_ZN3pcl8tracking21ParticleFilterTrackerINS_9PointXYZIENS0_11ParticleXYREE17setReferenceCloudERKN5boost10shared_ptrIKNS_10PointCloudIS2_EEEE@Base 1.6
 (optional=templinst)_ZN3pcl8tracking21ParticleFilterTrackerINS_9PointXYZIENS0_11ParticleXYREE19cropInputPointCloudERKN5boost10shared_ptrIKNS_10PointCloudIS2_EEEERS8_@Base 1.6
 (optional=templinst)_ZN3pcl8tracking21ParticleFilterTrackerINS_9PointXYZIENS0_11ParticleXYREE19setInitialNoiseMeanERKSt6vectorIdSaIdEE@Base 1.6
 (optional=templinst)_ZN3pcl8tracking21ParticleFilterTrackerINS_9PointXYZIENS0_11ParticleXYREE19testChangeDetectionERKN5boost10shared_ptrIKNS_10PointCloudIS2_EEEE@Base 1.6
 (optional=templinst)_ZN3pcl8tracking21ParticleFilterTrackerINS_9PointXYZIENS0_11ParticleXYREE20getUseChangeDetectorEv@Base 1.6
 (optional=templinst)_ZN3pcl8tracking21ParticleFilterTrackerINS_9PointXYZIENS0_11ParticleXYREE20setOcclusionAngleTheEd@Base 1.6
 (optional=templinst)_ZN3pcl8tracking21ParticleFilterTrackerINS_9PointXYZIENS0_11ParticleXYREE20setUseChangeDetectorEb@Base 1.6
 (optional=templinst)_ZN3pcl8tracking21ParticleFilterTrackerINS_9PointXYZIENS0_11ParticleXYREE21sampleWithReplacementERKSt6vectorIiSaIiEERKS5_IdSaIdEE@Base 1.6
 (optional=templinst)_ZN3pcl8tracking21ParticleFilterTrackerINS_9PointXYZIENS0_11ParticleXYREE22setStepNoiseCovarianceERKSt6vectorIdSaIdEE@Base 1.6
 (optional=templinst)_ZN3pcl8tracking21ParticleFilterTrackerINS_9PointXYZIENS0_11ParticleXYREE23normalizeParticleWeightEddd@Base 1.6
 (optional=templinst)_ZN3pcl8tracking21ParticleFilterTrackerINS_9PointXYZIENS0_11ParticleXYREE23resampleWithReplacementEv@Base 1.6
 (optional=templinst)_ZN3pcl8tracking21ParticleFilterTrackerINS_9PointXYZIENS0_11ParticleXYREE24setResampleLikelihoodThrEd@Base 1.6
 (optional=templinst)_ZN3pcl8tracking21ParticleFilterTrackerINS_9PointXYZIENS0_11ParticleXYREE25setInitialNoiseCovarianceERKSt6vectorIdSaIdEE@Base 1.6
 (optional=templinst)_ZN3pcl8tracking21ParticleFilterTrackerINS_9PointXYZIENS0_11ParticleXYREE28computeTransformedPointCloudERKS3_RSt6vectorIiSaIiEERNS_10PointCloudIS2_EE@Base 1.6
 (optional=templinst)_ZN3pcl8tracking21ParticleFilterTrackerINS_9PointXYZIENS0_11ParticleXYREE28getIntervalOfChangeDetectionEv@Base 1.6
 (optional=templinst)_ZN3pcl8tracking21ParticleFilterTrackerINS_9PointXYZIENS0_11ParticleXYREE28setIntervalOfChangeDetectionEj@Base 1.6
 (optional=templinst)_ZN3pcl8tracking21ParticleFilterTrackerINS_9PointXYZIENS0_11ParticleXYREE29getMinPointsOfChangeDetectionEv@Base 1.6
 (optional=templinst)_ZN3pcl8tracking21ParticleFilterTrackerINS_9PointXYZIENS0_11ParticleXYREE29setMinPointsOfChangeDetectionEj@Base 1.6
 (optional=templinst)_ZN3pcl8tracking21ParticleFilterTrackerINS_9PointXYZIENS0_11ParticleXYREE30getResolutionOfChangeDetectionEv@Base 1.6
 (optional=templinst)_ZN3pcl8tracking21ParticleFilterTrackerINS_9PointXYZIENS0_11ParticleXYREE30setResolutionOfChangeDetectionEd@Base 1.6
 (optional=templinst)_ZN3pcl8tracking21ParticleFilterTrackerINS_9PointXYZIENS0_11ParticleXYREE38computeTransformedPointCloudWithNormalERKS3_RSt6vectorIiSaIiEERNS_10PointCloudIS2_EE@Base 1.6
 (optional=templinst)_ZN3pcl8tracking21ParticleFilterTrackerINS_9PointXYZIENS0_11ParticleXYREE41computeTransformedPointCloudWithoutNormalERKS3_RNS_10PointCloudIS2_EE@Base 1.6
 (optional=templinst)_ZN3pcl8tracking21ParticleFilterTrackerINS_9PointXYZIENS0_11ParticleXYREE6updateEv@Base 1.6
 (optional=templinst)_ZN3pcl8tracking21ParticleFilterTrackerINS_9PointXYZIENS0_11ParticleXYREE6weightEv@Base 1.6
 (optional=templinst)_ZN3pcl8tracking21ParticleFilterTrackerINS_9PointXYZIENS0_11ParticleXYREE8getAlphaEv@Base 1.6
 (optional=templinst)_ZN3pcl8tracking21ParticleFilterTrackerINS_9PointXYZIENS0_11ParticleXYREE8resampleEv@Base 1.6
 (optional=templinst)_ZN3pcl8tracking21ParticleFilterTrackerINS_9PointXYZIENS0_11ParticleXYREE8setAlphaEd@Base 1.6
 (optional=templinst)_ZN3pcl8tracking21ParticleFilterTrackerINS_9PointXYZIENS0_11ParticleXYREE8setTransERKN5Eigen9TransformIfLi3ELi2ELi0EEE@Base 1.6
 (optional=templinst)_ZN3pcl8tracking21ParticleFilterTrackerINS_9PointXYZIENS0_11ParticleXYREEC1Ev@Base 1.6
 (optional=templinst)_ZN3pcl8tracking21ParticleFilterTrackerINS_9PointXYZIENS0_11ParticleXYREEC2Ev@Base 1.6
 (optional=templinst)_ZN3pcl8tracking21ParticleFilterTrackerINS_9PointXYZIENS0_11ParticleXYREED0Ev@Base 1.6
 (optional=templinst)_ZN3pcl8tracking21ParticleFilterTrackerINS_9PointXYZIENS0_11ParticleXYREED1Ev@Base 1.6
 (optional=templinst)_ZN3pcl8tracking21ParticleFilterTrackerINS_9PointXYZIENS0_11ParticleXYREED2Ev@Base 1.6
 (optional=templinst)_ZN3pcl8tracking21ParticleFilterTrackerINS_9PointXYZIENS0_12ParticleXYRPEE11initComputeEv@Base 1.6
 (optional=templinst)_ZN3pcl8tracking21ParticleFilterTrackerINS_9PointXYZIENS0_12ParticleXYRPEE12getUseNormalEv@Base 1.6
 (optional=templinst)_ZN3pcl8tracking21ParticleFilterTrackerINS_9PointXYZIENS0_12ParticleXYRPEE12setUseNormalEb@Base 1.6
 (optional=templinst)_ZN3pcl8tracking21ParticleFilterTrackerINS_9PointXYZIENS0_12ParticleXYRPEE13genAliasTableERSt6vectorIiSaIiEERS5_IdSaIdEERKN5boost10shared_ptrIKNS_10PointCloudIS3_EEEE@Base 1.6
 (optional=templinst)_ZN3pcl8tracking21ParticleFilterTrackerINS_9PointXYZIENS0_12ParticleXYRPEE13initParticlesEb@Base 1.6
 (optional=templinst)_ZN3pcl8tracking21ParticleFilterTrackerINS_9PointXYZIENS0_12ParticleXYRPEE13resetTrackingEv@Base 1.6
 (optional=templinst)_ZN3pcl8tracking21ParticleFilterTrackerINS_9PointXYZIENS0_12ParticleXYRPEE13setMinIndicesEi@Base 1.6
 (optional=templinst)_ZN3pcl8tracking21ParticleFilterTrackerINS_9PointXYZIENS0_12ParticleXYRPEE13toEigenMatrixERKS3_@Base 1.6
 (optional=templinst)_ZN3pcl8tracking21ParticleFilterTrackerINS_9PointXYZIENS0_12ParticleXYRPEE14getMotionRatioEv@Base 1.6
 (optional=templinst)_ZN3pcl8tracking21ParticleFilterTrackerINS_9PointXYZIENS0_12ParticleXYRPEE14setMotionRatioEd@Base 1.6
 (optional=templinst)_ZN3pcl8tracking21ParticleFilterTrackerINS_9PointXYZIENS0_12ParticleXYRPEE14setParticleNumEi@Base 1.6
 (optional=templinst)_ZN3pcl8tracking21ParticleFilterTrackerINS_9PointXYZIENS0_12ParticleXYRPEE15calcBoundingBoxERdS5_S5_S5_S5_S5_@Base 1.6
