# SymbolsHelper-Confirmed: 1.6 amd64
libpcl_io_ply.so.1.6 libpcl-io-ply1.6 #MINVER#
 (optional=templinst)_ZN3pcl2io3ply10ply_parser13list_propertyIhaE5parseERS2_iRSi@Base 1.6
 (optional=templinst)_ZN3pcl2io3ply10ply_parser13list_propertyIhaEC1ERKSsN5boost8functionIFvhEEENS8_IFvaEEENS8_IFvvEEE@Base 1.6
 (optional=templinst)_ZN3pcl2io3ply10ply_parser13list_propertyIhaEC2ERKSsN5boost8functionIFvhEEENS8_IFvaEEENS8_IFvvEEE@Base 1.6
 (optional=templinst)_ZN3pcl2io3ply10ply_parser13list_propertyIhaED0Ev@Base 1.6
 (optional=templinst)_ZN3pcl2io3ply10ply_parser13list_propertyIhaED1Ev@Base 1.6
 (optional=templinst)_ZN3pcl2io3ply10ply_parser13list_propertyIhaED2Ev@Base 1.6
 (optional=templinst)_ZN3pcl2io3ply10ply_parser13list_propertyIhdE5parseERS2_iRSi@Base 1.6
 (optional=templinst)_ZN3pcl2io3ply10ply_parser13list_propertyIhdEC1ERKSsN5boost8functionIFvhEEENS8_IFvdEEENS8_IFvvEEE@Base 1.6
 (optional=templinst)_ZN3pcl2io3ply10ply_parser13list_propertyIhdEC2ERKSsN5boost8functionIFvhEEENS8_IFvdEEENS8_IFvvEEE@Base 1.6
 (optional=templinst)_ZN3pcl2io3ply10ply_parser13list_propertyIhdED0Ev@Base 1.6
 (optional=templinst)_ZN3pcl2io3ply10ply_parser13list_propertyIhdED1Ev@Base 1.6
 (optional=templinst)_ZN3pcl2io3ply10ply_parser13list_propertyIhdED2Ev@Base 1.6
 (optional=templinst)_ZN3pcl2io3ply10ply_parser13list_propertyIhfE5parseERS2_iRSi@Base 1.6
 (optional=templinst)_ZN3pcl2io3ply10ply_parser13list_propertyIhfEC1ERKSsN5boost8functionIFvhEEENS8_IFvfEEENS8_IFvvEEE@Base 1.6
 (optional=templinst)_ZN3pcl2io3ply10ply_parser13list_propertyIhfEC2ERKSsN5boost8functionIFvhEEENS8_IFvfEEENS8_IFvvEEE@Base 1.6
 (optional=templinst)_ZN3pcl2io3ply10ply_parser13list_propertyIhfED0Ev@Base 1.6
 (optional=templinst)_ZN3pcl2io3ply10ply_parser13list_propertyIhfED1Ev@Base 1.6
 (optional=templinst)_ZN3pcl2io3ply10ply_parser13list_propertyIhfED2Ev@Base 1.6
 (optional=templinst)_ZN3pcl2io3ply10ply_parser13list_propertyIhhE5parseERS2_iRSi@Base 1.6
 (optional=templinst)_ZN3pcl2io3ply10ply_parser13list_propertyIhhEC1ERKSsN5boost8functionIFvhEEESA_NS8_IFvvEEE@Base 1.6
 (optional=templinst)_ZN3pcl2io3ply10ply_parser13list_propertyIhhEC2ERKSsN5boost8functionIFvhEEESA_NS8_IFvvEEE@Base 1.6
 (optional=templinst)_ZN3pcl2io3ply10ply_parser13list_propertyIhhED0Ev@Base 1.6
 (optional=templinst)_ZN3pcl2io3ply10ply_parser13list_propertyIhhED1Ev@Base 1.6
 (optional=templinst)_ZN3pcl2io3ply10ply_parser13list_propertyIhhED2Ev@Base 1.6
 (optional=templinst)_ZN3pcl2io3ply10ply_parser13list_propertyIhiE5parseERS2_iRSi@Base 1.6
 (optional=templinst)_ZN3pcl2io3ply10ply_parser13list_propertyIhiEC1ERKSsN5boost8functionIFvhEEENS8_IFviEEENS8_IFvvEEE@Base 1.6
 (optional=templinst)_ZN3pcl2io3ply10ply_parser13list_propertyIhiEC2ERKSsN5boost8functionIFvhEEENS8_IFviEEENS8_IFvvEEE@Base 1.6
 (optional=templinst)_ZN3pcl2io3ply10ply_parser13list_propertyIhiED0Ev@Base 1.6
 (optional=templinst)_ZN3pcl2io3ply10ply_parser13list_propertyIhiED1Ev@Base 1.6
 (optional=templinst)_ZN3pcl2io3ply10ply_parser13list_propertyIhiED2Ev@Base 1.6
 (optional=templinst)_ZN3pcl2io3ply10ply_parser13list_propertyIhjE5parseERS2_iRSi@Base 1.6
 (optional=templinst)_ZN3pcl2io3ply10ply_parser13list_propertyIhjEC1ERKSsN5boost8functionIFvhEEENS8_IFvjEEENS8_IFvvEEE@Base 1.6
 (optional=templinst)_ZN3pcl2io3ply10ply_parser13list_propertyIhjEC2ERKSsN5boost8functionIFvhEEENS8_IFvjEEENS8_IFvvEEE@Base 1.6
 (optional=templinst)_ZN3pcl2io3ply10ply_parser13list_propertyIhjED0Ev@Base 1.6
 (optional=templinst)_ZN3pcl2io3ply10ply_parser13list_propertyIhjED1Ev@Base 1.6
 (optional=templinst)_ZN3pcl2io3ply10ply_parser13list_propertyIhjED2Ev@Base 1.6
 (optional=templinst)_ZN3pcl2io3ply10ply_parser13list_propertyIhsE5parseERS2_iRSi@Base 1.6
 (optional=templinst)_ZN3pcl2io3ply10ply_parser13list_propertyIhsEC1ERKSsN5boost8functionIFvhEEENS8_IFvsEEENS8_IFvvEEE@Base 1.6
 (optional=templinst)_ZN3pcl2io3ply10ply_parser13list_propertyIhsEC2ERKSsN5boost8functionIFvhEEENS8_IFvsEEENS8_IFvvEEE@Base 1.6
 (optional=templinst)_ZN3pcl2io3ply10ply_parser13list_propertyIhsED0Ev@Base 1.6
 (optional=templinst)_ZN3pcl2io3ply10ply_parser13list_propertyIhsED1Ev@Base 1.6
 (optional=templinst)_ZN3pcl2io3ply10ply_parser13list_propertyIhsED2Ev@Base 1.6
 (optional=templinst)_ZN3pcl2io3ply10ply_parser13list_propertyIhtE5parseERS2_iRSi@Base 1.6
 (optional=templinst)_ZN3pcl2io3ply10ply_parser13list_propertyIhtEC1ERKSsN5boost8functionIFvhEEENS8_IFvtEEENS8_IFvvEEE@Base 1.6
 (optional=templinst)_ZN3pcl2io3ply10ply_parser13list_propertyIhtEC2ERKSsN5boost8functionIFvhEEENS8_IFvtEEENS8_IFvvEEE@Base 1.6
 (optional=templinst)_ZN3pcl2io3ply10ply_parser13list_propertyIhtED0Ev@Base 1.6
 (optional=templinst)_ZN3pcl2io3ply10ply_parser13list_propertyIhtED1Ev@Base 1.6
 (optional=templinst)_ZN3pcl2io3ply10ply_parser13list_propertyIhtED2Ev@Base 1.6
 (optional=templinst)_ZN3pcl2io3ply10ply_parser13list_propertyIjaE5parseERS2_iRSi@Base 1.6
 (optional=templinst)_ZN3pcl2io3ply10ply_parser13list_propertyIjaEC1ERKSsN5boost8functionIFvjEEENS8_IFvaEEENS8_IFvvEEE@Base 1.6
 (optional=templinst)_ZN3pcl2io3ply10ply_parser13list_propertyIjaEC2ERKSsN5boost8functionIFvjEEENS8_IFvaEEENS8_IFvvEEE@Base 1.6
 (optional=templinst)_ZN3pcl2io3ply10ply_parser13list_propertyIjaED0Ev@Base 1.6
 (optional=templinst)_ZN3pcl2io3ply10ply_parser13list_propertyIjaED1Ev@Base 1.6
 (optional=templinst)_ZN3pcl2io3ply10ply_parser13list_propertyIjaED2Ev@Base 1.6
 (optional=templinst)_ZN3pcl2io3ply10ply_parser13list_propertyIjdE5parseERS2_iRSi@Base 1.6
 (optional=templinst)_ZN3pcl2io3ply10ply_parser13list_propertyIjdEC1ERKSsN5boost8functionIFvjEEENS8_IFvdEEENS8_IFvvEEE@Base 1.6
 (optional=templinst)_ZN3pcl2io3ply10ply_parser13list_propertyIjdEC2ERKSsN5boost8functionIFvjEEENS8_IFvdEEENS8_IFvvEEE@Base 1.6
 (optional=templinst)_ZN3pcl2io3ply10ply_parser13list_propertyIjdED0Ev@Base 1.6
 (optional=templinst)_ZN3pcl2io3ply10ply_parser13list_propertyIjdED1Ev@Base 1.6
 (optional=templinst)_ZN3pcl2io3ply10ply_parser13list_propertyIjdED2Ev@Base 1.6
 (optional=templinst)_ZN3pcl2io3ply10ply_parser13list_propertyIjfE5parseERS2_iRSi@Base 1.6
 (optional=templinst)_ZN3pcl2io3ply10ply_parser13list_propertyIjfEC1ERKSsN5boost8functionIFvjEEENS8_IFvfEEENS8_IFvvEEE@Base 1.6
 (optional=templinst)_ZN3pcl2io3ply10ply_parser13list_propertyIjfEC2ERKSsN5boost8functionIFvjEEENS8_IFvfEEENS8_IFvvEEE@Base 1.6
 (optional=templinst)_ZN3pcl2io3ply10ply_parser13list_propertyIjfED0Ev@Base 1.6
 (optional=templinst)_ZN3pcl2io3ply10ply_parser13list_propertyIjfED1Ev@Base 1.6
 (optional=templinst)_ZN3pcl2io3ply10ply_parser13list_propertyIjfED2Ev@Base 1.6
 (optional=templinst)_ZN3pcl2io3ply10ply_parser13list_propertyIjhE5parseERS2_iRSi@Base 1.6
 (optional=templinst)_ZN3pcl2io3ply10ply_parser13list_propertyIjhEC1ERKSsN5boost8functionIFvjEEENS8_IFvhEEENS8_IFvvEEE@Base 1.6
 (optional=templinst)_ZN3pcl2io3ply10ply_parser13list_propertyIjhEC2ERKSsN5boost8functionIFvjEEENS8_IFvhEEENS8_IFvvEEE@Base 1.6
 (optional=templinst)_ZN3pcl2io3ply10ply_parser13list_propertyIjhED0Ev@Base 1.6
 (optional=templinst)_ZN3pcl2io3ply10ply_parser13list_propertyIjhED1Ev@Base 1.6
 (optional=templinst)_ZN3pcl2io3ply10ply_parser13list_propertyIjhED2Ev@Base 1.6
 (optional=templinst)_ZN3pcl2io3ply10ply_parser13list_propertyIjiE5parseERS2_iRSi@Base 1.6
 (optional=templinst)_ZN3pcl2io3ply10ply_parser13list_propertyIjiEC1ERKSsN5boost8functionIFvjEEENS8_IFviEEENS8_IFvvEEE@Base 1.6
 (optional=templinst)_ZN3pcl2io3ply10ply_parser13list_propertyIjiEC2ERKSsN5boost8functionIFvjEEENS8_IFviEEENS8_IFvvEEE@Base 1.6
 (optional=templinst)_ZN3pcl2io3ply10ply_parser13list_propertyIjiED0Ev@Base 1.6
 (optional=templinst)_ZN3pcl2io3ply10ply_parser13list_propertyIjiED1Ev@Base 1.6
 (optional=templinst)_ZN3pcl2io3ply10ply_parser13list_propertyIjiED2Ev@Base 1.6
 (optional=templinst)_ZN3pcl2io3ply10ply_parser13list_propertyIjjE5parseERS2_iRSi@Base 1.6
 (optional=templinst)_ZN3pcl2io3ply10ply_parser13list_propertyIjjEC1ERKSsN5boost8functionIFvjEEESA_NS8_IFvvEEE@Base 1.6
 (optional=templinst)_ZN3pcl2io3ply10ply_parser13list_propertyIjjEC2ERKSsN5boost8functionIFvjEEESA_NS8_IFvvEEE@Base 1.6
 (optional=templinst)_ZN3pcl2io3ply10ply_parser13list_propertyIjjED0Ev@Base 1.6
 (optional=templinst)_ZN3pcl2io3ply10ply_parser13list_propertyIjjED1Ev@Base 1.6
 (optional=templinst)_ZN3pcl2io3ply10ply_parser13list_propertyIjjED2Ev@Base 1.6
 (optional=templinst)_ZN3pcl2io3ply10ply_parser13list_propertyIjsE5parseERS2_iRSi@Base 1.6
 (optional=templinst)_ZN3pcl2io3ply10ply_parser13list_propertyIjsEC1ERKSsN5boost8functionIFvjEEENS8_IFvsEEENS8_IFvvEEE@Base 1.6
 (optional=templinst)_ZN3pcl2io3ply10ply_parser13list_propertyIjsEC2ERKSsN5boost8functionIFvjEEENS8_IFvsEEENS8_IFvvEEE@Base 1.6
 (optional=templinst)_ZN3pcl2io3ply10ply_parser13list_propertyIjsED0Ev@Base 1.6
 (optional=templinst)_ZN3pcl2io3ply10ply_parser13list_propertyIjsED1Ev@Base 1.6
 (optional=templinst)_ZN3pcl2io3ply10ply_parser13list_propertyIjsED2Ev@Base 1.6
 (optional=templinst)_ZN3pcl2io3ply10ply_parser13list_propertyIjtE5parseERS2_iRSi@Base 1.6
 (optional=templinst)_ZN3pcl2io3ply10ply_parser13list_propertyIjtEC1ERKSsN5boost8functionIFvjEEENS8_IFvtEEENS8_IFvvEEE@Base 1.6
 (optional=templinst)_ZN3pcl2io3ply10ply_parser13list_propertyIjtEC2ERKSsN5boost8functionIFvjEEENS8_IFvtEEENS8_IFvvEEE@Base 1.6
 (optional=templinst)_ZN3pcl2io3ply10ply_parser13list_propertyIjtED0Ev@Base 1.6
 (optional=templinst)_ZN3pcl2io3ply10ply_parser13list_propertyIjtED1Ev@Base 1.6
 (optional=templinst)_ZN3pcl2io3ply10ply_parser13list_propertyIjtED2Ev@Base 1.6
 (optional=templinst)_ZN3pcl2io3ply10ply_parser13list_propertyItaE5parseERS2_iRSi@Base 1.6
 (optional=templinst)_ZN3pcl2io3ply10ply_parser13list_propertyItaEC1ERKSsN5boost8functionIFvtEEENS8_IFvaEEENS8_IFvvEEE@Base 1.6
 (optional=templinst)_ZN3pcl2io3ply10ply_parser13list_propertyItaEC2ERKSsN5boost8functionIFvtEEENS8_IFvaEEENS8_IFvvEEE@Base 1.6
 (optional=templinst)_ZN3pcl2io3ply10ply_parser13list_propertyItaED0Ev@Base 1.6
 (optional=templinst)_ZN3pcl2io3ply10ply_parser13list_propertyItaED1Ev@Base 1.6
 (optional=templinst)_ZN3pcl2io3ply10ply_parser13list_propertyItaED2Ev@Base 1.6
 (optional=templinst)_ZN3pcl2io3ply10ply_parser13list_propertyItdE5parseERS2_iRSi@Base 1.6
 (optional=templinst)_ZN3pcl2io3ply10ply_parser13list_propertyItdEC1ERKSsN5boost8functionIFvtEEENS8_IFvdEEENS8_IFvvEEE@Base 1.6
 (optional=templinst)_ZN3pcl2io3ply10ply_parser13list_propertyItdEC2ERKSsN5boost8functionIFvtEEENS8_IFvdEEENS8_IFvvEEE@Base 1.6
 (optional=templinst)_ZN3pcl2io3ply10ply_parser13list_propertyItdED0Ev@Base 1.6
 (optional=templinst)_ZN3pcl2io3ply10ply_parser13list_propertyItdED1Ev@Base 1.6
 (optional=templinst)_ZN3pcl2io3ply10ply_parser13list_propertyItdED2Ev@Base 1.6
 (optional=templinst)_ZN3pcl2io3ply10ply_parser13list_propertyItfE5parseERS2_iRSi@Base 1.6
 (optional=templinst)_ZN3pcl2io3ply10ply_parser13list_propertyItfEC1ERKSsN5boost8functionIFvtEEENS8_IFvfEEENS8_IFvvEEE@Base 1.6
 (optional=templinst)_ZN3pcl2io3ply10ply_parser13list_propertyItfEC2ERKSsN5boost8functionIFvtEEENS8_IFvfEEENS8_IFvvEEE@Base 1.6
 (optional=templinst)_ZN3pcl2io3ply10ply_parser13list_propertyItfED0Ev@Base 1.6
 (optional=templinst)_ZN3pcl2io3ply10ply_parser13list_propertyItfED1Ev@Base 1.6
 (optional=templinst)_ZN3pcl2io3ply10ply_parser13list_propertyItfED2Ev@Base 1.6
 (optional=templinst)_ZN3pcl2io3ply10ply_parser13list_propertyIthE5parseERS2_iRSi@Base 1.6
 (optional=templinst)_ZN3pcl2io3ply10ply_parser13list_propertyIthEC1ERKSsN5boost8functionIFvtEEENS8_IFvhEEENS8_IFvvEEE@Base 1.6
 (optional=templinst)_ZN3pcl2io3ply10ply_parser13list_propertyIthEC2ERKSsN5boost8functionIFvtEEENS8_IFvhEEENS8_IFvvEEE@Base 1.6
 (optional=templinst)_ZN3pcl2io3ply10ply_parser13list_propertyIthED0Ev@Base 1.6
 (optional=templinst)_ZN3pcl2io3ply10ply_parser13list_propertyIthED1Ev@Base 1.6
 (optional=templinst)_ZN3pcl2io3ply10ply_parser13list_propertyIthED2Ev@Base 1.6
 (optional=templinst)_ZN3pcl2io3ply10ply_parser13list_propertyItiE5parseERS2_iRSi@Base 1.6
 (optional=templinst)_ZN3pcl2io3ply10ply_parser13list_propertyItiEC1ERKSsN5boost8functionIFvtEEENS8_IFviEEENS8_IFvvEEE@Base 1.6
 (optional=templinst)_ZN3pcl2io3ply10ply_parser13list_propertyItiEC2ERKSsN5boost8functionIFvtEEENS8_IFviEEENS8_IFvvEEE@Base 1.6
 (optional=templinst)_ZN3pcl2io3ply10ply_parser13list_propertyItiED0Ev@Base 1.6
 (optional=templinst)_ZN3pcl2io3ply10ply_parser13list_propertyItiED1Ev@Base 1.6
 (optional=templinst)_ZN3pcl2io3ply10ply_parser13list_propertyItiED2Ev@Base 1.6
 (optional=templinst)_ZN3pcl2io3ply10ply_parser13list_propertyItjE5parseERS2_iRSi@Base 1.6
 (optional=templinst)_ZN3pcl2io3ply10ply_parser13list_propertyItjEC1ERKSsN5boost8functionIFvtEEENS8_IFvjEEENS8_IFvvEEE@Base 1.6
 (optional=templinst)_ZN3pcl2io3ply10ply_parser13list_propertyItjEC2ERKSsN5boost8functionIFvtEEENS8_IFvjEEENS8_IFvvEEE@Base 1.6
 (optional=templinst)_ZN3pcl2io3ply10ply_parser13list_propertyItjED0Ev@Base 1.6
 (optional=templinst)_ZN3pcl2io3ply10ply_parser13list_propertyItjED1Ev@Base 1.6
 (optional=templinst)_ZN3pcl2io3ply10ply_parser13list_propertyItjED2Ev@Base 1.6
 (optional=templinst)_ZN3pcl2io3ply10ply_parser13list_propertyItsE5parseERS2_iRSi@Base 1.6
 (optional=templinst)_ZN3pcl2io3ply10ply_parser13list_propertyItsEC1ERKSsN5boost8functionIFvtEEENS8_IFvsEEENS8_IFvvEEE@Base 1.6
 (optional=templinst)_ZN3pcl2io3ply10ply_parser13list_propertyItsEC2ERKSsN5boost8functionIFvtEEENS8_IFvsEEENS8_IFvvEEE@Base 1.6
 (optional=templinst)_ZN3pcl2io3ply10ply_parser13list_propertyItsED0Ev@Base 1.6
 (optional=templinst)_ZN3pcl2io3ply10ply_parser13list_propertyItsED1Ev@Base 1.6
 (optional=templinst)_ZN3pcl2io3ply10ply_parser13list_propertyItsED2Ev@Base 1.6
 (optional=templinst)_ZN3pcl2io3ply10ply_parser13list_propertyIttE5parseERS2_iRSi@Base 1.6
 (optional=templinst)_ZN3pcl2io3ply10ply_parser13list_propertyIttEC1ERKSsN5boost8functionIFvtEEESA_NS8_IFvvEEE@Base 1.6
 (optional=templinst)_ZN3pcl2io3ply10ply_parser13list_propertyIttEC2ERKSsN5boost8functionIFvtEEESA_NS8_IFvvEEE@Base 1.6
 (optional=templinst)_ZN3pcl2io3ply10ply_parser13list_propertyIttED0Ev@Base 1.6
 (optional=templinst)_ZN3pcl2io3ply10ply_parser13list_propertyIttED1Ev@Base 1.6
 (optional=templinst)_ZN3pcl2io3ply10ply_parser13list_propertyIttED2Ev@Base 1.6
 (optional=templinst)_ZN3pcl2io3ply10ply_parser15scalar_propertyIaE5parseERS2_iRSi@Base 1.6
 (optional=templinst)_ZN3pcl2io3ply10ply_parser15scalar_propertyIaEC1ERKSsN5boost8functionIFvaEEE@Base 1.6
 (optional=templinst)_ZN3pcl2io3ply10ply_parser15scalar_propertyIaEC2ERKSsN5boost8functionIFvaEEE@Base 1.6
 (optional=templinst)_ZN3pcl2io3ply10ply_parser15scalar_propertyIaED0Ev@Base 1.6
 (optional=templinst)_ZN3pcl2io3ply10ply_parser15scalar_propertyIaED1Ev@Base 1.6
 (optional=templinst)_ZN3pcl2io3ply10ply_parser15scalar_propertyIaED2Ev@Base 1.6
 (optional=templinst)_ZN3pcl2io3ply10ply_parser15scalar_propertyIdE5parseERS2_iRSi@Base 1.6
 (optional=templinst)_ZN3pcl2io3ply10ply_parser15scalar_propertyIdEC1ERKSsN5boost8functionIFvdEEE@Base 1.6
 (optional=templinst)_ZN3pcl2io3ply10ply_parser15scalar_propertyIdEC2ERKSsN5boost8functionIFvdEEE@Base 1.6
 (optional=templinst)_ZN3pcl2io3ply10ply_parser15scalar_propertyIdED0Ev@Base 1.6
 (optional=templinst)_ZN3pcl2io3ply10ply_parser15scalar_propertyIdED1Ev@Base 1.6
 (optional=templinst)_ZN3pcl2io3ply10ply_parser15scalar_propertyIdED2Ev@Base 1.6
 (optional=templinst)_ZN3pcl2io3ply10ply_parser15scalar_propertyIfE5parseERS2_iRSi@Base 1.6
 (optional=templinst)_ZN3pcl2io3ply10ply_parser15scalar_propertyIfEC1ERKSsN5boost8functionIFvfEEE@Base 1.6
 (optional=templinst)_ZN3pcl2io3ply10ply_parser15scalar_propertyIfEC2ERKSsN5boost8functionIFvfEEE@Base 1.6
 (optional=templinst)_ZN3pcl2io3ply10ply_parser15scalar_propertyIfED0Ev@Base 1.6
 (optional=templinst)_ZN3pcl2io3ply10ply_parser15scalar_propertyIfED1Ev@Base 1.6
 (optional=templinst)_ZN3pcl2io3ply10ply_parser15scalar_propertyIfED2Ev@Base 1.6
 (optional=templinst)_ZN3pcl2io3ply10ply_parser15scalar_propertyIhE5parseERS2_iRSi@Base 1.6
 (optional=templinst)_ZN3pcl2io3ply10ply_parser15scalar_propertyIhEC1ERKSsN5boost8functionIFvhEEE@Base 1.6
 (optional=templinst)_ZN3pcl2io3ply10ply_parser15scalar_propertyIhEC2ERKSsN5boost8functionIFvhEEE@Base 1.6
 (optional=templinst)_ZN3pcl2io3ply10ply_parser15scalar_propertyIhED0Ev@Base 1.6
 (optional=templinst)_ZN3pcl2io3ply10ply_parser15scalar_propertyIhED1Ev@Base 1.6
 (optional=templinst)_ZN3pcl2io3ply10ply_parser15scalar_propertyIhED2Ev@Base 1.6
 (optional=templinst)_ZN3pcl2io3ply10ply_parser15scalar_propertyIiE5parseERS2_iRSi@Base 1.6
 (optional=templinst)_ZN3pcl2io3ply10ply_parser15scalar_propertyIiEC1ERKSsN5boost8functionIFviEEE@Base 1.6
 (optional=templinst)_ZN3pcl2io3ply10ply_parser15scalar_propertyIiEC2ERKSsN5boost8functionIFviEEE@Base 1.6
 (optional=templinst)_ZN3pcl2io3ply10ply_parser15scalar_propertyIiED0Ev@Base 1.6
 (optional=templinst)_ZN3pcl2io3ply10ply_parser15scalar_propertyIiED1Ev@Base 1.6
 (optional=templinst)_ZN3pcl2io3ply10ply_parser15scalar_propertyIiED2Ev@Base 1.6
 (optional=templinst)_ZN3pcl2io3ply10ply_parser15scalar_propertyIjE5parseERS2_iRSi@Base 1.6
 (optional=templinst)_ZN3pcl2io3ply10ply_parser15scalar_propertyIjEC1ERKSsN5boost8functionIFvjEEE@Base 1.6
 (optional=templinst)_ZN3pcl2io3ply10ply_parser15scalar_propertyIjEC2ERKSsN5boost8functionIFvjEEE@Base 1.6
 (optional=templinst)_ZN3pcl2io3ply10ply_parser15scalar_propertyIjED0Ev@Base 1.6
 (optional=templinst)_ZN3pcl2io3ply10ply_parser15scalar_propertyIjED1Ev@Base 1.6
 (optional=templinst)_ZN3pcl2io3ply10ply_parser15scalar_propertyIjED2Ev@Base 1.6
 (optional=templinst)_ZN3pcl2io3ply10ply_parser15scalar_propertyIsE5parseERS2_iRSi@Base 1.6
 (optional=templinst)_ZN3pcl2io3ply10ply_parser15scalar_propertyIsEC1ERKSsN5boost8functionIFvsEEE@Base 1.6
 (optional=templinst)_ZN3pcl2io3ply10ply_parser15scalar_propertyIsEC2ERKSsN5boost8functionIFvsEEE@Base 1.6
 (optional=templinst)_ZN3pcl2io3ply10ply_parser15scalar_propertyIsED0Ev@Base 1.6
 (optional=templinst)_ZN3pcl2io3ply10ply_parser15scalar_propertyIsED1Ev@Base 1.6
 (optional=templinst)_ZN3pcl2io3ply10ply_parser15scalar_propertyIsED2Ev@Base 1.6
 (optional=templinst)_ZN3pcl2io3ply10ply_parser15scalar_propertyItE5parseERS2_iRSi@Base 1.6
 (optional=templinst)_ZN3pcl2io3ply10ply_parser15scalar_propertyItEC1ERKSsN5boost8functionIFvtEEE@Base 1.6
 (optional=templinst)_ZN3pcl2io3ply10ply_parser15scalar_propertyItEC2ERKSsN5boost8functionIFvtEEE@Base 1.6
 (optional=templinst)_ZN3pcl2io3ply10ply_parser15scalar_propertyItED0Ev@Base 1.6
 (optional=templinst)_ZN3pcl2io3ply10ply_parser15scalar_propertyItED1Ev@Base 1.6
 (optional=templinst)_ZN3pcl2io3ply10ply_parser15scalar_propertyItED2Ev@Base 1.6
 (optional=templinst)_ZN3pcl2io3ply10ply_parser19parse_list_propertyIhaEEbiRSiRKNS2_33list_property_begin_callback_typeIT_T0_E4typeERKNS2_35list_property_element_callback_typeIS6_S7_E4typeERKNS2_31list_property_end_callback_typeIS6_S7_E4typeE@Base 1.6
 (optional=templinst)_ZN3pcl2io3ply10ply_parser19parse_list_propertyIhdEEbiRSiRKNS2_33list_property_begin_callback_typeIT_T0_E4typeERKNS2_35list_property_element_callback_typeIS6_S7_E4typeERKNS2_31list_property_end_callback_typeIS6_S7_E4typeE@Base 1.6
 (optional=templinst)_ZN3pcl2io3ply10ply_parser19parse_list_propertyIhfEEbiRSiRKNS2_33list_property_begin_callback_typeIT_T0_E4typeERKNS2_35list_property_element_callback_typeIS6_S7_E4typeERKNS2_31list_property_end_callback_typeIS6_S7_E4typeE@Base 1.6
 (optional=templinst)_ZN3pcl2io3ply10ply_parser19parse_list_propertyIhhEEbiRSiRKNS2_33list_property_begin_callback_typeIT_T0_E4typeERKNS2_35list_property_element_callback_typeIS6_S7_E4typeERKNS2_31list_property_end_callback_typeIS6_S7_E4typeE@Base 1.6
 (optional=templinst)_ZN3pcl2io3ply10ply_parser19parse_list_propertyIhiEEbiRSiRKNS2_33list_property_begin_callback_typeIT_T0_E4typeERKNS2_35list_property_element_callback_typeIS6_S7_E4typeERKNS2_31list_property_end_callback_typeIS6_S7_E4typeE@Base 1.6
 (optional=templinst)_ZN3pcl2io3ply10ply_parser19parse_list_propertyIhjEEbiRSiRKNS2_33list_property_begin_callback_typeIT_T0_E4typeERKNS2_35list_property_element_callback_typeIS6_S7_E4typeERKNS2_31list_property_end_callback_typeIS6_S7_E4typeE@Base 1.6
 (optional=templinst)_ZN3pcl2io3ply10ply_parser19parse_list_propertyIhsEEbiRSiRKNS2_33list_property_begin_callback_typeIT_T0_E4typeERKNS2_35list_property_element_callback_typeIS6_S7_E4typeERKNS2_31list_property_end_callback_typeIS6_S7_E4typeE@Base 1.6
 (optional=templinst)_ZN3pcl2io3ply10ply_parser19parse_list_propertyIhtEEbiRSiRKNS2_33list_property_begin_callback_typeIT_T0_E4typeERKNS2_35list_property_element_callback_typeIS6_S7_E4typeERKNS2_31list_property_end_callback_typeIS6_S7_E4typeE@Base 1.6
 (optional=templinst)_ZN3pcl2io3ply10ply_parser19parse_list_propertyIjaEEbiRSiRKNS2_33list_property_begin_callback_typeIT_T0_E4typeERKNS2_35list_property_element_callback_typeIS6_S7_E4typeERKNS2_31list_property_end_callback_typeIS6_S7_E4typeE@Base 1.6
 (optional=templinst)_ZN3pcl2io3ply10ply_parser19parse_list_propertyIjdEEbiRSiRKNS2_33list_property_begin_callback_typeIT_T0_E4typeERKNS2_35list_property_element_callback_typeIS6_S7_E4typeERKNS2_31list_property_end_callback_typeIS6_S7_E4typeE@Base 1.6
 (optional=templinst)_ZN3pcl2io3ply10ply_parser19parse_list_propertyIjfEEbiRSiRKNS2_33list_property_begin_callback_typeIT_T0_E4typeERKNS2_35list_property_element_callback_typeIS6_S7_E4typeERKNS2_31list_property_end_callback_typeIS6_S7_E4typeE@Base 1.6
 (optional=templinst)_ZN3pcl2io3ply10ply_parser19parse_list_propertyIjhEEbiRSiRKNS2_33list_property_begin_callback_typeIT_T0_E4typeERKNS2_35list_property_element_callback_typeIS6_S7_E4typeERKNS2_31list_property_end_callback_typeIS6_S7_E4typeE@Base 1.6
 (optional=templinst)_ZN3pcl2io3ply10ply_parser19parse_list_propertyIjiEEbiRSiRKNS2_33list_property_begin_callback_typeIT_T0_E4typeERKNS2_35list_property_element_callback_typeIS6_S7_E4typeERKNS2_31list_property_end_callback_typeIS6_S7_E4typeE@Base 1.6
 (optional=templinst)_ZN3pcl2io3ply10ply_parser19parse_list_propertyIjjEEbiRSiRKNS2_33list_property_begin_callback_typeIT_T0_E4typeERKNS2_35list_property_element_callback_typeIS6_S7_E4typeERKNS2_31list_property_end_callback_typeIS6_S7_E4typeE@Base 1.6
 (optional=templinst)_ZN3pcl2io3ply10ply_parser19parse_list_propertyIjsEEbiRSiRKNS2_33list_property_begin_callback_typeIT_T0_E4typeERKNS2_35list_property_element_callback_typeIS6_S7_E4typeERKNS2_31list_property_end_callback_typeIS6_S7_E4typeE@Base 1.6
 (optional=templinst)_ZN3pcl2io3ply10ply_parser19parse_list_propertyIjtEEbiRSiRKNS2_33list_property_begin_callback_typeIT_T0_E4typeERKNS2_35list_property_element_callback_typeIS6_S7_E4typeERKNS2_31list_property_end_callback_typeIS6_S7_E4typeE@Base 1.6
 (optional=templinst)_ZN3pcl2io3ply10ply_parser19parse_list_propertyItaEEbiRSiRKNS2_33list_property_begin_callback_typeIT_T0_E4typeERKNS2_35list_property_element_callback_typeIS6_S7_E4typeERKNS2_31list_property_end_callback_typeIS6_S7_E4typeE@Base 1.6
 (optional=templinst)_ZN3pcl2io3ply10ply_parser19parse_list_propertyItdEEbiRSiRKNS2_33list_property_begin_callback_typeIT_T0_E4typeERKNS2_35list_property_element_callback_typeIS6_S7_E4typeERKNS2_31list_property_end_callback_typeIS6_S7_E4typeE@Base 1.6
 (optional=templinst)_ZN3pcl2io3ply10ply_parser19parse_list_propertyItfEEbiRSiRKNS2_33list_property_begin_callback_typeIT_T0_E4typeERKNS2_35list_property_element_callback_typeIS6_S7_E4typeERKNS2_31list_property_end_callback_typeIS6_S7_E4typeE@Base 1.6
 (optional=templinst)_ZN3pcl2io3ply10ply_parser19parse_list_propertyIthEEbiRSiRKNS2_33list_property_begin_callback_typeIT_T0_E4typeERKNS2_35list_property_element_callback_typeIS6_S7_E4typeERKNS2_31list_property_end_callback_typeIS6_S7_E4typeE@Base 1.6
 (optional=templinst)_ZN3pcl2io3ply10ply_parser19parse_list_propertyItiEEbiRSiRKNS2_33list_property_begin_callback_typeIT_T0_E4typeERKNS2_35list_property_element_callback_typeIS6_S7_E4typeERKNS2_31list_property_end_callback_typeIS6_S7_E4typeE@Base 1.6
 (optional=templinst)_ZN3pcl2io3ply10ply_parser19parse_list_propertyItjEEbiRSiRKNS2_33list_property_begin_callback_typeIT_T0_E4typeERKNS2_35list_property_element_callback_typeIS6_S7_E4typeERKNS2_31list_property_end_callback_typeIS6_S7_E4typeE@Base 1.6
 (optional=templinst)_ZN3pcl2io3ply10ply_parser19parse_list_propertyItsEEbiRSiRKNS2_33list_property_begin_callback_typeIT_T0_E4typeERKNS2_35list_property_element_callback_typeIS6_S7_E4typeERKNS2_31list_property_end_callback_typeIS6_S7_E4typeE@Base 1.6
 (optional=templinst)_ZN3pcl2io3ply10ply_parser19parse_list_propertyIttEEbiRSiRKNS2_33list_property_begin_callback_typeIT_T0_E4typeERKNS2_35list_property_element_callback_typeIS6_S7_E4typeERKNS2_31list_property_end_callback_typeIS6_S7_E4typeE@Base 1.6
 (optional=templinst)_ZN3pcl2io3ply10ply_parser21parse_scalar_propertyIaEEbiRSiRKNS2_29scalar_property_callback_typeIT_E4typeE@Base 1.6
 (optional=templinst)_ZN3pcl2io3ply10ply_parser21parse_scalar_propertyIdEEbiRSiRKNS2_29scalar_property_callback_typeIT_E4typeE@Base 1.6
 (optional=templinst)_ZN3pcl2io3ply10ply_parser21parse_scalar_propertyIfEEbiRSiRKNS2_29scalar_property_callback_typeIT_E4typeE@Base 1.6
 (optional=templinst)_ZN3pcl2io3ply10ply_parser21parse_scalar_propertyIhEEbiRSiRKNS2_29scalar_property_callback_typeIT_E4typeE@Base 1.6
 (optional=templinst)_ZN3pcl2io3ply10ply_parser21parse_scalar_propertyIiEEbiRSiRKNS2_29scalar_property_callback_typeIT_E4typeE@Base 1.6
 (optional=templinst)_ZN3pcl2io3ply10ply_parser21parse_scalar_propertyIjEEbiRSiRKNS2_29scalar_property_callback_typeIT_E4typeE@Base 1.6
 (optional=templinst)_ZN3pcl2io3ply10ply_parser21parse_scalar_propertyIsEEbiRSiRKNS2_29scalar_property_callback_typeIT_E4typeE@Base 1.6
 (optional=templinst)_ZN3pcl2io3ply10ply_parser21parse_scalar_propertyItEEbiRSiRKNS2_29scalar_property_callback_typeIT_E4typeE@Base 1.6
 (optional=templinst)_ZN3pcl2io3ply10ply_parser30parse_list_property_definitionIhaEEvRKSs@Base 1.6
 (optional=templinst)_ZN3pcl2io3ply10ply_parser30parse_list_property_definitionIhdEEvRKSs@Base 1.6
 (optional=templinst)_ZN3pcl2io3ply10ply_parser30parse_list_property_definitionIhfEEvRKSs@Base 1.6
 (optional=templinst)_ZN3pcl2io3ply10ply_parser30parse_list_property_definitionIhhEEvRKSs@Base 1.6
 (optional=templinst)_ZN3pcl2io3ply10ply_parser30parse_list_property_definitionIhiEEvRKSs@Base 1.6
 (optional=templinst)_ZN3pcl2io3ply10ply_parser30parse_list_property_definitionIhjEEvRKSs@Base 1.6
 (optional=templinst)_ZN3pcl2io3ply10ply_parser30parse_list_property_definitionIhsEEvRKSs@Base 1.6
 (optional=templinst)_ZN3pcl2io3ply10ply_parser30parse_list_property_definitionIhtEEvRKSs@Base 1.6
 (optional=templinst)_ZN3pcl2io3ply10ply_parser30parse_list_property_definitionIjaEEvRKSs@Base 1.6
 (optional=templinst)_ZN3pcl2io3ply10ply_parser30parse_list_property_definitionIjdEEvRKSs@Base 1.6
 (optional=templinst)_ZN3pcl2io3ply10ply_parser30parse_list_property_definitionIjfEEvRKSs@Base 1.6
 (optional=templinst)_ZN3pcl2io3ply10ply_parser30parse_list_property_definitionIjhEEvRKSs@Base 1.6
 (optional=templinst)_ZN3pcl2io3ply10ply_parser30parse_list_property_definitionIjiEEvRKSs@Base 1.6
 (optional=templinst)_ZN3pcl2io3ply10ply_parser30parse_list_property_definitionIjjEEvRKSs@Base 1.6
 (optional=templinst)_ZN3pcl2io3ply10ply_parser30parse_list_property_definitionIjsEEvRKSs@Base 1.6
 (optional=templinst)_ZN3pcl2io3ply10ply_parser30parse_list_property_definitionIjtEEvRKSs@Base 1.6
 (optional=templinst)_ZN3pcl2io3ply10ply_parser30parse_list_property_definitionItaEEvRKSs@Base 1.6
 (optional=templinst)_ZN3pcl2io3ply10ply_parser30parse_list_property_definitionItdEEvRKSs@Base 1.6
 (optional=templinst)_ZN3pcl2io3ply10ply_parser30parse_list_property_definitionItfEEvRKSs@Base 1.6
 (optional=templinst)_ZN3pcl2io3ply10ply_parser30parse_list_property_definitionIthEEvRKSs@Base 1.6
 (optional=templinst)_ZN3pcl2io3ply10ply_parser30parse_list_property_definitionItiEEvRKSs@Base 1.6
 (optional=templinst)_ZN3pcl2io3ply10ply_parser30parse_list_property_definitionItjEEvRKSs@Base 1.6
 (optional=templinst)_ZN3pcl2io3ply10ply_parser30parse_list_property_definitionItsEEvRKSs@Base 1.6
 (optional=templinst)_ZN3pcl2io3ply10ply_parser30parse_list_property_definitionIttEEvRKSs@Base 1.6
 (optional=templinst)_ZN3pcl2io3ply10ply_parser32parse_scalar_property_definitionIaEEvRKSs@Base 1.6
 (optional=templinst)_ZN3pcl2io3ply10ply_parser32parse_scalar_property_definitionIdEEvRKSs@Base 1.6
 (optional=templinst)_ZN3pcl2io3ply10ply_parser32parse_scalar_property_definitionIfEEvRKSs@Base 1.6
 (optional=templinst)_ZN3pcl2io3ply10ply_parser32parse_scalar_property_definitionIhEEvRKSs@Base 1.6
 (optional=templinst)_ZN3pcl2io3ply10ply_parser32parse_scalar_property_definitionIiEEvRKSs@Base 1.6
 (optional=templinst)_ZN3pcl2io3ply10ply_parser32parse_scalar_property_definitionIjEEvRKSs@Base 1.6
 (optional=templinst)_ZN3pcl2io3ply10ply_parser32parse_scalar_property_definitionIsEEvRKSs@Base 1.6
 (optional=templinst)_ZN3pcl2io3ply10ply_parser32parse_scalar_property_definitionItEEvRKSs@Base 1.6
 _ZN3pcl2io3ply10ply_parser5parseERKSs@Base 1.6
 (optional=templinst)_ZN3pcl2io3ply10ply_parser7elementC1ERKSsmRKN5boost8functionIFvvEEESB_@Base 1.6
 (optional=templinst)_ZN3pcl2io3ply10ply_parser7elementC2ERKSsmRKN5boost8functionIFvvEEESB_@Base 1.6
 _ZN3pcl2io3ply10ply_parser7elementD1Ev@Base 1.6
 _ZN3pcl2io3ply10ply_parser7elementD2Ev@Base 1.6
 _ZN3pcl2io3ply10ply_parser8propertyD0Ev@Base 1.6
 _ZN3pcl2io3ply10ply_parser8propertyD1Ev@Base 1.6
 _ZN3pcl2io3ply10ply_parser8propertyD2Ev@Base 1.6
 _ZN3pcl2io3ply12io_operatorsrsERSiRa@Base 1.6
 _ZN3pcl2io3ply12io_operatorsrsERSiRh@Base 1.6
 (optional=templinst)_ZN5boost10shared_ptrIN3pcl2io3ply10ply_parser7elementEEaSERKS6_@Base 1.6
 (optional=templinst)_ZN5boost10shared_ptrIN3pcl2io3ply10ply_parser8propertyEED1Ev@Base 1.6
 (optional=templinst)_ZN5boost10shared_ptrIN3pcl2io3ply10ply_parser8propertyEED2Ev@Base 1.6
 (optional=templinst)_ZN5boost10shared_ptrIN3pcl2io3ply10ply_parser8propertyEEaSERKS6_@Base 1.6
 (optional=templinst)_ZN5boost14checked_deleteIN3pcl2io3ply10ply_parser7elementEEEvPT_@Base 1.6
 (optional=templinst)_ZN5boost15throw_exceptionINS_17bad_function_callEEEvRKT_@Base 1.6
 _ZN5boost16exception_detail10clone_baseD0Ev@Base 1.6
 _ZN5boost16exception_detail10clone_baseD1Ev@Base 1.6
 _ZN5boost16exception_detail10clone_baseD2Ev@Base 1.6
 (optional=templinst)_ZN5boost16exception_detail10clone_implINS0_19error_info_injectorINS_17bad_function_callEEEEC1ERKS4_@Base 1.6
 (optional=templinst)_ZN5boost16exception_detail10clone_implINS0_19error_info_injectorINS_17bad_function_callEEEEC2ERKS4_@Base 1.6
 (optional=templinst)_ZN5boost16exception_detail10clone_implINS0_19error_info_injectorINS_17bad_function_callEEEED0Ev@Base 1.6
 (optional=templinst)_ZN5boost16exception_detail10clone_implINS0_19error_info_injectorINS_17bad_function_callEEEED1Ev@Base 1.6
 (optional=templinst)_ZN5boost16exception_detail10clone_implINS0_19error_info_injectorINS_17bad_function_callEEEED2Ev@Base 1.6
 (optional=templinst)_ZN5boost16exception_detail12refcount_ptrINS0_20error_info_containerEE7releaseEv@Base 1.6
 (optional=templinst)_ZN5boost16exception_detail19error_info_injectorINS_17bad_function_callEEC1ERKS3_@Base 1.6
 (optional=templinst)_ZN5boost16exception_detail19error_info_injectorINS_17bad_function_callEEC2ERKS3_@Base 1.6
 (optional=templinst)_ZN5boost16exception_detail19error_info_injectorINS_17bad_function_callEED0Ev@Base 1.6
 (optional=templinst)_ZN5boost16exception_detail19error_info_injectorINS_17bad_function_callEED1Ev@Base 1.6
 (optional=templinst)_ZN5boost16exception_detail19error_info_injectorINS_17bad_function_callEED2Ev@Base 1.6
 _ZN5boost16exception_detail20copy_boost_exceptionEPNS_9exceptionEPKS1_@Base 1.6
 _ZN5boost17bad_function_callC1Ev@Base 1.6
 _ZN5boost17bad_function_callC2Ev@Base 1.6
 _ZN5boost17bad_function_callD0Ev@Base 1.6
 _ZN5boost17bad_function_callD1Ev@Base 1.6
 _ZN5boost17bad_function_callD2Ev@Base 1.6
 (optional=templinst)_ZN5boost6detail12shared_countC1IN3pcl2io3ply10ply_parser13list_propertyIhaEEEEPT_@Base 1.6
 (optional=templinst)_ZN5boost6detail12shared_countC1IN3pcl2io3ply10ply_parser13list_propertyIhdEEEEPT_@Base 1.6
 (optional=templinst)_ZN5boost6detail12shared_countC1IN3pcl2io3ply10ply_parser13list_propertyIhfEEEEPT_@Base 1.6
 (optional=templinst)_ZN5boost6detail12shared_countC1IN3pcl2io3ply10ply_parser13list_propertyIhhEEEEPT_@Base 1.6
 (optional=templinst)_ZN5boost6detail12shared_countC1IN3pcl2io3ply10ply_parser13list_propertyIhiEEEEPT_@Base 1.6
 (optional=templinst)_ZN5boost6detail12shared_countC1IN3pcl2io3ply10ply_parser13list_propertyIhjEEEEPT_@Base 1.6
 (optional=templinst)_ZN5boost6detail12shared_countC1IN3pcl2io3ply10ply_parser13list_propertyIhsEEEEPT_@Base 1.6
 (optional=templinst)_ZN5boost6detail12shared_countC1IN3pcl2io3ply10ply_parser13list_propertyIhtEEEEPT_@Base 1.6
 (optional=templinst)_ZN5boost6detail12shared_countC1IN3pcl2io3ply10ply_parser13list_propertyIjaEEEEPT_@Base 1.6
 (optional=templinst)_ZN5boost6detail12shared_countC1IN3pcl2io3ply10ply_parser13list_propertyIjdEEEEPT_@Base 1.6
 (optional=templinst)_ZN5boost6detail12shared_countC1IN3pcl2io3ply10ply_parser13list_propertyIjfEEEEPT_@Base 1.6
 (optional=templinst)_ZN5boost6detail12shared_countC1IN3pcl2io3ply10ply_parser13list_propertyIjhEEEEPT_@Base 1.6
 (optional=templinst)_ZN5boost6detail12shared_countC1IN3pcl2io3ply10ply_parser13list_propertyIjiEEEEPT_@Base 1.6
 (optional=templinst)_ZN5boost6detail12shared_countC1IN3pcl2io3ply10ply_parser13list_propertyIjjEEEEPT_@Base 1.6
 (optional=templinst)_ZN5boost6detail12shared_countC1IN3pcl2io3ply10ply_parser13list_propertyIjsEEEEPT_@Base 1.6
 (optional=templinst)_ZN5boost6detail12shared_countC1IN3pcl2io3ply10ply_parser13list_propertyIjtEEEEPT_@Base 1.6
 (optional=templinst)_ZN5boost6detail12shared_countC1IN3pcl2io3ply10ply_parser13list_propertyItaEEEEPT_@Base 1.6
 (optional=templinst)_ZN5boost6detail12shared_countC1IN3pcl2io3ply10ply_parser13list_propertyItdEEEEPT_@Base 1.6
 (optional=templinst)_ZN5boost6detail12shared_countC1IN3pcl2io3ply10ply_parser13list_propertyItfEEEEPT_@Base 1.6
 (optional=templinst)_ZN5boost6detail12shared_countC1IN3pcl2io3ply10ply_parser13list_propertyIthEEEEPT_@Base 1.6
 (optional=templinst)_ZN5boost6detail12shared_countC1IN3pcl2io3ply10ply_parser13list_propertyItiEEEEPT_@Base 1.6
 (optional=templinst)_ZN5boost6detail12shared_countC1IN3pcl2io3ply10ply_parser13list_propertyItjEEEEPT_@Base 1.6
 (optional=templinst)_ZN5boost6detail12shared_countC1IN3pcl2io3ply10ply_parser13list_propertyItsEEEEPT_@Base 1.6
 (optional=templinst)_ZN5boost6detail12shared_countC1IN3pcl2io3ply10ply_parser13list_propertyIttEEEEPT_@Base 1.6
 (optional=templinst)_ZN5boost6detail12shared_countC1IN3pcl2io3ply10ply_parser15scalar_propertyIaEEEEPT_@Base 1.6
 (optional=templinst)_ZN5boost6detail12shared_countC1IN3pcl2io3ply10ply_parser15scalar_propertyIdEEEEPT_@Base 1.6
 (optional=templinst)_ZN5boost6detail12shared_countC1IN3pcl2io3ply10ply_parser15scalar_propertyIfEEEEPT_@Base 1.6
 (optional=templinst)_ZN5boost6detail12shared_countC1IN3pcl2io3ply10ply_parser15scalar_propertyIhEEEEPT_@Base 1.6
 (optional=templinst)_ZN5boost6detail12shared_countC1IN3pcl2io3ply10ply_parser15scalar_propertyIiEEEEPT_@Base 1.6
 (optional=templinst)_ZN5boost6detail12shared_countC1IN3pcl2io3ply10ply_parser15scalar_propertyIjEEEEPT_@Base 1.6
 (optional=templinst)_ZN5boost6detail12shared_countC1IN3pcl2io3ply10ply_parser15scalar_propertyIsEEEEPT_@Base 1.6
 (optional=templinst)_ZN5boost6detail12shared_countC1IN3pcl2io3ply10ply_parser15scalar_propertyItEEEEPT_@Base 1.6
 (optional=templinst)_ZN5boost6detail12shared_countC1IN3pcl2io3ply10ply_parser7elementEEEPT_@Base 1.6
 (optional=templinst)_ZN5boost6detail12shared_countC2IN3pcl2io3ply10ply_parser13list_propertyIhaEEEEPT_@Base 1.6
 (optional=templinst)_ZN5boost6detail12shared_countC2IN3pcl2io3ply10ply_parser13list_propertyIhdEEEEPT_@Base 1.6
 (optional=templinst)_ZN5boost6detail12shared_countC2IN3pcl2io3ply10ply_parser13list_propertyIhfEEEEPT_@Base 1.6
 (optional=templinst)_ZN5boost6detail12shared_countC2IN3pcl2io3ply10ply_parser13list_propertyIhhEEEEPT_@Base 1.6
 (optional=templinst)_ZN5boost6detail12shared_countC2IN3pcl2io3ply10ply_parser13list_propertyIhiEEEEPT_@Base 1.6
 (optional=templinst)_ZN5boost6detail12shared_countC2IN3pcl2io3ply10ply_parser13list_propertyIhjEEEEPT_@Base 1.6
 (optional=templinst)_ZN5boost6detail12shared_countC2IN3pcl2io3ply10ply_parser13list_propertyIhsEEEEPT_@Base 1.6
 (optional=templinst)_ZN5boost6detail12shared_countC2IN3pcl2io3ply10ply_parser13list_propertyIhtEEEEPT_@Base 1.6
 (optional=templinst)_ZN5boost6detail12shared_countC2IN3pcl2io3ply10ply_parser13list_propertyIjaEEEEPT_@Base 1.6
 (optional=templinst)_ZN5boost6detail12shared_countC2IN3pcl2io3ply10ply_parser13list_propertyIjdEEEEPT_@Base 1.6
 (optional=templinst)_ZN5boost6detail12shared_countC2IN3pcl2io3ply10ply_parser13list_propertyIjfEEEEPT_@Base 1.6
 (optional=templinst)_ZN5boost6detail12shared_countC2IN3pcl2io3ply10ply_parser13list_propertyIjhEEEEPT_@Base 1.6
 (optional=templinst)_ZN5boost6detail12shared_countC2IN3pcl2io3ply10ply_parser13list_propertyIjiEEEEPT_@Base 1.6
 (optional=templinst)_ZN5boost6detail12shared_countC2IN3pcl2io3ply10ply_parser13list_propertyIjjEEEEPT_@Base 1.6
 (optional=templinst)_ZN5boost6detail12shared_countC2IN3pcl2io3ply10ply_parser13list_propertyIjsEEEEPT_@Base 1.6
 (optional=templinst)_ZN5boost6detail12shared_countC2IN3pcl2io3ply10ply_parser13list_propertyIjtEEEEPT_@Base 1.6
 (optional=templinst)_ZN5boost6detail12shared_countC2IN3pcl2io3ply10ply_parser13list_propertyItaEEEEPT_@Base 1.6
 (optional=templinst)_ZN5boost6detail12shared_countC2IN3pcl2io3ply10ply_parser13list_propertyItdEEEEPT_@Base 1.6
 (optional=templinst)_ZN5boost6detail12shared_countC2IN3pcl2io3ply10ply_parser13list_propertyItfEEEEPT_@Base 1.6
 (optional=templinst)_ZN5boost6detail12shared_countC2IN3pcl2io3ply10ply_parser13list_propertyIthEEEEPT_@Base 1.6
 (optional=templinst)_ZN5boost6detail12shared_countC2IN3pcl2io3ply10ply_parser13list_propertyItiEEEEPT_@Base 1.6
 (optional=templinst)_ZN5boost6detail12shared_countC2IN3pcl2io3ply10ply_parser13list_propertyItjEEEEPT_@Base 1.6
 (optional=templinst)_ZN5boost6detail12shared_countC2IN3pcl2io3ply10ply_parser13list_propertyItsEEEEPT_@Base 1.6
 (optional=templinst)_ZN5boost6detail12shared_countC2IN3pcl2io3ply10ply_parser13list_propertyIttEEEEPT_@Base 1.6
 (optional=templinst)_ZN5boost6detail12shared_countC2IN3pcl2io3ply10ply_parser15scalar_propertyIaEEEEPT_@Base 1.6
 (optional=templinst)_ZN5boost6detail12shared_countC2IN3pcl2io3ply10ply_parser15scalar_propertyIdEEEEPT_@Base 1.6
 (optional=templinst)_ZN5boost6detail12shared_countC2IN3pcl2io3ply10ply_parser15scalar_propertyIfEEEEPT_@Base 1.6
 (optional=templinst)_ZN5boost6detail12shared_countC2IN3pcl2io3ply10ply_parser15scalar_propertyIhEEEEPT_@Base 1.6
 (optional=templinst)_ZN5boost6detail12shared_countC2IN3pcl2io3ply10ply_parser15scalar_propertyIiEEEEPT_@Base 1.6
 (optional=templinst)_ZN5boost6detail12shared_countC2IN3pcl2io3ply10ply_parser15scalar_propertyIjEEEEPT_@Base 1.6
 (optional=templinst)_ZN5boost6detail12shared_countC2IN3pcl2io3ply10ply_parser15scalar_propertyIsEEEEPT_@Base 1.6
 (optional=templinst)_ZN5boost6detail12shared_countC2IN3pcl2io3ply10ply_parser15scalar_propertyItEEEEPT_@Base 1.6
 (optional=templinst)_ZN5boost6detail12shared_countC2IN3pcl2io3ply10ply_parser7elementEEEPT_@Base 1.6
 _ZN5boost6detail12shared_countD1Ev@Base 1.6
 _ZN5boost6detail12shared_countD2Ev@Base 1.6
 _ZN5boost6detail15sp_counted_base7destroyEv@Base 1.6
 _ZN5boost6detail15sp_counted_base7releaseEv@Base 1.6
 _ZN5boost6detail15sp_counted_baseD0Ev@Base 1.6
 _ZN5boost6detail15sp_counted_baseD1Ev@Base 1.6
 _ZN5boost6detail15sp_counted_baseD2Ev@Base 1.6
 (optional=templinst)_ZN5boost6detail17sp_counted_impl_pIN3pcl2io3ply10ply_parser13list_propertyIhaEEE11get_deleterERKSt9type_info@Base 1.6
 (optional=templinst)_ZN5boost6detail17sp_counted_impl_pIN3pcl2io3ply10ply_parser13list_propertyIhaEEE7disposeEv@Base 1.6
 (optional=templinst)_ZN5boost6detail17sp_counted_impl_pIN3pcl2io3ply10ply_parser13list_propertyIhaEEED0Ev@Base 1.6
 (optional=templinst)_ZN5boost6detail17sp_counted_impl_pIN3pcl2io3ply10ply_parser13list_propertyIhaEEED1Ev@Base 1.6
 (optional=templinst)_ZN5boost6detail17sp_counted_impl_pIN3pcl2io3ply10ply_parser13list_propertyIhaEEED2Ev@Base 1.6
 (optional=templinst)_ZN5boost6detail17sp_counted_impl_pIN3pcl2io3ply10ply_parser13list_propertyIhdEEE11get_deleterERKSt9type_info@Base 1.6
 (optional=templinst)_ZN5boost6detail17sp_counted_impl_pIN3pcl2io3ply10ply_parser13list_propertyIhdEEE7disposeEv@Base 1.6
 (optional=templinst)_ZN5boost6detail17sp_counted_impl_pIN3pcl2io3ply10ply_parser13list_propertyIhdEEED0Ev@Base 1.6
 (optional=templinst)_ZN5boost6detail17sp_counted_impl_pIN3pcl2io3ply10ply_parser13list_propertyIhdEEED1Ev@Base 1.6
 (optional=templinst)_ZN5boost6detail17sp_counted_impl_pIN3pcl2io3ply10ply_parser13list_propertyIhdEEED2Ev@Base 1.6
 (optional=templinst)_ZN5boost6detail17sp_counted_impl_pIN3pcl2io3ply10ply_parser13list_propertyIhfEEE11get_deleterERKSt9type_info@Base 1.6
 (optional=templinst)_ZN5boost6detail17sp_counted_impl_pIN3pcl2io3ply10ply_parser13list_propertyIhfEEE7disposeEv@Base 1.6
 (optional=templinst)_ZN5boost6detail17sp_counted_impl_pIN3pcl2io3ply10ply_parser13list_propertyIhfEEED0Ev@Base 1.6
 (optional=templinst)_ZN5boost6detail17sp_counted_impl_pIN3pcl2io3ply10ply_parser13list_propertyIhfEEED1Ev@Base 1.6
 (optional=templinst)_ZN5boost6detail17sp_counted_impl_pIN3pcl2io3ply10ply_parser13list_propertyIhfEEED2Ev@Base 1.6
 (optional=templinst)_ZN5boost6detail17sp_counted_impl_pIN3pcl2io3ply10ply_parser13list_propertyIhhEEE11get_deleterERKSt9type_info@Base 1.6
 (optional=templinst)_ZN5boost6detail17sp_counted_impl_pIN3pcl2io3ply10ply_parser13list_propertyIhhEEE7disposeEv@Base 1.6
 (optional=templinst)_ZN5boost6detail17sp_counted_impl_pIN3pcl2io3ply10ply_parser13list_propertyIhhEEED0Ev@Base 1.6
 (optional=templinst)_ZN5boost6detail17sp_counted_impl_pIN3pcl2io3ply10ply_parser13list_propertyIhhEEED1Ev@Base 1.6
 (optional=templinst)_ZN5boost6detail17sp_counted_impl_pIN3pcl2io3ply10ply_parser13list_propertyIhhEEED2Ev@Base 1.6
 (optional=templinst)_ZN5boost6detail17sp_counted_impl_pIN3pcl2io3ply10ply_parser13list_propertyIhiEEE11get_deleterERKSt9type_info@Base 1.6
 (optional=templinst)_ZN5boost6detail17sp_counted_impl_pIN3pcl2io3ply10ply_parser13list_propertyIhiEEE7disposeEv@Base 1.6
 (optional=templinst)_ZN5boost6detail17sp_counted_impl_pIN3pcl2io3ply10ply_parser13list_propertyIhiEEED0Ev@Base 1.6
 (optional=templinst)_ZN5boost6detail17sp_counted_impl_pIN3pcl2io3ply10ply_parser13list_propertyIhiEEED1Ev@Base 1.6
 (optional=templinst)_ZN5boost6detail17sp_counted_impl_pIN3pcl2io3ply10ply_parser13list_propertyIhiEEED2Ev@Base 1.6
 (optional=templinst)_ZN5boost6detail17sp_counted_impl_pIN3pcl2io3ply10ply_parser13list_propertyIhjEEE11get_deleterERKSt9type_info@Base 1.6
 (optional=templinst)_ZN5boost6detail17sp_counted_impl_pIN3pcl2io3ply10ply_parser13list_propertyIhjEEE7disposeEv@Base 1.6
 (optional=templinst)_ZN5boost6detail17sp_counted_impl_pIN3pcl2io3ply10ply_parser13list_propertyIhjEEED0Ev@Base 1.6
 (optional=templinst)_ZN5boost6detail17sp_counted_impl_pIN3pcl2io3ply10ply_parser13list_propertyIhjEEED1Ev@Base 1.6
 (optional=templinst)_ZN5boost6detail17sp_counted_impl_pIN3pcl2io3ply10ply_parser13list_propertyIhjEEED2Ev@Base 1.6
 (optional=templinst)_ZN5boost6detail17sp_counted_impl_pIN3pcl2io3ply10ply_parser13list_propertyIhsEEE11get_deleterERKSt9type_info@Base 1.6
 (optional=templinst)_ZN5boost6detail17sp_counted_impl_pIN3pcl2io3ply10ply_parser13list_propertyIhsEEE7disposeEv@Base 1.6
 (optional=templinst)_ZN5boost6detail17sp_counted_impl_pIN3pcl2io3ply10ply_parser13list_propertyIhsEEED0Ev@Base 1.6
 (optional=templinst)_ZN5boost6detail17sp_counted_impl_pIN3pcl2io3ply10ply_parser13list_propertyIhsEEED1Ev@Base 1.6
 (optional=templinst)_ZN5boost6detail17sp_counted_impl_pIN3pcl2io3ply10ply_parser13list_propertyIhsEEED2Ev@Base 1.6
 (optional=templinst)_ZN5boost6detail17sp_counted_impl_pIN3pcl2io3ply10ply_parser13list_propertyIhtEEE11get_deleterERKSt9type_info@Base 1.6
 (optional=templinst)_ZN5boost6detail17sp_counted_impl_pIN3pcl2io3ply10ply_parser13list_propertyIhtEEE7disposeEv@Base 1.6
 (optional=templinst)_ZN5boost6detail17sp_counted_impl_pIN3pcl2io3ply10ply_parser13list_propertyIhtEEED0Ev@Base 1.6
 (optional=templinst)_ZN5boost6detail17sp_counted_impl_pIN3pcl2io3ply10ply_parser13list_propertyIhtEEED1Ev@Base 1.6
 (optional=templinst)_ZN5boost6detail17sp_counted_impl_pIN3pcl2io3ply10ply_parser13list_propertyIhtEEED2Ev@Base 1.6
 (optional=templinst)_ZN5boost6detail17sp_counted_impl_pIN3pcl2io3ply10ply_parser13list_propertyIjaEEE11get_deleterERKSt9type_info@Base 1.6
 (optional=templinst)_ZN5boost6detail17sp_counted_impl_pIN3pcl2io3ply10ply_parser13list_propertyIjaEEE7disposeEv@Base 1.6
 (optional=templinst)_ZN5boost6detail17sp_counted_impl_pIN3pcl2io3ply10ply_parser13list_propertyIjaEEED0Ev@Base 1.6
 (optional=templinst)_ZN5boost6detail17sp_counted_impl_pIN3pcl2io3ply10ply_parser13list_propertyIjaEEED1Ev@Base 1.6
 (optional=templinst)_ZN5boost6detail17sp_counted_impl_pIN3pcl2io3ply10ply_parser13list_propertyIjaEEED2Ev@Base 1.6
 (optional=templinst)_ZN5boost6detail17sp_counted_impl_pIN3pcl2io3ply10ply_parser13list_propertyIjdEEE11get_deleterERKSt9type_info@Base 1.6
 (optional=templinst)_ZN5boost6detail17sp_counted_impl_pIN3pcl2io3ply10ply_parser13list_propertyIjdEEE7disposeEv@Base 1.6
 (optional=templinst)_ZN5boost6detail17sp_counted_impl_pIN3pcl2io3ply10ply_parser13list_propertyIjdEEED0Ev@Base 1.6
 (optional=templinst)_ZN5boost6detail17sp_counted_impl_pIN3pcl2io3ply10ply_parser13list_propertyIjdEEED1Ev@Base 1.6
 (optional=templinst)_ZN5boost6detail17sp_counted_impl_pIN3pcl2io3ply10ply_parser13list_propertyIjdEEED2Ev@Base 1.6
 (optional=templinst)_ZN5boost6detail17sp_counted_impl_pIN3pcl2io3ply10ply_parser13list_propertyIjfEEE11get_deleterERKSt9type_info@Base 1.6
 (optional=templinst)_ZN5boost6detail17sp_counted_impl_pIN3pcl2io3ply10ply_parser13list_propertyIjfEEE7disposeEv@Base 1.6
 (optional=templinst)_ZN5boost6detail17sp_counted_impl_pIN3pcl2io3ply10ply_parser13list_propertyIjfEEED0Ev@Base 1.6
 (optional=templinst)_ZN5boost6detail17sp_counted_impl_pIN3pcl2io3ply10ply_parser13list_propertyIjfEEED1Ev@Base 1.6
 (optional=templinst)_ZN5boost6detail17sp_counted_impl_pIN3pcl2io3ply10ply_parser13list_propertyIjfEEED2Ev@Base 1.6
 (optional=templinst)_ZN5boost6detail17sp_counted_impl_pIN3pcl2io3ply10ply_parser13list_propertyIjhEEE11get_deleterERKSt9type_info@Base 1.6
 (optional=templinst)_ZN5boost6detail17sp_counted_impl_pIN3pcl2io3ply10ply_parser13list_propertyIjhEEE7disposeEv@Base 1.6
 (optional=templinst)_ZN5boost6detail17sp_counted_impl_pIN3pcl2io3ply10ply_parser13list_propertyIjhEEED0Ev@Base 1.6
 (optional=templinst)_ZN5boost6detail17sp_counted_impl_pIN3pcl2io3ply10ply_parser13list_propertyIjhEEED1Ev@Base 1.6
 (optional=templinst)_ZN5boost6detail17sp_counted_impl_pIN3pcl2io3ply10ply_parser13list_propertyIjhEEED2Ev@Base 1.6
 (optional=templinst)_ZN5boost6detail17sp_counted_impl_pIN3pcl2io3ply10ply_parser13list_propertyIjiEEE11get_deleterERKSt9type_info@Base 1.6
 (optional=templinst)_ZN5boost6detail17sp_counted_impl_pIN3pcl2io3ply10ply_parser13list_propertyIjiEEE7disposeEv@Base 1.6
 (optional=templinst)_ZN5boost6detail17sp_counted_impl_pIN3pcl2io3ply10ply_parser13list_propertyIjiEEED0Ev@Base 1.6
 (optional=templinst)_ZN5boost6detail17sp_counted_impl_pIN3pcl2io3ply10ply_parser13list_propertyIjiEEED1Ev@Base 1.6
 (optional=templinst)_ZN5boost6detail17sp_counted_impl_pIN3pcl2io3ply10ply_parser13list_propertyIjiEEED2Ev@Base 1.6
 (optional=templinst)_ZN5boost6detail17sp_counted_impl_pIN3pcl2io3ply10ply_parser13list_propertyIjjEEE11get_deleterERKSt9type_info@Base 1.6
 (optional=templinst)_ZN5boost6detail17sp_counted_impl_pIN3pcl2io3ply10ply_parser13list_propertyIjjEEE7disposeEv@Base 1.6
 (optional=templinst)_ZN5boost6detail17sp_counted_impl_pIN3pcl2io3ply10ply_parser13list_propertyIjjEEED0Ev@Base 1.6
 (optional=templinst)_ZN5boost6detail17sp_counted_impl_pIN3pcl2io3ply10ply_parser13list_propertyIjjEEED1Ev@Base 1.6
 (optional=templinst)_ZN5boost6detail17sp_counted_impl_pIN3pcl2io3ply10ply_parser13list_propertyIjjEEED2Ev@Base 1.6
 (optional=templinst)_ZN5boost6detail17sp_counted_impl_pIN3pcl2io3ply10ply_parser13list_propertyIjsEEE11get_deleterERKSt9type_info@Base 1.6
 (optional=templinst)_ZN5boost6detail17sp_counted_impl_pIN3pcl2io3ply10ply_parser13list_propertyIjsEEE7disposeEv@Base 1.6
 (optional=templinst)_ZN5boost6detail17sp_counted_impl_pIN3pcl2io3ply10ply_parser13list_propertyIjsEEED0Ev@Base 1.6
 (optional=templinst)_ZN5boost6detail17sp_counted_impl_pIN3pcl2io3ply10ply_parser13list_propertyIjsEEED1Ev@Base 1.6
 (optional=templinst)_ZN5boost6detail17sp_counted_impl_pIN3pcl2io3ply10ply_parser13list_propertyIjsEEED2Ev@Base 1.6
 (optional=templinst)_ZN5boost6detail17sp_counted_impl_pIN3pcl2io3ply10ply_parser13list_propertyIjtEEE11get_deleterERKSt9type_info@Base 1.6
 (optional=templinst)_ZN5boost6detail17sp_counted_impl_pIN3pcl2io3ply10ply_parser13list_propertyIjtEEE7disposeEv@Base 1.6
 (optional=templinst)_ZN5boost6detail17sp_counted_impl_pIN3pcl2io3ply10ply_parser13list_propertyIjtEEED0Ev@Base 1.6
 (optional=templinst)_ZN5boost6detail17sp_counted_impl_pIN3pcl2io3ply10ply_parser13list_propertyIjtEEED1Ev@Base 1.6
 (optional=templinst)_ZN5boost6detail17sp_counted_impl_pIN3pcl2io3ply10ply_parser13list_propertyIjtEEED2Ev@Base 1.6
 (optional=templinst)_ZN5boost6detail17sp_counted_impl_pIN3pcl2io3ply10ply_parser13list_propertyItaEEE11get_deleterERKSt9type_info@Base 1.6
 (optional=templinst)_ZN5boost6detail17sp_counted_impl_pIN3pcl2io3ply10ply_parser13list_propertyItaEEE7disposeEv@Base 1.6
 (optional=templinst)_ZN5boost6detail17sp_counted_impl_pIN3pcl2io3ply10ply_parser13list_propertyItaEEED0Ev@Base 1.6
 (optional=templinst)_ZN5boost6detail17sp_counted_impl_pIN3pcl2io3ply10ply_parser13list_propertyItaEEED1Ev@Base 1.6
 (optional=templinst)_ZN5boost6detail17sp_counted_impl_pIN3pcl2io3ply10ply_parser13list_propertyItaEEED2Ev@Base 1.6
 (optional=templinst)_ZN5boost6detail17sp_counted_impl_pIN3pcl2io3ply10ply_parser13list_propertyItdEEE11get_deleterERKSt9type_info@Base 1.6
 (optional=templinst)_ZN5boost6detail17sp_counted_impl_pIN3pcl2io3ply10ply_parser13list_propertyItdEEE7disposeEv@Base 1.6
 (optional=templinst)_ZN5boost6detail17sp_counted_impl_pIN3pcl2io3ply10ply_parser13list_propertyItdEEED0Ev@Base 1.6
 (optional=templinst)_ZN5boost6detail17sp_counted_impl_pIN3pcl2io3ply10ply_parser13list_propertyItdEEED1Ev@Base 1.6
 (optional=templinst)_ZN5boost6detail17sp_counted_impl_pIN3pcl2io3ply10ply_parser13list_propertyItdEEED2Ev@Base 1.6
 (optional=templinst)_ZN5boost6detail17sp_counted_impl_pIN3pcl2io3ply10ply_parser13list_propertyItfEEE11get_deleterERKSt9type_info@Base 1.6
 (optional=templinst)_ZN5boost6detail17sp_counted_impl_pIN3pcl2io3ply10ply_parser13list_propertyItfEEE7disposeEv@Base 1.6
 (optional=templinst)_ZN5boost6detail17sp_counted_impl_pIN3pcl2io3ply10ply_parser13list_propertyItfEEED0Ev@Base 1.6
 (optional=templinst)_ZN5boost6detail17sp_counted_impl_pIN3pcl2io3ply10ply_parser13list_propertyItfEEED1Ev@Base 1.6
 (optional=templinst)_ZN5boost6detail17sp_counted_impl_pIN3pcl2io3ply10ply_parser13list_propertyItfEEED2Ev@Base 1.6
 (optional=templinst)_ZN5boost6detail17sp_counted_impl_pIN3pcl2io3ply10ply_parser13list_propertyIthEEE11get_deleterERKSt9type_info@Base 1.6
 (optional=templinst)_ZN5boost6detail17sp_counted_impl_pIN3pcl2io3ply10ply_parser13list_propertyIthEEE7disposeEv@Base 1.6
 (optional=templinst)_ZN5boost6detail17sp_counted_impl_pIN3pcl2io3ply10ply_parser13list_propertyIthEEED0Ev@Base 1.6
 (optional=templinst)_ZN5boost6detail17sp_counted_impl_pIN3pcl2io3ply10ply_parser13list_propertyIthEEED1Ev@Base 1.6
 (optional=templinst)_ZN5boost6detail17sp_counted_impl_pIN3pcl2io3ply10ply_parser13list_propertyIthEEED2Ev@Base 1.6
 (optional=templinst)_ZN5boost6detail17sp_counted_impl_pIN3pcl2io3ply10ply_parser13list_propertyItiEEE11get_deleterERKSt9type_info@Base 1.6
 (optional=templinst)_ZN5boost6detail17sp_counted_impl_pIN3pcl2io3ply10ply_parser13list_propertyItiEEE7disposeEv@Base 1.6
 (optional=templinst)_ZN5boost6detail17sp_counted_impl_pIN3pcl2io3ply10ply_parser13list_propertyItiEEED0Ev@Base 1.6
 (optional=templinst)_ZN5boost6detail17sp_counted_impl_pIN3pcl2io3ply10ply_parser13list_propertyItiEEED1Ev@Base 1.6
 (optional=templinst)_ZN5boost6detail17sp_counted_impl_pIN3pcl2io3ply10ply_parser13list_propertyItiEEED2Ev@Base 1.6
 (optional=templinst)_ZN5boost6detail17sp_counted_impl_pIN3pcl2io3ply10ply_parser13list_propertyItjEEE11get_deleterERKSt9type_info@Base 1.6
 (optional=templinst)_ZN5boost6detail17sp_counted_impl_pIN3pcl2io3ply10ply_parser13list_propertyItjEEE7disposeEv@Base 1.6
 (optional=templinst)_ZN5boost6detail17sp_counted_impl_pIN3pcl2io3ply10ply_parser13list_propertyItjEEED0Ev@Base 1.6
 (optional=templinst)_ZN5boost6detail17sp_counted_impl_pIN3pcl2io3ply10ply_parser13list_propertyItjEEED1Ev@Base 1.6
 (optional=templinst)_ZN5boost6detail17sp_counted_impl_pIN3pcl2io3ply10ply_parser13list_propertyItjEEED2Ev@Base 1.6
 (optional=templinst)_ZN5boost6detail17sp_counted_impl_pIN3pcl2io3ply10ply_parser13list_propertyItsEEE11get_deleterERKSt9type_info@Base 1.6
 (optional=templinst)_ZN5boost6detail17sp_counted_impl_pIN3pcl2io3ply10ply_parser13list_propertyItsEEE7disposeEv@Base 1.6
 (optional=templinst)_ZN5boost6detail17sp_counted_impl_pIN3pcl2io3ply10ply_parser13list_propertyItsEEED0Ev@Base 1.6
 (optional=templinst)_ZN5boost6detail17sp_counted_impl_pIN3pcl2io3ply10ply_parser13list_propertyItsEEED1Ev@Base 1.6
 (optional=templinst)_ZN5boost6detail17sp_counted_impl_pIN3pcl2io3ply10ply_parser13list_propertyItsEEED2Ev@Base 1.6
 (optional=templinst)_ZN5boost6detail17sp_counted_impl_pIN3pcl2io3ply10ply_parser13list_propertyIttEEE11get_deleterERKSt9type_info@Base 1.6
 (optional=templinst)_ZN5boost6detail17sp_counted_impl_pIN3pcl2io3ply10ply_parser13list_propertyIttEEE7disposeEv@Base 1.6
 (optional=templinst)_ZN5boost6detail17sp_counted_impl_pIN3pcl2io3ply10ply_parser13list_propertyIttEEED0Ev@Base 1.6
 (optional=templinst)_ZN5boost6detail17sp_counted_impl_pIN3pcl2io3ply10ply_parser13list_propertyIttEEED1Ev@Base 1.6
 (optional=templinst)_ZN5boost6detail17sp_counted_impl_pIN3pcl2io3ply10ply_parser13list_propertyIttEEED2Ev@Base 1.6
 (optional=templinst)_ZN5boost6detail17sp_counted_impl_pIN3pcl2io3ply10ply_parser15scalar_propertyIaEEE11get_deleterERKSt9type_info@Base 1.6
 (optional=templinst)_ZN5boost6detail17sp_counted_impl_pIN3pcl2io3ply10ply_parser15scalar_propertyIaEEE7disposeEv@Base 1.6
 (optional=templinst)_ZN5boost6detail17sp_counted_impl_pIN3pcl2io3ply10ply_parser15scalar_propertyIaEEED0Ev@Base 1.6
 (optional=templinst)_ZN5boost6detail17sp_counted_impl_pIN3pcl2io3ply10ply_parser15scalar_propertyIaEEED1Ev@Base 1.6
 (optional=templinst)_ZN5boost6detail17sp_counted_impl_pIN3pcl2io3ply10ply_parser15scalar_propertyIaEEED2Ev@Base 1.6
 (optional=templinst)_ZN5boost6detail17sp_counted_impl_pIN3pcl2io3ply10ply_parser15scalar_propertyIdEEE11get_deleterERKSt9type_info@Base 1.6
 (optional=templinst)_ZN5boost6detail17sp_counted_impl_pIN3pcl2io3ply10ply_parser15scalar_propertyIdEEE7disposeEv@Base 1.6
 (optional=templinst)_ZN5boost6detail17sp_counted_impl_pIN3pcl2io3ply10ply_parser15scalar_propertyIdEEED0Ev@Base 1.6
 (optional=templinst)_ZN5boost6detail17sp_counted_impl_pIN3pcl2io3ply10ply_parser15scalar_propertyIdEEED1Ev@Base 1.6
 (optional=templinst)_ZN5boost6detail17sp_counted_impl_pIN3pcl2io3ply10ply_parser15scalar_propertyIdEEED2Ev@Base 1.6
 (optional=templinst)_ZN5boost6detail17sp_counted_impl_pIN3pcl2io3ply10ply_parser15scalar_propertyIfEEE11get_deleterERKSt9type_info@Base 1.6
 (optional=templinst)_ZN5boost6detail17sp_counted_impl_pIN3pcl2io3ply10ply_parser15scalar_propertyIfEEE7disposeEv@Base 1.6
 (optional=templinst)_ZN5boost6detail17sp_counted_impl_pIN3pcl2io3ply10ply_parser15scalar_propertyIfEEED0Ev@Base 1.6
 (optional=templinst)_ZN5boost6detail17sp_counted_impl_pIN3pcl2io3ply10ply_parser15scalar_propertyIfEEED1Ev@Base 1.6
 (optional=templinst)_ZN5boost6detail17sp_counted_impl_pIN3pcl2io3ply10ply_parser15scalar_propertyIfEEED2Ev@Base 1.6
 (optional=templinst)_ZN5boost6detail17sp_counted_impl_pIN3pcl2io3ply10ply_parser15scalar_propertyIhEEE11get_deleterERKSt9type_info@Base 1.6
 (optional=templinst)_ZN5boost6detail17sp_counted_impl_pIN3pcl2io3ply10ply_parser15scalar_propertyIhEEE7disposeEv@Base 1.6
 (optional=templinst)_ZN5boost6detail17sp_counted_impl_pIN3pcl2io3ply10ply_parser15scalar_propertyIhEEED0Ev@Base 1.6
 (optional=templinst)_ZN5boost6detail17sp_counted_impl_pIN3pcl2io3ply10ply_parser15scalar_propertyIhEEED1Ev@Base 1.6
 (optional=templinst)_ZN5boost6detail17sp_counted_impl_pIN3pcl2io3ply10ply_parser15scalar_propertyIhEEED2Ev@Base 1.6
 (optional=templinst)_ZN5boost6detail17sp_counted_impl_pIN3pcl2io3ply10ply_parser15scalar_propertyIiEEE11get_deleterERKSt9type_info@Base 1.6
 (optional=templinst)_ZN5boost6detail17sp_counted_impl_pIN3pcl2io3ply10ply_parser15scalar_propertyIiEEE7disposeEv@Base 1.6
 (optional=templinst)_ZN5boost6detail17sp_counted_impl_pIN3pcl2io3ply10ply_parser15scalar_propertyIiEEED0Ev@Base 1.6
 (optional=templinst)_ZN5boost6detail17sp_counted_impl_pIN3pcl2io3ply10ply_parser15scalar_propertyIiEEED1Ev@Base 1.6
 (optional=templinst)_ZN5boost6detail17sp_counted_impl_pIN3pcl2io3ply10ply_parser15scalar_propertyIiEEED2Ev@Base 1.6
 (optional=templinst)_ZN5boost6detail17sp_counted_impl_pIN3pcl2io3ply10ply_parser15scalar_propertyIjEEE11get_deleterERKSt9type_info@Base 1.6
 (optional=templinst)_ZN5boost6detail17sp_counted_impl_pIN3pcl2io3ply10ply_parser15scalar_propertyIjEEE7disposeEv@Base 1.6
 (optional=templinst)_ZN5boost6detail17sp_counted_impl_pIN3pcl2io3ply10ply_parser15scalar_propertyIjEEED0Ev@Base 1.6
 (optional=templinst)_ZN5boost6detail17sp_counted_impl_pIN3pcl2io3ply10ply_parser15scalar_propertyIjEEED1Ev@Base 1.6
 (optional=templinst)_ZN5boost6detail17sp_counted_impl_pIN3pcl2io3ply10ply_parser15scalar_propertyIjEEED2Ev@Base 1.6
 (optional=templinst)_ZN5boost6detail17sp_counted_impl_pIN3pcl2io3ply10ply_parser15scalar_propertyIsEEE11get_deleterERKSt9type_info@Base 1.6
 (optional=templinst)_ZN5boost6detail17sp_counted_impl_pIN3pcl2io3ply10ply_parser15scalar_propertyIsEEE7disposeEv@Base 1.6
 (optional=templinst)_ZN5boost6detail17sp_counted_impl_pIN3pcl2io3ply10ply_parser15scalar_propertyIsEEED0Ev@Base 1.6
 (optional=templinst)_ZN5boost6detail17sp_counted_impl_pIN3pcl2io3ply10ply_parser15scalar_propertyIsEEED1Ev@Base 1.6
 (optional=templinst)_ZN5boost6detail17sp_counted_impl_pIN3pcl2io3ply10ply_parser15scalar_propertyIsEEED2Ev@Base 1.6
 (optional=templinst)_ZN5boost6detail17sp_counted_impl_pIN3pcl2io3ply10ply_parser15scalar_propertyItEEE11get_deleterERKSt9type_info@Base 1.6
 (optional=templinst)_ZN5boost6detail17sp_counted_impl_pIN3pcl2io3ply10ply_parser15scalar_propertyItEEE7disposeEv@Base 1.6
 (optional=templinst)_ZN5boost6detail17sp_counted_impl_pIN3pcl2io3ply10ply_parser15scalar_propertyItEEED0Ev@Base 1.6
 (optional=templinst)_ZN5boost6detail17sp_counted_impl_pIN3pcl2io3ply10ply_parser15scalar_propertyItEEED1Ev@Base 1.6
 (optional=templinst)_ZN5boost6detail17sp_counted_impl_pIN3pcl2io3ply10ply_parser15scalar_propertyItEEED2Ev@Base 1.6
 (optional=templinst)_ZN5boost6detail17sp_counted_impl_pIN3pcl2io3ply10ply_parser7elementEE11get_deleterERKSt9type_info@Base 1.6
 (optional=templinst)_ZN5boost6detail17sp_counted_impl_pIN3pcl2io3ply10ply_parser7elementEE7disposeEv@Base 1.6
 (optional=templinst)_ZN5boost6detail17sp_counted_impl_pIN3pcl2io3ply10ply_parser7elementEED0Ev@Base 1.6
 (optional=templinst)_ZN5boost6detail17sp_counted_impl_pIN3pcl2io3ply10ply_parser7elementEED1Ev@Base 1.6
 (optional=templinst)_ZN5boost6detail17sp_counted_impl_pIN3pcl2io3ply10ply_parser7elementEED2Ev@Base 1.6
 (optional=templinst)_ZN5boost6tuples4consINS_8functionIFvaEEENS1_INS2_IFvvEEENS0_9null_typeEEEED1Ev@Base 1.6
 (optional=templinst)_ZN5boost6tuples4consINS_8functionIFvaEEENS1_INS2_IFvvEEENS0_9null_typeEEEED2Ev@Base 1.6
 (optional=templinst)_ZN5boost6tuples4consINS_8functionIFvdEEENS1_INS2_IFvvEEENS0_9null_typeEEEED1Ev@Base 1.6
 (optional=templinst)_ZN5boost6tuples4consINS_8functionIFvdEEENS1_INS2_IFvvEEENS0_9null_typeEEEED2Ev@Base 1.6
 (optional=templinst)_ZN5boost6tuples4consINS_8functionIFvfEEENS1_INS2_IFvvEEENS0_9null_typeEEEED1Ev@Base 1.6
 (optional=templinst)_ZN5boost6tuples4consINS_8functionIFvfEEENS1_INS2_IFvvEEENS0_9null_typeEEEED2Ev@Base 1.6
 (optional=templinst)_ZN5boost6tuples4consINS_8functionIFvhEEENS1_INS2_IFvaEEENS1_INS2_IFvvEEENS0_9null_typeEEEEEED1Ev@Base 1.6
 (optional=templinst)_ZN5boost6tuples4consINS_8functionIFvhEEENS1_INS2_IFvaEEENS1_INS2_IFvvEEENS0_9null_typeEEEEEED2Ev@Base 1.6
 (optional=templinst)_ZN5boost6tuples4consINS_8functionIFvhEEENS1_INS2_IFvaEEENS1_INS2_IFvvEEENS0_9null_typeEEEEEEaSERKSC_@Base 1.6
 (optional=templinst)_ZN5boost6tuples4consINS_8functionIFvhEEENS1_INS2_IFvdEEENS1_INS2_IFvvEEENS0_9null_typeEEEEEED1Ev@Base 1.6
 (optional=templinst)_ZN5boost6tuples4consINS_8functionIFvhEEENS1_INS2_IFvdEEENS1_INS2_IFvvEEENS0_9null_typeEEEEEED2Ev@Base 1.6
 (optional=templinst)_ZN5boost6tuples4consINS_8functionIFvhEEENS1_INS2_IFvdEEENS1_INS2_IFvvEEENS0_9null_typeEEEEEEaSERKSC_@Base 1.6
 (optional=templinst)_ZN5boost6tuples4consINS_8functionIFvhEEENS1_INS2_IFvfEEENS1_INS2_IFvvEEENS0_9null_typeEEEEEED1Ev@Base 1.6
 (optional=templinst)_ZN5boost6tuples4consINS_8functionIFvhEEENS1_INS2_IFvfEEENS1_INS2_IFvvEEENS0_9null_typeEEEEEED2Ev@Base 1.6
 (optional=templinst)_ZN5boost6tuples4consINS_8functionIFvhEEENS1_INS2_IFvfEEENS1_INS2_IFvvEEENS0_9null_typeEEEEEEaSERKSC_@Base 1.6
 (optional=templinst)_ZN5boost6tuples4consINS_8functionIFvhEEENS1_INS2_IFviEEENS1_INS2_IFvvEEENS0_9null_typeEEEEEED1Ev@Base 1.6
 (optional=templinst)_ZN5boost6tuples4consINS_8functionIFvhEEENS1_INS2_IFviEEENS1_INS2_IFvvEEENS0_9null_typeEEEEEED2Ev@Base 1.6
 (optional=templinst)_ZN5boost6tuples4consINS_8functionIFvhEEENS1_INS2_IFviEEENS1_INS2_IFvvEEENS0_9null_typeEEEEEEaSERKSC_@Base 1.6
 (optional=templinst)_ZN5boost6tuples4consINS_8functionIFvhEEENS1_INS2_IFvjEEENS1_INS2_IFvvEEENS0_9null_typeEEEEEED1Ev@Base 1.6
 (optional=templinst)_ZN5boost6tuples4consINS_8functionIFvhEEENS1_INS2_IFvjEEENS1_INS2_IFvvEEENS0_9null_typeEEEEEED2Ev@Base 1.6
 (optional=templinst)_ZN5boost6tuples4consINS_8functionIFvhEEENS1_INS2_IFvjEEENS1_INS2_IFvvEEENS0_9null_typeEEEEEEaSERKSC_@Base 1.6
 (optional=templinst)_ZN5boost6tuples4consINS_8functionIFvhEEENS1_INS2_IFvsEEENS1_INS2_IFvvEEENS0_9null_typeEEEEEED1Ev@Base 1.6
 (optional=templinst)_ZN5boost6tuples4consINS_8functionIFvhEEENS1_INS2_IFvsEEENS1_INS2_IFvvEEENS0_9null_typeEEEEEED2Ev@Base 1.6
 (optional=templinst)_ZN5boost6tuples4consINS_8functionIFvhEEENS1_INS2_IFvsEEENS1_INS2_IFvvEEENS0_9null_typeEEEEEEaSERKSC_@Base 1.6
 (optional=templinst)_ZN5boost6tuples4consINS_8functionIFvhEEENS1_INS2_IFvtEEENS1_INS2_IFvvEEENS0_9null_typeEEEEEED1Ev@Base 1.6
 (optional=templinst)_ZN5boost6tuples4consINS_8functionIFvhEEENS1_INS2_IFvtEEENS1_INS2_IFvvEEENS0_9null_typeEEEEEED2Ev@Base 1.6
 (optional=templinst)_ZN5boost6tuples4consINS_8functionIFvhEEENS1_INS2_IFvtEEENS1_INS2_IFvvEEENS0_9null_typeEEEEEEaSERKSC_@Base 1.6
 (optional=templinst)_ZN5boost6tuples4consINS_8functionIFvhEEENS1_INS2_IFvvEEENS0_9null_typeEEEED1Ev@Base 1.6
 (optional=templinst)_ZN5boost6tuples4consINS_8functionIFvhEEENS1_INS2_IFvvEEENS0_9null_typeEEEED2Ev@Base 1.6
 (optional=templinst)_ZN5boost6tuples4consINS_8functionIFvhEEENS1_IS4_NS1_INS2_IFvvEEENS0_9null_typeEEEEEED1Ev@Base 1.6
 (optional=templinst)_ZN5boost6tuples4consINS_8functionIFvhEEENS1_IS4_NS1_INS2_IFvvEEENS0_9null_typeEEEEEED2Ev@Base 1.6
 (optional=templinst)_ZN5boost6tuples4consINS_8functionIFvhEEENS1_IS4_NS1_INS2_IFvvEEENS0_9null_typeEEEEEEaSERKSA_@Base 1.6
 (optional=templinst)_ZN5boost6tuples4consINS_8functionIFviEEENS1_INS2_IFvvEEENS0_9null_typeEEEED1Ev@Base 1.6
 (optional=templinst)_ZN5boost6tuples4consINS_8functionIFviEEENS1_INS2_IFvvEEENS0_9null_typeEEEED2Ev@Base 1.6
 (optional=templinst)_ZN5boost6tuples4consINS_8functionIFvjEEENS1_INS2_IFvaEEENS1_INS2_IFvvEEENS0_9null_typeEEEEEED1Ev@Base 1.6
 (optional=templinst)_ZN5boost6tuples4consINS_8functionIFvjEEENS1_INS2_IFvaEEENS1_INS2_IFvvEEENS0_9null_typeEEEEEED2Ev@Base 1.6
 (optional=templinst)_ZN5boost6tuples4consINS_8functionIFvjEEENS1_INS2_IFvaEEENS1_INS2_IFvvEEENS0_9null_typeEEEEEEaSERKSC_@Base 1.6
 (optional=templinst)_ZN5boost6tuples4consINS_8functionIFvjEEENS1_INS2_IFvdEEENS1_INS2_IFvvEEENS0_9null_typeEEEEEED1Ev@Base 1.6
 (optional=templinst)_ZN5boost6tuples4consINS_8functionIFvjEEENS1_INS2_IFvdEEENS1_INS2_IFvvEEENS0_9null_typeEEEEEED2Ev@Base 1.6
 (optional=templinst)_ZN5boost6tuples4consINS_8functionIFvjEEENS1_INS2_IFvdEEENS1_INS2_IFvvEEENS0_9null_typeEEEEEEaSERKSC_@Base 1.6
 (optional=templinst)_ZN5boost6tuples4consINS_8functionIFvjEEENS1_INS2_IFvfEEENS1_INS2_IFvvEEENS0_9null_typeEEEEEED1Ev@Base 1.6
 (optional=templinst)_ZN5boost6tuples4consINS_8functionIFvjEEENS1_INS2_IFvfEEENS1_INS2_IFvvEEENS0_9null_typeEEEEEED2Ev@Base 1.6
 (optional=templinst)_ZN5boost6tuples4consINS_8functionIFvjEEENS1_INS2_IFvfEEENS1_INS2_IFvvEEENS0_9null_typeEEEEEEaSERKSC_@Base 1.6
 (optional=templinst)_ZN5boost6tuples4consINS_8functionIFvjEEENS1_INS2_IFvhEEENS1_INS2_IFvvEEENS0_9null_typeEEEEEED1Ev@Base 1.6
 (optional=templinst)_ZN5boost6tuples4consINS_8functionIFvjEEENS1_INS2_IFvhEEENS1_INS2_IFvvEEENS0_9null_typeEEEEEED2Ev@Base 1.6
 (optional=templinst)_ZN5boost6tuples4consINS_8functionIFvjEEENS1_INS2_IFvhEEENS1_INS2_IFvvEEENS0_9null_typeEEEEEEaSERKSC_@Base 1.6
 (optional=templinst)_ZN5boost6tuples4consINS_8functionIFvjEEENS1_INS2_IFviEEENS1_INS2_IFvvEEENS0_9null_typeEEEEEED1Ev@Base 1.6
 (optional=templinst)_ZN5boost6tuples4consINS_8functionIFvjEEENS1_INS2_IFviEEENS1_INS2_IFvvEEENS0_9null_typeEEEEEED2Ev@Base 1.6
 (optional=templinst)_ZN5boost6tuples4consINS_8functionIFvjEEENS1_INS2_IFviEEENS1_INS2_IFvvEEENS0_9null_typeEEEEEEaSERKSC_@Base 1.6
 (optional=templinst)_ZN5boost6tuples4consINS_8functionIFvjEEENS1_INS2_IFvsEEENS1_INS2_IFvvEEENS0_9null_typeEEEEEED1Ev@Base 1.6
 (optional=templinst)_ZN5boost6tuples4consINS_8functionIFvjEEENS1_INS2_IFvsEEENS1_INS2_IFvvEEENS0_9null_typeEEEEEED2Ev@Base 1.6
 (optional=templinst)_ZN5boost6tuples4consINS_8functionIFvjEEENS1_INS2_IFvsEEENS1_INS2_IFvvEEENS0_9null_typeEEEEEEaSERKSC_@Base 1.6
 (optional=templinst)_ZN5boost6tuples4consINS_8functionIFvjEEENS1_INS2_IFvtEEENS1_INS2_IFvvEEENS0_9null_typeEEEEEED1Ev@Base 1.6
 (optional=templinst)_ZN5boost6tuples4consINS_8functionIFvjEEENS1_INS2_IFvtEEENS1_INS2_IFvvEEENS0_9null_typeEEEEEED2Ev@Base 1.6
 (optional=templinst)_ZN5boost6tuples4consINS_8functionIFvjEEENS1_INS2_IFvtEEENS1_INS2_IFvvEEENS0_9null_typeEEEEEEaSERKSC_@Base 1.6
 (optional=templinst)_ZN5boost6tuples4consINS_8functionIFvjEEENS1_INS2_IFvvEEENS0_9null_typeEEEED1Ev@Base 1.6
 (optional=templinst)_ZN5boost6tuples4consINS_8functionIFvjEEENS1_INS2_IFvvEEENS0_9null_typeEEEED2Ev@Base 1.6
 (optional=templinst)_ZN5boost6tuples4consINS_8functionIFvjEEENS1_IS4_NS1_INS2_IFvvEEENS0_9null_typeEEEEEED1Ev@Base 1.6
 (optional=templinst)_ZN5boost6tuples4consINS_8functionIFvjEEENS1_IS4_NS1_INS2_IFvvEEENS0_9null_typeEEEEEED2Ev@Base 1.6
 (optional=templinst)_ZN5boost6tuples4consINS_8functionIFvjEEENS1_IS4_NS1_INS2_IFvvEEENS0_9null_typeEEEEEEaSERKSA_@Base 1.6
 (optional=templinst)_ZN5boost6tuples4consINS_8functionIFvsEEENS1_INS2_IFvvEEENS0_9null_typeEEEED1Ev@Base 1.6
 (optional=templinst)_ZN5boost6tuples4consINS_8functionIFvsEEENS1_INS2_IFvvEEENS0_9null_typeEEEED2Ev@Base 1.6
 (optional=templinst)_ZN5boost6tuples4consINS_8functionIFvtEEENS1_INS2_IFvaEEENS1_INS2_IFvvEEENS0_9null_typeEEEEEED1Ev@Base 1.6
 (optional=templinst)_ZN5boost6tuples4consINS_8functionIFvtEEENS1_INS2_IFvaEEENS1_INS2_IFvvEEENS0_9null_typeEEEEEED2Ev@Base 1.6
 (optional=templinst)_ZN5boost6tuples4consINS_8functionIFvtEEENS1_INS2_IFvaEEENS1_INS2_IFvvEEENS0_9null_typeEEEEEEaSERKSC_@Base 1.6
 (optional=templinst)_ZN5boost6tuples4consINS_8functionIFvtEEENS1_INS2_IFvdEEENS1_INS2_IFvvEEENS0_9null_typeEEEEEED1Ev@Base 1.6
 (optional=templinst)_ZN5boost6tuples4consINS_8functionIFvtEEENS1_INS2_IFvdEEENS1_INS2_IFvvEEENS0_9null_typeEEEEEED2Ev@Base 1.6
 (optional=templinst)_ZN5boost6tuples4consINS_8functionIFvtEEENS1_INS2_IFvdEEENS1_INS2_IFvvEEENS0_9null_typeEEEEEEaSERKSC_@Base 1.6
 (optional=templinst)_ZN5boost6tuples4consINS_8functionIFvtEEENS1_INS2_IFvfEEENS1_INS2_IFvvEEENS0_9null_typeEEEEEED1Ev@Base 1.6
 (optional=templinst)_ZN5boost6tuples4consINS_8functionIFvtEEENS1_INS2_IFvfEEENS1_INS2_IFvvEEENS0_9null_typeEEEEEED2Ev@Base 1.6
 (optional=templinst)_ZN5boost6tuples4consINS_8functionIFvtEEENS1_INS2_IFvfEEENS1_INS2_IFvvEEENS0_9null_typeEEEEEEaSERKSC_@Base 1.6
 (optional=templinst)_ZN5boost6tuples4consINS_8functionIFvtEEENS1_INS2_IFvhEEENS1_INS2_IFvvEEENS0_9null_typeEEEEEED1Ev@Base 1.6
 (optional=templinst)_ZN5boost6tuples4consINS_8functionIFvtEEENS1_INS2_IFvhEEENS1_INS2_IFvvEEENS0_9null_typeEEEEEED2Ev@Base 1.6
 (optional=templinst)_ZN5boost6tuples4consINS_8functionIFvtEEENS1_INS2_IFvhEEENS1_INS2_IFvvEEENS0_9null_typeEEEEEEaSERKSC_@Base 1.6
 (optional=templinst)_ZN5boost6tuples4consINS_8functionIFvtEEENS1_INS2_IFviEEENS1_INS2_IFvvEEENS0_9null_typeEEEEEED1Ev@Base 1.6
 (optional=templinst)_ZN5boost6tuples4consINS_8functionIFvtEEENS1_INS2_IFviEEENS1_INS2_IFvvEEENS0_9null_typeEEEEEED2Ev@Base 1.6
 (optional=templinst)_ZN5boost6tuples4consINS_8functionIFvtEEENS1_INS2_IFviEEENS1_INS2_IFvvEEENS0_9null_typeEEEEEEaSERKSC_@Base 1.6
 (optional=templinst)_ZN5boost6tuples4consINS_8functionIFvtEEENS1_INS2_IFvjEEENS1_INS2_IFvvEEENS0_9null_typeEEEEEED1Ev@Base 1.6
 (optional=templinst)_ZN5boost6tuples4consINS_8functionIFvtEEENS1_INS2_IFvjEEENS1_INS2_IFvvEEENS0_9null_typeEEEEEED2Ev@Base 1.6
 (optional=templinst)_ZN5boost6tuples4consINS_8functionIFvtEEENS1_INS2_IFvjEEENS1_INS2_IFvvEEENS0_9null_typeEEEEEEaSERKSC_@Base 1.6
 (optional=templinst)_ZN5boost6tuples4consINS_8functionIFvtEEENS1_INS2_IFvsEEENS1_INS2_IFvvEEENS0_9null_typeEEEEEED1Ev@Base 1.6
 (optional=templinst)_ZN5boost6tuples4consINS_8functionIFvtEEENS1_INS2_IFvsEEENS1_INS2_IFvvEEENS0_9null_typeEEEEEED2Ev@Base 1.6
 (optional=templinst)_ZN5boost6tuples4consINS_8functionIFvtEEENS1_INS2_IFvsEEENS1_INS2_IFvvEEENS0_9null_typeEEEEEEaSERKSC_@Base 1.6
 (optional=templinst)_ZN5boost6tuples4consINS_8functionIFvtEEENS1_INS2_IFvvEEENS0_9null_typeEEEED1Ev@Base 1.6
 (optional=templinst)_ZN5boost6tuples4consINS_8functionIFvtEEENS1_INS2_IFvvEEENS0_9null_typeEEEED2Ev@Base 1.6
 (optional=templinst)_ZN5boost6tuples4consINS_8functionIFvtEEENS1_IS4_NS1_INS2_IFvvEEENS0_9null_typeEEEEEED1Ev@Base 1.6
 (optional=templinst)_ZN5boost6tuples4consINS_8functionIFvtEEENS1_IS4_NS1_INS2_IFvvEEENS0_9null_typeEEEEEED2Ev@Base 1.6
 (optional=templinst)_ZN5boost6tuples4consINS_8functionIFvtEEENS1_IS4_NS1_INS2_IFvvEEENS0_9null_typeEEEEEEaSERKSA_@Base 1.6
 (optional=templinst)_ZN5boost6tuples4consINS_8functionIFvvEEENS1_IS4_NS0_9null_typeEEEED1Ev@Base 1.6
 (optional=templinst)_ZN5boost6tuples4consINS_8functionIFvvEEENS1_IS4_NS0_9null_typeEEEED2Ev@Base 1.6
 (optional=templinst)_ZN5boost6tuples4consINS_8functionIFvvEEENS1_IS4_NS0_9null_typeEEEEaSERKS7_@Base 1.6
 (optional=templinst)_ZN5boost8functionIFvaEED1Ev@Base 1.6
 (optional=templinst)_ZN5boost8functionIFvaEED2Ev@Base 1.6
 (optional=templinst)_ZN5boost8functionIFvaEEaSERKS2_@Base 1.6
 (optional=templinst)_ZN5boost8functionIFvdEED1Ev@Base 1.6
 (optional=templinst)_ZN5boost8functionIFvdEED2Ev@Base 1.6
 (optional=templinst)_ZN5boost8functionIFvdEEaSERKS2_@Base 1.6
 (optional=templinst)_ZN5boost8functionIFvfEED1Ev@Base 1.6
 (optional=templinst)_ZN5boost8functionIFvfEED2Ev@Base 1.6
 (optional=templinst)_ZN5boost8functionIFvfEEaSERKS2_@Base 1.6
 (optional=templinst)_ZN5boost8functionIFvhEED1Ev@Base 1.6
 (optional=templinst)_ZN5boost8functionIFvhEED2Ev@Base 1.6
 (optional=templinst)_ZN5boost8functionIFvhEEaSERKS2_@Base 1.6
 (optional=templinst)_ZN5boost8functionIFviEED1Ev@Base 1.6
 (optional=templinst)_ZN5boost8functionIFviEED2Ev@Base 1.6
 (optional=templinst)_ZN5boost8functionIFviEEaSERKS2_@Base 1.6
 (optional=templinst)_ZN5boost8functionIFvjEED1Ev@Base 1.6
 (optional=templinst)_ZN5boost8functionIFvjEED2Ev@Base 1.6
 (optional=templinst)_ZN5boost8functionIFvjEEaSERKS2_@Base 1.6
 (optional=templinst)_ZN5boost8functionIFvsEED1Ev@Base 1.6
 (optional=templinst)_ZN5boost8functionIFvsEED2Ev@Base 1.6
 (optional=templinst)_ZN5boost8functionIFvsEEaSERKS2_@Base 1.6
 (optional=templinst)_ZN5boost8functionIFvtEED1Ev@Base 1.6
 (optional=templinst)_ZN5boost8functionIFvtEED2Ev@Base 1.6
 (optional=templinst)_ZN5boost8functionIFvtEEaSERKS2_@Base 1.6
 (optional=templinst)_ZN5boost8functionIFvvEED1Ev@Base 1.6
 (optional=templinst)_ZN5boost8functionIFvvEED2Ev@Base 1.6
 (optional=templinst)_ZN5boost8functionIFvvEEaSERKS2_@Base 1.6
 _ZN5boost9exceptionD0Ev@Base 1.6
 _ZN5boost9exceptionD1Ev@Base 1.6
 _ZN5boost9exceptionD2Ev@Base 1.6
 (optional=templinst)_ZN5boost9function0IbE5dummy7nonnullEv@Base 1.6
 (optional=templinst)_ZN5boost9function0IvE11move_assignERS1_@Base 1.6
 (optional=templinst)_ZN5boost9function0IvE13assign_to_ownERKS1_@Base 1.6
 (optional=templinst)_ZN5boost9function0IvE4swapERS1_@Base 1.6
 (optional=templinst)_ZN5boost9function0IvE5clearEv@Base 1.6
 (optional=templinst)_ZN5boost9function0IvE5dummy7nonnullEv@Base 1.6
 (optional=templinst)_ZN5boost9function1IvRKSsE5dummy7nonnullEv@Base 1.6
 (optional=templinst)_ZN5boost9function1IvaE11move_assignERS1_@Base 1.6
 (optional=templinst)_ZN5boost9function1IvaE13assign_to_ownERKS1_@Base 1.6
 (optional=templinst)_ZN5boost9function1IvaE4swapERS1_@Base 1.6
 (optional=templinst)_ZN5boost9function1IvaE5clearEv@Base 1.6
 (optional=templinst)_ZN5boost9function1IvaE5dummy7nonnullEv@Base 1.6
 (optional=templinst)_ZN5boost9function1IvdE11move_assignERS1_@Base 1.6
 (optional=templinst)_ZN5boost9function1IvdE13assign_to_ownERKS1_@Base 1.6
 (optional=templinst)_ZN5boost9function1IvdE4swapERS1_@Base 1.6
 (optional=templinst)_ZN5boost9function1IvdE5clearEv@Base 1.6
 (optional=templinst)_ZN5boost9function1IvdE5dummy7nonnullEv@Base 1.6
 (optional=templinst)_ZN5boost9function1IvfE11move_assignERS1_@Base 1.6
 (optional=templinst)_ZN5boost9function1IvfE13assign_to_ownERKS1_@Base 1.6
 (optional=templinst)_ZN5boost9function1IvfE4swapERS1_@Base 1.6
 (optional=templinst)_ZN5boost9function1IvfE5clearEv@Base 1.6
 (optional=templinst)_ZN5boost9function1IvfE5dummy7nonnullEv@Base 1.6
 (optional=templinst)_ZN5boost9function1IvhE11move_assignERS1_@Base 1.6
 (optional=templinst)_ZN5boost9function1IvhE13assign_to_ownERKS1_@Base 1.6
 (optional=templinst)_ZN5boost9function1IvhE4swapERS1_@Base 1.6
 (optional=templinst)_ZN5boost9function1IvhE5clearEv@Base 1.6
 (optional=templinst)_ZN5boost9function1IvhE5dummy7nonnullEv@Base 1.6
 (optional=templinst)_ZN5boost9function1IviE11move_assignERS1_@Base 1.6
 (optional=templinst)_ZN5boost9function1IviE13assign_to_ownERKS1_@Base 1.6
 (optional=templinst)_ZN5boost9function1IviE4swapERS1_@Base 1.6
 (optional=templinst)_ZN5boost9function1IviE5clearEv@Base 1.6
 (optional=templinst)_ZN5boost9function1IviE5dummy7nonnullEv@Base 1.6
 (optional=templinst)_ZN5boost9function1IvjE11move_assignERS1_@Base 1.6
 (optional=templinst)_ZN5boost9function1IvjE13assign_to_ownERKS1_@Base 1.6
 (optional=templinst)_ZN5boost9function1IvjE4swapERS1_@Base 1.6
 (optional=templinst)_ZN5boost9function1IvjE5clearEv@Base 1.6
 (optional=templinst)_ZN5boost9function1IvjE5dummy7nonnullEv@Base 1.6
 (optional=templinst)_ZN5boost9function1IvsE11move_assignERS1_@Base 1.6
 (optional=templinst)_ZN5boost9function1IvsE13assign_to_ownERKS1_@Base 1.6
 (optional=templinst)_ZN5boost9function1IvsE4swapERS1_@Base 1.6
 (optional=templinst)_ZN5boost9function1IvsE5clearEv@Base 1.6
 (optional=templinst)_ZN5boost9function1IvsE5dummy7nonnullEv@Base 1.6
 (optional=templinst)_ZN5boost9function1IvtE11move_assignERS1_@Base 1.6
 (optional=templinst)_ZN5boost9function1IvtE13assign_to_ownERKS1_@Base 1.6
 (optional=templinst)_ZN5boost9function1IvtE4swapERS1_@Base 1.6
 (optional=templinst)_ZN5boost9function1IvtE5clearEv@Base 1.6
 (optional=templinst)_ZN5boost9function1IvtE5dummy7nonnullEv@Base 1.6
 (optional=templinst)_ZN5boost9function2INS_6tuples5tupleINS_8functionIFvhEEENS3_IFvaEEENS3_IFvvEEENS1_9null_typeESA_SA_SA_SA_SA_SA_EERKSsSD_E5dummy7nonnullEv@Base 1.6
 (optional=templinst)_ZN5boost9function2INS_6tuples5tupleINS_8functionIFvhEEENS3_IFvdEEENS3_IFvvEEENS1_9null_typeESA_SA_SA_SA_SA_SA_EERKSsSD_E5dummy7nonnullEv@Base 1.6
 (optional=templinst)_ZN5boost9function2INS_6tuples5tupleINS_8functionIFvhEEENS3_IFvfEEENS3_IFvvEEENS1_9null_typeESA_SA_SA_SA_SA_SA_EERKSsSD_E5dummy7nonnullEv@Base 1.6
 (optional=templinst)_ZN5boost9function2INS_6tuples5tupleINS_8functionIFvhEEENS3_IFviEEENS3_IFvvEEENS1_9null_typeESA_SA_SA_SA_SA_SA_EERKSsSD_E5dummy7nonnullEv@Base 1.6
 (optional=templinst)_ZN5boost9function2INS_6tuples5tupleINS_8functionIFvhEEENS3_IFvjEEENS3_IFvvEEENS1_9null_typeESA_SA_SA_SA_SA_SA_EERKSsSD_E5dummy7nonnullEv@Base 1.6
 (optional=templinst)_ZN5boost9function2INS_6tuples5tupleINS_8functionIFvhEEENS3_IFvsEEENS3_IFvvEEENS1_9null_typeESA_SA_SA_SA_SA_SA_EERKSsSD_E5dummy7nonnullEv@Base 1.6
 (optional=templinst)_ZN5boost9function2INS_6tuples5tupleINS_8functionIFvhEEENS3_IFvtEEENS3_IFvvEEENS1_9null_typeESA_SA_SA_SA_SA_SA_EERKSsSD_E5dummy7nonnullEv@Base 1.6
 (optional=templinst)_ZN5boost9function2INS_6tuples5tupleINS_8functionIFvhEEES5_NS3_IFvvEEENS1_9null_typeES8_S8_S8_S8_S8_S8_EERKSsSB_E5dummy7nonnullEv@Base 1.6
 (optional=templinst)_ZN5boost9function2INS_6tuples5tupleINS_8functionIFvjEEENS3_IFvaEEENS3_IFvvEEENS1_9null_typeESA_SA_SA_SA_SA_SA_EERKSsSD_E5dummy7nonnullEv@Base 1.6
 (optional=templinst)_ZN5boost9function2INS_6tuples5tupleINS_8functionIFvjEEENS3_IFvdEEENS3_IFvvEEENS1_9null_typeESA_SA_SA_SA_SA_SA_EERKSsSD_E5dummy7nonnullEv@Base 1.6
 (optional=templinst)_ZN5boost9function2INS_6tuples5tupleINS_8functionIFvjEEENS3_IFvfEEENS3_IFvvEEENS1_9null_typeESA_SA_SA_SA_SA_SA_EERKSsSD_E5dummy7nonnullEv@Base 1.6
 (optional=templinst)_ZN5boost9function2INS_6tuples5tupleINS_8functionIFvjEEENS3_IFvhEEENS3_IFvvEEENS1_9null_typeESA_SA_SA_SA_SA_SA_EERKSsSD_E5dummy7nonnullEv@Base 1.6
 (optional=templinst)_ZN5boost9function2INS_6tuples5tupleINS_8functionIFvjEEENS3_IFviEEENS3_IFvvEEENS1_9null_typeESA_SA_SA_SA_SA_SA_EERKSsSD_E5dummy7nonnullEv@Base 1.6
 (optional=templinst)_ZN5boost9function2INS_6tuples5tupleINS_8functionIFvjEEENS3_IFvsEEENS3_IFvvEEENS1_9null_typeESA_SA_SA_SA_SA_SA_EERKSsSD_E5dummy7nonnullEv@Base 1.6
 (optional=templinst)_ZN5boost9function2INS_6tuples5tupleINS_8functionIFvjEEENS3_IFvtEEENS3_IFvvEEENS1_9null_typeESA_SA_SA_SA_SA_SA_EERKSsSD_E5dummy7nonnullEv@Base 1.6
 (optional=templinst)_ZN5boost9function2INS_6tuples5tupleINS_8functionIFvjEEES5_NS3_IFvvEEENS1_9null_typeES8_S8_S8_S8_S8_S8_EERKSsSB_E5dummy7nonnullEv@Base 1.6
 (optional=templinst)_ZN5boost9function2INS_6tuples5tupleINS_8functionIFvtEEENS3_IFvaEEENS3_IFvvEEENS1_9null_typeESA_SA_SA_SA_SA_SA_EERKSsSD_E5dummy7nonnullEv@Base 1.6
 (optional=templinst)_ZN5boost9function2INS_6tuples5tupleINS_8functionIFvtEEENS3_IFvdEEENS3_IFvvEEENS1_9null_typeESA_SA_SA_SA_SA_SA_EERKSsSD_E5dummy7nonnullEv@Base 1.6
 (optional=templinst)_ZN5boost9function2INS_6tuples5tupleINS_8functionIFvtEEENS3_IFvfEEENS3_IFvvEEENS1_9null_typeESA_SA_SA_SA_SA_SA_EERKSsSD_E5dummy7nonnullEv@Base 1.6
 (optional=templinst)_ZN5boost9function2INS_6tuples5tupleINS_8functionIFvtEEENS3_IFvhEEENS3_IFvvEEENS1_9null_typeESA_SA_SA_SA_SA_SA_EERKSsSD_E5dummy7nonnullEv@Base 1.6
 (optional=templinst)_ZN5boost9function2INS_6tuples5tupleINS_8functionIFvtEEENS3_IFviEEENS3_IFvvEEENS1_9null_typeESA_SA_SA_SA_SA_SA_EERKSsSD_E5dummy7nonnullEv@Base 1.6
 (optional=templinst)_ZN5boost9function2INS_6tuples5tupleINS_8functionIFvtEEENS3_IFvjEEENS3_IFvvEEENS1_9null_typeESA_SA_SA_SA_SA_SA_EERKSsSD_E5dummy7nonnullEv@Base 1.6
 (optional=templinst)_ZN5boost9function2INS_6tuples5tupleINS_8functionIFvtEEENS3_IFvsEEENS3_IFvvEEENS1_9null_typeESA_SA_SA_SA_SA_SA_EERKSsSD_E5dummy7nonnullEv@Base 1.6
 (optional=templinst)_ZN5boost9function2INS_6tuples5tupleINS_8functionIFvtEEES5_NS3_IFvvEEENS1_9null_typeES8_S8_S8_S8_S8_S8_EERKSsSB_E5dummy7nonnullEv@Base 1.6
 (optional=templinst)_ZN5boost9function2INS_6tuples5tupleINS_8functionIFvvEEES5_NS1_9null_typeES6_S6_S6_S6_S6_S6_S6_EERKSsmE5dummy7nonnullEv@Base 1.6
 (optional=templinst)_ZN5boost9function2INS_8functionIFvaEEERKSsS5_E5dummy7nonnullEv@Base 1.6
 (optional=templinst)_ZN5boost9function2INS_8functionIFvdEEERKSsS5_E5dummy7nonnullEv@Base 1.6
 (optional=templinst)_ZN5boost9function2INS_8functionIFvfEEERKSsS5_E5dummy7nonnullEv@Base 1.6
 (optional=templinst)_ZN5boost9function2INS_8functionIFvhEEERKSsS5_E5dummy7nonnullEv@Base 1.6
 (optional=templinst)_ZN5boost9function2INS_8functionIFviEEERKSsS5_E5dummy7nonnullEv@Base 1.6
 (optional=templinst)_ZN5boost9function2INS_8functionIFvjEEERKSsS5_E5dummy7nonnullEv@Base 1.6
 (optional=templinst)_ZN5boost9function2INS_8functionIFvsEEERKSsS5_E5dummy7nonnullEv@Base 1.6
 (optional=templinst)_ZN5boost9function2INS_8functionIFvtEEERKSsS5_E5dummy7nonnullEv@Base 1.6
 (optional=templinst)_ZN5boost9function2IviRKSsE5dummy7nonnullEv@Base 1.6
 (optional=templinst)_ZN5boost9function2IvmRKSsE5dummy7nonnullEv@Base 1.6
 (optional=templinst)_ZNK5boost16exception_detail10clone_implINS0_19error_info_injectorINS_17bad_function_callEEEE5cloneEv@Base 1.6
 (optional=templinst)_ZNK5boost16exception_detail10clone_implINS0_19error_info_injectorINS_17bad_function_callEEEE7rethrowEv@Base 1.6
 (optional=templinst)_ZNK5boost9function0IbEclEv@Base 1.6
 (optional=templinst)_ZNK5boost9function0IvEclEv@Base 1.6
 (optional=templinst)_ZNK5boost9function1IvRKSsEclES2_@Base 1.6
 (optional=templinst)_ZNK5boost9function1IvaEclEa@Base 1.6
 (optional=templinst)_ZNK5boost9function1IvdEclEd@Base 1.6
 (optional=templinst)_ZNK5boost9function1IvfEclEf@Base 1.6
 (optional=templinst)_ZNK5boost9function1IvhEclEh@Base 1.6
 (optional=templinst)_ZNK5boost9function1IviEclEi@Base 1.6
 (optional=templinst)_ZNK5boost9function1IvjEclEj@Base 1.6
 (optional=templinst)_ZNK5boost9function1IvsEclEs@Base 1.6
 (optional=templinst)_ZNK5boost9function1IvtEclEt@Base 1.6
 (optional=templinst)_ZNK5boost9function2INS_6tuples5tupleINS_8functionIFvhEEENS3_IFvaEEENS3_IFvvEEENS1_9null_typeESA_SA_SA_SA_SA_SA_EERKSsSD_EclESD_SD_@Base 1.6
 (optional=templinst)_ZNK5boost9function2INS_6tuples5tupleINS_8functionIFvhEEENS3_IFvdEEENS3_IFvvEEENS1_9null_typeESA_SA_SA_SA_SA_SA_EERKSsSD_EclESD_SD_@Base 1.6
 (optional=templinst)_ZNK5boost9function2INS_6tuples5tupleINS_8functionIFvhEEENS3_IFvfEEENS3_IFvvEEENS1_9null_typeESA_SA_SA_SA_SA_SA_EERKSsSD_EclESD_SD_@Base 1.6
 (optional=templinst)_ZNK5boost9function2INS_6tuples5tupleINS_8functionIFvhEEENS3_IFviEEENS3_IFvvEEENS1_9null_typeESA_SA_SA_SA_SA_SA_EERKSsSD_EclESD_SD_@Base 1.6
 (optional=templinst)_ZNK5boost9function2INS_6tuples5tupleINS_8functionIFvhEEENS3_IFvjEEENS3_IFvvEEENS1_9null_typeESA_SA_SA_SA_SA_SA_EERKSsSD_EclESD_SD_@Base 1.6
 (optional=templinst)_ZNK5boost9function2INS_6tuples5tupleINS_8functionIFvhEEENS3_IFvsEEENS3_IFvvEEENS1_9null_typeESA_SA_SA_SA_SA_SA_EERKSsSD_EclESD_SD_@Base 1.6
 (optional=templinst)_ZNK5boost9function2INS_6tuples5tupleINS_8functionIFvhEEENS3_IFvtEEENS3_IFvvEEENS1_9null_typeESA_SA_SA_SA_SA_SA_EERKSsSD_EclESD_SD_@Base 1.6
 (optional=templinst)_ZNK5boost9function2INS_6tuples5tupleINS_8functionIFvhEEES5_NS3_IFvvEEENS1_9null_typeES8_S8_S8_S8_S8_S8_EERKSsSB_EclESB_SB_@Base 1.6
 (optional=templinst)_ZNK5boost9function2INS_6tuples5tupleINS_8functionIFvjEEENS3_IFvaEEENS3_IFvvEEENS1_9null_typeESA_SA_SA_SA_SA_SA_EERKSsSD_EclESD_SD_@Base 1.6
 (optional=templinst)_ZNK5boost9function2INS_6tuples5tupleINS_8functionIFvjEEENS3_IFvdEEENS3_IFvvEEENS1_9null_typeESA_SA_SA_SA_SA_SA_EERKSsSD_EclESD_SD_@Base 1.6
 (optional=templinst)_ZNK5boost9function2INS_6tuples5tupleINS_8functionIFvjEEENS3_IFvfEEENS3_IFvvEEENS1_9null_typeESA_SA_SA_SA_SA_SA_EERKSsSD_EclESD_SD_@Base 1.6
 (optional=templinst)_ZNK5boost9function2INS_6tuples5tupleINS_8functionIFvjEEENS3_IFvhEEENS3_IFvvEEENS1_9null_typeESA_SA_SA_SA_SA_SA_EERKSsSD_EclESD_SD_@Base 1.6
 (optional=templinst)_ZNK5boost9function2INS_6tuples5tupleINS_8functionIFvjEEENS3_IFviEEENS3_IFvvEEENS1_9null_typeESA_SA_SA_SA_SA_SA_EERKSsSD_EclESD_SD_@Base 1.6
 (optional=templinst)_ZNK5boost9function2INS_6tuples5tupleINS_8functionIFvjEEENS3_IFvsEEENS3_IFvvEEENS1_9null_typeESA_SA_SA_SA_SA_SA_EERKSsSD_EclESD_SD_@Base 1.6
 (optional=templinst)_ZNK5boost9function2INS_6tuples5tupleINS_8functionIFvjEEENS3_IFvtEEENS3_IFvvEEENS1_9null_typeESA_SA_SA_SA_SA_SA_EERKSsSD_EclESD_SD_@Base 1.6
 (optional=templinst)_ZNK5boost9function2INS_6tuples5tupleINS_8functionIFvjEEES5_NS3_IFvvEEENS1_9null_typeES8_S8_S8_S8_S8_S8_EERKSsSB_EclESB_SB_@Base 1.6
 (optional=templinst)_ZNK5boost9function2INS_6tuples5tupleINS_8functionIFvtEEENS3_IFvaEEENS3_IFvvEEENS1_9null_typeESA_SA_SA_SA_SA_SA_EERKSsSD_EclESD_SD_@Base 1.6
 (optional=templinst)_ZNK5boost9function2INS_6tuples5tupleINS_8functionIFvtEEENS3_IFvdEEENS3_IFvvEEENS1_9null_typeESA_SA_SA_SA_SA_SA_EERKSsSD_EclESD_SD_@Base 1.6
 (optional=templinst)_ZNK5boost9function2INS_6tuples5tupleINS_8functionIFvtEEENS3_IFvfEEENS3_IFvvEEENS1_9null_typeESA_SA_SA_SA_SA_SA_EERKSsSD_EclESD_SD_@Base 1.6
 (optional=templinst)_ZNK5boost9function2INS_6tuples5tupleINS_8functionIFvtEEENS3_IFvhEEENS3_IFvvEEENS1_9null_typeESA_SA_SA_SA_SA_SA_EERKSsSD_EclESD_SD_@Base 1.6
 (optional=templinst)_ZNK5boost9function2INS_6tuples5tupleINS_8functionIFvtEEENS3_IFviEEENS3_IFvvEEENS1_9null_typeESA_SA_SA_SA_SA_SA_EERKSsSD_EclESD_SD_@Base 1.6
 (optional=templinst)_ZNK5boost9function2INS_6tuples5tupleINS_8functionIFvtEEENS3_IFvjEEENS3_IFvvEEENS1_9null_typeESA_SA_SA_SA_SA_SA_EERKSsSD_EclESD_SD_@Base 1.6
 (optional=templinst)_ZNK5boost9function2INS_6tuples5tupleINS_8functionIFvtEEENS3_IFvsEEENS3_IFvvEEENS1_9null_typeESA_SA_SA_SA_SA_SA_EERKSsSD_EclESD_SD_@Base 1.6
 (optional=templinst)_ZNK5boost9function2INS_6tuples5tupleINS_8functionIFvtEEES5_NS3_IFvvEEENS1_9null_typeES8_S8_S8_S8_S8_S8_EERKSsSB_EclESB_SB_@Base 1.6
 (optional=templinst)_ZNK5boost9function2INS_6tuples5tupleINS_8functionIFvvEEES5_NS1_9null_typeES6_S6_S6_S6_S6_S6_S6_EERKSsmEclES9_m@Base 1.6
 (optional=templinst)_ZNK5boost9function2INS_8functionIFvaEEERKSsS5_EclES5_S5_@Base 1.6
 (optional=templinst)_ZNK5boost9function2INS_8functionIFvdEEERKSsS5_EclES5_S5_@Base 1.6
 (optional=templinst)_ZNK5boost9function2INS_8functionIFvfEEERKSsS5_EclES5_S5_@Base 1.6
 (optional=templinst)_ZNK5boost9function2INS_8functionIFvhEEERKSsS5_EclES5_S5_@Base 1.6
 (optional=templinst)_ZNK5boost9function2INS_8functionIFviEEERKSsS5_EclES5_S5_@Base 1.6
 (optional=templinst)_ZNK5boost9function2INS_8functionIFvjEEERKSsS5_EclES5_S5_@Base 1.6
 (optional=templinst)_ZNK5boost9function2INS_8functionIFvsEEERKSsS5_EclES5_S5_@Base 1.6
 (optional=templinst)_ZNK5boost9function2INS_8functionIFvtEEERKSsS5_EclES5_S5_@Base 1.6
 (optional=templinst)_ZNK5boost9function2IviRKSsEclEiS2_@Base 1.6
 (optional=templinst)_ZNK5boost9function2IvmRKSsEclEmS2_@Base 1.6
 (optional=templinst)_ZNKSt6vectorIN5boost10shared_ptrIN3pcl2io3ply10ply_parser7elementEEESaIS7_EE12_M_check_lenEmPKc@Base 1.6
 (optional=templinst)_ZNKSt6vectorIN5boost10shared_ptrIN3pcl2io3ply10ply_parser8propertyEEESaIS7_EE12_M_check_lenEmPKc@Base 1.6
 (optional=templinst)_ZNSt12_Destroy_auxILb0EE9__destroyIPN5boost10shared_ptrIN3pcl2io3ply10ply_parser7elementEEEEEvT_SB_@Base 1.6
 (optional=templinst)_ZNSt12_Destroy_auxILb0EE9__destroyIPN5boost10shared_ptrIN3pcl2io3ply10ply_parser8propertyEEEEEvT_SB_@Base 1.6
 (optional=templinst)_ZNSt12_Vector_baseIN5boost10shared_ptrIN3pcl2io3ply10ply_parser7elementEEESaIS7_EED1Ev@Base 1.6
 (optional=templinst)_ZNSt12_Vector_baseIN5boost10shared_ptrIN3pcl2io3ply10ply_parser7elementEEESaIS7_EED2Ev@Base 1.6
 (optional=templinst)_ZNSt12_Vector_baseIN5boost10shared_ptrIN3pcl2io3ply10ply_parser8propertyEEESaIS7_EED1Ev@Base 1.6
 (optional=templinst)_ZNSt12_Vector_baseIN5boost10shared_ptrIN3pcl2io3ply10ply_parser8propertyEEESaIS7_EED2Ev@Base 1.6
 (optional=templinst)_ZNSt20__copy_move_backwardILb0ELb0ESt26random_access_iterator_tagE13__copy_move_bIPN5boost10shared_ptrIN3pcl2io3ply10ply_parser7elementEEESB_EET0_T_SD_SC_@Base 1.6
 (optional=templinst)_ZNSt20__copy_move_backwardILb0ELb0ESt26random_access_iterator_tagE13__copy_move_bIPN5boost10shared_ptrIN3pcl2io3ply10ply_parser8propertyEEESB_EET0_T_SD_SC_@Base 1.6
 (optional=templinst)_ZNSt6vectorIN5boost10shared_ptrIN3pcl2io3ply10ply_parser7elementEEESaIS7_EE13_M_insert_auxEN9__gnu_cxx17__normal_iteratorIPS7_S9_EERKS7_@Base 1.6
 (optional=templinst)_ZNSt6vectorIN5boost10shared_ptrIN3pcl2io3ply10ply_parser7elementEEESaIS7_EE9push_backERKS7_@Base 1.6
 (optional=templinst)_ZNSt6vectorIN5boost10shared_ptrIN3pcl2io3ply10ply_parser7elementEEESaIS7_EED1Ev@Base 1.6
 (optional=templinst)_ZNSt6vectorIN5boost10shared_ptrIN3pcl2io3ply10ply_parser7elementEEESaIS7_EED2Ev@Base 1.6
 (optional=templinst)_ZNSt6vectorIN5boost10shared_ptrIN3pcl2io3ply10ply_parser8propertyEEESaIS7_EE13_M_insert_auxEN9__gnu_cxx17__normal_iteratorIPS7_S9_EERKS7_@Base 1.6
 (optional=templinst)_ZNSt6vectorIN5boost10shared_ptrIN3pcl2io3ply10ply_parser8propertyEEESaIS7_EE9push_backERKS7_@Base 1.6
 (optional=templinst)_ZNSt6vectorIN5boost10shared_ptrIN3pcl2io3ply10ply_parser8propertyEEESaIS7_EED1Ev@Base 1.6
 (optional=templinst)_ZNSt6vectorIN5boost10shared_ptrIN3pcl2io3ply10ply_parser8propertyEEESaIS7_EED2Ev@Base 1.6
 (optional=templinst)_ZSteqIcEN9__gnu_cxx11__enable_ifIXsrSt9__is_charIT_E7__valueEbE6__typeERKSbIS3_St11char_traitsIS3_ESaIS3_EESC_@Base 1.6
 (optional=templinst)_ZSteqIcSt11char_traitsIcESaIcEEbRKSbIT_T0_T1_EPKS3_@Base 1.6
 (optional=templinst)_ZStplIcSt11char_traitsIcESaIcEESbIT_T0_T1_EPKS3_RKS6_@Base 1.6
 (optional=templinst)_ZStplIcSt11char_traitsIcESaIcEESbIT_T0_T1_ERKS6_PKS3_@Base 1.6
 (optional=templinst)_ZStplIcSt11char_traitsIcESaIcEESbIT_T0_T1_ERKS6_S8_@Base 1.6
 _ZTIN3pcl2io3ply10ply_parser13list_propertyIhaEE@Base 1.6
 _ZTIN3pcl2io3ply10ply_parser13list_propertyIhdEE@Base 1.6
 _ZTIN3pcl2io3ply10ply_parser13list_propertyIhfEE@Base 1.6
 _ZTIN3pcl2io3ply10ply_parser13list_propertyIhhEE@Base 1.6
 _ZTIN3pcl2io3ply10ply_parser13list_propertyIhiEE@Base 1.6
 _ZTIN3pcl2io3ply10ply_parser13list_propertyIhjEE@Base 1.6
 _ZTIN3pcl2io3ply10ply_parser13list_propertyIhsEE@Base 1.6
 _ZTIN3pcl2io3ply10ply_parser13list_propertyIhtEE@Base 1.6
 _ZTIN3pcl2io3ply10ply_parser13list_propertyIjaEE@Base 1.6
 _ZTIN3pcl2io3ply10ply_parser13list_propertyIjdEE@Base 1.6
 _ZTIN3pcl2io3ply10ply_parser13list_propertyIjfEE@Base 1.6
 _ZTIN3pcl2io3ply10ply_parser13list_propertyIjhEE@Base 1.6
 _ZTIN3pcl2io3ply10ply_parser13list_propertyIjiEE@Base 1.6
 _ZTIN3pcl2io3ply10ply_parser13list_propertyIjjEE@Base 1.6
 _ZTIN3pcl2io3ply10ply_parser13list_propertyIjsEE@Base 1.6
 _ZTIN3pcl2io3ply10ply_parser13list_propertyIjtEE@Base 1.6
 _ZTIN3pcl2io3ply10ply_parser13list_propertyItaEE@Base 1.6
 _ZTIN3pcl2io3ply10ply_parser13list_propertyItdEE@Base 1.6
 _ZTIN3pcl2io3ply10ply_parser13list_propertyItfEE@Base 1.6
 _ZTIN3pcl2io3ply10ply_parser13list_propertyIthEE@Base 1.6
 _ZTIN3pcl2io3ply10ply_parser13list_propertyItiEE@Base 1.6
 _ZTIN3pcl2io3ply10ply_parser13list_propertyItjEE@Base 1.6
 _ZTIN3pcl2io3ply10ply_parser13list_propertyItsEE@Base 1.6
 _ZTIN3pcl2io3ply10ply_parser13list_propertyIttEE@Base 1.6
 _ZTIN3pcl2io3ply10ply_parser15scalar_propertyIaEE@Base 1.6
 _ZTIN3pcl2io3ply10ply_parser15scalar_propertyIdEE@Base 1.6
 _ZTIN3pcl2io3ply10ply_parser15scalar_propertyIfEE@Base 1.6
 _ZTIN3pcl2io3ply10ply_parser15scalar_propertyIhEE@Base 1.6
 _ZTIN3pcl2io3ply10ply_parser15scalar_propertyIiEE@Base 1.6
 _ZTIN3pcl2io3ply10ply_parser15scalar_propertyIjEE@Base 1.6
 _ZTIN3pcl2io3ply10ply_parser15scalar_propertyIsEE@Base 1.6
 _ZTIN3pcl2io3ply10ply_parser15scalar_propertyItEE@Base 1.6
 _ZTIN3pcl2io3ply10ply_parser8propertyE@Base 1.6
 _ZTIN5boost16exception_detail10clone_baseE@Base 1.6
 _ZTIN5boost16exception_detail10clone_implINS0_19error_info_injectorINS_17bad_function_callEEEEE@Base 1.6
 _ZTIN5boost16exception_detail19error_info_injectorINS_17bad_function_callEEE@Base 1.6
 _ZTIN5boost17bad_function_callE@Base 1.6
 _ZTIN5boost6detail15sp_counted_baseE@Base 1.6
 _ZTIN5boost6detail17sp_counted_impl_pIN3pcl2io3ply10ply_parser13list_propertyIhaEEEE@Base 1.6
 _ZTIN5boost6detail17sp_counted_impl_pIN3pcl2io3ply10ply_parser13list_propertyIhdEEEE@Base 1.6
 _ZTIN5boost6detail17sp_counted_impl_pIN3pcl2io3ply10ply_parser13list_propertyIhfEEEE@Base 1.6
 _ZTIN5boost6detail17sp_counted_impl_pIN3pcl2io3ply10ply_parser13list_propertyIhhEEEE@Base 1.6
 _ZTIN5boost6detail17sp_counted_impl_pIN3pcl2io3ply10ply_parser13list_propertyIhiEEEE@Base 1.6
 _ZTIN5boost6detail17sp_counted_impl_pIN3pcl2io3ply10ply_parser13list_propertyIhjEEEE@Base 1.6
 _ZTIN5boost6detail17sp_counted_impl_pIN3pcl2io3ply10ply_parser13list_propertyIhsEEEE@Base 1.6
 _ZTIN5boost6detail17sp_counted_impl_pIN3pcl2io3ply10ply_parser13list_propertyIhtEEEE@Base 1.6
 _ZTIN5boost6detail17sp_counted_impl_pIN3pcl2io3ply10ply_parser13list_propertyIjaEEEE@Base 1.6
 _ZTIN5boost6detail17sp_counted_impl_pIN3pcl2io3ply10ply_parser13list_propertyIjdEEEE@Base 1.6
 _ZTIN5boost6detail17sp_counted_impl_pIN3pcl2io3ply10ply_parser13list_propertyIjfEEEE@Base 1.6
 _ZTIN5boost6detail17sp_counted_impl_pIN3pcl2io3ply10ply_parser13list_propertyIjhEEEE@Base 1.6
 _ZTIN5boost6detail17sp_counted_impl_pIN3pcl2io3ply10ply_parser13list_propertyIjiEEEE@Base 1.6
 _ZTIN5boost6detail17sp_counted_impl_pIN3pcl2io3ply10ply_parser13list_propertyIjjEEEE@Base 1.6
 _ZTIN5boost6detail17sp_counted_impl_pIN3pcl2io3ply10ply_parser13list_propertyIjsEEEE@Base 1.6
 _ZTIN5boost6detail17sp_counted_impl_pIN3pcl2io3ply10ply_parser13list_propertyIjtEEEE@Base 1.6
 _ZTIN5boost6detail17sp_counted_impl_pIN3pcl2io3ply10ply_parser13list_propertyItaEEEE@Base 1.6
 _ZTIN5boost6detail17sp_counted_impl_pIN3pcl2io3ply10ply_parser13list_propertyItdEEEE@Base 1.6
 _ZTIN5boost6detail17sp_counted_impl_pIN3pcl2io3ply10ply_parser13list_propertyItfEEEE@Base 1.6
 _ZTIN5boost6detail17sp_counted_impl_pIN3pcl2io3ply10ply_parser13list_propertyIthEEEE@Base 1.6
 _ZTIN5boost6detail17sp_counted_impl_pIN3pcl2io3ply10ply_parser13list_propertyItiEEEE@Base 1.6
 _ZTIN5boost6detail17sp_counted_impl_pIN3pcl2io3ply10ply_parser13list_propertyItjEEEE@Base 1.6
 _ZTIN5boost6detail17sp_counted_impl_pIN3pcl2io3ply10ply_parser13list_propertyItsEEEE@Base 1.6
 _ZTIN5boost6detail17sp_counted_impl_pIN3pcl2io3ply10ply_parser13list_propertyIttEEEE@Base 1.6
 _ZTIN5boost6detail17sp_counted_impl_pIN3pcl2io3ply10ply_parser15scalar_propertyIaEEEE@Base 1.6
 _ZTIN5boost6detail17sp_counted_impl_pIN3pcl2io3ply10ply_parser15scalar_propertyIdEEEE@Base 1.6
 _ZTIN5boost6detail17sp_counted_impl_pIN3pcl2io3ply10ply_parser15scalar_propertyIfEEEE@Base 1.6
 _ZTIN5boost6detail17sp_counted_impl_pIN3pcl2io3ply10ply_parser15scalar_propertyIhEEEE@Base 1.6
 _ZTIN5boost6detail17sp_counted_impl_pIN3pcl2io3ply10ply_parser15scalar_propertyIiEEEE@Base 1.6
 _ZTIN5boost6detail17sp_counted_impl_pIN3pcl2io3ply10ply_parser15scalar_propertyIjEEEE@Base 1.6
 _ZTIN5boost6detail17sp_counted_impl_pIN3pcl2io3ply10ply_parser15scalar_propertyIsEEEE@Base 1.6
 _ZTIN5boost6detail17sp_counted_impl_pIN3pcl2io3ply10ply_parser15scalar_propertyItEEEE@Base 1.6
 _ZTIN5boost6detail17sp_counted_impl_pIN3pcl2io3ply10ply_parser7elementEEE@Base 1.6
 _ZTIN5boost9exceptionE@Base 1.6
 _ZTSN3pcl2io3ply10ply_parser13list_propertyIhaEE@Base 1.6
 _ZTSN3pcl2io3ply10ply_parser13list_propertyIhdEE@Base 1.6
 _ZTSN3pcl2io3ply10ply_parser13list_propertyIhfEE@Base 1.6
 _ZTSN3pcl2io3ply10ply_parser13list_propertyIhhEE@Base 1.6
 _ZTSN3pcl2io3ply10ply_parser13list_propertyIhiEE@Base 1.6
 _ZTSN3pcl2io3ply10ply_parser13list_propertyIhjEE@Base 1.6
 _ZTSN3pcl2io3ply10ply_parser13list_propertyIhsEE@Base 1.6
 _ZTSN3pcl2io3ply10ply_parser13list_propertyIhtEE@Base 1.6
 _ZTSN3pcl2io3ply10ply_parser13list_propertyIjaEE@Base 1.6
 _ZTSN3pcl2io3ply10ply_parser13list_propertyIjdEE@Base 1.6
 _ZTSN3pcl2io3ply10ply_parser13list_propertyIjfEE@Base 1.6
 _ZTSN3pcl2io3ply10ply_parser13list_propertyIjhEE@Base 1.6
 _ZTSN3pcl2io3ply10ply_parser13list_propertyIjiEE@Base 1.6
 _ZTSN3pcl2io3ply10ply_parser13list_propertyIjjEE@Base 1.6
 _ZTSN3pcl2io3ply10ply_parser13list_propertyIjsEE@Base 1.6
 _ZTSN3pcl2io3ply10ply_parser13list_propertyIjtEE@Base 1.6
 _ZTSN3pcl2io3ply10ply_parser13list_propertyItaEE@Base 1.6
 _ZTSN3pcl2io3ply10ply_parser13list_propertyItdEE@Base 1.6
 _ZTSN3pcl2io3ply10ply_parser13list_propertyItfEE@Base 1.6
 _ZTSN3pcl2io3ply10ply_parser13list_propertyIthEE@Base 1.6
 _ZTSN3pcl2io3ply10ply_parser13list_propertyItiEE@Base 1.6
 _ZTSN3pcl2io3ply10ply_parser13list_propertyItjEE@Base 1.6
 _ZTSN3pcl2io3ply10ply_parser13list_propertyItsEE@Base 1.6
 _ZTSN3pcl2io3ply10ply_parser13list_propertyIttEE@Base 1.6
 _ZTSN3pcl2io3ply10ply_parser15scalar_propertyIaEE@Base 1.6
 _ZTSN3pcl2io3ply10ply_parser15scalar_propertyIdEE@Base 1.6
 _ZTSN3pcl2io3ply10ply_parser15scalar_propertyIfEE@Base 1.6
 _ZTSN3pcl2io3ply10ply_parser15scalar_propertyIhEE@Base 1.6
 _ZTSN3pcl2io3ply10ply_parser15scalar_propertyIiEE@Base 1.6
 _ZTSN3pcl2io3ply10ply_parser15scalar_propertyIjEE@Base 1.6
 _ZTSN3pcl2io3ply10ply_parser15scalar_propertyIsEE@Base 1.6
 _ZTSN3pcl2io3ply10ply_parser15scalar_propertyItEE@Base 1.6
 _ZTSN3pcl2io3ply10ply_parser8propertyE@Base 1.6
 _ZTSN5boost16exception_detail10clone_baseE@Base 1.6
 _ZTSN5boost16exception_detail10clone_implINS0_19error_info_injectorINS_17bad_function_callEEEEE@Base 1.6
 _ZTSN5boost16exception_detail19error_info_injectorINS_17bad_function_callEEE@Base 1.6
 _ZTSN5boost17bad_function_callE@Base 1.6
 _ZTSN5boost6detail15sp_counted_baseE@Base 1.6
 _ZTSN5boost6detail17sp_counted_impl_pIN3pcl2io3ply10ply_parser13list_propertyIhaEEEE@Base 1.6
 _ZTSN5boost6detail17sp_counted_impl_pIN3pcl2io3ply10ply_parser13list_propertyIhdEEEE@Base 1.6
 _ZTSN5boost6detail17sp_counted_impl_pIN3pcl2io3ply10ply_parser13list_propertyIhfEEEE@Base 1.6
 _ZTSN5boost6detail17sp_counted_impl_pIN3pcl2io3ply10ply_parser13list_propertyIhhEEEE@Base 1.6
 _ZTSN5boost6detail17sp_counted_impl_pIN3pcl2io3ply10ply_parser13list_propertyIhiEEEE@Base 1.6
 _ZTSN5boost6detail17sp_counted_impl_pIN3pcl2io3ply10ply_parser13list_propertyIhjEEEE@Base 1.6
 _ZTSN5boost6detail17sp_counted_impl_pIN3pcl2io3ply10ply_parser13list_propertyIhsEEEE@Base 1.6
 _ZTSN5boost6detail17sp_counted_impl_pIN3pcl2io3ply10ply_parser13list_propertyIhtEEEE@Base 1.6
 _ZTSN5boost6detail17sp_counted_impl_pIN3pcl2io3ply10ply_parser13list_propertyIjaEEEE@Base 1.6
 _ZTSN5boost6detail17sp_counted_impl_pIN3pcl2io3ply10ply_parser13list_propertyIjdEEEE@Base 1.6
 _ZTSN5boost6detail17sp_counted_impl_pIN3pcl2io3ply10ply_parser13list_propertyIjfEEEE@Base 1.6
 _ZTSN5boost6detail17sp_counted_impl_pIN3pcl2io3ply10ply_parser13list_propertyIjhEEEE@Base 1.6
 _ZTSN5boost6detail17sp_counted_impl_pIN3pcl2io3ply10ply_parser13list_propertyIjiEEEE@Base 1.6
 _ZTSN5boost6detail17sp_counted_impl_pIN3pcl2io3ply10ply_parser13list_propertyIjjEEEE@Base 1.6
 _ZTSN5boost6detail17sp_counted_impl_pIN3pcl2io3ply10ply_parser13list_propertyIjsEEEE@Base 1.6
 _ZTSN5boost6detail17sp_counted_impl_pIN3pcl2io3ply10ply_parser13list_propertyIjtEEEE@Base 1.6
 _ZTSN5boost6detail17sp_counted_impl_pIN3pcl2io3ply10ply_parser13list_propertyItaEEEE@Base 1.6
 _ZTSN5boost6detail17sp_counted_impl_pIN3pcl2io3ply10ply_parser13list_propertyItdEEEE@Base 1.6
 _ZTSN5boost6detail17sp_counted_impl_pIN3pcl2io3ply10ply_parser13list_propertyItfEEEE@Base 1.6
 _ZTSN5boost6detail17sp_counted_impl_pIN3pcl2io3ply10ply_parser13list_propertyIthEEEE@Base 1.6
 _ZTSN5boost6detail17sp_counted_impl_pIN3pcl2io3ply10ply_parser13list_propertyItiEEEE@Base 1.6
 _ZTSN5boost6detail17sp_counted_impl_pIN3pcl2io3ply10ply_parser13list_propertyItjEEEE@Base 1.6
 _ZTSN5boost6detail17sp_counted_impl_pIN3pcl2io3ply10ply_parser13list_propertyItsEEEE@Base 1.6
 _ZTSN5boost6detail17sp_counted_impl_pIN3pcl2io3ply10ply_parser13list_propertyIttEEEE@Base 1.6
 _ZTSN5boost6detail17sp_counted_impl_pIN3pcl2io3ply10ply_parser15scalar_propertyIaEEEE@Base 1.6
 _ZTSN5boost6detail17sp_counted_impl_pIN3pcl2io3ply10ply_parser15scalar_propertyIdEEEE@Base 1.6
 _ZTSN5boost6detail17sp_counted_impl_pIN3pcl2io3ply10ply_parser15scalar_propertyIfEEEE@Base 1.6
 _ZTSN5boost6detail17sp_counted_impl_pIN3pcl2io3ply10ply_parser15scalar_propertyIhEEEE@Base 1.6
 _ZTSN5boost6detail17sp_counted_impl_pIN3pcl2io3ply10ply_parser15scalar_propertyIiEEEE@Base 1.6
 _ZTSN5boost6detail17sp_counted_impl_pIN3pcl2io3ply10ply_parser15scalar_propertyIjEEEE@Base 1.6
 _ZTSN5boost6detail17sp_counted_impl_pIN3pcl2io3ply10ply_parser15scalar_propertyIsEEEE@Base 1.6
 _ZTSN5boost6detail17sp_counted_impl_pIN3pcl2io3ply10ply_parser15scalar_propertyItEEEE@Base 1.6
 _ZTSN5boost6detail17sp_counted_impl_pIN3pcl2io3ply10ply_parser7elementEEE@Base 1.6
 _ZTSN5boost9exceptionE@Base 1.6
 _ZTVN3pcl2io3ply10ply_parser13list_propertyIhaEE@Base 1.6
 _ZTVN3pcl2io3ply10ply_parser13list_propertyIhdEE@Base 1.6
 _ZTVN3pcl2io3ply10ply_parser13list_propertyIhfEE@Base 1.6
 _ZTVN3pcl2io3ply10ply_parser13list_propertyIhhEE@Base 1.6
 _ZTVN3pcl2io3ply10ply_parser13list_propertyIhiEE@Base 1.6
 _ZTVN3pcl2io3ply10ply_parser13list_propertyIhjEE@Base 1.6
 _ZTVN3pcl2io3ply10ply_parser13list_propertyIhsEE@Base 1.6
 _ZTVN3pcl2io3ply10ply_parser13list_propertyIhtEE@Base 1.6
 _ZTVN3pcl2io3ply10ply_parser13list_propertyIjaEE@Base 1.6
 _ZTVN3pcl2io3ply10ply_parser13list_propertyIjdEE@Base 1.6
 _ZTVN3pcl2io3ply10ply_parser13list_propertyIjfEE@Base 1.6
 _ZTVN3pcl2io3ply10ply_parser13list_propertyIjhEE@Base 1.6
 _ZTVN3pcl2io3ply10ply_parser13list_propertyIjiEE@Base 1.6
 _ZTVN3pcl2io3ply10ply_parser13list_propertyIjjEE@Base 1.6
 _ZTVN3pcl2io3ply10ply_parser13list_propertyIjsEE@Base 1.6
 _ZTVN3pcl2io3ply10ply_parser13list_propertyIjtEE@Base 1.6
 _ZTVN3pcl2io3ply10ply_parser13list_propertyItaEE@Base 1.6
 _ZTVN3pcl2io3ply10ply_parser13list_propertyItdEE@Base 1.6
 _ZTVN3pcl2io3ply10ply_parser13list_propertyItfEE@Base 1.6
 _ZTVN3pcl2io3ply10ply_parser13list_propertyIthEE@Base 1.6
 _ZTVN3pcl2io3ply10ply_parser13list_propertyItiEE@Base 1.6
 _ZTVN3pcl2io3ply10ply_parser13list_propertyItjEE@Base 1.6
 _ZTVN3pcl2io3ply10ply_parser13list_propertyItsEE@Base 1.6
 _ZTVN3pcl2io3ply10ply_parser13list_propertyIttEE@Base 1.6
 _ZTVN3pcl2io3ply10ply_parser15scalar_propertyIaEE@Base 1.6
 _ZTVN3pcl2io3ply10ply_parser15scalar_propertyIdEE@Base 1.6
 _ZTVN3pcl2io3ply10ply_parser15scalar_propertyIfEE@Base 1.6
 _ZTVN3pcl2io3ply10ply_parser15scalar_propertyIhEE@Base 1.6
 _ZTVN3pcl2io3ply10ply_parser15scalar_propertyIiEE@Base 1.6
 _ZTVN3pcl2io3ply10ply_parser15scalar_propertyIjEE@Base 1.6
 _ZTVN3pcl2io3ply10ply_parser15scalar_propertyIsEE@Base 1.6
 _ZTVN3pcl2io3ply10ply_parser15scalar_propertyItEE@Base 1.6
 _ZTVN3pcl2io3ply10ply_parser8propertyE@Base 1.6
 _ZTVN5boost16exception_detail10clone_baseE@Base 1.6
 _ZTVN5boost16exception_detail10clone_implINS0_19error_info_injectorINS_17bad_function_callEEEEE@Base 1.6
 _ZTVN5boost16exception_detail19error_info_injectorINS_17bad_function_callEEE@Base 1.6
 _ZTVN5boost17bad_function_callE@Base 1.6
 _ZTVN5boost6detail15sp_counted_baseE@Base 1.6
 _ZTVN5boost6detail17sp_counted_impl_pIN3pcl2io3ply10ply_parser13list_propertyIhaEEEE@Base 1.6
 _ZTVN5boost6detail17sp_counted_impl_pIN3pcl2io3ply10ply_parser13list_propertyIhdEEEE@Base 1.6
 _ZTVN5boost6detail17sp_counted_impl_pIN3pcl2io3ply10ply_parser13list_propertyIhfEEEE@Base 1.6
 _ZTVN5boost6detail17sp_counted_impl_pIN3pcl2io3ply10ply_parser13list_propertyIhhEEEE@Base 1.6
 _ZTVN5boost6detail17sp_counted_impl_pIN3pcl2io3ply10ply_parser13list_propertyIhiEEEE@Base 1.6
 _ZTVN5boost6detail17sp_counted_impl_pIN3pcl2io3ply10ply_parser13list_propertyIhjEEEE@Base 1.6
 _ZTVN5boost6detail17sp_counted_impl_pIN3pcl2io3ply10ply_parser13list_propertyIhsEEEE@Base 1.6
 _ZTVN5boost6detail17sp_counted_impl_pIN3pcl2io3ply10ply_parser13list_propertyIhtEEEE@Base 1.6
 _ZTVN5boost6detail17sp_counted_impl_pIN3pcl2io3ply10ply_parser13list_propertyIjaEEEE@Base 1.6
 _ZTVN5boost6detail17sp_counted_impl_pIN3pcl2io3ply10ply_parser13list_propertyIjdEEEE@Base 1.6
 _ZTVN5boost6detail17sp_counted_impl_pIN3pcl2io3ply10ply_parser13list_propertyIjfEEEE@Base 1.6
 _ZTVN5boost6detail17sp_counted_impl_pIN3pcl2io3ply10ply_parser13list_propertyIjhEEEE@Base 1.6
 _ZTVN5boost6detail17sp_counted_impl_pIN3pcl2io3ply10ply_parser13list_propertyIjiEEEE@Base 1.6
 _ZTVN5boost6detail17sp_counted_impl_pIN3pcl2io3ply10ply_parser13list_propertyIjjEEEE@Base 1.6
 _ZTVN5boost6detail17sp_counted_impl_pIN3pcl2io3ply10ply_parser13list_propertyIjsEEEE@Base 1.6
 _ZTVN5boost6detail17sp_counted_impl_pIN3pcl2io3ply10ply_parser13list_propertyIjtEEEE@Base 1.6
 _ZTVN5boost6detail17sp_counted_impl_pIN3pcl2io3ply10ply_parser13list_propertyItaEEEE@Base 1.6
 _ZTVN5boost6detail17sp_counted_impl_pIN3pcl2io3ply10ply_parser13list_propertyItdEEEE@Base 1.6
 _ZTVN5boost6detail17sp_counted_impl_pIN3pcl2io3ply10ply_parser13list_propertyItfEEEE@Base 1.6
 _ZTVN5boost6detail17sp_counted_impl_pIN3pcl2io3ply10ply_parser13list_propertyIthEEEE@Base 1.6
 _ZTVN5boost6detail17sp_counted_impl_pIN3pcl2io3ply10ply_parser13list_propertyItiEEEE@Base 1.6
 _ZTVN5boost6detail17sp_counted_impl_pIN3pcl2io3ply10ply_parser13list_propertyItjEEEE@Base 1.6
 _ZTVN5boost6detail17sp_counted_impl_pIN3pcl2io3ply10ply_parser13list_propertyItsEEEE@Base 1.6
 _ZTVN5boost6detail17sp_counted_impl_pIN3pcl2io3ply10ply_parser13list_propertyIttEEEE@Base 1.6
 _ZTVN5boost6detail17sp_counted_impl_pIN3pcl2io3ply10ply_parser15scalar_propertyIaEEEE@Base 1.6
 _ZTVN5boost6detail17sp_counted_impl_pIN3pcl2io3ply10ply_parser15scalar_propertyIdEEEE@Base 1.6
 _ZTVN5boost6detail17sp_counted_impl_pIN3pcl2io3ply10ply_parser15scalar_propertyIfEEEE@Base 1.6
 _ZTVN5boost6detail17sp_counted_impl_pIN3pcl2io3ply10ply_parser15scalar_propertyIhEEEE@Base 1.6
 _ZTVN5boost6detail17sp_counted_impl_pIN3pcl2io3ply10ply_parser15scalar_propertyIiEEEE@Base 1.6
 _ZTVN5boost6detail17sp_counted_impl_pIN3pcl2io3ply10ply_parser15scalar_propertyIjEEEE@Base 1.6
 _ZTVN5boost6detail17sp_counted_impl_pIN3pcl2io3ply10ply_parser15scalar_propertyIsEEEE@Base 1.6
 _ZTVN5boost6detail17sp_counted_impl_pIN3pcl2io3ply10ply_parser15scalar_propertyItEEEE@Base 1.6
 _ZTVN5boost6detail17sp_counted_impl_pIN3pcl2io3ply10ply_parser7elementEEE@Base 1.6
 _ZTVN5boost9exceptionE@Base 1.6
 (c++)"non-virtual thunk to boost::exception_detail::clone_impl<boost::exception_detail::error_info_injector<boost::bad_function_call> >::clone() const@Base" 1.6
 (c++)"non-virtual thunk to boost::exception_detail::clone_impl<boost::exception_detail::error_info_injector<boost::bad_function_call> >::rethrow() const@Base" 1.6
 (c++)"non-virtual thunk to boost::exception_detail::clone_impl<boost::exception_detail::error_info_injector<boost::bad_function_call> >::~clone_impl()@Base" 1.6
 (c++)"non-virtual thunk to boost::exception_detail::error_info_injector<boost::bad_function_call>::~error_info_injector()@Base" 1.6
