# SymbolsHelper-Confirmed: 1.6 amd64
libpcl_filters.so.1.6 libpcl-filters1.6 #MINVER#
 _ZN11sensor_msgs10PointFieldD1Ev@Base 1.6
 _ZN11sensor_msgs10PointFieldD2Ev@Base 1.6
 _ZN11sensor_msgs10PointFieldaSERKS0_@Base 1.6
 _ZN11sensor_msgs11PointCloud2aSERKS0_@Base 1.6
 (optional=templinst)_ZN3pcl10PointCloudINS_11PointNormalEE9push_backERKS1_@Base 1.6
 (optional=templinst)_ZN3pcl10PointCloudINS_11PointNormalEEC1Ev@Base 1.6
 (optional=templinst)_ZN3pcl10PointCloudINS_11PointNormalEEC2Ev@Base 1.6
 (optional=templinst)_ZN3pcl10PointCloudINS_11PointNormalEED0Ev@Base 1.6
 (optional=templinst)_ZN3pcl10PointCloudINS_11PointNormalEED1Ev@Base 1.6
 (optional=templinst)_ZN3pcl10PointCloudINS_11PointNormalEED2Ev@Base 1.6
 (optional=templinst)_ZN3pcl10PointCloudINS_11PointNormalEEaSERKS2_@Base 1.6
 (optional=templinst)_ZN3pcl10PointCloudINS_11PointXYZHSVEE9push_backERKS1_@Base 1.6
 (optional=templinst)_ZN3pcl10PointCloudINS_11PointXYZHSVEEC1Ev@Base 1.6
 (optional=templinst)_ZN3pcl10PointCloudINS_11PointXYZHSVEEC2Ev@Base 1.6
 (optional=templinst)_ZN3pcl10PointCloudINS_11PointXYZHSVEED0Ev@Base 1.6
 (optional=templinst)_ZN3pcl10PointCloudINS_11PointXYZHSVEED1Ev@Base 1.6
 (optional=templinst)_ZN3pcl10PointCloudINS_11PointXYZHSVEED2Ev@Base 1.6
 (optional=templinst)_ZN3pcl10PointCloudINS_11PointXYZHSVEEaSERKS2_@Base 1.6
 (optional=templinst)_ZN3pcl10PointCloudINS_11PointXYZRGBEE9push_backERKS1_@Base 1.6
 (optional=templinst)_ZN3pcl10PointCloudINS_11PointXYZRGBEEC1Ev@Base 1.6
 (optional=templinst)_ZN3pcl10PointCloudINS_11PointXYZRGBEEC2Ev@Base 1.6
 (optional=templinst)_ZN3pcl10PointCloudINS_11PointXYZRGBEED0Ev@Base 1.6
 (optional=templinst)_ZN3pcl10PointCloudINS_11PointXYZRGBEED1Ev@Base 1.6
 (optional=templinst)_ZN3pcl10PointCloudINS_11PointXYZRGBEED2Ev@Base 1.6
 (optional=templinst)_ZN3pcl10PointCloudINS_11PointXYZRGBEEaSERKS2_@Base 1.6
 (optional=templinst)_ZN3pcl10PointCloudINS_12PPFSignatureEEaSERKS2_@Base 1.6
 (optional=templinst)_ZN3pcl10PointCloudINS_12PointXYZRGBAEE9push_backERKS1_@Base 1.6
 (optional=templinst)_ZN3pcl10PointCloudINS_12PointXYZRGBAEEC1Ev@Base 1.6
 (optional=templinst)_ZN3pcl10PointCloudINS_12PointXYZRGBAEEC2Ev@Base 1.6
 (optional=templinst)_ZN3pcl10PointCloudINS_12PointXYZRGBAEED0Ev@Base 1.6
 (optional=templinst)_ZN3pcl10PointCloudINS_12PointXYZRGBAEED1Ev@Base 1.6
 (optional=templinst)_ZN3pcl10PointCloudINS_12PointXYZRGBAEED2Ev@Base 1.6
 (optional=templinst)_ZN3pcl10PointCloudINS_12PointXYZRGBAEEaSERKS2_@Base 1.6
 (optional=templinst)_ZN3pcl10PointCloudINS_12PointXYZRGBLEE9push_backERKS1_@Base 1.6
 (optional=templinst)_ZN3pcl10PointCloudINS_12PointXYZRGBLEEC1Ev@Base 1.6
 (optional=templinst)_ZN3pcl10PointCloudINS_12PointXYZRGBLEEC2Ev@Base 1.6
 (optional=templinst)_ZN3pcl10PointCloudINS_12PointXYZRGBLEED0Ev@Base 1.6
 (optional=templinst)_ZN3pcl10PointCloudINS_12PointXYZRGBLEED1Ev@Base 1.6
 (optional=templinst)_ZN3pcl10PointCloudINS_12PointXYZRGBLEED2Ev@Base 1.6
 (optional=templinst)_ZN3pcl10PointCloudINS_12PointXYZRGBLEEaSERKS2_@Base 1.6
 (optional=templinst)_ZN3pcl10PointCloudINS_13InterestPointEE9push_backERKS1_@Base 1.6
 (optional=templinst)_ZN3pcl10PointCloudINS_13InterestPointEEC1Ev@Base 1.6
 (optional=templinst)_ZN3pcl10PointCloudINS_13InterestPointEEC2Ev@Base 1.6
 (optional=templinst)_ZN3pcl10PointCloudINS_13InterestPointEED0Ev@Base 1.6
 (optional=templinst)_ZN3pcl10PointCloudINS_13InterestPointEED1Ev@Base 1.6
 (optional=templinst)_ZN3pcl10PointCloudINS_13InterestPointEED2Ev@Base 1.6
 (optional=templinst)_ZN3pcl10PointCloudINS_13InterestPointEEaSERKS2_@Base 1.6
 (optional=templinst)_ZN3pcl10PointCloudINS_14PointWithRangeEE9push_backERKS1_@Base 1.6
 (optional=templinst)_ZN3pcl10PointCloudINS_14PointWithRangeEEC1Ev@Base 1.6
 (optional=templinst)_ZN3pcl10PointCloudINS_14PointWithRangeEEC2Ev@Base 1.6
 (optional=templinst)_ZN3pcl10PointCloudINS_14PointWithRangeEED0Ev@Base 1.6
 (optional=templinst)_ZN3pcl10PointCloudINS_14PointWithRangeEED1Ev@Base 1.6
 (optional=templinst)_ZN3pcl10PointCloudINS_14PointWithRangeEED2Ev@Base 1.6
 (optional=templinst)_ZN3pcl10PointCloudINS_14PointWithRangeEEaSERKS2_@Base 1.6
 (optional=templinst)_ZN3pcl10PointCloudINS_14PointWithScaleEE9push_backERKS1_@Base 1.6
 (optional=templinst)_ZN3pcl10PointCloudINS_14PointWithScaleEEC1Ev@Base 1.6
 (optional=templinst)_ZN3pcl10PointCloudINS_14PointWithScaleEEC2Ev@Base 1.6
 (optional=templinst)_ZN3pcl10PointCloudINS_14PointWithScaleEED0Ev@Base 1.6
 (optional=templinst)_ZN3pcl10PointCloudINS_14PointWithScaleEED1Ev@Base 1.6
 (optional=templinst)_ZN3pcl10PointCloudINS_14PointWithScaleEED2Ev@Base 1.6
 (optional=templinst)_ZN3pcl10PointCloudINS_14PointWithScaleEEaSERKS2_@Base 1.6
 (optional=templinst)_ZN3pcl10PointCloudINS_14ReferenceFrameEEaSERKS2_@Base 1.6
 (optional=templinst)_ZN3pcl10PointCloudINS_15ESFSignature640EEaSERKS2_@Base 1.6
 (optional=templinst)_ZN3pcl10PointCloudINS_15FPFHSignature33EEaSERKS2_@Base 1.6
 (optional=templinst)_ZN3pcl10PointCloudINS_15PFHSignature125EEaSERKS2_@Base 1.6
 (optional=templinst)_ZN3pcl10PointCloudINS_15PPFRGBSignatureEEaSERKS2_@Base 1.6
 (optional=templinst)_ZN3pcl10PointCloudINS_15PointXYZINormalEE9push_backERKS1_@Base 1.6
 (optional=templinst)_ZN3pcl10PointCloudINS_15PointXYZINormalEEC1Ev@Base 1.6
 (optional=templinst)_ZN3pcl10PointCloudINS_15PointXYZINormalEEC2Ev@Base 1.6
 (optional=templinst)_ZN3pcl10PointCloudINS_15PointXYZINormalEED0Ev@Base 1.6
 (optional=templinst)_ZN3pcl10PointCloudINS_15PointXYZINormalEED1Ev@Base 1.6
 (optional=templinst)_ZN3pcl10PointCloudINS_15PointXYZINormalEED2Ev@Base 1.6
 (optional=templinst)_ZN3pcl10PointCloudINS_15PointXYZINormalEEaSERKS2_@Base 1.6
 (optional=templinst)_ZN3pcl10PointCloudINS_15VFHSignature308EEaSERKS2_@Base 1.6
 (optional=templinst)_ZN3pcl10PointCloudINS_16MomentInvariantsEEaSERKS2_@Base 1.6
 (optional=templinst)_ZN3pcl10PointCloudINS_17IntensityGradientEEaSERKS2_@Base 1.6
 (optional=templinst)_ZN3pcl10PointCloudINS_17PointXYZRGBNormalEE9push_backERKS1_@Base 1.6
 (optional=templinst)_ZN3pcl10PointCloudINS_17PointXYZRGBNormalEEC1Ev@Base 1.6
 (optional=templinst)_ZN3pcl10PointCloudINS_17PointXYZRGBNormalEEC2Ev@Base 1.6
 (optional=templinst)_ZN3pcl10PointCloudINS_17PointXYZRGBNormalEED0Ev@Base 1.6
 (optional=templinst)_ZN3pcl10PointCloudINS_17PointXYZRGBNormalEED1Ev@Base 1.6
 (optional=templinst)_ZN3pcl10PointCloudINS_17PointXYZRGBNormalEED2Ev@Base 1.6
 (optional=templinst)_ZN3pcl10PointCloudINS_17PointXYZRGBNormalEEaSERKS2_@Base 1.6
 (optional=templinst)_ZN3pcl10PointCloudINS_17PrincipalRadiiRSDEEaSERKS2_@Base 1.6
 (optional=templinst)_ZN3pcl10PointCloudINS_18PFHRGBSignature250EEaSERKS2_@Base 1.6
 (optional=templinst)_ZN3pcl10PointCloudINS_18PointWithViewpointEE9push_backERKS1_@Base 1.6
 (optional=templinst)_ZN3pcl10PointCloudINS_18PointWithViewpointEEC1Ev@Base 1.6
 (optional=templinst)_ZN3pcl10PointCloudINS_18PointWithViewpointEEC2Ev@Base 1.6
 (optional=templinst)_ZN3pcl10PointCloudINS_18PointWithViewpointEED0Ev@Base 1.6
 (optional=templinst)_ZN3pcl10PointCloudINS_18PointWithViewpointEED1Ev@Base 1.6
 (optional=templinst)_ZN3pcl10PointCloudINS_18PointWithViewpointEED2Ev@Base 1.6
 (optional=templinst)_ZN3pcl10PointCloudINS_18PointWithViewpointEEaSERKS2_@Base 1.6
 (optional=templinst)_ZN3pcl10PointCloudINS_19PrincipalCurvaturesEEaSERKS2_@Base 1.6
 (optional=templinst)_ZN3pcl10PointCloudINS_22NormalBasedSignature12EEaSERKS2_@Base 1.6
 (optional=templinst)_ZN3pcl10PointCloudINS_4AxisEEaSERKS2_@Base 1.6
 (optional=templinst)_ZN3pcl10PointCloudINS_5LabelEEaSERKS2_@Base 1.6
 (optional=templinst)_ZN3pcl10PointCloudINS_6Narf36EEaSERKS2_@Base 1.6
 (optional=templinst)_ZN3pcl10PointCloudINS_6NormalEEaSERKS2_@Base 1.6
 (optional=templinst)_ZN3pcl10PointCloudINS_7PointXYEEaSERKS2_@Base 1.6
 (optional=templinst)_ZN3pcl10PointCloudINS_8BoundaryEEaSERKS2_@Base 1.6
 (optional=templinst)_ZN3pcl10PointCloudINS_8PointXYZEE6resizeEm@Base 1.6
 (optional=templinst)_ZN3pcl10PointCloudINS_8PointXYZEE9push_backERKS1_@Base 1.6
 (optional=templinst)_ZN3pcl10PointCloudINS_8PointXYZEEC1ERKS2_@Base 1.6
 (optional=templinst)_ZN3pcl10PointCloudINS_8PointXYZEEC1Ev@Base 1.6
 (optional=templinst)_ZN3pcl10PointCloudINS_8PointXYZEEC2ERKS2_@Base 1.6
 (optional=templinst)_ZN3pcl10PointCloudINS_8PointXYZEEC2Ev@Base 1.6
 (optional=templinst)_ZN3pcl10PointCloudINS_8PointXYZEED0Ev@Base 1.6
 (optional=templinst)_ZN3pcl10PointCloudINS_8PointXYZEED1Ev@Base 1.6
 (optional=templinst)_ZN3pcl10PointCloudINS_8PointXYZEED2Ev@Base 1.6
 (optional=templinst)_ZN3pcl10PointCloudINS_8PointXYZEEaSERKS2_@Base 1.6
 (optional=templinst)_ZN3pcl10PointCloudINS_9PointXYZIEE9push_backERKS1_@Base 1.6
 (optional=templinst)_ZN3pcl10PointCloudINS_9PointXYZIEEC1Ev@Base 1.6
 (optional=templinst)_ZN3pcl10PointCloudINS_9PointXYZIEEC2Ev@Base 1.6
 (optional=templinst)_ZN3pcl10PointCloudINS_9PointXYZIEED0Ev@Base 1.6
 (optional=templinst)_ZN3pcl10PointCloudINS_9PointXYZIEED1Ev@Base 1.6
 (optional=templinst)_ZN3pcl10PointCloudINS_9PointXYZIEED2Ev@Base 1.6
 (optional=templinst)_ZN3pcl10PointCloudINS_9PointXYZIEEaSERKS2_@Base 1.6
 (optional=templinst)_ZN3pcl10PointCloudINS_9PointXYZLEE9push_backERKS1_@Base 1.6
 (optional=templinst)_ZN3pcl10PointCloudINS_9PointXYZLEEC1Ev@Base 1.6
 (optional=templinst)_ZN3pcl10PointCloudINS_9PointXYZLEEC2Ev@Base 1.6
 (optional=templinst)_ZN3pcl10PointCloudINS_9PointXYZLEED0Ev@Base 1.6
 (optional=templinst)_ZN3pcl10PointCloudINS_9PointXYZLEED1Ev@Base 1.6
 (optional=templinst)_ZN3pcl10PointCloudINS_9PointXYZLEED2Ev@Base 1.6
 (optional=templinst)_ZN3pcl10PointCloudINS_9PointXYZLEEaSERKS2_@Base 1.6
 (optional=templinst)_ZN3pcl10fromROSMsgINS_8PointXYZEEEvRKN11sensor_msgs11PointCloud2ERNS_10PointCloudIT_EE@Base 1.6
 (optional=templinst)_ZN3pcl10fromROSMsgINS_8PointXYZEEEvRKN11sensor_msgs11PointCloud2ERNS_10PointCloudIT_EERKSt6vectorINS_6detail12FieldMappingESaISC_EE@Base 1.6
 _ZN3pcl10getMeanStdERKSt6vectorIfSaIfEERdS5_@Base 1.6
 (optional=templinst)_ZN3pcl11ConditionOrINS_11PointNormalEEC1Ev@Base 1.6
 (optional=templinst)_ZN3pcl11ConditionOrINS_11PointNormalEEC2Ev@Base 1.6
 (optional=templinst)_ZN3pcl11ConditionOrINS_11PointNormalEED0Ev@Base 1.6
 (optional=templinst)_ZN3pcl11ConditionOrINS_11PointNormalEED1Ev@Base 1.6
 (optional=templinst)_ZN3pcl11ConditionOrINS_11PointNormalEED2Ev@Base 1.6
 (optional=templinst)_ZN3pcl11ConditionOrINS_11PointXYZHSVEEC1Ev@Base 1.6
 (optional=templinst)_ZN3pcl11ConditionOrINS_11PointXYZHSVEEC2Ev@Base 1.6
 (optional=templinst)_ZN3pcl11ConditionOrINS_11PointXYZHSVEED0Ev@Base 1.6
 (optional=templinst)_ZN3pcl11ConditionOrINS_11PointXYZHSVEED1Ev@Base 1.6
 (optional=templinst)_ZN3pcl11ConditionOrINS_11PointXYZHSVEED2Ev@Base 1.6
 (optional=templinst)_ZN3pcl11ConditionOrINS_11PointXYZRGBEEC1Ev@Base 1.6
 (optional=templinst)_ZN3pcl11ConditionOrINS_11PointXYZRGBEEC2Ev@Base 1.6
 (optional=templinst)_ZN3pcl11ConditionOrINS_11PointXYZRGBEED0Ev@Base 1.6
 (optional=templinst)_ZN3pcl11ConditionOrINS_11PointXYZRGBEED1Ev@Base 1.6
 (optional=templinst)_ZN3pcl11ConditionOrINS_11PointXYZRGBEED2Ev@Base 1.6
 (optional=templinst)_ZN3pcl11ConditionOrINS_12PointXYZRGBAEEC1Ev@Base 1.6
 (optional=templinst)_ZN3pcl11ConditionOrINS_12PointXYZRGBAEEC2Ev@Base 1.6
 (optional=templinst)_ZN3pcl11ConditionOrINS_12PointXYZRGBAEED0Ev@Base 1.6
 (optional=templinst)_ZN3pcl11ConditionOrINS_12PointXYZRGBAEED1Ev@Base 1.6
 (optional=templinst)_ZN3pcl11ConditionOrINS_12PointXYZRGBAEED2Ev@Base 1.6
 (optional=templinst)_ZN3pcl11ConditionOrINS_12PointXYZRGBLEEC1Ev@Base 1.6
 (optional=templinst)_ZN3pcl11ConditionOrINS_12PointXYZRGBLEEC2Ev@Base 1.6
 (optional=templinst)_ZN3pcl11ConditionOrINS_12PointXYZRGBLEED0Ev@Base 1.6
 (optional=templinst)_ZN3pcl11ConditionOrINS_12PointXYZRGBLEED1Ev@Base 1.6
 (optional=templinst)_ZN3pcl11ConditionOrINS_12PointXYZRGBLEED2Ev@Base 1.6
 (optional=templinst)_ZN3pcl11ConditionOrINS_13InterestPointEEC1Ev@Base 1.6
 (optional=templinst)_ZN3pcl11ConditionOrINS_13InterestPointEEC2Ev@Base 1.6
 (optional=templinst)_ZN3pcl11ConditionOrINS_13InterestPointEED0Ev@Base 1.6
 (optional=templinst)_ZN3pcl11ConditionOrINS_13InterestPointEED1Ev@Base 1.6
 (optional=templinst)_ZN3pcl11ConditionOrINS_13InterestPointEED2Ev@Base 1.6
 (optional=templinst)_ZN3pcl11ConditionOrINS_14PointWithRangeEEC1Ev@Base 1.6
 (optional=templinst)_ZN3pcl11ConditionOrINS_14PointWithRangeEEC2Ev@Base 1.6
 (optional=templinst)_ZN3pcl11ConditionOrINS_14PointWithRangeEED0Ev@Base 1.6
 (optional=templinst)_ZN3pcl11ConditionOrINS_14PointWithRangeEED1Ev@Base 1.6
 (optional=templinst)_ZN3pcl11ConditionOrINS_14PointWithRangeEED2Ev@Base 1.6
 (optional=templinst)_ZN3pcl11ConditionOrINS_14PointWithScaleEEC1Ev@Base 1.6
 (optional=templinst)_ZN3pcl11ConditionOrINS_14PointWithScaleEEC2Ev@Base 1.6
 (optional=templinst)_ZN3pcl11ConditionOrINS_14PointWithScaleEED0Ev@Base 1.6
 (optional=templinst)_ZN3pcl11ConditionOrINS_14PointWithScaleEED1Ev@Base 1.6
 (optional=templinst)_ZN3pcl11ConditionOrINS_14PointWithScaleEED2Ev@Base 1.6
 (optional=templinst)_ZN3pcl11ConditionOrINS_15PointXYZINormalEEC1Ev@Base 1.6
 (optional=templinst)_ZN3pcl11ConditionOrINS_15PointXYZINormalEEC2Ev@Base 1.6
 (optional=templinst)_ZN3pcl11ConditionOrINS_15PointXYZINormalEED0Ev@Base 1.6
 (optional=templinst)_ZN3pcl11ConditionOrINS_15PointXYZINormalEED1Ev@Base 1.6
 (optional=templinst)_ZN3pcl11ConditionOrINS_15PointXYZINormalEED2Ev@Base 1.6
 (optional=templinst)_ZN3pcl11ConditionOrINS_17PointXYZRGBNormalEEC1Ev@Base 1.6
 (optional=templinst)_ZN3pcl11ConditionOrINS_17PointXYZRGBNormalEEC2Ev@Base 1.6
 (optional=templinst)_ZN3pcl11ConditionOrINS_17PointXYZRGBNormalEED0Ev@Base 1.6
 (optional=templinst)_ZN3pcl11ConditionOrINS_17PointXYZRGBNormalEED1Ev@Base 1.6
 (optional=templinst)_ZN3pcl11ConditionOrINS_17PointXYZRGBNormalEED2Ev@Base 1.6
 (optional=templinst)_ZN3pcl11ConditionOrINS_18PointWithViewpointEEC1Ev@Base 1.6
 (optional=templinst)_ZN3pcl11ConditionOrINS_18PointWithViewpointEEC2Ev@Base 1.6
 (optional=templinst)_ZN3pcl11ConditionOrINS_18PointWithViewpointEED0Ev@Base 1.6
 (optional=templinst)_ZN3pcl11ConditionOrINS_18PointWithViewpointEED1Ev@Base 1.6
 (optional=templinst)_ZN3pcl11ConditionOrINS_18PointWithViewpointEED2Ev@Base 1.6
 (optional=templinst)_ZN3pcl11ConditionOrINS_8PointXYZEEC1Ev@Base 1.6
 (optional=templinst)_ZN3pcl11ConditionOrINS_8PointXYZEEC2Ev@Base 1.6
 (optional=templinst)_ZN3pcl11ConditionOrINS_8PointXYZEED0Ev@Base 1.6
 (optional=templinst)_ZN3pcl11ConditionOrINS_8PointXYZEED1Ev@Base 1.6
 (optional=templinst)_ZN3pcl11ConditionOrINS_8PointXYZEED2Ev@Base 1.6
 (optional=templinst)_ZN3pcl11ConditionOrINS_9PointXYZIEEC1Ev@Base 1.6
 (optional=templinst)_ZN3pcl11ConditionOrINS_9PointXYZIEEC2Ev@Base 1.6
 (optional=templinst)_ZN3pcl11ConditionOrINS_9PointXYZIEED0Ev@Base 1.6
 (optional=templinst)_ZN3pcl11ConditionOrINS_9PointXYZIEED1Ev@Base 1.6
 (optional=templinst)_ZN3pcl11ConditionOrINS_9PointXYZIEED2Ev@Base 1.6
 (optional=templinst)_ZN3pcl11ConditionOrINS_9PointXYZLEEC1Ev@Base 1.6
 (optional=templinst)_ZN3pcl11ConditionOrINS_9PointXYZLEEC2Ev@Base 1.6
 (optional=templinst)_ZN3pcl11ConditionOrINS_9PointXYZLEED0Ev@Base 1.6
 (optional=templinst)_ZN3pcl11ConditionOrINS_9PointXYZLEED1Ev@Base 1.6
 (optional=templinst)_ZN3pcl11ConditionOrINS_9PointXYZLEED2Ev@Base 1.6
 (optional=templinst)_ZN3pcl11KdTreeFLANNINS_11PointNormalEN5flann9L2_SimpleIfEEE10setEpsilonEf@Base 1.6
 (optional=templinst)_ZN3pcl11KdTreeFLANNINS_11PointNormalEN5flann9L2_SimpleIfEEED0Ev@Base 1.6
 (optional=templinst)_ZN3pcl11KdTreeFLANNINS_11PointNormalEN5flann9L2_SimpleIfEEED1Ev@Base 1.6
 (optional=templinst)_ZN3pcl11KdTreeFLANNINS_11PointNormalEN5flann9L2_SimpleIfEEED2Ev@Base 1.6
 (optional=templinst)_ZN3pcl11KdTreeFLANNINS_11PointXYZHSVEN5flann9L2_SimpleIfEEE10setEpsilonEf@Base 1.6
 (optional=templinst)_ZN3pcl11KdTreeFLANNINS_11PointXYZHSVEN5flann9L2_SimpleIfEEED0Ev@Base 1.6
 (optional=templinst)_ZN3pcl11KdTreeFLANNINS_11PointXYZHSVEN5flann9L2_SimpleIfEEED1Ev@Base 1.6
 (optional=templinst)_ZN3pcl11KdTreeFLANNINS_11PointXYZHSVEN5flann9L2_SimpleIfEEED2Ev@Base 1.6
 (optional=templinst)_ZN3pcl11KdTreeFLANNINS_11PointXYZRGBEN5flann9L2_SimpleIfEEE10setEpsilonEf@Base 1.6
 (optional=templinst)_ZN3pcl11KdTreeFLANNINS_11PointXYZRGBEN5flann9L2_SimpleIfEEED0Ev@Base 1.6
 (optional=templinst)_ZN3pcl11KdTreeFLANNINS_11PointXYZRGBEN5flann9L2_SimpleIfEEED1Ev@Base 1.6
 (optional=templinst)_ZN3pcl11KdTreeFLANNINS_11PointXYZRGBEN5flann9L2_SimpleIfEEED2Ev@Base 1.6
 (optional=templinst)_ZN3pcl11KdTreeFLANNINS_12PointXYZRGBAEN5flann9L2_SimpleIfEEE10setEpsilonEf@Base 1.6
 (optional=templinst)_ZN3pcl11KdTreeFLANNINS_12PointXYZRGBAEN5flann9L2_SimpleIfEEED0Ev@Base 1.6
 (optional=templinst)_ZN3pcl11KdTreeFLANNINS_12PointXYZRGBAEN5flann9L2_SimpleIfEEED1Ev@Base 1.6
 (optional=templinst)_ZN3pcl11KdTreeFLANNINS_12PointXYZRGBAEN5flann9L2_SimpleIfEEED2Ev@Base 1.6
 (optional=templinst)_ZN3pcl11KdTreeFLANNINS_12PointXYZRGBLEN5flann9L2_SimpleIfEEE10setEpsilonEf@Base 1.6
 (optional=templinst)_ZN3pcl11KdTreeFLANNINS_12PointXYZRGBLEN5flann9L2_SimpleIfEEED0Ev@Base 1.6
 (optional=templinst)_ZN3pcl11KdTreeFLANNINS_12PointXYZRGBLEN5flann9L2_SimpleIfEEED1Ev@Base 1.6
 (optional=templinst)_ZN3pcl11KdTreeFLANNINS_12PointXYZRGBLEN5flann9L2_SimpleIfEEED2Ev@Base 1.6
 (optional=templinst)_ZN3pcl11KdTreeFLANNINS_13InterestPointEN5flann9L2_SimpleIfEEE10setEpsilonEf@Base 1.6
 (optional=templinst)_ZN3pcl11KdTreeFLANNINS_13InterestPointEN5flann9L2_SimpleIfEEED0Ev@Base 1.6
 (optional=templinst)_ZN3pcl11KdTreeFLANNINS_13InterestPointEN5flann9L2_SimpleIfEEED1Ev@Base 1.6
 (optional=templinst)_ZN3pcl11KdTreeFLANNINS_13InterestPointEN5flann9L2_SimpleIfEEED2Ev@Base 1.6
 (optional=templinst)_ZN3pcl11KdTreeFLANNINS_14PointWithRangeEN5flann9L2_SimpleIfEEE10setEpsilonEf@Base 1.6
 (optional=templinst)_ZN3pcl11KdTreeFLANNINS_14PointWithRangeEN5flann9L2_SimpleIfEEED0Ev@Base 1.6
 (optional=templinst)_ZN3pcl11KdTreeFLANNINS_14PointWithRangeEN5flann9L2_SimpleIfEEED1Ev@Base 1.6
 (optional=templinst)_ZN3pcl11KdTreeFLANNINS_14PointWithRangeEN5flann9L2_SimpleIfEEED2Ev@Base 1.6
 (optional=templinst)_ZN3pcl11KdTreeFLANNINS_14PointWithScaleEN5flann9L2_SimpleIfEEE10setEpsilonEf@Base 1.6
 (optional=templinst)_ZN3pcl11KdTreeFLANNINS_14PointWithScaleEN5flann9L2_SimpleIfEEED0Ev@Base 1.6
 (optional=templinst)_ZN3pcl11KdTreeFLANNINS_14PointWithScaleEN5flann9L2_SimpleIfEEED1Ev@Base 1.6
 (optional=templinst)_ZN3pcl11KdTreeFLANNINS_14PointWithScaleEN5flann9L2_SimpleIfEEED2Ev@Base 1.6
 (optional=templinst)_ZN3pcl11KdTreeFLANNINS_15PointXYZINormalEN5flann9L2_SimpleIfEEE10setEpsilonEf@Base 1.6
 (optional=templinst)_ZN3pcl11KdTreeFLANNINS_15PointXYZINormalEN5flann9L2_SimpleIfEEED0Ev@Base 1.6
 (optional=templinst)_ZN3pcl11KdTreeFLANNINS_15PointXYZINormalEN5flann9L2_SimpleIfEEED1Ev@Base 1.6
 (optional=templinst)_ZN3pcl11KdTreeFLANNINS_15PointXYZINormalEN5flann9L2_SimpleIfEEED2Ev@Base 1.6
 (optional=templinst)_ZN3pcl11KdTreeFLANNINS_17PointXYZRGBNormalEN5flann9L2_SimpleIfEEE10setEpsilonEf@Base 1.6
 (optional=templinst)_ZN3pcl11KdTreeFLANNINS_17PointXYZRGBNormalEN5flann9L2_SimpleIfEEED0Ev@Base 1.6
 (optional=templinst)_ZN3pcl11KdTreeFLANNINS_17PointXYZRGBNormalEN5flann9L2_SimpleIfEEED1Ev@Base 1.6
 (optional=templinst)_ZN3pcl11KdTreeFLANNINS_17PointXYZRGBNormalEN5flann9L2_SimpleIfEEED2Ev@Base 1.6
 (optional=templinst)_ZN3pcl11KdTreeFLANNINS_18PointWithViewpointEN5flann9L2_SimpleIfEEE10setEpsilonEf@Base 1.6
 (optional=templinst)_ZN3pcl11KdTreeFLANNINS_18PointWithViewpointEN5flann9L2_SimpleIfEEED0Ev@Base 1.6
 (optional=templinst)_ZN3pcl11KdTreeFLANNINS_18PointWithViewpointEN5flann9L2_SimpleIfEEED1Ev@Base 1.6
 (optional=templinst)_ZN3pcl11KdTreeFLANNINS_18PointWithViewpointEN5flann9L2_SimpleIfEEED2Ev@Base 1.6
 (optional=templinst)_ZN3pcl11KdTreeFLANNINS_8PointXYZEN5flann9L2_SimpleIfEEE10setEpsilonEf@Base 1.6
 (optional=templinst)_ZN3pcl11KdTreeFLANNINS_8PointXYZEN5flann9L2_SimpleIfEEED0Ev@Base 1.6
 (optional=templinst)_ZN3pcl11KdTreeFLANNINS_8PointXYZEN5flann9L2_SimpleIfEEED1Ev@Base 1.6
 (optional=templinst)_ZN3pcl11KdTreeFLANNINS_8PointXYZEN5flann9L2_SimpleIfEEED2Ev@Base 1.6
 (optional=templinst)_ZN3pcl11KdTreeFLANNINS_9PointXYZIEN5flann9L2_SimpleIfEEE10setEpsilonEf@Base 1.6
 (optional=templinst)_ZN3pcl11KdTreeFLANNINS_9PointXYZIEN5flann9L2_SimpleIfEEED0Ev@Base 1.6
 (optional=templinst)_ZN3pcl11KdTreeFLANNINS_9PointXYZIEN5flann9L2_SimpleIfEEED1Ev@Base 1.6
 (optional=templinst)_ZN3pcl11KdTreeFLANNINS_9PointXYZIEN5flann9L2_SimpleIfEEED2Ev@Base 1.6
 (optional=templinst)_ZN3pcl11KdTreeFLANNINS_9PointXYZLEN5flann9L2_SimpleIfEEE10setEpsilonEf@Base 1.6
 (optional=templinst)_ZN3pcl11KdTreeFLANNINS_9PointXYZLEN5flann9L2_SimpleIfEEED0Ev@Base 1.6
 (optional=templinst)_ZN3pcl11KdTreeFLANNINS_9PointXYZLEN5flann9L2_SimpleIfEEED1Ev@Base 1.6
 (optional=templinst)_ZN3pcl11KdTreeFLANNINS_9PointXYZLEN5flann9L2_SimpleIfEEED2Ev@Base 1.6
 (optional=templinst)_ZN3pcl11PassThroughIN11sensor_msgs11PointCloud2EE11applyFilterERS2_@Base 1.6
 (optional=templinst)_ZN3pcl11PassThroughIN11sensor_msgs11PointCloud2EED0Ev@Base 1.6
 (optional=templinst)_ZN3pcl11PassThroughIN11sensor_msgs11PointCloud2EED1Ev@Base 1.6
 (optional=templinst)_ZN3pcl11PassThroughIN11sensor_msgs11PointCloud2EED2Ev@Base 1.6
 (optional=templinst)_ZN3pcl11PassThroughINS_11PointNormalEE11applyFilterERNS_10PointCloudIS1_EE@Base 1.6
 (optional=templinst)_ZN3pcl11PassThroughINS_11PointNormalEE11applyFilterERSt6vectorIiSaIiEE@Base 1.6
 (optional=templinst)_ZN3pcl11PassThroughINS_11PointNormalEE15getFilterLimitsERfS3_@Base 1.6
 (optional=templinst)_ZN3pcl11PassThroughINS_11PointNormalEE15setFilterLimitsERKfS4_@Base 1.6
 (optional=templinst)_ZN3pcl11PassThroughINS_11PointNormalEE18applyFilterIndicesERSt6vectorIiSaIiEE@Base 1.6
 (optional=templinst)_ZN3pcl11PassThroughINS_11PointNormalEE18getFilterFieldNameEv@Base 1.6
 (optional=templinst)_ZN3pcl11PassThroughINS_11PointNormalEE18setFilterFieldNameERKSs@Base 1.6
 (optional=templinst)_ZN3pcl11PassThroughINS_11PointNormalEE23getFilterLimitsNegativeERb@Base 1.6
 (optional=templinst)_ZN3pcl11PassThroughINS_11PointNormalEE23getFilterLimitsNegativeEv@Base 1.6
 (optional=templinst)_ZN3pcl11PassThroughINS_11PointNormalEE23setFilterLimitsNegativeEb@Base 1.6
 (optional=templinst)_ZN3pcl11PassThroughINS_11PointNormalEEC1Eb@Base 1.6
 (optional=templinst)_ZN3pcl11PassThroughINS_11PointNormalEEC2Eb@Base 1.6
 (optional=templinst)_ZN3pcl11PassThroughINS_11PointNormalEED0Ev@Base 1.6
 (optional=templinst)_ZN3pcl11PassThroughINS_11PointNormalEED1Ev@Base 1.6
 (optional=templinst)_ZN3pcl11PassThroughINS_11PointNormalEED2Ev@Base 1.6
 (optional=templinst)_ZN3pcl11PassThroughINS_11PointXYZHSVEE11applyFilterERNS_10PointCloudIS1_EE@Base 1.6
 (optional=templinst)_ZN3pcl11PassThroughINS_11PointXYZHSVEE11applyFilterERSt6vectorIiSaIiEE@Base 1.6
 (optional=templinst)_ZN3pcl11PassThroughINS_11PointXYZHSVEE15getFilterLimitsERfS3_@Base 1.6
 (optional=templinst)_ZN3pcl11PassThroughINS_11PointXYZHSVEE15setFilterLimitsERKfS4_@Base 1.6
 (optional=templinst)_ZN3pcl11PassThroughINS_11PointXYZHSVEE18applyFilterIndicesERSt6vectorIiSaIiEE@Base 1.6
 (optional=templinst)_ZN3pcl11PassThroughINS_11PointXYZHSVEE18getFilterFieldNameEv@Base 1.6
 (optional=templinst)_ZN3pcl11PassThroughINS_11PointXYZHSVEE18setFilterFieldNameERKSs@Base 1.6
 (optional=templinst)_ZN3pcl11PassThroughINS_11PointXYZHSVEE23getFilterLimitsNegativeERb@Base 1.6
 (optional=templinst)_ZN3pcl11PassThroughINS_11PointXYZHSVEE23getFilterLimitsNegativeEv@Base 1.6
 (optional=templinst)_ZN3pcl11PassThroughINS_11PointXYZHSVEE23setFilterLimitsNegativeEb@Base 1.6
 (optional=templinst)_ZN3pcl11PassThroughINS_11PointXYZHSVEEC1Eb@Base 1.6
 (optional=templinst)_ZN3pcl11PassThroughINS_11PointXYZHSVEEC2Eb@Base 1.6
 (optional=templinst)_ZN3pcl11PassThroughINS_11PointXYZHSVEED0Ev@Base 1.6
 (optional=templinst)_ZN3pcl11PassThroughINS_11PointXYZHSVEED1Ev@Base 1.6
 (optional=templinst)_ZN3pcl11PassThroughINS_11PointXYZHSVEED2Ev@Base 1.6
 (optional=templinst)_ZN3pcl11PassThroughINS_11PointXYZRGBEE11applyFilterERNS_10PointCloudIS1_EE@Base 1.6
 (optional=templinst)_ZN3pcl11PassThroughINS_11PointXYZRGBEE11applyFilterERSt6vectorIiSaIiEE@Base 1.6
 (optional=templinst)_ZN3pcl11PassThroughINS_11PointXYZRGBEE15getFilterLimitsERfS3_@Base 1.6
 (optional=templinst)_ZN3pcl11PassThroughINS_11PointXYZRGBEE15setFilterLimitsERKfS4_@Base 1.6
 (optional=templinst)_ZN3pcl11PassThroughINS_11PointXYZRGBEE18applyFilterIndicesERSt6vectorIiSaIiEE@Base 1.6
 (optional=templinst)_ZN3pcl11PassThroughINS_11PointXYZRGBEE18getFilterFieldNameEv@Base 1.6
 (optional=templinst)_ZN3pcl11PassThroughINS_11PointXYZRGBEE18setFilterFieldNameERKSs@Base 1.6
 (optional=templinst)_ZN3pcl11PassThroughINS_11PointXYZRGBEE23getFilterLimitsNegativeERb@Base 1.6
 (optional=templinst)_ZN3pcl11PassThroughINS_11PointXYZRGBEE23getFilterLimitsNegativeEv@Base 1.6
 (optional=templinst)_ZN3pcl11PassThroughINS_11PointXYZRGBEE23setFilterLimitsNegativeEb@Base 1.6
 (optional=templinst)_ZN3pcl11PassThroughINS_11PointXYZRGBEEC1Eb@Base 1.6
 (optional=templinst)_ZN3pcl11PassThroughINS_11PointXYZRGBEEC2Eb@Base 1.6
 (optional=templinst)_ZN3pcl11PassThroughINS_11PointXYZRGBEED0Ev@Base 1.6
 (optional=templinst)_ZN3pcl11PassThroughINS_11PointXYZRGBEED1Ev@Base 1.6
 (optional=templinst)_ZN3pcl11PassThroughINS_11PointXYZRGBEED2Ev@Base 1.6
 (optional=templinst)_ZN3pcl11PassThroughINS_12PointXYZRGBAEE11applyFilterERNS_10PointCloudIS1_EE@Base 1.6
 (optional=templinst)_ZN3pcl11PassThroughINS_12PointXYZRGBAEE11applyFilterERSt6vectorIiSaIiEE@Base 1.6
 (optional=templinst)_ZN3pcl11PassThroughINS_12PointXYZRGBAEE15getFilterLimitsERfS3_@Base 1.6
 (optional=templinst)_ZN3pcl11PassThroughINS_12PointXYZRGBAEE15setFilterLimitsERKfS4_@Base 1.6
 (optional=templinst)_ZN3pcl11PassThroughINS_12PointXYZRGBAEE18applyFilterIndicesERSt6vectorIiSaIiEE@Base 1.6
 (optional=templinst)_ZN3pcl11PassThroughINS_12PointXYZRGBAEE18getFilterFieldNameEv@Base 1.6
 (optional=templinst)_ZN3pcl11PassThroughINS_12PointXYZRGBAEE18setFilterFieldNameERKSs@Base 1.6
 (optional=templinst)_ZN3pcl11PassThroughINS_12PointXYZRGBAEE23getFilterLimitsNegativeERb@Base 1.6
 (optional=templinst)_ZN3pcl11PassThroughINS_12PointXYZRGBAEE23getFilterLimitsNegativeEv@Base 1.6
 (optional=templinst)_ZN3pcl11PassThroughINS_12PointXYZRGBAEE23setFilterLimitsNegativeEb@Base 1.6
 (optional=templinst)_ZN3pcl11PassThroughINS_12PointXYZRGBAEEC1Eb@Base 1.6
 (optional=templinst)_ZN3pcl11PassThroughINS_12PointXYZRGBAEEC2Eb@Base 1.6
 (optional=templinst)_ZN3pcl11PassThroughINS_12PointXYZRGBAEED0Ev@Base 1.6
 (optional=templinst)_ZN3pcl11PassThroughINS_12PointXYZRGBAEED1Ev@Base 1.6
 (optional=templinst)_ZN3pcl11PassThroughINS_12PointXYZRGBAEED2Ev@Base 1.6
 (optional=templinst)_ZN3pcl11PassThroughINS_12PointXYZRGBLEE11applyFilterERNS_10PointCloudIS1_EE@Base 1.6
 (optional=templinst)_ZN3pcl11PassThroughINS_12PointXYZRGBLEE11applyFilterERSt6vectorIiSaIiEE@Base 1.6
 (optional=templinst)_ZN3pcl11PassThroughINS_12PointXYZRGBLEE15getFilterLimitsERfS3_@Base 1.6
 (optional=templinst)_ZN3pcl11PassThroughINS_12PointXYZRGBLEE15setFilterLimitsERKfS4_@Base 1.6
 (optional=templinst)_ZN3pcl11PassThroughINS_12PointXYZRGBLEE18applyFilterIndicesERSt6vectorIiSaIiEE@Base 1.6
 (optional=templinst)_ZN3pcl11PassThroughINS_12PointXYZRGBLEE18getFilterFieldNameEv@Base 1.6
 (optional=templinst)_ZN3pcl11PassThroughINS_12PointXYZRGBLEE18setFilterFieldNameERKSs@Base 1.6
 (optional=templinst)_ZN3pcl11PassThroughINS_12PointXYZRGBLEE23getFilterLimitsNegativeERb@Base 1.6
 (optional=templinst)_ZN3pcl11PassThroughINS_12PointXYZRGBLEE23getFilterLimitsNegativeEv@Base 1.6
 (optional=templinst)_ZN3pcl11PassThroughINS_12PointXYZRGBLEE23setFilterLimitsNegativeEb@Base 1.6
 (optional=templinst)_ZN3pcl11PassThroughINS_12PointXYZRGBLEEC1Eb@Base 1.6
 (optional=templinst)_ZN3pcl11PassThroughINS_12PointXYZRGBLEEC2Eb@Base 1.6
 (optional=templinst)_ZN3pcl11PassThroughINS_12PointXYZRGBLEED0Ev@Base 1.6
 (optional=templinst)_ZN3pcl11PassThroughINS_12PointXYZRGBLEED1Ev@Base 1.6
 (optional=templinst)_ZN3pcl11PassThroughINS_12PointXYZRGBLEED2Ev@Base 1.6
 (optional=templinst)_ZN3pcl11PassThroughINS_13InterestPointEE11applyFilterERNS_10PointCloudIS1_EE@Base 1.6
 (optional=templinst)_ZN3pcl11PassThroughINS_13InterestPointEE11applyFilterERSt6vectorIiSaIiEE@Base 1.6
 (optional=templinst)_ZN3pcl11PassThroughINS_13InterestPointEE15getFilterLimitsERfS3_@Base 1.6
 (optional=templinst)_ZN3pcl11PassThroughINS_13InterestPointEE15setFilterLimitsERKfS4_@Base 1.6
 (optional=templinst)_ZN3pcl11PassThroughINS_13InterestPointEE18applyFilterIndicesERSt6vectorIiSaIiEE@Base 1.6
 (optional=templinst)_ZN3pcl11PassThroughINS_13InterestPointEE18getFilterFieldNameEv@Base 1.6
 (optional=templinst)_ZN3pcl11PassThroughINS_13InterestPointEE18setFilterFieldNameERKSs@Base 1.6
 (optional=templinst)_ZN3pcl11PassThroughINS_13InterestPointEE23getFilterLimitsNegativeERb@Base 1.6
 (optional=templinst)_ZN3pcl11PassThroughINS_13InterestPointEE23getFilterLimitsNegativeEv@Base 1.6
 (optional=templinst)_ZN3pcl11PassThroughINS_13InterestPointEE23setFilterLimitsNegativeEb@Base 1.6
 (optional=templinst)_ZN3pcl11PassThroughINS_13InterestPointEEC1Eb@Base 1.6
 (optional=templinst)_ZN3pcl11PassThroughINS_13InterestPointEEC2Eb@Base 1.6
 (optional=templinst)_ZN3pcl11PassThroughINS_13InterestPointEED0Ev@Base 1.6
 (optional=templinst)_ZN3pcl11PassThroughINS_13InterestPointEED1Ev@Base 1.6
 (optional=templinst)_ZN3pcl11PassThroughINS_13InterestPointEED2Ev@Base 1.6
 (optional=templinst)_ZN3pcl11PassThroughINS_14PointWithRangeEE11applyFilterERNS_10PointCloudIS1_EE@Base 1.6
 (optional=templinst)_ZN3pcl11PassThroughINS_14PointWithRangeEE11applyFilterERSt6vectorIiSaIiEE@Base 1.6
 (optional=templinst)_ZN3pcl11PassThroughINS_14PointWithRangeEE15getFilterLimitsERfS3_@Base 1.6
 (optional=templinst)_ZN3pcl11PassThroughINS_14PointWithRangeEE15setFilterLimitsERKfS4_@Base 1.6
 (optional=templinst)_ZN3pcl11PassThroughINS_14PointWithRangeEE18applyFilterIndicesERSt6vectorIiSaIiEE@Base 1.6
 (optional=templinst)_ZN3pcl11PassThroughINS_14PointWithRangeEE18getFilterFieldNameEv@Base 1.6
 (optional=templinst)_ZN3pcl11PassThroughINS_14PointWithRangeEE18setFilterFieldNameERKSs@Base 1.6
 (optional=templinst)_ZN3pcl11PassThroughINS_14PointWithRangeEE23getFilterLimitsNegativeERb@Base 1.6
 (optional=templinst)_ZN3pcl11PassThroughINS_14PointWithRangeEE23getFilterLimitsNegativeEv@Base 1.6
 (optional=templinst)_ZN3pcl11PassThroughINS_14PointWithRangeEE23setFilterLimitsNegativeEb@Base 1.6
 (optional=templinst)_ZN3pcl11PassThroughINS_14PointWithRangeEEC1Eb@Base 1.6
 (optional=templinst)_ZN3pcl11PassThroughINS_14PointWithRangeEEC2Eb@Base 1.6
 (optional=templinst)_ZN3pcl11PassThroughINS_14PointWithRangeEED0Ev@Base 1.6
 (optional=templinst)_ZN3pcl11PassThroughINS_14PointWithRangeEED1Ev@Base 1.6
 (optional=templinst)_ZN3pcl11PassThroughINS_14PointWithRangeEED2Ev@Base 1.6
 (optional=templinst)_ZN3pcl11PassThroughINS_14PointWithScaleEE11applyFilterERNS_10PointCloudIS1_EE@Base 1.6
 (optional=templinst)_ZN3pcl11PassThroughINS_14PointWithScaleEE11applyFilterERSt6vectorIiSaIiEE@Base 1.6
 (optional=templinst)_ZN3pcl11PassThroughINS_14PointWithScaleEE15getFilterLimitsERfS3_@Base 1.6
 (optional=templinst)_ZN3pcl11PassThroughINS_14PointWithScaleEE15setFilterLimitsERKfS4_@Base 1.6
 (optional=templinst)_ZN3pcl11PassThroughINS_14PointWithScaleEE18applyFilterIndicesERSt6vectorIiSaIiEE@Base 1.6
 (optional=templinst)_ZN3pcl11PassThroughINS_14PointWithScaleEE18getFilterFieldNameEv@Base 1.6
 (optional=templinst)_ZN3pcl11PassThroughINS_14PointWithScaleEE18setFilterFieldNameERKSs@Base 1.6
 (optional=templinst)_ZN3pcl11PassThroughINS_14PointWithScaleEE23getFilterLimitsNegativeERb@Base 1.6
 (optional=templinst)_ZN3pcl11PassThroughINS_14PointWithScaleEE23getFilterLimitsNegativeEv@Base 1.6
 (optional=templinst)_ZN3pcl11PassThroughINS_14PointWithScaleEE23setFilterLimitsNegativeEb@Base 1.6
 (optional=templinst)_ZN3pcl11PassThroughINS_14PointWithScaleEEC1Eb@Base 1.6
 (optional=templinst)_ZN3pcl11PassThroughINS_14PointWithScaleEEC2Eb@Base 1.6
 (optional=templinst)_ZN3pcl11PassThroughINS_14PointWithScaleEED0Ev@Base 1.6
 (optional=templinst)_ZN3pcl11PassThroughINS_14PointWithScaleEED1Ev@Base 1.6
 (optional=templinst)_ZN3pcl11PassThroughINS_14PointWithScaleEED2Ev@Base 1.6
 (optional=templinst)_ZN3pcl11PassThroughINS_15PointXYZINormalEE11applyFilterERNS_10PointCloudIS1_EE@Base 1.6
 (optional=templinst)_ZN3pcl11PassThroughINS_15PointXYZINormalEE11applyFilterERSt6vectorIiSaIiEE@Base 1.6
 (optional=templinst)_ZN3pcl11PassThroughINS_15PointXYZINormalEE15getFilterLimitsERfS3_@Base 1.6
 (optional=templinst)_ZN3pcl11PassThroughINS_15PointXYZINormalEE15setFilterLimitsERKfS4_@Base 1.6
 (optional=templinst)_ZN3pcl11PassThroughINS_15PointXYZINormalEE18applyFilterIndicesERSt6vectorIiSaIiEE@Base 1.6
 (optional=templinst)_ZN3pcl11PassThroughINS_15PointXYZINormalEE18getFilterFieldNameEv@Base 1.6
 (optional=templinst)_ZN3pcl11PassThroughINS_15PointXYZINormalEE18setFilterFieldNameERKSs@Base 1.6
 (optional=templinst)_ZN3pcl11PassThroughINS_15PointXYZINormalEE23getFilterLimitsNegativeERb@Base 1.6
 (optional=templinst)_ZN3pcl11PassThroughINS_15PointXYZINormalEE23getFilterLimitsNegativeEv@Base 1.6
 (optional=templinst)_ZN3pcl11PassThroughINS_15PointXYZINormalEE23setFilterLimitsNegativeEb@Base 1.6
 (optional=templinst)_ZN3pcl11PassThroughINS_15PointXYZINormalEEC1Eb@Base 1.6
 (optional=templinst)_ZN3pcl11PassThroughINS_15PointXYZINormalEEC2Eb@Base 1.6
 (optional=templinst)_ZN3pcl11PassThroughINS_15PointXYZINormalEED0Ev@Base 1.6
 (optional=templinst)_ZN3pcl11PassThroughINS_15PointXYZINormalEED1Ev@Base 1.6
 (optional=templinst)_ZN3pcl11PassThroughINS_15PointXYZINormalEED2Ev@Base 1.6
 (optional=templinst)_ZN3pcl11PassThroughINS_17PointXYZRGBNormalEE11applyFilterERNS_10PointCloudIS1_EE@Base 1.6
 (optional=templinst)_ZN3pcl11PassThroughINS_17PointXYZRGBNormalEE11applyFilterERSt6vectorIiSaIiEE@Base 1.6
 (optional=templinst)_ZN3pcl11PassThroughINS_17PointXYZRGBNormalEE15getFilterLimitsERfS3_@Base 1.6
 (optional=templinst)_ZN3pcl11PassThroughINS_17PointXYZRGBNormalEE15setFilterLimitsERKfS4_@Base 1.6
 (optional=templinst)_ZN3pcl11PassThroughINS_17PointXYZRGBNormalEE18applyFilterIndicesERSt6vectorIiSaIiEE@Base 1.6
 (optional=templinst)_ZN3pcl11PassThroughINS_17PointXYZRGBNormalEE18getFilterFieldNameEv@Base 1.6
 (optional=templinst)_ZN3pcl11PassThroughINS_17PointXYZRGBNormalEE18setFilterFieldNameERKSs@Base 1.6
 (optional=templinst)_ZN3pcl11PassThroughINS_17PointXYZRGBNormalEE23getFilterLimitsNegativeERb@Base 1.6
 (optional=templinst)_ZN3pcl11PassThroughINS_17PointXYZRGBNormalEE23getFilterLimitsNegativeEv@Base 1.6
 (optional=templinst)_ZN3pcl11PassThroughINS_17PointXYZRGBNormalEE23setFilterLimitsNegativeEb@Base 1.6
 (optional=templinst)_ZN3pcl11PassThroughINS_17PointXYZRGBNormalEEC1Eb@Base 1.6
 (optional=templinst)_ZN3pcl11PassThroughINS_17PointXYZRGBNormalEEC2Eb@Base 1.6
 (optional=templinst)_ZN3pcl11PassThroughINS_17PointXYZRGBNormalEED0Ev@Base 1.6
 (optional=templinst)_ZN3pcl11PassThroughINS_17PointXYZRGBNormalEED1Ev@Base 1.6
 (optional=templinst)_ZN3pcl11PassThroughINS_17PointXYZRGBNormalEED2Ev@Base 1.6
 (optional=templinst)_ZN3pcl11PassThroughINS_18PointWithViewpointEE11applyFilterERNS_10PointCloudIS1_EE@Base 1.6
 (optional=templinst)_ZN3pcl11PassThroughINS_18PointWithViewpointEE11applyFilterERSt6vectorIiSaIiEE@Base 1.6
 (optional=templinst)_ZN3pcl11PassThroughINS_18PointWithViewpointEE15getFilterLimitsERfS3_@Base 1.6
 (optional=templinst)_ZN3pcl11PassThroughINS_18PointWithViewpointEE15setFilterLimitsERKfS4_@Base 1.6
 (optional=templinst)_ZN3pcl11PassThroughINS_18PointWithViewpointEE18applyFilterIndicesERSt6vectorIiSaIiEE@Base 1.6
 (optional=templinst)_ZN3pcl11PassThroughINS_18PointWithViewpointEE18getFilterFieldNameEv@Base 1.6
 (optional=templinst)_ZN3pcl11PassThroughINS_18PointWithViewpointEE18setFilterFieldNameERKSs@Base 1.6
 (optional=templinst)_ZN3pcl11PassThroughINS_18PointWithViewpointEE23getFilterLimitsNegativeERb@Base 1.6
 (optional=templinst)_ZN3pcl11PassThroughINS_18PointWithViewpointEE23getFilterLimitsNegativeEv@Base 1.6
 (optional=templinst)_ZN3pcl11PassThroughINS_18PointWithViewpointEE23setFilterLimitsNegativeEb@Base 1.6
 (optional=templinst)_ZN3pcl11PassThroughINS_18PointWithViewpointEEC1Eb@Base 1.6
 (optional=templinst)_ZN3pcl11PassThroughINS_18PointWithViewpointEEC2Eb@Base 1.6
 (optional=templinst)_ZN3pcl11PassThroughINS_18PointWithViewpointEED0Ev@Base 1.6
 (optional=templinst)_ZN3pcl11PassThroughINS_18PointWithViewpointEED1Ev@Base 1.6
 (optional=templinst)_ZN3pcl11PassThroughINS_18PointWithViewpointEED2Ev@Base 1.6
 (optional=templinst)_ZN3pcl11PassThroughINS_8PointXYZEE11applyFilterERNS_10PointCloudIS1_EE@Base 1.6
 (optional=templinst)_ZN3pcl11PassThroughINS_8PointXYZEE11applyFilterERSt6vectorIiSaIiEE@Base 1.6
 (optional=templinst)_ZN3pcl11PassThroughINS_8PointXYZEE15getFilterLimitsERfS3_@Base 1.6
 (optional=templinst)_ZN3pcl11PassThroughINS_8PointXYZEE15setFilterLimitsERKfS4_@Base 1.6
 (optional=templinst)_ZN3pcl11PassThroughINS_8PointXYZEE18applyFilterIndicesERSt6vectorIiSaIiEE@Base 1.6
 (optional=templinst)_ZN3pcl11PassThroughINS_8PointXYZEE18getFilterFieldNameEv@Base 1.6
 (optional=templinst)_ZN3pcl11PassThroughINS_8PointXYZEE18setFilterFieldNameERKSs@Base 1.6
 (optional=templinst)_ZN3pcl11PassThroughINS_8PointXYZEE23getFilterLimitsNegativeERb@Base 1.6
 (optional=templinst)_ZN3pcl11PassThroughINS_8PointXYZEE23getFilterLimitsNegativeEv@Base 1.6
 (optional=templinst)_ZN3pcl11PassThroughINS_8PointXYZEE23setFilterLimitsNegativeEb@Base 1.6
 (optional=templinst)_ZN3pcl11PassThroughINS_8PointXYZEEC1Eb@Base 1.6
 (optional=templinst)_ZN3pcl11PassThroughINS_8PointXYZEEC2Eb@Base 1.6
 (optional=templinst)_ZN3pcl11PassThroughINS_8PointXYZEED0Ev@Base 1.6
 (optional=templinst)_ZN3pcl11PassThroughINS_8PointXYZEED1Ev@Base 1.6
 (optional=templinst)_ZN3pcl11PassThroughINS_8PointXYZEED2Ev@Base 1.6
 (optional=templinst)_ZN3pcl11PassThroughINS_9PointXYZIEE11applyFilterERNS_10PointCloudIS1_EE@Base 1.6
 (optional=templinst)_ZN3pcl11PassThroughINS_9PointXYZIEE11applyFilterERSt6vectorIiSaIiEE@Base 1.6
 (optional=templinst)_ZN3pcl11PassThroughINS_9PointXYZIEE15getFilterLimitsERfS3_@Base 1.6
 (optional=templinst)_ZN3pcl11PassThroughINS_9PointXYZIEE15setFilterLimitsERKfS4_@Base 1.6
 (optional=templinst)_ZN3pcl11PassThroughINS_9PointXYZIEE18applyFilterIndicesERSt6vectorIiSaIiEE@Base 1.6
 (optional=templinst)_ZN3pcl11PassThroughINS_9PointXYZIEE18getFilterFieldNameEv@Base 1.6
 (optional=templinst)_ZN3pcl11PassThroughINS_9PointXYZIEE18setFilterFieldNameERKSs@Base 1.6
 (optional=templinst)_ZN3pcl11PassThroughINS_9PointXYZIEE23getFilterLimitsNegativeERb@Base 1.6
 (optional=templinst)_ZN3pcl11PassThroughINS_9PointXYZIEE23getFilterLimitsNegativeEv@Base 1.6
 (optional=templinst)_ZN3pcl11PassThroughINS_9PointXYZIEE23setFilterLimitsNegativeEb@Base 1.6
 (optional=templinst)_ZN3pcl11PassThroughINS_9PointXYZIEEC1Eb@Base 1.6
 (optional=templinst)_ZN3pcl11PassThroughINS_9PointXYZIEEC2Eb@Base 1.6
 (optional=templinst)_ZN3pcl11PassThroughINS_9PointXYZIEED0Ev@Base 1.6
 (optional=templinst)_ZN3pcl11PassThroughINS_9PointXYZIEED1Ev@Base 1.6
 (optional=templinst)_ZN3pcl11PassThroughINS_9PointXYZIEED2Ev@Base 1.6
 (optional=templinst)_ZN3pcl11PassThroughINS_9PointXYZLEE11applyFilterERNS_10PointCloudIS1_EE@Base 1.6
 (optional=templinst)_ZN3pcl11PassThroughINS_9PointXYZLEE11applyFilterERSt6vectorIiSaIiEE@Base 1.6
 (optional=templinst)_ZN3pcl11PassThroughINS_9PointXYZLEE15getFilterLimitsERfS3_@Base 1.6
 (optional=templinst)_ZN3pcl11PassThroughINS_9PointXYZLEE15setFilterLimitsERKfS4_@Base 1.6
 (optional=templinst)_ZN3pcl11PassThroughINS_9PointXYZLEE18applyFilterIndicesERSt6vectorIiSaIiEE@Base 1.6
 (optional=templinst)_ZN3pcl11PassThroughINS_9PointXYZLEE18getFilterFieldNameEv@Base 1.6
 (optional=templinst)_ZN3pcl11PassThroughINS_9PointXYZLEE18setFilterFieldNameERKSs@Base 1.6
 (optional=templinst)_ZN3pcl11PassThroughINS_9PointXYZLEE23getFilterLimitsNegativeERb@Base 1.6
 (optional=templinst)_ZN3pcl11PassThroughINS_9PointXYZLEE23getFilterLimitsNegativeEv@Base 1.6
 (optional=templinst)_ZN3pcl11PassThroughINS_9PointXYZLEE23setFilterLimitsNegativeEb@Base 1.6
 (optional=templinst)_ZN3pcl11PassThroughINS_9PointXYZLEEC1Eb@Base 1.6
 (optional=templinst)_ZN3pcl11PassThroughINS_9PointXYZLEEC2Eb@Base 1.6
 (optional=templinst)_ZN3pcl11PassThroughINS_9PointXYZLEED0Ev@Base 1.6
 (optional=templinst)_ZN3pcl11PassThroughINS_9PointXYZLEED1Ev@Base 1.6
 (optional=templinst)_ZN3pcl11PassThroughINS_9PointXYZLEED2Ev@Base 1.6
 _ZN3pcl11getMinMax3DERKN5boost10shared_ptrIKN11sensor_msgs11PointCloud2EEEiiiRKSsffRN5Eigen6MatrixIfLi4ELi1ELi0ELi4ELi1EEESD_b@Base 1.6
 _ZN3pcl11getMinMax3DERKN5boost10shared_ptrIKN11sensor_msgs11PointCloud2EEEiiiRN5Eigen6MatrixIfLi4ELi1ELi0ELi4ELi1EEESB_@Base 1.6
 (optional=templinst)_ZN3pcl11getMinMax3DINS_11PointNormalEEEvRKNS_10PointCloudIT_E8ConstPtrERKSsffRN5Eigen6MatrixIfLi4ELi1ELi0ELi4ELi1EEESD_b@Base 1.6
 (optional=templinst)_ZN3pcl11getMinMax3DINS_11PointNormalEEEvRKNS_10PointCloudIT_EERN5Eigen6MatrixIfLi4ELi1ELi0ELi4ELi1EEESA_@Base 1.6
 (optional=templinst)_ZN3pcl11getMinMax3DINS_11PointXYZHSVEEEvRKNS_10PointCloudIT_E8ConstPtrERKSsffRN5Eigen6MatrixIfLi4ELi1ELi0ELi4ELi1EEESD_b@Base 1.6
 (optional=templinst)_ZN3pcl11getMinMax3DINS_11PointXYZHSVEEEvRKNS_10PointCloudIT_EERN5Eigen6MatrixIfLi4ELi1ELi0ELi4ELi1EEESA_@Base 1.6
 (optional=templinst)_ZN3pcl11getMinMax3DINS_11PointXYZRGBEEEvRKNS_10PointCloudIT_E8ConstPtrERKSsffRN5Eigen6MatrixIfLi4ELi1ELi0ELi4ELi1EEESD_b@Base 1.6
 (optional=templinst)_ZN3pcl11getMinMax3DINS_11PointXYZRGBEEEvRKNS_10PointCloudIT_EERN5Eigen6MatrixIfLi4ELi1ELi0ELi4ELi1EEESA_@Base 1.6
 (optional=templinst)_ZN3pcl11getMinMax3DINS_12PointXYZRGBAEEEvRKNS_10PointCloudIT_E8ConstPtrERKSsffRN5Eigen6MatrixIfLi4ELi1ELi0ELi4ELi1EEESD_b@Base 1.6
 (optional=templinst)_ZN3pcl11getMinMax3DINS_12PointXYZRGBAEEEvRKNS_10PointCloudIT_EERN5Eigen6MatrixIfLi4ELi1ELi0ELi4ELi1EEESA_@Base 1.6
 (optional=templinst)_ZN3pcl11getMinMax3DINS_12PointXYZRGBLEEEvRKNS_10PointCloudIT_E8ConstPtrERKSsffRN5Eigen6MatrixIfLi4ELi1ELi0ELi4ELi1EEESD_b@Base 1.6
 (optional=templinst)_ZN3pcl11getMinMax3DINS_12PointXYZRGBLEEEvRKNS_10PointCloudIT_EERN5Eigen6MatrixIfLi4ELi1ELi0ELi4ELi1EEESA_@Base 1.6
 (optional=templinst)_ZN3pcl11getMinMax3DINS_13InterestPointEEEvRKNS_10PointCloudIT_E8ConstPtrERKSsffRN5Eigen6MatrixIfLi4ELi1ELi0ELi4ELi1EEESD_b@Base 1.6
 (optional=templinst)_ZN3pcl11getMinMax3DINS_13InterestPointEEEvRKNS_10PointCloudIT_EERN5Eigen6MatrixIfLi4ELi1ELi0ELi4ELi1EEESA_@Base 1.6
 (optional=templinst)_ZN3pcl11getMinMax3DINS_14PointWithRangeEEEvRKNS_10PointCloudIT_E8ConstPtrERKSsffRN5Eigen6MatrixIfLi4ELi1ELi0ELi4ELi1EEESD_b@Base 1.6
 (optional=templinst)_ZN3pcl11getMinMax3DINS_14PointWithRangeEEEvRKNS_10PointCloudIT_EERN5Eigen6MatrixIfLi4ELi1ELi0ELi4ELi1EEESA_@Base 1.6
 (optional=templinst)_ZN3pcl11getMinMax3DINS_14PointWithScaleEEEvRKNS_10PointCloudIT_E8ConstPtrERKSsffRN5Eigen6MatrixIfLi4ELi1ELi0ELi4ELi1EEESD_b@Base 1.6
 (optional=templinst)_ZN3pcl11getMinMax3DINS_14PointWithScaleEEEvRKNS_10PointCloudIT_EERN5Eigen6MatrixIfLi4ELi1ELi0ELi4ELi1EEESA_@Base 1.6
 (optional=templinst)_ZN3pcl11getMinMax3DINS_15PointXYZINormalEEEvRKNS_10PointCloudIT_E8ConstPtrERKSsffRN5Eigen6MatrixIfLi4ELi1ELi0ELi4ELi1EEESD_b@Base 1.6
 (optional=templinst)_ZN3pcl11getMinMax3DINS_15PointXYZINormalEEEvRKNS_10PointCloudIT_EERN5Eigen6MatrixIfLi4ELi1ELi0ELi4ELi1EEESA_@Base 1.6
 (optional=templinst)_ZN3pcl11getMinMax3DINS_17PointXYZRGBNormalEEEvRKNS_10PointCloudIT_E8ConstPtrERKSsffRN5Eigen6MatrixIfLi4ELi1ELi0ELi4ELi1EEESD_b@Base 1.6
 (optional=templinst)_ZN3pcl11getMinMax3DINS_17PointXYZRGBNormalEEEvRKNS_10PointCloudIT_EERN5Eigen6MatrixIfLi4ELi1ELi0ELi4ELi1EEESA_@Base 1.6
 (optional=templinst)_ZN3pcl11getMinMax3DINS_18PointWithViewpointEEEvRKNS_10PointCloudIT_E8ConstPtrERKSsffRN5Eigen6MatrixIfLi4ELi1ELi0ELi4ELi1EEESD_b@Base 1.6
 (optional=templinst)_ZN3pcl11getMinMax3DINS_18PointWithViewpointEEEvRKNS_10PointCloudIT_EERN5Eigen6MatrixIfLi4ELi1ELi0ELi4ELi1EEESA_@Base 1.6
 (optional=templinst)_ZN3pcl11getMinMax3DINS_8PointXYZEEEvRKNS_10PointCloudIT_E8ConstPtrERKSsffRN5Eigen6MatrixIfLi4ELi1ELi0ELi4ELi1EEESD_b@Base 1.6
 (optional=templinst)_ZN3pcl11getMinMax3DINS_8PointXYZEEEvRKNS_10PointCloudIT_EERN5Eigen6MatrixIfLi4ELi1ELi0ELi4ELi1EEESA_@Base 1.6
 (optional=templinst)_ZN3pcl11getMinMax3DINS_9PointXYZIEEEvRKNS_10PointCloudIT_E8ConstPtrERKSsffRN5Eigen6MatrixIfLi4ELi1ELi0ELi4ELi1EEESD_b@Base 1.6
 (optional=templinst)_ZN3pcl11getMinMax3DINS_9PointXYZIEEEvRKNS_10PointCloudIT_EERN5Eigen6MatrixIfLi4ELi1ELi0ELi4ELi1EEESA_@Base 1.6
 (optional=templinst)_ZN3pcl11getMinMax3DINS_9PointXYZLEEEvRKNS_10PointCloudIT_E8ConstPtrERKSsffRN5Eigen6MatrixIfLi4ELi1ELi0ELi4ELi1EEESD_b@Base 1.6
 (optional=templinst)_ZN3pcl11getMinMax3DINS_9PointXYZLEEEvRKNS_10PointCloudIT_EERN5Eigen6MatrixIfLi4ELi1ELi0ELi4ELi1EEESA_@Base 1.6
 (optional=templinst)_ZN3pcl12ConditionAndINS_11PointNormalEEC1Ev@Base 1.6
 (optional=templinst)_ZN3pcl12ConditionAndINS_11PointNormalEEC2Ev@Base 1.6
 (optional=templinst)_ZN3pcl12ConditionAndINS_11PointNormalEED0Ev@Base 1.6
 (optional=templinst)_ZN3pcl12ConditionAndINS_11PointNormalEED1Ev@Base 1.6
 (optional=templinst)_ZN3pcl12ConditionAndINS_11PointNormalEED2Ev@Base 1.6
 (optional=templinst)_ZN3pcl12ConditionAndINS_11PointXYZHSVEEC1Ev@Base 1.6
 (optional=templinst)_ZN3pcl12ConditionAndINS_11PointXYZHSVEEC2Ev@Base 1.6
 (optional=templinst)_ZN3pcl12ConditionAndINS_11PointXYZHSVEED0Ev@Base 1.6
 (optional=templinst)_ZN3pcl12ConditionAndINS_11PointXYZHSVEED1Ev@Base 1.6
 (optional=templinst)_ZN3pcl12ConditionAndINS_11PointXYZHSVEED2Ev@Base 1.6
 (optional=templinst)_ZN3pcl12ConditionAndINS_11PointXYZRGBEEC1Ev@Base 1.6
 (optional=templinst)_ZN3pcl12ConditionAndINS_11PointXYZRGBEEC2Ev@Base 1.6
 (optional=templinst)_ZN3pcl12ConditionAndINS_11PointXYZRGBEED0Ev@Base 1.6
 (optional=templinst)_ZN3pcl12ConditionAndINS_11PointXYZRGBEED1Ev@Base 1.6
 (optional=templinst)_ZN3pcl12ConditionAndINS_11PointXYZRGBEED2Ev@Base 1.6
 (optional=templinst)_ZN3pcl12ConditionAndINS_12PointXYZRGBAEEC1Ev@Base 1.6
 (optional=templinst)_ZN3pcl12ConditionAndINS_12PointXYZRGBAEEC2Ev@Base 1.6
 (optional=templinst)_ZN3pcl12ConditionAndINS_12PointXYZRGBAEED0Ev@Base 1.6
 (optional=templinst)_ZN3pcl12ConditionAndINS_12PointXYZRGBAEED1Ev@Base 1.6
 (optional=templinst)_ZN3pcl12ConditionAndINS_12PointXYZRGBAEED2Ev@Base 1.6
 (optional=templinst)_ZN3pcl12ConditionAndINS_12PointXYZRGBLEEC1Ev@Base 1.6
 (optional=templinst)_ZN3pcl12ConditionAndINS_12PointXYZRGBLEEC2Ev@Base 1.6
 (optional=templinst)_ZN3pcl12ConditionAndINS_12PointXYZRGBLEED0Ev@Base 1.6
 (optional=templinst)_ZN3pcl12ConditionAndINS_12PointXYZRGBLEED1Ev@Base 1.6
 (optional=templinst)_ZN3pcl12ConditionAndINS_12PointXYZRGBLEED2Ev@Base 1.6
 (optional=templinst)_ZN3pcl12ConditionAndINS_13InterestPointEEC1Ev@Base 1.6
 (optional=templinst)_ZN3pcl12ConditionAndINS_13InterestPointEEC2Ev@Base 1.6
 (optional=templinst)_ZN3pcl12ConditionAndINS_13InterestPointEED0Ev@Base 1.6
 (optional=templinst)_ZN3pcl12ConditionAndINS_13InterestPointEED1Ev@Base 1.6
 (optional=templinst)_ZN3pcl12ConditionAndINS_13InterestPointEED2Ev@Base 1.6
 (optional=templinst)_ZN3pcl12ConditionAndINS_14PointWithRangeEEC1Ev@Base 1.6
 (optional=templinst)_ZN3pcl12ConditionAndINS_14PointWithRangeEEC2Ev@Base 1.6
 (optional=templinst)_ZN3pcl12ConditionAndINS_14PointWithRangeEED0Ev@Base 1.6
 (optional=templinst)_ZN3pcl12ConditionAndINS_14PointWithRangeEED1Ev@Base 1.6
 (optional=templinst)_ZN3pcl12ConditionAndINS_14PointWithRangeEED2Ev@Base 1.6
 (optional=templinst)_ZN3pcl12ConditionAndINS_14PointWithScaleEEC1Ev@Base 1.6
 (optional=templinst)_ZN3pcl12ConditionAndINS_14PointWithScaleEEC2Ev@Base 1.6
 (optional=templinst)_ZN3pcl12ConditionAndINS_14PointWithScaleEED0Ev@Base 1.6
 (optional=templinst)_ZN3pcl12ConditionAndINS_14PointWithScaleEED1Ev@Base 1.6
 (optional=templinst)_ZN3pcl12ConditionAndINS_14PointWithScaleEED2Ev@Base 1.6
 (optional=templinst)_ZN3pcl12ConditionAndINS_15PointXYZINormalEEC1Ev@Base 1.6
 (optional=templinst)_ZN3pcl12ConditionAndINS_15PointXYZINormalEEC2Ev@Base 1.6
 (optional=templinst)_ZN3pcl12ConditionAndINS_15PointXYZINormalEED0Ev@Base 1.6
 (optional=templinst)_ZN3pcl12ConditionAndINS_15PointXYZINormalEED1Ev@Base 1.6
 (optional=templinst)_ZN3pcl12ConditionAndINS_15PointXYZINormalEED2Ev@Base 1.6
 (optional=templinst)_ZN3pcl12ConditionAndINS_17PointXYZRGBNormalEEC1Ev@Base 1.6
 (optional=templinst)_ZN3pcl12ConditionAndINS_17PointXYZRGBNormalEEC2Ev@Base 1.6
 (optional=templinst)_ZN3pcl12ConditionAndINS_17PointXYZRGBNormalEED0Ev@Base 1.6
 (optional=templinst)_ZN3pcl12ConditionAndINS_17PointXYZRGBNormalEED1Ev@Base 1.6
 (optional=templinst)_ZN3pcl12ConditionAndINS_17PointXYZRGBNormalEED2Ev@Base 1.6
 (optional=templinst)_ZN3pcl12ConditionAndINS_18PointWithViewpointEEC1Ev@Base 1.6
 (optional=templinst)_ZN3pcl12ConditionAndINS_18PointWithViewpointEEC2Ev@Base 1.6
 (optional=templinst)_ZN3pcl12ConditionAndINS_18PointWithViewpointEED0Ev@Base 1.6
 (optional=templinst)_ZN3pcl12ConditionAndINS_18PointWithViewpointEED1Ev@Base 1.6
 (optional=templinst)_ZN3pcl12ConditionAndINS_18PointWithViewpointEED2Ev@Base 1.6
 (optional=templinst)_ZN3pcl12ConditionAndINS_8PointXYZEEC1Ev@Base 1.6
 (optional=templinst)_ZN3pcl12ConditionAndINS_8PointXYZEEC2Ev@Base 1.6
 (optional=templinst)_ZN3pcl12ConditionAndINS_8PointXYZEED0Ev@Base 1.6
 (optional=templinst)_ZN3pcl12ConditionAndINS_8PointXYZEED1Ev@Base 1.6
 (optional=templinst)_ZN3pcl12ConditionAndINS_8PointXYZEED2Ev@Base 1.6
 (optional=templinst)_ZN3pcl12ConditionAndINS_9PointXYZIEEC1Ev@Base 1.6
 (optional=templinst)_ZN3pcl12ConditionAndINS_9PointXYZIEEC2Ev@Base 1.6
 (optional=templinst)_ZN3pcl12ConditionAndINS_9PointXYZIEED0Ev@Base 1.6
 (optional=templinst)_ZN3pcl12ConditionAndINS_9PointXYZIEED1Ev@Base 1.6
 (optional=templinst)_ZN3pcl12ConditionAndINS_9PointXYZIEED2Ev@Base 1.6
 (optional=templinst)_ZN3pcl12ConditionAndINS_9PointXYZLEEC1Ev@Base 1.6
 (optional=templinst)_ZN3pcl12ConditionAndINS_9PointXYZLEEC2Ev@Base 1.6
 (optional=templinst)_ZN3pcl12ConditionAndINS_9PointXYZLEED0Ev@Base 1.6
 (optional=templinst)_ZN3pcl12ConditionAndINS_9PointXYZLEED1Ev@Base 1.6
 (optional=templinst)_ZN3pcl12ConditionAndINS_9PointXYZLEED2Ev@Base 1.6
 _ZN3pcl12PCLExceptionC1ERKSsS2_S2_j@Base 1.6
 _ZN3pcl12PCLExceptionC2ERKSsS2_S2_j@Base 1.6
 _ZN3pcl12PCLExceptionD0Ev@Base 1.6
 _ZN3pcl12PCLExceptionD1Ev@Base 1.6
 _ZN3pcl12PCLExceptionD2Ev@Base 1.6
 (optional=templinst)_ZN3pcl12RandomSampleIN11sensor_msgs11PointCloud2EE11applyFilterERS2_@Base 1.6
 (optional=templinst)_ZN3pcl12RandomSampleIN11sensor_msgs11PointCloud2EE11applyFilterERSt6vectorIiSaIiEE@Base 1.6
 (optional=templinst)_ZN3pcl12RandomSampleIN11sensor_msgs11PointCloud2EED0Ev@Base 1.6
 (optional=templinst)_ZN3pcl12RandomSampleIN11sensor_msgs11PointCloud2EED1Ev@Base 1.6
 (optional=templinst)_ZN3pcl12RandomSampleIN11sensor_msgs11PointCloud2EED2Ev@Base 1.6
 (optional=templinst)_ZN3pcl12RandomSampleINS_11PointNormalEE11applyFilterERNS_10PointCloudIS1_EE@Base 1.6
 (optional=templinst)_ZN3pcl12RandomSampleINS_11PointNormalEE11applyFilterERSt6vectorIiSaIiEE@Base 1.6
 (optional=templinst)_ZN3pcl12RandomSampleINS_11PointNormalEE7getSeedEv@Base 1.6
 (optional=templinst)_ZN3pcl12RandomSampleINS_11PointNormalEE7setSeedEj@Base 1.6
 (optional=templinst)_ZN3pcl12RandomSampleINS_11PointNormalEE8unifRandEv@Base 1.6
 (optional=templinst)_ZN3pcl12RandomSampleINS_11PointNormalEE9getSampleEv@Base 1.6
 (optional=templinst)_ZN3pcl12RandomSampleINS_11PointNormalEE9setSampleEj@Base 1.6
 (optional=templinst)_ZN3pcl12RandomSampleINS_11PointNormalEEC1Ev@Base 1.6
 (optional=templinst)_ZN3pcl12RandomSampleINS_11PointNormalEEC2Ev@Base 1.6
 (optional=templinst)_ZN3pcl12RandomSampleINS_11PointNormalEED0Ev@Base 1.6
 (optional=templinst)_ZN3pcl12RandomSampleINS_11PointNormalEED1Ev@Base 1.6
 (optional=templinst)_ZN3pcl12RandomSampleINS_11PointNormalEED2Ev@Base 1.6
 (optional=templinst)_ZN3pcl12RandomSampleINS_11PointXYZHSVEE11applyFilterERNS_10PointCloudIS1_EE@Base 1.6
 (optional=templinst)_ZN3pcl12RandomSampleINS_11PointXYZHSVEE11applyFilterERSt6vectorIiSaIiEE@Base 1.6
 (optional=templinst)_ZN3pcl12RandomSampleINS_11PointXYZHSVEE7getSeedEv@Base 1.6
 (optional=templinst)_ZN3pcl12RandomSampleINS_11PointXYZHSVEE7setSeedEj@Base 1.6
 (optional=templinst)_ZN3pcl12RandomSampleINS_11PointXYZHSVEE8unifRandEv@Base 1.6
 (optional=templinst)_ZN3pcl12RandomSampleINS_11PointXYZHSVEE9getSampleEv@Base 1.6
 (optional=templinst)_ZN3pcl12RandomSampleINS_11PointXYZHSVEE9setSampleEj@Base 1.6
 (optional=templinst)_ZN3pcl12RandomSampleINS_11PointXYZHSVEEC1Ev@Base 1.6
 (optional=templinst)_ZN3pcl12RandomSampleINS_11PointXYZHSVEEC2Ev@Base 1.6
 (optional=templinst)_ZN3pcl12RandomSampleINS_11PointXYZHSVEED0Ev@Base 1.6
 (optional=templinst)_ZN3pcl12RandomSampleINS_11PointXYZHSVEED1Ev@Base 1.6
 (optional=templinst)_ZN3pcl12RandomSampleINS_11PointXYZHSVEED2Ev@Base 1.6
 (optional=templinst)_ZN3pcl12RandomSampleINS_11PointXYZRGBEE11applyFilterERNS_10PointCloudIS1_EE@Base 1.6
 (optional=templinst)_ZN3pcl12RandomSampleINS_11PointXYZRGBEE11applyFilterERSt6vectorIiSaIiEE@Base 1.6
 (optional=templinst)_ZN3pcl12RandomSampleINS_11PointXYZRGBEE7getSeedEv@Base 1.6
 (optional=templinst)_ZN3pcl12RandomSampleINS_11PointXYZRGBEE7setSeedEj@Base 1.6
 (optional=templinst)_ZN3pcl12RandomSampleINS_11PointXYZRGBEE8unifRandEv@Base 1.6
 (optional=templinst)_ZN3pcl12RandomSampleINS_11PointXYZRGBEE9getSampleEv@Base 1.6
 (optional=templinst)_ZN3pcl12RandomSampleINS_11PointXYZRGBEE9setSampleEj@Base 1.6
 (optional=templinst)_ZN3pcl12RandomSampleINS_11PointXYZRGBEEC1Ev@Base 1.6
 (optional=templinst)_ZN3pcl12RandomSampleINS_11PointXYZRGBEEC2Ev@Base 1.6
 (optional=templinst)_ZN3pcl12RandomSampleINS_11PointXYZRGBEED0Ev@Base 1.6
 (optional=templinst)_ZN3pcl12RandomSampleINS_11PointXYZRGBEED1Ev@Base 1.6
 (optional=templinst)_ZN3pcl12RandomSampleINS_11PointXYZRGBEED2Ev@Base 1.6
 (optional=templinst)_ZN3pcl12RandomSampleINS_12PPFSignatureEE11applyFilterERNS_10PointCloudIS1_EE@Base 1.6
 (optional=templinst)_ZN3pcl12RandomSampleINS_12PPFSignatureEE11applyFilterERSt6vectorIiSaIiEE@Base 1.6
 (optional=templinst)_ZN3pcl12RandomSampleINS_12PPFSignatureEE7getSeedEv@Base 1.6
 (optional=templinst)_ZN3pcl12RandomSampleINS_12PPFSignatureEE7setSeedEj@Base 1.6
 (optional=templinst)_ZN3pcl12RandomSampleINS_12PPFSignatureEE8unifRandEv@Base 1.6
 (optional=templinst)_ZN3pcl12RandomSampleINS_12PPFSignatureEE9getSampleEv@Base 1.6
 (optional=templinst)_ZN3pcl12RandomSampleINS_12PPFSignatureEE9setSampleEj@Base 1.6
 (optional=templinst)_ZN3pcl12RandomSampleINS_12PPFSignatureEEC1Ev@Base 1.6
 (optional=templinst)_ZN3pcl12RandomSampleINS_12PPFSignatureEEC2Ev@Base 1.6
 (optional=templinst)_ZN3pcl12RandomSampleINS_12PPFSignatureEED0Ev@Base 1.6
 (optional=templinst)_ZN3pcl12RandomSampleINS_12PPFSignatureEED1Ev@Base 1.6
 (optional=templinst)_ZN3pcl12RandomSampleINS_12PPFSignatureEED2Ev@Base 1.6
 (optional=templinst)_ZN3pcl12RandomSampleINS_12PointXYZRGBAEE11applyFilterERNS_10PointCloudIS1_EE@Base 1.6
 (optional=templinst)_ZN3pcl12RandomSampleINS_12PointXYZRGBAEE11applyFilterERSt6vectorIiSaIiEE@Base 1.6
 (optional=templinst)_ZN3pcl12RandomSampleINS_12PointXYZRGBAEE7getSeedEv@Base 1.6
 (optional=templinst)_ZN3pcl12RandomSampleINS_12PointXYZRGBAEE7setSeedEj@Base 1.6
 (optional=templinst)_ZN3pcl12RandomSampleINS_12PointXYZRGBAEE8unifRandEv@Base 1.6
 (optional=templinst)_ZN3pcl12RandomSampleINS_12PointXYZRGBAEE9getSampleEv@Base 1.6
 (optional=templinst)_ZN3pcl12RandomSampleINS_12PointXYZRGBAEE9setSampleEj@Base 1.6
 (optional=templinst)_ZN3pcl12RandomSampleINS_12PointXYZRGBAEEC1Ev@Base 1.6
 (optional=templinst)_ZN3pcl12RandomSampleINS_12PointXYZRGBAEEC2Ev@Base 1.6
 (optional=templinst)_ZN3pcl12RandomSampleINS_12PointXYZRGBAEED0Ev@Base 1.6
 (optional=templinst)_ZN3pcl12RandomSampleINS_12PointXYZRGBAEED1Ev@Base 1.6
 (optional=templinst)_ZN3pcl12RandomSampleINS_12PointXYZRGBAEED2Ev@Base 1.6
 (optional=templinst)_ZN3pcl12RandomSampleINS_12PointXYZRGBLEE11applyFilterERNS_10PointCloudIS1_EE@Base 1.6
 (optional=templinst)_ZN3pcl12RandomSampleINS_12PointXYZRGBLEE11applyFilterERSt6vectorIiSaIiEE@Base 1.6
 (optional=templinst)_ZN3pcl12RandomSampleINS_12PointXYZRGBLEE7getSeedEv@Base 1.6
 (optional=templinst)_ZN3pcl12RandomSampleINS_12PointXYZRGBLEE7setSeedEj@Base 1.6
 (optional=templinst)_ZN3pcl12RandomSampleINS_12PointXYZRGBLEE8unifRandEv@Base 1.6
 (optional=templinst)_ZN3pcl12RandomSampleINS_12PointXYZRGBLEE9getSampleEv@Base 1.6
 (optional=templinst)_ZN3pcl12RandomSampleINS_12PointXYZRGBLEE9setSampleEj@Base 1.6
 (optional=templinst)_ZN3pcl12RandomSampleINS_12PointXYZRGBLEEC1Ev@Base 1.6
 (optional=templinst)_ZN3pcl12RandomSampleINS_12PointXYZRGBLEEC2Ev@Base 1.6
 (optional=templinst)_ZN3pcl12RandomSampleINS_12PointXYZRGBLEED0Ev@Base 1.6
 (optional=templinst)_ZN3pcl12RandomSampleINS_12PointXYZRGBLEED1Ev@Base 1.6
 (optional=templinst)_ZN3pcl12RandomSampleINS_12PointXYZRGBLEED2Ev@Base 1.6
 (optional=templinst)_ZN3pcl12RandomSampleINS_13InterestPointEE11applyFilterERNS_10PointCloudIS1_EE@Base 1.6
 (optional=templinst)_ZN3pcl12RandomSampleINS_13InterestPointEE11applyFilterERSt6vectorIiSaIiEE@Base 1.6
 (optional=templinst)_ZN3pcl12RandomSampleINS_13InterestPointEE7getSeedEv@Base 1.6
 (optional=templinst)_ZN3pcl12RandomSampleINS_13InterestPointEE7setSeedEj@Base 1.6
 (optional=templinst)_ZN3pcl12RandomSampleINS_13InterestPointEE8unifRandEv@Base 1.6
 (optional=templinst)_ZN3pcl12RandomSampleINS_13InterestPointEE9getSampleEv@Base 1.6
 (optional=templinst)_ZN3pcl12RandomSampleINS_13InterestPointEE9setSampleEj@Base 1.6
 (optional=templinst)_ZN3pcl12RandomSampleINS_13InterestPointEEC1Ev@Base 1.6
 (optional=templinst)_ZN3pcl12RandomSampleINS_13InterestPointEEC2Ev@Base 1.6
 (optional=templinst)_ZN3pcl12RandomSampleINS_13InterestPointEED0Ev@Base 1.6
 (optional=templinst)_ZN3pcl12RandomSampleINS_13InterestPointEED1Ev@Base 1.6
 (optional=templinst)_ZN3pcl12RandomSampleINS_13InterestPointEED2Ev@Base 1.6
 (optional=templinst)_ZN3pcl12RandomSampleINS_14PointWithRangeEE11applyFilterERNS_10PointCloudIS1_EE@Base 1.6
 (optional=templinst)_ZN3pcl12RandomSampleINS_14PointWithRangeEE11applyFilterERSt6vectorIiSaIiEE@Base 1.6
 (optional=templinst)_ZN3pcl12RandomSampleINS_14PointWithRangeEE7getSeedEv@Base 1.6
 (optional=templinst)_ZN3pcl12RandomSampleINS_14PointWithRangeEE7setSeedEj@Base 1.6
 (optional=templinst)_ZN3pcl12RandomSampleINS_14PointWithRangeEE8unifRandEv@Base 1.6
 (optional=templinst)_ZN3pcl12RandomSampleINS_14PointWithRangeEE9getSampleEv@Base 1.6
 (optional=templinst)_ZN3pcl12RandomSampleINS_14PointWithRangeEE9setSampleEj@Base 1.6
 (optional=templinst)_ZN3pcl12RandomSampleINS_14PointWithRangeEEC1Ev@Base 1.6
 (optional=templinst)_ZN3pcl12RandomSampleINS_14PointWithRangeEEC2Ev@Base 1.6
 (optional=templinst)_ZN3pcl12RandomSampleINS_14PointWithRangeEED0Ev@Base 1.6
 (optional=templinst)_ZN3pcl12RandomSampleINS_14PointWithRangeEED1Ev@Base 1.6
 (optional=templinst)_ZN3pcl12RandomSampleINS_14PointWithRangeEED2Ev@Base 1.6
 (optional=templinst)_ZN3pcl12RandomSampleINS_14PointWithScaleEE11applyFilterERNS_10PointCloudIS1_EE@Base 1.6
 (optional=templinst)_ZN3pcl12RandomSampleINS_14PointWithScaleEE11applyFilterERSt6vectorIiSaIiEE@Base 1.6
 (optional=templinst)_ZN3pcl12RandomSampleINS_14PointWithScaleEE7getSeedEv@Base 1.6
 (optional=templinst)_ZN3pcl12RandomSampleINS_14PointWithScaleEE7setSeedEj@Base 1.6
 (optional=templinst)_ZN3pcl12RandomSampleINS_14PointWithScaleEE8unifRandEv@Base 1.6
 (optional=templinst)_ZN3pcl12RandomSampleINS_14PointWithScaleEE9getSampleEv@Base 1.6
 (optional=templinst)_ZN3pcl12RandomSampleINS_14PointWithScaleEE9setSampleEj@Base 1.6
 (optional=templinst)_ZN3pcl12RandomSampleINS_14PointWithScaleEEC1Ev@Base 1.6
 (optional=templinst)_ZN3pcl12RandomSampleINS_14PointWithScaleEEC2Ev@Base 1.6
 (optional=templinst)_ZN3pcl12RandomSampleINS_14PointWithScaleEED0Ev@Base 1.6
 (optional=templinst)_ZN3pcl12RandomSampleINS_14PointWithScaleEED1Ev@Base 1.6
 (optional=templinst)_ZN3pcl12RandomSampleINS_14PointWithScaleEED2Ev@Base 1.6
 (optional=templinst)_ZN3pcl12RandomSampleINS_14ReferenceFrameEE11applyFilterERNS_10PointCloudIS1_EE@Base 1.6
 (optional=templinst)_ZN3pcl12RandomSampleINS_14ReferenceFrameEE11applyFilterERSt6vectorIiSaIiEE@Base 1.6
 (optional=templinst)_ZN3pcl12RandomSampleINS_14ReferenceFrameEE7getSeedEv@Base 1.6
 (optional=templinst)_ZN3pcl12RandomSampleINS_14ReferenceFrameEE7setSeedEj@Base 1.6
 (optional=templinst)_ZN3pcl12RandomSampleINS_14ReferenceFrameEE8unifRandEv@Base 1.6
 (optional=templinst)_ZN3pcl12RandomSampleINS_14ReferenceFrameEE9getSampleEv@Base 1.6
 (optional=templinst)_ZN3pcl12RandomSampleINS_14ReferenceFrameEE9setSampleEj@Base 1.6
 (optional=templinst)_ZN3pcl12RandomSampleINS_14ReferenceFrameEEC1Ev@Base 1.6
 (optional=templinst)_ZN3pcl12RandomSampleINS_14ReferenceFrameEEC2Ev@Base 1.6
 (optional=templinst)_ZN3pcl12RandomSampleINS_14ReferenceFrameEED0Ev@Base 1.6
 (optional=templinst)_ZN3pcl12RandomSampleINS_14ReferenceFrameEED1Ev@Base 1.6
 (optional=templinst)_ZN3pcl12RandomSampleINS_14ReferenceFrameEED2Ev@Base 1.6
 (optional=templinst)_ZN3pcl12RandomSampleINS_15ESFSignature640EE11applyFilterERNS_10PointCloudIS1_EE@Base 1.6
 (optional=templinst)_ZN3pcl12RandomSampleINS_15ESFSignature640EE11applyFilterERSt6vectorIiSaIiEE@Base 1.6
 (optional=templinst)_ZN3pcl12RandomSampleINS_15ESFSignature640EE7getSeedEv@Base 1.6
 (optional=templinst)_ZN3pcl12RandomSampleINS_15ESFSignature640EE7setSeedEj@Base 1.6
 (optional=templinst)_ZN3pcl12RandomSampleINS_15ESFSignature640EE8unifRandEv@Base 1.6
 (optional=templinst)_ZN3pcl12RandomSampleINS_15ESFSignature640EE9getSampleEv@Base 1.6
 (optional=templinst)_ZN3pcl12RandomSampleINS_15ESFSignature640EE9setSampleEj@Base 1.6
 (optional=templinst)_ZN3pcl12RandomSampleINS_15ESFSignature640EEC1Ev@Base 1.6
 (optional=templinst)_ZN3pcl12RandomSampleINS_15ESFSignature640EEC2Ev@Base 1.6
 (optional=templinst)_ZN3pcl12RandomSampleINS_15ESFSignature640EED0Ev@Base 1.6
 (optional=templinst)_ZN3pcl12RandomSampleINS_15ESFSignature640EED1Ev@Base 1.6
 (optional=templinst)_ZN3pcl12RandomSampleINS_15ESFSignature640EED2Ev@Base 1.6
 (optional=templinst)_ZN3pcl12RandomSampleINS_15FPFHSignature33EE11applyFilterERNS_10PointCloudIS1_EE@Base 1.6
 (optional=templinst)_ZN3pcl12RandomSampleINS_15FPFHSignature33EE11applyFilterERSt6vectorIiSaIiEE@Base 1.6
 (optional=templinst)_ZN3pcl12RandomSampleINS_15FPFHSignature33EE7getSeedEv@Base 1.6
 (optional=templinst)_ZN3pcl12RandomSampleINS_15FPFHSignature33EE7setSeedEj@Base 1.6
 (optional=templinst)_ZN3pcl12RandomSampleINS_15FPFHSignature33EE8unifRandEv@Base 1.6
 (optional=templinst)_ZN3pcl12RandomSampleINS_15FPFHSignature33EE9getSampleEv@Base 1.6
 (optional=templinst)_ZN3pcl12RandomSampleINS_15FPFHSignature33EE9setSampleEj@Base 1.6
 (optional=templinst)_ZN3pcl12RandomSampleINS_15FPFHSignature33EEC1Ev@Base 1.6
 (optional=templinst)_ZN3pcl12RandomSampleINS_15FPFHSignature33EEC2Ev@Base 1.6
 (optional=templinst)_ZN3pcl12RandomSampleINS_15FPFHSignature33EED0Ev@Base 1.6
 (optional=templinst)_ZN3pcl12RandomSampleINS_15FPFHSignature33EED1Ev@Base 1.6
 (optional=templinst)_ZN3pcl12RandomSampleINS_15FPFHSignature33EED2Ev@Base 1.6
 (optional=templinst)_ZN3pcl12RandomSampleINS_15PFHSignature125EE11applyFilterERNS_10PointCloudIS1_EE@Base 1.6
 (optional=templinst)_ZN3pcl12RandomSampleINS_15PFHSignature125EE11applyFilterERSt6vectorIiSaIiEE@Base 1.6
 (optional=templinst)_ZN3pcl12RandomSampleINS_15PFHSignature125EE7getSeedEv@Base 1.6
 (optional=templinst)_ZN3pcl12RandomSampleINS_15PFHSignature125EE7setSeedEj@Base 1.6
 (optional=templinst)_ZN3pcl12RandomSampleINS_15PFHSignature125EE8unifRandEv@Base 1.6
 (optional=templinst)_ZN3pcl12RandomSampleINS_15PFHSignature125EE9getSampleEv@Base 1.6
 (optional=templinst)_ZN3pcl12RandomSampleINS_15PFHSignature125EE9setSampleEj@Base 1.6
 (optional=templinst)_ZN3pcl12RandomSampleINS_15PFHSignature125EEC1Ev@Base 1.6
 (optional=templinst)_ZN3pcl12RandomSampleINS_15PFHSignature125EEC2Ev@Base 1.6
 (optional=templinst)_ZN3pcl12RandomSampleINS_15PFHSignature125EED0Ev@Base 1.6
 (optional=templinst)_ZN3pcl12RandomSampleINS_15PFHSignature125EED1Ev@Base 1.6
 (optional=templinst)_ZN3pcl12RandomSampleINS_15PFHSignature125EED2Ev@Base 1.6
 (optional=templinst)_ZN3pcl12RandomSampleINS_15PPFRGBSignatureEE11applyFilterERNS_10PointCloudIS1_EE@Base 1.6
 (optional=templinst)_ZN3pcl12RandomSampleINS_15PPFRGBSignatureEE11applyFilterERSt6vectorIiSaIiEE@Base 1.6
 (optional=templinst)_ZN3pcl12RandomSampleINS_15PPFRGBSignatureEE7getSeedEv@Base 1.6
 (optional=templinst)_ZN3pcl12RandomSampleINS_15PPFRGBSignatureEE7setSeedEj@Base 1.6
 (optional=templinst)_ZN3pcl12RandomSampleINS_15PPFRGBSignatureEE8unifRandEv@Base 1.6
 (optional=templinst)_ZN3pcl12RandomSampleINS_15PPFRGBSignatureEE9getSampleEv@Base 1.6
 (optional=templinst)_ZN3pcl12RandomSampleINS_15PPFRGBSignatureEE9setSampleEj@Base 1.6
 (optional=templinst)_ZN3pcl12RandomSampleINS_15PPFRGBSignatureEEC1Ev@Base 1.6
 (optional=templinst)_ZN3pcl12RandomSampleINS_15PPFRGBSignatureEEC2Ev@Base 1.6
 (optional=templinst)_ZN3pcl12RandomSampleINS_15PPFRGBSignatureEED0Ev@Base 1.6
 (optional=templinst)_ZN3pcl12RandomSampleINS_15PPFRGBSignatureEED1Ev@Base 1.6
 (optional=templinst)_ZN3pcl12RandomSampleINS_15PPFRGBSignatureEED2Ev@Base 1.6
 (optional=templinst)_ZN3pcl12RandomSampleINS_15PointXYZINormalEE11applyFilterERNS_10PointCloudIS1_EE@Base 1.6
 (optional=templinst)_ZN3pcl12RandomSampleINS_15PointXYZINormalEE11applyFilterERSt6vectorIiSaIiEE@Base 1.6
 (optional=templinst)_ZN3pcl12RandomSampleINS_15PointXYZINormalEE7getSeedEv@Base 1.6
 (optional=templinst)_ZN3pcl12RandomSampleINS_15PointXYZINormalEE7setSeedEj@Base 1.6
 (optional=templinst)_ZN3pcl12RandomSampleINS_15PointXYZINormalEE8unifRandEv@Base 1.6
 (optional=templinst)_ZN3pcl12RandomSampleINS_15PointXYZINormalEE9getSampleEv@Base 1.6
 (optional=templinst)_ZN3pcl12RandomSampleINS_15PointXYZINormalEE9setSampleEj@Base 1.6
 (optional=templinst)_ZN3pcl12RandomSampleINS_15PointXYZINormalEEC1Ev@Base 1.6
 (optional=templinst)_ZN3pcl12RandomSampleINS_15PointXYZINormalEEC2Ev@Base 1.6
 (optional=templinst)_ZN3pcl12RandomSampleINS_15PointXYZINormalEED0Ev@Base 1.6
 (optional=templinst)_ZN3pcl12RandomSampleINS_15PointXYZINormalEED1Ev@Base 1.6
 (optional=templinst)_ZN3pcl12RandomSampleINS_15PointXYZINormalEED2Ev@Base 1.6
 (optional=templinst)_ZN3pcl12RandomSampleINS_15VFHSignature308EE11applyFilterERNS_10PointCloudIS1_EE@Base 1.6
 (optional=templinst)_ZN3pcl12RandomSampleINS_15VFHSignature308EE11applyFilterERSt6vectorIiSaIiEE@Base 1.6
 (optional=templinst)_ZN3pcl12RandomSampleINS_15VFHSignature308EE7getSeedEv@Base 1.6
 (optional=templinst)_ZN3pcl12RandomSampleINS_15VFHSignature308EE7setSeedEj@Base 1.6
 (optional=templinst)_ZN3pcl12RandomSampleINS_15VFHSignature308EE8unifRandEv@Base 1.6
 (optional=templinst)_ZN3pcl12RandomSampleINS_15VFHSignature308EE9getSampleEv@Base 1.6
 (optional=templinst)_ZN3pcl12RandomSampleINS_15VFHSignature308EE9setSampleEj@Base 1.6
 (optional=templinst)_ZN3pcl12RandomSampleINS_15VFHSignature308EEC1Ev@Base 1.6
 (optional=templinst)_ZN3pcl12RandomSampleINS_15VFHSignature308EEC2Ev@Base 1.6
 (optional=templinst)_ZN3pcl12RandomSampleINS_15VFHSignature308EED0Ev@Base 1.6
 (optional=templinst)_ZN3pcl12RandomSampleINS_15VFHSignature308EED1Ev@Base 1.6
 (optional=templinst)_ZN3pcl12RandomSampleINS_15VFHSignature308EED2Ev@Base 1.6
 (optional=templinst)_ZN3pcl12RandomSampleINS_16MomentInvariantsEE11applyFilterERNS_10PointCloudIS1_EE@Base 1.6
 (optional=templinst)_ZN3pcl12RandomSampleINS_16MomentInvariantsEE11applyFilterERSt6vectorIiSaIiEE@Base 1.6
 (optional=templinst)_ZN3pcl12RandomSampleINS_16MomentInvariantsEE7getSeedEv@Base 1.6
 (optional=templinst)_ZN3pcl12RandomSampleINS_16MomentInvariantsEE7setSeedEj@Base 1.6
 (optional=templinst)_ZN3pcl12RandomSampleINS_16MomentInvariantsEE8unifRandEv@Base 1.6
 (optional=templinst)_ZN3pcl12RandomSampleINS_16MomentInvariantsEE9getSampleEv@Base 1.6
 (optional=templinst)_ZN3pcl12RandomSampleINS_16MomentInvariantsEE9setSampleEj@Base 1.6
 (optional=templinst)_ZN3pcl12RandomSampleINS_16MomentInvariantsEEC1Ev@Base 1.6
 (optional=templinst)_ZN3pcl12RandomSampleINS_16MomentInvariantsEEC2Ev@Base 1.6
 (optional=templinst)_ZN3pcl12RandomSampleINS_16MomentInvariantsEED0Ev@Base 1.6
 (optional=templinst)_ZN3pcl12RandomSampleINS_16MomentInvariantsEED1Ev@Base 1.6
 (optional=templinst)_ZN3pcl12RandomSampleINS_16MomentInvariantsEED2Ev@Base 1.6
 (optional=templinst)_ZN3pcl12RandomSampleINS_17IntensityGradientEE11applyFilterERNS_10PointCloudIS1_EE@Base 1.6
 (optional=templinst)_ZN3pcl12RandomSampleINS_17IntensityGradientEE11applyFilterERSt6vectorIiSaIiEE@Base 1.6
 (optional=templinst)_ZN3pcl12RandomSampleINS_17IntensityGradientEE7getSeedEv@Base 1.6
 (optional=templinst)_ZN3pcl12RandomSampleINS_17IntensityGradientEE7setSeedEj@Base 1.6
 (optional=templinst)_ZN3pcl12RandomSampleINS_17IntensityGradientEE8unifRandEv@Base 1.6
 (optional=templinst)_ZN3pcl12RandomSampleINS_17IntensityGradientEE9getSampleEv@Base 1.6
 (optional=templinst)_ZN3pcl12RandomSampleINS_17IntensityGradientEE9setSampleEj@Base 1.6
 (optional=templinst)_ZN3pcl12RandomSampleINS_17IntensityGradientEEC1Ev@Base 1.6
 (optional=templinst)_ZN3pcl12RandomSampleINS_17IntensityGradientEEC2Ev@Base 1.6
 (optional=templinst)_ZN3pcl12RandomSampleINS_17IntensityGradientEED0Ev@Base 1.6
 (optional=templinst)_ZN3pcl12RandomSampleINS_17IntensityGradientEED1Ev@Base 1.6
 (optional=templinst)_ZN3pcl12RandomSampleINS_17IntensityGradientEED2Ev@Base 1.6
 (optional=templinst)_ZN3pcl12RandomSampleINS_17PointXYZRGBNormalEE11applyFilterERNS_10PointCloudIS1_EE@Base 1.6
 (optional=templinst)_ZN3pcl12RandomSampleINS_17PointXYZRGBNormalEE11applyFilterERSt6vectorIiSaIiEE@Base 1.6
 (optional=templinst)_ZN3pcl12RandomSampleINS_17PointXYZRGBNormalEE7getSeedEv@Base 1.6
 (optional=templinst)_ZN3pcl12RandomSampleINS_17PointXYZRGBNormalEE7setSeedEj@Base 1.6
 (optional=templinst)_ZN3pcl12RandomSampleINS_17PointXYZRGBNormalEE8unifRandEv@Base 1.6
 (optional=templinst)_ZN3pcl12RandomSampleINS_17PointXYZRGBNormalEE9getSampleEv@Base 1.6
 (optional=templinst)_ZN3pcl12RandomSampleINS_17PointXYZRGBNormalEE9setSampleEj@Base 1.6
 (optional=templinst)_ZN3pcl12RandomSampleINS_17PointXYZRGBNormalEEC1Ev@Base 1.6
 (optional=templinst)_ZN3pcl12RandomSampleINS_17PointXYZRGBNormalEEC2Ev@Base 1.6
 (optional=templinst)_ZN3pcl12RandomSampleINS_17PointXYZRGBNormalEED0Ev@Base 1.6
 (optional=templinst)_ZN3pcl12RandomSampleINS_17PointXYZRGBNormalEED1Ev@Base 1.6
 (optional=templinst)_ZN3pcl12RandomSampleINS_17PointXYZRGBNormalEED2Ev@Base 1.6
 (optional=templinst)_ZN3pcl12RandomSampleINS_17PrincipalRadiiRSDEE11applyFilterERNS_10PointCloudIS1_EE@Base 1.6
 (optional=templinst)_ZN3pcl12RandomSampleINS_17PrincipalRadiiRSDEE11applyFilterERSt6vectorIiSaIiEE@Base 1.6
 (optional=templinst)_ZN3pcl12RandomSampleINS_17PrincipalRadiiRSDEE7getSeedEv@Base 1.6
 (optional=templinst)_ZN3pcl12RandomSampleINS_17PrincipalRadiiRSDEE7setSeedEj@Base 1.6
 (optional=templinst)_ZN3pcl12RandomSampleINS_17PrincipalRadiiRSDEE8unifRandEv@Base 1.6
 (optional=templinst)_ZN3pcl12RandomSampleINS_17PrincipalRadiiRSDEE9getSampleEv@Base 1.6
 (optional=templinst)_ZN3pcl12RandomSampleINS_17PrincipalRadiiRSDEE9setSampleEj@Base 1.6
 (optional=templinst)_ZN3pcl12RandomSampleINS_17PrincipalRadiiRSDEEC1Ev@Base 1.6
 (optional=templinst)_ZN3pcl12RandomSampleINS_17PrincipalRadiiRSDEEC2Ev@Base 1.6
 (optional=templinst)_ZN3pcl12RandomSampleINS_17PrincipalRadiiRSDEED0Ev@Base 1.6
 (optional=templinst)_ZN3pcl12RandomSampleINS_17PrincipalRadiiRSDEED1Ev@Base 1.6
 (optional=templinst)_ZN3pcl12RandomSampleINS_17PrincipalRadiiRSDEED2Ev@Base 1.6
 (optional=templinst)_ZN3pcl12RandomSampleINS_18PFHRGBSignature250EE11applyFilterERNS_10PointCloudIS1_EE@Base 1.6
 (optional=templinst)_ZN3pcl12RandomSampleINS_18PFHRGBSignature250EE11applyFilterERSt6vectorIiSaIiEE@Base 1.6
 (optional=templinst)_ZN3pcl12RandomSampleINS_18PFHRGBSignature250EE7getSeedEv@Base 1.6
 (optional=templinst)_ZN3pcl12RandomSampleINS_18PFHRGBSignature250EE7setSeedEj@Base 1.6
 (optional=templinst)_ZN3pcl12RandomSampleINS_18PFHRGBSignature250EE8unifRandEv@Base 1.6
 (optional=templinst)_ZN3pcl12RandomSampleINS_18PFHRGBSignature250EE9getSampleEv@Base 1.6
 (optional=templinst)_ZN3pcl12RandomSampleINS_18PFHRGBSignature250EE9setSampleEj@Base 1.6
 (optional=templinst)_ZN3pcl12RandomSampleINS_18PFHRGBSignature250EEC1Ev@Base 1.6
 (optional=templinst)_ZN3pcl12RandomSampleINS_18PFHRGBSignature250EEC2Ev@Base 1.6
 (optional=templinst)_ZN3pcl12RandomSampleINS_18PFHRGBSignature250EED0Ev@Base 1.6
 (optional=templinst)_ZN3pcl12RandomSampleINS_18PFHRGBSignature250EED1Ev@Base 1.6
 (optional=templinst)_ZN3pcl12RandomSampleINS_18PFHRGBSignature250EED2Ev@Base 1.6
 (optional=templinst)_ZN3pcl12RandomSampleINS_18PointWithViewpointEE11applyFilterERNS_10PointCloudIS1_EE@Base 1.6
 (optional=templinst)_ZN3pcl12RandomSampleINS_18PointWithViewpointEE11applyFilterERSt6vectorIiSaIiEE@Base 1.6
 (optional=templinst)_ZN3pcl12RandomSampleINS_18PointWithViewpointEE7getSeedEv@Base 1.6
 (optional=templinst)_ZN3pcl12RandomSampleINS_18PointWithViewpointEE7setSeedEj@Base 1.6
 (optional=templinst)_ZN3pcl12RandomSampleINS_18PointWithViewpointEE8unifRandEv@Base 1.6
 (optional=templinst)_ZN3pcl12RandomSampleINS_18PointWithViewpointEE9getSampleEv@Base 1.6
 (optional=templinst)_ZN3pcl12RandomSampleINS_18PointWithViewpointEE9setSampleEj@Base 1.6
 (optional=templinst)_ZN3pcl12RandomSampleINS_18PointWithViewpointEEC1Ev@Base 1.6
 (optional=templinst)_ZN3pcl12RandomSampleINS_18PointWithViewpointEEC2Ev@Base 1.6
 (optional=templinst)_ZN3pcl12RandomSampleINS_18PointWithViewpointEED0Ev@Base 1.6
 (optional=templinst)_ZN3pcl12RandomSampleINS_18PointWithViewpointEED1Ev@Base 1.6
 (optional=templinst)_ZN3pcl12RandomSampleINS_18PointWithViewpointEED2Ev@Base 1.6
 (optional=templinst)_ZN3pcl12RandomSampleINS_19PrincipalCurvaturesEE11applyFilterERNS_10PointCloudIS1_EE@Base 1.6
 (optional=templinst)_ZN3pcl12RandomSampleINS_19PrincipalCurvaturesEE11applyFilterERSt6vectorIiSaIiEE@Base 1.6
 (optional=templinst)_ZN3pcl12RandomSampleINS_19PrincipalCurvaturesEE7getSeedEv@Base 1.6
 (optional=templinst)_ZN3pcl12RandomSampleINS_19PrincipalCurvaturesEE7setSeedEj@Base 1.6
 (optional=templinst)_ZN3pcl12RandomSampleINS_19PrincipalCurvaturesEE8unifRandEv@Base 1.6
 (optional=templinst)_ZN3pcl12RandomSampleINS_19PrincipalCurvaturesEE9getSampleEv@Base 1.6
 (optional=templinst)_ZN3pcl12RandomSampleINS_19PrincipalCurvaturesEE9setSampleEj@Base 1.6
 (optional=templinst)_ZN3pcl12RandomSampleINS_19PrincipalCurvaturesEEC1Ev@Base 1.6
 (optional=templinst)_ZN3pcl12RandomSampleINS_19PrincipalCurvaturesEEC2Ev@Base 1.6
 (optional=templinst)_ZN3pcl12RandomSampleINS_19PrincipalCurvaturesEED0Ev@Base 1.6
 (optional=templinst)_ZN3pcl12RandomSampleINS_19PrincipalCurvaturesEED1Ev@Base 1.6
 (optional=templinst)_ZN3pcl12RandomSampleINS_19PrincipalCurvaturesEED2Ev@Base 1.6
 (optional=templinst)_ZN3pcl12RandomSampleINS_22NormalBasedSignature12EE11applyFilterERNS_10PointCloudIS1_EE@Base 1.6
 (optional=templinst)_ZN3pcl12RandomSampleINS_22NormalBasedSignature12EE11applyFilterERSt6vectorIiSaIiEE@Base 1.6
 (optional=templinst)_ZN3pcl12RandomSampleINS_22NormalBasedSignature12EE7getSeedEv@Base 1.6
 (optional=templinst)_ZN3pcl12RandomSampleINS_22NormalBasedSignature12EE7setSeedEj@Base 1.6
 (optional=templinst)_ZN3pcl12RandomSampleINS_22NormalBasedSignature12EE8unifRandEv@Base 1.6
 (optional=templinst)_ZN3pcl12RandomSampleINS_22NormalBasedSignature12EE9getSampleEv@Base 1.6
 (optional=templinst)_ZN3pcl12RandomSampleINS_22NormalBasedSignature12EE9setSampleEj@Base 1.6
 (optional=templinst)_ZN3pcl12RandomSampleINS_22NormalBasedSignature12EEC1Ev@Base 1.6
 (optional=templinst)_ZN3pcl12RandomSampleINS_22NormalBasedSignature12EEC2Ev@Base 1.6
 (optional=templinst)_ZN3pcl12RandomSampleINS_22NormalBasedSignature12EED0Ev@Base 1.6
 (optional=templinst)_ZN3pcl12RandomSampleINS_22NormalBasedSignature12EED1Ev@Base 1.6
 (optional=templinst)_ZN3pcl12RandomSampleINS_22NormalBasedSignature12EED2Ev@Base 1.6
 (optional=templinst)_ZN3pcl12RandomSampleINS_4AxisEE11applyFilterERNS_10PointCloudIS1_EE@Base 1.6
 (optional=templinst)_ZN3pcl12RandomSampleINS_4AxisEE11applyFilterERSt6vectorIiSaIiEE@Base 1.6
 (optional=templinst)_ZN3pcl12RandomSampleINS_4AxisEE7getSeedEv@Base 1.6
 (optional=templinst)_ZN3pcl12RandomSampleINS_4AxisEE7setSeedEj@Base 1.6
 (optional=templinst)_ZN3pcl12RandomSampleINS_4AxisEE8unifRandEv@Base 1.6
 (optional=templinst)_ZN3pcl12RandomSampleINS_4AxisEE9getSampleEv@Base 1.6
 (optional=templinst)_ZN3pcl12RandomSampleINS_4AxisEE9setSampleEj@Base 1.6
 (optional=templinst)_ZN3pcl12RandomSampleINS_4AxisEEC1Ev@Base 1.6
 (optional=templinst)_ZN3pcl12RandomSampleINS_4AxisEEC2Ev@Base 1.6
 (optional=templinst)_ZN3pcl12RandomSampleINS_4AxisEED0Ev@Base 1.6
 (optional=templinst)_ZN3pcl12RandomSampleINS_4AxisEED1Ev@Base 1.6
 (optional=templinst)_ZN3pcl12RandomSampleINS_4AxisEED2Ev@Base 1.6
 (optional=templinst)_ZN3pcl12RandomSampleINS_5LabelEE11applyFilterERNS_10PointCloudIS1_EE@Base 1.6
 (optional=templinst)_ZN3pcl12RandomSampleINS_5LabelEE11applyFilterERSt6vectorIiSaIiEE@Base 1.6
 (optional=templinst)_ZN3pcl12RandomSampleINS_5LabelEE7getSeedEv@Base 1.6
 (optional=templinst)_ZN3pcl12RandomSampleINS_5LabelEE7setSeedEj@Base 1.6
 (optional=templinst)_ZN3pcl12RandomSampleINS_5LabelEE8unifRandEv@Base 1.6
 (optional=templinst)_ZN3pcl12RandomSampleINS_5LabelEE9getSampleEv@Base 1.6
 (optional=templinst)_ZN3pcl12RandomSampleINS_5LabelEE9setSampleEj@Base 1.6
 (optional=templinst)_ZN3pcl12RandomSampleINS_5LabelEEC1Ev@Base 1.6
 (optional=templinst)_ZN3pcl12RandomSampleINS_5LabelEEC2Ev@Base 1.6
 (optional=templinst)_ZN3pcl12RandomSampleINS_5LabelEED0Ev@Base 1.6
 (optional=templinst)_ZN3pcl12RandomSampleINS_5LabelEED1Ev@Base 1.6
 (optional=templinst)_ZN3pcl12RandomSampleINS_5LabelEED2Ev@Base 1.6
 (optional=templinst)_ZN3pcl12RandomSampleINS_6Narf36EE11applyFilterERNS_10PointCloudIS1_EE@Base 1.6
 (optional=templinst)_ZN3pcl12RandomSampleINS_6Narf36EE11applyFilterERSt6vectorIiSaIiEE@Base 1.6
 (optional=templinst)_ZN3pcl12RandomSampleINS_6Narf36EE7getSeedEv@Base 1.6
 (optional=templinst)_ZN3pcl12RandomSampleINS_6Narf36EE7setSeedEj@Base 1.6
 (optional=templinst)_ZN3pcl12RandomSampleINS_6Narf36EE8unifRandEv@Base 1.6
 (optional=templinst)_ZN3pcl12RandomSampleINS_6Narf36EE9getSampleEv@Base 1.6
 (optional=templinst)_ZN3pcl12RandomSampleINS_6Narf36EE9setSampleEj@Base 1.6
 (optional=templinst)_ZN3pcl12RandomSampleINS_6Narf36EEC1Ev@Base 1.6
 (optional=templinst)_ZN3pcl12RandomSampleINS_6Narf36EEC2Ev@Base 1.6
 (optional=templinst)_ZN3pcl12RandomSampleINS_6Narf36EED0Ev@Base 1.6
 (optional=templinst)_ZN3pcl12RandomSampleINS_6Narf36EED1Ev@Base 1.6
 (optional=templinst)_ZN3pcl12RandomSampleINS_6Narf36EED2Ev@Base 1.6
 (optional=templinst)_ZN3pcl12RandomSampleINS_6NormalEE11applyFilterERNS_10PointCloudIS1_EE@Base 1.6
 (optional=templinst)_ZN3pcl12RandomSampleINS_6NormalEE11applyFilterERSt6vectorIiSaIiEE@Base 1.6
 (optional=templinst)_ZN3pcl12RandomSampleINS_6NormalEE7getSeedEv@Base 1.6
 (optional=templinst)_ZN3pcl12RandomSampleINS_6NormalEE7setSeedEj@Base 1.6
 (optional=templinst)_ZN3pcl12RandomSampleINS_6NormalEE8unifRandEv@Base 1.6
 (optional=templinst)_ZN3pcl12RandomSampleINS_6NormalEE9getSampleEv@Base 1.6
 (optional=templinst)_ZN3pcl12RandomSampleINS_6NormalEE9setSampleEj@Base 1.6
 (optional=templinst)_ZN3pcl12RandomSampleINS_6NormalEEC1Ev@Base 1.6
 (optional=templinst)_ZN3pcl12RandomSampleINS_6NormalEEC2Ev@Base 1.6
 (optional=templinst)_ZN3pcl12RandomSampleINS_6NormalEED0Ev@Base 1.6
 (optional=templinst)_ZN3pcl12RandomSampleINS_6NormalEED1Ev@Base 1.6
 (optional=templinst)_ZN3pcl12RandomSampleINS_6NormalEED2Ev@Base 1.6
 (optional=templinst)_ZN3pcl12RandomSampleINS_7PointXYEE11applyFilterERNS_10PointCloudIS1_EE@Base 1.6
 (optional=templinst)_ZN3pcl12RandomSampleINS_7PointXYEE11applyFilterERSt6vectorIiSaIiEE@Base 1.6
 (optional=templinst)_ZN3pcl12RandomSampleINS_7PointXYEE7getSeedEv@Base 1.6
 (optional=templinst)_ZN3pcl12RandomSampleINS_7PointXYEE7setSeedEj@Base 1.6
 (optional=templinst)_ZN3pcl12RandomSampleINS_7PointXYEE8unifRandEv@Base 1.6
 (optional=templinst)_ZN3pcl12RandomSampleINS_7PointXYEE9getSampleEv@Base 1.6
 (optional=templinst)_ZN3pcl12RandomSampleINS_7PointXYEE9setSampleEj@Base 1.6
 (optional=templinst)_ZN3pcl12RandomSampleINS_7PointXYEEC1Ev@Base 1.6
 (optional=templinst)_ZN3pcl12RandomSampleINS_7PointXYEEC2Ev@Base 1.6
 (optional=templinst)_ZN3pcl12RandomSampleINS_7PointXYEED0Ev@Base 1.6
 (optional=templinst)_ZN3pcl12RandomSampleINS_7PointXYEED1Ev@Base 1.6
 (optional=templinst)_ZN3pcl12RandomSampleINS_7PointXYEED2Ev@Base 1.6
 (optional=templinst)_ZN3pcl12RandomSampleINS_8BoundaryEE11applyFilterERNS_10PointCloudIS1_EE@Base 1.6
 (optional=templinst)_ZN3pcl12RandomSampleINS_8BoundaryEE11applyFilterERSt6vectorIiSaIiEE@Base 1.6
 (optional=templinst)_ZN3pcl12RandomSampleINS_8BoundaryEE7getSeedEv@Base 1.6
 (optional=templinst)_ZN3pcl12RandomSampleINS_8BoundaryEE7setSeedEj@Base 1.6
 (optional=templinst)_ZN3pcl12RandomSampleINS_8BoundaryEE8unifRandEv@Base 1.6
 (optional=templinst)_ZN3pcl12RandomSampleINS_8BoundaryEE9getSampleEv@Base 1.6
 (optional=templinst)_ZN3pcl12RandomSampleINS_8BoundaryEE9setSampleEj@Base 1.6
 (optional=templinst)_ZN3pcl12RandomSampleINS_8BoundaryEEC1Ev@Base 1.6
 (optional=templinst)_ZN3pcl12RandomSampleINS_8BoundaryEEC2Ev@Base 1.6
 (optional=templinst)_ZN3pcl12RandomSampleINS_8BoundaryEED0Ev@Base 1.6
 (optional=templinst)_ZN3pcl12RandomSampleINS_8BoundaryEED1Ev@Base 1.6
 (optional=templinst)_ZN3pcl12RandomSampleINS_8BoundaryEED2Ev@Base 1.6
 (optional=templinst)_ZN3pcl12RandomSampleINS_8PointXYZEE11applyFilterERNS_10PointCloudIS1_EE@Base 1.6
 (optional=templinst)_ZN3pcl12RandomSampleINS_8PointXYZEE11applyFilterERSt6vectorIiSaIiEE@Base 1.6
 (optional=templinst)_ZN3pcl12RandomSampleINS_8PointXYZEE7getSeedEv@Base 1.6
 (optional=templinst)_ZN3pcl12RandomSampleINS_8PointXYZEE7setSeedEj@Base 1.6
 (optional=templinst)_ZN3pcl12RandomSampleINS_8PointXYZEE8unifRandEv@Base 1.6
 (optional=templinst)_ZN3pcl12RandomSampleINS_8PointXYZEE9getSampleEv@Base 1.6
 (optional=templinst)_ZN3pcl12RandomSampleINS_8PointXYZEE9setSampleEj@Base 1.6
 (optional=templinst)_ZN3pcl12RandomSampleINS_8PointXYZEEC1Ev@Base 1.6
 (optional=templinst)_ZN3pcl12RandomSampleINS_8PointXYZEEC2Ev@Base 1.6
 (optional=templinst)_ZN3pcl12RandomSampleINS_8PointXYZEED0Ev@Base 1.6
 (optional=templinst)_ZN3pcl12RandomSampleINS_8PointXYZEED1Ev@Base 1.6
 (optional=templinst)_ZN3pcl12RandomSampleINS_8PointXYZEED2Ev@Base 1.6
 (optional=templinst)_ZN3pcl12RandomSampleINS_9PointXYZIEE11applyFilterERNS_10PointCloudIS1_EE@Base 1.6
 (optional=templinst)_ZN3pcl12RandomSampleINS_9PointXYZIEE11applyFilterERSt6vectorIiSaIiEE@Base 1.6
 (optional=templinst)_ZN3pcl12RandomSampleINS_9PointXYZIEE7getSeedEv@Base 1.6
 (optional=templinst)_ZN3pcl12RandomSampleINS_9PointXYZIEE7setSeedEj@Base 1.6
 (optional=templinst)_ZN3pcl12RandomSampleINS_9PointXYZIEE8unifRandEv@Base 1.6
 (optional=templinst)_ZN3pcl12RandomSampleINS_9PointXYZIEE9getSampleEv@Base 1.6
 (optional=templinst)_ZN3pcl12RandomSampleINS_9PointXYZIEE9setSampleEj@Base 1.6
 (optional=templinst)_ZN3pcl12RandomSampleINS_9PointXYZIEEC1Ev@Base 1.6
 (optional=templinst)_ZN3pcl12RandomSampleINS_9PointXYZIEEC2Ev@Base 1.6
 (optional=templinst)_ZN3pcl12RandomSampleINS_9PointXYZIEED0Ev@Base 1.6
 (optional=templinst)_ZN3pcl12RandomSampleINS_9PointXYZIEED1Ev@Base 1.6
 (optional=templinst)_ZN3pcl12RandomSampleINS_9PointXYZIEED2Ev@Base 1.6
 (optional=templinst)_ZN3pcl12RandomSampleINS_9PointXYZLEE11applyFilterERNS_10PointCloudIS1_EE@Base 1.6
 (optional=templinst)_ZN3pcl12RandomSampleINS_9PointXYZLEE11applyFilterERSt6vectorIiSaIiEE@Base 1.6
 (optional=templinst)_ZN3pcl12RandomSampleINS_9PointXYZLEE7getSeedEv@Base 1.6
 (optional=templinst)_ZN3pcl12RandomSampleINS_9PointXYZLEE7setSeedEj@Base 1.6
 (optional=templinst)_ZN3pcl12RandomSampleINS_9PointXYZLEE8unifRandEv@Base 1.6
 (optional=templinst)_ZN3pcl12RandomSampleINS_9PointXYZLEE9getSampleEv@Base 1.6
 (optional=templinst)_ZN3pcl12RandomSampleINS_9PointXYZLEE9setSampleEj@Base 1.6
 (optional=templinst)_ZN3pcl12RandomSampleINS_9PointXYZLEEC1Ev@Base 1.6
 (optional=templinst)_ZN3pcl12RandomSampleINS_9PointXYZLEEC2Ev@Base 1.6
 (optional=templinst)_ZN3pcl12RandomSampleINS_9PointXYZLEED0Ev@Base 1.6
 (optional=templinst)_ZN3pcl12RandomSampleINS_9PointXYZLEED1Ev@Base 1.6
 (optional=templinst)_ZN3pcl12RandomSampleINS_9PointXYZLEED2Ev@Base 1.6
 (optional=templinst)_ZN3pcl13ConditionBaseINS_11PointNormalEE12addConditionEN5boost10shared_ptrIS2_EE@Base 1.6
 (optional=templinst)_ZN3pcl13ConditionBaseINS_11PointNormalEE13addComparisonEN5boost10shared_ptrIKNS_14ComparisonBaseIS1_EEEE@Base 1.6
 (optional=templinst)_ZN3pcl13ConditionBaseINS_11PointNormalEEC1Ev@Base 1.6
 (optional=templinst)_ZN3pcl13ConditionBaseINS_11PointNormalEEC2Ev@Base 1.6
 (optional=templinst)_ZN3pcl13ConditionBaseINS_11PointNormalEED0Ev@Base 1.6
 (optional=templinst)_ZN3pcl13ConditionBaseINS_11PointNormalEED1Ev@Base 1.6
 (optional=templinst)_ZN3pcl13ConditionBaseINS_11PointNormalEED2Ev@Base 1.6
 (optional=templinst)_ZN3pcl13ConditionBaseINS_11PointXYZHSVEE12addConditionEN5boost10shared_ptrIS2_EE@Base 1.6
 (optional=templinst)_ZN3pcl13ConditionBaseINS_11PointXYZHSVEE13addComparisonEN5boost10shared_ptrIKNS_14ComparisonBaseIS1_EEEE@Base 1.6
 (optional=templinst)_ZN3pcl13ConditionBaseINS_11PointXYZHSVEEC1Ev@Base 1.6
 (optional=templinst)_ZN3pcl13ConditionBaseINS_11PointXYZHSVEEC2Ev@Base 1.6
 (optional=templinst)_ZN3pcl13ConditionBaseINS_11PointXYZHSVEED0Ev@Base 1.6
 (optional=templinst)_ZN3pcl13ConditionBaseINS_11PointXYZHSVEED1Ev@Base 1.6
 (optional=templinst)_ZN3pcl13ConditionBaseINS_11PointXYZHSVEED2Ev@Base 1.6
 (optional=templinst)_ZN3pcl13ConditionBaseINS_11PointXYZRGBEE12addConditionEN5boost10shared_ptrIS2_EE@Base 1.6
 (optional=templinst)_ZN3pcl13ConditionBaseINS_11PointXYZRGBEE13addComparisonEN5boost10shared_ptrIKNS_14ComparisonBaseIS1_EEEE@Base 1.6
 (optional=templinst)_ZN3pcl13ConditionBaseINS_11PointXYZRGBEEC1Ev@Base 1.6
 (optional=templinst)_ZN3pcl13ConditionBaseINS_11PointXYZRGBEEC2Ev@Base 1.6
 (optional=templinst)_ZN3pcl13ConditionBaseINS_11PointXYZRGBEED0Ev@Base 1.6
 (optional=templinst)_ZN3pcl13ConditionBaseINS_11PointXYZRGBEED1Ev@Base 1.6
 (optional=templinst)_ZN3pcl13ConditionBaseINS_11PointXYZRGBEED2Ev@Base 1.6
 (optional=templinst)_ZN3pcl13ConditionBaseINS_12PointXYZRGBAEE12addConditionEN5boost10shared_ptrIS2_EE@Base 1.6
 (optional=templinst)_ZN3pcl13ConditionBaseINS_12PointXYZRGBAEE13addComparisonEN5boost10shared_ptrIKNS_14ComparisonBaseIS1_EEEE@Base 1.6
 (optional=templinst)_ZN3pcl13ConditionBaseINS_12PointXYZRGBAEEC1Ev@Base 1.6
 (optional=templinst)_ZN3pcl13ConditionBaseINS_12PointXYZRGBAEEC2Ev@Base 1.6
 (optional=templinst)_ZN3pcl13ConditionBaseINS_12PointXYZRGBAEED0Ev@Base 1.6
 (optional=templinst)_ZN3pcl13ConditionBaseINS_12PointXYZRGBAEED1Ev@Base 1.6
 (optional=templinst)_ZN3pcl13ConditionBaseINS_12PointXYZRGBAEED2Ev@Base 1.6
 (optional=templinst)_ZN3pcl13ConditionBaseINS_12PointXYZRGBLEE12addConditionEN5boost10shared_ptrIS2_EE@Base 1.6
 (optional=templinst)_ZN3pcl13ConditionBaseINS_12PointXYZRGBLEE13addComparisonEN5boost10shared_ptrIKNS_14ComparisonBaseIS1_EEEE@Base 1.6
 (optional=templinst)_ZN3pcl13ConditionBaseINS_12PointXYZRGBLEEC1Ev@Base 1.6
 (optional=templinst)_ZN3pcl13ConditionBaseINS_12PointXYZRGBLEEC2Ev@Base 1.6
 (optional=templinst)_ZN3pcl13ConditionBaseINS_12PointXYZRGBLEED0Ev@Base 1.6
 (optional=templinst)_ZN3pcl13ConditionBaseINS_12PointXYZRGBLEED1Ev@Base 1.6
 (optional=templinst)_ZN3pcl13ConditionBaseINS_12PointXYZRGBLEED2Ev@Base 1.6
 (optional=templinst)_ZN3pcl13ConditionBaseINS_13InterestPointEE12addConditionEN5boost10shared_ptrIS2_EE@Base 1.6
 (optional=templinst)_ZN3pcl13ConditionBaseINS_13InterestPointEE13addComparisonEN5boost10shared_ptrIKNS_14ComparisonBaseIS1_EEEE@Base 1.6
 (optional=templinst)_ZN3pcl13ConditionBaseINS_13InterestPointEEC1Ev@Base 1.6
 (optional=templinst)_ZN3pcl13ConditionBaseINS_13InterestPointEEC2Ev@Base 1.6
 (optional=templinst)_ZN3pcl13ConditionBaseINS_13InterestPointEED0Ev@Base 1.6
 (optional=templinst)_ZN3pcl13ConditionBaseINS_13InterestPointEED1Ev@Base 1.6
 (optional=templinst)_ZN3pcl13ConditionBaseINS_13InterestPointEED2Ev@Base 1.6
 (optional=templinst)_ZN3pcl13ConditionBaseINS_14PointWithRangeEE12addConditionEN5boost10shared_ptrIS2_EE@Base 1.6
 (optional=templinst)_ZN3pcl13ConditionBaseINS_14PointWithRangeEE13addComparisonEN5boost10shared_ptrIKNS_14ComparisonBaseIS1_EEEE@Base 1.6
 (optional=templinst)_ZN3pcl13ConditionBaseINS_14PointWithRangeEEC1Ev@Base 1.6
 (optional=templinst)_ZN3pcl13ConditionBaseINS_14PointWithRangeEEC2Ev@Base 1.6
 (optional=templinst)_ZN3pcl13ConditionBaseINS_14PointWithRangeEED0Ev@Base 1.6
 (optional=templinst)_ZN3pcl13ConditionBaseINS_14PointWithRangeEED1Ev@Base 1.6
 (optional=templinst)_ZN3pcl13ConditionBaseINS_14PointWithRangeEED2Ev@Base 1.6
 (optional=templinst)_ZN3pcl13ConditionBaseINS_14PointWithScaleEE12addConditionEN5boost10shared_ptrIS2_EE@Base 1.6
 (optional=templinst)_ZN3pcl13ConditionBaseINS_14PointWithScaleEE13addComparisonEN5boost10shared_ptrIKNS_14ComparisonBaseIS1_EEEE@Base 1.6
 (optional=templinst)_ZN3pcl13ConditionBaseINS_14PointWithScaleEEC1Ev@Base 1.6
 (optional=templinst)_ZN3pcl13ConditionBaseINS_14PointWithScaleEEC2Ev@Base 1.6
 (optional=templinst)_ZN3pcl13ConditionBaseINS_14PointWithScaleEED0Ev@Base 1.6
 (optional=templinst)_ZN3pcl13ConditionBaseINS_14PointWithScaleEED1Ev@Base 1.6
 (optional=templinst)_ZN3pcl13ConditionBaseINS_14PointWithScaleEED2Ev@Base 1.6
 (optional=templinst)_ZN3pcl13ConditionBaseINS_15PointXYZINormalEE12addConditionEN5boost10shared_ptrIS2_EE@Base 1.6
 (optional=templinst)_ZN3pcl13ConditionBaseINS_15PointXYZINormalEE13addComparisonEN5boost10shared_ptrIKNS_14ComparisonBaseIS1_EEEE@Base 1.6
 (optional=templinst)_ZN3pcl13ConditionBaseINS_15PointXYZINormalEEC1Ev@Base 1.6
 (optional=templinst)_ZN3pcl13ConditionBaseINS_15PointXYZINormalEEC2Ev@Base 1.6
 (optional=templinst)_ZN3pcl13ConditionBaseINS_15PointXYZINormalEED0Ev@Base 1.6
 (optional=templinst)_ZN3pcl13ConditionBaseINS_15PointXYZINormalEED1Ev@Base 1.6
 (optional=templinst)_ZN3pcl13ConditionBaseINS_15PointXYZINormalEED2Ev@Base 1.6
 (optional=templinst)_ZN3pcl13ConditionBaseINS_17PointXYZRGBNormalEE12addConditionEN5boost10shared_ptrIS2_EE@Base 1.6
 (optional=templinst)_ZN3pcl13ConditionBaseINS_17PointXYZRGBNormalEE13addComparisonEN5boost10shared_ptrIKNS_14ComparisonBaseIS1_EEEE@Base 1.6
 (optional=templinst)_ZN3pcl13ConditionBaseINS_17PointXYZRGBNormalEEC1Ev@Base 1.6
 (optional=templinst)_ZN3pcl13ConditionBaseINS_17PointXYZRGBNormalEEC2Ev@Base 1.6
 (optional=templinst)_ZN3pcl13ConditionBaseINS_17PointXYZRGBNormalEED0Ev@Base 1.6
 (optional=templinst)_ZN3pcl13ConditionBaseINS_17PointXYZRGBNormalEED1Ev@Base 1.6
 (optional=templinst)_ZN3pcl13ConditionBaseINS_17PointXYZRGBNormalEED2Ev@Base 1.6
 (optional=templinst)_ZN3pcl13ConditionBaseINS_18PointWithViewpointEE12addConditionEN5boost10shared_ptrIS2_EE@Base 1.6
 (optional=templinst)_ZN3pcl13ConditionBaseINS_18PointWithViewpointEE13addComparisonEN5boost10shared_ptrIKNS_14ComparisonBaseIS1_EEEE@Base 1.6
 (optional=templinst)_ZN3pcl13ConditionBaseINS_18PointWithViewpointEEC1Ev@Base 1.6
 (optional=templinst)_ZN3pcl13ConditionBaseINS_18PointWithViewpointEEC2Ev@Base 1.6
 (optional=templinst)_ZN3pcl13ConditionBaseINS_18PointWithViewpointEED0Ev@Base 1.6
 (optional=templinst)_ZN3pcl13ConditionBaseINS_18PointWithViewpointEED1Ev@Base 1.6
 (optional=templinst)_ZN3pcl13ConditionBaseINS_18PointWithViewpointEED2Ev@Base 1.6
 (optional=templinst)_ZN3pcl13ConditionBaseINS_8PointXYZEE12addConditionEN5boost10shared_ptrIS2_EE@Base 1.6
 (optional=templinst)_ZN3pcl13ConditionBaseINS_8PointXYZEE13addComparisonEN5boost10shared_ptrIKNS_14ComparisonBaseIS1_EEEE@Base 1.6
 (optional=templinst)_ZN3pcl13ConditionBaseINS_8PointXYZEEC1Ev@Base 1.6
 (optional=templinst)_ZN3pcl13ConditionBaseINS_8PointXYZEEC2Ev@Base 1.6
 (optional=templinst)_ZN3pcl13ConditionBaseINS_8PointXYZEED0Ev@Base 1.6
 (optional=templinst)_ZN3pcl13ConditionBaseINS_8PointXYZEED1Ev@Base 1.6
 (optional=templinst)_ZN3pcl13ConditionBaseINS_8PointXYZEED2Ev@Base 1.6
 (optional=templinst)_ZN3pcl13ConditionBaseINS_9PointXYZIEE12addConditionEN5boost10shared_ptrIS2_EE@Base 1.6
 (optional=templinst)_ZN3pcl13ConditionBaseINS_9PointXYZIEE13addComparisonEN5boost10shared_ptrIKNS_14ComparisonBaseIS1_EEEE@Base 1.6
 (optional=templinst)_ZN3pcl13ConditionBaseINS_9PointXYZIEEC1Ev@Base 1.6
 (optional=templinst)_ZN3pcl13ConditionBaseINS_9PointXYZIEEC2Ev@Base 1.6
 (optional=templinst)_ZN3pcl13ConditionBaseINS_9PointXYZIEED0Ev@Base 1.6
 (optional=templinst)_ZN3pcl13ConditionBaseINS_9PointXYZIEED1Ev@Base 1.6
 (optional=templinst)_ZN3pcl13ConditionBaseINS_9PointXYZIEED2Ev@Base 1.6
 (optional=templinst)_ZN3pcl13ConditionBaseINS_9PointXYZLEE12addConditionEN5boost10shared_ptrIS2_EE@Base 1.6
 (optional=templinst)_ZN3pcl13ConditionBaseINS_9PointXYZLEE13addComparisonEN5boost10shared_ptrIKNS_14ComparisonBaseIS1_EEEE@Base 1.6
 (optional=templinst)_ZN3pcl13ConditionBaseINS_9PointXYZLEEC1Ev@Base 1.6
 (optional=templinst)_ZN3pcl13ConditionBaseINS_9PointXYZLEEC2Ev@Base 1.6
 (optional=templinst)_ZN3pcl13ConditionBaseINS_9PointXYZLEED0Ev@Base 1.6
 (optional=templinst)_ZN3pcl13ConditionBaseINS_9PointXYZLEED1Ev@Base 1.6
 (optional=templinst)_ZN3pcl13ConditionBaseINS_9PointXYZLEED2Ev@Base 1.6
 (optional=templinst)_ZN3pcl13FilterIndicesIN11sensor_msgs11PointCloud2EE6filterERS2_@Base 1.6
 (optional=templinst)_ZN3pcl13FilterIndicesIN11sensor_msgs11PointCloud2EE6filterERSt6vectorIiSaIiEE@Base 1.6
 (optional=templinst)_ZN3pcl13FilterIndicesIN11sensor_msgs11PointCloud2EED0Ev@Base 1.6
 (optional=templinst)_ZN3pcl13FilterIndicesIN11sensor_msgs11PointCloud2EED1Ev@Base 1.6
 (optional=templinst)_ZN3pcl13FilterIndicesIN11sensor_msgs11PointCloud2EED2Ev@Base 1.6
 (optional=templinst)_ZN3pcl13FilterIndicesINS_11PointNormalEEC1Eb@Base 1.6
 (optional=templinst)_ZN3pcl13FilterIndicesINS_11PointNormalEEC2Eb@Base 1.6
 (optional=templinst)_ZN3pcl13FilterIndicesINS_11PointNormalEED0Ev@Base 1.6
 (optional=templinst)_ZN3pcl13FilterIndicesINS_11PointNormalEED1Ev@Base 1.6
 (optional=templinst)_ZN3pcl13FilterIndicesINS_11PointNormalEED2Ev@Base 1.6
 (optional=templinst)_ZN3pcl13FilterIndicesINS_11PointXYZHSVEEC1Eb@Base 1.6
 (optional=templinst)_ZN3pcl13FilterIndicesINS_11PointXYZHSVEEC2Eb@Base 1.6
 (optional=templinst)_ZN3pcl13FilterIndicesINS_11PointXYZHSVEED0Ev@Base 1.6
 (optional=templinst)_ZN3pcl13FilterIndicesINS_11PointXYZHSVEED1Ev@Base 1.6
 (optional=templinst)_ZN3pcl13FilterIndicesINS_11PointXYZHSVEED2Ev@Base 1.6
 (optional=templinst)_ZN3pcl13FilterIndicesINS_11PointXYZRGBEEC1Eb@Base 1.6
 (optional=templinst)_ZN3pcl13FilterIndicesINS_11PointXYZRGBEEC2Eb@Base 1.6
 (optional=templinst)_ZN3pcl13FilterIndicesINS_11PointXYZRGBEED0Ev@Base 1.6
 (optional=templinst)_ZN3pcl13FilterIndicesINS_11PointXYZRGBEED1Ev@Base 1.6
 (optional=templinst)_ZN3pcl13FilterIndicesINS_11PointXYZRGBEED2Ev@Base 1.6
 (optional=templinst)_ZN3pcl13FilterIndicesINS_12PPFSignatureEEC1Eb@Base 1.6
 (optional=templinst)_ZN3pcl13FilterIndicesINS_12PPFSignatureEEC2Eb@Base 1.6
 (optional=templinst)_ZN3pcl13FilterIndicesINS_12PPFSignatureEED0Ev@Base 1.6
 (optional=templinst)_ZN3pcl13FilterIndicesINS_12PPFSignatureEED1Ev@Base 1.6
 (optional=templinst)_ZN3pcl13FilterIndicesINS_12PPFSignatureEED2Ev@Base 1.6
 (optional=templinst)_ZN3pcl13FilterIndicesINS_12PointXYZRGBAEEC1Eb@Base 1.6
 (optional=templinst)_ZN3pcl13FilterIndicesINS_12PointXYZRGBAEEC2Eb@Base 1.6
 (optional=templinst)_ZN3pcl13FilterIndicesINS_12PointXYZRGBAEED0Ev@Base 1.6
 (optional=templinst)_ZN3pcl13FilterIndicesINS_12PointXYZRGBAEED1Ev@Base 1.6
 (optional=templinst)_ZN3pcl13FilterIndicesINS_12PointXYZRGBAEED2Ev@Base 1.6
 (optional=templinst)_ZN3pcl13FilterIndicesINS_12PointXYZRGBLEEC1Eb@Base 1.6
 (optional=templinst)_ZN3pcl13FilterIndicesINS_12PointXYZRGBLEEC2Eb@Base 1.6
 (optional=templinst)_ZN3pcl13FilterIndicesINS_12PointXYZRGBLEED0Ev@Base 1.6
 (optional=templinst)_ZN3pcl13FilterIndicesINS_12PointXYZRGBLEED1Ev@Base 1.6
 (optional=templinst)_ZN3pcl13FilterIndicesINS_12PointXYZRGBLEED2Ev@Base 1.6
 (optional=templinst)_ZN3pcl13FilterIndicesINS_13InterestPointEEC1Eb@Base 1.6
 (optional=templinst)_ZN3pcl13FilterIndicesINS_13InterestPointEEC2Eb@Base 1.6
 (optional=templinst)_ZN3pcl13FilterIndicesINS_13InterestPointEED0Ev@Base 1.6
 (optional=templinst)_ZN3pcl13FilterIndicesINS_13InterestPointEED1Ev@Base 1.6
 (optional=templinst)_ZN3pcl13FilterIndicesINS_13InterestPointEED2Ev@Base 1.6
 (optional=templinst)_ZN3pcl13FilterIndicesINS_14PointWithRangeEEC1Eb@Base 1.6
 (optional=templinst)_ZN3pcl13FilterIndicesINS_14PointWithRangeEEC2Eb@Base 1.6
 (optional=templinst)_ZN3pcl13FilterIndicesINS_14PointWithRangeEED0Ev@Base 1.6
 (optional=templinst)_ZN3pcl13FilterIndicesINS_14PointWithRangeEED1Ev@Base 1.6
 (optional=templinst)_ZN3pcl13FilterIndicesINS_14PointWithRangeEED2Ev@Base 1.6
 (optional=templinst)_ZN3pcl13FilterIndicesINS_14PointWithScaleEEC1Eb@Base 1.6
 (optional=templinst)_ZN3pcl13FilterIndicesINS_14PointWithScaleEEC2Eb@Base 1.6
 (optional=templinst)_ZN3pcl13FilterIndicesINS_14PointWithScaleEED0Ev@Base 1.6
 (optional=templinst)_ZN3pcl13FilterIndicesINS_14PointWithScaleEED1Ev@Base 1.6
 (optional=templinst)_ZN3pcl13FilterIndicesINS_14PointWithScaleEED2Ev@Base 1.6
 (optional=templinst)_ZN3pcl13FilterIndicesINS_14ReferenceFrameEEC1Eb@Base 1.6
 (optional=templinst)_ZN3pcl13FilterIndicesINS_14ReferenceFrameEEC2Eb@Base 1.6
 (optional=templinst)_ZN3pcl13FilterIndicesINS_14ReferenceFrameEED0Ev@Base 1.6
 (optional=templinst)_ZN3pcl13FilterIndicesINS_14ReferenceFrameEED1Ev@Base 1.6
 (optional=templinst)_ZN3pcl13FilterIndicesINS_14ReferenceFrameEED2Ev@Base 1.6
 (optional=templinst)_ZN3pcl13FilterIndicesINS_15ESFSignature640EEC1Eb@Base 1.6
 (optional=templinst)_ZN3pcl13FilterIndicesINS_15ESFSignature640EEC2Eb@Base 1.6
 (optional=templinst)_ZN3pcl13FilterIndicesINS_15ESFSignature640EED0Ev@Base 1.6
 (optional=templinst)_ZN3pcl13FilterIndicesINS_15ESFSignature640EED1Ev@Base 1.6
 (optional=templinst)_ZN3pcl13FilterIndicesINS_15ESFSignature640EED2Ev@Base 1.6
 (optional=templinst)_ZN3pcl13FilterIndicesINS_15FPFHSignature33EEC1Eb@Base 1.6
 (optional=templinst)_ZN3pcl13FilterIndicesINS_15FPFHSignature33EEC2Eb@Base 1.6
 (optional=templinst)_ZN3pcl13FilterIndicesINS_15FPFHSignature33EED0Ev@Base 1.6
 (optional=templinst)_ZN3pcl13FilterIndicesINS_15FPFHSignature33EED1Ev@Base 1.6
 (optional=templinst)_ZN3pcl13FilterIndicesINS_15FPFHSignature33EED2Ev@Base 1.6
 (optional=templinst)_ZN3pcl13FilterIndicesINS_15PFHSignature125EEC1Eb@Base 1.6
 (optional=templinst)_ZN3pcl13FilterIndicesINS_15PFHSignature125EEC2Eb@Base 1.6
 (optional=templinst)_ZN3pcl13FilterIndicesINS_15PFHSignature125EED0Ev@Base 1.6
 (optional=templinst)_ZN3pcl13FilterIndicesINS_15PFHSignature125EED1Ev@Base 1.6
 (optional=templinst)_ZN3pcl13FilterIndicesINS_15PFHSignature125EED2Ev@Base 1.6
 (optional=templinst)_ZN3pcl13FilterIndicesINS_15PPFRGBSignatureEEC1Eb@Base 1.6
 (optional=templinst)_ZN3pcl13FilterIndicesINS_15PPFRGBSignatureEEC2Eb@Base 1.6
 (optional=templinst)_ZN3pcl13FilterIndicesINS_15PPFRGBSignatureEED0Ev@Base 1.6
 (optional=templinst)_ZN3pcl13FilterIndicesINS_15PPFRGBSignatureEED1Ev@Base 1.6
 (optional=templinst)_ZN3pcl13FilterIndicesINS_15PPFRGBSignatureEED2Ev@Base 1.6
 (optional=templinst)_ZN3pcl13FilterIndicesINS_15PointXYZINormalEEC1Eb@Base 1.6
 (optional=templinst)_ZN3pcl13FilterIndicesINS_15PointXYZINormalEEC2Eb@Base 1.6
 (optional=templinst)_ZN3pcl13FilterIndicesINS_15PointXYZINormalEED0Ev@Base 1.6
 (optional=templinst)_ZN3pcl13FilterIndicesINS_15PointXYZINormalEED1Ev@Base 1.6
 (optional=templinst)_ZN3pcl13FilterIndicesINS_15PointXYZINormalEED2Ev@Base 1.6
 (optional=templinst)_ZN3pcl13FilterIndicesINS_15VFHSignature308EEC1Eb@Base 1.6
 (optional=templinst)_ZN3pcl13FilterIndicesINS_15VFHSignature308EEC2Eb@Base 1.6
 (optional=templinst)_ZN3pcl13FilterIndicesINS_15VFHSignature308EED0Ev@Base 1.6
 (optional=templinst)_ZN3pcl13FilterIndicesINS_15VFHSignature308EED1Ev@Base 1.6
 (optional=templinst)_ZN3pcl13FilterIndicesINS_15VFHSignature308EED2Ev@Base 1.6
 (optional=templinst)_ZN3pcl13FilterIndicesINS_16MomentInvariantsEEC1Eb@Base 1.6
 (optional=templinst)_ZN3pcl13FilterIndicesINS_16MomentInvariantsEEC2Eb@Base 1.6
 (optional=templinst)_ZN3pcl13FilterIndicesINS_16MomentInvariantsEED0Ev@Base 1.6
 (optional=templinst)_ZN3pcl13FilterIndicesINS_16MomentInvariantsEED1Ev@Base 1.6
 (optional=templinst)_ZN3pcl13FilterIndicesINS_16MomentInvariantsEED2Ev@Base 1.6
 (optional=templinst)_ZN3pcl13FilterIndicesINS_17IntensityGradientEEC1Eb@Base 1.6
 (optional=templinst)_ZN3pcl13FilterIndicesINS_17IntensityGradientEEC2Eb@Base 1.6
 (optional=templinst)_ZN3pcl13FilterIndicesINS_17IntensityGradientEED0Ev@Base 1.6
 (optional=templinst)_ZN3pcl13FilterIndicesINS_17IntensityGradientEED1Ev@Base 1.6
 (optional=templinst)_ZN3pcl13FilterIndicesINS_17IntensityGradientEED2Ev@Base 1.6
 (optional=templinst)_ZN3pcl13FilterIndicesINS_17PointXYZRGBNormalEEC1Eb@Base 1.6
 (optional=templinst)_ZN3pcl13FilterIndicesINS_17PointXYZRGBNormalEEC2Eb@Base 1.6
 (optional=templinst)_ZN3pcl13FilterIndicesINS_17PointXYZRGBNormalEED0Ev@Base 1.6
 (optional=templinst)_ZN3pcl13FilterIndicesINS_17PointXYZRGBNormalEED1Ev@Base 1.6
 (optional=templinst)_ZN3pcl13FilterIndicesINS_17PointXYZRGBNormalEED2Ev@Base 1.6
 (optional=templinst)_ZN3pcl13FilterIndicesINS_17PrincipalRadiiRSDEEC1Eb@Base 1.6
 (optional=templinst)_ZN3pcl13FilterIndicesINS_17PrincipalRadiiRSDEEC2Eb@Base 1.6
 (optional=templinst)_ZN3pcl13FilterIndicesINS_17PrincipalRadiiRSDEED0Ev@Base 1.6
 (optional=templinst)_ZN3pcl13FilterIndicesINS_17PrincipalRadiiRSDEED1Ev@Base 1.6
 (optional=templinst)_ZN3pcl13FilterIndicesINS_17PrincipalRadiiRSDEED2Ev@Base 1.6
 (optional=templinst)_ZN3pcl13FilterIndicesINS_18PFHRGBSignature250EEC1Eb@Base 1.6
 (optional=templinst)_ZN3pcl13FilterIndicesINS_18PFHRGBSignature250EEC2Eb@Base 1.6
 (optional=templinst)_ZN3pcl13FilterIndicesINS_18PFHRGBSignature250EED0Ev@Base 1.6
 (optional=templinst)_ZN3pcl13FilterIndicesINS_18PFHRGBSignature250EED1Ev@Base 1.6
 (optional=templinst)_ZN3pcl13FilterIndicesINS_18PFHRGBSignature250EED2Ev@Base 1.6
 (optional=templinst)_ZN3pcl13FilterIndicesINS_18PointWithViewpointEEC1Eb@Base 1.6
 (optional=templinst)_ZN3pcl13FilterIndicesINS_18PointWithViewpointEEC2Eb@Base 1.6
 (optional=templinst)_ZN3pcl13FilterIndicesINS_18PointWithViewpointEED0Ev@Base 1.6
 (optional=templinst)_ZN3pcl13FilterIndicesINS_18PointWithViewpointEED1Ev@Base 1.6
 (optional=templinst)_ZN3pcl13FilterIndicesINS_18PointWithViewpointEED2Ev@Base 1.6
 (optional=templinst)_ZN3pcl13FilterIndicesINS_19PrincipalCurvaturesEEC1Eb@Base 1.6
 (optional=templinst)_ZN3pcl13FilterIndicesINS_19PrincipalCurvaturesEEC2Eb@Base 1.6
 (optional=templinst)_ZN3pcl13FilterIndicesINS_19PrincipalCurvaturesEED0Ev@Base 1.6
 (optional=templinst)_ZN3pcl13FilterIndicesINS_19PrincipalCurvaturesEED1Ev@Base 1.6
 (optional=templinst)_ZN3pcl13FilterIndicesINS_19PrincipalCurvaturesEED2Ev@Base 1.6
 (optional=templinst)_ZN3pcl13FilterIndicesINS_22NormalBasedSignature12EEC1Eb@Base 1.6
 (optional=templinst)_ZN3pcl13FilterIndicesINS_22NormalBasedSignature12EEC2Eb@Base 1.6
 (optional=templinst)_ZN3pcl13FilterIndicesINS_22NormalBasedSignature12EED0Ev@Base 1.6
 (optional=templinst)_ZN3pcl13FilterIndicesINS_22NormalBasedSignature12EED1Ev@Base 1.6
 (optional=templinst)_ZN3pcl13FilterIndicesINS_22NormalBasedSignature12EED2Ev@Base 1.6
 (optional=templinst)_ZN3pcl13FilterIndicesINS_4AxisEEC1Eb@Base 1.6
 (optional=templinst)_ZN3pcl13FilterIndicesINS_4AxisEEC2Eb@Base 1.6
 (optional=templinst)_ZN3pcl13FilterIndicesINS_4AxisEED0Ev@Base 1.6
 (optional=templinst)_ZN3pcl13FilterIndicesINS_4AxisEED1Ev@Base 1.6
 (optional=templinst)_ZN3pcl13FilterIndicesINS_4AxisEED2Ev@Base 1.6
 (optional=templinst)_ZN3pcl13FilterIndicesINS_5LabelEEC1Eb@Base 1.6
 (optional=templinst)_ZN3pcl13FilterIndicesINS_5LabelEEC2Eb@Base 1.6
 (optional=templinst)_ZN3pcl13FilterIndicesINS_5LabelEED0Ev@Base 1.6
 (optional=templinst)_ZN3pcl13FilterIndicesINS_5LabelEED1Ev@Base 1.6
 (optional=templinst)_ZN3pcl13FilterIndicesINS_5LabelEED2Ev@Base 1.6
 (optional=templinst)_ZN3pcl13FilterIndicesINS_6Narf36EEC1Eb@Base 1.6
 (optional=templinst)_ZN3pcl13FilterIndicesINS_6Narf36EEC2Eb@Base 1.6
 (optional=templinst)_ZN3pcl13FilterIndicesINS_6Narf36EED0Ev@Base 1.6
 (optional=templinst)_ZN3pcl13FilterIndicesINS_6Narf36EED1Ev@Base 1.6
 (optional=templinst)_ZN3pcl13FilterIndicesINS_6Narf36EED2Ev@Base 1.6
 (optional=templinst)_ZN3pcl13FilterIndicesINS_6NormalEEC1Eb@Base 1.6
 (optional=templinst)_ZN3pcl13FilterIndicesINS_6NormalEEC2Eb@Base 1.6
 (optional=templinst)_ZN3pcl13FilterIndicesINS_6NormalEED0Ev@Base 1.6
 (optional=templinst)_ZN3pcl13FilterIndicesINS_6NormalEED1Ev@Base 1.6
 (optional=templinst)_ZN3pcl13FilterIndicesINS_6NormalEED2Ev@Base 1.6
 (optional=templinst)_ZN3pcl13FilterIndicesINS_7PointXYEEC1Eb@Base 1.6
 (optional=templinst)_ZN3pcl13FilterIndicesINS_7PointXYEEC2Eb@Base 1.6
 (optional=templinst)_ZN3pcl13FilterIndicesINS_7PointXYEED0Ev@Base 1.6
 (optional=templinst)_ZN3pcl13FilterIndicesINS_7PointXYEED1Ev@Base 1.6
 (optional=templinst)_ZN3pcl13FilterIndicesINS_7PointXYEED2Ev@Base 1.6
 (optional=templinst)_ZN3pcl13FilterIndicesINS_8BoundaryEEC1Eb@Base 1.6
 (optional=templinst)_ZN3pcl13FilterIndicesINS_8BoundaryEEC2Eb@Base 1.6
 (optional=templinst)_ZN3pcl13FilterIndicesINS_8BoundaryEED0Ev@Base 1.6
 (optional=templinst)_ZN3pcl13FilterIndicesINS_8BoundaryEED1Ev@Base 1.6
 (optional=templinst)_ZN3pcl13FilterIndicesINS_8BoundaryEED2Ev@Base 1.6
 (optional=templinst)_ZN3pcl13FilterIndicesINS_8PointXYZEEC1Eb@Base 1.6
 (optional=templinst)_ZN3pcl13FilterIndicesINS_8PointXYZEEC2Eb@Base 1.6
 (optional=templinst)_ZN3pcl13FilterIndicesINS_8PointXYZEED0Ev@Base 1.6
 (optional=templinst)_ZN3pcl13FilterIndicesINS_8PointXYZEED1Ev@Base 1.6
 (optional=templinst)_ZN3pcl13FilterIndicesINS_8PointXYZEED2Ev@Base 1.6
 (optional=templinst)_ZN3pcl13FilterIndicesINS_9PointXYZIEEC1Eb@Base 1.6
 (optional=templinst)_ZN3pcl13FilterIndicesINS_9PointXYZIEEC2Eb@Base 1.6
 (optional=templinst)_ZN3pcl13FilterIndicesINS_9PointXYZIEED0Ev@Base 1.6
 (optional=templinst)_ZN3pcl13FilterIndicesINS_9PointXYZIEED1Ev@Base 1.6
 (optional=templinst)_ZN3pcl13FilterIndicesINS_9PointXYZIEED2Ev@Base 1.6
 (optional=templinst)_ZN3pcl13FilterIndicesINS_9PointXYZLEEC1Eb@Base 1.6
 (optional=templinst)_ZN3pcl13FilterIndicesINS_9PointXYZLEEC2Eb@Base 1.6
 (optional=templinst)_ZN3pcl13FilterIndicesINS_9PointXYZLEED0Ev@Base 1.6
 (optional=templinst)_ZN3pcl13FilterIndicesINS_9PointXYZLEED1Ev@Base 1.6
 (optional=templinst)_ZN3pcl13FilterIndicesINS_9PointXYZLEED2Ev@Base 1.6
 (optional=templinst)_ZN3pcl13createMappingINS_8PointXYZEEEvRKSt6vectorIN11sensor_msgs10PointFieldESaIS4_EERS2_INS_6detail12FieldMappingESaISA_EE@Base 1.6
 _ZN3pcl13getFieldIndexERKN11sensor_msgs11PointCloud2ERKSs@Base 1.6
 (optional=templinst)_ZN3pcl14ComparisonBaseINS_11PointNormalEEC1Ev@Base 1.6
 (optional=templinst)_ZN3pcl14ComparisonBaseINS_11PointNormalEEC2Ev@Base 1.6
 (optional=templinst)_ZN3pcl14ComparisonBaseINS_11PointNormalEED0Ev@Base 1.6
 (optional=templinst)_ZN3pcl14ComparisonBaseINS_11PointNormalEED1Ev@Base 1.6
 (optional=templinst)_ZN3pcl14ComparisonBaseINS_11PointNormalEED2Ev@Base 1.6
 (optional=templinst)_ZN3pcl14ComparisonBaseINS_11PointXYZHSVEEC1Ev@Base 1.6
 (optional=templinst)_ZN3pcl14ComparisonBaseINS_11PointXYZHSVEEC2Ev@Base 1.6
 (optional=templinst)_ZN3pcl14ComparisonBaseINS_11PointXYZHSVEED0Ev@Base 1.6
 (optional=templinst)_ZN3pcl14ComparisonBaseINS_11PointXYZHSVEED1Ev@Base 1.6
 (optional=templinst)_ZN3pcl14ComparisonBaseINS_11PointXYZHSVEED2Ev@Base 1.6
 (optional=templinst)_ZN3pcl14ComparisonBaseINS_11PointXYZRGBEEC1Ev@Base 1.6
 (optional=templinst)_ZN3pcl14ComparisonBaseINS_11PointXYZRGBEEC2Ev@Base 1.6
 (optional=templinst)_ZN3pcl14ComparisonBaseINS_11PointXYZRGBEED0Ev@Base 1.6
 (optional=templinst)_ZN3pcl14ComparisonBaseINS_11PointXYZRGBEED1Ev@Base 1.6
 (optional=templinst)_ZN3pcl14ComparisonBaseINS_11PointXYZRGBEED2Ev@Base 1.6
 (optional=templinst)_ZN3pcl14ComparisonBaseINS_12PointXYZRGBAEEC1Ev@Base 1.6
 (optional=templinst)_ZN3pcl14ComparisonBaseINS_12PointXYZRGBAEEC2Ev@Base 1.6
 (optional=templinst)_ZN3pcl14ComparisonBaseINS_12PointXYZRGBAEED0Ev@Base 1.6
 (optional=templinst)_ZN3pcl14ComparisonBaseINS_12PointXYZRGBAEED1Ev@Base 1.6
 (optional=templinst)_ZN3pcl14ComparisonBaseINS_12PointXYZRGBAEED2Ev@Base 1.6
 (optional=templinst)_ZN3pcl14ComparisonBaseINS_12PointXYZRGBLEEC1Ev@Base 1.6
 (optional=templinst)_ZN3pcl14ComparisonBaseINS_12PointXYZRGBLEEC2Ev@Base 1.6
 (optional=templinst)_ZN3pcl14ComparisonBaseINS_12PointXYZRGBLEED0Ev@Base 1.6
 (optional=templinst)_ZN3pcl14ComparisonBaseINS_12PointXYZRGBLEED1Ev@Base 1.6
 (optional=templinst)_ZN3pcl14ComparisonBaseINS_12PointXYZRGBLEED2Ev@Base 1.6
 (optional=templinst)_ZN3pcl14ComparisonBaseINS_13InterestPointEEC1Ev@Base 1.6
 (optional=templinst)_ZN3pcl14ComparisonBaseINS_13InterestPointEEC2Ev@Base 1.6
 (optional=templinst)_ZN3pcl14ComparisonBaseINS_13InterestPointEED0Ev@Base 1.6
 (optional=templinst)_ZN3pcl14ComparisonBaseINS_13InterestPointEED1Ev@Base 1.6
 (optional=templinst)_ZN3pcl14ComparisonBaseINS_13InterestPointEED2Ev@Base 1.6
 (optional=templinst)_ZN3pcl14ComparisonBaseINS_14PointWithRangeEEC1Ev@Base 1.6
 (optional=templinst)_ZN3pcl14ComparisonBaseINS_14PointWithRangeEEC2Ev@Base 1.6
 (optional=templinst)_ZN3pcl14ComparisonBaseINS_14PointWithRangeEED0Ev@Base 1.6
 (optional=templinst)_ZN3pcl14ComparisonBaseINS_14PointWithRangeEED1Ev@Base 1.6
 (optional=templinst)_ZN3pcl14ComparisonBaseINS_14PointWithRangeEED2Ev@Base 1.6
 (optional=templinst)_ZN3pcl14ComparisonBaseINS_14PointWithScaleEEC1Ev@Base 1.6
 (optional=templinst)_ZN3pcl14ComparisonBaseINS_14PointWithScaleEEC2Ev@Base 1.6
 (optional=templinst)_ZN3pcl14ComparisonBaseINS_14PointWithScaleEED0Ev@Base 1.6
 (optional=templinst)_ZN3pcl14ComparisonBaseINS_14PointWithScaleEED1Ev@Base 1.6
 (optional=templinst)_ZN3pcl14ComparisonBaseINS_14PointWithScaleEED2Ev@Base 1.6
 (optional=templinst)_ZN3pcl14ComparisonBaseINS_15PointXYZINormalEEC1Ev@Base 1.6
 (optional=templinst)_ZN3pcl14ComparisonBaseINS_15PointXYZINormalEEC2Ev@Base 1.6
 (optional=templinst)_ZN3pcl14ComparisonBaseINS_15PointXYZINormalEED0Ev@Base 1.6
 (optional=templinst)_ZN3pcl14ComparisonBaseINS_15PointXYZINormalEED1Ev@Base 1.6
 (optional=templinst)_ZN3pcl14ComparisonBaseINS_15PointXYZINormalEED2Ev@Base 1.6
 (optional=templinst)_ZN3pcl14ComparisonBaseINS_17PointXYZRGBNormalEEC1Ev@Base 1.6
 (optional=templinst)_ZN3pcl14ComparisonBaseINS_17PointXYZRGBNormalEEC2Ev@Base 1.6
 (optional=templinst)_ZN3pcl14ComparisonBaseINS_17PointXYZRGBNormalEED0Ev@Base 1.6
 (optional=templinst)_ZN3pcl14ComparisonBaseINS_17PointXYZRGBNormalEED1Ev@Base 1.6
 (optional=templinst)_ZN3pcl14ComparisonBaseINS_17PointXYZRGBNormalEED2Ev@Base 1.6
 (optional=templinst)_ZN3pcl14ComparisonBaseINS_18PointWithViewpointEEC1Ev@Base 1.6
 (optional=templinst)_ZN3pcl14ComparisonBaseINS_18PointWithViewpointEEC2Ev@Base 1.6
 (optional=templinst)_ZN3pcl14ComparisonBaseINS_18PointWithViewpointEED0Ev@Base 1.6
 (optional=templinst)_ZN3pcl14ComparisonBaseINS_18PointWithViewpointEED1Ev@Base 1.6
 (optional=templinst)_ZN3pcl14ComparisonBaseINS_18PointWithViewpointEED2Ev@Base 1.6
 (optional=templinst)_ZN3pcl14ComparisonBaseINS_8PointXYZEEC1Ev@Base 1.6
 (optional=templinst)_ZN3pcl14ComparisonBaseINS_8PointXYZEEC2Ev@Base 1.6
 (optional=templinst)_ZN3pcl14ComparisonBaseINS_8PointXYZEED0Ev@Base 1.6
 (optional=templinst)_ZN3pcl14ComparisonBaseINS_8PointXYZEED1Ev@Base 1.6
 (optional=templinst)_ZN3pcl14ComparisonBaseINS_8PointXYZEED2Ev@Base 1.6
 (optional=templinst)_ZN3pcl14ComparisonBaseINS_9PointXYZIEEC1Ev@Base 1.6
 (optional=templinst)_ZN3pcl14ComparisonBaseINS_9PointXYZIEEC2Ev@Base 1.6
 (optional=templinst)_ZN3pcl14ComparisonBaseINS_9PointXYZIEED0Ev@Base 1.6
 (optional=templinst)_ZN3pcl14ComparisonBaseINS_9PointXYZIEED1Ev@Base 1.6
 (optional=templinst)_ZN3pcl14ComparisonBaseINS_9PointXYZIEED2Ev@Base 1.6
 (optional=templinst)_ZN3pcl14ComparisonBaseINS_9PointXYZLEEC1Ev@Base 1.6
 (optional=templinst)_ZN3pcl14ComparisonBaseINS_9PointXYZLEEC2Ev@Base 1.6
 (optional=templinst)_ZN3pcl14ComparisonBaseINS_9PointXYZLEED0Ev@Base 1.6
 (optional=templinst)_ZN3pcl14ComparisonBaseINS_9PointXYZLEED1Ev@Base 1.6
 (optional=templinst)_ZN3pcl14ComparisonBaseINS_9PointXYZLEED2Ev@Base 1.6
 (optional=templinst)_ZN3pcl14ExtractIndicesIN11sensor_msgs11PointCloud2EE11applyFilterERS2_@Base 1.6
 (optional=templinst)_ZN3pcl14ExtractIndicesIN11sensor_msgs11PointCloud2EE11applyFilterERSt6vectorIiSaIiEE@Base 1.6
 (optional=templinst)_ZN3pcl14ExtractIndicesIN11sensor_msgs11PointCloud2EED0Ev@Base 1.6
 (optional=templinst)_ZN3pcl14ExtractIndicesIN11sensor_msgs11PointCloud2EED1Ev@Base 1.6
 (optional=templinst)_ZN3pcl14ExtractIndicesIN11sensor_msgs11PointCloud2EED2Ev@Base 1.6
 (optional=templinst)_ZN3pcl14ExtractIndicesINS_11PointNormalEE11applyFilterERNS_10PointCloudIS1_EE@Base 1.6
 (optional=templinst)_ZN3pcl14ExtractIndicesINS_11PointNormalEE11applyFilterERSt6vectorIiSaIiEE@Base 1.6
 (optional=templinst)_ZN3pcl14ExtractIndicesINS_11PointNormalEE14filterDirectlyERN5boost10shared_ptrINS_10PointCloudIS1_EEEE@Base 1.6
 (optional=templinst)_ZN3pcl14ExtractIndicesINS_11PointNormalEE18applyFilterIndicesERSt6vectorIiSaIiEE@Base 1.6
 (optional=templinst)_ZN3pcl14ExtractIndicesINS_11PointNormalEEC1Eb@Base 1.6
 (optional=templinst)_ZN3pcl14ExtractIndicesINS_11PointNormalEEC2Eb@Base 1.6
 (optional=templinst)_ZN3pcl14ExtractIndicesINS_11PointNormalEED0Ev@Base 1.6
 (optional=templinst)_ZN3pcl14ExtractIndicesINS_11PointNormalEED1Ev@Base 1.6
 (optional=templinst)_ZN3pcl14ExtractIndicesINS_11PointNormalEED2Ev@Base 1.6
 (optional=templinst)_ZN3pcl14ExtractIndicesINS_11PointXYZHSVEE11applyFilterERNS_10PointCloudIS1_EE@Base 1.6
 (optional=templinst)_ZN3pcl14ExtractIndicesINS_11PointXYZHSVEE11applyFilterERSt6vectorIiSaIiEE@Base 1.6
 (optional=templinst)_ZN3pcl14ExtractIndicesINS_11PointXYZHSVEE14filterDirectlyERN5boost10shared_ptrINS_10PointCloudIS1_EEEE@Base 1.6
 (optional=templinst)_ZN3pcl14ExtractIndicesINS_11PointXYZHSVEE18applyFilterIndicesERSt6vectorIiSaIiEE@Base 1.6
 (optional=templinst)_ZN3pcl14ExtractIndicesINS_11PointXYZHSVEEC1Eb@Base 1.6
 (optional=templinst)_ZN3pcl14ExtractIndicesINS_11PointXYZHSVEEC2Eb@Base 1.6
 (optional=templinst)_ZN3pcl14ExtractIndicesINS_11PointXYZHSVEED0Ev@Base 1.6
 (optional=templinst)_ZN3pcl14ExtractIndicesINS_11PointXYZHSVEED1Ev@Base 1.6
 (optional=templinst)_ZN3pcl14ExtractIndicesINS_11PointXYZHSVEED2Ev@Base 1.6
 (optional=templinst)_ZN3pcl14ExtractIndicesINS_11PointXYZRGBEE11applyFilterERNS_10PointCloudIS1_EE@Base 1.6
 (optional=templinst)_ZN3pcl14ExtractIndicesINS_11PointXYZRGBEE11applyFilterERSt6vectorIiSaIiEE@Base 1.6
 (optional=templinst)_ZN3pcl14ExtractIndicesINS_11PointXYZRGBEE14filterDirectlyERN5boost10shared_ptrINS_10PointCloudIS1_EEEE@Base 1.6
 (optional=templinst)_ZN3pcl14ExtractIndicesINS_11PointXYZRGBEE18applyFilterIndicesERSt6vectorIiSaIiEE@Base 1.6
 (optional=templinst)_ZN3pcl14ExtractIndicesINS_11PointXYZRGBEEC1Eb@Base 1.6
 (optional=templinst)_ZN3pcl14ExtractIndicesINS_11PointXYZRGBEEC2Eb@Base 1.6
 (optional=templinst)_ZN3pcl14ExtractIndicesINS_11PointXYZRGBEED0Ev@Base 1.6
 (optional=templinst)_ZN3pcl14ExtractIndicesINS_11PointXYZRGBEED1Ev@Base 1.6
 (optional=templinst)_ZN3pcl14ExtractIndicesINS_11PointXYZRGBEED2Ev@Base 1.6
 (optional=templinst)_ZN3pcl14ExtractIndicesINS_12PPFSignatureEE11applyFilterERNS_10PointCloudIS1_EE@Base 1.6
 (optional=templinst)_ZN3pcl14ExtractIndicesINS_12PPFSignatureEE11applyFilterERSt6vectorIiSaIiEE@Base 1.6
 (optional=templinst)_ZN3pcl14ExtractIndicesINS_12PPFSignatureEE14filterDirectlyERN5boost10shared_ptrINS_10PointCloudIS1_EEEE@Base 1.6
 (optional=templinst)_ZN3pcl14ExtractIndicesINS_12PPFSignatureEE18applyFilterIndicesERSt6vectorIiSaIiEE@Base 1.6
 (optional=templinst)_ZN3pcl14ExtractIndicesINS_12PPFSignatureEEC1Eb@Base 1.6
 (optional=templinst)_ZN3pcl14ExtractIndicesINS_12PPFSignatureEEC2Eb@Base 1.6
 (optional=templinst)_ZN3pcl14ExtractIndicesINS_12PPFSignatureEED0Ev@Base 1.6
 (optional=templinst)_ZN3pcl14ExtractIndicesINS_12PPFSignatureEED1Ev@Base 1.6
 (optional=templinst)_ZN3pcl14ExtractIndicesINS_12PPFSignatureEED2Ev@Base 1.6
 (optional=templinst)_ZN3pcl14ExtractIndicesINS_12PointXYZRGBAEE11applyFilterERNS_10PointCloudIS1_EE@Base 1.6
 (optional=templinst)_ZN3pcl14ExtractIndicesINS_12PointXYZRGBAEE11applyFilterERSt6vectorIiSaIiEE@Base 1.6
 (optional=templinst)_ZN3pcl14ExtractIndicesINS_12PointXYZRGBAEE14filterDirectlyERN5boost10shared_ptrINS_10PointCloudIS1_EEEE@Base 1.6
 (optional=templinst)_ZN3pcl14ExtractIndicesINS_12PointXYZRGBAEE18applyFilterIndicesERSt6vectorIiSaIiEE@Base 1.6
 (optional=templinst)_ZN3pcl14ExtractIndicesINS_12PointXYZRGBAEEC1Eb@Base 1.6
 (optional=templinst)_ZN3pcl14ExtractIndicesINS_12PointXYZRGBAEEC2Eb@Base 1.6
 (optional=templinst)_ZN3pcl14ExtractIndicesINS_12PointXYZRGBAEED0Ev@Base 1.6
 (optional=templinst)_ZN3pcl14ExtractIndicesINS_12PointXYZRGBAEED1Ev@Base 1.6
 (optional=templinst)_ZN3pcl14ExtractIndicesINS_12PointXYZRGBAEED2Ev@Base 1.6
 (optional=templinst)_ZN3pcl14ExtractIndicesINS_12PointXYZRGBLEE11applyFilterERNS_10PointCloudIS1_EE@Base 1.6
 (optional=templinst)_ZN3pcl14ExtractIndicesINS_12PointXYZRGBLEE11applyFilterERSt6vectorIiSaIiEE@Base 1.6
 (optional=templinst)_ZN3pcl14ExtractIndicesINS_12PointXYZRGBLEE14filterDirectlyERN5boost10shared_ptrINS_10PointCloudIS1_EEEE@Base 1.6
 (optional=templinst)_ZN3pcl14ExtractIndicesINS_12PointXYZRGBLEE18applyFilterIndicesERSt6vectorIiSaIiEE@Base 1.6
 (optional=templinst)_ZN3pcl14ExtractIndicesINS_12PointXYZRGBLEEC1Eb@Base 1.6
 (optional=templinst)_ZN3pcl14ExtractIndicesINS_12PointXYZRGBLEEC2Eb@Base 1.6
 (optional=templinst)_ZN3pcl14ExtractIndicesINS_12PointXYZRGBLEED0Ev@Base 1.6
 (optional=templinst)_ZN3pcl14ExtractIndicesINS_12PointXYZRGBLEED1Ev@Base 1.6
 (optional=templinst)_ZN3pcl14ExtractIndicesINS_12PointXYZRGBLEED2Ev@Base 1.6
 (optional=templinst)_ZN3pcl14ExtractIndicesINS_13InterestPointEE11applyFilterERNS_10PointCloudIS1_EE@Base 1.6
 (optional=templinst)_ZN3pcl14ExtractIndicesINS_13InterestPointEE11applyFilterERSt6vectorIiSaIiEE@Base 1.6
 (optional=templinst)_ZN3pcl14ExtractIndicesINS_13InterestPointEE14filterDirectlyERN5boost10shared_ptrINS_10PointCloudIS1_EEEE@Base 1.6
 (optional=templinst)_ZN3pcl14ExtractIndicesINS_13InterestPointEE18applyFilterIndicesERSt6vectorIiSaIiEE@Base 1.6
 (optional=templinst)_ZN3pcl14ExtractIndicesINS_13InterestPointEEC1Eb@Base 1.6
 (optional=templinst)_ZN3pcl14ExtractIndicesINS_13InterestPointEEC2Eb@Base 1.6
 (optional=templinst)_ZN3pcl14ExtractIndicesINS_13InterestPointEED0Ev@Base 1.6
 (optional=templinst)_ZN3pcl14ExtractIndicesINS_13InterestPointEED1Ev@Base 1.6
 (optional=templinst)_ZN3pcl14ExtractIndicesINS_13InterestPointEED2Ev@Base 1.6
 (optional=templinst)_ZN3pcl14ExtractIndicesINS_14PointWithRangeEE11applyFilterERNS_10PointCloudIS1_EE@Base 1.6
 (optional=templinst)_ZN3pcl14ExtractIndicesINS_14PointWithRangeEE11applyFilterERSt6vectorIiSaIiEE@Base 1.6
 (optional=templinst)_ZN3pcl14ExtractIndicesINS_14PointWithRangeEE14filterDirectlyERN5boost10shared_ptrINS_10PointCloudIS1_EEEE@Base 1.6
 (optional=templinst)_ZN3pcl14ExtractIndicesINS_14PointWithRangeEE18applyFilterIndicesERSt6vectorIiSaIiEE@Base 1.6
 (optional=templinst)_ZN3pcl14ExtractIndicesINS_14PointWithRangeEEC1Eb@Base 1.6
 (optional=templinst)_ZN3pcl14ExtractIndicesINS_14PointWithRangeEEC2Eb@Base 1.6
 (optional=templinst)_ZN3pcl14ExtractIndicesINS_14PointWithRangeEED0Ev@Base 1.6
 (optional=templinst)_ZN3pcl14ExtractIndicesINS_14PointWithRangeEED1Ev@Base 1.6
 (optional=templinst)_ZN3pcl14ExtractIndicesINS_14PointWithRangeEED2Ev@Base 1.6
 (optional=templinst)_ZN3pcl14ExtractIndicesINS_14PointWithScaleEE11applyFilterERNS_10PointCloudIS1_EE@Base 1.6
 (optional=templinst)_ZN3pcl14ExtractIndicesINS_14PointWithScaleEE11applyFilterERSt6vectorIiSaIiEE@Base 1.6
 (optional=templinst)_ZN3pcl14ExtractIndicesINS_14PointWithScaleEE14filterDirectlyERN5boost10shared_ptrINS_10PointCloudIS1_EEEE@Base 1.6
 (optional=templinst)_ZN3pcl14ExtractIndicesINS_14PointWithScaleEE18applyFilterIndicesERSt6vectorIiSaIiEE@Base 1.6
 (optional=templinst)_ZN3pcl14ExtractIndicesINS_14PointWithScaleEEC1Eb@Base 1.6
 (optional=templinst)_ZN3pcl14ExtractIndicesINS_14PointWithScaleEEC2Eb@Base 1.6
 (optional=templinst)_ZN3pcl14ExtractIndicesINS_14PointWithScaleEED0Ev@Base 1.6
 (optional=templinst)_ZN3pcl14ExtractIndicesINS_14PointWithScaleEED1Ev@Base 1.6
 (optional=templinst)_ZN3pcl14ExtractIndicesINS_14PointWithScaleEED2Ev@Base 1.6
 (optional=templinst)_ZN3pcl14ExtractIndicesINS_14ReferenceFrameEE11applyFilterERNS_10PointCloudIS1_EE@Base 1.6
 (optional=templinst)_ZN3pcl14ExtractIndicesINS_14ReferenceFrameEE11applyFilterERSt6vectorIiSaIiEE@Base 1.6
 (optional=templinst)_ZN3pcl14ExtractIndicesINS_14ReferenceFrameEE14filterDirectlyERN5boost10shared_ptrINS_10PointCloudIS1_EEEE@Base 1.6
 (optional=templinst)_ZN3pcl14ExtractIndicesINS_14ReferenceFrameEE18applyFilterIndicesERSt6vectorIiSaIiEE@Base 1.6
 (optional=templinst)_ZN3pcl14ExtractIndicesINS_14ReferenceFrameEEC1Eb@Base 1.6
 (optional=templinst)_ZN3pcl14ExtractIndicesINS_14ReferenceFrameEEC2Eb@Base 1.6
 (optional=templinst)_ZN3pcl14ExtractIndicesINS_14ReferenceFrameEED0Ev@Base 1.6
 (optional=templinst)_ZN3pcl14ExtractIndicesINS_14ReferenceFrameEED1Ev@Base 1.6
 (optional=templinst)_ZN3pcl14ExtractIndicesINS_14ReferenceFrameEED2Ev@Base 1.6
 (optional=templinst)_ZN3pcl14ExtractIndicesINS_15ESFSignature640EE11applyFilterERNS_10PointCloudIS1_EE@Base 1.6
 (optional=templinst)_ZN3pcl14ExtractIndicesINS_15ESFSignature640EE11applyFilterERSt6vectorIiSaIiEE@Base 1.6
 (optional=templinst)_ZN3pcl14ExtractIndicesINS_15ESFSignature640EE14filterDirectlyERN5boost10shared_ptrINS_10PointCloudIS1_EEEE@Base 1.6
 (optional=templinst)_ZN3pcl14ExtractIndicesINS_15ESFSignature640EE18applyFilterIndicesERSt6vectorIiSaIiEE@Base 1.6
 (optional=templinst)_ZN3pcl14ExtractIndicesINS_15ESFSignature640EEC1Eb@Base 1.6
 (optional=templinst)_ZN3pcl14ExtractIndicesINS_15ESFSignature640EEC2Eb@Base 1.6
 (optional=templinst)_ZN3pcl14ExtractIndicesINS_15ESFSignature640EED0Ev@Base 1.6
 (optional=templinst)_ZN3pcl14ExtractIndicesINS_15ESFSignature640EED1Ev@Base 1.6
 (optional=templinst)_ZN3pcl14ExtractIndicesINS_15ESFSignature640EED2Ev@Base 1.6
 (optional=templinst)_ZN3pcl14ExtractIndicesINS_15FPFHSignature33EE11applyFilterERNS_10PointCloudIS1_EE@Base 1.6
 (optional=templinst)_ZN3pcl14ExtractIndicesINS_15FPFHSignature33EE11applyFilterERSt6vectorIiSaIiEE@Base 1.6
 (optional=templinst)_ZN3pcl14ExtractIndicesINS_15FPFHSignature33EE14filterDirectlyERN5boost10shared_ptrINS_10PointCloudIS1_EEEE@Base 1.6
 (optional=templinst)_ZN3pcl14ExtractIndicesINS_15FPFHSignature33EE18applyFilterIndicesERSt6vectorIiSaIiEE@Base 1.6
 (optional=templinst)_ZN3pcl14ExtractIndicesINS_15FPFHSignature33EEC1Eb@Base 1.6
 (optional=templinst)_ZN3pcl14ExtractIndicesINS_15FPFHSignature33EEC2Eb@Base 1.6
 (optional=templinst)_ZN3pcl14ExtractIndicesINS_15FPFHSignature33EED0Ev@Base 1.6
 (optional=templinst)_ZN3pcl14ExtractIndicesINS_15FPFHSignature33EED1Ev@Base 1.6
 (optional=templinst)_ZN3pcl14ExtractIndicesINS_15FPFHSignature33EED2Ev@Base 1.6
 (optional=templinst)_ZN3pcl14ExtractIndicesINS_15PFHSignature125EE11applyFilterERNS_10PointCloudIS1_EE@Base 1.6
 (optional=templinst)_ZN3pcl14ExtractIndicesINS_15PFHSignature125EE11applyFilterERSt6vectorIiSaIiEE@Base 1.6
 (optional=templinst)_ZN3pcl14ExtractIndicesINS_15PFHSignature125EE14filterDirectlyERN5boost10shared_ptrINS_10PointCloudIS1_EEEE@Base 1.6
 (optional=templinst)_ZN3pcl14ExtractIndicesINS_15PFHSignature125EE18applyFilterIndicesERSt6vectorIiSaIiEE@Base 1.6
 (optional=templinst)_ZN3pcl14ExtractIndicesINS_15PFHSignature125EEC1Eb@Base 1.6
 (optional=templinst)_ZN3pcl14ExtractIndicesINS_15PFHSignature125EEC2Eb@Base 1.6
 (optional=templinst)_ZN3pcl14ExtractIndicesINS_15PFHSignature125EED0Ev@Base 1.6
 (optional=templinst)_ZN3pcl14ExtractIndicesINS_15PFHSignature125EED1Ev@Base 1.6
 (optional=templinst)_ZN3pcl14ExtractIndicesINS_15PFHSignature125EED2Ev@Base 1.6
 (optional=templinst)_ZN3pcl14ExtractIndicesINS_15PPFRGBSignatureEE11applyFilterERNS_10PointCloudIS1_EE@Base 1.6
 (optional=templinst)_ZN3pcl14ExtractIndicesINS_15PPFRGBSignatureEE11applyFilterERSt6vectorIiSaIiEE@Base 1.6
 (optional=templinst)_ZN3pcl14ExtractIndicesINS_15PPFRGBSignatureEE14filterDirectlyERN5boost10shared_ptrINS_10PointCloudIS1_EEEE@Base 1.6
 (optional=templinst)_ZN3pcl14ExtractIndicesINS_15PPFRGBSignatureEE18applyFilterIndicesERSt6vectorIiSaIiEE@Base 1.6
 (optional=templinst)_ZN3pcl14ExtractIndicesINS_15PPFRGBSignatureEEC1Eb@Base 1.6
 (optional=templinst)_ZN3pcl14ExtractIndicesINS_15PPFRGBSignatureEEC2Eb@Base 1.6
 (optional=templinst)_ZN3pcl14ExtractIndicesINS_15PPFRGBSignatureEED0Ev@Base 1.6
 (optional=templinst)_ZN3pcl14ExtractIndicesINS_15PPFRGBSignatureEED1Ev@Base 1.6
 (optional=templinst)_ZN3pcl14ExtractIndicesINS_15PPFRGBSignatureEED2Ev@Base 1.6
 (optional=templinst)_ZN3pcl14ExtractIndicesINS_15PointXYZINormalEE11applyFilterERNS_10PointCloudIS1_EE@Base 1.6
 (optional=templinst)_ZN3pcl14ExtractIndicesINS_15PointXYZINormalEE11applyFilterERSt6vectorIiSaIiEE@Base 1.6
 (optional=templinst)_ZN3pcl14ExtractIndicesINS_15PointXYZINormalEE14filterDirectlyERN5boost10shared_ptrINS_10PointCloudIS1_EEEE@Base 1.6
 (optional=templinst)_ZN3pcl14ExtractIndicesINS_15PointXYZINormalEE18applyFilterIndicesERSt6vectorIiSaIiEE@Base 1.6
 (optional=templinst)_ZN3pcl14ExtractIndicesINS_15PointXYZINormalEEC1Eb@Base 1.6
 (optional=templinst)_ZN3pcl14ExtractIndicesINS_15PointXYZINormalEEC2Eb@Base 1.6
 (optional=templinst)_ZN3pcl14ExtractIndicesINS_15PointXYZINormalEED0Ev@Base 1.6
 (optional=templinst)_ZN3pcl14ExtractIndicesINS_15PointXYZINormalEED1Ev@Base 1.6
 (optional=templinst)_ZN3pcl14ExtractIndicesINS_15PointXYZINormalEED2Ev@Base 1.6
 (optional=templinst)_ZN3pcl14ExtractIndicesINS_15VFHSignature308EE11applyFilterERNS_10PointCloudIS1_EE@Base 1.6
 (optional=templinst)_ZN3pcl14ExtractIndicesINS_15VFHSignature308EE11applyFilterERSt6vectorIiSaIiEE@Base 1.6
 (optional=templinst)_ZN3pcl14ExtractIndicesINS_15VFHSignature308EE14filterDirectlyERN5boost10shared_ptrINS_10PointCloudIS1_EEEE@Base 1.6
 (optional=templinst)_ZN3pcl14ExtractIndicesINS_15VFHSignature308EE18applyFilterIndicesERSt6vectorIiSaIiEE@Base 1.6
 (optional=templinst)_ZN3pcl14ExtractIndicesINS_15VFHSignature308EEC1Eb@Base 1.6
 (optional=templinst)_ZN3pcl14ExtractIndicesINS_15VFHSignature308EEC2Eb@Base 1.6
 (optional=templinst)_ZN3pcl14ExtractIndicesINS_15VFHSignature308EED0Ev@Base 1.6
 (optional=templinst)_ZN3pcl14ExtractIndicesINS_15VFHSignature308EED1Ev@Base 1.6
 (optional=templinst)_ZN3pcl14ExtractIndicesINS_15VFHSignature308EED2Ev@Base 1.6
 (optional=templinst)_ZN3pcl14ExtractIndicesINS_16MomentInvariantsEE11applyFilterERNS_10PointCloudIS1_EE@Base 1.6
 (optional=templinst)_ZN3pcl14ExtractIndicesINS_16MomentInvariantsEE11applyFilterERSt6vectorIiSaIiEE@Base 1.6
 (optional=templinst)_ZN3pcl14ExtractIndicesINS_16MomentInvariantsEE14filterDirectlyERN5boost10shared_ptrINS_10PointCloudIS1_EEEE@Base 1.6
 (optional=templinst)_ZN3pcl14ExtractIndicesINS_16MomentInvariantsEE18applyFilterIndicesERSt6vectorIiSaIiEE@Base 1.6
 (optional=templinst)_ZN3pcl14ExtractIndicesINS_16MomentInvariantsEEC1Eb@Base 1.6
 (optional=templinst)_ZN3pcl14ExtractIndicesINS_16MomentInvariantsEEC2Eb@Base 1.6
 (optional=templinst)_ZN3pcl14ExtractIndicesINS_16MomentInvariantsEED0Ev@Base 1.6
 (optional=templinst)_ZN3pcl14ExtractIndicesINS_16MomentInvariantsEED1Ev@Base 1.6
 (optional=templinst)_ZN3pcl14ExtractIndicesINS_16MomentInvariantsEED2Ev@Base 1.6
 (optional=templinst)_ZN3pcl14ExtractIndicesINS_17IntensityGradientEE11applyFilterERNS_10PointCloudIS1_EE@Base 1.6
 (optional=templinst)_ZN3pcl14ExtractIndicesINS_17IntensityGradientEE11applyFilterERSt6vectorIiSaIiEE@Base 1.6
 (optional=templinst)_ZN3pcl14ExtractIndicesINS_17IntensityGradientEE14filterDirectlyERN5boost10shared_ptrINS_10PointCloudIS1_EEEE@Base 1.6
 (optional=templinst)_ZN3pcl14ExtractIndicesINS_17IntensityGradientEE18applyFilterIndicesERSt6vectorIiSaIiEE@Base 1.6
 (optional=templinst)_ZN3pcl14ExtractIndicesINS_17IntensityGradientEEC1Eb@Base 1.6
 (optional=templinst)_ZN3pcl14ExtractIndicesINS_17IntensityGradientEEC2Eb@Base 1.6
 (optional=templinst)_ZN3pcl14ExtractIndicesINS_17IntensityGradientEED0Ev@Base 1.6
 (optional=templinst)_ZN3pcl14ExtractIndicesINS_17IntensityGradientEED1Ev@Base 1.6
 (optional=templinst)_ZN3pcl14ExtractIndicesINS_17IntensityGradientEED2Ev@Base 1.6
 (optional=templinst)_ZN3pcl14ExtractIndicesINS_17PointXYZRGBNormalEE11applyFilterERNS_10PointCloudIS1_EE@Base 1.6
 (optional=templinst)_ZN3pcl14ExtractIndicesINS_17PointXYZRGBNormalEE11applyFilterERSt6vectorIiSaIiEE@Base 1.6
 (optional=templinst)_ZN3pcl14ExtractIndicesINS_17PointXYZRGBNormalEE14filterDirectlyERN5boost10shared_ptrINS_10PointCloudIS1_EEEE@Base 1.6
 (optional=templinst)_ZN3pcl14ExtractIndicesINS_17PointXYZRGBNormalEE18applyFilterIndicesERSt6vectorIiSaIiEE@Base 1.6
 (optional=templinst)_ZN3pcl14ExtractIndicesINS_17PointXYZRGBNormalEEC1Eb@Base 1.6
 (optional=templinst)_ZN3pcl14ExtractIndicesINS_17PointXYZRGBNormalEEC2Eb@Base 1.6
 (optional=templinst)_ZN3pcl14ExtractIndicesINS_17PointXYZRGBNormalEED0Ev@Base 1.6
 (optional=templinst)_ZN3pcl14ExtractIndicesINS_17PointXYZRGBNormalEED1Ev@Base 1.6
 (optional=templinst)_ZN3pcl14ExtractIndicesINS_17PointXYZRGBNormalEED2Ev@Base 1.6
 (optional=templinst)_ZN3pcl14ExtractIndicesINS_17PrincipalRadiiRSDEE11applyFilterERNS_10PointCloudIS1_EE@Base 1.6
 (optional=templinst)_ZN3pcl14ExtractIndicesINS_17PrincipalRadiiRSDEE11applyFilterERSt6vectorIiSaIiEE@Base 1.6
 (optional=templinst)_ZN3pcl14ExtractIndicesINS_17PrincipalRadiiRSDEE14filterDirectlyERN5boost10shared_ptrINS_10PointCloudIS1_EEEE@Base 1.6
 (optional=templinst)_ZN3pcl14ExtractIndicesINS_17PrincipalRadiiRSDEE18applyFilterIndicesERSt6vectorIiSaIiEE@Base 1.6
 (optional=templinst)_ZN3pcl14ExtractIndicesINS_17PrincipalRadiiRSDEEC1Eb@Base 1.6
 (optional=templinst)_ZN3pcl14ExtractIndicesINS_17PrincipalRadiiRSDEEC2Eb@Base 1.6
 (optional=templinst)_ZN3pcl14ExtractIndicesINS_17PrincipalRadiiRSDEED0Ev@Base 1.6
 (optional=templinst)_ZN3pcl14ExtractIndicesINS_17PrincipalRadiiRSDEED1Ev@Base 1.6
 (optional=templinst)_ZN3pcl14ExtractIndicesINS_17PrincipalRadiiRSDEED2Ev@Base 1.6
 (optional=templinst)_ZN3pcl14ExtractIndicesINS_18PFHRGBSignature250EE11applyFilterERNS_10PointCloudIS1_EE@Base 1.6
 (optional=templinst)_ZN3pcl14ExtractIndicesINS_18PFHRGBSignature250EE11applyFilterERSt6vectorIiSaIiEE@Base 1.6
 (optional=templinst)_ZN3pcl14ExtractIndicesINS_18PFHRGBSignature250EE14filterDirectlyERN5boost10shared_ptrINS_10PointCloudIS1_EEEE@Base 1.6
 (optional=templinst)_ZN3pcl14ExtractIndicesINS_18PFHRGBSignature250EE18applyFilterIndicesERSt6vectorIiSaIiEE@Base 1.6
 (optional=templinst)_ZN3pcl14ExtractIndicesINS_18PFHRGBSignature250EEC1Eb@Base 1.6
 (optional=templinst)_ZN3pcl14ExtractIndicesINS_18PFHRGBSignature250EEC2Eb@Base 1.6
 (optional=templinst)_ZN3pcl14ExtractIndicesINS_18PFHRGBSignature250EED0Ev@Base 1.6
 (optional=templinst)_ZN3pcl14ExtractIndicesINS_18PFHRGBSignature250EED1Ev@Base 1.6
 (optional=templinst)_ZN3pcl14ExtractIndicesINS_18PFHRGBSignature250EED2Ev@Base 1.6
 (optional=templinst)_ZN3pcl14ExtractIndicesINS_18PointWithViewpointEE11applyFilterERNS_10PointCloudIS1_EE@Base 1.6
 (optional=templinst)_ZN3pcl14ExtractIndicesINS_18PointWithViewpointEE11applyFilterERSt6vectorIiSaIiEE@Base 1.6
 (optional=templinst)_ZN3pcl14ExtractIndicesINS_18PointWithViewpointEE14filterDirectlyERN5boost10shared_ptrINS_10PointCloudIS1_EEEE@Base 1.6
 (optional=templinst)_ZN3pcl14ExtractIndicesINS_18PointWithViewpointEE18applyFilterIndicesERSt6vectorIiSaIiEE@Base 1.6
 (optional=templinst)_ZN3pcl14ExtractIndicesINS_18PointWithViewpointEEC1Eb@Base 1.6
 (optional=templinst)_ZN3pcl14ExtractIndicesINS_18PointWithViewpointEEC2Eb@Base 1.6
 (optional=templinst)_ZN3pcl14ExtractIndicesINS_18PointWithViewpointEED0Ev@Base 1.6
 (optional=templinst)_ZN3pcl14ExtractIndicesINS_18PointWithViewpointEED1Ev@Base 1.6
 (optional=templinst)_ZN3pcl14ExtractIndicesINS_18PointWithViewpointEED2Ev@Base 1.6
 (optional=templinst)_ZN3pcl14ExtractIndicesINS_19PrincipalCurvaturesEE11applyFilterERNS_10PointCloudIS1_EE@Base 1.6
 (optional=templinst)_ZN3pcl14ExtractIndicesINS_19PrincipalCurvaturesEE11applyFilterERSt6vectorIiSaIiEE@Base 1.6
 (optional=templinst)_ZN3pcl14ExtractIndicesINS_19PrincipalCurvaturesEE14filterDirectlyERN5boost10shared_ptrINS_10PointCloudIS1_EEEE@Base 1.6
 (optional=templinst)_ZN3pcl14ExtractIndicesINS_19PrincipalCurvaturesEE18applyFilterIndicesERSt6vectorIiSaIiEE@Base 1.6
 (optional=templinst)_ZN3pcl14ExtractIndicesINS_19PrincipalCurvaturesEEC1Eb@Base 1.6
 (optional=templinst)_ZN3pcl14ExtractIndicesINS_19PrincipalCurvaturesEEC2Eb@Base 1.6
 (optional=templinst)_ZN3pcl14ExtractIndicesINS_19PrincipalCurvaturesEED0Ev@Base 1.6
 (optional=templinst)_ZN3pcl14ExtractIndicesINS_19PrincipalCurvaturesEED1Ev@Base 1.6
 (optional=templinst)_ZN3pcl14ExtractIndicesINS_19PrincipalCurvaturesEED2Ev@Base 1.6
 (optional=templinst)_ZN3pcl14ExtractIndicesINS_22NormalBasedSignature12EE11applyFilterERNS_10PointCloudIS1_EE@Base 1.6
 (optional=templinst)_ZN3pcl14ExtractIndicesINS_22NormalBasedSignature12EE11applyFilterERSt6vectorIiSaIiEE@Base 1.6
 (optional=templinst)_ZN3pcl14ExtractIndicesINS_22NormalBasedSignature12EE14filterDirectlyERN5boost10shared_ptrINS_10PointCloudIS1_EEEE@Base 1.6
 (optional=templinst)_ZN3pcl14ExtractIndicesINS_22NormalBasedSignature12EE18applyFilterIndicesERSt6vectorIiSaIiEE@Base 1.6
 (optional=templinst)_ZN3pcl14ExtractIndicesINS_22NormalBasedSignature12EEC1Eb@Base 1.6
 (optional=templinst)_ZN3pcl14ExtractIndicesINS_22NormalBasedSignature12EEC2Eb@Base 1.6
 (optional=templinst)_ZN3pcl14ExtractIndicesINS_22NormalBasedSignature12EED0Ev@Base 1.6
 (optional=templinst)_ZN3pcl14ExtractIndicesINS_22NormalBasedSignature12EED1Ev@Base 1.6
 (optional=templinst)_ZN3pcl14ExtractIndicesINS_22NormalBasedSignature12EED2Ev@Base 1.6
 (optional=templinst)_ZN3pcl14ExtractIndicesINS_4AxisEE11applyFilterERNS_10PointCloudIS1_EE@Base 1.6
 (optional=templinst)_ZN3pcl14ExtractIndicesINS_4AxisEE11applyFilterERSt6vectorIiSaIiEE@Base 1.6
 (optional=templinst)_ZN3pcl14ExtractIndicesINS_4AxisEE14filterDirectlyERN5boost10shared_ptrINS_10PointCloudIS1_EEEE@Base 1.6
 (optional=templinst)_ZN3pcl14ExtractIndicesINS_4AxisEE18applyFilterIndicesERSt6vectorIiSaIiEE@Base 1.6
 (optional=templinst)_ZN3pcl14ExtractIndicesINS_4AxisEEC1Eb@Base 1.6
 (optional=templinst)_ZN3pcl14ExtractIndicesINS_4AxisEEC2Eb@Base 1.6
 (optional=templinst)_ZN3pcl14ExtractIndicesINS_4AxisEED0Ev@Base 1.6
 (optional=templinst)_ZN3pcl14ExtractIndicesINS_4AxisEED1Ev@Base 1.6
 (optional=templinst)_ZN3pcl14ExtractIndicesINS_4AxisEED2Ev@Base 1.6
 (optional=templinst)_ZN3pcl14ExtractIndicesINS_5LabelEE11applyFilterERNS_10PointCloudIS1_EE@Base 1.6
 (optional=templinst)_ZN3pcl14ExtractIndicesINS_5LabelEE11applyFilterERSt6vectorIiSaIiEE@Base 1.6
 (optional=templinst)_ZN3pcl14ExtractIndicesINS_5LabelEE14filterDirectlyERN5boost10shared_ptrINS_10PointCloudIS1_EEEE@Base 1.6
 (optional=templinst)_ZN3pcl14ExtractIndicesINS_5LabelEE18applyFilterIndicesERSt6vectorIiSaIiEE@Base 1.6
 (optional=templinst)_ZN3pcl14ExtractIndicesINS_5LabelEEC1Eb@Base 1.6
 (optional=templinst)_ZN3pcl14ExtractIndicesINS_5LabelEEC2Eb@Base 1.6
 (optional=templinst)_ZN3pcl14ExtractIndicesINS_5LabelEED0Ev@Base 1.6
 (optional=templinst)_ZN3pcl14ExtractIndicesINS_5LabelEED1Ev@Base 1.6
 (optional=templinst)_ZN3pcl14ExtractIndicesINS_5LabelEED2Ev@Base 1.6
 (optional=templinst)_ZN3pcl14ExtractIndicesINS_6Narf36EE11applyFilterERNS_10PointCloudIS1_EE@Base 1.6
 (optional=templinst)_ZN3pcl14ExtractIndicesINS_6Narf36EE11applyFilterERSt6vectorIiSaIiEE@Base 1.6
 (optional=templinst)_ZN3pcl14ExtractIndicesINS_6Narf36EE14filterDirectlyERN5boost10shared_ptrINS_10PointCloudIS1_EEEE@Base 1.6
 (optional=templinst)_ZN3pcl14ExtractIndicesINS_6Narf36EE18applyFilterIndicesERSt6vectorIiSaIiEE@Base 1.6
 (optional=templinst)_ZN3pcl14ExtractIndicesINS_6Narf36EEC1Eb@Base 1.6
 (optional=templinst)_ZN3pcl14ExtractIndicesINS_6Narf36EEC2Eb@Base 1.6
 (optional=templinst)_ZN3pcl14ExtractIndicesINS_6Narf36EED0Ev@Base 1.6
 (optional=templinst)_ZN3pcl14ExtractIndicesINS_6Narf36EED1Ev@Base 1.6
 (optional=templinst)_ZN3pcl14ExtractIndicesINS_6Narf36EED2Ev@Base 1.6
 (optional=templinst)_ZN3pcl14ExtractIndicesINS_6NormalEE11applyFilterERNS_10PointCloudIS1_EE@Base 1.6
 (optional=templinst)_ZN3pcl14ExtractIndicesINS_6NormalEE11applyFilterERSt6vectorIiSaIiEE@Base 1.6
 (optional=templinst)_ZN3pcl14ExtractIndicesINS_6NormalEE14filterDirectlyERN5boost10shared_ptrINS_10PointCloudIS1_EEEE@Base 1.6
 (optional=templinst)_ZN3pcl14ExtractIndicesINS_6NormalEE18applyFilterIndicesERSt6vectorIiSaIiEE@Base 1.6
 (optional=templinst)_ZN3pcl14ExtractIndicesINS_6NormalEEC1Eb@Base 1.6
 (optional=templinst)_ZN3pcl14ExtractIndicesINS_6NormalEEC2Eb@Base 1.6
 (optional=templinst)_ZN3pcl14ExtractIndicesINS_6NormalEED0Ev@Base 1.6
 (optional=templinst)_ZN3pcl14ExtractIndicesINS_6NormalEED1Ev@Base 1.6
 (optional=templinst)_ZN3pcl14ExtractIndicesINS_6NormalEED2Ev@Base 1.6
 (optional=templinst)_ZN3pcl14ExtractIndicesINS_7PointXYEE11applyFilterERNS_10PointCloudIS1_EE@Base 1.6
 (optional=templinst)_ZN3pcl14ExtractIndicesINS_7PointXYEE11applyFilterERSt6vectorIiSaIiEE@Base 1.6
 (optional=templinst)_ZN3pcl14ExtractIndicesINS_7PointXYEE14filterDirectlyERN5boost10shared_ptrINS_10PointCloudIS1_EEEE@Base 1.6
 (optional=templinst)_ZN3pcl14ExtractIndicesINS_7PointXYEE18applyFilterIndicesERSt6vectorIiSaIiEE@Base 1.6
 (optional=templinst)_ZN3pcl14ExtractIndicesINS_7PointXYEEC1Eb@Base 1.6
 (optional=templinst)_ZN3pcl14ExtractIndicesINS_7PointXYEEC2Eb@Base 1.6
 (optional=templinst)_ZN3pcl14ExtractIndicesINS_7PointXYEED0Ev@Base 1.6
 (optional=templinst)_ZN3pcl14ExtractIndicesINS_7PointXYEED1Ev@Base 1.6
 (optional=templinst)_ZN3pcl14ExtractIndicesINS_7PointXYEED2Ev@Base 1.6
 (optional=templinst)_ZN3pcl14ExtractIndicesINS_8BoundaryEE11applyFilterERNS_10PointCloudIS1_EE@Base 1.6
 (optional=templinst)_ZN3pcl14ExtractIndicesINS_8BoundaryEE11applyFilterERSt6vectorIiSaIiEE@Base 1.6
 (optional=templinst)_ZN3pcl14ExtractIndicesINS_8BoundaryEE14filterDirectlyERN5boost10shared_ptrINS_10PointCloudIS1_EEEE@Base 1.6
 (optional=templinst)_ZN3pcl14ExtractIndicesINS_8BoundaryEE18applyFilterIndicesERSt6vectorIiSaIiEE@Base 1.6
 (optional=templinst)_ZN3pcl14ExtractIndicesINS_8BoundaryEEC1Eb@Base 1.6
 (optional=templinst)_ZN3pcl14ExtractIndicesINS_8BoundaryEEC2Eb@Base 1.6
 (optional=templinst)_ZN3pcl14ExtractIndicesINS_8BoundaryEED0Ev@Base 1.6
 (optional=templinst)_ZN3pcl14ExtractIndicesINS_8BoundaryEED1Ev@Base 1.6
 (optional=templinst)_ZN3pcl14ExtractIndicesINS_8BoundaryEED2Ev@Base 1.6
 (optional=templinst)_ZN3pcl14ExtractIndicesINS_8PointXYZEE11applyFilterERNS_10PointCloudIS1_EE@Base 1.6
 (optional=templinst)_ZN3pcl14ExtractIndicesINS_8PointXYZEE11applyFilterERSt6vectorIiSaIiEE@Base 1.6
 (optional=templinst)_ZN3pcl14ExtractIndicesINS_8PointXYZEE14filterDirectlyERN5boost10shared_ptrINS_10PointCloudIS1_EEEE@Base 1.6
 (optional=templinst)_ZN3pcl14ExtractIndicesINS_8PointXYZEE18applyFilterIndicesERSt6vectorIiSaIiEE@Base 1.6
 (optional=templinst)_ZN3pcl14ExtractIndicesINS_8PointXYZEEC1Eb@Base 1.6
 (optional=templinst)_ZN3pcl14ExtractIndicesINS_8PointXYZEEC2Eb@Base 1.6
 (optional=templinst)_ZN3pcl14ExtractIndicesINS_8PointXYZEED0Ev@Base 1.6
 (optional=templinst)_ZN3pcl14ExtractIndicesINS_8PointXYZEED1Ev@Base 1.6
 (optional=templinst)_ZN3pcl14ExtractIndicesINS_8PointXYZEED2Ev@Base 1.6
 (optional=templinst)_ZN3pcl14ExtractIndicesINS_9PointXYZIEE11applyFilterERNS_10PointCloudIS1_EE@Base 1.6
 (optional=templinst)_ZN3pcl14ExtractIndicesINS_9PointXYZIEE11applyFilterERSt6vectorIiSaIiEE@Base 1.6
 (optional=templinst)_ZN3pcl14ExtractIndicesINS_9PointXYZIEE14filterDirectlyERN5boost10shared_ptrINS_10PointCloudIS1_EEEE@Base 1.6
 (optional=templinst)_ZN3pcl14ExtractIndicesINS_9PointXYZIEE18applyFilterIndicesERSt6vectorIiSaIiEE@Base 1.6
 (optional=templinst)_ZN3pcl14ExtractIndicesINS_9PointXYZIEEC1Eb@Base 1.6
 (optional=templinst)_ZN3pcl14ExtractIndicesINS_9PointXYZIEEC2Eb@Base 1.6
 (optional=templinst)_ZN3pcl14ExtractIndicesINS_9PointXYZIEED0Ev@Base 1.6
 (optional=templinst)_ZN3pcl14ExtractIndicesINS_9PointXYZIEED1Ev@Base 1.6
 (optional=templinst)_ZN3pcl14ExtractIndicesINS_9PointXYZIEED2Ev@Base 1.6
 (optional=templinst)_ZN3pcl14ExtractIndicesINS_9PointXYZLEE11applyFilterERNS_10PointCloudIS1_EE@Base 1.6
 (optional=templinst)_ZN3pcl14ExtractIndicesINS_9PointXYZLEE11applyFilterERSt6vectorIiSaIiEE@Base 1.6
 (optional=templinst)_ZN3pcl14ExtractIndicesINS_9PointXYZLEE14filterDirectlyERN5boost10shared_ptrINS_10PointCloudIS1_EEEE@Base 1.6
 (optional=templinst)_ZN3pcl14ExtractIndicesINS_9PointXYZLEE18applyFilterIndicesERSt6vectorIiSaIiEE@Base 1.6
 (optional=templinst)_ZN3pcl14ExtractIndicesINS_9PointXYZLEEC1Eb@Base 1.6
 (optional=templinst)_ZN3pcl14ExtractIndicesINS_9PointXYZLEEC2Eb@Base 1.6
 (optional=templinst)_ZN3pcl14ExtractIndicesINS_9PointXYZLEED0Ev@Base 1.6
 (optional=templinst)_ZN3pcl14ExtractIndicesINS_9PointXYZLEED1Ev@Base 1.6
 (optional=templinst)_ZN3pcl14ExtractIndicesINS_9PointXYZLEED2Ev@Base 1.6
 (optional=templinst)_ZN3pcl14ProjectInliersIN11sensor_msgs11PointCloud2EE11applyFilterERS2_@Base 1.6
 (optional=templinst)_ZN3pcl14ProjectInliersIN11sensor_msgs11PointCloud2EE12initSACModelEi@Base 1.6
 (optional=templinst)_ZN3pcl14ProjectInliersIN11sensor_msgs11PointCloud2EED0Ev@Base 1.6
 (optional=templinst)_ZN3pcl14ProjectInliersIN11sensor_msgs11PointCloud2EED1Ev@Base 1.6
 (optional=templinst)_ZN3pcl14ProjectInliersIN11sensor_msgs11PointCloud2EED2Ev@Base 1.6
 (optional=templinst)_ZN3pcl14ProjectInliersINS_11PointNormalEE11applyFilterERNS_10PointCloudIS1_EE@Base 1.6
 (optional=templinst)_ZN3pcl14ProjectInliersINS_11PointNormalEE12getModelTypeEv@Base 1.6
 (optional=templinst)_ZN3pcl14ProjectInliersINS_11PointNormalEE12initSACModelEi@Base 1.6
 (optional=templinst)_ZN3pcl14ProjectInliersINS_11PointNormalEE12setModelTypeEi@Base 1.6
 (optional=templinst)_ZN3pcl14ProjectInliersINS_11PointNormalEE14getCopyAllDataEv@Base 1.6
 (optional=templinst)_ZN3pcl14ProjectInliersINS_11PointNormalEE14setCopyAllDataEb@Base 1.6
 (optional=templinst)_ZN3pcl14ProjectInliersINS_11PointNormalEE20getModelCoefficientsEv@Base 1.6
 (optional=templinst)_ZN3pcl14ProjectInliersINS_11PointNormalEE20setModelCoefficientsERKN5boost10shared_ptrIKNS_17ModelCoefficientsEEE@Base 1.6
 (optional=templinst)_ZN3pcl14ProjectInliersINS_11PointNormalEEC1Ev@Base 1.6
 (optional=templinst)_ZN3pcl14ProjectInliersINS_11PointNormalEEC2Ev@Base 1.6
 (optional=templinst)_ZN3pcl14ProjectInliersINS_11PointNormalEED0Ev@Base 1.6
 (optional=templinst)_ZN3pcl14ProjectInliersINS_11PointNormalEED1Ev@Base 1.6
 (optional=templinst)_ZN3pcl14ProjectInliersINS_11PointNormalEED2Ev@Base 1.6
 (optional=templinst)_ZN3pcl14ProjectInliersINS_11PointXYZHSVEE11applyFilterERNS_10PointCloudIS1_EE@Base 1.6
 (optional=templinst)_ZN3pcl14ProjectInliersINS_11PointXYZHSVEE12getModelTypeEv@Base 1.6
 (optional=templinst)_ZN3pcl14ProjectInliersINS_11PointXYZHSVEE12initSACModelEi@Base 1.6
 (optional=templinst)_ZN3pcl14ProjectInliersINS_11PointXYZHSVEE12setModelTypeEi@Base 1.6
 (optional=templinst)_ZN3pcl14ProjectInliersINS_11PointXYZHSVEE14getCopyAllDataEv@Base 1.6
 (optional=templinst)_ZN3pcl14ProjectInliersINS_11PointXYZHSVEE14setCopyAllDataEb@Base 1.6
 (optional=templinst)_ZN3pcl14ProjectInliersINS_11PointXYZHSVEE20getModelCoefficientsEv@Base 1.6
 (optional=templinst)_ZN3pcl14ProjectInliersINS_11PointXYZHSVEE20setModelCoefficientsERKN5boost10shared_ptrIKNS_17ModelCoefficientsEEE@Base 1.6
 (optional=templinst)_ZN3pcl14ProjectInliersINS_11PointXYZHSVEEC1Ev@Base 1.6
 (optional=templinst)_ZN3pcl14ProjectInliersINS_11PointXYZHSVEEC2Ev@Base 1.6
 (optional=templinst)_ZN3pcl14ProjectInliersINS_11PointXYZHSVEED0Ev@Base 1.6
 (optional=templinst)_ZN3pcl14ProjectInliersINS_11PointXYZHSVEED1Ev@Base 1.6
 (optional=templinst)_ZN3pcl14ProjectInliersINS_11PointXYZHSVEED2Ev@Base 1.6
 (optional=templinst)_ZN3pcl14ProjectInliersINS_11PointXYZRGBEE11applyFilterERNS_10PointCloudIS1_EE@Base 1.6
 (optional=templinst)_ZN3pcl14ProjectInliersINS_11PointXYZRGBEE12getModelTypeEv@Base 1.6
 (optional=templinst)_ZN3pcl14ProjectInliersINS_11PointXYZRGBEE12initSACModelEi@Base 1.6
 (optional=templinst)_ZN3pcl14ProjectInliersINS_11PointXYZRGBEE12setModelTypeEi@Base 1.6
 (optional=templinst)_ZN3pcl14ProjectInliersINS_11PointXYZRGBEE14getCopyAllDataEv@Base 1.6
 (optional=templinst)_ZN3pcl14ProjectInliersINS_11PointXYZRGBEE14setCopyAllDataEb@Base 1.6
 (optional=templinst)_ZN3pcl14ProjectInliersINS_11PointXYZRGBEE20getModelCoefficientsEv@Base 1.6
 (optional=templinst)_ZN3pcl14ProjectInliersINS_11PointXYZRGBEE20setModelCoefficientsERKN5boost10shared_ptrIKNS_17ModelCoefficientsEEE@Base 1.6
 (optional=templinst)_ZN3pcl14ProjectInliersINS_11PointXYZRGBEEC1Ev@Base 1.6
 (optional=templinst)_ZN3pcl14ProjectInliersINS_11PointXYZRGBEEC2Ev@Base 1.6
 (optional=templinst)_ZN3pcl14ProjectInliersINS_11PointXYZRGBEED0Ev@Base 1.6
 (optional=templinst)_ZN3pcl14ProjectInliersINS_11PointXYZRGBEED1Ev@Base 1.6
 (optional=templinst)_ZN3pcl14ProjectInliersINS_11PointXYZRGBEED2Ev@Base 1.6
 (optional=templinst)_ZN3pcl14ProjectInliersINS_12PointXYZRGBAEE11applyFilterERNS_10PointCloudIS1_EE@Base 1.6
 (optional=templinst)_ZN3pcl14ProjectInliersINS_12PointXYZRGBAEE12getModelTypeEv@Base 1.6
 (optional=templinst)_ZN3pcl14ProjectInliersINS_12PointXYZRGBAEE12initSACModelEi@Base 1.6
 (optional=templinst)_ZN3pcl14ProjectInliersINS_12PointXYZRGBAEE12setModelTypeEi@Base 1.6
 (optional=templinst)_ZN3pcl14ProjectInliersINS_12PointXYZRGBAEE14getCopyAllDataEv@Base 1.6
 (optional=templinst)_ZN3pcl14ProjectInliersINS_12PointXYZRGBAEE14setCopyAllDataEb@Base 1.6
 (optional=templinst)_ZN3pcl14ProjectInliersINS_12PointXYZRGBAEE20getModelCoefficientsEv@Base 1.6
 (optional=templinst)_ZN3pcl14ProjectInliersINS_12PointXYZRGBAEE20setModelCoefficientsERKN5boost10shared_ptrIKNS_17ModelCoefficientsEEE@Base 1.6
 (optional=templinst)_ZN3pcl14ProjectInliersINS_12PointXYZRGBAEEC1Ev@Base 1.6
 (optional=templinst)_ZN3pcl14ProjectInliersINS_12PointXYZRGBAEEC2Ev@Base 1.6
 (optional=templinst)_ZN3pcl14ProjectInliersINS_12PointXYZRGBAEED0Ev@Base 1.6
 (optional=templinst)_ZN3pcl14ProjectInliersINS_12PointXYZRGBAEED1Ev@Base 1.6
 (optional=templinst)_ZN3pcl14ProjectInliersINS_12PointXYZRGBAEED2Ev@Base 1.6
 (optional=templinst)_ZN3pcl14ProjectInliersINS_12PointXYZRGBLEE11applyFilterERNS_10PointCloudIS1_EE@Base 1.6
 (optional=templinst)_ZN3pcl14ProjectInliersINS_12PointXYZRGBLEE12getModelTypeEv@Base 1.6
 (optional=templinst)_ZN3pcl14ProjectInliersINS_12PointXYZRGBLEE12initSACModelEi@Base 1.6
 (optional=templinst)_ZN3pcl14ProjectInliersINS_12PointXYZRGBLEE12setModelTypeEi@Base 1.6
 (optional=templinst)_ZN3pcl14ProjectInliersINS_12PointXYZRGBLEE14getCopyAllDataEv@Base 1.6
 (optional=templinst)_ZN3pcl14ProjectInliersINS_12PointXYZRGBLEE14setCopyAllDataEb@Base 1.6
 (optional=templinst)_ZN3pcl14ProjectInliersINS_12PointXYZRGBLEE20getModelCoefficientsEv@Base 1.6
 (optional=templinst)_ZN3pcl14ProjectInliersINS_12PointXYZRGBLEE20setModelCoefficientsERKN5boost10shared_ptrIKNS_17ModelCoefficientsEEE@Base 1.6
 (optional=templinst)_ZN3pcl14ProjectInliersINS_12PointXYZRGBLEEC1Ev@Base 1.6
 (optional=templinst)_ZN3pcl14ProjectInliersINS_12PointXYZRGBLEEC2Ev@Base 1.6
 (optional=templinst)_ZN3pcl14ProjectInliersINS_12PointXYZRGBLEED0Ev@Base 1.6
 (optional=templinst)_ZN3pcl14ProjectInliersINS_12PointXYZRGBLEED1Ev@Base 1.6
 (optional=templinst)_ZN3pcl14ProjectInliersINS_12PointXYZRGBLEED2Ev@Base 1.6
 (optional=templinst)_ZN3pcl14ProjectInliersINS_13InterestPointEE11applyFilterERNS_10PointCloudIS1_EE@Base 1.6
 (optional=templinst)_ZN3pcl14ProjectInliersINS_13InterestPointEE12getModelTypeEv@Base 1.6
 (optional=templinst)_ZN3pcl14ProjectInliersINS_13InterestPointEE12initSACModelEi@Base 1.6
 (optional=templinst)_ZN3pcl14ProjectInliersINS_13InterestPointEE12setModelTypeEi@Base 1.6
 (optional=templinst)_ZN3pcl14ProjectInliersINS_13InterestPointEE14getCopyAllDataEv@Base 1.6
 (optional=templinst)_ZN3pcl14ProjectInliersINS_13InterestPointEE14setCopyAllDataEb@Base 1.6
 (optional=templinst)_ZN3pcl14ProjectInliersINS_13InterestPointEE20getModelCoefficientsEv@Base 1.6
 (optional=templinst)_ZN3pcl14ProjectInliersINS_13InterestPointEE20setModelCoefficientsERKN5boost10shared_ptrIKNS_17ModelCoefficientsEEE@Base 1.6
 (optional=templinst)_ZN3pcl14ProjectInliersINS_13InterestPointEEC1Ev@Base 1.6
 (optional=templinst)_ZN3pcl14ProjectInliersINS_13InterestPointEEC2Ev@Base 1.6
 (optional=templinst)_ZN3pcl14ProjectInliersINS_13InterestPointEED0Ev@Base 1.6
 (optional=templinst)_ZN3pcl14ProjectInliersINS_13InterestPointEED1Ev@Base 1.6
 (optional=templinst)_ZN3pcl14ProjectInliersINS_13InterestPointEED2Ev@Base 1.6
 (optional=templinst)_ZN3pcl14ProjectInliersINS_14PointWithRangeEE11applyFilterERNS_10PointCloudIS1_EE@Base 1.6
 (optional=templinst)_ZN3pcl14ProjectInliersINS_14PointWithRangeEE12getModelTypeEv@Base 1.6
 (optional=templinst)_ZN3pcl14ProjectInliersINS_14PointWithRangeEE12initSACModelEi@Base 1.6
 (optional=templinst)_ZN3pcl14ProjectInliersINS_14PointWithRangeEE12setModelTypeEi@Base 1.6
 (optional=templinst)_ZN3pcl14ProjectInliersINS_14PointWithRangeEE14getCopyAllDataEv@Base 1.6
 (optional=templinst)_ZN3pcl14ProjectInliersINS_14PointWithRangeEE14setCopyAllDataEb@Base 1.6
 (optional=templinst)_ZN3pcl14ProjectInliersINS_14PointWithRangeEE20getModelCoefficientsEv@Base 1.6
 (optional=templinst)_ZN3pcl14ProjectInliersINS_14PointWithRangeEE20setModelCoefficientsERKN5boost10shared_ptrIKNS_17ModelCoefficientsEEE@Base 1.6
 (optional=templinst)_ZN3pcl14ProjectInliersINS_14PointWithRangeEEC1Ev@Base 1.6
 (optional=templinst)_ZN3pcl14ProjectInliersINS_14PointWithRangeEEC2Ev@Base 1.6
 (optional=templinst)_ZN3pcl14ProjectInliersINS_14PointWithRangeEED0Ev@Base 1.6
 (optional=templinst)_ZN3pcl14ProjectInliersINS_14PointWithRangeEED1Ev@Base 1.6
 (optional=templinst)_ZN3pcl14ProjectInliersINS_14PointWithRangeEED2Ev@Base 1.6
 (optional=templinst)_ZN3pcl14ProjectInliersINS_14PointWithScaleEE11applyFilterERNS_10PointCloudIS1_EE@Base 1.6
 (optional=templinst)_ZN3pcl14ProjectInliersINS_14PointWithScaleEE12getModelTypeEv@Base 1.6
 (optional=templinst)_ZN3pcl14ProjectInliersINS_14PointWithScaleEE12initSACModelEi@Base 1.6
 (optional=templinst)_ZN3pcl14ProjectInliersINS_14PointWithScaleEE12setModelTypeEi@Base 1.6
 (optional=templinst)_ZN3pcl14ProjectInliersINS_14PointWithScaleEE14getCopyAllDataEv@Base 1.6
 (optional=templinst)_ZN3pcl14ProjectInliersINS_14PointWithScaleEE14setCopyAllDataEb@Base 1.6
 (optional=templinst)_ZN3pcl14ProjectInliersINS_14PointWithScaleEE20getModelCoefficientsEv@Base 1.6
 (optional=templinst)_ZN3pcl14ProjectInliersINS_14PointWithScaleEE20setModelCoefficientsERKN5boost10shared_ptrIKNS_17ModelCoefficientsEEE@Base 1.6
 (optional=templinst)_ZN3pcl14ProjectInliersINS_14PointWithScaleEEC1Ev@Base 1.6
 (optional=templinst)_ZN3pcl14ProjectInliersINS_14PointWithScaleEEC2Ev@Base 1.6
 (optional=templinst)_ZN3pcl14ProjectInliersINS_14PointWithScaleEED0Ev@Base 1.6
 (optional=templinst)_ZN3pcl14ProjectInliersINS_14PointWithScaleEED1Ev@Base 1.6
 (optional=templinst)_ZN3pcl14ProjectInliersINS_14PointWithScaleEED2Ev@Base 1.6
 (optional=templinst)_ZN3pcl14ProjectInliersINS_15PointXYZINormalEE11applyFilterERNS_10PointCloudIS1_EE@Base 1.6
 (optional=templinst)_ZN3pcl14ProjectInliersINS_15PointXYZINormalEE12getModelTypeEv@Base 1.6
 (optional=templinst)_ZN3pcl14ProjectInliersINS_15PointXYZINormalEE12initSACModelEi@Base 1.6
 (optional=templinst)_ZN3pcl14ProjectInliersINS_15PointXYZINormalEE12setModelTypeEi@Base 1.6
 (optional=templinst)_ZN3pcl14ProjectInliersINS_15PointXYZINormalEE14getCopyAllDataEv@Base 1.6
 (optional=templinst)_ZN3pcl14ProjectInliersINS_15PointXYZINormalEE14setCopyAllDataEb@Base 1.6
 (optional=templinst)_ZN3pcl14ProjectInliersINS_15PointXYZINormalEE20getModelCoefficientsEv@Base 1.6
 (optional=templinst)_ZN3pcl14ProjectInliersINS_15PointXYZINormalEE20setModelCoefficientsERKN5boost10shared_ptrIKNS_17ModelCoefficientsEEE@Base 1.6
 (optional=templinst)_ZN3pcl14ProjectInliersINS_15PointXYZINormalEEC1Ev@Base 1.6
 (optional=templinst)_ZN3pcl14ProjectInliersINS_15PointXYZINormalEEC2Ev@Base 1.6
 (optional=templinst)_ZN3pcl14ProjectInliersINS_15PointXYZINormalEED0Ev@Base 1.6
 (optional=templinst)_ZN3pcl14ProjectInliersINS_15PointXYZINormalEED1Ev@Base 1.6
 (optional=templinst)_ZN3pcl14ProjectInliersINS_15PointXYZINormalEED2Ev@Base 1.6
 (optional=templinst)_ZN3pcl14ProjectInliersINS_17PointXYZRGBNormalEE11applyFilterERNS_10PointCloudIS1_EE@Base 1.6
 (optional=templinst)_ZN3pcl14ProjectInliersINS_17PointXYZRGBNormalEE12getModelTypeEv@Base 1.6
 (optional=templinst)_ZN3pcl14ProjectInliersINS_17PointXYZRGBNormalEE12initSACModelEi@Base 1.6
 (optional=templinst)_ZN3pcl14ProjectInliersINS_17PointXYZRGBNormalEE12setModelTypeEi@Base 1.6
 (optional=templinst)_ZN3pcl14ProjectInliersINS_17PointXYZRGBNormalEE14getCopyAllDataEv@Base 1.6
 (optional=templinst)_ZN3pcl14ProjectInliersINS_17PointXYZRGBNormalEE14setCopyAllDataEb@Base 1.6
 (optional=templinst)_ZN3pcl14ProjectInliersINS_17PointXYZRGBNormalEE20getModelCoefficientsEv@Base 1.6
 (optional=templinst)_ZN3pcl14ProjectInliersINS_17PointXYZRGBNormalEE20setModelCoefficientsERKN5boost10shared_ptrIKNS_17ModelCoefficientsEEE@Base 1.6
 (optional=templinst)_ZN3pcl14ProjectInliersINS_17PointXYZRGBNormalEEC1Ev@Base 1.6
 (optional=templinst)_ZN3pcl14ProjectInliersINS_17PointXYZRGBNormalEEC2Ev@Base 1.6
 (optional=templinst)_ZN3pcl14ProjectInliersINS_17PointXYZRGBNormalEED0Ev@Base 1.6
 (optional=templinst)_ZN3pcl14ProjectInliersINS_17PointXYZRGBNormalEED1Ev@Base 1.6
 (optional=templinst)_ZN3pcl14ProjectInliersINS_17PointXYZRGBNormalEED2Ev@Base 1.6
 (optional=templinst)_ZN3pcl14ProjectInliersINS_18PointWithViewpointEE11applyFilterERNS_10PointCloudIS1_EE@Base 1.6
 (optional=templinst)_ZN3pcl14ProjectInliersINS_18PointWithViewpointEE12getModelTypeEv@Base 1.6
 (optional=templinst)_ZN3pcl14ProjectInliersINS_18PointWithViewpointEE12initSACModelEi@Base 1.6
 (optional=templinst)_ZN3pcl14ProjectInliersINS_18PointWithViewpointEE12setModelTypeEi@Base 1.6
 (optional=templinst)_ZN3pcl14ProjectInliersINS_18PointWithViewpointEE14getCopyAllDataEv@Base 1.6
 (optional=templinst)_ZN3pcl14ProjectInliersINS_18PointWithViewpointEE14setCopyAllDataEb@Base 1.6
 (optional=templinst)_ZN3pcl14ProjectInliersINS_18PointWithViewpointEE20getModelCoefficientsEv@Base 1.6
 (optional=templinst)_ZN3pcl14ProjectInliersINS_18PointWithViewpointEE20setModelCoefficientsERKN5boost10shared_ptrIKNS_17ModelCoefficientsEEE@Base 1.6
 (optional=templinst)_ZN3pcl14ProjectInliersINS_18PointWithViewpointEEC1Ev@Base 1.6
 (optional=templinst)_ZN3pcl14ProjectInliersINS_18PointWithViewpointEEC2Ev@Base 1.6
 (optional=templinst)_ZN3pcl14ProjectInliersINS_18PointWithViewpointEED0Ev@Base 1.6
 (optional=templinst)_ZN3pcl14ProjectInliersINS_18PointWithViewpointEED1Ev@Base 1.6
 (optional=templinst)_ZN3pcl14ProjectInliersINS_18PointWithViewpointEED2Ev@Base 1.6
 (optional=templinst)_ZN3pcl14ProjectInliersINS_8PointXYZEE11applyFilterERNS_10PointCloudIS1_EE@Base 1.6
 (optional=templinst)_ZN3pcl14ProjectInliersINS_8PointXYZEE12getModelTypeEv@Base 1.6
 (optional=templinst)_ZN3pcl14ProjectInliersINS_8PointXYZEE12initSACModelEi@Base 1.6
 (optional=templinst)_ZN3pcl14ProjectInliersINS_8PointXYZEE12setModelTypeEi@Base 1.6
 (optional=templinst)_ZN3pcl14ProjectInliersINS_8PointXYZEE14getCopyAllDataEv@Base 1.6
 (optional=templinst)_ZN3pcl14ProjectInliersINS_8PointXYZEE14setCopyAllDataEb@Base 1.6
 (optional=templinst)_ZN3pcl14ProjectInliersINS_8PointXYZEE20getModelCoefficientsEv@Base 1.6
 (optional=templinst)_ZN3pcl14ProjectInliersINS_8PointXYZEE20setModelCoefficientsERKN5boost10shared_ptrIKNS_17ModelCoefficientsEEE@Base 1.6
 (optional=templinst)_ZN3pcl14ProjectInliersINS_8PointXYZEEC1Ev@Base 1.6
 (optional=templinst)_ZN3pcl14ProjectInliersINS_8PointXYZEEC2Ev@Base 1.6
 (optional=templinst)_ZN3pcl14ProjectInliersINS_8PointXYZEED0Ev@Base 1.6
 (optional=templinst)_ZN3pcl14ProjectInliersINS_8PointXYZEED1Ev@Base 1.6
 (optional=templinst)_ZN3pcl14ProjectInliersINS_8PointXYZEED2Ev@Base 1.6
 (optional=templinst)_ZN3pcl14ProjectInliersINS_9PointXYZIEE11applyFilterERNS_10PointCloudIS1_EE@Base 1.6
 (optional=templinst)_ZN3pcl14ProjectInliersINS_9PointXYZIEE12getModelTypeEv@Base 1.6
 (optional=templinst)_ZN3pcl14ProjectInliersINS_9PointXYZIEE12initSACModelEi@Base 1.6
 (optional=templinst)_ZN3pcl14ProjectInliersINS_9PointXYZIEE12setModelTypeEi@Base 1.6
 (optional=templinst)_ZN3pcl14ProjectInliersINS_9PointXYZIEE14getCopyAllDataEv@Base 1.6
 (optional=templinst)_ZN3pcl14ProjectInliersINS_9PointXYZIEE14setCopyAllDataEb@Base 1.6
 (optional=templinst)_ZN3pcl14ProjectInliersINS_9PointXYZIEE20getModelCoefficientsEv@Base 1.6
 (optional=templinst)_ZN3pcl14ProjectInliersINS_9PointXYZIEE20setModelCoefficientsERKN5boost10shared_ptrIKNS_17ModelCoefficientsEEE@Base 1.6
 (optional=templinst)_ZN3pcl14ProjectInliersINS_9PointXYZIEEC1Ev@Base 1.6
 (optional=templinst)_ZN3pcl14ProjectInliersINS_9PointXYZIEEC2Ev@Base 1.6
 (optional=templinst)_ZN3pcl14ProjectInliersINS_9PointXYZIEED0Ev@Base 1.6
 (optional=templinst)_ZN3pcl14ProjectInliersINS_9PointXYZIEED1Ev@Base 1.6
 (optional=templinst)_ZN3pcl14ProjectInliersINS_9PointXYZIEED2Ev@Base 1.6
 (optional=templinst)_ZN3pcl14ProjectInliersINS_9PointXYZLEE11applyFilterERNS_10PointCloudIS1_EE@Base 1.6
 (optional=templinst)_ZN3pcl14ProjectInliersINS_9PointXYZLEE12getModelTypeEv@Base 1.6
 (optional=templinst)_ZN3pcl14ProjectInliersINS_9PointXYZLEE12initSACModelEi@Base 1.6
 (optional=templinst)_ZN3pcl14ProjectInliersINS_9PointXYZLEE12setModelTypeEi@Base 1.6
 (optional=templinst)_ZN3pcl14ProjectInliersINS_9PointXYZLEE14getCopyAllDataEv@Base 1.6
 (optional=templinst)_ZN3pcl14ProjectInliersINS_9PointXYZLEE14setCopyAllDataEb@Base 1.6
 (optional=templinst)_ZN3pcl14ProjectInliersINS_9PointXYZLEE20getModelCoefficientsEv@Base 1.6
 (optional=templinst)_ZN3pcl14ProjectInliersINS_9PointXYZLEE20setModelCoefficientsERKN5boost10shared_ptrIKNS_17ModelCoefficientsEEE@Base 1.6
 (optional=templinst)_ZN3pcl14ProjectInliersINS_9PointXYZLEEC1Ev@Base 1.6
 (optional=templinst)_ZN3pcl14ProjectInliersINS_9PointXYZLEEC2Ev@Base 1.6
 (optional=templinst)_ZN3pcl14ProjectInliersINS_9PointXYZLEED0Ev@Base 1.6
 (optional=templinst)_ZN3pcl14ProjectInliersINS_9PointXYZLEED1Ev@Base 1.6
 (optional=templinst)_ZN3pcl14ProjectInliersINS_9PointXYZLEED2Ev@Base 1.6
 (optional=templinst)_ZN3pcl14copyPointCloudINS_11PointNormalEEEvRKNS_10PointCloudIT_EERKSt6vectorIiSaIiEERS4_@Base 1.6
 (optional=templinst)_ZN3pcl14copyPointCloudINS_11PointXYZHSVEEEvRKNS_10PointCloudIT_EERKSt6vectorIiSaIiEERS4_@Base 1.6
 (optional=templinst)_ZN3pcl14copyPointCloudINS_11PointXYZRGBEEEvRKNS_10PointCloudIT_EERKSt6vectorIiSaIiEERS4_@Base 1.6
 (optional=templinst)_ZN3pcl14copyPointCloudINS_12PPFSignatureEEEvRKNS_10PointCloudIT_EERKSt6vectorIiSaIiEERS4_@Base 1.6
 (optional=templinst)_ZN3pcl14copyPointCloudINS_12PointXYZRGBAEEEvRKNS_10PointCloudIT_EERKSt6vectorIiSaIiEERS4_@Base 1.6
 (optional=templinst)_ZN3pcl14copyPointCloudINS_12PointXYZRGBLEEEvRKNS_10PointCloudIT_EERKSt6vectorIiSaIiEERS4_@Base 1.6
 (optional=templinst)_ZN3pcl14copyPointCloudINS_13InterestPointEEEvRKNS_10PointCloudIT_EERKSt6vectorIiSaIiEERS4_@Base 1.6
 (optional=templinst)_ZN3pcl14copyPointCloudINS_14PointWithRangeEEEvRKNS_10PointCloudIT_EERKSt6vectorIiSaIiEERS4_@Base 1.6
 (optional=templinst)_ZN3pcl14copyPointCloudINS_14PointWithScaleEEEvRKNS_10PointCloudIT_EERKSt6vectorIiSaIiEERS4_@Base 1.6
 (optional=templinst)_ZN3pcl14copyPointCloudINS_14ReferenceFrameEEEvRKNS_10PointCloudIT_EERKSt6vectorIiSaIiEERS4_@Base 1.6
 (optional=templinst)_ZN3pcl14copyPointCloudINS_15ESFSignature640EEEvRKNS_10PointCloudIT_EERKSt6vectorIiSaIiEERS4_@Base 1.6
 (optional=templinst)_ZN3pcl14copyPointCloudINS_15FPFHSignature33EEEvRKNS_10PointCloudIT_EERKSt6vectorIiSaIiEERS4_@Base 1.6
 (optional=templinst)_ZN3pcl14copyPointCloudINS_15PFHSignature125EEEvRKNS_10PointCloudIT_EERKSt6vectorIiSaIiEERS4_@Base 1.6
 (optional=templinst)_ZN3pcl14copyPointCloudINS_15PPFRGBSignatureEEEvRKNS_10PointCloudIT_EERKSt6vectorIiSaIiEERS4_@Base 1.6
 (optional=templinst)_ZN3pcl14copyPointCloudINS_15PointXYZINormalEEEvRKNS_10PointCloudIT_EERKSt6vectorIiSaIiEERS4_@Base 1.6
 (optional=templinst)_ZN3pcl14copyPointCloudINS_15VFHSignature308EEEvRKNS_10PointCloudIT_EERKSt6vectorIiSaIiEERS4_@Base 1.6
 (optional=templinst)_ZN3pcl14copyPointCloudINS_16MomentInvariantsEEEvRKNS_10PointCloudIT_EERKSt6vectorIiSaIiEERS4_@Base 1.6
 (optional=templinst)_ZN3pcl14copyPointCloudINS_17IntensityGradientEEEvRKNS_10PointCloudIT_EERKSt6vectorIiSaIiEERS4_@Base 1.6
 (optional=templinst)_ZN3pcl14copyPointCloudINS_17PointXYZRGBNormalEEEvRKNS_10PointCloudIT_EERKSt6vectorIiSaIiEERS4_@Base 1.6
 (optional=templinst)_ZN3pcl14copyPointCloudINS_17PrincipalRadiiRSDEEEvRKNS_10PointCloudIT_EERKSt6vectorIiSaIiEERS4_@Base 1.6
 (optional=templinst)_ZN3pcl14copyPointCloudINS_18PFHRGBSignature250EEEvRKNS_10PointCloudIT_EERKSt6vectorIiSaIiEERS4_@Base 1.6
 (optional=templinst)_ZN3pcl14copyPointCloudINS_18PointWithViewpointEEEvRKNS_10PointCloudIT_EERKSt6vectorIiSaIiEERS4_@Base 1.6
 (optional=templinst)_ZN3pcl14copyPointCloudINS_19PrincipalCurvaturesEEEvRKNS_10PointCloudIT_EERKSt6vectorIiSaIiEERS4_@Base 1.6
 (optional=templinst)_ZN3pcl14copyPointCloudINS_22NormalBasedSignature12EEEvRKNS_10PointCloudIT_EERKSt6vectorIiSaIiEERS4_@Base 1.6
 (optional=templinst)_ZN3pcl14copyPointCloudINS_4AxisEEEvRKNS_10PointCloudIT_EERKSt6vectorIiSaIiEERS4_@Base 1.6
 (optional=templinst)_ZN3pcl14copyPointCloudINS_5LabelEEEvRKNS_10PointCloudIT_EERKSt6vectorIiSaIiEERS4_@Base 1.6
 (optional=templinst)_ZN3pcl14copyPointCloudINS_6Narf36EEEvRKNS_10PointCloudIT_EERKSt6vectorIiSaIiEERS4_@Base 1.6
 (optional=templinst)_ZN3pcl14copyPointCloudINS_6NormalEEEvRKNS_10PointCloudIT_EERKSt6vectorIiSaIiEERS4_@Base 1.6
 (optional=templinst)_ZN3pcl14copyPointCloudINS_7PointXYEEEvRKNS_10PointCloudIT_EERKSt6vectorIiSaIiEERS4_@Base 1.6
 (optional=templinst)_ZN3pcl14copyPointCloudINS_8BoundaryEEEvRKNS_10PointCloudIT_EERKSt6vectorIiSaIiEERS4_@Base 1.6
 (optional=templinst)_ZN3pcl14copyPointCloudINS_8PointXYZEEEvRKNS_10PointCloudIT_EERKSt6vectorIiSaIiEERS4_@Base 1.6
 (optional=templinst)_ZN3pcl14copyPointCloudINS_9PointXYZIEEEvRKNS_10PointCloudIT_EERKSt6vectorIiSaIiEERS4_@Base 1.6
 (optional=templinst)_ZN3pcl14copyPointCloudINS_9PointXYZLEEEvRKNS_10PointCloudIT_EERKSt6vectorIiSaIiEERS4_@Base 1.6
 (optional=templinst)_ZN3pcl14transformPointINS_8PointXYZEEET_RKS2_RKN5Eigen9TransformIfLi3ELi2ELi0EEE@Base 1.6
 (optional=templinst)_ZN3pcl15BilateralFilterINS_15PointXYZINormalEE11applyFilterERNS_10PointCloudIS1_EE@Base 1.6
 (optional=templinst)_ZN3pcl15BilateralFilterINS_15PointXYZINormalEE11getHalfSizeEv@Base 1.6
 (optional=templinst)_ZN3pcl15BilateralFilterINS_15PointXYZINormalEE11setHalfSizeEd@Base 1.6
 (optional=templinst)_ZN3pcl15BilateralFilterINS_15PointXYZINormalEE15setSearchMethodERKN5boost10shared_ptrINS_6search6SearchIS1_EEEE@Base 1.6
 (optional=templinst)_ZN3pcl15BilateralFilterINS_15PointXYZINormalEE18computePointWeightEiRKSt6vectorIiSaIiEERKS3_IfSaIfEE@Base 1.6
 (optional=templinst)_ZN3pcl15BilateralFilterINS_15PointXYZINormalEE6kernelEdd@Base 1.6
 (optional=templinst)_ZN3pcl15BilateralFilterINS_15PointXYZINormalEE9getStdDevEv@Base 1.6
 (optional=templinst)_ZN3pcl15BilateralFilterINS_15PointXYZINormalEE9setStdDevEd@Base 1.6
 (optional=templinst)_ZN3pcl15BilateralFilterINS_15PointXYZINormalEEC1Ev@Base 1.6
 (optional=templinst)_ZN3pcl15BilateralFilterINS_15PointXYZINormalEEC2Ev@Base 1.6
 (optional=templinst)_ZN3pcl15BilateralFilterINS_15PointXYZINormalEED0Ev@Base 1.6
 (optional=templinst)_ZN3pcl15BilateralFilterINS_15PointXYZINormalEED1Ev@Base 1.6
 (optional=templinst)_ZN3pcl15BilateralFilterINS_15PointXYZINormalEED2Ev@Base 1.6
 (optional=templinst)_ZN3pcl15BilateralFilterINS_9PointXYZIEE11applyFilterERNS_10PointCloudIS1_EE@Base 1.6
 (optional=templinst)_ZN3pcl15BilateralFilterINS_9PointXYZIEE11getHalfSizeEv@Base 1.6
 (optional=templinst)_ZN3pcl15BilateralFilterINS_9PointXYZIEE11setHalfSizeEd@Base 1.6
 (optional=templinst)_ZN3pcl15BilateralFilterINS_9PointXYZIEE15setSearchMethodERKN5boost10shared_ptrINS_6search6SearchIS1_EEEE@Base 1.6
 (optional=templinst)_ZN3pcl15BilateralFilterINS_9PointXYZIEE18computePointWeightEiRKSt6vectorIiSaIiEERKS3_IfSaIfEE@Base 1.6
 (optional=templinst)_ZN3pcl15BilateralFilterINS_9PointXYZIEE6kernelEdd@Base 1.6
 (optional=templinst)_ZN3pcl15BilateralFilterINS_9PointXYZIEE9getStdDevEv@Base 1.6
 (optional=templinst)_ZN3pcl15BilateralFilterINS_9PointXYZIEE9setStdDevEd@Base 1.6
 (optional=templinst)_ZN3pcl15BilateralFilterINS_9PointXYZIEEC1Ev@Base 1.6
 (optional=templinst)_ZN3pcl15BilateralFilterINS_9PointXYZIEEC2Ev@Base 1.6
 (optional=templinst)_ZN3pcl15BilateralFilterINS_9PointXYZIEED0Ev@Base 1.6
 (optional=templinst)_ZN3pcl15BilateralFilterINS_9PointXYZIEED1Ev@Base 1.6
 (optional=templinst)_ZN3pcl15BilateralFilterINS_9PointXYZIEED2Ev@Base 1.6
 (optional=templinst)_ZN3pcl15FieldComparisonINS_11PointNormalEEC1ERKS2_@Base 1.6
 (optional=templinst)_ZN3pcl15FieldComparisonINS_11PointNormalEEC1ESsNS_13ComparisonOps9CompareOpEd@Base 1.6
 (optional=templinst)_ZN3pcl15FieldComparisonINS_11PointNormalEEC1Ev@Base 1.6
 (optional=templinst)_ZN3pcl15FieldComparisonINS_11PointNormalEEC2ERKS2_@Base 1.6
 (optional=templinst)_ZN3pcl15FieldComparisonINS_11PointNormalEEC2ESsNS_13ComparisonOps9CompareOpEd@Base 1.6
 (optional=templinst)_ZN3pcl15FieldComparisonINS_11PointNormalEEC2Ev@Base 1.6
 (optional=templinst)_ZN3pcl15FieldComparisonINS_11PointNormalEED0Ev@Base 1.6
 (optional=templinst)_ZN3pcl15FieldComparisonINS_11PointNormalEED1Ev@Base 1.6
 (optional=templinst)_ZN3pcl15FieldComparisonINS_11PointNormalEED2Ev@Base 1.6
 (optional=templinst)_ZN3pcl15FieldComparisonINS_11PointNormalEEaSERKS2_@Base 1.6
 (optional=templinst)_ZN3pcl15FieldComparisonINS_11PointXYZHSVEEC1ERKS2_@Base 1.6
 (optional=templinst)_ZN3pcl15FieldComparisonINS_11PointXYZHSVEEC1ESsNS_13ComparisonOps9CompareOpEd@Base 1.6
 (optional=templinst)_ZN3pcl15FieldComparisonINS_11PointXYZHSVEEC1Ev@Base 1.6
 (optional=templinst)_ZN3pcl15FieldComparisonINS_11PointXYZHSVEEC2ERKS2_@Base 1.6
 (optional=templinst)_ZN3pcl15FieldComparisonINS_11PointXYZHSVEEC2ESsNS_13ComparisonOps9CompareOpEd@Base 1.6
 (optional=templinst)_ZN3pcl15FieldComparisonINS_11PointXYZHSVEEC2Ev@Base 1.6
 (optional=templinst)_ZN3pcl15FieldComparisonINS_11PointXYZHSVEED0Ev@Base 1.6
 (optional=templinst)_ZN3pcl15FieldComparisonINS_11PointXYZHSVEED1Ev@Base 1.6
 (optional=templinst)_ZN3pcl15FieldComparisonINS_11PointXYZHSVEED2Ev@Base 1.6
 (optional=templinst)_ZN3pcl15FieldComparisonINS_11PointXYZHSVEEaSERKS2_@Base 1.6
 (optional=templinst)_ZN3pcl15FieldComparisonINS_11PointXYZRGBEEC1ERKS2_@Base 1.6
 (optional=templinst)_ZN3pcl15FieldComparisonINS_11PointXYZRGBEEC1ESsNS_13ComparisonOps9CompareOpEd@Base 1.6
 (optional=templinst)_ZN3pcl15FieldComparisonINS_11PointXYZRGBEEC1Ev@Base 1.6
 (optional=templinst)_ZN3pcl15FieldComparisonINS_11PointXYZRGBEEC2ERKS2_@Base 1.6
 (optional=templinst)_ZN3pcl15FieldComparisonINS_11PointXYZRGBEEC2ESsNS_13ComparisonOps9CompareOpEd@Base 1.6
 (optional=templinst)_ZN3pcl15FieldComparisonINS_11PointXYZRGBEEC2Ev@Base 1.6
 (optional=templinst)_ZN3pcl15FieldComparisonINS_11PointXYZRGBEED0Ev@Base 1.6
 (optional=templinst)_ZN3pcl15FieldComparisonINS_11PointXYZRGBEED1Ev@Base 1.6
 (optional=templinst)_ZN3pcl15FieldComparisonINS_11PointXYZRGBEED2Ev@Base 1.6
 (optional=templinst)_ZN3pcl15FieldComparisonINS_11PointXYZRGBEEaSERKS2_@Base 1.6
 (optional=templinst)_ZN3pcl15FieldComparisonINS_12PointXYZRGBAEEC1ERKS2_@Base 1.6
 (optional=templinst)_ZN3pcl15FieldComparisonINS_12PointXYZRGBAEEC1ESsNS_13ComparisonOps9CompareOpEd@Base 1.6
 (optional=templinst)_ZN3pcl15FieldComparisonINS_12PointXYZRGBAEEC1Ev@Base 1.6
 (optional=templinst)_ZN3pcl15FieldComparisonINS_12PointXYZRGBAEEC2ERKS2_@Base 1.6
 (optional=templinst)_ZN3pcl15FieldComparisonINS_12PointXYZRGBAEEC2ESsNS_13ComparisonOps9CompareOpEd@Base 1.6
 (optional=templinst)_ZN3pcl15FieldComparisonINS_12PointXYZRGBAEEC2Ev@Base 1.6
 (optional=templinst)_ZN3pcl15FieldComparisonINS_12PointXYZRGBAEED0Ev@Base 1.6
 (optional=templinst)_ZN3pcl15FieldComparisonINS_12PointXYZRGBAEED1Ev@Base 1.6
 (optional=templinst)_ZN3pcl15FieldComparisonINS_12PointXYZRGBAEED2Ev@Base 1.6
 (optional=templinst)_ZN3pcl15FieldComparisonINS_12PointXYZRGBAEEaSERKS2_@Base 1.6
 (optional=templinst)_ZN3pcl15FieldComparisonINS_12PointXYZRGBLEEC1ERKS2_@Base 1.6
 (optional=templinst)_ZN3pcl15FieldComparisonINS_12PointXYZRGBLEEC1ESsNS_13ComparisonOps9CompareOpEd@Base 1.6
 (optional=templinst)_ZN3pcl15FieldComparisonINS_12PointXYZRGBLEEC1Ev@Base 1.6
 (optional=templinst)_ZN3pcl15FieldComparisonINS_12PointXYZRGBLEEC2ERKS2_@Base 1.6
 (optional=templinst)_ZN3pcl15FieldComparisonINS_12PointXYZRGBLEEC2ESsNS_13ComparisonOps9CompareOpEd@Base 1.6
 (optional=templinst)_ZN3pcl15FieldComparisonINS_12PointXYZRGBLEEC2Ev@Base 1.6
 (optional=templinst)_ZN3pcl15FieldComparisonINS_12PointXYZRGBLEED0Ev@Base 1.6
 (optional=templinst)_ZN3pcl15FieldComparisonINS_12PointXYZRGBLEED1Ev@Base 1.6
 (optional=templinst)_ZN3pcl15FieldComparisonINS_12PointXYZRGBLEED2Ev@Base 1.6
 (optional=templinst)_ZN3pcl15FieldComparisonINS_12PointXYZRGBLEEaSERKS2_@Base 1.6
 (optional=templinst)_ZN3pcl15FieldComparisonINS_13InterestPointEEC1ERKS2_@Base 1.6
 (optional=templinst)_ZN3pcl15FieldComparisonINS_13InterestPointEEC1ESsNS_13ComparisonOps9CompareOpEd@Base 1.6
 (optional=templinst)_ZN3pcl15FieldComparisonINS_13InterestPointEEC1Ev@Base 1.6
 (optional=templinst)_ZN3pcl15FieldComparisonINS_13InterestPointEEC2ERKS2_@Base 1.6
 (optional=templinst)_ZN3pcl15FieldComparisonINS_13InterestPointEEC2ESsNS_13ComparisonOps9CompareOpEd@Base 1.6
 (optional=templinst)_ZN3pcl15FieldComparisonINS_13InterestPointEEC2Ev@Base 1.6
 (optional=templinst)_ZN3pcl15FieldComparisonINS_13InterestPointEED0Ev@Base 1.6
 (optional=templinst)_ZN3pcl15FieldComparisonINS_13InterestPointEED1Ev@Base 1.6
 (optional=templinst)_ZN3pcl15FieldComparisonINS_13InterestPointEED2Ev@Base 1.6
 (optional=templinst)_ZN3pcl15FieldComparisonINS_13InterestPointEEaSERKS2_@Base 1.6
 (optional=templinst)_ZN3pcl15FieldComparisonINS_14PointWithRangeEEC1ERKS2_@Base 1.6
 (optional=templinst)_ZN3pcl15FieldComparisonINS_14PointWithRangeEEC1ESsNS_13ComparisonOps9CompareOpEd@Base 1.6
 (optional=templinst)_ZN3pcl15FieldComparisonINS_14PointWithRangeEEC1Ev@Base 1.6
 (optional=templinst)_ZN3pcl15FieldComparisonINS_14PointWithRangeEEC2ERKS2_@Base 1.6
 (optional=templinst)_ZN3pcl15FieldComparisonINS_14PointWithRangeEEC2ESsNS_13ComparisonOps9CompareOpEd@Base 1.6
 (optional=templinst)_ZN3pcl15FieldComparisonINS_14PointWithRangeEEC2Ev@Base 1.6
 (optional=templinst)_ZN3pcl15FieldComparisonINS_14PointWithRangeEED0Ev@Base 1.6
 (optional=templinst)_ZN3pcl15FieldComparisonINS_14PointWithRangeEED1Ev@Base 1.6
 (optional=templinst)_ZN3pcl15FieldComparisonINS_14PointWithRangeEED2Ev@Base 1.6
 (optional=templinst)_ZN3pcl15FieldComparisonINS_14PointWithRangeEEaSERKS2_@Base 1.6
 (optional=templinst)_ZN3pcl15FieldComparisonINS_14PointWithScaleEEC1ERKS2_@Base 1.6
 (optional=templinst)_ZN3pcl15FieldComparisonINS_14PointWithScaleEEC1ESsNS_13ComparisonOps9CompareOpEd@Base 1.6
 (optional=templinst)_ZN3pcl15FieldComparisonINS_14PointWithScaleEEC1Ev@Base 1.6
 (optional=templinst)_ZN3pcl15FieldComparisonINS_14PointWithScaleEEC2ERKS2_@Base 1.6
 (optional=templinst)_ZN3pcl15FieldComparisonINS_14PointWithScaleEEC2ESsNS_13ComparisonOps9CompareOpEd@Base 1.6
 (optional=templinst)_ZN3pcl15FieldComparisonINS_14PointWithScaleEEC2Ev@Base 1.6
 (optional=templinst)_ZN3pcl15FieldComparisonINS_14PointWithScaleEED0Ev@Base 1.6
 (optional=templinst)_ZN3pcl15FieldComparisonINS_14PointWithScaleEED1Ev@Base 1.6
 (optional=templinst)_ZN3pcl15FieldComparisonINS_14PointWithScaleEED2Ev@Base 1.6
 (optional=templinst)_ZN3pcl15FieldComparisonINS_14PointWithScaleEEaSERKS2_@Base 1.6
 (optional=templinst)_ZN3pcl15FieldComparisonINS_15PointXYZINormalEEC1ERKS2_@Base 1.6
 (optional=templinst)_ZN3pcl15FieldComparisonINS_15PointXYZINormalEEC1ESsNS_13ComparisonOps9CompareOpEd@Base 1.6
 (optional=templinst)_ZN3pcl15FieldComparisonINS_15PointXYZINormalEEC1Ev@Base 1.6
 (optional=templinst)_ZN3pcl15FieldComparisonINS_15PointXYZINormalEEC2ERKS2_@Base 1.6
 (optional=templinst)_ZN3pcl15FieldComparisonINS_15PointXYZINormalEEC2ESsNS_13ComparisonOps9CompareOpEd@Base 1.6
 (optional=templinst)_ZN3pcl15FieldComparisonINS_15PointXYZINormalEEC2Ev@Base 1.6
 (optional=templinst)_ZN3pcl15FieldComparisonINS_15PointXYZINormalEED0Ev@Base 1.6
 (optional=templinst)_ZN3pcl15FieldComparisonINS_15PointXYZINormalEED1Ev@Base 1.6
 (optional=templinst)_ZN3pcl15FieldComparisonINS_15PointXYZINormalEED2Ev@Base 1.6
 (optional=templinst)_ZN3pcl15FieldComparisonINS_15PointXYZINormalEEaSERKS2_@Base 1.6
 (optional=templinst)_ZN3pcl15FieldComparisonINS_17PointXYZRGBNormalEEC1ERKS2_@Base 1.6
 (optional=templinst)_ZN3pcl15FieldComparisonINS_17PointXYZRGBNormalEEC1ESsNS_13ComparisonOps9CompareOpEd@Base 1.6
 (optional=templinst)_ZN3pcl15FieldComparisonINS_17PointXYZRGBNormalEEC1Ev@Base 1.6
 (optional=templinst)_ZN3pcl15FieldComparisonINS_17PointXYZRGBNormalEEC2ERKS2_@Base 1.6
 (optional=templinst)_ZN3pcl15FieldComparisonINS_17PointXYZRGBNormalEEC2ESsNS_13ComparisonOps9CompareOpEd@Base 1.6
 (optional=templinst)_ZN3pcl15FieldComparisonINS_17PointXYZRGBNormalEEC2Ev@Base 1.6
 (optional=templinst)_ZN3pcl15FieldComparisonINS_17PointXYZRGBNormalEED0Ev@Base 1.6
 (optional=templinst)_ZN3pcl15FieldComparisonINS_17PointXYZRGBNormalEED1Ev@Base 1.6
 (optional=templinst)_ZN3pcl15FieldComparisonINS_17PointXYZRGBNormalEED2Ev@Base 1.6
 (optional=templinst)_ZN3pcl15FieldComparisonINS_17PointXYZRGBNormalEEaSERKS2_@Base 1.6
 (optional=templinst)_ZN3pcl15FieldComparisonINS_18PointWithViewpointEEC1ERKS2_@Base 1.6
 (optional=templinst)_ZN3pcl15FieldComparisonINS_18PointWithViewpointEEC1ESsNS_13ComparisonOps9CompareOpEd@Base 1.6
 (optional=templinst)_ZN3pcl15FieldComparisonINS_18PointWithViewpointEEC1Ev@Base 1.6
 (optional=templinst)_ZN3pcl15FieldComparisonINS_18PointWithViewpointEEC2ERKS2_@Base 1.6
 (optional=templinst)_ZN3pcl15FieldComparisonINS_18PointWithViewpointEEC2ESsNS_13ComparisonOps9CompareOpEd@Base 1.6
 (optional=templinst)_ZN3pcl15FieldComparisonINS_18PointWithViewpointEEC2Ev@Base 1.6
 (optional=templinst)_ZN3pcl15FieldComparisonINS_18PointWithViewpointEED0Ev@Base 1.6
 (optional=templinst)_ZN3pcl15FieldComparisonINS_18PointWithViewpointEED1Ev@Base 1.6
 (optional=templinst)_ZN3pcl15FieldComparisonINS_18PointWithViewpointEED2Ev@Base 1.6
 (optional=templinst)_ZN3pcl15FieldComparisonINS_18PointWithViewpointEEaSERKS2_@Base 1.6
 (optional=templinst)_ZN3pcl15FieldComparisonINS_8PointXYZEEC1ERKS2_@Base 1.6
 (optional=templinst)_ZN3pcl15FieldComparisonINS_8PointXYZEEC1ESsNS_13ComparisonOps9CompareOpEd@Base 1.6
 (optional=templinst)_ZN3pcl15FieldComparisonINS_8PointXYZEEC1Ev@Base 1.6
 (optional=templinst)_ZN3pcl15FieldComparisonINS_8PointXYZEEC2ERKS2_@Base 1.6
 (optional=templinst)_ZN3pcl15FieldComparisonINS_8PointXYZEEC2ESsNS_13ComparisonOps9CompareOpEd@Base 1.6
 (optional=templinst)_ZN3pcl15FieldComparisonINS_8PointXYZEEC2Ev@Base 1.6
 (optional=templinst)_ZN3pcl15FieldComparisonINS_8PointXYZEED0Ev@Base 1.6
 (optional=templinst)_ZN3pcl15FieldComparisonINS_8PointXYZEED1Ev@Base 1.6
 (optional=templinst)_ZN3pcl15FieldComparisonINS_8PointXYZEED2Ev@Base 1.6
 (optional=templinst)_ZN3pcl15FieldComparisonINS_8PointXYZEEaSERKS2_@Base 1.6
 (optional=templinst)_ZN3pcl15FieldComparisonINS_9PointXYZIEEC1ERKS2_@Base 1.6
 (optional=templinst)_ZN3pcl15FieldComparisonINS_9PointXYZIEEC1ESsNS_13ComparisonOps9CompareOpEd@Base 1.6
 (optional=templinst)_ZN3pcl15FieldComparisonINS_9PointXYZIEEC1Ev@Base 1.6
 (optional=templinst)_ZN3pcl15FieldComparisonINS_9PointXYZIEEC2ERKS2_@Base 1.6
 (optional=templinst)_ZN3pcl15FieldComparisonINS_9PointXYZIEEC2ESsNS_13ComparisonOps9CompareOpEd@Base 1.6
 (optional=templinst)_ZN3pcl15FieldComparisonINS_9PointXYZIEEC2Ev@Base 1.6
 (optional=templinst)_ZN3pcl15FieldComparisonINS_9PointXYZIEED0Ev@Base 1.6
 (optional=templinst)_ZN3pcl15FieldComparisonINS_9PointXYZIEED1Ev@Base 1.6
 (optional=templinst)_ZN3pcl15FieldComparisonINS_9PointXYZIEED2Ev@Base 1.6
 (optional=templinst)_ZN3pcl15FieldComparisonINS_9PointXYZIEEaSERKS2_@Base 1.6
 (optional=templinst)_ZN3pcl15FieldComparisonINS_9PointXYZLEEC1ERKS2_@Base 1.6
 (optional=templinst)_ZN3pcl15FieldComparisonINS_9PointXYZLEEC1ESsNS_13ComparisonOps9CompareOpEd@Base 1.6
 (optional=templinst)_ZN3pcl15FieldComparisonINS_9PointXYZLEEC1Ev@Base 1.6
 (optional=templinst)_ZN3pcl15FieldComparisonINS_9PointXYZLEEC2ERKS2_@Base 1.6
 (optional=templinst)_ZN3pcl15FieldComparisonINS_9PointXYZLEEC2ESsNS_13ComparisonOps9CompareOpEd@Base 1.6
 (optional=templinst)_ZN3pcl15FieldComparisonINS_9PointXYZLEEC2Ev@Base 1.6
 (optional=templinst)_ZN3pcl15FieldComparisonINS_9PointXYZLEED0Ev@Base 1.6
 (optional=templinst)_ZN3pcl15FieldComparisonINS_9PointXYZLEED1Ev@Base 1.6
 (optional=templinst)_ZN3pcl15FieldComparisonINS_9PointXYZLEED2Ev@Base 1.6
 (optional=templinst)_ZN3pcl15FieldComparisonINS_9PointXYZLEEaSERKS2_@Base 1.6
 (optional=templinst)_ZN3pcl17PointDataAtOffsetINS_11PointNormalEE7compareERKS1_RKd@Base 1.6
 (optional=templinst)_ZN3pcl17PointDataAtOffsetINS_11PointNormalEEC1Ehj@Base 1.6
 (optional=templinst)_ZN3pcl17PointDataAtOffsetINS_11PointNormalEEC1Ev@Base 1.6
 (optional=templinst)_ZN3pcl17PointDataAtOffsetINS_11PointNormalEEC2Ehj@Base 1.6
 (optional=templinst)_ZN3pcl17PointDataAtOffsetINS_11PointNormalEEC2Ev@Base 1.6
 (optional=templinst)_ZN3pcl17PointDataAtOffsetINS_11PointXYZHSVEE7compareERKS1_RKd@Base 1.6
 (optional=templinst)_ZN3pcl17PointDataAtOffsetINS_11PointXYZHSVEEC1Ehj@Base 1.6
 (optional=templinst)_ZN3pcl17PointDataAtOffsetINS_11PointXYZHSVEEC1Ev@Base 1.6
 (optional=templinst)_ZN3pcl17PointDataAtOffsetINS_11PointXYZHSVEEC2Ehj@Base 1.6
 (optional=templinst)_ZN3pcl17PointDataAtOffsetINS_11PointXYZHSVEEC2Ev@Base 1.6
 (optional=templinst)_ZN3pcl17PointDataAtOffsetINS_11PointXYZRGBEE7compareERKS1_RKd@Base 1.6
 (optional=templinst)_ZN3pcl17PointDataAtOffsetINS_11PointXYZRGBEEC1Ehj@Base 1.6
 (optional=templinst)_ZN3pcl17PointDataAtOffsetINS_11PointXYZRGBEEC1Ev@Base 1.6
 (optional=templinst)_ZN3pcl17PointDataAtOffsetINS_11PointXYZRGBEEC2Ehj@Base 1.6
 (optional=templinst)_ZN3pcl17PointDataAtOffsetINS_11PointXYZRGBEEC2Ev@Base 1.6
 (optional=templinst)_ZN3pcl17PointDataAtOffsetINS_12PointXYZRGBAEE7compareERKS1_RKd@Base 1.6
 (optional=templinst)_ZN3pcl17PointDataAtOffsetINS_12PointXYZRGBAEEC1Ehj@Base 1.6
 (optional=templinst)_ZN3pcl17PointDataAtOffsetINS_12PointXYZRGBAEEC1Ev@Base 1.6
 (optional=templinst)_ZN3pcl17PointDataAtOffsetINS_12PointXYZRGBAEEC2Ehj@Base 1.6
 (optional=templinst)_ZN3pcl17PointDataAtOffsetINS_12PointXYZRGBAEEC2Ev@Base 1.6
 (optional=templinst)_ZN3pcl17PointDataAtOffsetINS_12PointXYZRGBLEE7compareERKS1_RKd@Base 1.6
 (optional=templinst)_ZN3pcl17PointDataAtOffsetINS_12PointXYZRGBLEEC1Ehj@Base 1.6
 (optional=templinst)_ZN3pcl17PointDataAtOffsetINS_12PointXYZRGBLEEC1Ev@Base 1.6
 (optional=templinst)_ZN3pcl17PointDataAtOffsetINS_12PointXYZRGBLEEC2Ehj@Base 1.6
 (optional=templinst)_ZN3pcl17PointDataAtOffsetINS_12PointXYZRGBLEEC2Ev@Base 1.6
 (optional=templinst)_ZN3pcl17PointDataAtOffsetINS_13InterestPointEE7compareERKS1_RKd@Base 1.6
 (optional=templinst)_ZN3pcl17PointDataAtOffsetINS_13InterestPointEEC1Ehj@Base 1.6
 (optional=templinst)_ZN3pcl17PointDataAtOffsetINS_13InterestPointEEC1Ev@Base 1.6
 (optional=templinst)_ZN3pcl17PointDataAtOffsetINS_13InterestPointEEC2Ehj@Base 1.6
 (optional=templinst)_ZN3pcl17PointDataAtOffsetINS_13InterestPointEEC2Ev@Base 1.6
 (optional=templinst)_ZN3pcl17PointDataAtOffsetINS_14PointWithRangeEE7compareERKS1_RKd@Base 1.6
 (optional=templinst)_ZN3pcl17PointDataAtOffsetINS_14PointWithRangeEEC1Ehj@Base 1.6
 (optional=templinst)_ZN3pcl17PointDataAtOffsetINS_14PointWithRangeEEC1Ev@Base 1.6
 (optional=templinst)_ZN3pcl17PointDataAtOffsetINS_14PointWithRangeEEC2Ehj@Base 1.6
 (optional=templinst)_ZN3pcl17PointDataAtOffsetINS_14PointWithRangeEEC2Ev@Base 1.6
 (optional=templinst)_ZN3pcl17PointDataAtOffsetINS_14PointWithScaleEE7compareERKS1_RKd@Base 1.6
 (optional=templinst)_ZN3pcl17PointDataAtOffsetINS_14PointWithScaleEEC1Ehj@Base 1.6
 (optional=templinst)_ZN3pcl17PointDataAtOffsetINS_14PointWithScaleEEC1Ev@Base 1.6
 (optional=templinst)_ZN3pcl17PointDataAtOffsetINS_14PointWithScaleEEC2Ehj@Base 1.6
 (optional=templinst)_ZN3pcl17PointDataAtOffsetINS_14PointWithScaleEEC2Ev@Base 1.6
 (optional=templinst)_ZN3pcl17PointDataAtOffsetINS_15PointXYZINormalEE7compareERKS1_RKd@Base 1.6
 (optional=templinst)_ZN3pcl17PointDataAtOffsetINS_15PointXYZINormalEEC1Ehj@Base 1.6
 (optional=templinst)_ZN3pcl17PointDataAtOffsetINS_15PointXYZINormalEEC1Ev@Base 1.6
 (optional=templinst)_ZN3pcl17PointDataAtOffsetINS_15PointXYZINormalEEC2Ehj@Base 1.6
 (optional=templinst)_ZN3pcl17PointDataAtOffsetINS_15PointXYZINormalEEC2Ev@Base 1.6
 (optional=templinst)_ZN3pcl17PointDataAtOffsetINS_17PointXYZRGBNormalEE7compareERKS1_RKd@Base 1.6
 (optional=templinst)_ZN3pcl17PointDataAtOffsetINS_17PointXYZRGBNormalEEC1Ehj@Base 1.6
 (optional=templinst)_ZN3pcl17PointDataAtOffsetINS_17PointXYZRGBNormalEEC1Ev@Base 1.6
 (optional=templinst)_ZN3pcl17PointDataAtOffsetINS_17PointXYZRGBNormalEEC2Ehj@Base 1.6
 (optional=templinst)_ZN3pcl17PointDataAtOffsetINS_17PointXYZRGBNormalEEC2Ev@Base 1.6
 (optional=templinst)_ZN3pcl17PointDataAtOffsetINS_18PointWithViewpointEE7compareERKS1_RKd@Base 1.6
 (optional=templinst)_ZN3pcl17PointDataAtOffsetINS_18PointWithViewpointEEC1Ehj@Base 1.6
 (optional=templinst)_ZN3pcl17PointDataAtOffsetINS_18PointWithViewpointEEC1Ev@Base 1.6
 (optional=templinst)_ZN3pcl17PointDataAtOffsetINS_18PointWithViewpointEEC2Ehj@Base 1.6
 (optional=templinst)_ZN3pcl17PointDataAtOffsetINS_18PointWithViewpointEEC2Ev@Base 1.6
 (optional=templinst)_ZN3pcl17PointDataAtOffsetINS_8PointXYZEE7compareERKS1_RKd@Base 1.6
 (optional=templinst)_ZN3pcl17PointDataAtOffsetINS_8PointXYZEEC1Ehj@Base 1.6
 (optional=templinst)_ZN3pcl17PointDataAtOffsetINS_8PointXYZEEC1Ev@Base 1.6
 (optional=templinst)_ZN3pcl17PointDataAtOffsetINS_8PointXYZEEC2Ehj@Base 1.6
 (optional=templinst)_ZN3pcl17PointDataAtOffsetINS_8PointXYZEEC2Ev@Base 1.6
 (optional=templinst)_ZN3pcl17PointDataAtOffsetINS_9PointXYZIEE7compareERKS1_RKd@Base 1.6
 (optional=templinst)_ZN3pcl17PointDataAtOffsetINS_9PointXYZIEEC1Ehj@Base 1.6
 (optional=templinst)_ZN3pcl17PointDataAtOffsetINS_9PointXYZIEEC1Ev@Base 1.6
 (optional=templinst)_ZN3pcl17PointDataAtOffsetINS_9PointXYZIEEC2Ehj@Base 1.6
 (optional=templinst)_ZN3pcl17PointDataAtOffsetINS_9PointXYZIEEC2Ev@Base 1.6
 (optional=templinst)_ZN3pcl17PointDataAtOffsetINS_9PointXYZLEE7compareERKS1_RKd@Base 1.6
 (optional=templinst)_ZN3pcl17PointDataAtOffsetINS_9PointXYZLEEC1Ehj@Base 1.6
 (optional=templinst)_ZN3pcl17PointDataAtOffsetINS_9PointXYZLEEC1Ev@Base 1.6
 (optional=templinst)_ZN3pcl17PointDataAtOffsetINS_9PointXYZLEEC2Ehj@Base 1.6
 (optional=templinst)_ZN3pcl17PointDataAtOffsetINS_9PointXYZLEEC2Ev@Base 1.6
 _ZN3pcl17getTransformationEffffffRN5Eigen9TransformIfLi3ELi2ELi0EEE@Base 1.6
 (optional=templinst)_ZN3pcl18ConditionalRemovalINS_11PointNormalEE11applyFilterERNS_10PointCloudIS1_EE@Base 1.6
 (optional=templinst)_ZN3pcl18ConditionalRemovalINS_11PointNormalEE12setConditionEN5boost10shared_ptrINS_13ConditionBaseIS1_EEEE@Base 1.6
 (optional=templinst)_ZN3pcl18ConditionalRemovalINS_11PointNormalEE16setKeepOrganizedEb@Base 1.6
 (optional=templinst)_ZN3pcl18ConditionalRemovalINS_11PointNormalEE18setUserFilterValueEf@Base 1.6
 (optional=templinst)_ZN3pcl18ConditionalRemovalINS_11PointNormalEEC1EN5boost10shared_ptrINS_13ConditionBaseIS1_EEEEb@Base 1.6
 (optional=templinst)_ZN3pcl18ConditionalRemovalINS_11PointNormalEEC1Ei@Base 1.6
 (optional=templinst)_ZN3pcl18ConditionalRemovalINS_11PointNormalEEC2EN5boost10shared_ptrINS_13ConditionBaseIS1_EEEEb@Base 1.6
 (optional=templinst)_ZN3pcl18ConditionalRemovalINS_11PointNormalEEC2Ei@Base 1.6
 (optional=templinst)_ZN3pcl18ConditionalRemovalINS_11PointNormalEED0Ev@Base 1.6
 (optional=templinst)_ZN3pcl18ConditionalRemovalINS_11PointNormalEED1Ev@Base 1.6
 (optional=templinst)_ZN3pcl18ConditionalRemovalINS_11PointNormalEED2Ev@Base 1.6
 (optional=templinst)_ZN3pcl18ConditionalRemovalINS_11PointXYZHSVEE11applyFilterERNS_10PointCloudIS1_EE@Base 1.6
 (optional=templinst)_ZN3pcl18ConditionalRemovalINS_11PointXYZHSVEE12setConditionEN5boost10shared_ptrINS_13ConditionBaseIS1_EEEE@Base 1.6
 (optional=templinst)_ZN3pcl18ConditionalRemovalINS_11PointXYZHSVEE16setKeepOrganizedEb@Base 1.6
 (optional=templinst)_ZN3pcl18ConditionalRemovalINS_11PointXYZHSVEE18setUserFilterValueEf@Base 1.6
 (optional=templinst)_ZN3pcl18ConditionalRemovalINS_11PointXYZHSVEEC1EN5boost10shared_ptrINS_13ConditionBaseIS1_EEEEb@Base 1.6
 (optional=templinst)_ZN3pcl18ConditionalRemovalINS_11PointXYZHSVEEC1Ei@Base 1.6
 (optional=templinst)_ZN3pcl18ConditionalRemovalINS_11PointXYZHSVEEC2EN5boost10shared_ptrINS_13ConditionBaseIS1_EEEEb@Base 1.6
 (optional=templinst)_ZN3pcl18ConditionalRemovalINS_11PointXYZHSVEEC2Ei@Base 1.6
 (optional=templinst)_ZN3pcl18ConditionalRemovalINS_11PointXYZHSVEED0Ev@Base 1.6
 (optional=templinst)_ZN3pcl18ConditionalRemovalINS_11PointXYZHSVEED1Ev@Base 1.6
 (optional=templinst)_ZN3pcl18ConditionalRemovalINS_11PointXYZHSVEED2Ev@Base 1.6
 (optional=templinst)_ZN3pcl18ConditionalRemovalINS_11PointXYZRGBEE11applyFilterERNS_10PointCloudIS1_EE@Base 1.6
 (optional=templinst)_ZN3pcl18ConditionalRemovalINS_11PointXYZRGBEE12setConditionEN5boost10shared_ptrINS_13ConditionBaseIS1_EEEE@Base 1.6
 (optional=templinst)_ZN3pcl18ConditionalRemovalINS_11PointXYZRGBEE16setKeepOrganizedEb@Base 1.6
 (optional=templinst)_ZN3pcl18ConditionalRemovalINS_11PointXYZRGBEE18setUserFilterValueEf@Base 1.6
 (optional=templinst)_ZN3pcl18ConditionalRemovalINS_11PointXYZRGBEEC1EN5boost10shared_ptrINS_13ConditionBaseIS1_EEEEb@Base 1.6
 (optional=templinst)_ZN3pcl18ConditionalRemovalINS_11PointXYZRGBEEC1Ei@Base 1.6
 (optional=templinst)_ZN3pcl18ConditionalRemovalINS_11PointXYZRGBEEC2EN5boost10shared_ptrINS_13ConditionBaseIS1_EEEEb@Base 1.6
 (optional=templinst)_ZN3pcl18ConditionalRemovalINS_11PointXYZRGBEEC2Ei@Base 1.6
 (optional=templinst)_ZN3pcl18ConditionalRemovalINS_11PointXYZRGBEED0Ev@Base 1.6
 (optional=templinst)_ZN3pcl18ConditionalRemovalINS_11PointXYZRGBEED1Ev@Base 1.6
 (optional=templinst)_ZN3pcl18ConditionalRemovalINS_11PointXYZRGBEED2Ev@Base 1.6
 (optional=templinst)_ZN3pcl18ConditionalRemovalINS_12PointXYZRGBAEE11applyFilterERNS_10PointCloudIS1_EE@Base 1.6
 (optional=templinst)_ZN3pcl18ConditionalRemovalINS_12PointXYZRGBAEE12setConditionEN5boost10shared_ptrINS_13ConditionBaseIS1_EEEE@Base 1.6
 (optional=templinst)_ZN3pcl18ConditionalRemovalINS_12PointXYZRGBAEE16setKeepOrganizedEb@Base 1.6
 (optional=templinst)_ZN3pcl18ConditionalRemovalINS_12PointXYZRGBAEE18setUserFilterValueEf@Base 1.6
 (optional=templinst)_ZN3pcl18ConditionalRemovalINS_12PointXYZRGBAEEC1EN5boost10shared_ptrINS_13ConditionBaseIS1_EEEEb@Base 1.6
 (optional=templinst)_ZN3pcl18ConditionalRemovalINS_12PointXYZRGBAEEC1Ei@Base 1.6
 (optional=templinst)_ZN3pcl18ConditionalRemovalINS_12PointXYZRGBAEEC2EN5boost10shared_ptrINS_13ConditionBaseIS1_EEEEb@Base 1.6
 (optional=templinst)_ZN3pcl18ConditionalRemovalINS_12PointXYZRGBAEEC2Ei@Base 1.6
 (optional=templinst)_ZN3pcl18ConditionalRemovalINS_12PointXYZRGBAEED0Ev@Base 1.6
 (optional=templinst)_ZN3pcl18ConditionalRemovalINS_12PointXYZRGBAEED1Ev@Base 1.6
 (optional=templinst)_ZN3pcl18ConditionalRemovalINS_12PointXYZRGBAEED2Ev@Base 1.6
 (optional=templinst)_ZN3pcl18ConditionalRemovalINS_12PointXYZRGBLEE11applyFilterERNS_10PointCloudIS1_EE@Base 1.6
 (optional=templinst)_ZN3pcl18ConditionalRemovalINS_12PointXYZRGBLEE12setConditionEN5boost10shared_ptrINS_13ConditionBaseIS1_EEEE@Base 1.6
 (optional=templinst)_ZN3pcl18ConditionalRemovalINS_12PointXYZRGBLEE16setKeepOrganizedEb@Base 1.6
 (optional=templinst)_ZN3pcl18ConditionalRemovalINS_12PointXYZRGBLEE18setUserFilterValueEf@Base 1.6
 (optional=templinst)_ZN3pcl18ConditionalRemovalINS_12PointXYZRGBLEEC1EN5boost10shared_ptrINS_13ConditionBaseIS1_EEEEb@Base 1.6
 (optional=templinst)_ZN3pcl18ConditionalRemovalINS_12PointXYZRGBLEEC1Ei@Base 1.6
 (optional=templinst)_ZN3pcl18ConditionalRemovalINS_12PointXYZRGBLEEC2EN5boost10shared_ptrINS_13ConditionBaseIS1_EEEEb@Base 1.6
 (optional=templinst)_ZN3pcl18ConditionalRemovalINS_12PointXYZRGBLEEC2Ei@Base 1.6
 (optional=templinst)_ZN3pcl18ConditionalRemovalINS_12PointXYZRGBLEED0Ev@Base 1.6
 (optional=templinst)_ZN3pcl18ConditionalRemovalINS_12PointXYZRGBLEED1Ev@Base 1.6
 (optional=templinst)_ZN3pcl18ConditionalRemovalINS_12PointXYZRGBLEED2Ev@Base 1.6
 (optional=templinst)_ZN3pcl18ConditionalRemovalINS_13InterestPointEE11applyFilterERNS_10PointCloudIS1_EE@Base 1.6
 (optional=templinst)_ZN3pcl18ConditionalRemovalINS_13InterestPointEE12setConditionEN5boost10shared_ptrINS_13ConditionBaseIS1_EEEE@Base 1.6
 (optional=templinst)_ZN3pcl18ConditionalRemovalINS_13InterestPointEE16setKeepOrganizedEb@Base 1.6
 (optional=templinst)_ZN3pcl18ConditionalRemovalINS_13InterestPointEE18setUserFilterValueEf@Base 1.6
 (optional=templinst)_ZN3pcl18ConditionalRemovalINS_13InterestPointEEC1EN5boost10shared_ptrINS_13ConditionBaseIS1_EEEEb@Base 1.6
 (optional=templinst)_ZN3pcl18ConditionalRemovalINS_13InterestPointEEC1Ei@Base 1.6
 (optional=templinst)_ZN3pcl18ConditionalRemovalINS_13InterestPointEEC2EN5boost10shared_ptrINS_13ConditionBaseIS1_EEEEb@Base 1.6
 (optional=templinst)_ZN3pcl18ConditionalRemovalINS_13InterestPointEEC2Ei@Base 1.6
 (optional=templinst)_ZN3pcl18ConditionalRemovalINS_13InterestPointEED0Ev@Base 1.6
 (optional=templinst)_ZN3pcl18ConditionalRemovalINS_13InterestPointEED1Ev@Base 1.6
 (optional=templinst)_ZN3pcl18ConditionalRemovalINS_13InterestPointEED2Ev@Base 1.6
 (optional=templinst)_ZN3pcl18ConditionalRemovalINS_14PointWithRangeEE11applyFilterERNS_10PointCloudIS1_EE@Base 1.6
 (optional=templinst)_ZN3pcl18ConditionalRemovalINS_14PointWithRangeEE12setConditionEN5boost10shared_ptrINS_13ConditionBaseIS1_EEEE@Base 1.6
 (optional=templinst)_ZN3pcl18ConditionalRemovalINS_14PointWithRangeEE16setKeepOrganizedEb@Base 1.6
 (optional=templinst)_ZN3pcl18ConditionalRemovalINS_14PointWithRangeEE18setUserFilterValueEf@Base 1.6
 (optional=templinst)_ZN3pcl18ConditionalRemovalINS_14PointWithRangeEEC1EN5boost10shared_ptrINS_13ConditionBaseIS1_EEEEb@Base 1.6
 (optional=templinst)_ZN3pcl18ConditionalRemovalINS_14PointWithRangeEEC1Ei@Base 1.6
 (optional=templinst)_ZN3pcl18ConditionalRemovalINS_14PointWithRangeEEC2EN5boost10shared_ptrINS_13ConditionBaseIS1_EEEEb@Base 1.6
 (optional=templinst)_ZN3pcl18ConditionalRemovalINS_14PointWithRangeEEC2Ei@Base 1.6
 (optional=templinst)_ZN3pcl18ConditionalRemovalINS_14PointWithRangeEED0Ev@Base 1.6
 (optional=templinst)_ZN3pcl18ConditionalRemovalINS_14PointWithRangeEED1Ev@Base 1.6
 (optional=templinst)_ZN3pcl18ConditionalRemovalINS_14PointWithRangeEED2Ev@Base 1.6
 (optional=templinst)_ZN3pcl18ConditionalRemovalINS_14PointWithScaleEE11applyFilterERNS_10PointCloudIS1_EE@Base 1.6
 (optional=templinst)_ZN3pcl18ConditionalRemovalINS_14PointWithScaleEE12setConditionEN5boost10shared_ptrINS_13ConditionBaseIS1_EEEE@Base 1.6
 (optional=templinst)_ZN3pcl18ConditionalRemovalINS_14PointWithScaleEE16setKeepOrganizedEb@Base 1.6
 (optional=templinst)_ZN3pcl18ConditionalRemovalINS_14PointWithScaleEE18setUserFilterValueEf@Base 1.6
 (optional=templinst)_ZN3pcl18ConditionalRemovalINS_14PointWithScaleEEC1EN5boost10shared_ptrINS_13ConditionBaseIS1_EEEEb@Base 1.6
 (optional=templinst)_ZN3pcl18ConditionalRemovalINS_14PointWithScaleEEC1Ei@Base 1.6
 (optional=templinst)_ZN3pcl18ConditionalRemovalINS_14PointWithScaleEEC2EN5boost10shared_ptrINS_13ConditionBaseIS1_EEEEb@Base 1.6
 (optional=templinst)_ZN3pcl18ConditionalRemovalINS_14PointWithScaleEEC2Ei@Base 1.6
 (optional=templinst)_ZN3pcl18ConditionalRemovalINS_14PointWithScaleEED0Ev@Base 1.6
 (optional=templinst)_ZN3pcl18ConditionalRemovalINS_14PointWithScaleEED1Ev@Base 1.6
 (optional=templinst)_ZN3pcl18ConditionalRemovalINS_14PointWithScaleEED2Ev@Base 1.6
 (optional=templinst)_ZN3pcl18ConditionalRemovalINS_15PointXYZINormalEE11applyFilterERNS_10PointCloudIS1_EE@Base 1.6
 (optional=templinst)_ZN3pcl18ConditionalRemovalINS_15PointXYZINormalEE12setConditionEN5boost10shared_ptrINS_13ConditionBaseIS1_EEEE@Base 1.6
 (optional=templinst)_ZN3pcl18ConditionalRemovalINS_15PointXYZINormalEE16setKeepOrganizedEb@Base 1.6
 (optional=templinst)_ZN3pcl18ConditionalRemovalINS_15PointXYZINormalEE18setUserFilterValueEf@Base 1.6
 (optional=templinst)_ZN3pcl18ConditionalRemovalINS_15PointXYZINormalEEC1EN5boost10shared_ptrINS_13ConditionBaseIS1_EEEEb@Base 1.6
 (optional=templinst)_ZN3pcl18ConditionalRemovalINS_15PointXYZINormalEEC1Ei@Base 1.6
 (optional=templinst)_ZN3pcl18ConditionalRemovalINS_15PointXYZINormalEEC2EN5boost10shared_ptrINS_13ConditionBaseIS1_EEEEb@Base 1.6
 (optional=templinst)_ZN3pcl18ConditionalRemovalINS_15PointXYZINormalEEC2Ei@Base 1.6
 (optional=templinst)_ZN3pcl18ConditionalRemovalINS_15PointXYZINormalEED0Ev@Base 1.6
 (optional=templinst)_ZN3pcl18ConditionalRemovalINS_15PointXYZINormalEED1Ev@Base 1.6
 (optional=templinst)_ZN3pcl18ConditionalRemovalINS_15PointXYZINormalEED2Ev@Base 1.6
 (optional=templinst)_ZN3pcl18ConditionalRemovalINS_17PointXYZRGBNormalEE11applyFilterERNS_10PointCloudIS1_EE@Base 1.6
 (optional=templinst)_ZN3pcl18ConditionalRemovalINS_17PointXYZRGBNormalEE12setConditionEN5boost10shared_ptrINS_13ConditionBaseIS1_EEEE@Base 1.6
 (optional=templinst)_ZN3pcl18ConditionalRemovalINS_17PointXYZRGBNormalEE16setKeepOrganizedEb@Base 1.6
 (optional=templinst)_ZN3pcl18ConditionalRemovalINS_17PointXYZRGBNormalEE18setUserFilterValueEf@Base 1.6
 (optional=templinst)_ZN3pcl18ConditionalRemovalINS_17PointXYZRGBNormalEEC1EN5boost10shared_ptrINS_13ConditionBaseIS1_EEEEb@Base 1.6
 (optional=templinst)_ZN3pcl18ConditionalRemovalINS_17PointXYZRGBNormalEEC1Ei@Base 1.6
 (optional=templinst)_ZN3pcl18ConditionalRemovalINS_17PointXYZRGBNormalEEC2EN5boost10shared_ptrINS_13ConditionBaseIS1_EEEEb@Base 1.6
 (optional=templinst)_ZN3pcl18ConditionalRemovalINS_17PointXYZRGBNormalEEC2Ei@Base 1.6
 (optional=templinst)_ZN3pcl18ConditionalRemovalINS_17PointXYZRGBNormalEED0Ev@Base 1.6
 (optional=templinst)_ZN3pcl18ConditionalRemovalINS_17PointXYZRGBNormalEED1Ev@Base 1.6
 (optional=templinst)_ZN3pcl18ConditionalRemovalINS_17PointXYZRGBNormalEED2Ev@Base 1.6
 (optional=templinst)_ZN3pcl18ConditionalRemovalINS_18PointWithViewpointEE11applyFilterERNS_10PointCloudIS1_EE@Base 1.6
 (optional=templinst)_ZN3pcl18ConditionalRemovalINS_18PointWithViewpointEE12setConditionEN5boost10shared_ptrINS_13ConditionBaseIS1_EEEE@Base 1.6
 (optional=templinst)_ZN3pcl18ConditionalRemovalINS_18PointWithViewpointEE16setKeepOrganizedEb@Base 1.6
 (optional=templinst)_ZN3pcl18ConditionalRemovalINS_18PointWithViewpointEE18setUserFilterValueEf@Base 1.6
 (optional=templinst)_ZN3pcl18ConditionalRemovalINS_18PointWithViewpointEEC1EN5boost10shared_ptrINS_13ConditionBaseIS1_EEEEb@Base 1.6
 (optional=templinst)_ZN3pcl18ConditionalRemovalINS_18PointWithViewpointEEC1Ei@Base 1.6
 (optional=templinst)_ZN3pcl18ConditionalRemovalINS_18PointWithViewpointEEC2EN5boost10shared_ptrINS_13ConditionBaseIS1_EEEEb@Base 1.6
 (optional=templinst)_ZN3pcl18ConditionalRemovalINS_18PointWithViewpointEEC2Ei@Base 1.6
 (optional=templinst)_ZN3pcl18ConditionalRemovalINS_18PointWithViewpointEED0Ev@Base 1.6
 (optional=templinst)_ZN3pcl18ConditionalRemovalINS_18PointWithViewpointEED1Ev@Base 1.6
 (optional=templinst)_ZN3pcl18ConditionalRemovalINS_18PointWithViewpointEED2Ev@Base 1.6
 (optional=templinst)_ZN3pcl18ConditionalRemovalINS_8PointXYZEE11applyFilterERNS_10PointCloudIS1_EE@Base 1.6
 (optional=templinst)_ZN3pcl18ConditionalRemovalINS_8PointXYZEE12setConditionEN5boost10shared_ptrINS_13ConditionBaseIS1_EEEE@Base 1.6
 (optional=templinst)_ZN3pcl18ConditionalRemovalINS_8PointXYZEE16setKeepOrganizedEb@Base 1.6
 (optional=templinst)_ZN3pcl18ConditionalRemovalINS_8PointXYZEE18setUserFilterValueEf@Base 1.6
 (optional=templinst)_ZN3pcl18ConditionalRemovalINS_8PointXYZEEC1EN5boost10shared_ptrINS_13ConditionBaseIS1_EEEEb@Base 1.6
 (optional=templinst)_ZN3pcl18ConditionalRemovalINS_8PointXYZEEC1Ei@Base 1.6
 (optional=templinst)_ZN3pcl18ConditionalRemovalINS_8PointXYZEEC2EN5boost10shared_ptrINS_13ConditionBaseIS1_EEEEb@Base 1.6
 (optional=templinst)_ZN3pcl18ConditionalRemovalINS_8PointXYZEEC2Ei@Base 1.6
 (optional=templinst)_ZN3pcl18ConditionalRemovalINS_8PointXYZEED0Ev@Base 1.6
 (optional=templinst)_ZN3pcl18ConditionalRemovalINS_8PointXYZEED1Ev@Base 1.6
 (optional=templinst)_ZN3pcl18ConditionalRemovalINS_8PointXYZEED2Ev@Base 1.6
 (optional=templinst)_ZN3pcl18ConditionalRemovalINS_9PointXYZIEE11applyFilterERNS_10PointCloudIS1_EE@Base 1.6
 (optional=templinst)_ZN3pcl18ConditionalRemovalINS_9PointXYZIEE12setConditionEN5boost10shared_ptrINS_13ConditionBaseIS1_EEEE@Base 1.6
 (optional=templinst)_ZN3pcl18ConditionalRemovalINS_9PointXYZIEE16setKeepOrganizedEb@Base 1.6
 (optional=templinst)_ZN3pcl18ConditionalRemovalINS_9PointXYZIEE18setUserFilterValueEf@Base 1.6
 (optional=templinst)_ZN3pcl18ConditionalRemovalINS_9PointXYZIEEC1EN5boost10shared_ptrINS_13ConditionBaseIS1_EEEEb@Base 1.6
 (optional=templinst)_ZN3pcl18ConditionalRemovalINS_9PointXYZIEEC1Ei@Base 1.6
 (optional=templinst)_ZN3pcl18ConditionalRemovalINS_9PointXYZIEEC2EN5boost10shared_ptrINS_13ConditionBaseIS1_EEEEb@Base 1.6
 (optional=templinst)_ZN3pcl18ConditionalRemovalINS_9PointXYZIEEC2Ei@Base 1.6
 (optional=templinst)_ZN3pcl18ConditionalRemovalINS_9PointXYZIEED0Ev@Base 1.6
 (optional=templinst)_ZN3pcl18ConditionalRemovalINS_9PointXYZIEED1Ev@Base 1.6
 (optional=templinst)_ZN3pcl18ConditionalRemovalINS_9PointXYZIEED2Ev@Base 1.6
 (optional=templinst)_ZN3pcl18ConditionalRemovalINS_9PointXYZLEE11applyFilterERNS_10PointCloudIS1_EE@Base 1.6
 (optional=templinst)_ZN3pcl18ConditionalRemovalINS_9PointXYZLEE12setConditionEN5boost10shared_ptrINS_13ConditionBaseIS1_EEEE@Base 1.6
 (optional=templinst)_ZN3pcl18ConditionalRemovalINS_9PointXYZLEE16setKeepOrganizedEb@Base 1.6
 (optional=templinst)_ZN3pcl18ConditionalRemovalINS_9PointXYZLEE18setUserFilterValueEf@Base 1.6
 (optional=templinst)_ZN3pcl18ConditionalRemovalINS_9PointXYZLEEC1EN5boost10shared_ptrINS_13ConditionBaseIS1_EEEEb@Base 1.6
 (optional=templinst)_ZN3pcl18ConditionalRemovalINS_9PointXYZLEEC1Ei@Base 1.6
 (optional=templinst)_ZN3pcl18ConditionalRemovalINS_9PointXYZLEEC2EN5boost10shared_ptrINS_13ConditionBaseIS1_EEEEb@Base 1.6
 (optional=templinst)_ZN3pcl18ConditionalRemovalINS_9PointXYZLEEC2Ei@Base 1.6
 (optional=templinst)_ZN3pcl18ConditionalRemovalINS_9PointXYZLEED0Ev@Base 1.6
 (optional=templinst)_ZN3pcl18ConditionalRemovalINS_9PointXYZLEED1Ev@Base 1.6
 (optional=templinst)_ZN3pcl18ConditionalRemovalINS_9PointXYZLEED2Ev@Base 1.6
 (optional=templinst)_ZN3pcl18for_each_type_implILb0EE7executeIN5boost3mpl6v_iterINS4_6vectorINS_6fields1xENS7_1yENS7_1zEN4mpl_2naESC_SC_SC_SC_SC_SC_SC_SC_SC_SC_SC_SC_SC_SC_SC_SC_EELl1EEENS5_ISD_Ll3EEENS_20NdConcatenateFunctorINS_8PointXYZESH_EEEEvT1_@Base 1.6
 (optional=templinst)_ZN3pcl18for_each_type_implILb0EE7executeIN5boost3mpl6v_iterINS4_6vectorINS_6fields1xENS7_1yENS7_1zENS7_1hENS7_1sENS7_1vEN4mpl_2naESF_SF_SF_SF_SF_SF_SF_SF_SF_SF_SF_SF_SF_EELl1EEENS5_ISG_Ll6EEENS_20NdConcatenateFunctorINS_11PointXYZHSVESK_EEEEvT1_@Base 1.6
 (optional=templinst)_ZN3pcl18for_each_type_implILb0EE7executeIN5boost3mpl6v_iterINS4_6vectorINS_6fields1xENS7_1yENS7_1zENS7_1hENS7_1sENS7_1vEN4mpl_2naESF_SF_SF_SF_SF_SF_SF_SF_SF_SF_SF_SF_SF_EELl1EEENS5_ISG_Ll6EEENS_6detail10FieldAdderINS_11PointXYZHSVEEEEEvT1_@Base 1.6
 (optional=templinst)_ZN3pcl18for_each_type_implILb0EE7executeIN5boost3mpl6v_iterINS4_6vectorINS_6fields1xENS7_1yENS7_1zENS7_1hENS7_1sENS7_1vEN4mpl_2naESF_SF_SF_SF_SF_SF_SF_SF_SF_SF_SF_SF_SF_EELl2EEENS5_ISG_Ll6EEENS_6detail10FieldAdderINS_11PointXYZHSVEEEEEvT1_@Base 1.6
 (optional=templinst)_ZN3pcl18for_each_type_implILb0EE7executeIN5boost3mpl6v_iterINS4_6vectorINS_6fields1xENS7_1yENS7_1zENS7_1hENS7_1sENS7_1vEN4mpl_2naESF_SF_SF_SF_SF_SF_SF_SF_SF_SF_SF_SF_SF_EELl4EEENS5_ISG_Ll6EEENS_20NdConcatenateFunctorINS_11PointXYZHSVESK_EEEEvT1_@Base 1.6
 (optional=templinst)_ZN3pcl18for_each_type_implILb0EE7executeIN5boost3mpl6v_iterINS4_6vectorINS_6fields1xENS7_1yENS7_1zENS7_3rgbEN4mpl_2naESD_SD_SD_SD_SD_SD_SD_SD_SD_SD_SD_SD_SD_SD_SD_EELl0EEENS5_ISE_Ll4EEENS_20NdConcatenateFunctorINS_11PointXYZRGBESI_EEEEvT1_@Base 1.6
 (optional=templinst)_ZN3pcl18for_each_type_implILb0EE7executeIN5boost3mpl6v_iterINS4_6vectorINS_6fields1xENS7_1yENS7_1zENS7_3rgbEN4mpl_2naESD_SD_SD_SD_SD_SD_SD_SD_SD_SD_SD_SD_SD_SD_SD_EELl0EEENS5_ISE_Ll4EEENS_6detail10FieldAdderINS_11PointXYZRGBEEEEEvT1_@Base 1.6
 (optional=templinst)_ZN3pcl18for_each_type_implILb0EE7executeIN5boost3mpl6v_iterINS4_6vectorINS_6fields1xENS7_1yENS7_1zENS7_3rgbEN4mpl_2naESD_SD_SD_SD_SD_SD_SD_SD_SD_SD_SD_SD_SD_SD_SD_EELl2EEENS5_ISE_Ll4EEENS_20NdConcatenateFunctorINS_11PointXYZRGBESI_EEEEvT1_@Base 1.6
 (optional=templinst)_ZN3pcl18for_each_type_implILb0EE7executeIN5boost3mpl6v_iterINS4_6vectorINS_6fields1xENS7_1yENS7_1zENS7_3rgbENS7_8normal_xENS7_8normal_yENS7_8normal_zENS7_9curvatureEN4mpl_2naESH_SH_SH_SH_SH_SH_SH_SH_SH_SH_SH_EELl0EEENS5_ISI_Ll8EEENS_20NdConcatenateFunctorINS_17PointXYZRGBNormalESM_EEEEvT1_@Base 1.6
 (optional=templinst)_ZN3pcl18for_each_type_implILb0EE7executeIN5boost3mpl6v_iterINS4_6vectorINS_6fields1xENS7_1yENS7_1zENS7_3rgbENS7_8normal_xENS7_8normal_yENS7_8normal_zENS7_9curvatureEN4mpl_2naESH_SH_SH_SH_SH_SH_SH_SH_SH_SH_SH_EELl0EEENS5_ISI_Ll8EEENS_6detail10FieldAdderINS_17PointXYZRGBNormalEEEEEvT1_@Base 1.6
 (optional=templinst)_ZN3pcl18for_each_type_implILb0EE7executeIN5boost3mpl6v_iterINS4_6vectorINS_6fields1xENS7_1yENS7_1zENS7_3rgbENS7_8normal_xENS7_8normal_yENS7_8normal_zENS7_9curvatureEN4mpl_2naESH_SH_SH_SH_SH_SH_SH_SH_SH_SH_SH_EELl2EEENS5_ISI_Ll8EEENS_20NdConcatenateFunctorINS_17PointXYZRGBNormalESM_EEEEvT1_@Base 1.6
 (optional=templinst)_ZN3pcl18for_each_type_implILb0EE7executeIN5boost3mpl6v_iterINS4_6vectorINS_6fields1xENS7_1yENS7_1zENS7_3rgbENS7_8normal_xENS7_8normal_yENS7_8normal_zENS7_9curvatureEN4mpl_2naESH_SH_SH_SH_SH_SH_SH_SH_SH_SH_SH_EELl3EEENS5_ISI_Ll8EEENS_6detail10FieldAdderINS_17PointXYZRGBNormalEEEEEvT1_@Base 1.6
 (optional=templinst)_ZN3pcl18for_each_type_implILb0EE7executeIN5boost3mpl6v_iterINS4_6vectorINS_6fields1xENS7_1yENS7_1zENS7_3rgbENS7_8normal_xENS7_8normal_yENS7_8normal_zENS7_9curvatureEN4mpl_2naESH_SH_SH_SH_SH_SH_SH_SH_SH_SH_SH_EELl6EEENS5_ISI_Ll8EEENS_20NdConcatenateFunctorINS_17PointXYZRGBNormalESM_EEEEvT1_@Base 1.6
 (optional=templinst)_ZN3pcl18for_each_type_implILb0EE7executeIN5boost3mpl6v_iterINS4_6vectorINS_6fields1xENS7_1yENS7_1zENS7_4rgbaEN4mpl_2naESD_SD_SD_SD_SD_SD_SD_SD_SD_SD_SD_SD_SD_SD_SD_EELl0EEENS5_ISE_Ll4EEENS_20NdConcatenateFunctorINS_12PointXYZRGBAESI_EEEEvT1_@Base 1.6
 (optional=templinst)_ZN3pcl18for_each_type_implILb0EE7executeIN5boost3mpl6v_iterINS4_6vectorINS_6fields1xENS7_1yENS7_1zENS7_4rgbaEN4mpl_2naESD_SD_SD_SD_SD_SD_SD_SD_SD_SD_SD_SD_SD_SD_SD_EELl0EEENS5_ISE_Ll4EEENS_6detail10FieldAdderINS_12PointXYZRGBAEEEEEvT1_@Base 1.6
 (optional=templinst)_ZN3pcl18for_each_type_implILb0EE7executeIN5boost3mpl6v_iterINS4_6vectorINS_6fields1xENS7_1yENS7_1zENS7_4rgbaEN4mpl_2naESD_SD_SD_SD_SD_SD_SD_SD_SD_SD_SD_SD_SD_SD_SD_EELl2EEENS5_ISE_Ll4EEENS_20NdConcatenateFunctorINS_12PointXYZRGBAESI_EEEEvT1_@Base 1.6
 (optional=templinst)_ZN3pcl18for_each_type_implILb0EE7executeIN5boost3mpl6v_iterINS4_6vectorINS_6fields1xENS7_1yENS7_1zENS7_4rgbaENS7_5labelEN4mpl_2naESE_SE_SE_SE_SE_SE_SE_SE_SE_SE_SE_SE_SE_SE_EELl0EEENS5_ISF_Ll5EEENS_20NdConcatenateFunctorINS_12PointXYZRGBLESJ_EEEEvT1_@Base 1.6
 (optional=templinst)_ZN3pcl18for_each_type_implILb0EE7executeIN5boost3mpl6v_iterINS4_6vectorINS_6fields1xENS7_1yENS7_1zENS7_4rgbaENS7_5labelEN4mpl_2naESE_SE_SE_SE_SE_SE_SE_SE_SE_SE_SE_SE_SE_SE_EELl0EEENS5_ISF_Ll5EEENS_6detail10FieldAdderINS_12PointXYZRGBLEEEEEvT1_@Base 1.6
 (optional=templinst)_ZN3pcl18for_each_type_implILb0EE7executeIN5boost3mpl6v_iterINS4_6vectorINS_6fields1xENS7_1yENS7_1zENS7_4rgbaENS7_5labelEN4mpl_2naESE_SE_SE_SE_SE_SE_SE_SE_SE_SE_SE_SE_SE_SE_EELl1EEENS5_ISF_Ll5EEENS_6detail10FieldAdderINS_12PointXYZRGBLEEEEEvT1_@Base 1.6
 (optional=templinst)_ZN3pcl18for_each_type_implILb0EE7executeIN5boost3mpl6v_iterINS4_6vectorINS_6fields1xENS7_1yENS7_1zENS7_4rgbaENS7_5labelEN4mpl_2naESE_SE_SE_SE_SE_SE_SE_SE_SE_SE_SE_SE_SE_SE_EELl3EEENS5_ISF_Ll5EEENS_20NdConcatenateFunctorINS_12PointXYZRGBLESJ_EEEEvT1_@Base 1.6
 (optional=templinst)_ZN3pcl18for_each_type_implILb0EE7executeIN5boost3mpl6v_iterINS4_6vectorINS_6fields1xENS7_1yENS7_1zENS7_4vp_xENS7_4vp_yENS7_4vp_zEN4mpl_2naESF_SF_SF_SF_SF_SF_SF_SF_SF_SF_SF_SF_SF_EELl0EEENS5_ISG_Ll6EEENS_20NdConcatenateFunctorINS_18PointWithViewpointESK_EEEEvT1_@Base 1.6
 (optional=templinst)_ZN3pcl18for_each_type_implILb0EE7executeIN5boost3mpl6v_iterINS4_6vectorINS_6fields1xENS7_1yENS7_1zENS7_4vp_xENS7_4vp_yENS7_4vp_zEN4mpl_2naESF_SF_SF_SF_SF_SF_SF_SF_SF_SF_SF_SF_SF_EELl0EEENS5_ISG_Ll6EEENS_6detail10FieldAdderINS_18PointWithViewpointEEEEEvT1_@Base 1.6
 (optional=templinst)_ZN3pcl18for_each_type_implILb0EE7executeIN5boost3mpl6v_iterINS4_6vectorINS_6fields1xENS7_1yENS7_1zENS7_4vp_xENS7_4vp_yENS7_4vp_zEN4mpl_2naESF_SF_SF_SF_SF_SF_SF_SF_SF_SF_SF_SF_SF_EELl1EEENS5_ISG_Ll6EEENS_6detail10FieldAdderINS_18PointWithViewpointEEEEEvT1_@Base 1.6
 (optional=templinst)_ZN3pcl18for_each_type_implILb0EE7executeIN5boost3mpl6v_iterINS4_6vectorINS_6fields1xENS7_1yENS7_1zENS7_4vp_xENS7_4vp_yENS7_4vp_zEN4mpl_2naESF_SF_SF_SF_SF_SF_SF_SF_SF_SF_SF_SF_SF_EELl4EEENS5_ISG_Ll6EEENS_20NdConcatenateFunctorINS_18PointWithViewpointESK_EEEEvT1_@Base 1.6
 (optional=templinst)_ZN3pcl18for_each_type_implILb0EE7executeIN5boost3mpl6v_iterINS4_6vectorINS_6fields1xENS7_1yENS7_1zENS7_5labelEN4mpl_2naESD_SD_SD_SD_SD_SD_SD_SD_SD_SD_SD_SD_SD_SD_SD_EELl0EEENS5_ISE_Ll4EEENS_20NdConcatenateFunctorINS_9PointXYZLESI_EEEEvT1_@Base 1.6
 (optional=templinst)_ZN3pcl18for_each_type_implILb0EE7executeIN5boost3mpl6v_iterINS4_6vectorINS_6fields1xENS7_1yENS7_1zENS7_5labelEN4mpl_2naESD_SD_SD_SD_SD_SD_SD_SD_SD_SD_SD_SD_SD_SD_SD_EELl0EEENS5_ISE_Ll4EEENS_6detail10FieldAdderINS_9PointXYZLEEEEEvT1_@Base 1.6
 (optional=templinst)_ZN3pcl18for_each_type_implILb0EE7executeIN5boost3mpl6v_iterINS4_6vectorINS_6fields1xENS7_1yENS7_1zENS7_5labelEN4mpl_2naESD_SD_SD_SD_SD_SD_SD_SD_SD_SD_SD_SD_SD_SD_SD_EELl2EEENS5_ISE_Ll4EEENS_20NdConcatenateFunctorINS_9PointXYZLESI_EEEEvT1_@Base 1.6
 (optional=templinst)_ZN3pcl18for_each_type_implILb0EE7executeIN5boost3mpl6v_iterINS4_6vectorINS_6fields1xENS7_1yENS7_1zENS7_5rangeEN4mpl_2naESD_SD_SD_SD_SD_SD_SD_SD_SD_SD_SD_SD_SD_SD_SD_EELl0EEENS5_ISE_Ll4EEENS_20NdConcatenateFunctorINS_14PointWithRangeESI_EEEEvT1_@Base 1.6
 (optional=templinst)_ZN3pcl18for_each_type_implILb0EE7executeIN5boost3mpl6v_iterINS4_6vectorINS_6fields1xENS7_1yENS7_1zENS7_5rangeEN4mpl_2naESD_SD_SD_SD_SD_SD_SD_SD_SD_SD_SD_SD_SD_SD_SD_EELl0EEENS5_ISE_Ll4EEENS_6detail10FieldAdderINS_14PointWithRangeEEEEEvT1_@Base 1.6
 (optional=templinst)_ZN3pcl18for_each_type_implILb0EE7executeIN5boost3mpl6v_iterINS4_6vectorINS_6fields1xENS7_1yENS7_1zENS7_5rangeEN4mpl_2naESD_SD_SD_SD_SD_SD_SD_SD_SD_SD_SD_SD_SD_SD_SD_EELl2EEENS5_ISE_Ll4EEENS_20NdConcatenateFunctorINS_14PointWithRangeESI_EEEEvT1_@Base 1.6
 (optional=templinst)_ZN3pcl18for_each_type_implILb0EE7executeIN5boost3mpl6v_iterINS4_6vectorINS_6fields1xENS7_1yENS7_1zENS7_5scaleEN4mpl_2naESD_SD_SD_SD_SD_SD_SD_SD_SD_SD_SD_SD_SD_SD_SD_EELl0EEENS5_ISE_Ll4EEENS_20NdConcatenateFunctorINS_14PointWithScaleESI_EEEEvT1_@Base 1.6
 (optional=templinst)_ZN3pcl18for_each_type_implILb0EE7executeIN5boost3mpl6v_iterINS4_6vectorINS_6fields1xENS7_1yENS7_1zENS7_5scaleEN4mpl_2naESD_SD_SD_SD_SD_SD_SD_SD_SD_SD_SD_SD_SD_SD_SD_EELl0EEENS5_ISE_Ll4EEENS_6detail10FieldAdderINS_14PointWithScaleEEEEEvT1_@Base 1.6
 (optional=templinst)_ZN3pcl18for_each_type_implILb0EE7executeIN5boost3mpl6v_iterINS4_6vectorINS_6fields1xENS7_1yENS7_1zENS7_5scaleEN4mpl_2naESD_SD_SD_SD_SD_SD_SD_SD_SD_SD_SD_SD_SD_SD_SD_EELl2EEENS5_ISE_Ll4EEENS_20NdConcatenateFunctorINS_14PointWithScaleESI_EEEEvT1_@Base 1.6
 (optional=templinst)_ZN3pcl18for_each_type_implILb0EE7executeIN5boost3mpl6v_iterINS4_6vectorINS_6fields1xENS7_1yENS7_1zENS7_8normal_xENS7_8normal_yENS7_8normal_zENS7_9curvatureEN4mpl_2naESG_SG_SG_SG_SG_SG_SG_SG_SG_SG_SG_SG_EELl0EEENS5_ISH_Ll7EEENS_20NdConcatenateFunctorINS_11PointNormalESL_EEEEvT1_@Base 1.6
 (optional=templinst)_ZN3pcl18for_each_type_implILb0EE7executeIN5boost3mpl6v_iterINS4_6vectorINS_6fields1xENS7_1yENS7_1zENS7_8normal_xENS7_8normal_yENS7_8normal_zENS7_9curvatureEN4mpl_2naESG_SG_SG_SG_SG_SG_SG_SG_SG_SG_SG_SG_EELl0EEENS5_ISH_Ll7EEENS_6detail10FieldAdderINS_11PointNormalEEEEEvT1_@Base 1.6
 (optional=templinst)_ZN3pcl18for_each_type_implILb0EE7executeIN5boost3mpl6v_iterINS4_6vectorINS_6fields1xENS7_1yENS7_1zENS7_8normal_xENS7_8normal_yENS7_8normal_zENS7_9curvatureEN4mpl_2naESG_SG_SG_SG_SG_SG_SG_SG_SG_SG_SG_SG_EELl5EEENS5_ISH_Ll7EEENS_20NdConcatenateFunctorINS_11PointNormalESL_EEEEvT1_@Base 1.6
 (optional=templinst)_ZN3pcl18for_each_type_implILb0EE7executeIN5boost3mpl6v_iterINS4_6vectorINS_6fields1xENS7_1yENS7_1zENS7_8strengthEN4mpl_2naESD_SD_SD_SD_SD_SD_SD_SD_SD_SD_SD_SD_SD_SD_SD_EELl0EEENS5_ISE_Ll4EEENS_20NdConcatenateFunctorINS_13InterestPointESI_EEEEvT1_@Base 1.6
 (optional=templinst)_ZN3pcl18for_each_type_implILb0EE7executeIN5boost3mpl6v_iterINS4_6vectorINS_6fields1xENS7_1yENS7_1zENS7_8strengthEN4mpl_2naESD_SD_SD_SD_SD_SD_SD_SD_SD_SD_SD_SD_SD_SD_SD_EELl0EEENS5_ISE_Ll4EEENS_6detail10FieldAdderINS_13InterestPointEEEEEvT1_@Base 1.6
 (optional=templinst)_ZN3pcl18for_each_type_implILb0EE7executeIN5boost3mpl6v_iterINS4_6vectorINS_6fields1xENS7_1yENS7_1zENS7_8strengthEN4mpl_2naESD_SD_SD_SD_SD_SD_SD_SD_SD_SD_SD_SD_SD_SD_SD_EELl2EEENS5_ISE_Ll4EEENS_20NdConcatenateFunctorINS_13InterestPointESI_EEEEvT1_@Base 1.6
 (optional=templinst)_ZN3pcl18for_each_type_implILb0EE7executeIN5boost3mpl6v_iterINS4_6vectorINS_6fields1xENS7_1yENS7_1zENS7_9intensityEN4mpl_2naESD_SD_SD_SD_SD_SD_SD_SD_SD_SD_SD_SD_SD_SD_SD_EELl0EEENS5_ISE_Ll4EEENS_20NdConcatenateFunctorINS_9PointXYZIESI_EEEEvT1_@Base 1.6
 (optional=templinst)_ZN3pcl18for_each_type_implILb0EE7executeIN5boost3mpl6v_iterINS4_6vectorINS_6fields1xENS7_1yENS7_1zENS7_9intensityEN4mpl_2naESD_SD_SD_SD_SD_SD_SD_SD_SD_SD_SD_SD_SD_SD_SD_EELl0EEENS5_ISE_Ll4EEENS_6detail10FieldAdderINS_9PointXYZIEEEEEvT1_@Base 1.6
 (optional=templinst)_ZN3pcl18for_each_type_implILb0EE7executeIN5boost3mpl6v_iterINS4_6vectorINS_6fields1xENS7_1yENS7_1zENS7_9intensityEN4mpl_2naESD_SD_SD_SD_SD_SD_SD_SD_SD_SD_SD_SD_SD_SD_SD_EELl2EEENS5_ISE_Ll4EEENS_20NdConcatenateFunctorINS_9PointXYZIESI_EEEEvT1_@Base 1.6
 (optional=templinst)_ZN3pcl18for_each_type_implILb0EE7executeIN5boost3mpl6v_iterINS4_6vectorINS_6fields1xENS7_1yENS7_1zENS7_9intensityENS7_8normal_xENS7_8normal_yENS7_8normal_zENS7_9curvatureEN4mpl_2naESH_SH_SH_SH_SH_SH_SH_SH_SH_SH_SH_EELl0EEENS5_ISI_Ll8EEENS_20NdConcatenateFunctorINS_15PointXYZINormalESM_EEEEvT1_@Base 1.6
 (optional=templinst)_ZN3pcl18for_each_type_implILb0EE7executeIN5boost3mpl6v_iterINS4_6vectorINS_6fields1xENS7_1yENS7_1zENS7_9intensityENS7_8normal_xENS7_8normal_yENS7_8normal_zENS7_9curvatureEN4mpl_2naESH_SH_SH_SH_SH_SH_SH_SH_SH_SH_SH_EELl0EEENS5_ISI_Ll8EEENS_6detail10FieldAdderINS_15PointXYZINormalEEEEEvT1_@Base 1.6
 (optional=templinst)_ZN3pcl18for_each_type_implILb0EE7executeIN5boost3mpl6v_iterINS4_6vectorINS_6fields1xENS7_1yENS7_1zENS7_9intensityENS7_8normal_xENS7_8normal_yENS7_8normal_zENS7_9curvatureEN4mpl_2naESH_SH_SH_SH_SH_SH_SH_SH_SH_SH_SH_EELl3EEENS5_ISI_Ll8EEENS_6detail10FieldAdderINS_15PointXYZINormalEEEEEvT1_@Base 1.6
 (optional=templinst)_ZN3pcl18for_each_type_implILb0EE7executeIN5boost3mpl6v_iterINS4_6vectorINS_6fields1xENS7_1yENS7_1zENS7_9intensityENS7_8normal_xENS7_8normal_yENS7_8normal_zENS7_9curvatureEN4mpl_2naESH_SH_SH_SH_SH_SH_SH_SH_SH_SH_SH_EELl6EEENS5_ISI_Ll8EEENS_20NdConcatenateFunctorINS_15PointXYZINormalESM_EEEEvT1_@Base 1.6
 (optional=templinst)_ZN3pcl18for_each_type_implILb0EE7executeIN5boost3mpl6v_iterINS4_6vectorINS_6fields21principal_curvature_xENS7_21principal_curvature_yENS7_21principal_curvature_zENS7_3pc1ENS7_3pc2EN4mpl_2naESE_SE_SE_SE_SE_SE_SE_SE_SE_SE_SE_SE_SE_SE_EELl1EEENS5_ISF_Ll5EEENS_6detail10FieldAdderINS_19PrincipalCurvaturesEEEEEvT1_@Base 1.6
 (optional=templinst)_ZN3pcl18for_each_type_implILb0EE7executeIN5boost3mpl6v_iterINS4_6vectorINS_6fields2f1ENS7_2f2ENS7_2f3ENS7_2f4ENS7_7alpha_mEN4mpl_2naESE_SE_SE_SE_SE_SE_SE_SE_SE_SE_SE_SE_SE_SE_EELl1EEENS5_ISF_Ll5EEENS_6detail10FieldAdderINS_12PPFSignatureEEEEEvT1_@Base 1.6
 (optional=templinst)_ZN3pcl18for_each_type_implILb0EE7executeIN5boost3mpl6v_iterINS4_6vectorINS_6fields2f1ENS7_2f2ENS7_2f3ENS7_2f4ENS7_7r_ratioENS7_7g_ratioENS7_7b_ratioENS7_7alpha_mEN4mpl_2naESH_SH_SH_SH_SH_SH_SH_SH_SH_SH_SH_EELl0EEENS5_ISI_Ll8EEENS_6detail10FieldAdderINS_15PPFRGBSignatureEEEEEvT1_@Base 1.6
 (optional=templinst)_ZN3pcl18for_each_type_implILb0EE7executeIN5boost3mpl6v_iterINS4_6vectorINS_6fields8normal_xENS7_8normal_yENS7_8normal_zENS7_9curvatureEN4mpl_2naESD_SD_SD_SD_SD_SD_SD_SD_SD_SD_SD_SD_SD_SD_SD_EELl0EEENS5_ISE_Ll4EEENS_6detail10FieldAdderINS_6NormalEEEEEvT1_@Base 1.6
 (optional=templinst)_ZN3pcl19NormalSpaceSamplingINS_11PointNormalENS_15PointXYZINormalEE10setNormalsERKN5boost10shared_ptrINS_10PointCloudIS2_EEEE@Base 1.6
 (optional=templinst)_ZN3pcl19NormalSpaceSamplingINS_11PointNormalENS_15PointXYZINormalEE11applyFilterERNS_10PointCloudIS1_EE@Base 1.6
 (optional=templinst)_ZN3pcl19NormalSpaceSamplingINS_11PointNormalENS_15PointXYZINormalEE11applyFilterERSt6vectorIiSaIiEE@Base 1.6
 (optional=templinst)_ZN3pcl19NormalSpaceSamplingINS_11PointNormalENS_15PointXYZINormalEE18isEntireBinSampledERN5boost14dynamic_bitsetImSaImEEEjj@Base 1.6
 (optional=templinst)_ZN3pcl19NormalSpaceSamplingINS_11PointNormalENS_15PointXYZINormalEE7findBinEPfj@Base 1.6
 (optional=templinst)_ZN3pcl19NormalSpaceSamplingINS_11PointNormalENS_15PointXYZINormalEE7setBinsEjjj@Base 1.6
 (optional=templinst)_ZN3pcl19NormalSpaceSamplingINS_11PointNormalENS_15PointXYZINormalEE7setSeedEj@Base 1.6
 (optional=templinst)_ZN3pcl19NormalSpaceSamplingINS_11PointNormalENS_15PointXYZINormalEE9setSampleEj@Base 1.6
 (optional=templinst)_ZN3pcl19NormalSpaceSamplingINS_11PointNormalENS_15PointXYZINormalEEC1Ev@Base 1.6
 (optional=templinst)_ZN3pcl19NormalSpaceSamplingINS_11PointNormalENS_15PointXYZINormalEEC2Ev@Base 1.6
 (optional=templinst)_ZN3pcl19NormalSpaceSamplingINS_11PointNormalENS_15PointXYZINormalEED0Ev@Base 1.6
 (optional=templinst)_ZN3pcl19NormalSpaceSamplingINS_11PointNormalENS_15PointXYZINormalEED1Ev@Base 1.6
 (optional=templinst)_ZN3pcl19NormalSpaceSamplingINS_11PointNormalENS_15PointXYZINormalEED2Ev@Base 1.6
 (optional=templinst)_ZN3pcl19NormalSpaceSamplingINS_11PointNormalENS_17PointXYZRGBNormalEE10setNormalsERKN5boost10shared_ptrINS_10PointCloudIS2_EEEE@Base 1.6
 (optional=templinst)_ZN3pcl19NormalSpaceSamplingINS_11PointNormalENS_17PointXYZRGBNormalEE11applyFilterERNS_10PointCloudIS1_EE@Base 1.6
 (optional=templinst)_ZN3pcl19NormalSpaceSamplingINS_11PointNormalENS_17PointXYZRGBNormalEE11applyFilterERSt6vectorIiSaIiEE@Base 1.6
 (optional=templinst)_ZN3pcl19NormalSpaceSamplingINS_11PointNormalENS_17PointXYZRGBNormalEE18isEntireBinSampledERN5boost14dynamic_bitsetImSaImEEEjj@Base 1.6
 (optional=templinst)_ZN3pcl19NormalSpaceSamplingINS_11PointNormalENS_17PointXYZRGBNormalEE7findBinEPfj@Base 1.6
 (optional=templinst)_ZN3pcl19NormalSpaceSamplingINS_11PointNormalENS_17PointXYZRGBNormalEE7setBinsEjjj@Base 1.6
 (optional=templinst)_ZN3pcl19NormalSpaceSamplingINS_11PointNormalENS_17PointXYZRGBNormalEE7setSeedEj@Base 1.6
 (optional=templinst)_ZN3pcl19NormalSpaceSamplingINS_11PointNormalENS_17PointXYZRGBNormalEE9setSampleEj@Base 1.6
 (optional=templinst)_ZN3pcl19NormalSpaceSamplingINS_11PointNormalENS_17PointXYZRGBNormalEEC1Ev@Base 1.6
 (optional=templinst)_ZN3pcl19NormalSpaceSamplingINS_11PointNormalENS_17PointXYZRGBNormalEEC2Ev@Base 1.6
 (optional=templinst)_ZN3pcl19NormalSpaceSamplingINS_11PointNormalENS_17PointXYZRGBNormalEED0Ev@Base 1.6
 (optional=templinst)_ZN3pcl19NormalSpaceSamplingINS_11PointNormalENS_17PointXYZRGBNormalEED1Ev@Base 1.6
 (optional=templinst)_ZN3pcl19NormalSpaceSamplingINS_11PointNormalENS_17PointXYZRGBNormalEED2Ev@Base 1.6
 (optional=templinst)_ZN3pcl19NormalSpaceSamplingINS_11PointNormalENS_6NormalEE10setNormalsERKN5boost10shared_ptrINS_10PointCloudIS2_EEEE@Base 1.6
 (optional=templinst)_ZN3pcl19NormalSpaceSamplingINS_11PointNormalENS_6NormalEE11applyFilterERNS_10PointCloudIS1_EE@Base 1.6
 (optional=templinst)_ZN3pcl19NormalSpaceSamplingINS_11PointNormalENS_6NormalEE11applyFilterERSt6vectorIiSaIiEE@Base 1.6
 (optional=templinst)_ZN3pcl19NormalSpaceSamplingINS_11PointNormalENS_6NormalEE18isEntireBinSampledERN5boost14dynamic_bitsetImSaImEEEjj@Base 1.6
 (optional=templinst)_ZN3pcl19NormalSpaceSamplingINS_11PointNormalENS_6NormalEE7findBinEPfj@Base 1.6
 (optional=templinst)_ZN3pcl19NormalSpaceSamplingINS_11PointNormalENS_6NormalEE7setBinsEjjj@Base 1.6
 (optional=templinst)_ZN3pcl19NormalSpaceSamplingINS_11PointNormalENS_6NormalEE7setSeedEj@Base 1.6
 (optional=templinst)_ZN3pcl19NormalSpaceSamplingINS_11PointNormalENS_6NormalEE9setSampleEj@Base 1.6
 (optional=templinst)_ZN3pcl19NormalSpaceSamplingINS_11PointNormalENS_6NormalEEC1Ev@Base 1.6
 (optional=templinst)_ZN3pcl19NormalSpaceSamplingINS_11PointNormalENS_6NormalEEC2Ev@Base 1.6
 (optional=templinst)_ZN3pcl19NormalSpaceSamplingINS_11PointNormalENS_6NormalEED0Ev@Base 1.6
 (optional=templinst)_ZN3pcl19NormalSpaceSamplingINS_11PointNormalENS_6NormalEED1Ev@Base 1.6
 (optional=templinst)_ZN3pcl19NormalSpaceSamplingINS_11PointNormalENS_6NormalEED2Ev@Base 1.6
 (optional=templinst)_ZN3pcl19NormalSpaceSamplingINS_11PointNormalES1_E10setNormalsERKN5boost10shared_ptrINS_10PointCloudIS1_EEEE@Base 1.6
 (optional=templinst)_ZN3pcl19NormalSpaceSamplingINS_11PointNormalES1_E11applyFilterERNS_10PointCloudIS1_EE@Base 1.6
 (optional=templinst)_ZN3pcl19NormalSpaceSamplingINS_11PointNormalES1_E11applyFilterERSt6vectorIiSaIiEE@Base 1.6
 (optional=templinst)_ZN3pcl19NormalSpaceSamplingINS_11PointNormalES1_E18isEntireBinSampledERN5boost14dynamic_bitsetImSaImEEEjj@Base 1.6
 (optional=templinst)_ZN3pcl19NormalSpaceSamplingINS_11PointNormalES1_E7findBinEPfj@Base 1.6
 (optional=templinst)_ZN3pcl19NormalSpaceSamplingINS_11PointNormalES1_E7setBinsEjjj@Base 1.6
 (optional=templinst)_ZN3pcl19NormalSpaceSamplingINS_11PointNormalES1_E7setSeedEj@Base 1.6
 (optional=templinst)_ZN3pcl19NormalSpaceSamplingINS_11PointNormalES1_E9setSampleEj@Base 1.6
 (optional=templinst)_ZN3pcl19NormalSpaceSamplingINS_11PointNormalES1_EC1Ev@Base 1.6
 (optional=templinst)_ZN3pcl19NormalSpaceSamplingINS_11PointNormalES1_EC2Ev@Base 1.6
 (optional=templinst)_ZN3pcl19NormalSpaceSamplingINS_11PointNormalES1_ED0Ev@Base 1.6
 (optional=templinst)_ZN3pcl19NormalSpaceSamplingINS_11PointNormalES1_ED1Ev@Base 1.6
 (optional=templinst)_ZN3pcl19NormalSpaceSamplingINS_11PointNormalES1_ED2Ev@Base 1.6
 (optional=templinst)_ZN3pcl19NormalSpaceSamplingINS_11PointXYZHSVENS_11PointNormalEE10setNormalsERKN5boost10shared_ptrINS_10PointCloudIS2_EEEE@Base 1.6
 (optional=templinst)_ZN3pcl19NormalSpaceSamplingINS_11PointXYZHSVENS_11PointNormalEE11applyFilterERNS_10PointCloudIS1_EE@Base 1.6
 (optional=templinst)_ZN3pcl19NormalSpaceSamplingINS_11PointXYZHSVENS_11PointNormalEE11applyFilterERSt6vectorIiSaIiEE@Base 1.6
 (optional=templinst)_ZN3pcl19NormalSpaceSamplingINS_11PointXYZHSVENS_11PointNormalEE18isEntireBinSampledERN5boost14dynamic_bitsetImSaImEEEjj@Base 1.6
 (optional=templinst)_ZN3pcl19NormalSpaceSamplingINS_11PointXYZHSVENS_11PointNormalEE7findBinEPfj@Base 1.6
 (optional=templinst)_ZN3pcl19NormalSpaceSamplingINS_11PointXYZHSVENS_11PointNormalEE7setBinsEjjj@Base 1.6
 (optional=templinst)_ZN3pcl19NormalSpaceSamplingINS_11PointXYZHSVENS_11PointNormalEE7setSeedEj@Base 1.6
 (optional=templinst)_ZN3pcl19NormalSpaceSamplingINS_11PointXYZHSVENS_11PointNormalEE9setSampleEj@Base 1.6
 (optional=templinst)_ZN3pcl19NormalSpaceSamplingINS_11PointXYZHSVENS_11PointNormalEEC1Ev@Base 1.6
 (optional=templinst)_ZN3pcl19NormalSpaceSamplingINS_11PointXYZHSVENS_11PointNormalEEC2Ev@Base 1.6
 (optional=templinst)_ZN3pcl19NormalSpaceSamplingINS_11PointXYZHSVENS_11PointNormalEED0Ev@Base 1.6
 (optional=templinst)_ZN3pcl19NormalSpaceSamplingINS_11PointXYZHSVENS_11PointNormalEED1Ev@Base 1.6
 (optional=templinst)_ZN3pcl19NormalSpaceSamplingINS_11PointXYZHSVENS_11PointNormalEED2Ev@Base 1.6
 (optional=templinst)_ZN3pcl19NormalSpaceSamplingINS_11PointXYZHSVENS_15PointXYZINormalEE10setNormalsERKN5boost10shared_ptrINS_10PointCloudIS2_EEEE@Base 1.6
 (optional=templinst)_ZN3pcl19NormalSpaceSamplingINS_11PointXYZHSVENS_15PointXYZINormalEE11applyFilterERNS_10PointCloudIS1_EE@Base 1.6
 (optional=templinst)_ZN3pcl19NormalSpaceSamplingINS_11PointXYZHSVENS_15PointXYZINormalEE11applyFilterERSt6vectorIiSaIiEE@Base 1.6
 (optional=templinst)_ZN3pcl19NormalSpaceSamplingINS_11PointXYZHSVENS_15PointXYZINormalEE18isEntireBinSampledERN5boost14dynamic_bitsetImSaImEEEjj@Base 1.6
 (optional=templinst)_ZN3pcl19NormalSpaceSamplingINS_11PointXYZHSVENS_15PointXYZINormalEE7findBinEPfj@Base 1.6
 (optional=templinst)_ZN3pcl19NormalSpaceSamplingINS_11PointXYZHSVENS_15PointXYZINormalEE7setBinsEjjj@Base 1.6
 (optional=templinst)_ZN3pcl19NormalSpaceSamplingINS_11PointXYZHSVENS_15PointXYZINormalEE7setSeedEj@Base 1.6
 (optional=templinst)_ZN3pcl19NormalSpaceSamplingINS_11PointXYZHSVENS_15PointXYZINormalEE9setSampleEj@Base 1.6
 (optional=templinst)_ZN3pcl19NormalSpaceSamplingINS_11PointXYZHSVENS_15PointXYZINormalEEC1Ev@Base 1.6
 (optional=templinst)_ZN3pcl19NormalSpaceSamplingINS_11PointXYZHSVENS_15PointXYZINormalEEC2Ev@Base 1.6
 (optional=templinst)_ZN3pcl19NormalSpaceSamplingINS_11PointXYZHSVENS_15PointXYZINormalEED0Ev@Base 1.6
 (optional=templinst)_ZN3pcl19NormalSpaceSamplingINS_11PointXYZHSVENS_15PointXYZINormalEED1Ev@Base 1.6
 (optional=templinst)_ZN3pcl19NormalSpaceSamplingINS_11PointXYZHSVENS_15PointXYZINormalEED2Ev@Base 1.6
 (optional=templinst)_ZN3pcl19NormalSpaceSamplingINS_11PointXYZHSVENS_17PointXYZRGBNormalEE10setNormalsERKN5boost10shared_ptrINS_10PointCloudIS2_EEEE@Base 1.6
 (optional=templinst)_ZN3pcl19NormalSpaceSamplingINS_11PointXYZHSVENS_17PointXYZRGBNormalEE11applyFilterERNS_10PointCloudIS1_EE@Base 1.6
 (optional=templinst)_ZN3pcl19NormalSpaceSamplingINS_11PointXYZHSVENS_17PointXYZRGBNormalEE11applyFilterERSt6vectorIiSaIiEE@Base 1.6
 (optional=templinst)_ZN3pcl19NormalSpaceSamplingINS_11PointXYZHSVENS_17PointXYZRGBNormalEE18isEntireBinSampledERN5boost14dynamic_bitsetImSaImEEEjj@Base 1.6
 (optional=templinst)_ZN3pcl19NormalSpaceSamplingINS_11PointXYZHSVENS_17PointXYZRGBNormalEE7findBinEPfj@Base 1.6
 (optional=templinst)_ZN3pcl19NormalSpaceSamplingINS_11PointXYZHSVENS_17PointXYZRGBNormalEE7setBinsEjjj@Base 1.6
 (optional=templinst)_ZN3pcl19NormalSpaceSamplingINS_11PointXYZHSVENS_17PointXYZRGBNormalEE7setSeedEj@Base 1.6
 (optional=templinst)_ZN3pcl19NormalSpaceSamplingINS_11PointXYZHSVENS_17PointXYZRGBNormalEE9setSampleEj@Base 1.6
 (optional=templinst)_ZN3pcl19NormalSpaceSamplingINS_11PointXYZHSVENS_17PointXYZRGBNormalEEC1Ev@Base 1.6
 (optional=templinst)_ZN3pcl19NormalSpaceSamplingINS_11PointXYZHSVENS_17PointXYZRGBNormalEEC2Ev@Base 1.6
 (optional=templinst)_ZN3pcl19NormalSpaceSamplingINS_11PointXYZHSVENS_17PointXYZRGBNormalEED0Ev@Base 1.6
 (optional=templinst)_ZN3pcl19NormalSpaceSamplingINS_11PointXYZHSVENS_17PointXYZRGBNormalEED1Ev@Base 1.6
 (optional=templinst)_ZN3pcl19NormalSpaceSamplingINS_11PointXYZHSVENS_17PointXYZRGBNormalEED2Ev@Base 1.6
 (optional=templinst)_ZN3pcl19NormalSpaceSamplingINS_11PointXYZHSVENS_6NormalEE10setNormalsERKN5boost10shared_ptrINS_10PointCloudIS2_EEEE@Base 1.6
 (optional=templinst)_ZN3pcl19NormalSpaceSamplingINS_11PointXYZHSVENS_6NormalEE11applyFilterERNS_10PointCloudIS1_EE@Base 1.6
 (optional=templinst)_ZN3pcl19NormalSpaceSamplingINS_11PointXYZHSVENS_6NormalEE11applyFilterERSt6vectorIiSaIiEE@Base 1.6
 (optional=templinst)_ZN3pcl19NormalSpaceSamplingINS_11PointXYZHSVENS_6NormalEE18isEntireBinSampledERN5boost14dynamic_bitsetImSaImEEEjj@Base 1.6
 (optional=templinst)_ZN3pcl19NormalSpaceSamplingINS_11PointXYZHSVENS_6NormalEE7findBinEPfj@Base 1.6
 (optional=templinst)_ZN3pcl19NormalSpaceSamplingINS_11PointXYZHSVENS_6NormalEE7setBinsEjjj@Base 1.6
 (optional=templinst)_ZN3pcl19NormalSpaceSamplingINS_11PointXYZHSVENS_6NormalEE7setSeedEj@Base 1.6
 (optional=templinst)_ZN3pcl19NormalSpaceSamplingINS_11PointXYZHSVENS_6NormalEE9setSampleEj@Base 1.6
 (optional=templinst)_ZN3pcl19NormalSpaceSamplingINS_11PointXYZHSVENS_6NormalEEC1Ev@Base 1.6
 (optional=templinst)_ZN3pcl19NormalSpaceSamplingINS_11PointXYZHSVENS_6NormalEEC2Ev@Base 1.6
 (optional=templinst)_ZN3pcl19NormalSpaceSamplingINS_11PointXYZHSVENS_6NormalEED0Ev@Base 1.6
 (optional=templinst)_ZN3pcl19NormalSpaceSamplingINS_11PointXYZHSVENS_6NormalEED1Ev@Base 1.6
 (optional=templinst)_ZN3pcl19NormalSpaceSamplingINS_11PointXYZHSVENS_6NormalEED2Ev@Base 1.6
 (optional=templinst)_ZN3pcl19NormalSpaceSamplingINS_11PointXYZRGBENS_11PointNormalEE10setNormalsERKN5boost10shared_ptrINS_10PointCloudIS2_EEEE@Base 1.6
 (optional=templinst)_ZN3pcl19NormalSpaceSamplingINS_11PointXYZRGBENS_11PointNormalEE11applyFilterERNS_10PointCloudIS1_EE@Base 1.6
 (optional=templinst)_ZN3pcl19NormalSpaceSamplingINS_11PointXYZRGBENS_11PointNormalEE11applyFilterERSt6vectorIiSaIiEE@Base 1.6
 (optional=templinst)_ZN3pcl19NormalSpaceSamplingINS_11PointXYZRGBENS_11PointNormalEE18isEntireBinSampledERN5boost14dynamic_bitsetImSaImEEEjj@Base 1.6
 (optional=templinst)_ZN3pcl19NormalSpaceSamplingINS_11PointXYZRGBENS_11PointNormalEE7findBinEPfj@Base 1.6
 (optional=templinst)_ZN3pcl19NormalSpaceSamplingINS_11PointXYZRGBENS_11PointNormalEE7setBinsEjjj@Base 1.6
 (optional=templinst)_ZN3pcl19NormalSpaceSamplingINS_11PointXYZRGBENS_11PointNormalEE7setSeedEj@Base 1.6
 (optional=templinst)_ZN3pcl19NormalSpaceSamplingINS_11PointXYZRGBENS_11PointNormalEE9setSampleEj@Base 1.6
 (optional=templinst)_ZN3pcl19NormalSpaceSamplingINS_11PointXYZRGBENS_11PointNormalEEC1Ev@Base 1.6
 (optional=templinst)_ZN3pcl19NormalSpaceSamplingINS_11PointXYZRGBENS_11PointNormalEEC2Ev@Base 1.6
 (optional=templinst)_ZN3pcl19NormalSpaceSamplingINS_11PointXYZRGBENS_11PointNormalEED0Ev@Base 1.6
 (optional=templinst)_ZN3pcl19NormalSpaceSamplingINS_11PointXYZRGBENS_11PointNormalEED1Ev@Base 1.6
 (optional=templinst)_ZN3pcl19NormalSpaceSamplingINS_11PointXYZRGBENS_11PointNormalEED2Ev@Base 1.6
 (optional=templinst)_ZN3pcl19NormalSpaceSamplingINS_11PointXYZRGBENS_15PointXYZINormalEE10setNormalsERKN5boost10shared_ptrINS_10PointCloudIS2_EEEE@Base 1.6
 (optional=templinst)_ZN3pcl19NormalSpaceSamplingINS_11PointXYZRGBENS_15PointXYZINormalEE11applyFilterERNS_10PointCloudIS1_EE@Base 1.6
 (optional=templinst)_ZN3pcl19NormalSpaceSamplingINS_11PointXYZRGBENS_15PointXYZINormalEE11applyFilterERSt6vectorIiSaIiEE@Base 1.6
 (optional=templinst)_ZN3pcl19NormalSpaceSamplingINS_11PointXYZRGBENS_15PointXYZINormalEE18isEntireBinSampledERN5boost14dynamic_bitsetImSaImEEEjj@Base 1.6
 (optional=templinst)_ZN3pcl19NormalSpaceSamplingINS_11PointXYZRGBENS_15PointXYZINormalEE7findBinEPfj@Base 1.6
 (optional=templinst)_ZN3pcl19NormalSpaceSamplingINS_11PointXYZRGBENS_15PointXYZINormalEE7setBinsEjjj@Base 1.6
 (optional=templinst)_ZN3pcl19NormalSpaceSamplingINS_11PointXYZRGBENS_15PointXYZINormalEE7setSeedEj@Base 1.6
 (optional=templinst)_ZN3pcl19NormalSpaceSamplingINS_11PointXYZRGBENS_15PointXYZINormalEE9setSampleEj@Base 1.6
 (optional=templinst)_ZN3pcl19NormalSpaceSamplingINS_11PointXYZRGBENS_15PointXYZINormalEEC1Ev@Base 1.6
 (optional=templinst)_ZN3pcl19NormalSpaceSamplingINS_11PointXYZRGBENS_15PointXYZINormalEEC2Ev@Base 1.6
 (optional=templinst)_ZN3pcl19NormalSpaceSamplingINS_11PointXYZRGBENS_15PointXYZINormalEED0Ev@Base 1.6
 (optional=templinst)_ZN3pcl19NormalSpaceSamplingINS_11PointXYZRGBENS_15PointXYZINormalEED1Ev@Base 1.6
 (optional=templinst)_ZN3pcl19NormalSpaceSamplingINS_11PointXYZRGBENS_15PointXYZINormalEED2Ev@Base 1.6
 (optional=templinst)_ZN3pcl19NormalSpaceSamplingINS_11PointXYZRGBENS_17PointXYZRGBNormalEE10setNormalsERKN5boost10shared_ptrINS_10PointCloudIS2_EEEE@Base 1.6
 (optional=templinst)_ZN3pcl19NormalSpaceSamplingINS_11PointXYZRGBENS_17PointXYZRGBNormalEE11applyFilterERNS_10PointCloudIS1_EE@Base 1.6
 (optional=templinst)_ZN3pcl19NormalSpaceSamplingINS_11PointXYZRGBENS_17PointXYZRGBNormalEE11applyFilterERSt6vectorIiSaIiEE@Base 1.6
 (optional=templinst)_ZN3pcl19NormalSpaceSamplingINS_11PointXYZRGBENS_17PointXYZRGBNormalEE18isEntireBinSampledERN5boost14dynamic_bitsetImSaImEEEjj@Base 1.6
 (optional=templinst)_ZN3pcl19NormalSpaceSamplingINS_11PointXYZRGBENS_17PointXYZRGBNormalEE7findBinEPfj@Base 1.6
 (optional=templinst)_ZN3pcl19NormalSpaceSamplingINS_11PointXYZRGBENS_17PointXYZRGBNormalEE7setBinsEjjj@Base 1.6
 (optional=templinst)_ZN3pcl19NormalSpaceSamplingINS_11PointXYZRGBENS_17PointXYZRGBNormalEE7setSeedEj@Base 1.6
 (optional=templinst)_ZN3pcl19NormalSpaceSamplingINS_11PointXYZRGBENS_17PointXYZRGBNormalEE9setSampleEj@Base 1.6
 (optional=templinst)_ZN3pcl19NormalSpaceSamplingINS_11PointXYZRGBENS_17PointXYZRGBNormalEEC1Ev@Base 1.6
 (optional=templinst)_ZN3pcl19NormalSpaceSamplingINS_11PointXYZRGBENS_17PointXYZRGBNormalEEC2Ev@Base 1.6
 (optional=templinst)_ZN3pcl19NormalSpaceSamplingINS_11PointXYZRGBENS_17PointXYZRGBNormalEED0Ev@Base 1.6
 (optional=templinst)_ZN3pcl19NormalSpaceSamplingINS_11PointXYZRGBENS_17PointXYZRGBNormalEED1Ev@Base 1.6
 (optional=templinst)_ZN3pcl19NormalSpaceSamplingINS_11PointXYZRGBENS_17PointXYZRGBNormalEED2Ev@Base 1.6
 (optional=templinst)_ZN3pcl19NormalSpaceSamplingINS_11PointXYZRGBENS_6NormalEE10setNormalsERKN5boost10shared_ptrINS_10PointCloudIS2_EEEE@Base 1.6
 (optional=templinst)_ZN3pcl19NormalSpaceSamplingINS_11PointXYZRGBENS_6NormalEE11applyFilterERNS_10PointCloudIS1_EE@Base 1.6
 (optional=templinst)_ZN3pcl19NormalSpaceSamplingINS_11PointXYZRGBENS_6NormalEE11applyFilterERSt6vectorIiSaIiEE@Base 1.6
 (optional=templinst)_ZN3pcl19NormalSpaceSamplingINS_11PointXYZRGBENS_6NormalEE18isEntireBinSampledERN5boost14dynamic_bitsetImSaImEEEjj@Base 1.6
 (optional=templinst)_ZN3pcl19NormalSpaceSamplingINS_11PointXYZRGBENS_6NormalEE7findBinEPfj@Base 1.6
 (optional=templinst)_ZN3pcl19NormalSpaceSamplingINS_11PointXYZRGBENS_6NormalEE7setBinsEjjj@Base 1.6
 (optional=templinst)_ZN3pcl19NormalSpaceSamplingINS_11PointXYZRGBENS_6NormalEE7setSeedEj@Base 1.6
 (optional=templinst)_ZN3pcl19NormalSpaceSamplingINS_11PointXYZRGBENS_6NormalEE9setSampleEj@Base 1.6
 (optional=templinst)_ZN3pcl19NormalSpaceSamplingINS_11PointXYZRGBENS_6NormalEEC1Ev@Base 1.6
 (optional=templinst)_ZN3pcl19NormalSpaceSamplingINS_11PointXYZRGBENS_6NormalEEC2Ev@Base 1.6
 (optional=templinst)_ZN3pcl19NormalSpaceSamplingINS_11PointXYZRGBENS_6NormalEED0Ev@Base 1.6
 (optional=templinst)_ZN3pcl19NormalSpaceSamplingINS_11PointXYZRGBENS_6NormalEED1Ev@Base 1.6
 (optional=templinst)_ZN3pcl19NormalSpaceSamplingINS_11PointXYZRGBENS_6NormalEED2Ev@Base 1.6
 (optional=templinst)_ZN3pcl19NormalSpaceSamplingINS_12PointXYZRGBAENS_11PointNormalEE10setNormalsERKN5boost10shared_ptrINS_10PointCloudIS2_EEEE@Base 1.6
 (optional=templinst)_ZN3pcl19NormalSpaceSamplingINS_12PointXYZRGBAENS_11PointNormalEE11applyFilterERNS_10PointCloudIS1_EE@Base 1.6
 (optional=templinst)_ZN3pcl19NormalSpaceSamplingINS_12PointXYZRGBAENS_11PointNormalEE11applyFilterERSt6vectorIiSaIiEE@Base 1.6
 (optional=templinst)_ZN3pcl19NormalSpaceSamplingINS_12PointXYZRGBAENS_11PointNormalEE18isEntireBinSampledERN5boost14dynamic_bitsetImSaImEEEjj@Base 1.6
 (optional=templinst)_ZN3pcl19NormalSpaceSamplingINS_12PointXYZRGBAENS_11PointNormalEE7findBinEPfj@Base 1.6
 (optional=templinst)_ZN3pcl19NormalSpaceSamplingINS_12PointXYZRGBAENS_11PointNormalEE7setBinsEjjj@Base 1.6
 (optional=templinst)_ZN3pcl19NormalSpaceSamplingINS_12PointXYZRGBAENS_11PointNormalEE7setSeedEj@Base 1.6
 (optional=templinst)_ZN3pcl19NormalSpaceSamplingINS_12PointXYZRGBAENS_11PointNormalEE9setSampleEj@Base 1.6
 (optional=templinst)_ZN3pcl19NormalSpaceSamplingINS_12PointXYZRGBAENS_11PointNormalEEC1Ev@Base 1.6
 (optional=templinst)_ZN3pcl19NormalSpaceSamplingINS_12PointXYZRGBAENS_11PointNormalEEC2Ev@Base 1.6
 (optional=templinst)_ZN3pcl19NormalSpaceSamplingINS_12PointXYZRGBAENS_11PointNormalEED0Ev@Base 1.6
 (optional=templinst)_ZN3pcl19NormalSpaceSamplingINS_12PointXYZRGBAENS_11PointNormalEED1Ev@Base 1.6
 (optional=templinst)_ZN3pcl19NormalSpaceSamplingINS_12PointXYZRGBAENS_11PointNormalEED2Ev@Base 1.6
 (optional=templinst)_ZN3pcl19NormalSpaceSamplingINS_12PointXYZRGBAENS_15PointXYZINormalEE10setNormalsERKN5boost10shared_ptrINS_10PointCloudIS2_EEEE@Base 1.6
 (optional=templinst)_ZN3pcl19NormalSpaceSamplingINS_12PointXYZRGBAENS_15PointXYZINormalEE11applyFilterERNS_10PointCloudIS1_EE@Base 1.6
 (optional=templinst)_ZN3pcl19NormalSpaceSamplingINS_12PointXYZRGBAENS_15PointXYZINormalEE11applyFilterERSt6vectorIiSaIiEE@Base 1.6
 (optional=templinst)_ZN3pcl19NormalSpaceSamplingINS_12PointXYZRGBAENS_15PointXYZINormalEE18isEntireBinSampledERN5boost14dynamic_bitsetImSaImEEEjj@Base 1.6
 (optional=templinst)_ZN3pcl19NormalSpaceSamplingINS_12PointXYZRGBAENS_15PointXYZINormalEE7findBinEPfj@Base 1.6
 (optional=templinst)_ZN3pcl19NormalSpaceSamplingINS_12PointXYZRGBAENS_15PointXYZINormalEE7setBinsEjjj@Base 1.6
 (optional=templinst)_ZN3pcl19NormalSpaceSamplingINS_12PointXYZRGBAENS_15PointXYZINormalEE7setSeedEj@Base 1.6
 (optional=templinst)_ZN3pcl19NormalSpaceSamplingINS_12PointXYZRGBAENS_15PointXYZINormalEE9setSampleEj@Base 1.6
 (optional=templinst)_ZN3pcl19NormalSpaceSamplingINS_12PointXYZRGBAENS_15PointXYZINormalEEC1Ev@Base 1.6
 (optional=templinst)_ZN3pcl19NormalSpaceSamplingINS_12PointXYZRGBAENS_15PointXYZINormalEEC2Ev@Base 1.6
 (optional=templinst)_ZN3pcl19NormalSpaceSamplingINS_12PointXYZRGBAENS_15PointXYZINormalEED0Ev@Base 1.6
 (optional=templinst)_ZN3pcl19NormalSpaceSamplingINS_12PointXYZRGBAENS_15PointXYZINormalEED1Ev@Base 1.6
 (optional=templinst)_ZN3pcl19NormalSpaceSamplingINS_12PointXYZRGBAENS_15PointXYZINormalEED2Ev@Base 1.6
 (optional=templinst)_ZN3pcl19NormalSpaceSamplingINS_12PointXYZRGBAENS_17PointXYZRGBNormalEE10setNormalsERKN5boost10shared_ptrINS_10PointCloudIS2_EEEE@Base 1.6
 (optional=templinst)_ZN3pcl19NormalSpaceSamplingINS_12PointXYZRGBAENS_17PointXYZRGBNormalEE11applyFilterERNS_10PointCloudIS1_EE@Base 1.6
 (optional=templinst)_ZN3pcl19NormalSpaceSamplingINS_12PointXYZRGBAENS_17PointXYZRGBNormalEE11applyFilterERSt6vectorIiSaIiEE@Base 1.6
 (optional=templinst)_ZN3pcl19NormalSpaceSamplingINS_12PointXYZRGBAENS_17PointXYZRGBNormalEE18isEntireBinSampledERN5boost14dynamic_bitsetImSaImEEEjj@Base 1.6
 (optional=templinst)_ZN3pcl19NormalSpaceSamplingINS_12PointXYZRGBAENS_17PointXYZRGBNormalEE7findBinEPfj@Base 1.6
 (optional=templinst)_ZN3pcl19NormalSpaceSamplingINS_12PointXYZRGBAENS_17PointXYZRGBNormalEE7setBinsEjjj@Base 1.6
 (optional=templinst)_ZN3pcl19NormalSpaceSamplingINS_12PointXYZRGBAENS_17PointXYZRGBNormalEE7setSeedEj@Base 1.6
 (optional=templinst)_ZN3pcl19NormalSpaceSamplingINS_12PointXYZRGBAENS_17PointXYZRGBNormalEE9setSampleEj@Base 1.6
 (optional=templinst)_ZN3pcl19NormalSpaceSamplingINS_12PointXYZRGBAENS_17PointXYZRGBNormalEEC1Ev@Base 1.6
 (optional=templinst)_ZN3pcl19NormalSpaceSamplingINS_12PointXYZRGBAENS_17PointXYZRGBNormalEEC2Ev@Base 1.6
 (optional=templinst)_ZN3pcl19NormalSpaceSamplingINS_12PointXYZRGBAENS_17PointXYZRGBNormalEED0Ev@Base 1.6
 (optional=templinst)_ZN3pcl19NormalSpaceSamplingINS_12PointXYZRGBAENS_17PointXYZRGBNormalEED1Ev@Base 1.6
 (optional=templinst)_ZN3pcl19NormalSpaceSamplingINS_12PointXYZRGBAENS_17PointXYZRGBNormalEED2Ev@Base 1.6
 (optional=templinst)_ZN3pcl19NormalSpaceSamplingINS_12PointXYZRGBAENS_6NormalEE10setNormalsERKN5boost10shared_ptrINS_10PointCloudIS2_EEEE@Base 1.6
 (optional=templinst)_ZN3pcl19NormalSpaceSamplingINS_12PointXYZRGBAENS_6NormalEE11applyFilterERNS_10PointCloudIS1_EE@Base 1.6
 (optional=templinst)_ZN3pcl19NormalSpaceSamplingINS_12PointXYZRGBAENS_6NormalEE11applyFilterERSt6vectorIiSaIiEE@Base 1.6
 (optional=templinst)_ZN3pcl19NormalSpaceSamplingINS_12PointXYZRGBAENS_6NormalEE18isEntireBinSampledERN5boost14dynamic_bitsetImSaImEEEjj@Base 1.6
 (optional=templinst)_ZN3pcl19NormalSpaceSamplingINS_12PointXYZRGBAENS_6NormalEE7findBinEPfj@Base 1.6
 (optional=templinst)_ZN3pcl19NormalSpaceSamplingINS_12PointXYZRGBAENS_6NormalEE7setBinsEjjj@Base 1.6
 (optional=templinst)_ZN3pcl19NormalSpaceSamplingINS_12PointXYZRGBAENS_6NormalEE7setSeedEj@Base 1.6
 (optional=templinst)_ZN3pcl19NormalSpaceSamplingINS_12PointXYZRGBAENS_6NormalEE9setSampleEj@Base 1.6
 (optional=templinst)_ZN3pcl19NormalSpaceSamplingINS_12PointXYZRGBAENS_6NormalEEC1Ev@Base 1.6
 (optional=templinst)_ZN3pcl19NormalSpaceSamplingINS_12PointXYZRGBAENS_6NormalEEC2Ev@Base 1.6
 (optional=templinst)_ZN3pcl19NormalSpaceSamplingINS_12PointXYZRGBAENS_6NormalEED0Ev@Base 1.6
 (optional=templinst)_ZN3pcl19NormalSpaceSamplingINS_12PointXYZRGBAENS_6NormalEED1Ev@Base 1.6
 (optional=templinst)_ZN3pcl19NormalSpaceSamplingINS_12PointXYZRGBAENS_6NormalEED2Ev@Base 1.6
 (optional=templinst)_ZN3pcl19NormalSpaceSamplingINS_12PointXYZRGBLENS_11PointNormalEE10setNormalsERKN5boost10shared_ptrINS_10PointCloudIS2_EEEE@Base 1.6
 (optional=templinst)_ZN3pcl19NormalSpaceSamplingINS_12PointXYZRGBLENS_11PointNormalEE11applyFilterERNS_10PointCloudIS1_EE@Base 1.6
 (optional=templinst)_ZN3pcl19NormalSpaceSamplingINS_12PointXYZRGBLENS_11PointNormalEE11applyFilterERSt6vectorIiSaIiEE@Base 1.6
 (optional=templinst)_ZN3pcl19NormalSpaceSamplingINS_12PointXYZRGBLENS_11PointNormalEE18isEntireBinSampledERN5boost14dynamic_bitsetImSaImEEEjj@Base 1.6
 (optional=templinst)_ZN3pcl19NormalSpaceSamplingINS_12PointXYZRGBLENS_11PointNormalEE7findBinEPfj@Base 1.6
 (optional=templinst)_ZN3pcl19NormalSpaceSamplingINS_12PointXYZRGBLENS_11PointNormalEE7setBinsEjjj@Base 1.6
 (optional=templinst)_ZN3pcl19NormalSpaceSamplingINS_12PointXYZRGBLENS_11PointNormalEE7setSeedEj@Base 1.6
 (optional=templinst)_ZN3pcl19NormalSpaceSamplingINS_12PointXYZRGBLENS_11PointNormalEE9setSampleEj@Base 1.6
 (optional=templinst)_ZN3pcl19NormalSpaceSamplingINS_12PointXYZRGBLENS_11PointNormalEEC1Ev@Base 1.6
 (optional=templinst)_ZN3pcl19NormalSpaceSamplingINS_12PointXYZRGBLENS_11PointNormalEEC2Ev@Base 1.6
 (optional=templinst)_ZN3pcl19NormalSpaceSamplingINS_12PointXYZRGBLENS_11PointNormalEED0Ev@Base 1.6
 (optional=templinst)_ZN3pcl19NormalSpaceSamplingINS_12PointXYZRGBLENS_11PointNormalEED1Ev@Base 1.6
 (optional=templinst)_ZN3pcl19NormalSpaceSamplingINS_12PointXYZRGBLENS_11PointNormalEED2Ev@Base 1.6
 (optional=templinst)_ZN3pcl19NormalSpaceSamplingINS_12PointXYZRGBLENS_15PointXYZINormalEE10setNormalsERKN5boost10shared_ptrINS_10PointCloudIS2_EEEE@Base 1.6
 (optional=templinst)_ZN3pcl19NormalSpaceSamplingINS_12PointXYZRGBLENS_15PointXYZINormalEE11applyFilterERNS_10PointCloudIS1_EE@Base 1.6
 (optional=templinst)_ZN3pcl19NormalSpaceSamplingINS_12PointXYZRGBLENS_15PointXYZINormalEE11applyFilterERSt6vectorIiSaIiEE@Base 1.6
 (optional=templinst)_ZN3pcl19NormalSpaceSamplingINS_12PointXYZRGBLENS_15PointXYZINormalEE18isEntireBinSampledERN5boost14dynamic_bitsetImSaImEEEjj@Base 1.6
 (optional=templinst)_ZN3pcl19NormalSpaceSamplingINS_12PointXYZRGBLENS_15PointXYZINormalEE7findBinEPfj@Base 1.6
 (optional=templinst)_ZN3pcl19NormalSpaceSamplingINS_12PointXYZRGBLENS_15PointXYZINormalEE7setBinsEjjj@Base 1.6
 (optional=templinst)_ZN3pcl19NormalSpaceSamplingINS_12PointXYZRGBLENS_15PointXYZINormalEE7setSeedEj@Base 1.6
 (optional=templinst)_ZN3pcl19NormalSpaceSamplingINS_12PointXYZRGBLENS_15PointXYZINormalEE9setSampleEj@Base 1.6
 (optional=templinst)_ZN3pcl19NormalSpaceSamplingINS_12PointXYZRGBLENS_15PointXYZINormalEEC1Ev@Base 1.6
 (optional=templinst)_ZN3pcl19NormalSpaceSamplingINS_12PointXYZRGBLENS_15PointXYZINormalEEC2Ev@Base 1.6
 (optional=templinst)_ZN3pcl19NormalSpaceSamplingINS_12PointXYZRGBLENS_15PointXYZINormalEED0Ev@Base 1.6
 (optional=templinst)_ZN3pcl19NormalSpaceSamplingINS_12PointXYZRGBLENS_15PointXYZINormalEED1Ev@Base 1.6
 (optional=templinst)_ZN3pcl19NormalSpaceSamplingINS_12PointXYZRGBLENS_15PointXYZINormalEED2Ev@Base 1.6
 (optional=templinst)_ZN3pcl19NormalSpaceSamplingINS_12PointXYZRGBLENS_17PointXYZRGBNormalEE10setNormalsERKN5boost10shared_ptrINS_10PointCloudIS2_EEEE@Base 1.6
 (optional=templinst)_ZN3pcl19NormalSpaceSamplingINS_12PointXYZRGBLENS_17PointXYZRGBNormalEE11applyFilterERNS_10PointCloudIS1_EE@Base 1.6
 (optional=templinst)_ZN3pcl19NormalSpaceSamplingINS_12PointXYZRGBLENS_17PointXYZRGBNormalEE11applyFilterERSt6vectorIiSaIiEE@Base 1.6
 (optional=templinst)_ZN3pcl19NormalSpaceSamplingINS_12PointXYZRGBLENS_17PointXYZRGBNormalEE18isEntireBinSampledERN5boost14dynamic_bitsetImSaImEEEjj@Base 1.6
 (optional=templinst)_ZN3pcl19NormalSpaceSamplingINS_12PointXYZRGBLENS_17PointXYZRGBNormalEE7findBinEPfj@Base 1.6
 (optional=templinst)_ZN3pcl19NormalSpaceSamplingINS_12PointXYZRGBLENS_17PointXYZRGBNormalEE7setBinsEjjj@Base 1.6
 (optional=templinst)_ZN3pcl19NormalSpaceSamplingINS_12PointXYZRGBLENS_17PointXYZRGBNormalEE7setSeedEj@Base 1.6
 (optional=templinst)_ZN3pcl19NormalSpaceSamplingINS_12PointXYZRGBLENS_17PointXYZRGBNormalEE9setSampleEj@Base 1.6
 (optional=templinst)_ZN3pcl19NormalSpaceSamplingINS_12PointXYZRGBLENS_17PointXYZRGBNormalEEC1Ev@Base 1.6
 (optional=templinst)_ZN3pcl19NormalSpaceSamplingINS_12PointXYZRGBLENS_17PointXYZRGBNormalEEC2Ev@Base 1.6
 (optional=templinst)_ZN3pcl19NormalSpaceSamplingINS_12PointXYZRGBLENS_17PointXYZRGBNormalEED0Ev@Base 1.6
 (optional=templinst)_ZN3pcl19NormalSpaceSamplingINS_12PointXYZRGBLENS_17PointXYZRGBNormalEED1Ev@Base 1.6
 (optional=templinst)_ZN3pcl19NormalSpaceSamplingINS_12PointXYZRGBLENS_17PointXYZRGBNormalEED2Ev@Base 1.6
 (optional=templinst)_ZN3pcl19NormalSpaceSamplingINS_12PointXYZRGBLENS_6NormalEE10setNormalsERKN5boost10shared_ptrINS_10PointCloudIS2_EEEE@Base 1.6
 (optional=templinst)_ZN3pcl19NormalSpaceSamplingINS_12PointXYZRGBLENS_6NormalEE11applyFilterERNS_10PointCloudIS1_EE@Base 1.6
 (optional=templinst)_ZN3pcl19NormalSpaceSamplingINS_12PointXYZRGBLENS_6NormalEE11applyFilterERSt6vectorIiSaIiEE@Base 1.6
 (optional=templinst)_ZN3pcl19NormalSpaceSamplingINS_12PointXYZRGBLENS_6NormalEE18isEntireBinSampledERN5boost14dynamic_bitsetImSaImEEEjj@Base 1.6
 (optional=templinst)_ZN3pcl19NormalSpaceSamplingINS_12PointXYZRGBLENS_6NormalEE7findBinEPfj@Base 1.6
 (optional=templinst)_ZN3pcl19NormalSpaceSamplingINS_12PointXYZRGBLENS_6NormalEE7setBinsEjjj@Base 1.6
 (optional=templinst)_ZN3pcl19NormalSpaceSamplingINS_12PointXYZRGBLENS_6NormalEE7setSeedEj@Base 1.6
 (optional=templinst)_ZN3pcl19NormalSpaceSamplingINS_12PointXYZRGBLENS_6NormalEE9setSampleEj@Base 1.6
 (optional=templinst)_ZN3pcl19NormalSpaceSamplingINS_12PointXYZRGBLENS_6NormalEEC1Ev@Base 1.6
 (optional=templinst)_ZN3pcl19NormalSpaceSamplingINS_12PointXYZRGBLENS_6NormalEEC2Ev@Base 1.6
 (optional=templinst)_ZN3pcl19NormalSpaceSamplingINS_12PointXYZRGBLENS_6NormalEED0Ev@Base 1.6
 (optional=templinst)_ZN3pcl19NormalSpaceSamplingINS_12PointXYZRGBLENS_6NormalEED1Ev@Base 1.6
 (optional=templinst)_ZN3pcl19NormalSpaceSamplingINS_12PointXYZRGBLENS_6NormalEED2Ev@Base 1.6
 (optional=templinst)_ZN3pcl19NormalSpaceSamplingINS_13InterestPointENS_11PointNormalEE10setNormalsERKN5boost10shared_ptrINS_10PointCloudIS2_EEEE@Base 1.6
 (optional=templinst)_ZN3pcl19NormalSpaceSamplingINS_13InterestPointENS_11PointNormalEE11applyFilterERNS_10PointCloudIS1_EE@Base 1.6
 (optional=templinst)_ZN3pcl19NormalSpaceSamplingINS_13InterestPointENS_11PointNormalEE11applyFilterERSt6vectorIiSaIiEE@Base 1.6
 (optional=templinst)_ZN3pcl19NormalSpaceSamplingINS_13InterestPointENS_11PointNormalEE18isEntireBinSampledERN5boost14dynamic_bitsetImSaImEEEjj@Base 1.6
 (optional=templinst)_ZN3pcl19NormalSpaceSamplingINS_13InterestPointENS_11PointNormalEE7findBinEPfj@Base 1.6
 (optional=templinst)_ZN3pcl19NormalSpaceSamplingINS_13InterestPointENS_11PointNormalEE7setBinsEjjj@Base 1.6
 (optional=templinst)_ZN3pcl19NormalSpaceSamplingINS_13InterestPointENS_11PointNormalEE7setSeedEj@Base 1.6
 (optional=templinst)_ZN3pcl19NormalSpaceSamplingINS_13InterestPointENS_11PointNormalEE9setSampleEj@Base 1.6
 (optional=templinst)_ZN3pcl19NormalSpaceSamplingINS_13InterestPointENS_11PointNormalEEC1Ev@Base 1.6
 (optional=templinst)_ZN3pcl19NormalSpaceSamplingINS_13InterestPointENS_11PointNormalEEC2Ev@Base 1.6
 (optional=templinst)_ZN3pcl19NormalSpaceSamplingINS_13InterestPointENS_11PointNormalEED0Ev@Base 1.6
 (optional=templinst)_ZN3pcl19NormalSpaceSamplingINS_13InterestPointENS_11PointNormalEED1Ev@Base 1.6
 (optional=templinst)_ZN3pcl19NormalSpaceSamplingINS_13InterestPointENS_11PointNormalEED2Ev@Base 1.6
 (optional=templinst)_ZN3pcl19NormalSpaceSamplingINS_13InterestPointENS_15PointXYZINormalEE10setNormalsERKN5boost10shared_ptrINS_10PointCloudIS2_EEEE@Base 1.6
 (optional=templinst)_ZN3pcl19NormalSpaceSamplingINS_13InterestPointENS_15PointXYZINormalEE11applyFilterERNS_10PointCloudIS1_EE@Base 1.6
 (optional=templinst)_ZN3pcl19NormalSpaceSamplingINS_13InterestPointENS_15PointXYZINormalEE11applyFilterERSt6vectorIiSaIiEE@Base 1.6
 (optional=templinst)_ZN3pcl19NormalSpaceSamplingINS_13InterestPointENS_15PointXYZINormalEE18isEntireBinSampledERN5boost14dynamic_bitsetImSaImEEEjj@Base 1.6
 (optional=templinst)_ZN3pcl19NormalSpaceSamplingINS_13InterestPointENS_15PointXYZINormalEE7findBinEPfj@Base 1.6
 (optional=templinst)_ZN3pcl19NormalSpaceSamplingINS_13InterestPointENS_15PointXYZINormalEE7setBinsEjjj@Base 1.6
 (optional=templinst)_ZN3pcl19NormalSpaceSamplingINS_13InterestPointENS_15PointXYZINormalEE7setSeedEj@Base 1.6
 (optional=templinst)_ZN3pcl19NormalSpaceSamplingINS_13InterestPointENS_15PointXYZINormalEE9setSampleEj@Base 1.6
 (optional=templinst)_ZN3pcl19NormalSpaceSamplingINS_13InterestPointENS_15PointXYZINormalEEC1Ev@Base 1.6
 (optional=templinst)_ZN3pcl19NormalSpaceSamplingINS_13InterestPointENS_15PointXYZINormalEEC2Ev@Base 1.6
 (optional=templinst)_ZN3pcl19NormalSpaceSamplingINS_13InterestPointENS_15PointXYZINormalEED0Ev@Base 1.6
 (optional=templinst)_ZN3pcl19NormalSpaceSamplingINS_13InterestPointENS_15PointXYZINormalEED1Ev@Base 1.6
 (optional=templinst)_ZN3pcl19NormalSpaceSamplingINS_13InterestPointENS_15PointXYZINormalEED2Ev@Base 1.6
 (optional=templinst)_ZN3pcl19NormalSpaceSamplingINS_13InterestPointENS_17PointXYZRGBNormalEE10setNormalsERKN5boost10shared_ptrINS_10PointCloudIS2_EEEE@Base 1.6
 (optional=templinst)_ZN3pcl19NormalSpaceSamplingINS_13InterestPointENS_17PointXYZRGBNormalEE11applyFilterERNS_10PointCloudIS1_EE@Base 1.6
 (optional=templinst)_ZN3pcl19NormalSpaceSamplingINS_13InterestPointENS_17PointXYZRGBNormalEE11applyFilterERSt6vectorIiSaIiEE@Base 1.6
 (optional=templinst)_ZN3pcl19NormalSpaceSamplingINS_13InterestPointENS_17PointXYZRGBNormalEE18isEntireBinSampledERN5boost14dynamic_bitsetImSaImEEEjj@Base 1.6
 (optional=templinst)_ZN3pcl19NormalSpaceSamplingINS_13InterestPointENS_17PointXYZRGBNormalEE7findBinEPfj@Base 1.6
 (optional=templinst)_ZN3pcl19NormalSpaceSamplingINS_13InterestPointENS_17PointXYZRGBNormalEE7setBinsEjjj@Base 1.6
 (optional=templinst)_ZN3pcl19NormalSpaceSamplingINS_13InterestPointENS_17PointXYZRGBNormalEE7setSeedEj@Base 1.6
 (optional=templinst)_ZN3pcl19NormalSpaceSamplingINS_13InterestPointENS_17PointXYZRGBNormalEE9setSampleEj@Base 1.6
 (optional=templinst)_ZN3pcl19NormalSpaceSamplingINS_13InterestPointENS_17PointXYZRGBNormalEEC1Ev@Base 1.6
 (optional=templinst)_ZN3pcl19NormalSpaceSamplingINS_13InterestPointENS_17PointXYZRGBNormalEEC2Ev@Base 1.6
 (optional=templinst)_ZN3pcl19NormalSpaceSamplingINS_13InterestPointENS_17PointXYZRGBNormalEED0Ev@Base 1.6
 (optional=templinst)_ZN3pcl19NormalSpaceSamplingINS_13InterestPointENS_17PointXYZRGBNormalEED1Ev@Base 1.6
 (optional=templinst)_ZN3pcl19NormalSpaceSamplingINS_13InterestPointENS_17PointXYZRGBNormalEED2Ev@Base 1.6
 (optional=templinst)_ZN3pcl19NormalSpaceSamplingINS_13InterestPointENS_6NormalEE10setNormalsERKN5boost10shared_ptrINS_10PointCloudIS2_EEEE@Base 1.6
 (optional=templinst)_ZN3pcl19NormalSpaceSamplingINS_13InterestPointENS_6NormalEE11applyFilterERNS_10PointCloudIS1_EE@Base 1.6
 (optional=templinst)_ZN3pcl19NormalSpaceSamplingINS_13InterestPointENS_6NormalEE11applyFilterERSt6vectorIiSaIiEE@Base 1.6
 (optional=templinst)_ZN3pcl19NormalSpaceSamplingINS_13InterestPointENS_6NormalEE18isEntireBinSampledERN5boost14dynamic_bitsetImSaImEEEjj@Base 1.6
 (optional=templinst)_ZN3pcl19NormalSpaceSamplingINS_13InterestPointENS_6NormalEE7findBinEPfj@Base 1.6
 (optional=templinst)_ZN3pcl19NormalSpaceSamplingINS_13InterestPointENS_6NormalEE7setBinsEjjj@Base 1.6
 (optional=templinst)_ZN3pcl19NormalSpaceSamplingINS_13InterestPointENS_6NormalEE7setSeedEj@Base 1.6
 (optional=templinst)_ZN3pcl19NormalSpaceSamplingINS_13InterestPointENS_6NormalEE9setSampleEj@Base 1.6
 (optional=templinst)_ZN3pcl19NormalSpaceSamplingINS_13InterestPointENS_6NormalEEC1Ev@Base 1.6
 (optional=templinst)_ZN3pcl19NormalSpaceSamplingINS_13InterestPointENS_6NormalEEC2Ev@Base 1.6
 (optional=templinst)_ZN3pcl19NormalSpaceSamplingINS_13InterestPointENS_6NormalEED0Ev@Base 1.6
 (optional=templinst)_ZN3pcl19NormalSpaceSamplingINS_13InterestPointENS_6NormalEED1Ev@Base 1.6
 (optional=templinst)_ZN3pcl19NormalSpaceSamplingINS_13InterestPointENS_6NormalEED2Ev@Base 1.6
 (optional=templinst)_ZN3pcl19NormalSpaceSamplingINS_14PointWithRangeENS_11PointNormalEE10setNormalsERKN5boost10shared_ptrINS_10PointCloudIS2_EEEE@Base 1.6
 (optional=templinst)_ZN3pcl19NormalSpaceSamplingINS_14PointWithRangeENS_11PointNormalEE11applyFilterERNS_10PointCloudIS1_EE@Base 1.6
 (optional=templinst)_ZN3pcl19NormalSpaceSamplingINS_14PointWithRangeENS_11PointNormalEE11applyFilterERSt6vectorIiSaIiEE@Base 1.6
 (optional=templinst)_ZN3pcl19NormalSpaceSamplingINS_14PointWithRangeENS_11PointNormalEE18isEntireBinSampledERN5boost14dynamic_bitsetImSaImEEEjj@Base 1.6
 (optional=templinst)_ZN3pcl19NormalSpaceSamplingINS_14PointWithRangeENS_11PointNormalEE7findBinEPfj@Base 1.6
 (optional=templinst)_ZN3pcl19NormalSpaceSamplingINS_14PointWithRangeENS_11PointNormalEE7setBinsEjjj@Base 1.6
 (optional=templinst)_ZN3pcl19NormalSpaceSamplingINS_14PointWithRangeENS_11PointNormalEE7setSeedEj@Base 1.6
 (optional=templinst)_ZN3pcl19NormalSpaceSamplingINS_14PointWithRangeENS_11PointNormalEE9setSampleEj@Base 1.6
 (optional=templinst)_ZN3pcl19NormalSpaceSamplingINS_14PointWithRangeENS_11PointNormalEEC1Ev@Base 1.6
 (optional=templinst)_ZN3pcl19NormalSpaceSamplingINS_14PointWithRangeENS_11PointNormalEEC2Ev@Base 1.6
 (optional=templinst)_ZN3pcl19NormalSpaceSamplingINS_14PointWithRangeENS_11PointNormalEED0Ev@Base 1.6
 (optional=templinst)_ZN3pcl19NormalSpaceSamplingINS_14PointWithRangeENS_11PointNormalEED1Ev@Base 1.6
 (optional=templinst)_ZN3pcl19NormalSpaceSamplingINS_14PointWithRangeENS_11PointNormalEED2Ev@Base 1.6
 (optional=templinst)_ZN3pcl19NormalSpaceSamplingINS_14PointWithRangeENS_15PointXYZINormalEE10setNormalsERKN5boost10shared_ptrINS_10PointCloudIS2_EEEE@Base 1.6
 (optional=templinst)_ZN3pcl19NormalSpaceSamplingINS_14PointWithRangeENS_15PointXYZINormalEE11applyFilterERNS_10PointCloudIS1_EE@Base 1.6
 (optional=templinst)_ZN3pcl19NormalSpaceSamplingINS_14PointWithRangeENS_15PointXYZINormalEE11applyFilterERSt6vectorIiSaIiEE@Base 1.6
 (optional=templinst)_ZN3pcl19NormalSpaceSamplingINS_14PointWithRangeENS_15PointXYZINormalEE18isEntireBinSampledERN5boost14dynamic_bitsetImSaImEEEjj@Base 1.6
 (optional=templinst)_ZN3pcl19NormalSpaceSamplingINS_14PointWithRangeENS_15PointXYZINormalEE7findBinEPfj@Base 1.6
 (optional=templinst)_ZN3pcl19NormalSpaceSamplingINS_14PointWithRangeENS_15PointXYZINormalEE7setBinsEjjj@Base 1.6
 (optional=templinst)_ZN3pcl19NormalSpaceSamplingINS_14PointWithRangeENS_15PointXYZINormalEE7setSeedEj@Base 1.6
 (optional=templinst)_ZN3pcl19NormalSpaceSamplingINS_14PointWithRangeENS_15PointXYZINormalEE9setSampleEj@Base 1.6
 (optional=templinst)_ZN3pcl19NormalSpaceSamplingINS_14PointWithRangeENS_15PointXYZINormalEEC1Ev@Base 1.6
 (optional=templinst)_ZN3pcl19NormalSpaceSamplingINS_14PointWithRangeENS_15PointXYZINormalEEC2Ev@Base 1.6
 (optional=templinst)_ZN3pcl19NormalSpaceSamplingINS_14PointWithRangeENS_15PointXYZINormalEED0Ev@Base 1.6
 (optional=templinst)_ZN3pcl19NormalSpaceSamplingINS_14PointWithRangeENS_15PointXYZINormalEED1Ev@Base 1.6
 (optional=templinst)_ZN3pcl19NormalSpaceSamplingINS_14PointWithRangeENS_15PointXYZINormalEED2Ev@Base 1.6
 (optional=templinst)_ZN3pcl19NormalSpaceSamplingINS_14PointWithRangeENS_17PointXYZRGBNormalEE10setNormalsERKN5boost10shared_ptrINS_10PointCloudIS2_EEEE@Base 1.6
 (optional=templinst)_ZN3pcl19NormalSpaceSamplingINS_14PointWithRangeENS_17PointXYZRGBNormalEE11applyFilterERNS_10PointCloudIS1_EE@Base 1.6
 (optional=templinst)_ZN3pcl19NormalSpaceSamplingINS_14PointWithRangeENS_17PointXYZRGBNormalEE11applyFilterERSt6vectorIiSaIiEE@Base 1.6
 (optional=templinst)_ZN3pcl19NormalSpaceSamplingINS_14PointWithRangeENS_17PointXYZRGBNormalEE18isEntireBinSampledERN5boost14dynamic_bitsetImSaImEEEjj@Base 1.6
 (optional=templinst)_ZN3pcl19NormalSpaceSamplingINS_14PointWithRangeENS_17PointXYZRGBNormalEE7findBinEPfj@Base 1.6
 (optional=templinst)_ZN3pcl19NormalSpaceSamplingINS_14PointWithRangeENS_17PointXYZRGBNormalEE7setBinsEjjj@Base 1.6
 (optional=templinst)_ZN3pcl19NormalSpaceSamplingINS_14PointWithRangeENS_17PointXYZRGBNormalEE7setSeedEj@Base 1.6
 (optional=templinst)_ZN3pcl19NormalSpaceSamplingINS_14PointWithRangeENS_17PointXYZRGBNormalEE9setSampleEj@Base 1.6
 (optional=templinst)_ZN3pcl19NormalSpaceSamplingINS_14PointWithRangeENS_17PointXYZRGBNormalEEC1Ev@Base 1.6
 (optional=templinst)_ZN3pcl19NormalSpaceSamplingINS_14PointWithRangeENS_17PointXYZRGBNormalEEC2Ev@Base 1.6
 (optional=templinst)_ZN3pcl19NormalSpaceSamplingINS_14PointWithRangeENS_17PointXYZRGBNormalEED0Ev@Base 1.6
 (optional=templinst)_ZN3pcl19NormalSpaceSamplingINS_14PointWithRangeENS_17PointXYZRGBNormalEED1Ev@Base 1.6
 (optional=templinst)_ZN3pcl19NormalSpaceSamplingINS_14PointWithRangeENS_17PointXYZRGBNormalEED2Ev@Base 1.6
 (optional=templinst)_ZN3pcl19NormalSpaceSamplingINS_14PointWithRangeENS_6NormalEE10setNormalsERKN5boost10shared_ptrINS_10PointCloudIS2_EEEE@Base 1.6
 (optional=templinst)_ZN3pcl19NormalSpaceSamplingINS_14PointWithRangeENS_6NormalEE11applyFilterERNS_10PointCloudIS1_EE@Base 1.6
 (optional=templinst)_ZN3pcl19NormalSpaceSamplingINS_14PointWithRangeENS_6NormalEE11applyFilterERSt6vectorIiSaIiEE@Base 1.6
 (optional=templinst)_ZN3pcl19NormalSpaceSamplingINS_14PointWithRangeENS_6NormalEE18isEntireBinSampledERN5boost14dynamic_bitsetImSaImEEEjj@Base 1.6
 (optional=templinst)_ZN3pcl19NormalSpaceSamplingINS_14PointWithRangeENS_6NormalEE7findBinEPfj@Base 1.6
 (optional=templinst)_ZN3pcl19NormalSpaceSamplingINS_14PointWithRangeENS_6NormalEE7setBinsEjjj@Base 1.6
 (optional=templinst)_ZN3pcl19NormalSpaceSamplingINS_14PointWithRangeENS_6NormalEE7setSeedEj@Base 1.6
 (optional=templinst)_ZN3pcl19NormalSpaceSamplingINS_14PointWithRangeENS_6NormalEE9setSampleEj@Base 1.6
 (optional=templinst)_ZN3pcl19NormalSpaceSamplingINS_14PointWithRangeENS_6NormalEEC1Ev@Base 1.6
 (optional=templinst)_ZN3pcl19NormalSpaceSamplingINS_14PointWithRangeENS_6NormalEEC2Ev@Base 1.6
 (optional=templinst)_ZN3pcl19NormalSpaceSamplingINS_14PointWithRangeENS_6NormalEED0Ev@Base 1.6
 (optional=templinst)_ZN3pcl19NormalSpaceSamplingINS_14PointWithRangeENS_6NormalEED1Ev@Base 1.6
 (optional=templinst)_ZN3pcl19NormalSpaceSamplingINS_14PointWithRangeENS_6NormalEED2Ev@Base 1.6
 (optional=templinst)_ZN3pcl19NormalSpaceSamplingINS_14PointWithScaleENS_11PointNormalEE10setNormalsERKN5boost10shared_ptrINS_10PointCloudIS2_EEEE@Base 1.6
 (optional=templinst)_ZN3pcl19NormalSpaceSamplingINS_14PointWithScaleENS_11PointNormalEE11applyFilterERNS_10PointCloudIS1_EE@Base 1.6
 (optional=templinst)_ZN3pcl19NormalSpaceSamplingINS_14PointWithScaleENS_11PointNormalEE11applyFilterERSt6vectorIiSaIiEE@Base 1.6
 (optional=templinst)_ZN3pcl19NormalSpaceSamplingINS_14PointWithScaleENS_11PointNormalEE18isEntireBinSampledERN5boost14dynamic_bitsetImSaImEEEjj@Base 1.6
 (optional=templinst)_ZN3pcl19NormalSpaceSamplingINS_14PointWithScaleENS_11PointNormalEE7findBinEPfj@Base 1.6
 (optional=templinst)_ZN3pcl19NormalSpaceSamplingINS_14PointWithScaleENS_11PointNormalEE7setBinsEjjj@Base 1.6
 (optional=templinst)_ZN3pcl19NormalSpaceSamplingINS_14PointWithScaleENS_11PointNormalEE7setSeedEj@Base 1.6
 (optional=templinst)_ZN3pcl19NormalSpaceSamplingINS_14PointWithScaleENS_11PointNormalEE9setSampleEj@Base 1.6
 (optional=templinst)_ZN3pcl19NormalSpaceSamplingINS_14PointWithScaleENS_11PointNormalEEC1Ev@Base 1.6
 (optional=templinst)_ZN3pcl19NormalSpaceSamplingINS_14PointWithScaleENS_11PointNormalEEC2Ev@Base 1.6
 (optional=templinst)_ZN3pcl19NormalSpaceSamplingINS_14PointWithScaleENS_11PointNormalEED0Ev@Base 1.6
 (optional=templinst)_ZN3pcl19NormalSpaceSamplingINS_14PointWithScaleENS_11PointNormalEED1Ev@Base 1.6
 (optional=templinst)_ZN3pcl19NormalSpaceSamplingINS_14PointWithScaleENS_11PointNormalEED2Ev@Base 1.6
 (optional=templinst)_ZN3pcl19NormalSpaceSamplingINS_14PointWithScaleENS_15PointXYZINormalEE10setNormalsERKN5boost10shared_ptrINS_10PointCloudIS2_EEEE@Base 1.6
 (optional=templinst)_ZN3pcl19NormalSpaceSamplingINS_14PointWithScaleENS_15PointXYZINormalEE11applyFilterERNS_10PointCloudIS1_EE@Base 1.6
 (optional=templinst)_ZN3pcl19NormalSpaceSamplingINS_14PointWithScaleENS_15PointXYZINormalEE11applyFilterERSt6vectorIiSaIiEE@Base 1.6
 (optional=templinst)_ZN3pcl19NormalSpaceSamplingINS_14PointWithScaleENS_15PointXYZINormalEE18isEntireBinSampledERN5boost14dynamic_bitsetImSaImEEEjj@Base 1.6
 (optional=templinst)_ZN3pcl19NormalSpaceSamplingINS_14PointWithScaleENS_15PointXYZINormalEE7findBinEPfj@Base 1.6
 (optional=templinst)_ZN3pcl19NormalSpaceSamplingINS_14PointWithScaleENS_15PointXYZINormalEE7setBinsEjjj@Base 1.6
 (optional=templinst)_ZN3pcl19NormalSpaceSamplingINS_14PointWithScaleENS_15PointXYZINormalEE7setSeedEj@Base 1.6
 (optional=templinst)_ZN3pcl19NormalSpaceSamplingINS_14PointWithScaleENS_15PointXYZINormalEE9setSampleEj@Base 1.6
 (optional=templinst)_ZN3pcl19NormalSpaceSamplingINS_14PointWithScaleENS_15PointXYZINormalEEC1Ev@Base 1.6
 (optional=templinst)_ZN3pcl19NormalSpaceSamplingINS_14PointWithScaleENS_15PointXYZINormalEEC2Ev@Base 1.6
 (optional=templinst)_ZN3pcl19NormalSpaceSamplingINS_14PointWithScaleENS_15PointXYZINormalEED0Ev@Base 1.6
 (optional=templinst)_ZN3pcl19NormalSpaceSamplingINS_14PointWithScaleENS_15PointXYZINormalEED1Ev@Base 1.6
 (optional=templinst)_ZN3pcl19NormalSpaceSamplingINS_14PointWithScaleENS_15PointXYZINormalEED2Ev@Base 1.6
 (optional=templinst)_ZN3pcl19NormalSpaceSamplingINS_14PointWithScaleENS_17PointXYZRGBNormalEE10setNormalsERKN5boost10shared_ptrINS_10PointCloudIS2_EEEE@Base 1.6
 (optional=templinst)_ZN3pcl19NormalSpaceSamplingINS_14PointWithScaleENS_17PointXYZRGBNormalEE11applyFilterERNS_10PointCloudIS1_EE@Base 1.6
 (optional=templinst)_ZN3pcl19NormalSpaceSamplingINS_14PointWithScaleENS_17PointXYZRGBNormalEE11applyFilterERSt6vectorIiSaIiEE@Base 1.6
 (optional=templinst)_ZN3pcl19NormalSpaceSamplingINS_14PointWithScaleENS_17PointXYZRGBNormalEE18isEntireBinSampledERN5boost14dynamic_bitsetImSaImEEEjj@Base 1.6
 (optional=templinst)_ZN3pcl19NormalSpaceSamplingINS_14PointWithScaleENS_17PointXYZRGBNormalEE7findBinEPfj@Base 1.6
 (optional=templinst)_ZN3pcl19NormalSpaceSamplingINS_14PointWithScaleENS_17PointXYZRGBNormalEE7setBinsEjjj@Base 1.6
 (optional=templinst)_ZN3pcl19NormalSpaceSamplingINS_14PointWithScaleENS_17PointXYZRGBNormalEE7setSeedEj@Base 1.6
 (optional=templinst)_ZN3pcl19NormalSpaceSamplingINS_14PointWithScaleENS_17PointXYZRGBNormalEE9setSampleEj@Base 1.6
 (optional=templinst)_ZN3pcl19NormalSpaceSamplingINS_14PointWithScaleENS_17PointXYZRGBNormalEEC1Ev@Base 1.6
 (optional=templinst)_ZN3pcl19NormalSpaceSamplingINS_14PointWithScaleENS_17PointXYZRGBNormalEEC2Ev@Base 1.6
 (optional=templinst)_ZN3pcl19NormalSpaceSamplingINS_14PointWithScaleENS_17PointXYZRGBNormalEED0Ev@Base 1.6
 (optional=templinst)_ZN3pcl19NormalSpaceSamplingINS_14PointWithScaleENS_17PointXYZRGBNormalEED1Ev@Base 1.6
 (optional=templinst)_ZN3pcl19NormalSpaceSamplingINS_14PointWithScaleENS_17PointXYZRGBNormalEED2Ev@Base 1.6
 (optional=templinst)_ZN3pcl19NormalSpaceSamplingINS_14PointWithScaleENS_6NormalEE10setNormalsERKN5boost10shared_ptrINS_10PointCloudIS2_EEEE@Base 1.6
 (optional=templinst)_ZN3pcl19NormalSpaceSamplingINS_14PointWithScaleENS_6NormalEE11applyFilterERNS_10PointCloudIS1_EE@Base 1.6
 (optional=templinst)_ZN3pcl19NormalSpaceSamplingINS_14PointWithScaleENS_6NormalEE11applyFilterERSt6vectorIiSaIiEE@Base 1.6
 (optional=templinst)_ZN3pcl19NormalSpaceSamplingINS_14PointWithScaleENS_6NormalEE18isEntireBinSampledERN5boost14dynamic_bitsetImSaImEEEjj@Base 1.6
 (optional=templinst)_ZN3pcl19NormalSpaceSamplingINS_14PointWithScaleENS_6NormalEE7findBinEPfj@Base 1.6
 (optional=templinst)_ZN3pcl19NormalSpaceSamplingINS_14PointWithScaleENS_6NormalEE7setBinsEjjj@Base 1.6
 (optional=templinst)_ZN3pcl19NormalSpaceSamplingINS_14PointWithScaleENS_6NormalEE7setSeedEj@Base 1.6
 (optional=templinst)_ZN3pcl19NormalSpaceSamplingINS_14PointWithScaleENS_6NormalEE9setSampleEj@Base 1.6
 (optional=templinst)_ZN3pcl19NormalSpaceSamplingINS_14PointWithScaleENS_6NormalEEC1Ev@Base 1.6
 (optional=templinst)_ZN3pcl19NormalSpaceSamplingINS_14PointWithScaleENS_6NormalEEC2Ev@Base 1.6
 (optional=templinst)_ZN3pcl19NormalSpaceSamplingINS_14PointWithScaleENS_6NormalEED0Ev@Base 1.6
 (optional=templinst)_ZN3pcl19NormalSpaceSamplingINS_14PointWithScaleENS_6NormalEED1Ev@Base 1.6
 (optional=templinst)_ZN3pcl19NormalSpaceSamplingINS_14PointWithScaleENS_6NormalEED2Ev@Base 1.6
 (optional=templinst)_ZN3pcl19NormalSpaceSamplingINS_15PointXYZINormalENS_11PointNormalEE10setNormalsERKN5boost10shared_ptrINS_10PointCloudIS2_EEEE@Base 1.6
 (optional=templinst)_ZN3pcl19NormalSpaceSamplingINS_15PointXYZINormalENS_11PointNormalEE11applyFilterERNS_10PointCloudIS1_EE@Base 1.6
 (optional=templinst)_ZN3pcl19NormalSpaceSamplingINS_15PointXYZINormalENS_11PointNormalEE11applyFilterERSt6vectorIiSaIiEE@Base 1.6
 (optional=templinst)_ZN3pcl19NormalSpaceSamplingINS_15PointXYZINormalENS_11PointNormalEE18isEntireBinSampledERN5boost14dynamic_bitsetImSaImEEEjj@Base 1.6
 (optional=templinst)_ZN3pcl19NormalSpaceSamplingINS_15PointXYZINormalENS_11PointNormalEE7findBinEPfj@Base 1.6
 (optional=templinst)_ZN3pcl19NormalSpaceSamplingINS_15PointXYZINormalENS_11PointNormalEE7setBinsEjjj@Base 1.6
 (optional=templinst)_ZN3pcl19NormalSpaceSamplingINS_15PointXYZINormalENS_11PointNormalEE7setSeedEj@Base 1.6
 (optional=templinst)_ZN3pcl19NormalSpaceSamplingINS_15PointXYZINormalENS_11PointNormalEE9setSampleEj@Base 1.6
 (optional=templinst)_ZN3pcl19NormalSpaceSamplingINS_15PointXYZINormalENS_11PointNormalEEC1Ev@Base 1.6
 (optional=templinst)_ZN3pcl19NormalSpaceSamplingINS_15PointXYZINormalENS_11PointNormalEEC2Ev@Base 1.6
 (optional=templinst)_ZN3pcl19NormalSpaceSamplingINS_15PointXYZINormalENS_11PointNormalEED0Ev@Base 1.6
 (optional=templinst)_ZN3pcl19NormalSpaceSamplingINS_15PointXYZINormalENS_11PointNormalEED1Ev@Base 1.6
 (optional=templinst)_ZN3pcl19NormalSpaceSamplingINS_15PointXYZINormalENS_11PointNormalEED2Ev@Base 1.6
 (optional=templinst)_ZN3pcl19NormalSpaceSamplingINS_15PointXYZINormalENS_17PointXYZRGBNormalEE10setNormalsERKN5boost10shared_ptrINS_10PointCloudIS2_EEEE@Base 1.6
 (optional=templinst)_ZN3pcl19NormalSpaceSamplingINS_15PointXYZINormalENS_17PointXYZRGBNormalEE11applyFilterERNS_10PointCloudIS1_EE@Base 1.6
 (optional=templinst)_ZN3pcl19NormalSpaceSamplingINS_15PointXYZINormalENS_17PointXYZRGBNormalEE11applyFilterERSt6vectorIiSaIiEE@Base 1.6
 (optional=templinst)_ZN3pcl19NormalSpaceSamplingINS_15PointXYZINormalENS_17PointXYZRGBNormalEE18isEntireBinSampledERN5boost14dynamic_bitsetImSaImEEEjj@Base 1.6
 (optional=templinst)_ZN3pcl19NormalSpaceSamplingINS_15PointXYZINormalENS_17PointXYZRGBNormalEE7findBinEPfj@Base 1.6
 (optional=templinst)_ZN3pcl19NormalSpaceSamplingINS_15PointXYZINormalENS_17PointXYZRGBNormalEE7setBinsEjjj@Base 1.6
 (optional=templinst)_ZN3pcl19NormalSpaceSamplingINS_15PointXYZINormalENS_17PointXYZRGBNormalEE7setSeedEj@Base 1.6
 (optional=templinst)_ZN3pcl19NormalSpaceSamplingINS_15PointXYZINormalENS_17PointXYZRGBNormalEE9setSampleEj@Base 1.6
 (optional=templinst)_ZN3pcl19NormalSpaceSamplingINS_15PointXYZINormalENS_17PointXYZRGBNormalEEC1Ev@Base 1.6
 (optional=templinst)_ZN3pcl19NormalSpaceSamplingINS_15PointXYZINormalENS_17PointXYZRGBNormalEEC2Ev@Base 1.6
 (optional=templinst)_ZN3pcl19NormalSpaceSamplingINS_15PointXYZINormalENS_17PointXYZRGBNormalEED0Ev@Base 1.6
 (optional=templinst)_ZN3pcl19NormalSpaceSamplingINS_15PointXYZINormalENS_17PointXYZRGBNormalEED1Ev@Base 1.6
 (optional=templinst)_ZN3pcl19NormalSpaceSamplingINS_15PointXYZINormalENS_17PointXYZRGBNormalEED2Ev@Base 1.6
 (optional=templinst)_ZN3pcl19NormalSpaceSamplingINS_15PointXYZINormalENS_6NormalEE10setNormalsERKN5boost10shared_ptrINS_10PointCloudIS2_EEEE@Base 1.6
 (optional=templinst)_ZN3pcl19NormalSpaceSamplingINS_15PointXYZINormalENS_6NormalEE11applyFilterERNS_10PointCloudIS1_EE@Base 1.6
 (optional=templinst)_ZN3pcl19NormalSpaceSamplingINS_15PointXYZINormalENS_6NormalEE11applyFilterERSt6vectorIiSaIiEE@Base 1.6
 (optional=templinst)_ZN3pcl19NormalSpaceSamplingINS_15PointXYZINormalENS_6NormalEE18isEntireBinSampledERN5boost14dynamic_bitsetImSaImEEEjj@Base 1.6
 (optional=templinst)_ZN3pcl19NormalSpaceSamplingINS_15PointXYZINormalENS_6NormalEE7findBinEPfj@Base 1.6
 (optional=templinst)_ZN3pcl19NormalSpaceSamplingINS_15PointXYZINormalENS_6NormalEE7setBinsEjjj@Base 1.6
 (optional=templinst)_ZN3pcl19NormalSpaceSamplingINS_15PointXYZINormalENS_6NormalEE7setSeedEj@Base 1.6
 (optional=templinst)_ZN3pcl19NormalSpaceSamplingINS_15PointXYZINormalENS_6NormalEE9setSampleEj@Base 1.6
 (optional=templinst)_ZN3pcl19NormalSpaceSamplingINS_15PointXYZINormalENS_6NormalEEC1Ev@Base 1.6
 (optional=templinst)_ZN3pcl19NormalSpaceSamplingINS_15PointXYZINormalENS_6NormalEEC2Ev@Base 1.6
 (optional=templinst)_ZN3pcl19NormalSpaceSamplingINS_15PointXYZINormalENS_6NormalEED0Ev@Base 1.6
 (optional=templinst)_ZN3pcl19NormalSpaceSamplingINS_15PointXYZINormalENS_6NormalEED1Ev@Base 1.6
 (optional=templinst)_ZN3pcl19NormalSpaceSamplingINS_15PointXYZINormalENS_6NormalEED2Ev@Base 1.6
 (optional=templinst)_ZN3pcl19NormalSpaceSamplingINS_15PointXYZINormalES1_E10setNormalsERKN5boost10shared_ptrINS_10PointCloudIS1_EEEE@Base 1.6
 (optional=templinst)_ZN3pcl19NormalSpaceSamplingINS_15PointXYZINormalES1_E11applyFilterERNS_10PointCloudIS1_EE@Base 1.6
 (optional=templinst)_ZN3pcl19NormalSpaceSamplingINS_15PointXYZINormalES1_E11applyFilterERSt6vectorIiSaIiEE@Base 1.6
 (optional=templinst)_ZN3pcl19NormalSpaceSamplingINS_15PointXYZINormalES1_E18isEntireBinSampledERN5boost14dynamic_bitsetImSaImEEEjj@Base 1.6
 (optional=templinst)_ZN3pcl19NormalSpaceSamplingINS_15PointXYZINormalES1_E7findBinEPfj@Base 1.6
 (optional=templinst)_ZN3pcl19NormalSpaceSamplingINS_15PointXYZINormalES1_E7setBinsEjjj@Base 1.6
 (optional=templinst)_ZN3pcl19NormalSpaceSamplingINS_15PointXYZINormalES1_E7setSeedEj@Base 1.6
 (optional=templinst)_ZN3pcl19NormalSpaceSamplingINS_15PointXYZINormalES1_E9setSampleEj@Base 1.6
 (optional=templinst)_ZN3pcl19NormalSpaceSamplingINS_15PointXYZINormalES1_EC1Ev@Base 1.6
 (optional=templinst)_ZN3pcl19NormalSpaceSamplingINS_15PointXYZINormalES1_EC2Ev@Base 1.6
 (optional=templinst)_ZN3pcl19NormalSpaceSamplingINS_15PointXYZINormalES1_ED0Ev@Base 1.6
 (optional=templinst)_ZN3pcl19NormalSpaceSamplingINS_15PointXYZINormalES1_ED1Ev@Base 1.6
 (optional=templinst)_ZN3pcl19NormalSpaceSamplingINS_15PointXYZINormalES1_ED2Ev@Base 1.6
 (optional=templinst)_ZN3pcl19NormalSpaceSamplingINS_17PointXYZRGBNormalENS_11PointNormalEE10setNormalsERKN5boost10shared_ptrINS_10PointCloudIS2_EEEE@Base 1.6
 (optional=templinst)_ZN3pcl19NormalSpaceSamplingINS_17PointXYZRGBNormalENS_11PointNormalEE11applyFilterERNS_10PointCloudIS1_EE@Base 1.6
 (optional=templinst)_ZN3pcl19NormalSpaceSamplingINS_17PointXYZRGBNormalENS_11PointNormalEE11applyFilterERSt6vectorIiSaIiEE@Base 1.6
 (optional=templinst)_ZN3pcl19NormalSpaceSamplingINS_17PointXYZRGBNormalENS_11PointNormalEE18isEntireBinSampledERN5boost14dynamic_bitsetImSaImEEEjj@Base 1.6
 (optional=templinst)_ZN3pcl19NormalSpaceSamplingINS_17PointXYZRGBNormalENS_11PointNormalEE7findBinEPfj@Base 1.6
 (optional=templinst)_ZN3pcl19NormalSpaceSamplingINS_17PointXYZRGBNormalENS_11PointNormalEE7setBinsEjjj@Base 1.6
 (optional=templinst)_ZN3pcl19NormalSpaceSamplingINS_17PointXYZRGBNormalENS_11PointNormalEE7setSeedEj@Base 1.6
 (optional=templinst)_ZN3pcl19NormalSpaceSamplingINS_17PointXYZRGBNormalENS_11PointNormalEE9setSampleEj@Base 1.6
 (optional=templinst)_ZN3pcl19NormalSpaceSamplingINS_17PointXYZRGBNormalENS_11PointNormalEEC1Ev@Base 1.6
 (optional=templinst)_ZN3pcl19NormalSpaceSamplingINS_17PointXYZRGBNormalENS_11PointNormalEEC2Ev@Base 1.6
 (optional=templinst)_ZN3pcl19NormalSpaceSamplingINS_17PointXYZRGBNormalENS_11PointNormalEED0Ev@Base 1.6
 (optional=templinst)_ZN3pcl19NormalSpaceSamplingINS_17PointXYZRGBNormalENS_11PointNormalEED1Ev@Base 1.6
 (optional=templinst)_ZN3pcl19NormalSpaceSamplingINS_17PointXYZRGBNormalENS_11PointNormalEED2Ev@Base 1.6
 (optional=templinst)_ZN3pcl19NormalSpaceSamplingINS_17PointXYZRGBNormalENS_15PointXYZINormalEE10setNormalsERKN5boost10shared_ptrINS_10PointCloudIS2_EEEE@Base 1.6
 (optional=templinst)_ZN3pcl19NormalSpaceSamplingINS_17PointXYZRGBNormalENS_15PointXYZINormalEE11applyFilterERNS_10PointCloudIS1_EE@Base 1.6
 (optional=templinst)_ZN3pcl19NormalSpaceSamplingINS_17PointXYZRGBNormalENS_15PointXYZINormalEE11applyFilterERSt6vectorIiSaIiEE@Base 1.6
 (optional=templinst)_ZN3pcl19NormalSpaceSamplingINS_17PointXYZRGBNormalENS_15PointXYZINormalEE18isEntireBinSampledERN5boost14dynamic_bitsetImSaImEEEjj@Base 1.6
 (optional=templinst)_ZN3pcl19NormalSpaceSamplingINS_17PointXYZRGBNormalENS_15PointXYZINormalEE7findBinEPfj@Base 1.6
 (optional=templinst)_ZN3pcl19NormalSpaceSamplingINS_17PointXYZRGBNormalENS_15PointXYZINormalEE7setBinsEjjj@Base 1.6
 (optional=templinst)_ZN3pcl19NormalSpaceSamplingINS_17PointXYZRGBNormalENS_15PointXYZINormalEE7setSeedEj@Base 1.6
 (optional=templinst)_ZN3pcl19NormalSpaceSamplingINS_17PointXYZRGBNormalENS_15PointXYZINormalEE9setSampleEj@Base 1.6
 (optional=templinst)_ZN3pcl19NormalSpaceSamplingINS_17PointXYZRGBNormalENS_15PointXYZINormalEEC1Ev@Base 1.6
 (optional=templinst)_ZN3pcl19NormalSpaceSamplingINS_17PointXYZRGBNormalENS_15PointXYZINormalEEC2Ev@Base 1.6
 (optional=templinst)_ZN3pcl19NormalSpaceSamplingINS_17PointXYZRGBNormalENS_15PointXYZINormalEED0Ev@Base 1.6
 (optional=templinst)_ZN3pcl19NormalSpaceSamplingINS_17PointXYZRGBNormalENS_15PointXYZINormalEED1Ev@Base 1.6
 (optional=templinst)_ZN3pcl19NormalSpaceSamplingINS_17PointXYZRGBNormalENS_15PointXYZINormalEED2Ev@Base 1.6
 (optional=templinst)_ZN3pcl19NormalSpaceSamplingINS_17PointXYZRGBNormalENS_6NormalEE10setNormalsERKN5boost10shared_ptrINS_10PointCloudIS2_EEEE@Base 1.6
 (optional=templinst)_ZN3pcl19NormalSpaceSamplingINS_17PointXYZRGBNormalENS_6NormalEE11applyFilterERNS_10PointCloudIS1_EE@Base 1.6
 (optional=templinst)_ZN3pcl19NormalSpaceSamplingINS_17PointXYZRGBNormalENS_6NormalEE11applyFilterERSt6vectorIiSaIiEE@Base 1.6
 (optional=templinst)_ZN3pcl19NormalSpaceSamplingINS_17PointXYZRGBNormalENS_6NormalEE18isEntireBinSampledERN5boost14dynamic_bitsetImSaImEEEjj@Base 1.6
 (optional=templinst)_ZN3pcl19NormalSpaceSamplingINS_17PointXYZRGBNormalENS_6NormalEE7findBinEPfj@Base 1.6
 (optional=templinst)_ZN3pcl19NormalSpaceSamplingINS_17PointXYZRGBNormalENS_6NormalEE7setBinsEjjj@Base 1.6
 (optional=templinst)_ZN3pcl19NormalSpaceSamplingINS_17PointXYZRGBNormalENS_6NormalEE7setSeedEj@Base 1.6
 (optional=templinst)_ZN3pcl19NormalSpaceSamplingINS_17PointXYZRGBNormalENS_6NormalEE9setSampleEj@Base 1.6
 (optional=templinst)_ZN3pcl19NormalSpaceSamplingINS_17PointXYZRGBNormalENS_6NormalEEC1Ev@Base 1.6
 (optional=templinst)_ZN3pcl19NormalSpaceSamplingINS_17PointXYZRGBNormalENS_6NormalEEC2Ev@Base 1.6
 (optional=templinst)_ZN3pcl19NormalSpaceSamplingINS_17PointXYZRGBNormalENS_6NormalEED0Ev@Base 1.6
 (optional=templinst)_ZN3pcl19NormalSpaceSamplingINS_17PointXYZRGBNormalENS_6NormalEED1Ev@Base 1.6
 (optional=templinst)_ZN3pcl19NormalSpaceSamplingINS_17PointXYZRGBNormalENS_6NormalEED2Ev@Base 1.6
 (optional=templinst)_ZN3pcl19NormalSpaceSamplingINS_17PointXYZRGBNormalES1_E10setNormalsERKN5boost10shared_ptrINS_10PointCloudIS1_EEEE@Base 1.6
 (optional=templinst)_ZN3pcl19NormalSpaceSamplingINS_17PointXYZRGBNormalES1_E11applyFilterERNS_10PointCloudIS1_EE@Base 1.6
 (optional=templinst)_ZN3pcl19NormalSpaceSamplingINS_17PointXYZRGBNormalES1_E11applyFilterERSt6vectorIiSaIiEE@Base 1.6
 (optional=templinst)_ZN3pcl19NormalSpaceSamplingINS_17PointXYZRGBNormalES1_E18isEntireBinSampledERN5boost14dynamic_bitsetImSaImEEEjj@Base 1.6
 (optional=templinst)_ZN3pcl19NormalSpaceSamplingINS_17PointXYZRGBNormalES1_E7findBinEPfj@Base 1.6
 (optional=templinst)_ZN3pcl19NormalSpaceSamplingINS_17PointXYZRGBNormalES1_E7setBinsEjjj@Base 1.6
 (optional=templinst)_ZN3pcl19NormalSpaceSamplingINS_17PointXYZRGBNormalES1_E7setSeedEj@Base 1.6
 (optional=templinst)_ZN3pcl19NormalSpaceSamplingINS_17PointXYZRGBNormalES1_E9setSampleEj@Base 1.6
 (optional=templinst)_ZN3pcl19NormalSpaceSamplingINS_17PointXYZRGBNormalES1_EC1Ev@Base 1.6
 (optional=templinst)_ZN3pcl19NormalSpaceSamplingINS_17PointXYZRGBNormalES1_EC2Ev@Base 1.6
 (optional=templinst)_ZN3pcl19NormalSpaceSamplingINS_17PointXYZRGBNormalES1_ED0Ev@Base 1.6
 (optional=templinst)_ZN3pcl19NormalSpaceSamplingINS_17PointXYZRGBNormalES1_ED1Ev@Base 1.6
 (optional=templinst)_ZN3pcl19NormalSpaceSamplingINS_17PointXYZRGBNormalES1_ED2Ev@Base 1.6
 (optional=templinst)_ZN3pcl19NormalSpaceSamplingINS_18PointWithViewpointENS_11PointNormalEE10setNormalsERKN5boost10shared_ptrINS_10PointCloudIS2_EEEE@Base 1.6
 (optional=templinst)_ZN3pcl19NormalSpaceSamplingINS_18PointWithViewpointENS_11PointNormalEE11applyFilterERNS_10PointCloudIS1_EE@Base 1.6
 (optional=templinst)_ZN3pcl19NormalSpaceSamplingINS_18PointWithViewpointENS_11PointNormalEE11applyFilterERSt6vectorIiSaIiEE@Base 1.6
 (optional=templinst)_ZN3pcl19NormalSpaceSamplingINS_18PointWithViewpointENS_11PointNormalEE18isEntireBinSampledERN5boost14dynamic_bitsetImSaImEEEjj@Base 1.6
 (optional=templinst)_ZN3pcl19NormalSpaceSamplingINS_18PointWithViewpointENS_11PointNormalEE7findBinEPfj@Base 1.6
 (optional=templinst)_ZN3pcl19NormalSpaceSamplingINS_18PointWithViewpointENS_11PointNormalEE7setBinsEjjj@Base 1.6
 (optional=templinst)_ZN3pcl19NormalSpaceSamplingINS_18PointWithViewpointENS_11PointNormalEE7setSeedEj@Base 1.6
 (optional=templinst)_ZN3pcl19NormalSpaceSamplingINS_18PointWithViewpointENS_11PointNormalEE9setSampleEj@Base 1.6
 (optional=templinst)_ZN3pcl19NormalSpaceSamplingINS_18PointWithViewpointENS_11PointNormalEEC1Ev@Base 1.6
 (optional=templinst)_ZN3pcl19NormalSpaceSamplingINS_18PointWithViewpointENS_11PointNormalEEC2Ev@Base 1.6
 (optional=templinst)_ZN3pcl19NormalSpaceSamplingINS_18PointWithViewpointENS_11PointNormalEED0Ev@Base 1.6
 (optional=templinst)_ZN3pcl19NormalSpaceSamplingINS_18PointWithViewpointENS_11PointNormalEED1Ev@Base 1.6
 (optional=templinst)_ZN3pcl19NormalSpaceSamplingINS_18PointWithViewpointENS_11PointNormalEED2Ev@Base 1.6
 (optional=templinst)_ZN3pcl19NormalSpaceSamplingINS_18PointWithViewpointENS_15PointXYZINormalEE10setNormalsERKN5boost10shared_ptrINS_10PointCloudIS2_EEEE@Base 1.6
 (optional=templinst)_ZN3pcl19NormalSpaceSamplingINS_18PointWithViewpointENS_15PointXYZINormalEE11applyFilterERNS_10PointCloudIS1_EE@Base 1.6
 (optional=templinst)_ZN3pcl19NormalSpaceSamplingINS_18PointWithViewpointENS_15PointXYZINormalEE11applyFilterERSt6vectorIiSaIiEE@Base 1.6
 (optional=templinst)_ZN3pcl19NormalSpaceSamplingINS_18PointWithViewpointENS_15PointXYZINormalEE18isEntireBinSampledERN5boost14dynamic_bitsetImSaImEEEjj@Base 1.6
 (optional=templinst)_ZN3pcl19NormalSpaceSamplingINS_18PointWithViewpointENS_15PointXYZINormalEE7findBinEPfj@Base 1.6
 (optional=templinst)_ZN3pcl19NormalSpaceSamplingINS_18PointWithViewpointENS_15PointXYZINormalEE7setBinsEjjj@Base 1.6
 (optional=templinst)_ZN3pcl19NormalSpaceSamplingINS_18PointWithViewpointENS_15PointXYZINormalEE7setSeedEj@Base 1.6
 (optional=templinst)_ZN3pcl19NormalSpaceSamplingINS_18PointWithViewpointENS_15PointXYZINormalEE9setSampleEj@Base 1.6
 (optional=templinst)_ZN3pcl19NormalSpaceSamplingINS_18PointWithViewpointENS_15PointXYZINormalEEC1Ev@Base 1.6
 (optional=templinst)_ZN3pcl19NormalSpaceSamplingINS_18PointWithViewpointENS_15PointXYZINormalEEC2Ev@Base 1.6
 (optional=templinst)_ZN3pcl19NormalSpaceSamplingINS_18PointWithViewpointENS_15PointXYZINormalEED0Ev@Base 1.6
 (optional=templinst)_ZN3pcl19NormalSpaceSamplingINS_18PointWithViewpointENS_15PointXYZINormalEED1Ev@Base 1.6
 (optional=templinst)_ZN3pcl19NormalSpaceSamplingINS_18PointWithViewpointENS_15PointXYZINormalEED2Ev@Base 1.6
 (optional=templinst)_ZN3pcl19NormalSpaceSamplingINS_18PointWithViewpointENS_17PointXYZRGBNormalEE10setNormalsERKN5boost10shared_ptrINS_10PointCloudIS2_EEEE@Base 1.6
 (optional=templinst)_ZN3pcl19NormalSpaceSamplingINS_18PointWithViewpointENS_17PointXYZRGBNormalEE11applyFilterERNS_10PointCloudIS1_EE@Base 1.6
 (optional=templinst)_ZN3pcl19NormalSpaceSamplingINS_18PointWithViewpointENS_17PointXYZRGBNormalEE11applyFilterERSt6vectorIiSaIiEE@Base 1.6
 (optional=templinst)_ZN3pcl19NormalSpaceSamplingINS_18PointWithViewpointENS_17PointXYZRGBNormalEE18isEntireBinSampledERN5boost14dynamic_bitsetImSaImEEEjj@Base 1.6
 (optional=templinst)_ZN3pcl19NormalSpaceSamplingINS_18PointWithViewpointENS_17PointXYZRGBNormalEE7findBinEPfj@Base 1.6
 (optional=templinst)_ZN3pcl19NormalSpaceSamplingINS_18PointWithViewpointENS_17PointXYZRGBNormalEE7setBinsEjjj@Base 1.6
 (optional=templinst)_ZN3pcl19NormalSpaceSamplingINS_18PointWithViewpointENS_17PointXYZRGBNormalEE7setSeedEj@Base 1.6
 (optional=templinst)_ZN3pcl19NormalSpaceSamplingINS_18PointWithViewpointENS_17PointXYZRGBNormalEE9setSampleEj@Base 1.6
 (optional=templinst)_ZN3pcl19NormalSpaceSamplingINS_18PointWithViewpointENS_17PointXYZRGBNormalEEC1Ev@Base 1.6
 (optional=templinst)_ZN3pcl19NormalSpaceSamplingINS_18PointWithViewpointENS_17PointXYZRGBNormalEEC2Ev@Base 1.6
 (optional=templinst)_ZN3pcl19NormalSpaceSamplingINS_18PointWithViewpointENS_17PointXYZRGBNormalEED0Ev@Base 1.6
 (optional=templinst)_ZN3pcl19NormalSpaceSamplingINS_18PointWithViewpointENS_17PointXYZRGBNormalEED1Ev@Base 1.6
 (optional=templinst)_ZN3pcl19NormalSpaceSamplingINS_18PointWithViewpointENS_17PointXYZRGBNormalEED2Ev@Base 1.6
 (optional=templinst)_ZN3pcl19NormalSpaceSamplingINS_18PointWithViewpointENS_6NormalEE10setNormalsERKN5boost10shared_ptrINS_10PointCloudIS2_EEEE@Base 1.6
 (optional=templinst)_ZN3pcl19NormalSpaceSamplingINS_18PointWithViewpointENS_6NormalEE11applyFilterERNS_10PointCloudIS1_EE@Base 1.6
 (optional=templinst)_ZN3pcl19NormalSpaceSamplingINS_18PointWithViewpointENS_6NormalEE11applyFilterERSt6vectorIiSaIiEE@Base 1.6
 (optional=templinst)_ZN3pcl19NormalSpaceSamplingINS_18PointWithViewpointENS_6NormalEE18isEntireBinSampledERN5boost14dynamic_bitsetImSaImEEEjj@Base 1.6
 (optional=templinst)_ZN3pcl19NormalSpaceSamplingINS_18PointWithViewpointENS_6NormalEE7findBinEPfj@Base 1.6
 (optional=templinst)_ZN3pcl19NormalSpaceSamplingINS_18PointWithViewpointENS_6NormalEE7setBinsEjjj@Base 1.6
 (optional=templinst)_ZN3pcl19NormalSpaceSamplingINS_18PointWithViewpointENS_6NormalEE7setSeedEj@Base 1.6
 (optional=templinst)_ZN3pcl19NormalSpaceSamplingINS_18PointWithViewpointENS_6NormalEE9setSampleEj@Base 1.6
 (optional=templinst)_ZN3pcl19NormalSpaceSamplingINS_18PointWithViewpointENS_6NormalEEC1Ev@Base 1.6
 (optional=templinst)_ZN3pcl19NormalSpaceSamplingINS_18PointWithViewpointENS_6NormalEEC2Ev@Base 1.6
 (optional=templinst)_ZN3pcl19NormalSpaceSamplingINS_18PointWithViewpointENS_6NormalEED0Ev@Base 1.6
 (optional=templinst)_ZN3pcl19NormalSpaceSamplingINS_18PointWithViewpointENS_6NormalEED1Ev@Base 1.6
 (optional=templinst)_ZN3pcl19NormalSpaceSamplingINS_18PointWithViewpointENS_6NormalEED2Ev@Base 1.6
 (optional=templinst)_ZN3pcl19NormalSpaceSamplingINS_8PointXYZENS_11PointNormalEE10setNormalsERKN5boost10shared_ptrINS_10PointCloudIS2_EEEE@Base 1.6
 (optional=templinst)_ZN3pcl19NormalSpaceSamplingINS_8PointXYZENS_11PointNormalEE11applyFilterERNS_10PointCloudIS1_EE@Base 1.6
 (optional=templinst)_ZN3pcl19NormalSpaceSamplingINS_8PointXYZENS_11PointNormalEE11applyFilterERSt6vectorIiSaIiEE@Base 1.6
 (optional=templinst)_ZN3pcl19NormalSpaceSamplingINS_8PointXYZENS_11PointNormalEE18isEntireBinSampledERN5boost14dynamic_bitsetImSaImEEEjj@Base 1.6
 (optional=templinst)_ZN3pcl19NormalSpaceSamplingINS_8PointXYZENS_11PointNormalEE7findBinEPfj@Base 1.6
 (optional=templinst)_ZN3pcl19NormalSpaceSamplingINS_8PointXYZENS_11PointNormalEE7setBinsEjjj@Base 1.6
 (optional=templinst)_ZN3pcl19NormalSpaceSamplingINS_8PointXYZENS_11PointNormalEE7setSeedEj@Base 1.6
 (optional=templinst)_ZN3pcl19NormalSpaceSamplingINS_8PointXYZENS_11PointNormalEE9setSampleEj@Base 1.6
 (optional=templinst)_ZN3pcl19NormalSpaceSamplingINS_8PointXYZENS_11PointNormalEEC1Ev@Base 1.6
 (optional=templinst)_ZN3pcl19NormalSpaceSamplingINS_8PointXYZENS_11PointNormalEEC2Ev@Base 1.6
 (optional=templinst)_ZN3pcl19NormalSpaceSamplingINS_8PointXYZENS_11PointNormalEED0Ev@Base 1.6
 (optional=templinst)_ZN3pcl19NormalSpaceSamplingINS_8PointXYZENS_11PointNormalEED1Ev@Base 1.6
 (optional=templinst)_ZN3pcl19NormalSpaceSamplingINS_8PointXYZENS_11PointNormalEED2Ev@Base 1.6
 (optional=templinst)_ZN3pcl19NormalSpaceSamplingINS_8PointXYZENS_15PointXYZINormalEE10setNormalsERKN5boost10shared_ptrINS_10PointCloudIS2_EEEE@Base 1.6
 (optional=templinst)_ZN3pcl19NormalSpaceSamplingINS_8PointXYZENS_15PointXYZINormalEE11applyFilterERNS_10PointCloudIS1_EE@Base 1.6
 (optional=templinst)_ZN3pcl19NormalSpaceSamplingINS_8PointXYZENS_15PointXYZINormalEE11applyFilterERSt6vectorIiSaIiEE@Base 1.6
 (optional=templinst)_ZN3pcl19NormalSpaceSamplingINS_8PointXYZENS_15PointXYZINormalEE18isEntireBinSampledERN5boost14dynamic_bitsetImSaImEEEjj@Base 1.6
 (optional=templinst)_ZN3pcl19NormalSpaceSamplingINS_8PointXYZENS_15PointXYZINormalEE7findBinEPfj@Base 1.6
 (optional=templinst)_ZN3pcl19NormalSpaceSamplingINS_8PointXYZENS_15PointXYZINormalEE7setBinsEjjj@Base 1.6
 (optional=templinst)_ZN3pcl19NormalSpaceSamplingINS_8PointXYZENS_15PointXYZINormalEE7setSeedEj@Base 1.6
 (optional=templinst)_ZN3pcl19NormalSpaceSamplingINS_8PointXYZENS_15PointXYZINormalEE9setSampleEj@Base 1.6
 (optional=templinst)_ZN3pcl19NormalSpaceSamplingINS_8PointXYZENS_15PointXYZINormalEEC1Ev@Base 1.6
 (optional=templinst)_ZN3pcl19NormalSpaceSamplingINS_8PointXYZENS_15PointXYZINormalEEC2Ev@Base 1.6
 (optional=templinst)_ZN3pcl19NormalSpaceSamplingINS_8PointXYZENS_15PointXYZINormalEED0Ev@Base 1.6
 (optional=templinst)_ZN3pcl19NormalSpaceSamplingINS_8PointXYZENS_15PointXYZINormalEED1Ev@Base 1.6
 (optional=templinst)_ZN3pcl19NormalSpaceSamplingINS_8PointXYZENS_15PointXYZINormalEED2Ev@Base 1.6
 (optional=templinst)_ZN3pcl19NormalSpaceSamplingINS_8PointXYZENS_17PointXYZRGBNormalEE10setNormalsERKN5boost10shared_ptrINS_10PointCloudIS2_EEEE@Base 1.6
 (optional=templinst)_ZN3pcl19NormalSpaceSamplingINS_8PointXYZENS_17PointXYZRGBNormalEE11applyFilterERNS_10PointCloudIS1_EE@Base 1.6
 (optional=templinst)_ZN3pcl19NormalSpaceSamplingINS_8PointXYZENS_17PointXYZRGBNormalEE11applyFilterERSt6vectorIiSaIiEE@Base 1.6
 (optional=templinst)_ZN3pcl19NormalSpaceSamplingINS_8PointXYZENS_17PointXYZRGBNormalEE18isEntireBinSampledERN5boost14dynamic_bitsetImSaImEEEjj@Base 1.6
 (optional=templinst)_ZN3pcl19NormalSpaceSamplingINS_8PointXYZENS_17PointXYZRGBNormalEE7findBinEPfj@Base 1.6
 (optional=templinst)_ZN3pcl19NormalSpaceSamplingINS_8PointXYZENS_17PointXYZRGBNormalEE7setBinsEjjj@Base 1.6
 (optional=templinst)_ZN3pcl19NormalSpaceSamplingINS_8PointXYZENS_17PointXYZRGBNormalEE7setSeedEj@Base 1.6
 (optional=templinst)_ZN3pcl19NormalSpaceSamplingINS_8PointXYZENS_17PointXYZRGBNormalEE9setSampleEj@Base 1.6
 (optional=templinst)_ZN3pcl19NormalSpaceSamplingINS_8PointXYZENS_17PointXYZRGBNormalEEC1Ev@Base 1.6
 (optional=templinst)_ZN3pcl19NormalSpaceSamplingINS_8PointXYZENS_17PointXYZRGBNormalEEC2Ev@Base 1.6
 (optional=templinst)_ZN3pcl19NormalSpaceSamplingINS_8PointXYZENS_17PointXYZRGBNormalEED0Ev@Base 1.6
 (optional=templinst)_ZN3pcl19NormalSpaceSamplingINS_8PointXYZENS_17PointXYZRGBNormalEED1Ev@Base 1.6
 (optional=templinst)_ZN3pcl19NormalSpaceSamplingINS_8PointXYZENS_17PointXYZRGBNormalEED2Ev@Base 1.6
 (optional=templinst)_ZN3pcl19NormalSpaceSamplingINS_8PointXYZENS_6NormalEE10setNormalsERKN5boost10shared_ptrINS_10PointCloudIS2_EEEE@Base 1.6
 (optional=templinst)_ZN3pcl19NormalSpaceSamplingINS_8PointXYZENS_6NormalEE11applyFilterERNS_10PointCloudIS1_EE@Base 1.6
 (optional=templinst)_ZN3pcl19NormalSpaceSamplingINS_8PointXYZENS_6NormalEE11applyFilterERSt6vectorIiSaIiEE@Base 1.6
 (optional=templinst)_ZN3pcl19NormalSpaceSamplingINS_8PointXYZENS_6NormalEE18isEntireBinSampledERN5boost14dynamic_bitsetImSaImEEEjj@Base 1.6
 (optional=templinst)_ZN3pcl19NormalSpaceSamplingINS_8PointXYZENS_6NormalEE7findBinEPfj@Base 1.6
 (optional=templinst)_ZN3pcl19NormalSpaceSamplingINS_8PointXYZENS_6NormalEE7setBinsEjjj@Base 1.6
 (optional=templinst)_ZN3pcl19NormalSpaceSamplingINS_8PointXYZENS_6NormalEE7setSeedEj@Base 1.6
 (optional=templinst)_ZN3pcl19NormalSpaceSamplingINS_8PointXYZENS_6NormalEE9setSampleEj@Base 1.6
 (optional=templinst)_ZN3pcl19NormalSpaceSamplingINS_8PointXYZENS_6NormalEEC1Ev@Base 1.6
 (optional=templinst)_ZN3pcl19NormalSpaceSamplingINS_8PointXYZENS_6NormalEEC2Ev@Base 1.6
 (optional=templinst)_ZN3pcl19NormalSpaceSamplingINS_8PointXYZENS_6NormalEED0Ev@Base 1.6
 (optional=templinst)_ZN3pcl19NormalSpaceSamplingINS_8PointXYZENS_6NormalEED1Ev@Base 1.6
 (optional=templinst)_ZN3pcl19NormalSpaceSamplingINS_8PointXYZENS_6NormalEED2Ev@Base 1.6
 (optional=templinst)_ZN3pcl19NormalSpaceSamplingINS_9PointXYZIENS_11PointNormalEE10setNormalsERKN5boost10shared_ptrINS_10PointCloudIS2_EEEE@Base 1.6
 (optional=templinst)_ZN3pcl19NormalSpaceSamplingINS_9PointXYZIENS_11PointNormalEE11applyFilterERNS_10PointCloudIS1_EE@Base 1.6
 (optional=templinst)_ZN3pcl19NormalSpaceSamplingINS_9PointXYZIENS_11PointNormalEE11applyFilterERSt6vectorIiSaIiEE@Base 1.6
 (optional=templinst)_ZN3pcl19NormalSpaceSamplingINS_9PointXYZIENS_11PointNormalEE18isEntireBinSampledERN5boost14dynamic_bitsetImSaImEEEjj@Base 1.6
 (optional=templinst)_ZN3pcl19NormalSpaceSamplingINS_9PointXYZIENS_11PointNormalEE7findBinEPfj@Base 1.6
 (optional=templinst)_ZN3pcl19NormalSpaceSamplingINS_9PointXYZIENS_11PointNormalEE7setBinsEjjj@Base 1.6
 (optional=templinst)_ZN3pcl19NormalSpaceSamplingINS_9PointXYZIENS_11PointNormalEE7setSeedEj@Base 1.6
 (optional=templinst)_ZN3pcl19NormalSpaceSamplingINS_9PointXYZIENS_11PointNormalEE9setSampleEj@Base 1.6
 (optional=templinst)_ZN3pcl19NormalSpaceSamplingINS_9PointXYZIENS_11PointNormalEEC1Ev@Base 1.6
 (optional=templinst)_ZN3pcl19NormalSpaceSamplingINS_9PointXYZIENS_11PointNormalEEC2Ev@Base 1.6
 (optional=templinst)_ZN3pcl19NormalSpaceSamplingINS_9PointXYZIENS_11PointNormalEED0Ev@Base 1.6
 (optional=templinst)_ZN3pcl19NormalSpaceSamplingINS_9PointXYZIENS_11PointNormalEED1Ev@Base 1.6
 (optional=templinst)_ZN3pcl19NormalSpaceSamplingINS_9PointXYZIENS_11PointNormalEED2Ev@Base 1.6
 (optional=templinst)_ZN3pcl19NormalSpaceSamplingINS_9PointXYZIENS_15PointXYZINormalEE10setNormalsERKN5boost10shared_ptrINS_10PointCloudIS2_EEEE@Base 1.6
 (optional=templinst)_ZN3pcl19NormalSpaceSamplingINS_9PointXYZIENS_15PointXYZINormalEE11applyFilterERNS_10PointCloudIS1_EE@Base 1.6
 (optional=templinst)_ZN3pcl19NormalSpaceSamplingINS_9PointXYZIENS_15PointXYZINormalEE11applyFilterERSt6vectorIiSaIiEE@Base 1.6
 (optional=templinst)_ZN3pcl19NormalSpaceSamplingINS_9PointXYZIENS_15PointXYZINormalEE18isEntireBinSampledERN5boost14dynamic_bitsetImSaImEEEjj@Base 1.6
 (optional=templinst)_ZN3pcl19NormalSpaceSamplingINS_9PointXYZIENS_15PointXYZINormalEE7findBinEPfj@Base 1.6
 (optional=templinst)_ZN3pcl19NormalSpaceSamplingINS_9PointXYZIENS_15PointXYZINormalEE7setBinsEjjj@Base 1.6
 (optional=templinst)_ZN3pcl19NormalSpaceSamplingINS_9PointXYZIENS_15PointXYZINormalEE7setSeedEj@Base 1.6
 (optional=templinst)_ZN3pcl19NormalSpaceSamplingINS_9PointXYZIENS_15PointXYZINormalEE9setSampleEj@Base 1.6
 (optional=templinst)_ZN3pcl19NormalSpaceSamplingINS_9PointXYZIENS_15PointXYZINormalEEC1Ev@Base 1.6
 (optional=templinst)_ZN3pcl19NormalSpaceSamplingINS_9PointXYZIENS_15PointXYZINormalEEC2Ev@Base 1.6
 (optional=templinst)_ZN3pcl19NormalSpaceSamplingINS_9PointXYZIENS_15PointXYZINormalEED0Ev@Base 1.6
 (optional=templinst)_ZN3pcl19NormalSpaceSamplingINS_9PointXYZIENS_15PointXYZINormalEED1Ev@Base 1.6
 (optional=templinst)_ZN3pcl19NormalSpaceSamplingINS_9PointXYZIENS_15PointXYZINormalEED2Ev@Base 1.6
 (optional=templinst)_ZN3pcl19NormalSpaceSamplingINS_9PointXYZIENS_17PointXYZRGBNormalEE10setNormalsERKN5boost10shared_ptrINS_10PointCloudIS2_EEEE@Base 1.6
 (optional=templinst)_ZN3pcl19NormalSpaceSamplingINS_9PointXYZIENS_17PointXYZRGBNormalEE11applyFilterERNS_10PointCloudIS1_EE@Base 1.6
 (optional=templinst)_ZN3pcl19NormalSpaceSamplingINS_9PointXYZIENS_17PointXYZRGBNormalEE11applyFilterERSt6vectorIiSaIiEE@Base 1.6
 (optional=templinst)_ZN3pcl19NormalSpaceSamplingINS_9PointXYZIENS_17PointXYZRGBNormalEE18isEntireBinSampledERN5boost14dynamic_bitsetImSaImEEEjj@Base 1.6
 (optional=templinst)_ZN3pcl19NormalSpaceSamplingINS_9PointXYZIENS_17PointXYZRGBNormalEE7findBinEPfj@Base 1.6
 (optional=templinst)_ZN3pcl19NormalSpaceSamplingINS_9PointXYZIENS_17PointXYZRGBNormalEE7setBinsEjjj@Base 1.6
 (optional=templinst)_ZN3pcl19NormalSpaceSamplingINS_9PointXYZIENS_17PointXYZRGBNormalEE7setSeedEj@Base 1.6
 (optional=templinst)_ZN3pcl19NormalSpaceSamplingINS_9PointXYZIENS_17PointXYZRGBNormalEE9setSampleEj@Base 1.6
 (optional=templinst)_ZN3pcl19NormalSpaceSamplingINS_9PointXYZIENS_17PointXYZRGBNormalEEC1Ev@Base 1.6
 (optional=templinst)_ZN3pcl19NormalSpaceSamplingINS_9PointXYZIENS_17PointXYZRGBNormalEEC2Ev@Base 1.6
 (optional=templinst)_ZN3pcl19NormalSpaceSamplingINS_9PointXYZIENS_17PointXYZRGBNormalEED0Ev@Base 1.6
 (optional=templinst)_ZN3pcl19NormalSpaceSamplingINS_9PointXYZIENS_17PointXYZRGBNormalEED1Ev@Base 1.6
 (optional=templinst)_ZN3pcl19NormalSpaceSamplingINS_9PointXYZIENS_17PointXYZRGBNormalEED2Ev@Base 1.6
 (optional=templinst)_ZN3pcl19NormalSpaceSamplingINS_9PointXYZIENS_6NormalEE10setNormalsERKN5boost10shared_ptrINS_10PointCloudIS2_EEEE@Base 1.6
 (optional=templinst)_ZN3pcl19NormalSpaceSamplingINS_9PointXYZIENS_6NormalEE11applyFilterERNS_10PointCloudIS1_EE@Base 1.6
 (optional=templinst)_ZN3pcl19NormalSpaceSamplingINS_9PointXYZIENS_6NormalEE11applyFilterERSt6vectorIiSaIiEE@Base 1.6
 (optional=templinst)_ZN3pcl19NormalSpaceSamplingINS_9PointXYZIENS_6NormalEE18isEntireBinSampledERN5boost14dynamic_bitsetImSaImEEEjj@Base 1.6
 (optional=templinst)_ZN3pcl19NormalSpaceSamplingINS_9PointXYZIENS_6NormalEE7findBinEPfj@Base 1.6
 (optional=templinst)_ZN3pcl19NormalSpaceSamplingINS_9PointXYZIENS_6NormalEE7setBinsEjjj@Base 1.6
 (optional=templinst)_ZN3pcl19NormalSpaceSamplingINS_9PointXYZIENS_6NormalEE7setSeedEj@Base 1.6
 (optional=templinst)_ZN3pcl19NormalSpaceSamplingINS_9PointXYZIENS_6NormalEE9setSampleEj@Base 1.6
 (optional=templinst)_ZN3pcl19NormalSpaceSamplingINS_9PointXYZIENS_6NormalEEC1Ev@Base 1.6
 (optional=templinst)_ZN3pcl19NormalSpaceSamplingINS_9PointXYZIENS_6NormalEEC2Ev@Base 1.6
 (optional=templinst)_ZN3pcl19NormalSpaceSamplingINS_9PointXYZIENS_6NormalEED0Ev@Base 1.6
 (optional=templinst)_ZN3pcl19NormalSpaceSamplingINS_9PointXYZIENS_6NormalEED1Ev@Base 1.6
 (optional=templinst)_ZN3pcl19NormalSpaceSamplingINS_9PointXYZIENS_6NormalEED2Ev@Base 1.6
 (optional=templinst)_ZN3pcl19NormalSpaceSamplingINS_9PointXYZLENS_11PointNormalEE10setNormalsERKN5boost10shared_ptrINS_10PointCloudIS2_EEEE@Base 1.6
 (optional=templinst)_ZN3pcl19NormalSpaceSamplingINS_9PointXYZLENS_11PointNormalEE11applyFilterERNS_10PointCloudIS1_EE@Base 1.6
 (optional=templinst)_ZN3pcl19NormalSpaceSamplingINS_9PointXYZLENS_11PointNormalEE11applyFilterERSt6vectorIiSaIiEE@Base 1.6
 (optional=templinst)_ZN3pcl19NormalSpaceSamplingINS_9PointXYZLENS_11PointNormalEE18isEntireBinSampledERN5boost14dynamic_bitsetImSaImEEEjj@Base 1.6
 (optional=templinst)_ZN3pcl19NormalSpaceSamplingINS_9PointXYZLENS_11PointNormalEE7findBinEPfj@Base 1.6
 (optional=templinst)_ZN3pcl19NormalSpaceSamplingINS_9PointXYZLENS_11PointNormalEE7setBinsEjjj@Base 1.6
 (optional=templinst)_ZN3pcl19NormalSpaceSamplingINS_9PointXYZLENS_11PointNormalEE7setSeedEj@Base 1.6
 (optional=templinst)_ZN3pcl19NormalSpaceSamplingINS_9PointXYZLENS_11PointNormalEE9setSampleEj@Base 1.6
 (optional=templinst)_ZN3pcl19NormalSpaceSamplingINS_9PointXYZLENS_11PointNormalEEC1Ev@Base 1.6
 (optional=templinst)_ZN3pcl19NormalSpaceSamplingINS_9PointXYZLENS_11PointNormalEEC2Ev@Base 1.6
 (optional=templinst)_ZN3pcl19NormalSpaceSamplingINS_9PointXYZLENS_11PointNormalEED0Ev@Base 1.6
 (optional=templinst)_ZN3pcl19NormalSpaceSamplingINS_9PointXYZLENS_11PointNormalEED1Ev@Base 1.6
 (optional=templinst)_ZN3pcl19NormalSpaceSamplingINS_9PointXYZLENS_11PointNormalEED2Ev@Base 1.6
 (optional=templinst)_ZN3pcl19NormalSpaceSamplingINS_9PointXYZLENS_15PointXYZINormalEE10setNormalsERKN5boost10shared_ptrINS_10PointCloudIS2_EEEE@Base 1.6
 (optional=templinst)_ZN3pcl19NormalSpaceSamplingINS_9PointXYZLENS_15PointXYZINormalEE11applyFilterERNS_10PointCloudIS1_EE@Base 1.6
 (optional=templinst)_ZN3pcl19NormalSpaceSamplingINS_9PointXYZLENS_15PointXYZINormalEE11applyFilterERSt6vectorIiSaIiEE@Base 1.6
 (optional=templinst)_ZN3pcl19NormalSpaceSamplingINS_9PointXYZLENS_15PointXYZINormalEE18isEntireBinSampledERN5boost14dynamic_bitsetImSaImEEEjj@Base 1.6
 (optional=templinst)_ZN3pcl19NormalSpaceSamplingINS_9PointXYZLENS_15PointXYZINormalEE7findBinEPfj@Base 1.6
 (optional=templinst)_ZN3pcl19NormalSpaceSamplingINS_9PointXYZLENS_15PointXYZINormalEE7setBinsEjjj@Base 1.6
 (optional=templinst)_ZN3pcl19NormalSpaceSamplingINS_9PointXYZLENS_15PointXYZINormalEE7setSeedEj@Base 1.6
 (optional=templinst)_ZN3pcl19NormalSpaceSamplingINS_9PointXYZLENS_15PointXYZINormalEE9setSampleEj@Base 1.6
 (optional=templinst)_ZN3pcl19NormalSpaceSamplingINS_9PointXYZLENS_15PointXYZINormalEEC1Ev@Base 1.6
 (optional=templinst)_ZN3pcl19NormalSpaceSamplingINS_9PointXYZLENS_15PointXYZINormalEEC2Ev@Base 1.6
 (optional=templinst)_ZN3pcl19NormalSpaceSamplingINS_9PointXYZLENS_15PointXYZINormalEED0Ev@Base 1.6
 (optional=templinst)_ZN3pcl19NormalSpaceSamplingINS_9PointXYZLENS_15PointXYZINormalEED1Ev@Base 1.6
 (optional=templinst)_ZN3pcl19NormalSpaceSamplingINS_9PointXYZLENS_15PointXYZINormalEED2Ev@Base 1.6
 (optional=templinst)_ZN3pcl19NormalSpaceSamplingINS_9PointXYZLENS_17PointXYZRGBNormalEE10setNormalsERKN5boost10shared_ptrINS_10PointCloudIS2_EEEE@Base 1.6
 (optional=templinst)_ZN3pcl19NormalSpaceSamplingINS_9PointXYZLENS_17PointXYZRGBNormalEE11applyFilterERNS_10PointCloudIS1_EE@Base 1.6
 (optional=templinst)_ZN3pcl19NormalSpaceSamplingINS_9PointXYZLENS_17PointXYZRGBNormalEE11applyFilterERSt6vectorIiSaIiEE@Base 1.6
 (optional=templinst)_ZN3pcl19NormalSpaceSamplingINS_9PointXYZLENS_17PointXYZRGBNormalEE18isEntireBinSampledERN5boost14dynamic_bitsetImSaImEEEjj@Base 1.6
 (optional=templinst)_ZN3pcl19NormalSpaceSamplingINS_9PointXYZLENS_17PointXYZRGBNormalEE7findBinEPfj@Base 1.6
 (optional=templinst)_ZN3pcl19NormalSpaceSamplingINS_9PointXYZLENS_17PointXYZRGBNormalEE7setBinsEjjj@Base 1.6
 (optional=templinst)_ZN3pcl19NormalSpaceSamplingINS_9PointXYZLENS_17PointXYZRGBNormalEE7setSeedEj@Base 1.6
 (optional=templinst)_ZN3pcl19NormalSpaceSamplingINS_9PointXYZLENS_17PointXYZRGBNormalEE9setSampleEj@Base 1.6
 (optional=templinst)_ZN3pcl19NormalSpaceSamplingINS_9PointXYZLENS_17PointXYZRGBNormalEEC1Ev@Base 1.6
 (optional=templinst)_ZN3pcl19NormalSpaceSamplingINS_9PointXYZLENS_17PointXYZRGBNormalEEC2Ev@Base 1.6
 (optional=templinst)_ZN3pcl19NormalSpaceSamplingINS_9PointXYZLENS_17PointXYZRGBNormalEED0Ev@Base 1.6
 (optional=templinst)_ZN3pcl19NormalSpaceSamplingINS_9PointXYZLENS_17PointXYZRGBNormalEED1Ev@Base 1.6
 (optional=templinst)_ZN3pcl19NormalSpaceSamplingINS_9PointXYZLENS_17PointXYZRGBNormalEED2Ev@Base 1.6
 (optional=templinst)_ZN3pcl19NormalSpaceSamplingINS_9PointXYZLENS_6NormalEE10setNormalsERKN5boost10shared_ptrINS_10PointCloudIS2_EEEE@Base 1.6
 (optional=templinst)_ZN3pcl19NormalSpaceSamplingINS_9PointXYZLENS_6NormalEE11applyFilterERNS_10PointCloudIS1_EE@Base 1.6
 (optional=templinst)_ZN3pcl19NormalSpaceSamplingINS_9PointXYZLENS_6NormalEE11applyFilterERSt6vectorIiSaIiEE@Base 1.6
 (optional=templinst)_ZN3pcl19NormalSpaceSamplingINS_9PointXYZLENS_6NormalEE18isEntireBinSampledERN5boost14dynamic_bitsetImSaImEEEjj@Base 1.6
 (optional=templinst)_ZN3pcl19NormalSpaceSamplingINS_9PointXYZLENS_6NormalEE7findBinEPfj@Base 1.6
 (optional=templinst)_ZN3pcl19NormalSpaceSamplingINS_9PointXYZLENS_6NormalEE7setBinsEjjj@Base 1.6
 (optional=templinst)_ZN3pcl19NormalSpaceSamplingINS_9PointXYZLENS_6NormalEE7setSeedEj@Base 1.6
 (optional=templinst)_ZN3pcl19NormalSpaceSamplingINS_9PointXYZLENS_6NormalEE9setSampleEj@Base 1.6
 (optional=templinst)_ZN3pcl19NormalSpaceSamplingINS_9PointXYZLENS_6NormalEEC1Ev@Base 1.6
 (optional=templinst)_ZN3pcl19NormalSpaceSamplingINS_9PointXYZLENS_6NormalEEC2Ev@Base 1.6
 (optional=templinst)_ZN3pcl19NormalSpaceSamplingINS_9PointXYZLENS_6NormalEED0Ev@Base 1.6
 (optional=templinst)_ZN3pcl19NormalSpaceSamplingINS_9PointXYZLENS_6NormalEED1Ev@Base 1.6
 (optional=templinst)_ZN3pcl19NormalSpaceSamplingINS_9PointXYZLENS_6NormalEED2Ev@Base 1.6
 (optional=templinst)_ZN3pcl19PackedHSIComparisonINS_11PointNormalEEC1ESsNS_13ComparisonOps9CompareOpEd@Base 1.6
 (optional=templinst)_ZN3pcl19PackedHSIComparisonINS_11PointNormalEEC1Ev@Base 1.6
 (optional=templinst)_ZN3pcl19PackedHSIComparisonINS_11PointNormalEEC2ESsNS_13ComparisonOps9CompareOpEd@Base 1.6
 (optional=templinst)_ZN3pcl19PackedHSIComparisonINS_11PointNormalEEC2Ev@Base 1.6
 (optional=templinst)_ZN3pcl19PackedHSIComparisonINS_11PointNormalEED0Ev@Base 1.6
 (optional=templinst)_ZN3pcl19PackedHSIComparisonINS_11PointNormalEED1Ev@Base 1.6
 (optional=templinst)_ZN3pcl19PackedHSIComparisonINS_11PointNormalEED2Ev@Base 1.6
 (optional=templinst)_ZN3pcl19PackedHSIComparisonINS_11PointXYZHSVEEC1ESsNS_13ComparisonOps9CompareOpEd@Base 1.6
 (optional=templinst)_ZN3pcl19PackedHSIComparisonINS_11PointXYZHSVEEC1Ev@Base 1.6
 (optional=templinst)_ZN3pcl19PackedHSIComparisonINS_11PointXYZHSVEEC2ESsNS_13ComparisonOps9CompareOpEd@Base 1.6
 (optional=templinst)_ZN3pcl19PackedHSIComparisonINS_11PointXYZHSVEEC2Ev@Base 1.6
 (optional=templinst)_ZN3pcl19PackedHSIComparisonINS_11PointXYZHSVEED0Ev@Base 1.6
 (optional=templinst)_ZN3pcl19PackedHSIComparisonINS_11PointXYZHSVEED1Ev@Base 1.6
 (optional=templinst)_ZN3pcl19PackedHSIComparisonINS_11PointXYZHSVEED2Ev@Base 1.6
 (optional=templinst)_ZN3pcl19PackedHSIComparisonINS_11PointXYZRGBEEC1ESsNS_13ComparisonOps9CompareOpEd@Base 1.6
 (optional=templinst)_ZN3pcl19PackedHSIComparisonINS_11PointXYZRGBEEC1Ev@Base 1.6
 (optional=templinst)_ZN3pcl19PackedHSIComparisonINS_11PointXYZRGBEEC2ESsNS_13ComparisonOps9CompareOpEd@Base 1.6
 (optional=templinst)_ZN3pcl19PackedHSIComparisonINS_11PointXYZRGBEEC2Ev@Base 1.6
 (optional=templinst)_ZN3pcl19PackedHSIComparisonINS_11PointXYZRGBEED0Ev@Base 1.6
 (optional=templinst)_ZN3pcl19PackedHSIComparisonINS_11PointXYZRGBEED1Ev@Base 1.6
 (optional=templinst)_ZN3pcl19PackedHSIComparisonINS_11PointXYZRGBEED2Ev@Base 1.6
 (optional=templinst)_ZN3pcl19PackedHSIComparisonINS_12PointXYZRGBAEEC1ESsNS_13ComparisonOps9CompareOpEd@Base 1.6
 (optional=templinst)_ZN3pcl19PackedHSIComparisonINS_12PointXYZRGBAEEC1Ev@Base 1.6
 (optional=templinst)_ZN3pcl19PackedHSIComparisonINS_12PointXYZRGBAEEC2ESsNS_13ComparisonOps9CompareOpEd@Base 1.6
 (optional=templinst)_ZN3pcl19PackedHSIComparisonINS_12PointXYZRGBAEEC2Ev@Base 1.6
 (optional=templinst)_ZN3pcl19PackedHSIComparisonINS_12PointXYZRGBAEED0Ev@Base 1.6
 (optional=templinst)_ZN3pcl19PackedHSIComparisonINS_12PointXYZRGBAEED1Ev@Base 1.6
 (optional=templinst)_ZN3pcl19PackedHSIComparisonINS_12PointXYZRGBAEED2Ev@Base 1.6
 (optional=templinst)_ZN3pcl19PackedHSIComparisonINS_12PointXYZRGBLEEC1ESsNS_13ComparisonOps9CompareOpEd@Base 1.6
 (optional=templinst)_ZN3pcl19PackedHSIComparisonINS_12PointXYZRGBLEEC1Ev@Base 1.6
 (optional=templinst)_ZN3pcl19PackedHSIComparisonINS_12PointXYZRGBLEEC2ESsNS_13ComparisonOps9CompareOpEd@Base 1.6
 (optional=templinst)_ZN3pcl19PackedHSIComparisonINS_12PointXYZRGBLEEC2Ev@Base 1.6
 (optional=templinst)_ZN3pcl19PackedHSIComparisonINS_12PointXYZRGBLEED0Ev@Base 1.6
 (optional=templinst)_ZN3pcl19PackedHSIComparisonINS_12PointXYZRGBLEED1Ev@Base 1.6
 (optional=templinst)_ZN3pcl19PackedHSIComparisonINS_12PointXYZRGBLEED2Ev@Base 1.6
 (optional=templinst)_ZN3pcl19PackedHSIComparisonINS_13InterestPointEEC1ESsNS_13ComparisonOps9CompareOpEd@Base 1.6
 (optional=templinst)_ZN3pcl19PackedHSIComparisonINS_13InterestPointEEC1Ev@Base 1.6
 (optional=templinst)_ZN3pcl19PackedHSIComparisonINS_13InterestPointEEC2ESsNS_13ComparisonOps9CompareOpEd@Base 1.6
 (optional=templinst)_ZN3pcl19PackedHSIComparisonINS_13InterestPointEEC2Ev@Base 1.6
 (optional=templinst)_ZN3pcl19PackedHSIComparisonINS_13InterestPointEED0Ev@Base 1.6
 (optional=templinst)_ZN3pcl19PackedHSIComparisonINS_13InterestPointEED1Ev@Base 1.6
 (optional=templinst)_ZN3pcl19PackedHSIComparisonINS_13InterestPointEED2Ev@Base 1.6
 (optional=templinst)_ZN3pcl19PackedHSIComparisonINS_14PointWithRangeEEC1ESsNS_13ComparisonOps9CompareOpEd@Base 1.6
 (optional=templinst)_ZN3pcl19PackedHSIComparisonINS_14PointWithRangeEEC1Ev@Base 1.6
 (optional=templinst)_ZN3pcl19PackedHSIComparisonINS_14PointWithRangeEEC2ESsNS_13ComparisonOps9CompareOpEd@Base 1.6
 (optional=templinst)_ZN3pcl19PackedHSIComparisonINS_14PointWithRangeEEC2Ev@Base 1.6
 (optional=templinst)_ZN3pcl19PackedHSIComparisonINS_14PointWithRangeEED0Ev@Base 1.6
 (optional=templinst)_ZN3pcl19PackedHSIComparisonINS_14PointWithRangeEED1Ev@Base 1.6
 (optional=templinst)_ZN3pcl19PackedHSIComparisonINS_14PointWithRangeEED2Ev@Base 1.6
 (optional=templinst)_ZN3pcl19PackedHSIComparisonINS_14PointWithScaleEEC1ESsNS_13ComparisonOps9CompareOpEd@Base 1.6
 (optional=templinst)_ZN3pcl19PackedHSIComparisonINS_14PointWithScaleEEC1Ev@Base 1.6
 (optional=templinst)_ZN3pcl19PackedHSIComparisonINS_14PointWithScaleEEC2ESsNS_13ComparisonOps9CompareOpEd@Base 1.6
 (optional=templinst)_ZN3pcl19PackedHSIComparisonINS_14PointWithScaleEEC2Ev@Base 1.6
 (optional=templinst)_ZN3pcl19PackedHSIComparisonINS_14PointWithScaleEED0Ev@Base 1.6
 (optional=templinst)_ZN3pcl19PackedHSIComparisonINS_14PointWithScaleEED1Ev@Base 1.6
 (optional=templinst)_ZN3pcl19PackedHSIComparisonINS_14PointWithScaleEED2Ev@Base 1.6
 (optional=templinst)_ZN3pcl19PackedHSIComparisonINS_15PointXYZINormalEEC1ESsNS_13ComparisonOps9CompareOpEd@Base 1.6
 (optional=templinst)_ZN3pcl19PackedHSIComparisonINS_15PointXYZINormalEEC1Ev@Base 1.6
 (optional=templinst)_ZN3pcl19PackedHSIComparisonINS_15PointXYZINormalEEC2ESsNS_13ComparisonOps9CompareOpEd@Base 1.6
 (optional=templinst)_ZN3pcl19PackedHSIComparisonINS_15PointXYZINormalEEC2Ev@Base 1.6
 (optional=templinst)_ZN3pcl19PackedHSIComparisonINS_15PointXYZINormalEED0Ev@Base 1.6
 (optional=templinst)_ZN3pcl19PackedHSIComparisonINS_15PointXYZINormalEED1Ev@Base 1.6
 (optional=templinst)_ZN3pcl19PackedHSIComparisonINS_15PointXYZINormalEED2Ev@Base 1.6
 (optional=templinst)_ZN3pcl19PackedHSIComparisonINS_17PointXYZRGBNormalEEC1ESsNS_13ComparisonOps9CompareOpEd@Base 1.6
 (optional=templinst)_ZN3pcl19PackedHSIComparisonINS_17PointXYZRGBNormalEEC1Ev@Base 1.6
 (optional=templinst)_ZN3pcl19PackedHSIComparisonINS_17PointXYZRGBNormalEEC2ESsNS_13ComparisonOps9CompareOpEd@Base 1.6
 (optional=templinst)_ZN3pcl19PackedHSIComparisonINS_17PointXYZRGBNormalEEC2Ev@Base 1.6
 (optional=templinst)_ZN3pcl19PackedHSIComparisonINS_17PointXYZRGBNormalEED0Ev@Base 1.6
 (optional=templinst)_ZN3pcl19PackedHSIComparisonINS_17PointXYZRGBNormalEED1Ev@Base 1.6
 (optional=templinst)_ZN3pcl19PackedHSIComparisonINS_17PointXYZRGBNormalEED2Ev@Base 1.6
 (optional=templinst)_ZN3pcl19PackedHSIComparisonINS_18PointWithViewpointEEC1ESsNS_13ComparisonOps9CompareOpEd@Base 1.6
 (optional=templinst)_ZN3pcl19PackedHSIComparisonINS_18PointWithViewpointEEC1Ev@Base 1.6
 (optional=templinst)_ZN3pcl19PackedHSIComparisonINS_18PointWithViewpointEEC2ESsNS_13ComparisonOps9CompareOpEd@Base 1.6
 (optional=templinst)_ZN3pcl19PackedHSIComparisonINS_18PointWithViewpointEEC2Ev@Base 1.6
 (optional=templinst)_ZN3pcl19PackedHSIComparisonINS_18PointWithViewpointEED0Ev@Base 1.6
 (optional=templinst)_ZN3pcl19PackedHSIComparisonINS_18PointWithViewpointEED1Ev@Base 1.6
 (optional=templinst)_ZN3pcl19PackedHSIComparisonINS_18PointWithViewpointEED2Ev@Base 1.6
 (optional=templinst)_ZN3pcl19PackedHSIComparisonINS_8PointXYZEEC1ESsNS_13ComparisonOps9CompareOpEd@Base 1.6
 (optional=templinst)_ZN3pcl19PackedHSIComparisonINS_8PointXYZEEC1Ev@Base 1.6
 (optional=templinst)_ZN3pcl19PackedHSIComparisonINS_8PointXYZEEC2ESsNS_13ComparisonOps9CompareOpEd@Base 1.6
 (optional=templinst)_ZN3pcl19PackedHSIComparisonINS_8PointXYZEEC2Ev@Base 1.6
 (optional=templinst)_ZN3pcl19PackedHSIComparisonINS_8PointXYZEED0Ev@Base 1.6
 (optional=templinst)_ZN3pcl19PackedHSIComparisonINS_8PointXYZEED1Ev@Base 1.6
 (optional=templinst)_ZN3pcl19PackedHSIComparisonINS_8PointXYZEED2Ev@Base 1.6
 (optional=templinst)_ZN3pcl19PackedHSIComparisonINS_9PointXYZIEEC1ESsNS_13ComparisonOps9CompareOpEd@Base 1.6
 (optional=templinst)_ZN3pcl19PackedHSIComparisonINS_9PointXYZIEEC1Ev@Base 1.6
 (optional=templinst)_ZN3pcl19PackedHSIComparisonINS_9PointXYZIEEC2ESsNS_13ComparisonOps9CompareOpEd@Base 1.6
 (optional=templinst)_ZN3pcl19PackedHSIComparisonINS_9PointXYZIEEC2Ev@Base 1.6
 (optional=templinst)_ZN3pcl19PackedHSIComparisonINS_9PointXYZIEED0Ev@Base 1.6
 (optional=templinst)_ZN3pcl19PackedHSIComparisonINS_9PointXYZIEED1Ev@Base 1.6
 (optional=templinst)_ZN3pcl19PackedHSIComparisonINS_9PointXYZIEED2Ev@Base 1.6
 (optional=templinst)_ZN3pcl19PackedHSIComparisonINS_9PointXYZLEEC1ESsNS_13ComparisonOps9CompareOpEd@Base 1.6
 (optional=templinst)_ZN3pcl19PackedHSIComparisonINS_9PointXYZLEEC1Ev@Base 1.6
 (optional=templinst)_ZN3pcl19PackedHSIComparisonINS_9PointXYZLEEC2ESsNS_13ComparisonOps9CompareOpEd@Base 1.6
 (optional=templinst)_ZN3pcl19PackedHSIComparisonINS_9PointXYZLEEC2Ev@Base 1.6
 (optional=templinst)_ZN3pcl19PackedHSIComparisonINS_9PointXYZLEED0Ev@Base 1.6
 (optional=templinst)_ZN3pcl19PackedHSIComparisonINS_9PointXYZLEED1Ev@Base 1.6
 (optional=templinst)_ZN3pcl19PackedHSIComparisonINS_9PointXYZLEED2Ev@Base 1.6
 (optional=templinst)_ZN3pcl19PackedRGBComparisonINS_11PointNormalEEC1ESsNS_13ComparisonOps9CompareOpEd@Base 1.6
 (optional=templinst)_ZN3pcl19PackedRGBComparisonINS_11PointNormalEEC1Ev@Base 1.6
 (optional=templinst)_ZN3pcl19PackedRGBComparisonINS_11PointNormalEEC2ESsNS_13ComparisonOps9CompareOpEd@Base 1.6
 (optional=templinst)_ZN3pcl19PackedRGBComparisonINS_11PointNormalEEC2Ev@Base 1.6
 (optional=templinst)_ZN3pcl19PackedRGBComparisonINS_11PointNormalEED0Ev@Base 1.6
 (optional=templinst)_ZN3pcl19PackedRGBComparisonINS_11PointNormalEED1Ev@Base 1.6
 (optional=templinst)_ZN3pcl19PackedRGBComparisonINS_11PointNormalEED2Ev@Base 1.6
 (optional=templinst)_ZN3pcl19PackedRGBComparisonINS_11PointXYZHSVEEC1ESsNS_13ComparisonOps9CompareOpEd@Base 1.6
 (optional=templinst)_ZN3pcl19PackedRGBComparisonINS_11PointXYZHSVEEC1Ev@Base 1.6
 (optional=templinst)_ZN3pcl19PackedRGBComparisonINS_11PointXYZHSVEEC2ESsNS_13ComparisonOps9CompareOpEd@Base 1.6
 (optional=templinst)_ZN3pcl19PackedRGBComparisonINS_11PointXYZHSVEEC2Ev@Base 1.6
 (optional=templinst)_ZN3pcl19PackedRGBComparisonINS_11PointXYZHSVEED0Ev@Base 1.6
 (optional=templinst)_ZN3pcl19PackedRGBComparisonINS_11PointXYZHSVEED1Ev@Base 1.6
 (optional=templinst)_ZN3pcl19PackedRGBComparisonINS_11PointXYZHSVEED2Ev@Base 1.6
 (optional=templinst)_ZN3pcl19PackedRGBComparisonINS_11PointXYZRGBEEC1ESsNS_13ComparisonOps9CompareOpEd@Base 1.6
 (optional=templinst)_ZN3pcl19PackedRGBComparisonINS_11PointXYZRGBEEC1Ev@Base 1.6
 (optional=templinst)_ZN3pcl19PackedRGBComparisonINS_11PointXYZRGBEEC2ESsNS_13ComparisonOps9CompareOpEd@Base 1.6
 (optional=templinst)_ZN3pcl19PackedRGBComparisonINS_11PointXYZRGBEEC2Ev@Base 1.6
 (optional=templinst)_ZN3pcl19PackedRGBComparisonINS_11PointXYZRGBEED0Ev@Base 1.6
 (optional=templinst)_ZN3pcl19PackedRGBComparisonINS_11PointXYZRGBEED1Ev@Base 1.6
 (optional=templinst)_ZN3pcl19PackedRGBComparisonINS_11PointXYZRGBEED2Ev@Base 1.6
 (optional=templinst)_ZN3pcl19PackedRGBComparisonINS_12PointXYZRGBAEEC1ESsNS_13ComparisonOps9CompareOpEd@Base 1.6
 (optional=templinst)_ZN3pcl19PackedRGBComparisonINS_12PointXYZRGBAEEC1Ev@Base 1.6
 (optional=templinst)_ZN3pcl19PackedRGBComparisonINS_12PointXYZRGBAEEC2ESsNS_13ComparisonOps9CompareOpEd@Base 1.6
 (optional=templinst)_ZN3pcl19PackedRGBComparisonINS_12PointXYZRGBAEEC2Ev@Base 1.6
 (optional=templinst)_ZN3pcl19PackedRGBComparisonINS_12PointXYZRGBAEED0Ev@Base 1.6
 (optional=templinst)_ZN3pcl19PackedRGBComparisonINS_12PointXYZRGBAEED1Ev@Base 1.6
 (optional=templinst)_ZN3pcl19PackedRGBComparisonINS_12PointXYZRGBAEED2Ev@Base 1.6
 (optional=templinst)_ZN3pcl19PackedRGBComparisonINS_12PointXYZRGBLEEC1ESsNS_13ComparisonOps9CompareOpEd@Base 1.6
 (optional=templinst)_ZN3pcl19PackedRGBComparisonINS_12PointXYZRGBLEEC1Ev@Base 1.6
 (optional=templinst)_ZN3pcl19PackedRGBComparisonINS_12PointXYZRGBLEEC2ESsNS_13ComparisonOps9CompareOpEd@Base 1.6
 (optional=templinst)_ZN3pcl19PackedRGBComparisonINS_12PointXYZRGBLEEC2Ev@Base 1.6
 (optional=templinst)_ZN3pcl19PackedRGBComparisonINS_12PointXYZRGBLEED0Ev@Base 1.6
 (optional=templinst)_ZN3pcl19PackedRGBComparisonINS_12PointXYZRGBLEED1Ev@Base 1.6
 (optional=templinst)_ZN3pcl19PackedRGBComparisonINS_12PointXYZRGBLEED2Ev@Base 1.6
 (optional=templinst)_ZN3pcl19PackedRGBComparisonINS_13InterestPointEEC1ESsNS_13ComparisonOps9CompareOpEd@Base 1.6
 (optional=templinst)_ZN3pcl19PackedRGBComparisonINS_13InterestPointEEC1Ev@Base 1.6
 (optional=templinst)_ZN3pcl19PackedRGBComparisonINS_13InterestPointEEC2ESsNS_13ComparisonOps9CompareOpEd@Base 1.6
 (optional=templinst)_ZN3pcl19PackedRGBComparisonINS_13InterestPointEEC2Ev@Base 1.6
 (optional=templinst)_ZN3pcl19PackedRGBComparisonINS_13InterestPointEED0Ev@Base 1.6
 (optional=templinst)_ZN3pcl19PackedRGBComparisonINS_13InterestPointEED1Ev@Base 1.6
 (optional=templinst)_ZN3pcl19PackedRGBComparisonINS_13InterestPointEED2Ev@Base 1.6
 (optional=templinst)_ZN3pcl19PackedRGBComparisonINS_14PointWithRangeEEC1ESsNS_13ComparisonOps9CompareOpEd@Base 1.6
 (optional=templinst)_ZN3pcl19PackedRGBComparisonINS_14PointWithRangeEEC1Ev@Base 1.6
 (optional=templinst)_ZN3pcl19PackedRGBComparisonINS_14PointWithRangeEEC2ESsNS_13ComparisonOps9CompareOpEd@Base 1.6
 (optional=templinst)_ZN3pcl19PackedRGBComparisonINS_14PointWithRangeEEC2Ev@Base 1.6
 (optional=templinst)_ZN3pcl19PackedRGBComparisonINS_14PointWithRangeEED0Ev@Base 1.6
 (optional=templinst)_ZN3pcl19PackedRGBComparisonINS_14PointWithRangeEED1Ev@Base 1.6
 (optional=templinst)_ZN3pcl19PackedRGBComparisonINS_14PointWithRangeEED2Ev@Base 1.6
 (optional=templinst)_ZN3pcl19PackedRGBComparisonINS_14PointWithScaleEEC1ESsNS_13ComparisonOps9CompareOpEd@Base 1.6
 (optional=templinst)_ZN3pcl19PackedRGBComparisonINS_14PointWithScaleEEC1Ev@Base 1.6
 (optional=templinst)_ZN3pcl19PackedRGBComparisonINS_14PointWithScaleEEC2ESsNS_13ComparisonOps9CompareOpEd@Base 1.6
 (optional=templinst)_ZN3pcl19PackedRGBComparisonINS_14PointWithScaleEEC2Ev@Base 1.6
 (optional=templinst)_ZN3pcl19PackedRGBComparisonINS_14PointWithScaleEED0Ev@Base 1.6
 (optional=templinst)_ZN3pcl19PackedRGBComparisonINS_14PointWithScaleEED1Ev@Base 1.6
 (optional=templinst)_ZN3pcl19PackedRGBComparisonINS_14PointWithScaleEED2Ev@Base 1.6
 (optional=templinst)_ZN3pcl19PackedRGBComparisonINS_15PointXYZINormalEEC1ESsNS_13ComparisonOps9CompareOpEd@Base 1.6
 (optional=templinst)_ZN3pcl19PackedRGBComparisonINS_15PointXYZINormalEEC1Ev@Base 1.6
 (optional=templinst)_ZN3pcl19PackedRGBComparisonINS_15PointXYZINormalEEC2ESsNS_13ComparisonOps9CompareOpEd@Base 1.6
 (optional=templinst)_ZN3pcl19PackedRGBComparisonINS_15PointXYZINormalEEC2Ev@Base 1.6
 (optional=templinst)_ZN3pcl19PackedRGBComparisonINS_15PointXYZINormalEED0Ev@Base 1.6
 (optional=templinst)_ZN3pcl19PackedRGBComparisonINS_15PointXYZINormalEED1Ev@Base 1.6
 (optional=templinst)_ZN3pcl19PackedRGBComparisonINS_15PointXYZINormalEED2Ev@Base 1.6
 (optional=templinst)_ZN3pcl19PackedRGBComparisonINS_17PointXYZRGBNormalEEC1ESsNS_13ComparisonOps9CompareOpEd@Base 1.6
 (optional=templinst)_ZN3pcl19PackedRGBComparisonINS_17PointXYZRGBNormalEEC1Ev@Base 1.6
 (optional=templinst)_ZN3pcl19PackedRGBComparisonINS_17PointXYZRGBNormalEEC2ESsNS_13ComparisonOps9CompareOpEd@Base 1.6
 (optional=templinst)_ZN3pcl19PackedRGBComparisonINS_17PointXYZRGBNormalEEC2Ev@Base 1.6
 (optional=templinst)_ZN3pcl19PackedRGBComparisonINS_17PointXYZRGBNormalEED0Ev@Base 1.6
 (optional=templinst)_ZN3pcl19PackedRGBComparisonINS_17PointXYZRGBNormalEED1Ev@Base 1.6
 (optional=templinst)_ZN3pcl19PackedRGBComparisonINS_17PointXYZRGBNormalEED2Ev@Base 1.6
 (optional=templinst)_ZN3pcl19PackedRGBComparisonINS_18PointWithViewpointEEC1ESsNS_13ComparisonOps9CompareOpEd@Base 1.6
 (optional=templinst)_ZN3pcl19PackedRGBComparisonINS_18PointWithViewpointEEC1Ev@Base 1.6
 (optional=templinst)_ZN3pcl19PackedRGBComparisonINS_18PointWithViewpointEEC2ESsNS_13ComparisonOps9CompareOpEd@Base 1.6
 (optional=templinst)_ZN3pcl19PackedRGBComparisonINS_18PointWithViewpointEEC2Ev@Base 1.6
 (optional=templinst)_ZN3pcl19PackedRGBComparisonINS_18PointWithViewpointEED0Ev@Base 1.6
 (optional=templinst)_ZN3pcl19PackedRGBComparisonINS_18PointWithViewpointEED1Ev@Base 1.6
 (optional=templinst)_ZN3pcl19PackedRGBComparisonINS_18PointWithViewpointEED2Ev@Base 1.6
 (optional=templinst)_ZN3pcl19PackedRGBComparisonINS_8PointXYZEEC1ESsNS_13ComparisonOps9CompareOpEd@Base 1.6
 (optional=templinst)_ZN3pcl19PackedRGBComparisonINS_8PointXYZEEC1Ev@Base 1.6
 (optional=templinst)_ZN3pcl19PackedRGBComparisonINS_8PointXYZEEC2ESsNS_13ComparisonOps9CompareOpEd@Base 1.6
 (optional=templinst)_ZN3pcl19PackedRGBComparisonINS_8PointXYZEEC2Ev@Base 1.6
 (optional=templinst)_ZN3pcl19PackedRGBComparisonINS_8PointXYZEED0Ev@Base 1.6
 (optional=templinst)_ZN3pcl19PackedRGBComparisonINS_8PointXYZEED1Ev@Base 1.6
 (optional=templinst)_ZN3pcl19PackedRGBComparisonINS_8PointXYZEED2Ev@Base 1.6
 (optional=templinst)_ZN3pcl19PackedRGBComparisonINS_9PointXYZIEEC1ESsNS_13ComparisonOps9CompareOpEd@Base 1.6
 (optional=templinst)_ZN3pcl19PackedRGBComparisonINS_9PointXYZIEEC1Ev@Base 1.6
 (optional=templinst)_ZN3pcl19PackedRGBComparisonINS_9PointXYZIEEC2ESsNS_13ComparisonOps9CompareOpEd@Base 1.6
 (optional=templinst)_ZN3pcl19PackedRGBComparisonINS_9PointXYZIEEC2Ev@Base 1.6
 (optional=templinst)_ZN3pcl19PackedRGBComparisonINS_9PointXYZIEED0Ev@Base 1.6
 (optional=templinst)_ZN3pcl19PackedRGBComparisonINS_9PointXYZIEED1Ev@Base 1.6
 (optional=templinst)_ZN3pcl19PackedRGBComparisonINS_9PointXYZIEED2Ev@Base 1.6
 (optional=templinst)_ZN3pcl19PackedRGBComparisonINS_9PointXYZLEEC1ESsNS_13ComparisonOps9CompareOpEd@Base 1.6
 (optional=templinst)_ZN3pcl19PackedRGBComparisonINS_9PointXYZLEEC1Ev@Base 1.6
 (optional=templinst)_ZN3pcl19PackedRGBComparisonINS_9PointXYZLEEC2ESsNS_13ComparisonOps9CompareOpEd@Base 1.6
 (optional=templinst)_ZN3pcl19PackedRGBComparisonINS_9PointXYZLEEC2Ev@Base 1.6
 (optional=templinst)_ZN3pcl19PackedRGBComparisonINS_9PointXYZLEED0Ev@Base 1.6
 (optional=templinst)_ZN3pcl19PackedRGBComparisonINS_9PointXYZLEED1Ev@Base 1.6
 (optional=templinst)_ZN3pcl19PackedRGBComparisonINS_9PointXYZLEED2Ev@Base 1.6
 (optional=templinst)_ZN3pcl19PointRepresentationINS_11PointNormalEED0Ev@Base 1.6
 (optional=templinst)_ZN3pcl19PointRepresentationINS_11PointNormalEED1Ev@Base 1.6
 (optional=templinst)_ZN3pcl19PointRepresentationINS_11PointNormalEED2Ev@Base 1.6
 (optional=templinst)_ZN3pcl19PointRepresentationINS_11PointXYZHSVEED0Ev@Base 1.6
 (optional=templinst)_ZN3pcl19PointRepresentationINS_11PointXYZHSVEED1Ev@Base 1.6
 (optional=templinst)_ZN3pcl19PointRepresentationINS_11PointXYZHSVEED2Ev@Base 1.6
 (optional=templinst)_ZN3pcl19PointRepresentationINS_11PointXYZRGBEED0Ev@Base 1.6
 (optional=templinst)_ZN3pcl19PointRepresentationINS_11PointXYZRGBEED1Ev@Base 1.6
 (optional=templinst)_ZN3pcl19PointRepresentationINS_11PointXYZRGBEED2Ev@Base 1.6
 (optional=templinst)_ZN3pcl19PointRepresentationINS_12PointXYZRGBAEED0Ev@Base 1.6
 (optional=templinst)_ZN3pcl19PointRepresentationINS_12PointXYZRGBAEED1Ev@Base 1.6
 (optional=templinst)_ZN3pcl19PointRepresentationINS_12PointXYZRGBAEED2Ev@Base 1.6
 (optional=templinst)_ZN3pcl19PointRepresentationINS_12PointXYZRGBLEED0Ev@Base 1.6
 (optional=templinst)_ZN3pcl19PointRepresentationINS_12PointXYZRGBLEED1Ev@Base 1.6
 (optional=templinst)_ZN3pcl19PointRepresentationINS_12PointXYZRGBLEED2Ev@Base 1.6
 (optional=templinst)_ZN3pcl19PointRepresentationINS_13InterestPointEED0Ev@Base 1.6
 (optional=templinst)_ZN3pcl19PointRepresentationINS_13InterestPointEED1Ev@Base 1.6
 (optional=templinst)_ZN3pcl19PointRepresentationINS_13InterestPointEED2Ev@Base 1.6
 (optional=templinst)_ZN3pcl19PointRepresentationINS_14PointWithRangeEED0Ev@Base 1.6
 (optional=templinst)_ZN3pcl19PointRepresentationINS_14PointWithRangeEED1Ev@Base 1.6
 (optional=templinst)_ZN3pcl19PointRepresentationINS_14PointWithRangeEED2Ev@Base 1.6
 (optional=templinst)_ZN3pcl19PointRepresentationINS_14PointWithScaleEED0Ev@Base 1.6
 (optional=templinst)_ZN3pcl19PointRepresentationINS_14PointWithScaleEED1Ev@Base 1.6
 (optional=templinst)_ZN3pcl19PointRepresentationINS_14PointWithScaleEED2Ev@Base 1.6
 (optional=templinst)_ZN3pcl19PointRepresentationINS_15PointXYZINormalEED0Ev@Base 1.6
 (optional=templinst)_ZN3pcl19PointRepresentationINS_15PointXYZINormalEED1Ev@Base 1.6
 (optional=templinst)_ZN3pcl19PointRepresentationINS_15PointXYZINormalEED2Ev@Base 1.6
 (optional=templinst)_ZN3pcl19PointRepresentationINS_17PointXYZRGBNormalEED0Ev@Base 1.6
 (optional=templinst)_ZN3pcl19PointRepresentationINS_17PointXYZRGBNormalEED1Ev@Base 1.6
 (optional=templinst)_ZN3pcl19PointRepresentationINS_17PointXYZRGBNormalEED2Ev@Base 1.6
 (optional=templinst)_ZN3pcl19PointRepresentationINS_18PointWithViewpointEED0Ev@Base 1.6
 (optional=templinst)_ZN3pcl19PointRepresentationINS_18PointWithViewpointEED1Ev@Base 1.6
 (optional=templinst)_ZN3pcl19PointRepresentationINS_18PointWithViewpointEED2Ev@Base 1.6
 (optional=templinst)_ZN3pcl19PointRepresentationINS_8PointXYZEED0Ev@Base 1.6
 (optional=templinst)_ZN3pcl19PointRepresentationINS_8PointXYZEED1Ev@Base 1.6
 (optional=templinst)_ZN3pcl19PointRepresentationINS_8PointXYZEED2Ev@Base 1.6
 (optional=templinst)_ZN3pcl19PointRepresentationINS_9PointXYZIEED0Ev@Base 1.6
 (optional=templinst)_ZN3pcl19PointRepresentationINS_9PointXYZIEED1Ev@Base 1.6
 (optional=templinst)_ZN3pcl19PointRepresentationINS_9PointXYZIEED2Ev@Base 1.6
 (optional=templinst)_ZN3pcl19PointRepresentationINS_9PointXYZLEED0Ev@Base 1.6
 (optional=templinst)_ZN3pcl19PointRepresentationINS_9PointXYZLEED1Ev@Base 1.6
 (optional=templinst)_ZN3pcl19PointRepresentationINS_9PointXYZLEED2Ev@Base 1.6
 (optional=templinst)_ZN3pcl20ApproximateVoxelGridINS_11PointNormalEE11applyFilterERNS_10PointCloudIS1_EE@Base 1.6
 (optional=templinst)_ZN3pcl20ApproximateVoxelGridINS_11PointNormalEE11setLeafSizeERKN5Eigen6MatrixIfLi3ELi1ELi0ELi3ELi1EEE@Base 1.6
 (optional=templinst)_ZN3pcl20ApproximateVoxelGridINS_11PointNormalEE11setLeafSizeEfff@Base 1.6
 (optional=templinst)_ZN3pcl20ApproximateVoxelGridINS_11PointNormalEE20setDownsampleAllDataEb@Base 1.6
 (optional=templinst)_ZN3pcl20ApproximateVoxelGridINS_11PointNormalEE2heC1Ev@Base 1.6
 (optional=templinst)_ZN3pcl20ApproximateVoxelGridINS_11PointNormalEE2heC2Ev@Base 1.6
 (optional=templinst)_ZN3pcl20ApproximateVoxelGridINS_11PointNormalEE5flushERNS_10PointCloudIS1_EEmPNS2_2heEii@Base 1.6
 (optional=templinst)_ZN3pcl20ApproximateVoxelGridINS_11PointNormalEEC1ERKS2_@Base 1.6
 (optional=templinst)_ZN3pcl20ApproximateVoxelGridINS_11PointNormalEEC1Ev@Base 1.6
 (optional=templinst)_ZN3pcl20ApproximateVoxelGridINS_11PointNormalEEC2ERKS2_@Base 1.6
 (optional=templinst)_ZN3pcl20ApproximateVoxelGridINS_11PointNormalEEC2Ev@Base 1.6
 (optional=templinst)_ZN3pcl20ApproximateVoxelGridINS_11PointNormalEED0Ev@Base 1.6
 (optional=templinst)_ZN3pcl20ApproximateVoxelGridINS_11PointNormalEED1Ev@Base 1.6
 (optional=templinst)_ZN3pcl20ApproximateVoxelGridINS_11PointNormalEED2Ev@Base 1.6
 (optional=templinst)_ZN3pcl20ApproximateVoxelGridINS_11PointNormalEEaSERKS2_@Base 1.6
 (optional=templinst)_ZN3pcl20ApproximateVoxelGridINS_11PointXYZHSVEE11applyFilterERNS_10PointCloudIS1_EE@Base 1.6
 (optional=templinst)_ZN3pcl20ApproximateVoxelGridINS_11PointXYZHSVEE11setLeafSizeERKN5Eigen6MatrixIfLi3ELi1ELi0ELi3ELi1EEE@Base 1.6
 (optional=templinst)_ZN3pcl20ApproximateVoxelGridINS_11PointXYZHSVEE11setLeafSizeEfff@Base 1.6
 (optional=templinst)_ZN3pcl20ApproximateVoxelGridINS_11PointXYZHSVEE20setDownsampleAllDataEb@Base 1.6
 (optional=templinst)_ZN3pcl20ApproximateVoxelGridINS_11PointXYZHSVEE2heC1Ev@Base 1.6
 (optional=templinst)_ZN3pcl20ApproximateVoxelGridINS_11PointXYZHSVEE2heC2Ev@Base 1.6
 (optional=templinst)_ZN3pcl20ApproximateVoxelGridINS_11PointXYZHSVEE5flushERNS_10PointCloudIS1_EEmPNS2_2heEii@Base 1.6
 (optional=templinst)_ZN3pcl20ApproximateVoxelGridINS_11PointXYZHSVEEC1ERKS2_@Base 1.6
 (optional=templinst)_ZN3pcl20ApproximateVoxelGridINS_11PointXYZHSVEEC1Ev@Base 1.6
 (optional=templinst)_ZN3pcl20ApproximateVoxelGridINS_11PointXYZHSVEEC2ERKS2_@Base 1.6
 (optional=templinst)_ZN3pcl20ApproximateVoxelGridINS_11PointXYZHSVEEC2Ev@Base 1.6
 (optional=templinst)_ZN3pcl20ApproximateVoxelGridINS_11PointXYZHSVEED0Ev@Base 1.6
 (optional=templinst)_ZN3pcl20ApproximateVoxelGridINS_11PointXYZHSVEED1Ev@Base 1.6
 (optional=templinst)_ZN3pcl20ApproximateVoxelGridINS_11PointXYZHSVEED2Ev@Base 1.6
 (optional=templinst)_ZN3pcl20ApproximateVoxelGridINS_11PointXYZHSVEEaSERKS2_@Base 1.6
 (optional=templinst)_ZN3pcl20ApproximateVoxelGridINS_11PointXYZRGBEE11applyFilterERNS_10PointCloudIS1_EE@Base 1.6
 (optional=templinst)_ZN3pcl20ApproximateVoxelGridINS_11PointXYZRGBEE11setLeafSizeERKN5Eigen6MatrixIfLi3ELi1ELi0ELi3ELi1EEE@Base 1.6
 (optional=templinst)_ZN3pcl20ApproximateVoxelGridINS_11PointXYZRGBEE11setLeafSizeEfff@Base 1.6
 (optional=templinst)_ZN3pcl20ApproximateVoxelGridINS_11PointXYZRGBEE20setDownsampleAllDataEb@Base 1.6
 (optional=templinst)_ZN3pcl20ApproximateVoxelGridINS_11PointXYZRGBEE2heC1Ev@Base 1.6
 (optional=templinst)_ZN3pcl20ApproximateVoxelGridINS_11PointXYZRGBEE2heC2Ev@Base 1.6
 (optional=templinst)_ZN3pcl20ApproximateVoxelGridINS_11PointXYZRGBEE5flushERNS_10PointCloudIS1_EEmPNS2_2heEii@Base 1.6
 (optional=templinst)_ZN3pcl20ApproximateVoxelGridINS_11PointXYZRGBEEC1ERKS2_@Base 1.6
 (optional=templinst)_ZN3pcl20ApproximateVoxelGridINS_11PointXYZRGBEEC1Ev@Base 1.6
 (optional=templinst)_ZN3pcl20ApproximateVoxelGridINS_11PointXYZRGBEEC2ERKS2_@Base 1.6
 (optional=templinst)_ZN3pcl20ApproximateVoxelGridINS_11PointXYZRGBEEC2Ev@Base 1.6
 (optional=templinst)_ZN3pcl20ApproximateVoxelGridINS_11PointXYZRGBEED0Ev@Base 1.6
 (optional=templinst)_ZN3pcl20ApproximateVoxelGridINS_11PointXYZRGBEED1Ev@Base 1.6
 (optional=templinst)_ZN3pcl20ApproximateVoxelGridINS_11PointXYZRGBEED2Ev@Base 1.6
 (optional=templinst)_ZN3pcl20ApproximateVoxelGridINS_11PointXYZRGBEEaSERKS2_@Base 1.6
 (optional=templinst)_ZN3pcl20ApproximateVoxelGridINS_12PointXYZRGBAEE11applyFilterERNS_10PointCloudIS1_EE@Base 1.6
 (optional=templinst)_ZN3pcl20ApproximateVoxelGridINS_12PointXYZRGBAEE11setLeafSizeERKN5Eigen6MatrixIfLi3ELi1ELi0ELi3ELi1EEE@Base 1.6
 (optional=templinst)_ZN3pcl20ApproximateVoxelGridINS_12PointXYZRGBAEE11setLeafSizeEfff@Base 1.6
 (optional=templinst)_ZN3pcl20ApproximateVoxelGridINS_12PointXYZRGBAEE20setDownsampleAllDataEb@Base 1.6
 (optional=templinst)_ZN3pcl20ApproximateVoxelGridINS_12PointXYZRGBAEE2heC1Ev@Base 1.6
 (optional=templinst)_ZN3pcl20ApproximateVoxelGridINS_12PointXYZRGBAEE2heC2Ev@Base 1.6
 (optional=templinst)_ZN3pcl20ApproximateVoxelGridINS_12PointXYZRGBAEE5flushERNS_10PointCloudIS1_EEmPNS2_2heEii@Base 1.6
 (optional=templinst)_ZN3pcl20ApproximateVoxelGridINS_12PointXYZRGBAEEC1ERKS2_@Base 1.6
 (optional=templinst)_ZN3pcl20ApproximateVoxelGridINS_12PointXYZRGBAEEC1Ev@Base 1.6
 (optional=templinst)_ZN3pcl20ApproximateVoxelGridINS_12PointXYZRGBAEEC2ERKS2_@Base 1.6
 (optional=templinst)_ZN3pcl20ApproximateVoxelGridINS_12PointXYZRGBAEEC2Ev@Base 1.6
 (optional=templinst)_ZN3pcl20ApproximateVoxelGridINS_12PointXYZRGBAEED0Ev@Base 1.6
 (optional=templinst)_ZN3pcl20ApproximateVoxelGridINS_12PointXYZRGBAEED1Ev@Base 1.6
 (optional=templinst)_ZN3pcl20ApproximateVoxelGridINS_12PointXYZRGBAEED2Ev@Base 1.6
 (optional=templinst)_ZN3pcl20ApproximateVoxelGridINS_12PointXYZRGBAEEaSERKS2_@Base 1.6
 (optional=templinst)_ZN3pcl20ApproximateVoxelGridINS_12PointXYZRGBLEE11applyFilterERNS_10PointCloudIS1_EE@Base 1.6
 (optional=templinst)_ZN3pcl20ApproximateVoxelGridINS_12PointXYZRGBLEE11setLeafSizeERKN5Eigen6MatrixIfLi3ELi1ELi0ELi3ELi1EEE@Base 1.6
 (optional=templinst)_ZN3pcl20ApproximateVoxelGridINS_12PointXYZRGBLEE11setLeafSizeEfff@Base 1.6
 (optional=templinst)_ZN3pcl20ApproximateVoxelGridINS_12PointXYZRGBLEE20setDownsampleAllDataEb@Base 1.6
 (optional=templinst)_ZN3pcl20ApproximateVoxelGridINS_12PointXYZRGBLEE2heC1Ev@Base 1.6
 (optional=templinst)_ZN3pcl20ApproximateVoxelGridINS_12PointXYZRGBLEE2heC2Ev@Base 1.6
 (optional=templinst)_ZN3pcl20ApproximateVoxelGridINS_12PointXYZRGBLEE5flushERNS_10PointCloudIS1_EEmPNS2_2heEii@Base 1.6
 (optional=templinst)_ZN3pcl20ApproximateVoxelGridINS_12PointXYZRGBLEEC1ERKS2_@Base 1.6
 (optional=templinst)_ZN3pcl20ApproximateVoxelGridINS_12PointXYZRGBLEEC1Ev@Base 1.6
 (optional=templinst)_ZN3pcl20ApproximateVoxelGridINS_12PointXYZRGBLEEC2ERKS2_@Base 1.6
 (optional=templinst)_ZN3pcl20ApproximateVoxelGridINS_12PointXYZRGBLEEC2Ev@Base 1.6
 (optional=templinst)_ZN3pcl20ApproximateVoxelGridINS_12PointXYZRGBLEED0Ev@Base 1.6
 (optional=templinst)_ZN3pcl20ApproximateVoxelGridINS_12PointXYZRGBLEED1Ev@Base 1.6
 (optional=templinst)_ZN3pcl20ApproximateVoxelGridINS_12PointXYZRGBLEED2Ev@Base 1.6
 (optional=templinst)_ZN3pcl20ApproximateVoxelGridINS_12PointXYZRGBLEEaSERKS2_@Base 1.6
 (optional=templinst)_ZN3pcl20ApproximateVoxelGridINS_13InterestPointEE11applyFilterERNS_10PointCloudIS1_EE@Base 1.6
 (optional=templinst)_ZN3pcl20ApproximateVoxelGridINS_13InterestPointEE11setLeafSizeERKN5Eigen6MatrixIfLi3ELi1ELi0ELi3ELi1EEE@Base 1.6
 (optional=templinst)_ZN3pcl20ApproximateVoxelGridINS_13InterestPointEE11setLeafSizeEfff@Base 1.6
 (optional=templinst)_ZN3pcl20ApproximateVoxelGridINS_13InterestPointEE20setDownsampleAllDataEb@Base 1.6
 (optional=templinst)_ZN3pcl20ApproximateVoxelGridINS_13InterestPointEE2heC1Ev@Base 1.6
 (optional=templinst)_ZN3pcl20ApproximateVoxelGridINS_13InterestPointEE2heC2Ev@Base 1.6
 (optional=templinst)_ZN3pcl20ApproximateVoxelGridINS_13InterestPointEE5flushERNS_10PointCloudIS1_EEmPNS2_2heEii@Base 1.6
 (optional=templinst)_ZN3pcl20ApproximateVoxelGridINS_13InterestPointEEC1ERKS2_@Base 1.6
 (optional=templinst)_ZN3pcl20ApproximateVoxelGridINS_13InterestPointEEC1Ev@Base 1.6
 (optional=templinst)_ZN3pcl20ApproximateVoxelGridINS_13InterestPointEEC2ERKS2_@Base 1.6
 (optional=templinst)_ZN3pcl20ApproximateVoxelGridINS_13InterestPointEEC2Ev@Base 1.6
 (optional=templinst)_ZN3pcl20ApproximateVoxelGridINS_13InterestPointEED0Ev@Base 1.6
 (optional=templinst)_ZN3pcl20ApproximateVoxelGridINS_13InterestPointEED1Ev@Base 1.6
 (optional=templinst)_ZN3pcl20ApproximateVoxelGridINS_13InterestPointEED2Ev@Base 1.6
 (optional=templinst)_ZN3pcl20ApproximateVoxelGridINS_13InterestPointEEaSERKS2_@Base 1.6
 (optional=templinst)_ZN3pcl20ApproximateVoxelGridINS_14PointWithRangeEE11applyFilterERNS_10PointCloudIS1_EE@Base 1.6
 (optional=templinst)_ZN3pcl20ApproximateVoxelGridINS_14PointWithRangeEE11setLeafSizeERKN5Eigen6MatrixIfLi3ELi1ELi0ELi3ELi1EEE@Base 1.6
 (optional=templinst)_ZN3pcl20ApproximateVoxelGridINS_14PointWithRangeEE11setLeafSizeEfff@Base 1.6
 (optional=templinst)_ZN3pcl20ApproximateVoxelGridINS_14PointWithRangeEE20setDownsampleAllDataEb@Base 1.6
 (optional=templinst)_ZN3pcl20ApproximateVoxelGridINS_14PointWithRangeEE2heC1Ev@Base 1.6
 (optional=templinst)_ZN3pcl20ApproximateVoxelGridINS_14PointWithRangeEE2heC2Ev@Base 1.6
 (optional=templinst)_ZN3pcl20ApproximateVoxelGridINS_14PointWithRangeEE5flushERNS_10PointCloudIS1_EEmPNS2_2heEii@Base 1.6
 (optional=templinst)_ZN3pcl20ApproximateVoxelGridINS_14PointWithRangeEEC1ERKS2_@Base 1.6
 (optional=templinst)_ZN3pcl20ApproximateVoxelGridINS_14PointWithRangeEEC1Ev@Base 1.6
 (optional=templinst)_ZN3pcl20ApproximateVoxelGridINS_14PointWithRangeEEC2ERKS2_@Base 1.6
 (optional=templinst)_ZN3pcl20ApproximateVoxelGridINS_14PointWithRangeEEC2Ev@Base 1.6
 (optional=templinst)_ZN3pcl20ApproximateVoxelGridINS_14PointWithRangeEED0Ev@Base 1.6
 (optional=templinst)_ZN3pcl20ApproximateVoxelGridINS_14PointWithRangeEED1Ev@Base 1.6
 (optional=templinst)_ZN3pcl20ApproximateVoxelGridINS_14PointWithRangeEED2Ev@Base 1.6
 (optional=templinst)_ZN3pcl20ApproximateVoxelGridINS_14PointWithRangeEEaSERKS2_@Base 1.6
 (optional=templinst)_ZN3pcl20ApproximateVoxelGridINS_14PointWithScaleEE11applyFilterERNS_10PointCloudIS1_EE@Base 1.6
 (optional=templinst)_ZN3pcl20ApproximateVoxelGridINS_14PointWithScaleEE11setLeafSizeERKN5Eigen6MatrixIfLi3ELi1ELi0ELi3ELi1EEE@Base 1.6
 (optional=templinst)_ZN3pcl20ApproximateVoxelGridINS_14PointWithScaleEE11setLeafSizeEfff@Base 1.6
 (optional=templinst)_ZN3pcl20ApproximateVoxelGridINS_14PointWithScaleEE20setDownsampleAllDataEb@Base 1.6
 (optional=templinst)_ZN3pcl20ApproximateVoxelGridINS_14PointWithScaleEE2heC1Ev@Base 1.6
 (optional=templinst)_ZN3pcl20ApproximateVoxelGridINS_14PointWithScaleEE2heC2Ev@Base 1.6
 (optional=templinst)_ZN3pcl20ApproximateVoxelGridINS_14PointWithScaleEE5flushERNS_10PointCloudIS1_EEmPNS2_2heEii@Base 1.6
 (optional=templinst)_ZN3pcl20ApproximateVoxelGridINS_14PointWithScaleEEC1ERKS2_@Base 1.6
 (optional=templinst)_ZN3pcl20ApproximateVoxelGridINS_14PointWithScaleEEC1Ev@Base 1.6
 (optional=templinst)_ZN3pcl20ApproximateVoxelGridINS_14PointWithScaleEEC2ERKS2_@Base 1.6
 (optional=templinst)_ZN3pcl20ApproximateVoxelGridINS_14PointWithScaleEEC2Ev@Base 1.6
 (optional=templinst)_ZN3pcl20ApproximateVoxelGridINS_14PointWithScaleEED0Ev@Base 1.6
 (optional=templinst)_ZN3pcl20ApproximateVoxelGridINS_14PointWithScaleEED1Ev@Base 1.6
 (optional=templinst)_ZN3pcl20ApproximateVoxelGridINS_14PointWithScaleEED2Ev@Base 1.6
 (optional=templinst)_ZN3pcl20ApproximateVoxelGridINS_14PointWithScaleEEaSERKS2_@Base 1.6
 (optional=templinst)_ZN3pcl20ApproximateVoxelGridINS_15PointXYZINormalEE11applyFilterERNS_10PointCloudIS1_EE@Base 1.6
 (optional=templinst)_ZN3pcl20ApproximateVoxelGridINS_15PointXYZINormalEE11setLeafSizeERKN5Eigen6MatrixIfLi3ELi1ELi0ELi3ELi1EEE@Base 1.6
 (optional=templinst)_ZN3pcl20ApproximateVoxelGridINS_15PointXYZINormalEE11setLeafSizeEfff@Base 1.6
 (optional=templinst)_ZN3pcl20ApproximateVoxelGridINS_15PointXYZINormalEE20setDownsampleAllDataEb@Base 1.6
 (optional=templinst)_ZN3pcl20ApproximateVoxelGridINS_15PointXYZINormalEE2heC1Ev@Base 1.6
 (optional=templinst)_ZN3pcl20ApproximateVoxelGridINS_15PointXYZINormalEE2heC2Ev@Base 1.6
 (optional=templinst)_ZN3pcl20ApproximateVoxelGridINS_15PointXYZINormalEE5flushERNS_10PointCloudIS1_EEmPNS2_2heEii@Base 1.6
 (optional=templinst)_ZN3pcl20ApproximateVoxelGridINS_15PointXYZINormalEEC1ERKS2_@Base 1.6
 (optional=templinst)_ZN3pcl20ApproximateVoxelGridINS_15PointXYZINormalEEC1Ev@Base 1.6
 (optional=templinst)_ZN3pcl20ApproximateVoxelGridINS_15PointXYZINormalEEC2ERKS2_@Base 1.6
 (optional=templinst)_ZN3pcl20ApproximateVoxelGridINS_15PointXYZINormalEEC2Ev@Base 1.6
 (optional=templinst)_ZN3pcl20ApproximateVoxelGridINS_15PointXYZINormalEED0Ev@Base 1.6
 (optional=templinst)_ZN3pcl20ApproximateVoxelGridINS_15PointXYZINormalEED1Ev@Base 1.6
 (optional=templinst)_ZN3pcl20ApproximateVoxelGridINS_15PointXYZINormalEED2Ev@Base 1.6
 (optional=templinst)_ZN3pcl20ApproximateVoxelGridINS_15PointXYZINormalEEaSERKS2_@Base 1.6
 (optional=templinst)_ZN3pcl20ApproximateVoxelGridINS_17PointXYZRGBNormalEE11applyFilterERNS_10PointCloudIS1_EE@Base 1.6
 (optional=templinst)_ZN3pcl20ApproximateVoxelGridINS_17PointXYZRGBNormalEE11setLeafSizeERKN5Eigen6MatrixIfLi3ELi1ELi0ELi3ELi1EEE@Base 1.6
 (optional=templinst)_ZN3pcl20ApproximateVoxelGridINS_17PointXYZRGBNormalEE11setLeafSizeEfff@Base 1.6
 (optional=templinst)_ZN3pcl20ApproximateVoxelGridINS_17PointXYZRGBNormalEE20setDownsampleAllDataEb@Base 1.6
 (optional=templinst)_ZN3pcl20ApproximateVoxelGridINS_17PointXYZRGBNormalEE2heC1Ev@Base 1.6
 (optional=templinst)_ZN3pcl20ApproximateVoxelGridINS_17PointXYZRGBNormalEE2heC2Ev@Base 1.6
 (optional=templinst)_ZN3pcl20ApproximateVoxelGridINS_17PointXYZRGBNormalEE5flushERNS_10PointCloudIS1_EEmPNS2_2heEii@Base 1.6
 (optional=templinst)_ZN3pcl20ApproximateVoxelGridINS_17PointXYZRGBNormalEEC1ERKS2_@Base 1.6
 (optional=templinst)_ZN3pcl20ApproximateVoxelGridINS_17PointXYZRGBNormalEEC1Ev@Base 1.6
 (optional=templinst)_ZN3pcl20ApproximateVoxelGridINS_17PointXYZRGBNormalEEC2ERKS2_@Base 1.6
 (optional=templinst)_ZN3pcl20ApproximateVoxelGridINS_17PointXYZRGBNormalEEC2Ev@Base 1.6
 (optional=templinst)_ZN3pcl20ApproximateVoxelGridINS_17PointXYZRGBNormalEED0Ev@Base 1.6
 (optional=templinst)_ZN3pcl20ApproximateVoxelGridINS_17PointXYZRGBNormalEED1Ev@Base 1.6
 (optional=templinst)_ZN3pcl20ApproximateVoxelGridINS_17PointXYZRGBNormalEED2Ev@Base 1.6
 (optional=templinst)_ZN3pcl20ApproximateVoxelGridINS_17PointXYZRGBNormalEEaSERKS2_@Base 1.6
 (optional=templinst)_ZN3pcl20ApproximateVoxelGridINS_18PointWithViewpointEE11applyFilterERNS_10PointCloudIS1_EE@Base 1.6
 (optional=templinst)_ZN3pcl20ApproximateVoxelGridINS_18PointWithViewpointEE11setLeafSizeERKN5Eigen6MatrixIfLi3ELi1ELi0ELi3ELi1EEE@Base 1.6
 (optional=templinst)_ZN3pcl20ApproximateVoxelGridINS_18PointWithViewpointEE11setLeafSizeEfff@Base 1.6
 (optional=templinst)_ZN3pcl20ApproximateVoxelGridINS_18PointWithViewpointEE20setDownsampleAllDataEb@Base 1.6
 (optional=templinst)_ZN3pcl20ApproximateVoxelGridINS_18PointWithViewpointEE2heC1Ev@Base 1.6
 (optional=templinst)_ZN3pcl20ApproximateVoxelGridINS_18PointWithViewpointEE2heC2Ev@Base 1.6
 (optional=templinst)_ZN3pcl20ApproximateVoxelGridINS_18PointWithViewpointEE5flushERNS_10PointCloudIS1_EEmPNS2_2heEii@Base 1.6
 (optional=templinst)_ZN3pcl20ApproximateVoxelGridINS_18PointWithViewpointEEC1ERKS2_@Base 1.6
 (optional=templinst)_ZN3pcl20ApproximateVoxelGridINS_18PointWithViewpointEEC1Ev@Base 1.6
 (optional=templinst)_ZN3pcl20ApproximateVoxelGridINS_18PointWithViewpointEEC2ERKS2_@Base 1.6
 (optional=templinst)_ZN3pcl20ApproximateVoxelGridINS_18PointWithViewpointEEC2Ev@Base 1.6
 (optional=templinst)_ZN3pcl20ApproximateVoxelGridINS_18PointWithViewpointEED0Ev@Base 1.6
 (optional=templinst)_ZN3pcl20ApproximateVoxelGridINS_18PointWithViewpointEED1Ev@Base 1.6
 (optional=templinst)_ZN3pcl20ApproximateVoxelGridINS_18PointWithViewpointEED2Ev@Base 1.6
 (optional=templinst)_ZN3pcl20ApproximateVoxelGridINS_18PointWithViewpointEEaSERKS2_@Base 1.6
 (optional=templinst)_ZN3pcl20ApproximateVoxelGridINS_8PointXYZEE11applyFilterERNS_10PointCloudIS1_EE@Base 1.6
 (optional=templinst)_ZN3pcl20ApproximateVoxelGridINS_8PointXYZEE11setLeafSizeERKN5Eigen6MatrixIfLi3ELi1ELi0ELi3ELi1EEE@Base 1.6
 (optional=templinst)_ZN3pcl20ApproximateVoxelGridINS_8PointXYZEE11setLeafSizeEfff@Base 1.6
 (optional=templinst)_ZN3pcl20ApproximateVoxelGridINS_8PointXYZEE20setDownsampleAllDataEb@Base 1.6
 (optional=templinst)_ZN3pcl20ApproximateVoxelGridINS_8PointXYZEE2heC1Ev@Base 1.6
 (optional=templinst)_ZN3pcl20ApproximateVoxelGridINS_8PointXYZEE2heC2Ev@Base 1.6
 (optional=templinst)_ZN3pcl20ApproximateVoxelGridINS_8PointXYZEE5flushERNS_10PointCloudIS1_EEmPNS2_2heEii@Base 1.6
 (optional=templinst)_ZN3pcl20ApproximateVoxelGridINS_8PointXYZEEC1ERKS2_@Base 1.6
 (optional=templinst)_ZN3pcl20ApproximateVoxelGridINS_8PointXYZEEC1Ev@Base 1.6
 (optional=templinst)_ZN3pcl20ApproximateVoxelGridINS_8PointXYZEEC2ERKS2_@Base 1.6
 (optional=templinst)_ZN3pcl20ApproximateVoxelGridINS_8PointXYZEEC2Ev@Base 1.6
 (optional=templinst)_ZN3pcl20ApproximateVoxelGridINS_8PointXYZEED0Ev@Base 1.6
 (optional=templinst)_ZN3pcl20ApproximateVoxelGridINS_8PointXYZEED1Ev@Base 1.6
 (optional=templinst)_ZN3pcl20ApproximateVoxelGridINS_8PointXYZEED2Ev@Base 1.6
 (optional=templinst)_ZN3pcl20ApproximateVoxelGridINS_8PointXYZEEaSERKS2_@Base 1.6
 (optional=templinst)_ZN3pcl20ApproximateVoxelGridINS_9PointXYZIEE11applyFilterERNS_10PointCloudIS1_EE@Base 1.6
 (optional=templinst)_ZN3pcl20ApproximateVoxelGridINS_9PointXYZIEE11setLeafSizeERKN5Eigen6MatrixIfLi3ELi1ELi0ELi3ELi1EEE@Base 1.6
 (optional=templinst)_ZN3pcl20ApproximateVoxelGridINS_9PointXYZIEE11setLeafSizeEfff@Base 1.6
 (optional=templinst)_ZN3pcl20ApproximateVoxelGridINS_9PointXYZIEE20setDownsampleAllDataEb@Base 1.6
 (optional=templinst)_ZN3pcl20ApproximateVoxelGridINS_9PointXYZIEE2heC1Ev@Base 1.6
 (optional=templinst)_ZN3pcl20ApproximateVoxelGridINS_9PointXYZIEE2heC2Ev@Base 1.6
 (optional=templinst)_ZN3pcl20ApproximateVoxelGridINS_9PointXYZIEE5flushERNS_10PointCloudIS1_EEmPNS2_2heEii@Base 1.6
 (optional=templinst)_ZN3pcl20ApproximateVoxelGridINS_9PointXYZIEEC1ERKS2_@Base 1.6
 (optional=templinst)_ZN3pcl20ApproximateVoxelGridINS_9PointXYZIEEC1Ev@Base 1.6
 (optional=templinst)_ZN3pcl20ApproximateVoxelGridINS_9PointXYZIEEC2ERKS2_@Base 1.6
 (optional=templinst)_ZN3pcl20ApproximateVoxelGridINS_9PointXYZIEEC2Ev@Base 1.6
 (optional=templinst)_ZN3pcl20ApproximateVoxelGridINS_9PointXYZIEED0Ev@Base 1.6
 (optional=templinst)_ZN3pcl20ApproximateVoxelGridINS_9PointXYZIEED1Ev@Base 1.6
 (optional=templinst)_ZN3pcl20ApproximateVoxelGridINS_9PointXYZIEED2Ev@Base 1.6
 (optional=templinst)_ZN3pcl20ApproximateVoxelGridINS_9PointXYZIEEaSERKS2_@Base 1.6
 (optional=templinst)_ZN3pcl20ApproximateVoxelGridINS_9PointXYZLEE11applyFilterERNS_10PointCloudIS1_EE@Base 1.6
 (optional=templinst)_ZN3pcl20ApproximateVoxelGridINS_9PointXYZLEE11setLeafSizeERKN5Eigen6MatrixIfLi3ELi1ELi0ELi3ELi1EEE@Base 1.6
 (optional=templinst)_ZN3pcl20ApproximateVoxelGridINS_9PointXYZLEE11setLeafSizeEfff@Base 1.6
 (optional=templinst)_ZN3pcl20ApproximateVoxelGridINS_9PointXYZLEE20setDownsampleAllDataEb@Base 1.6
 (optional=templinst)_ZN3pcl20ApproximateVoxelGridINS_9PointXYZLEE2heC1Ev@Base 1.6
 (optional=templinst)_ZN3pcl20ApproximateVoxelGridINS_9PointXYZLEE2heC2Ev@Base 1.6
 (optional=templinst)_ZN3pcl20ApproximateVoxelGridINS_9PointXYZLEE5flushERNS_10PointCloudIS1_EEmPNS2_2heEii@Base 1.6
 (optional=templinst)_ZN3pcl20ApproximateVoxelGridINS_9PointXYZLEEC1ERKS2_@Base 1.6
 (optional=templinst)_ZN3pcl20ApproximateVoxelGridINS_9PointXYZLEEC1Ev@Base 1.6
 (optional=templinst)_ZN3pcl20ApproximateVoxelGridINS_9PointXYZLEEC2ERKS2_@Base 1.6
 (optional=templinst)_ZN3pcl20ApproximateVoxelGridINS_9PointXYZLEEC2Ev@Base 1.6
 (optional=templinst)_ZN3pcl20ApproximateVoxelGridINS_9PointXYZLEED0Ev@Base 1.6
 (optional=templinst)_ZN3pcl20ApproximateVoxelGridINS_9PointXYZLEED1Ev@Base 1.6
 (optional=templinst)_ZN3pcl20ApproximateVoxelGridINS_9PointXYZLEED2Ev@Base 1.6
 (optional=templinst)_ZN3pcl20ApproximateVoxelGridINS_9PointXYZLEEaSERKS2_@Base 1.6
 (optional=templinst)_ZN3pcl20RadiusOutlierRemovalIN11sensor_msgs11PointCloud2EE11applyFilterERS2_@Base 1.6
 (optional=templinst)_ZN3pcl20RadiusOutlierRemovalIN11sensor_msgs11PointCloud2EED0Ev@Base 1.6
 (optional=templinst)_ZN3pcl20RadiusOutlierRemovalIN11sensor_msgs11PointCloud2EED1Ev@Base 1.6
 (optional=templinst)_ZN3pcl20RadiusOutlierRemovalIN11sensor_msgs11PointCloud2EED2Ev@Base 1.6
 (optional=templinst)_ZN3pcl20RadiusOutlierRemovalINS_11PointNormalEE11applyFilterERNS_10PointCloudIS1_EE@Base 1.6
 (optional=templinst)_ZN3pcl20RadiusOutlierRemovalINS_11PointNormalEE11applyFilterERSt6vectorIiSaIiEE@Base 1.6
 (optional=templinst)_ZN3pcl20RadiusOutlierRemovalINS_11PointNormalEE15getRadiusSearchEv@Base 1.6
 (optional=templinst)_ZN3pcl20RadiusOutlierRemovalINS_11PointNormalEE15setRadiusSearchEd@Base 1.6
 (optional=templinst)_ZN3pcl20RadiusOutlierRemovalINS_11PointNormalEE18applyFilterIndicesERSt6vectorIiSaIiEE@Base 1.6
 (optional=templinst)_ZN3pcl20RadiusOutlierRemovalINS_11PointNormalEE23getMinNeighborsInRadiusEv@Base 1.6
 (optional=templinst)_ZN3pcl20RadiusOutlierRemovalINS_11PointNormalEE23setMinNeighborsInRadiusEi@Base 1.6
 (optional=templinst)_ZN3pcl20RadiusOutlierRemovalINS_11PointNormalEEC1Eb@Base 1.6
 (optional=templinst)_ZN3pcl20RadiusOutlierRemovalINS_11PointNormalEEC2Eb@Base 1.6
 (optional=templinst)_ZN3pcl20RadiusOutlierRemovalINS_11PointNormalEED0Ev@Base 1.6
 (optional=templinst)_ZN3pcl20RadiusOutlierRemovalINS_11PointNormalEED1Ev@Base 1.6
 (optional=templinst)_ZN3pcl20RadiusOutlierRemovalINS_11PointNormalEED2Ev@Base 1.6
 (optional=templinst)_ZN3pcl20RadiusOutlierRemovalINS_11PointXYZHSVEE11applyFilterERNS_10PointCloudIS1_EE@Base 1.6
 (optional=templinst)_ZN3pcl20RadiusOutlierRemovalINS_11PointXYZHSVEE11applyFilterERSt6vectorIiSaIiEE@Base 1.6
 (optional=templinst)_ZN3pcl20RadiusOutlierRemovalINS_11PointXYZHSVEE15getRadiusSearchEv@Base 1.6
 (optional=templinst)_ZN3pcl20RadiusOutlierRemovalINS_11PointXYZHSVEE15setRadiusSearchEd@Base 1.6
 (optional=templinst)_ZN3pcl20RadiusOutlierRemovalINS_11PointXYZHSVEE18applyFilterIndicesERSt6vectorIiSaIiEE@Base 1.6
 (optional=templinst)_ZN3pcl20RadiusOutlierRemovalINS_11PointXYZHSVEE23getMinNeighborsInRadiusEv@Base 1.6
 (optional=templinst)_ZN3pcl20RadiusOutlierRemovalINS_11PointXYZHSVEE23setMinNeighborsInRadiusEi@Base 1.6
 (optional=templinst)_ZN3pcl20RadiusOutlierRemovalINS_11PointXYZHSVEEC1Eb@Base 1.6
 (optional=templinst)_ZN3pcl20RadiusOutlierRemovalINS_11PointXYZHSVEEC2Eb@Base 1.6
 (optional=templinst)_ZN3pcl20RadiusOutlierRemovalINS_11PointXYZHSVEED0Ev@Base 1.6
 (optional=templinst)_ZN3pcl20RadiusOutlierRemovalINS_11PointXYZHSVEED1Ev@Base 1.6
 (optional=templinst)_ZN3pcl20RadiusOutlierRemovalINS_11PointXYZHSVEED2Ev@Base 1.6
 (optional=templinst)_ZN3pcl20RadiusOutlierRemovalINS_11PointXYZRGBEE11applyFilterERNS_10PointCloudIS1_EE@Base 1.6
 (optional=templinst)_ZN3pcl20RadiusOutlierRemovalINS_11PointXYZRGBEE11applyFilterERSt6vectorIiSaIiEE@Base 1.6
 (optional=templinst)_ZN3pcl20RadiusOutlierRemovalINS_11PointXYZRGBEE15getRadiusSearchEv@Base 1.6
 (optional=templinst)_ZN3pcl20RadiusOutlierRemovalINS_11PointXYZRGBEE15setRadiusSearchEd@Base 1.6
 (optional=templinst)_ZN3pcl20RadiusOutlierRemovalINS_11PointXYZRGBEE18applyFilterIndicesERSt6vectorIiSaIiEE@Base 1.6
 (optional=templinst)_ZN3pcl20RadiusOutlierRemovalINS_11PointXYZRGBEE23getMinNeighborsInRadiusEv@Base 1.6
 (optional=templinst)_ZN3pcl20RadiusOutlierRemovalINS_11PointXYZRGBEE23setMinNeighborsInRadiusEi@Base 1.6
 (optional=templinst)_ZN3pcl20RadiusOutlierRemovalINS_11PointXYZRGBEEC1Eb@Base 1.6
 (optional=templinst)_ZN3pcl20RadiusOutlierRemovalINS_11PointXYZRGBEEC2Eb@Base 1.6
 (optional=templinst)_ZN3pcl20RadiusOutlierRemovalINS_11PointXYZRGBEED0Ev@Base 1.6
 (optional=templinst)_ZN3pcl20RadiusOutlierRemovalINS_11PointXYZRGBEED1Ev@Base 1.6
 (optional=templinst)_ZN3pcl20RadiusOutlierRemovalINS_11PointXYZRGBEED2Ev@Base 1.6
 (optional=templinst)_ZN3pcl20RadiusOutlierRemovalINS_12PointXYZRGBAEE11applyFilterERNS_10PointCloudIS1_EE@Base 1.6
 (optional=templinst)_ZN3pcl20RadiusOutlierRemovalINS_12PointXYZRGBAEE11applyFilterERSt6vectorIiSaIiEE@Base 1.6
 (optional=templinst)_ZN3pcl20RadiusOutlierRemovalINS_12PointXYZRGBAEE15getRadiusSearchEv@Base 1.6
 (optional=templinst)_ZN3pcl20RadiusOutlierRemovalINS_12PointXYZRGBAEE15setRadiusSearchEd@Base 1.6
 (optional=templinst)_ZN3pcl20RadiusOutlierRemovalINS_12PointXYZRGBAEE18applyFilterIndicesERSt6vectorIiSaIiEE@Base 1.6
 (optional=templinst)_ZN3pcl20RadiusOutlierRemovalINS_12PointXYZRGBAEE23getMinNeighborsInRadiusEv@Base 1.6
 (optional=templinst)_ZN3pcl20RadiusOutlierRemovalINS_12PointXYZRGBAEE23setMinNeighborsInRadiusEi@Base 1.6
 (optional=templinst)_ZN3pcl20RadiusOutlierRemovalINS_12PointXYZRGBAEEC1Eb@Base 1.6
 (optional=templinst)_ZN3pcl20RadiusOutlierRemovalINS_12PointXYZRGBAEEC2Eb@Base 1.6
 (optional=templinst)_ZN3pcl20RadiusOutlierRemovalINS_12PointXYZRGBAEED0Ev@Base 1.6
 (optional=templinst)_ZN3pcl20RadiusOutlierRemovalINS_12PointXYZRGBAEED1Ev@Base 1.6
 (optional=templinst)_ZN3pcl20RadiusOutlierRemovalINS_12PointXYZRGBAEED2Ev@Base 1.6
 (optional=templinst)_ZN3pcl20RadiusOutlierRemovalINS_12PointXYZRGBLEE11applyFilterERNS_10PointCloudIS1_EE@Base 1.6
 (optional=templinst)_ZN3pcl20RadiusOutlierRemovalINS_12PointXYZRGBLEE11applyFilterERSt6vectorIiSaIiEE@Base 1.6
 (optional=templinst)_ZN3pcl20RadiusOutlierRemovalINS_12PointXYZRGBLEE15getRadiusSearchEv@Base 1.6
 (optional=templinst)_ZN3pcl20RadiusOutlierRemovalINS_12PointXYZRGBLEE15setRadiusSearchEd@Base 1.6
 (optional=templinst)_ZN3pcl20RadiusOutlierRemovalINS_12PointXYZRGBLEE18applyFilterIndicesERSt6vectorIiSaIiEE@Base 1.6
 (optional=templinst)_ZN3pcl20RadiusOutlierRemovalINS_12PointXYZRGBLEE23getMinNeighborsInRadiusEv@Base 1.6
 (optional=templinst)_ZN3pcl20RadiusOutlierRemovalINS_12PointXYZRGBLEE23setMinNeighborsInRadiusEi@Base 1.6
 (optional=templinst)_ZN3pcl20RadiusOutlierRemovalINS_12PointXYZRGBLEEC1Eb@Base 1.6
 (optional=templinst)_ZN3pcl20RadiusOutlierRemovalINS_12PointXYZRGBLEEC2Eb@Base 1.6
 (optional=templinst)_ZN3pcl20RadiusOutlierRemovalINS_12PointXYZRGBLEED0Ev@Base 1.6
 (optional=templinst)_ZN3pcl20RadiusOutlierRemovalINS_12PointXYZRGBLEED1Ev@Base 1.6
 (optional=templinst)_ZN3pcl20RadiusOutlierRemovalINS_12PointXYZRGBLEED2Ev@Base 1.6
 (optional=templinst)_ZN3pcl20RadiusOutlierRemovalINS_13InterestPointEE11applyFilterERNS_10PointCloudIS1_EE@Base 1.6
 (optional=templinst)_ZN3pcl20RadiusOutlierRemovalINS_13InterestPointEE11applyFilterERSt6vectorIiSaIiEE@Base 1.6
 (optional=templinst)_ZN3pcl20RadiusOutlierRemovalINS_13InterestPointEE15getRadiusSearchEv@Base 1.6
 (optional=templinst)_ZN3pcl20RadiusOutlierRemovalINS_13InterestPointEE15setRadiusSearchEd@Base 1.6
 (optional=templinst)_ZN3pcl20RadiusOutlierRemovalINS_13InterestPointEE18applyFilterIndicesERSt6vectorIiSaIiEE@Base 1.6
 (optional=templinst)_ZN3pcl20RadiusOutlierRemovalINS_13InterestPointEE23getMinNeighborsInRadiusEv@Base 1.6
 (optional=templinst)_ZN3pcl20RadiusOutlierRemovalINS_13InterestPointEE23setMinNeighborsInRadiusEi@Base 1.6
 (optional=templinst)_ZN3pcl20RadiusOutlierRemovalINS_13InterestPointEEC1Eb@Base 1.6
 (optional=templinst)_ZN3pcl20RadiusOutlierRemovalINS_13InterestPointEEC2Eb@Base 1.6
 (optional=templinst)_ZN3pcl20RadiusOutlierRemovalINS_13InterestPointEED0Ev@Base 1.6
 (optional=templinst)_ZN3pcl20RadiusOutlierRemovalINS_13InterestPointEED1Ev@Base 1.6
 (optional=templinst)_ZN3pcl20RadiusOutlierRemovalINS_13InterestPointEED2Ev@Base 1.6
 (optional=templinst)_ZN3pcl20RadiusOutlierRemovalINS_14PointWithRangeEE11applyFilterERNS_10PointCloudIS1_EE@Base 1.6
 (optional=templinst)_ZN3pcl20RadiusOutlierRemovalINS_14PointWithRangeEE11applyFilterERSt6vectorIiSaIiEE@Base 1.6
 (optional=templinst)_ZN3pcl20RadiusOutlierRemovalINS_14PointWithRangeEE15getRadiusSearchEv@Base 1.6
 (optional=templinst)_ZN3pcl20RadiusOutlierRemovalINS_14PointWithRangeEE15setRadiusSearchEd@Base 1.6
 (optional=templinst)_ZN3pcl20RadiusOutlierRemovalINS_14PointWithRangeEE18applyFilterIndicesERSt6vectorIiSaIiEE@Base 1.6
 (optional=templinst)_ZN3pcl20RadiusOutlierRemovalINS_14PointWithRangeEE23getMinNeighborsInRadiusEv@Base 1.6
 (optional=templinst)_ZN3pcl20RadiusOutlierRemovalINS_14PointWithRangeEE23setMinNeighborsInRadiusEi@Base 1.6
 (optional=templinst)_ZN3pcl20RadiusOutlierRemovalINS_14PointWithRangeEEC1Eb@Base 1.6
 (optional=templinst)_ZN3pcl20RadiusOutlierRemovalINS_14PointWithRangeEEC2Eb@Base 1.6
 (optional=templinst)_ZN3pcl20RadiusOutlierRemovalINS_14PointWithRangeEED0Ev@Base 1.6
 (optional=templinst)_ZN3pcl20RadiusOutlierRemovalINS_14PointWithRangeEED1Ev@Base 1.6
 (optional=templinst)_ZN3pcl20RadiusOutlierRemovalINS_14PointWithRangeEED2Ev@Base 1.6
 (optional=templinst)_ZN3pcl20RadiusOutlierRemovalINS_14PointWithScaleEE11applyFilterERNS_10PointCloudIS1_EE@Base 1.6
 (optional=templinst)_ZN3pcl20RadiusOutlierRemovalINS_14PointWithScaleEE11applyFilterERSt6vectorIiSaIiEE@Base 1.6
 (optional=templinst)_ZN3pcl20RadiusOutlierRemovalINS_14PointWithScaleEE15getRadiusSearchEv@Base 1.6
 (optional=templinst)_ZN3pcl20RadiusOutlierRemovalINS_14PointWithScaleEE15setRadiusSearchEd@Base 1.6
 (optional=templinst)_ZN3pcl20RadiusOutlierRemovalINS_14PointWithScaleEE18applyFilterIndicesERSt6vectorIiSaIiEE@Base 1.6
 (optional=templinst)_ZN3pcl20RadiusOutlierRemovalINS_14PointWithScaleEE23getMinNeighborsInRadiusEv@Base 1.6
 (optional=templinst)_ZN3pcl20RadiusOutlierRemovalINS_14PointWithScaleEE23setMinNeighborsInRadiusEi@Base 1.6
 (optional=templinst)_ZN3pcl20RadiusOutlierRemovalINS_14PointWithScaleEEC1Eb@Base 1.6
 (optional=templinst)_ZN3pcl20RadiusOutlierRemovalINS_14PointWithScaleEEC2Eb@Base 1.6
 (optional=templinst)_ZN3pcl20RadiusOutlierRemovalINS_14PointWithScaleEED0Ev@Base 1.6
 (optional=templinst)_ZN3pcl20RadiusOutlierRemovalINS_14PointWithScaleEED1Ev@Base 1.6
 (optional=templinst)_ZN3pcl20RadiusOutlierRemovalINS_14PointWithScaleEED2Ev@Base 1.6
 (optional=templinst)_ZN3pcl20RadiusOutlierRemovalINS_15PointXYZINormalEE11applyFilterERNS_10PointCloudIS1_EE@Base 1.6
 (optional=templinst)_ZN3pcl20RadiusOutlierRemovalINS_15PointXYZINormalEE11applyFilterERSt6vectorIiSaIiEE@Base 1.6
 (optional=templinst)_ZN3pcl20RadiusOutlierRemovalINS_15PointXYZINormalEE15getRadiusSearchEv@Base 1.6
 (optional=templinst)_ZN3pcl20RadiusOutlierRemovalINS_15PointXYZINormalEE15setRadiusSearchEd@Base 1.6
 (optional=templinst)_ZN3pcl20RadiusOutlierRemovalINS_15PointXYZINormalEE18applyFilterIndicesERSt6vectorIiSaIiEE@Base 1.6
 (optional=templinst)_ZN3pcl20RadiusOutlierRemovalINS_15PointXYZINormalEE23getMinNeighborsInRadiusEv@Base 1.6
 (optional=templinst)_ZN3pcl20RadiusOutlierRemovalINS_15PointXYZINormalEE23setMinNeighborsInRadiusEi@Base 1.6
 (optional=templinst)_ZN3pcl20RadiusOutlierRemovalINS_15PointXYZINormalEEC1Eb@Base 1.6
 (optional=templinst)_ZN3pcl20RadiusOutlierRemovalINS_15PointXYZINormalEEC2Eb@Base 1.6
 (optional=templinst)_ZN3pcl20RadiusOutlierRemovalINS_15PointXYZINormalEED0Ev@Base 1.6
 (optional=templinst)_ZN3pcl20RadiusOutlierRemovalINS_15PointXYZINormalEED1Ev@Base 1.6
 (optional=templinst)_ZN3pcl20RadiusOutlierRemovalINS_15PointXYZINormalEED2Ev@Base 1.6
 (optional=templinst)_ZN3pcl20RadiusOutlierRemovalINS_17PointXYZRGBNormalEE11applyFilterERNS_10PointCloudIS1_EE@Base 1.6
 (optional=templinst)_ZN3pcl20RadiusOutlierRemovalINS_17PointXYZRGBNormalEE11applyFilterERSt6vectorIiSaIiEE@Base 1.6
 (optional=templinst)_ZN3pcl20RadiusOutlierRemovalINS_17PointXYZRGBNormalEE15getRadiusSearchEv@Base 1.6
 (optional=templinst)_ZN3pcl20RadiusOutlierRemovalINS_17PointXYZRGBNormalEE15setRadiusSearchEd@Base 1.6
 (optional=templinst)_ZN3pcl20RadiusOutlierRemovalINS_17PointXYZRGBNormalEE18applyFilterIndicesERSt6vectorIiSaIiEE@Base 1.6
 (optional=templinst)_ZN3pcl20RadiusOutlierRemovalINS_17PointXYZRGBNormalEE23getMinNeighborsInRadiusEv@Base 1.6
 (optional=templinst)_ZN3pcl20RadiusOutlierRemovalINS_17PointXYZRGBNormalEE23setMinNeighborsInRadiusEi@Base 1.6
 (optional=templinst)_ZN3pcl20RadiusOutlierRemovalINS_17PointXYZRGBNormalEEC1Eb@Base 1.6
 (optional=templinst)_ZN3pcl20RadiusOutlierRemovalINS_17PointXYZRGBNormalEEC2Eb@Base 1.6
 (optional=templinst)_ZN3pcl20RadiusOutlierRemovalINS_17PointXYZRGBNormalEED0Ev@Base 1.6
 (optional=templinst)_ZN3pcl20RadiusOutlierRemovalINS_17PointXYZRGBNormalEED1Ev@Base 1.6
 (optional=templinst)_ZN3pcl20RadiusOutlierRemovalINS_17PointXYZRGBNormalEED2Ev@Base 1.6
 (optional=templinst)_ZN3pcl20RadiusOutlierRemovalINS_18PointWithViewpointEE11applyFilterERNS_10PointCloudIS1_EE@Base 1.6
 (optional=templinst)_ZN3pcl20RadiusOutlierRemovalINS_18PointWithViewpointEE11applyFilterERSt6vectorIiSaIiEE@Base 1.6
 (optional=templinst)_ZN3pcl20RadiusOutlierRemovalINS_18PointWithViewpointEE15getRadiusSearchEv@Base 1.6
 (optional=templinst)_ZN3pcl20RadiusOutlierRemovalINS_18PointWithViewpointEE15setRadiusSearchEd@Base 1.6
 (optional=templinst)_ZN3pcl20RadiusOutlierRemovalINS_18PointWithViewpointEE18applyFilterIndicesERSt6vectorIiSaIiEE@Base 1.6
 (optional=templinst)_ZN3pcl20RadiusOutlierRemovalINS_18PointWithViewpointEE23getMinNeighborsInRadiusEv@Base 1.6
 (optional=templinst)_ZN3pcl20RadiusOutlierRemovalINS_18PointWithViewpointEE23setMinNeighborsInRadiusEi@Base 1.6
 (optional=templinst)_ZN3pcl20RadiusOutlierRemovalINS_18PointWithViewpointEEC1Eb@Base 1.6
 (optional=templinst)_ZN3pcl20RadiusOutlierRemovalINS_18PointWithViewpointEEC2Eb@Base 1.6
 (optional=templinst)_ZN3pcl20RadiusOutlierRemovalINS_18PointWithViewpointEED0Ev@Base 1.6
 (optional=templinst)_ZN3pcl20RadiusOutlierRemovalINS_18PointWithViewpointEED1Ev@Base 1.6
 (optional=templinst)_ZN3pcl20RadiusOutlierRemovalINS_18PointWithViewpointEED2Ev@Base 1.6
 (optional=templinst)_ZN3pcl20RadiusOutlierRemovalINS_8PointXYZEE11applyFilterERNS_10PointCloudIS1_EE@Base 1.6
 (optional=templinst)_ZN3pcl20RadiusOutlierRemovalINS_8PointXYZEE11applyFilterERSt6vectorIiSaIiEE@Base 1.6
 (optional=templinst)_ZN3pcl20RadiusOutlierRemovalINS_8PointXYZEE15getRadiusSearchEv@Base 1.6
 (optional=templinst)_ZN3pcl20RadiusOutlierRemovalINS_8PointXYZEE15setRadiusSearchEd@Base 1.6
 (optional=templinst)_ZN3pcl20RadiusOutlierRemovalINS_8PointXYZEE18applyFilterIndicesERSt6vectorIiSaIiEE@Base 1.6
 (optional=templinst)_ZN3pcl20RadiusOutlierRemovalINS_8PointXYZEE23getMinNeighborsInRadiusEv@Base 1.6
 (optional=templinst)_ZN3pcl20RadiusOutlierRemovalINS_8PointXYZEE23setMinNeighborsInRadiusEi@Base 1.6
 (optional=templinst)_ZN3pcl20RadiusOutlierRemovalINS_8PointXYZEEC1Eb@Base 1.6
 (optional=templinst)_ZN3pcl20RadiusOutlierRemovalINS_8PointXYZEEC2Eb@Base 1.6
 (optional=templinst)_ZN3pcl20RadiusOutlierRemovalINS_8PointXYZEED0Ev@Base 1.6
 (optional=templinst)_ZN3pcl20RadiusOutlierRemovalINS_8PointXYZEED1Ev@Base 1.6
 (optional=templinst)_ZN3pcl20RadiusOutlierRemovalINS_8PointXYZEED2Ev@Base 1.6
 (optional=templinst)_ZN3pcl20RadiusOutlierRemovalINS_9PointXYZIEE11applyFilterERNS_10PointCloudIS1_EE@Base 1.6
 (optional=templinst)_ZN3pcl20RadiusOutlierRemovalINS_9PointXYZIEE11applyFilterERSt6vectorIiSaIiEE@Base 1.6
 (optional=templinst)_ZN3pcl20RadiusOutlierRemovalINS_9PointXYZIEE15getRadiusSearchEv@Base 1.6
 (optional=templinst)_ZN3pcl20RadiusOutlierRemovalINS_9PointXYZIEE15setRadiusSearchEd@Base 1.6
 (optional=templinst)_ZN3pcl20RadiusOutlierRemovalINS_9PointXYZIEE18applyFilterIndicesERSt6vectorIiSaIiEE@Base 1.6
 (optional=templinst)_ZN3pcl20RadiusOutlierRemovalINS_9PointXYZIEE23getMinNeighborsInRadiusEv@Base 1.6
 (optional=templinst)_ZN3pcl20RadiusOutlierRemovalINS_9PointXYZIEE23setMinNeighborsInRadiusEi@Base 1.6
 (optional=templinst)_ZN3pcl20RadiusOutlierRemovalINS_9PointXYZIEEC1Eb@Base 1.6
 (optional=templinst)_ZN3pcl20RadiusOutlierRemovalINS_9PointXYZIEEC2Eb@Base 1.6
 (optional=templinst)_ZN3pcl20RadiusOutlierRemovalINS_9PointXYZIEED0Ev@Base 1.6
 (optional=templinst)_ZN3pcl20RadiusOutlierRemovalINS_9PointXYZIEED1Ev@Base 1.6
 (optional=templinst)_ZN3pcl20RadiusOutlierRemovalINS_9PointXYZIEED2Ev@Base 1.6
 (optional=templinst)_ZN3pcl20RadiusOutlierRemovalINS_9PointXYZLEE11applyFilterERNS_10PointCloudIS1_EE@Base 1.6
 (optional=templinst)_ZN3pcl20RadiusOutlierRemovalINS_9PointXYZLEE11applyFilterERSt6vectorIiSaIiEE@Base 1.6
 (optional=templinst)_ZN3pcl20RadiusOutlierRemovalINS_9PointXYZLEE15getRadiusSearchEv@Base 1.6
 (optional=templinst)_ZN3pcl20RadiusOutlierRemovalINS_9PointXYZLEE15setRadiusSearchEd@Base 1.6
 (optional=templinst)_ZN3pcl20RadiusOutlierRemovalINS_9PointXYZLEE18applyFilterIndicesERSt6vectorIiSaIiEE@Base 1.6
 (optional=templinst)_ZN3pcl20RadiusOutlierRemovalINS_9PointXYZLEE23getMinNeighborsInRadiusEv@Base 1.6
 (optional=templinst)_ZN3pcl20RadiusOutlierRemovalINS_9PointXYZLEE23setMinNeighborsInRadiusEi@Base 1.6
 (optional=templinst)_ZN3pcl20RadiusOutlierRemovalINS_9PointXYZLEEC1Eb@Base 1.6
 (optional=templinst)_ZN3pcl20RadiusOutlierRemovalINS_9PointXYZLEEC2Eb@Base 1.6
 (optional=templinst)_ZN3pcl20RadiusOutlierRemovalINS_9PointXYZLEED0Ev@Base 1.6
 (optional=templinst)_ZN3pcl20RadiusOutlierRemovalINS_9PointXYZLEED1Ev@Base 1.6
 (optional=templinst)_ZN3pcl20RadiusOutlierRemovalINS_9PointXYZLEED2Ev@Base 1.6
 (optional=templinst)_ZN3pcl20SampleConsensusModelINS_11PointNormalEE13setInputCloudERKN5boost10shared_ptrIKNS_10PointCloudIS1_EEEE@Base 1.6
 (optional=templinst)_ZN3pcl20SampleConsensusModelINS_11PointNormalEEC1ERKN5boost10shared_ptrIKNS_10PointCloudIS1_EEEEb@Base 1.6
 (optional=templinst)_ZN3pcl20SampleConsensusModelINS_11PointNormalEEC2ERKN5boost10shared_ptrIKNS_10PointCloudIS1_EEEEb@Base 1.6
 (optional=templinst)_ZN3pcl20SampleConsensusModelINS_11PointNormalEED0Ev@Base 1.6
 (optional=templinst)_ZN3pcl20SampleConsensusModelINS_11PointNormalEED1Ev@Base 1.6
 (optional=templinst)_ZN3pcl20SampleConsensusModelINS_11PointNormalEED2Ev@Base 1.6
 (optional=templinst)_ZN3pcl20SampleConsensusModelINS_11PointXYZHSVEE13setInputCloudERKN5boost10shared_ptrIKNS_10PointCloudIS1_EEEE@Base 1.6
 (optional=templinst)_ZN3pcl20SampleConsensusModelINS_11PointXYZHSVEEC1ERKN5boost10shared_ptrIKNS_10PointCloudIS1_EEEEb@Base 1.6
 (optional=templinst)_ZN3pcl20SampleConsensusModelINS_11PointXYZHSVEEC2ERKN5boost10shared_ptrIKNS_10PointCloudIS1_EEEEb@Base 1.6
 (optional=templinst)_ZN3pcl20SampleConsensusModelINS_11PointXYZHSVEED0Ev@Base 1.6
 (optional=templinst)_ZN3pcl20SampleConsensusModelINS_11PointXYZHSVEED1Ev@Base 1.6
 (optional=templinst)_ZN3pcl20SampleConsensusModelINS_11PointXYZHSVEED2Ev@Base 1.6
 (optional=templinst)_ZN3pcl20SampleConsensusModelINS_11PointXYZRGBEE13setInputCloudERKN5boost10shared_ptrIKNS_10PointCloudIS1_EEEE@Base 1.6
 (optional=templinst)_ZN3pcl20SampleConsensusModelINS_11PointXYZRGBEEC1ERKN5boost10shared_ptrIKNS_10PointCloudIS1_EEEEb@Base 1.6
 (optional=templinst)_ZN3pcl20SampleConsensusModelINS_11PointXYZRGBEEC2ERKN5boost10shared_ptrIKNS_10PointCloudIS1_EEEEb@Base 1.6
 (optional=templinst)_ZN3pcl20SampleConsensusModelINS_11PointXYZRGBEED0Ev@Base 1.6
 (optional=templinst)_ZN3pcl20SampleConsensusModelINS_11PointXYZRGBEED1Ev@Base 1.6
 (optional=templinst)_ZN3pcl20SampleConsensusModelINS_11PointXYZRGBEED2Ev@Base 1.6
 (optional=templinst)_ZN3pcl20SampleConsensusModelINS_12PointXYZRGBAEE13setInputCloudERKN5boost10shared_ptrIKNS_10PointCloudIS1_EEEE@Base 1.6
 (optional=templinst)_ZN3pcl20SampleConsensusModelINS_12PointXYZRGBAEEC1ERKN5boost10shared_ptrIKNS_10PointCloudIS1_EEEEb@Base 1.6
 (optional=templinst)_ZN3pcl20SampleConsensusModelINS_12PointXYZRGBAEEC2ERKN5boost10shared_ptrIKNS_10PointCloudIS1_EEEEb@Base 1.6
 (optional=templinst)_ZN3pcl20SampleConsensusModelINS_12PointXYZRGBAEED0Ev@Base 1.6
 (optional=templinst)_ZN3pcl20SampleConsensusModelINS_12PointXYZRGBAEED1Ev@Base 1.6
 (optional=templinst)_ZN3pcl20SampleConsensusModelINS_12PointXYZRGBAEED2Ev@Base 1.6
 (optional=templinst)_ZN3pcl20SampleConsensusModelINS_12PointXYZRGBLEE13setInputCloudERKN5boost10shared_ptrIKNS_10PointCloudIS1_EEEE@Base 1.6
 (optional=templinst)_ZN3pcl20SampleConsensusModelINS_12PointXYZRGBLEEC1ERKN5boost10shared_ptrIKNS_10PointCloudIS1_EEEEb@Base 1.6
 (optional=templinst)_ZN3pcl20SampleConsensusModelINS_12PointXYZRGBLEEC2ERKN5boost10shared_ptrIKNS_10PointCloudIS1_EEEEb@Base 1.6
 (optional=templinst)_ZN3pcl20SampleConsensusModelINS_12PointXYZRGBLEED0Ev@Base 1.6
 (optional=templinst)_ZN3pcl20SampleConsensusModelINS_12PointXYZRGBLEED1Ev@Base 1.6
 (optional=templinst)_ZN3pcl20SampleConsensusModelINS_12PointXYZRGBLEED2Ev@Base 1.6
 (optional=templinst)_ZN3pcl20SampleConsensusModelINS_13InterestPointEE13setInputCloudERKN5boost10shared_ptrIKNS_10PointCloudIS1_EEEE@Base 1.6
 (optional=templinst)_ZN3pcl20SampleConsensusModelINS_13InterestPointEEC1ERKN5boost10shared_ptrIKNS_10PointCloudIS1_EEEEb@Base 1.6
 (optional=templinst)_ZN3pcl20SampleConsensusModelINS_13InterestPointEEC2ERKN5boost10shared_ptrIKNS_10PointCloudIS1_EEEEb@Base 1.6
 (optional=templinst)_ZN3pcl20SampleConsensusModelINS_13InterestPointEED0Ev@Base 1.6
 (optional=templinst)_ZN3pcl20SampleConsensusModelINS_13InterestPointEED1Ev@Base 1.6
 (optional=templinst)_ZN3pcl20SampleConsensusModelINS_13InterestPointEED2Ev@Base 1.6
 (optional=templinst)_ZN3pcl20SampleConsensusModelINS_14PointWithRangeEE13setInputCloudERKN5boost10shared_ptrIKNS_10PointCloudIS1_EEEE@Base 1.6
 (optional=templinst)_ZN3pcl20SampleConsensusModelINS_14PointWithRangeEEC1ERKN5boost10shared_ptrIKNS_10PointCloudIS1_EEEEb@Base 1.6
 (optional=templinst)_ZN3pcl20SampleConsensusModelINS_14PointWithRangeEEC2ERKN5boost10shared_ptrIKNS_10PointCloudIS1_EEEEb@Base 1.6
 (optional=templinst)_ZN3pcl20SampleConsensusModelINS_14PointWithRangeEED0Ev@Base 1.6
 (optional=templinst)_ZN3pcl20SampleConsensusModelINS_14PointWithRangeEED1Ev@Base 1.6
 (optional=templinst)_ZN3pcl20SampleConsensusModelINS_14PointWithRangeEED2Ev@Base 1.6
 (optional=templinst)_ZN3pcl20SampleConsensusModelINS_14PointWithScaleEE13setInputCloudERKN5boost10shared_ptrIKNS_10PointCloudIS1_EEEE@Base 1.6
 (optional=templinst)_ZN3pcl20SampleConsensusModelINS_14PointWithScaleEEC1ERKN5boost10shared_ptrIKNS_10PointCloudIS1_EEEEb@Base 1.6
 (optional=templinst)_ZN3pcl20SampleConsensusModelINS_14PointWithScaleEEC2ERKN5boost10shared_ptrIKNS_10PointCloudIS1_EEEEb@Base 1.6
 (optional=templinst)_ZN3pcl20SampleConsensusModelINS_14PointWithScaleEED0Ev@Base 1.6
 (optional=templinst)_ZN3pcl20SampleConsensusModelINS_14PointWithScaleEED1Ev@Base 1.6
 (optional=templinst)_ZN3pcl20SampleConsensusModelINS_14PointWithScaleEED2Ev@Base 1.6
 (optional=templinst)_ZN3pcl20SampleConsensusModelINS_15PointXYZINormalEE13setInputCloudERKN5boost10shared_ptrIKNS_10PointCloudIS1_EEEE@Base 1.6
 (optional=templinst)_ZN3pcl20SampleConsensusModelINS_15PointXYZINormalEEC1ERKN5boost10shared_ptrIKNS_10PointCloudIS1_EEEEb@Base 1.6
 (optional=templinst)_ZN3pcl20SampleConsensusModelINS_15PointXYZINormalEEC2ERKN5boost10shared_ptrIKNS_10PointCloudIS1_EEEEb@Base 1.6
 (optional=templinst)_ZN3pcl20SampleConsensusModelINS_15PointXYZINormalEED0Ev@Base 1.6
 (optional=templinst)_ZN3pcl20SampleConsensusModelINS_15PointXYZINormalEED1Ev@Base 1.6
 (optional=templinst)_ZN3pcl20SampleConsensusModelINS_15PointXYZINormalEED2Ev@Base 1.6
 (optional=templinst)_ZN3pcl20SampleConsensusModelINS_17PointXYZRGBNormalEE13setInputCloudERKN5boost10shared_ptrIKNS_10PointCloudIS1_EEEE@Base 1.6
 (optional=templinst)_ZN3pcl20SampleConsensusModelINS_17PointXYZRGBNormalEEC1ERKN5boost10shared_ptrIKNS_10PointCloudIS1_EEEEb@Base 1.6
 (optional=templinst)_ZN3pcl20SampleConsensusModelINS_17PointXYZRGBNormalEEC2ERKN5boost10shared_ptrIKNS_10PointCloudIS1_EEEEb@Base 1.6
 (optional=templinst)_ZN3pcl20SampleConsensusModelINS_17PointXYZRGBNormalEED0Ev@Base 1.6
 (optional=templinst)_ZN3pcl20SampleConsensusModelINS_17PointXYZRGBNormalEED1Ev@Base 1.6
 (optional=templinst)_ZN3pcl20SampleConsensusModelINS_17PointXYZRGBNormalEED2Ev@Base 1.6
 (optional=templinst)_ZN3pcl20SampleConsensusModelINS_18PointWithViewpointEE13setInputCloudERKN5boost10shared_ptrIKNS_10PointCloudIS1_EEEE@Base 1.6
 (optional=templinst)_ZN3pcl20SampleConsensusModelINS_18PointWithViewpointEEC1ERKN5boost10shared_ptrIKNS_10PointCloudIS1_EEEEb@Base 1.6
 (optional=templinst)_ZN3pcl20SampleConsensusModelINS_18PointWithViewpointEEC2ERKN5boost10shared_ptrIKNS_10PointCloudIS1_EEEEb@Base 1.6
 (optional=templinst)_ZN3pcl20SampleConsensusModelINS_18PointWithViewpointEED0Ev@Base 1.6
 (optional=templinst)_ZN3pcl20SampleConsensusModelINS_18PointWithViewpointEED1Ev@Base 1.6
 (optional=templinst)_ZN3pcl20SampleConsensusModelINS_18PointWithViewpointEED2Ev@Base 1.6
 (optional=templinst)_ZN3pcl20SampleConsensusModelINS_8PointXYZEE13setInputCloudERKN5boost10shared_ptrIKNS_10PointCloudIS1_EEEE@Base 1.6
 (optional=templinst)_ZN3pcl20SampleConsensusModelINS_8PointXYZEEC1ERKN5boost10shared_ptrIKNS_10PointCloudIS1_EEEEb@Base 1.6
 (optional=templinst)_ZN3pcl20SampleConsensusModelINS_8PointXYZEEC2ERKN5boost10shared_ptrIKNS_10PointCloudIS1_EEEEb@Base 1.6
 (optional=templinst)_ZN3pcl20SampleConsensusModelINS_8PointXYZEED0Ev@Base 1.6
 (optional=templinst)_ZN3pcl20SampleConsensusModelINS_8PointXYZEED1Ev@Base 1.6
 (optional=templinst)_ZN3pcl20SampleConsensusModelINS_8PointXYZEED2Ev@Base 1.6
 (optional=templinst)_ZN3pcl20SampleConsensusModelINS_9PointXYZIEE13setInputCloudERKN5boost10shared_ptrIKNS_10PointCloudIS1_EEEE@Base 1.6
 (optional=templinst)_ZN3pcl20SampleConsensusModelINS_9PointXYZIEEC1ERKN5boost10shared_ptrIKNS_10PointCloudIS1_EEEEb@Base 1.6
 (optional=templinst)_ZN3pcl20SampleConsensusModelINS_9PointXYZIEEC2ERKN5boost10shared_ptrIKNS_10PointCloudIS1_EEEEb@Base 1.6
 (optional=templinst)_ZN3pcl20SampleConsensusModelINS_9PointXYZIEED0Ev@Base 1.6
 (optional=templinst)_ZN3pcl20SampleConsensusModelINS_9PointXYZIEED1Ev@Base 1.6
 (optional=templinst)_ZN3pcl20SampleConsensusModelINS_9PointXYZIEED2Ev@Base 1.6
 (optional=templinst)_ZN3pcl20SampleConsensusModelINS_9PointXYZLEE13setInputCloudERKN5boost10shared_ptrIKNS_10PointCloudIS1_EEEE@Base 1.6
 (optional=templinst)_ZN3pcl20SampleConsensusModelINS_9PointXYZLEEC1ERKN5boost10shared_ptrIKNS_10PointCloudIS1_EEEEb@Base 1.6
 (optional=templinst)_ZN3pcl20SampleConsensusModelINS_9PointXYZLEEC2ERKN5boost10shared_ptrIKNS_10PointCloudIS1_EEEEb@Base 1.6
 (optional=templinst)_ZN3pcl20SampleConsensusModelINS_9PointXYZLEED0Ev@Base 1.6
 (optional=templinst)_ZN3pcl20SampleConsensusModelINS_9PointXYZLEED1Ev@Base 1.6
 (optional=templinst)_ZN3pcl20SampleConsensusModelINS_9PointXYZLEED2Ev@Base 1.6
 (optional=templinst)_ZN3pcl23removeNaNFromPointCloudINS_11PointNormalEEEvRKNS_10PointCloudIT_EERS4_RSt6vectorIiSaIiEE@Base 1.6
 (optional=templinst)_ZN3pcl23removeNaNFromPointCloudINS_11PointNormalEEEvRKNS_10PointCloudIT_EERSt6vectorIiSaIiEE@Base 1.6
 (optional=templinst)_ZN3pcl23removeNaNFromPointCloudINS_11PointXYZHSVEEEvRKNS_10PointCloudIT_EERS4_RSt6vectorIiSaIiEE@Base 1.6
 (optional=templinst)_ZN3pcl23removeNaNFromPointCloudINS_11PointXYZHSVEEEvRKNS_10PointCloudIT_EERSt6vectorIiSaIiEE@Base 1.6
 (optional=templinst)_ZN3pcl23removeNaNFromPointCloudINS_11PointXYZRGBEEEvRKNS_10PointCloudIT_EERS4_RSt6vectorIiSaIiEE@Base 1.6
 (optional=templinst)_ZN3pcl23removeNaNFromPointCloudINS_11PointXYZRGBEEEvRKNS_10PointCloudIT_EERSt6vectorIiSaIiEE@Base 1.6
 (optional=templinst)_ZN3pcl23removeNaNFromPointCloudINS_12PointXYZRGBAEEEvRKNS_10PointCloudIT_EERS4_RSt6vectorIiSaIiEE@Base 1.6
 (optional=templinst)_ZN3pcl23removeNaNFromPointCloudINS_12PointXYZRGBAEEEvRKNS_10PointCloudIT_EERSt6vectorIiSaIiEE@Base 1.6
 (optional=templinst)_ZN3pcl23removeNaNFromPointCloudINS_12PointXYZRGBLEEEvRKNS_10PointCloudIT_EERS4_RSt6vectorIiSaIiEE@Base 1.6
 (optional=templinst)_ZN3pcl23removeNaNFromPointCloudINS_12PointXYZRGBLEEEvRKNS_10PointCloudIT_EERSt6vectorIiSaIiEE@Base 1.6
 (optional=templinst)_ZN3pcl23removeNaNFromPointCloudINS_13InterestPointEEEvRKNS_10PointCloudIT_EERS4_RSt6vectorIiSaIiEE@Base 1.6
 (optional=templinst)_ZN3pcl23removeNaNFromPointCloudINS_13InterestPointEEEvRKNS_10PointCloudIT_EERSt6vectorIiSaIiEE@Base 1.6
 (optional=templinst)_ZN3pcl23removeNaNFromPointCloudINS_14PointWithRangeEEEvRKNS_10PointCloudIT_EERS4_RSt6vectorIiSaIiEE@Base 1.6
 (optional=templinst)_ZN3pcl23removeNaNFromPointCloudINS_14PointWithRangeEEEvRKNS_10PointCloudIT_EERSt6vectorIiSaIiEE@Base 1.6
 (optional=templinst)_ZN3pcl23removeNaNFromPointCloudINS_14PointWithScaleEEEvRKNS_10PointCloudIT_EERS4_RSt6vectorIiSaIiEE@Base 1.6
 (optional=templinst)_ZN3pcl23removeNaNFromPointCloudINS_14PointWithScaleEEEvRKNS_10PointCloudIT_EERSt6vectorIiSaIiEE@Base 1.6
 (optional=templinst)_ZN3pcl23removeNaNFromPointCloudINS_15PointXYZINormalEEEvRKNS_10PointCloudIT_EERS4_RSt6vectorIiSaIiEE@Base 1.6
 (optional=templinst)_ZN3pcl23removeNaNFromPointCloudINS_15PointXYZINormalEEEvRKNS_10PointCloudIT_EERSt6vectorIiSaIiEE@Base 1.6
 (optional=templinst)_ZN3pcl23removeNaNFromPointCloudINS_17PointXYZRGBNormalEEEvRKNS_10PointCloudIT_EERS4_RSt6vectorIiSaIiEE@Base 1.6
 (optional=templinst)_ZN3pcl23removeNaNFromPointCloudINS_17PointXYZRGBNormalEEEvRKNS_10PointCloudIT_EERSt6vectorIiSaIiEE@Base 1.6
 (optional=templinst)_ZN3pcl23removeNaNFromPointCloudINS_18PointWithViewpointEEEvRKNS_10PointCloudIT_EERS4_RSt6vectorIiSaIiEE@Base 1.6
 (optional=templinst)_ZN3pcl23removeNaNFromPointCloudINS_18PointWithViewpointEEEvRKNS_10PointCloudIT_EERSt6vectorIiSaIiEE@Base 1.6
 (optional=templinst)_ZN3pcl23removeNaNFromPointCloudINS_8PointXYZEEEvRKNS_10PointCloudIT_EERS4_RSt6vectorIiSaIiEE@Base 1.6
 (optional=templinst)_ZN3pcl23removeNaNFromPointCloudINS_8PointXYZEEEvRKNS_10PointCloudIT_EERSt6vectorIiSaIiEE@Base 1.6
 (optional=templinst)_ZN3pcl23removeNaNFromPointCloudINS_9PointXYZIEEEvRKNS_10PointCloudIT_EERS4_RSt6vectorIiSaIiEE@Base 1.6
 (optional=templinst)_ZN3pcl23removeNaNFromPointCloudINS_9PointXYZIEEEvRKNS_10PointCloudIT_EERSt6vectorIiSaIiEE@Base 1.6
 (optional=templinst)_ZN3pcl23removeNaNFromPointCloudINS_9PointXYZLEEEvRKNS_10PointCloudIT_EERS4_RSt6vectorIiSaIiEE@Base 1.6
 (optional=templinst)_ZN3pcl23removeNaNFromPointCloudINS_9PointXYZLEEEvRKNS_10PointCloudIT_EERSt6vectorIiSaIiEE@Base 1.6
 (optional=templinst)_ZN3pcl24SampleConsensusModelConeINS_11PointNormalENS_6NormalEEC1ERKN5boost10shared_ptrIKNS_10PointCloudIS1_EEEE@Base 1.6
 (optional=templinst)_ZN3pcl24SampleConsensusModelConeINS_11PointNormalENS_6NormalEEC2ERKN5boost10shared_ptrIKNS_10PointCloudIS1_EEEE@Base 1.6
 (optional=templinst)_ZN3pcl24SampleConsensusModelConeINS_11PointNormalENS_6NormalEED0Ev@Base 1.6
 (optional=templinst)_ZN3pcl24SampleConsensusModelConeINS_11PointNormalENS_6NormalEED1Ev@Base 1.6
 (optional=templinst)_ZN3pcl24SampleConsensusModelConeINS_11PointNormalENS_6NormalEED2Ev@Base 1.6
 (optional=templinst)_ZN3pcl24SampleConsensusModelConeINS_11PointXYZHSVENS_6NormalEEC1ERKN5boost10shared_ptrIKNS_10PointCloudIS1_EEEE@Base 1.6
 (optional=templinst)_ZN3pcl24SampleConsensusModelConeINS_11PointXYZHSVENS_6NormalEEC2ERKN5boost10shared_ptrIKNS_10PointCloudIS1_EEEE@Base 1.6
 (optional=templinst)_ZN3pcl24SampleConsensusModelConeINS_11PointXYZHSVENS_6NormalEED0Ev@Base 1.6
 (optional=templinst)_ZN3pcl24SampleConsensusModelConeINS_11PointXYZHSVENS_6NormalEED1Ev@Base 1.6
 (optional=templinst)_ZN3pcl24SampleConsensusModelConeINS_11PointXYZHSVENS_6NormalEED2Ev@Base 1.6
 (optional=templinst)_ZN3pcl24SampleConsensusModelConeINS_11PointXYZRGBENS_6NormalEEC1ERKN5boost10shared_ptrIKNS_10PointCloudIS1_EEEE@Base 1.6
 (optional=templinst)_ZN3pcl24SampleConsensusModelConeINS_11PointXYZRGBENS_6NormalEEC2ERKN5boost10shared_ptrIKNS_10PointCloudIS1_EEEE@Base 1.6
 (optional=templinst)_ZN3pcl24SampleConsensusModelConeINS_11PointXYZRGBENS_6NormalEED0Ev@Base 1.6
 (optional=templinst)_ZN3pcl24SampleConsensusModelConeINS_11PointXYZRGBENS_6NormalEED1Ev@Base 1.6
 (optional=templinst)_ZN3pcl24SampleConsensusModelConeINS_11PointXYZRGBENS_6NormalEED2Ev@Base 1.6
 (optional=templinst)_ZN3pcl24SampleConsensusModelConeINS_12PointXYZRGBAENS_6NormalEEC1ERKN5boost10shared_ptrIKNS_10PointCloudIS1_EEEE@Base 1.6
 (optional=templinst)_ZN3pcl24SampleConsensusModelConeINS_12PointXYZRGBAENS_6NormalEEC2ERKN5boost10shared_ptrIKNS_10PointCloudIS1_EEEE@Base 1.6
 (optional=templinst)_ZN3pcl24SampleConsensusModelConeINS_12PointXYZRGBAENS_6NormalEED0Ev@Base 1.6
 (optional=templinst)_ZN3pcl24SampleConsensusModelConeINS_12PointXYZRGBAENS_6NormalEED1Ev@Base 1.6
 (optional=templinst)_ZN3pcl24SampleConsensusModelConeINS_12PointXYZRGBAENS_6NormalEED2Ev@Base 1.6
 (optional=templinst)_ZN3pcl24SampleConsensusModelConeINS_12PointXYZRGBLENS_6NormalEEC1ERKN5boost10shared_ptrIKNS_10PointCloudIS1_EEEE@Base 1.6
 (optional=templinst)_ZN3pcl24SampleConsensusModelConeINS_12PointXYZRGBLENS_6NormalEEC2ERKN5boost10shared_ptrIKNS_10PointCloudIS1_EEEE@Base 1.6
 (optional=templinst)_ZN3pcl24SampleConsensusModelConeINS_12PointXYZRGBLENS_6NormalEED0Ev@Base 1.6
 (optional=templinst)_ZN3pcl24SampleConsensusModelConeINS_12PointXYZRGBLENS_6NormalEED1Ev@Base 1.6
 (optional=templinst)_ZN3pcl24SampleConsensusModelConeINS_12PointXYZRGBLENS_6NormalEED2Ev@Base 1.6
 (optional=templinst)_ZN3pcl24SampleConsensusModelConeINS_13InterestPointENS_6NormalEEC1ERKN5boost10shared_ptrIKNS_10PointCloudIS1_EEEE@Base 1.6
 (optional=templinst)_ZN3pcl24SampleConsensusModelConeINS_13InterestPointENS_6NormalEEC2ERKN5boost10shared_ptrIKNS_10PointCloudIS1_EEEE@Base 1.6
 (optional=templinst)_ZN3pcl24SampleConsensusModelConeINS_13InterestPointENS_6NormalEED0Ev@Base 1.6
 (optional=templinst)_ZN3pcl24SampleConsensusModelConeINS_13InterestPointENS_6NormalEED1Ev@Base 1.6
 (optional=templinst)_ZN3pcl24SampleConsensusModelConeINS_13InterestPointENS_6NormalEED2Ev@Base 1.6
 (optional=templinst)_ZN3pcl24SampleConsensusModelConeINS_14PointWithRangeENS_6NormalEEC1ERKN5boost10shared_ptrIKNS_10PointCloudIS1_EEEE@Base 1.6
 (optional=templinst)_ZN3pcl24SampleConsensusModelConeINS_14PointWithRangeENS_6NormalEEC2ERKN5boost10shared_ptrIKNS_10PointCloudIS1_EEEE@Base 1.6
 (optional=templinst)_ZN3pcl24SampleConsensusModelConeINS_14PointWithRangeENS_6NormalEED0Ev@Base 1.6
 (optional=templinst)_ZN3pcl24SampleConsensusModelConeINS_14PointWithRangeENS_6NormalEED1Ev@Base 1.6
 (optional=templinst)_ZN3pcl24SampleConsensusModelConeINS_14PointWithRangeENS_6NormalEED2Ev@Base 1.6
 (optional=templinst)_ZN3pcl24SampleConsensusModelConeINS_14PointWithScaleENS_6NormalEEC1ERKN5boost10shared_ptrIKNS_10PointCloudIS1_EEEE@Base 1.6
 (optional=templinst)_ZN3pcl24SampleConsensusModelConeINS_14PointWithScaleENS_6NormalEEC2ERKN5boost10shared_ptrIKNS_10PointCloudIS1_EEEE@Base 1.6
 (optional=templinst)_ZN3pcl24SampleConsensusModelConeINS_14PointWithScaleENS_6NormalEED0Ev@Base 1.6
 (optional=templinst)_ZN3pcl24SampleConsensusModelConeINS_14PointWithScaleENS_6NormalEED1Ev@Base 1.6
 (optional=templinst)_ZN3pcl24SampleConsensusModelConeINS_14PointWithScaleENS_6NormalEED2Ev@Base 1.6
 (optional=templinst)_ZN3pcl24SampleConsensusModelConeINS_15PointXYZINormalENS_6NormalEEC1ERKN5boost10shared_ptrIKNS_10PointCloudIS1_EEEE@Base 1.6
 (optional=templinst)_ZN3pcl24SampleConsensusModelConeINS_15PointXYZINormalENS_6NormalEEC2ERKN5boost10shared_ptrIKNS_10PointCloudIS1_EEEE@Base 1.6
 (optional=templinst)_ZN3pcl24SampleConsensusModelConeINS_15PointXYZINormalENS_6NormalEED0Ev@Base 1.6
 (optional=templinst)_ZN3pcl24SampleConsensusModelConeINS_15PointXYZINormalENS_6NormalEED1Ev@Base 1.6
 (optional=templinst)_ZN3pcl24SampleConsensusModelConeINS_15PointXYZINormalENS_6NormalEED2Ev@Base 1.6
 (optional=templinst)_ZN3pcl24SampleConsensusModelConeINS_17PointXYZRGBNormalENS_6NormalEEC1ERKN5boost10shared_ptrIKNS_10PointCloudIS1_EEEE@Base 1.6
 (optional=templinst)_ZN3pcl24SampleConsensusModelConeINS_17PointXYZRGBNormalENS_6NormalEEC2ERKN5boost10shared_ptrIKNS_10PointCloudIS1_EEEE@Base 1.6
 (optional=templinst)_ZN3pcl24SampleConsensusModelConeINS_17PointXYZRGBNormalENS_6NormalEED0Ev@Base 1.6
 (optional=templinst)_ZN3pcl24SampleConsensusModelConeINS_17PointXYZRGBNormalENS_6NormalEED1Ev@Base 1.6
 (optional=templinst)_ZN3pcl24SampleConsensusModelConeINS_17PointXYZRGBNormalENS_6NormalEED2Ev@Base 1.6
 (optional=templinst)_ZN3pcl24SampleConsensusModelConeINS_18PointWithViewpointENS_6NormalEEC1ERKN5boost10shared_ptrIKNS_10PointCloudIS1_EEEE@Base 1.6
 (optional=templinst)_ZN3pcl24SampleConsensusModelConeINS_18PointWithViewpointENS_6NormalEEC2ERKN5boost10shared_ptrIKNS_10PointCloudIS1_EEEE@Base 1.6
 (optional=templinst)_ZN3pcl24SampleConsensusModelConeINS_18PointWithViewpointENS_6NormalEED0Ev@Base 1.6
 (optional=templinst)_ZN3pcl24SampleConsensusModelConeINS_18PointWithViewpointENS_6NormalEED1Ev@Base 1.6
 (optional=templinst)_ZN3pcl24SampleConsensusModelConeINS_18PointWithViewpointENS_6NormalEED2Ev@Base 1.6
 (optional=templinst)_ZN3pcl24SampleConsensusModelConeINS_8PointXYZENS_6NormalEEC1ERKN5boost10shared_ptrIKNS_10PointCloudIS1_EEEE@Base 1.6
 (optional=templinst)_ZN3pcl24SampleConsensusModelConeINS_8PointXYZENS_6NormalEEC2ERKN5boost10shared_ptrIKNS_10PointCloudIS1_EEEE@Base 1.6
 (optional=templinst)_ZN3pcl24SampleConsensusModelConeINS_8PointXYZENS_6NormalEED0Ev@Base 1.6
 (optional=templinst)_ZN3pcl24SampleConsensusModelConeINS_8PointXYZENS_6NormalEED1Ev@Base 1.6
 (optional=templinst)_ZN3pcl24SampleConsensusModelConeINS_8PointXYZENS_6NormalEED2Ev@Base 1.6
 (optional=templinst)_ZN3pcl24SampleConsensusModelConeINS_9PointXYZIENS_6NormalEEC1ERKN5boost10shared_ptrIKNS_10PointCloudIS1_EEEE@Base 1.6
 (optional=templinst)_ZN3pcl24SampleConsensusModelConeINS_9PointXYZIENS_6NormalEEC2ERKN5boost10shared_ptrIKNS_10PointCloudIS1_EEEE@Base 1.6
 (optional=templinst)_ZN3pcl24SampleConsensusModelConeINS_9PointXYZIENS_6NormalEED0Ev@Base 1.6
 (optional=templinst)_ZN3pcl24SampleConsensusModelConeINS_9PointXYZIENS_6NormalEED1Ev@Base 1.6
 (optional=templinst)_ZN3pcl24SampleConsensusModelConeINS_9PointXYZIENS_6NormalEED2Ev@Base 1.6
 (optional=templinst)_ZN3pcl24SampleConsensusModelConeINS_9PointXYZLENS_6NormalEEC1ERKN5boost10shared_ptrIKNS_10PointCloudIS1_EEEE@Base 1.6
 (optional=templinst)_ZN3pcl24SampleConsensusModelConeINS_9PointXYZLENS_6NormalEEC2ERKN5boost10shared_ptrIKNS_10PointCloudIS1_EEEE@Base 1.6
 (optional=templinst)_ZN3pcl24SampleConsensusModelConeINS_9PointXYZLENS_6NormalEED0Ev@Base 1.6
 (optional=templinst)_ZN3pcl24SampleConsensusModelConeINS_9PointXYZLENS_6NormalEED1Ev@Base 1.6
 (optional=templinst)_ZN3pcl24SampleConsensusModelConeINS_9PointXYZLENS_6NormalEED2Ev@Base 1.6
 (optional=templinst)_ZN3pcl24SampleConsensusModelLineINS_11PointNormalEE12isModelValidERKN5Eigen6MatrixIfLin1ELi1ELi0ELin1ELi1EEE@Base 1.6
 (optional=templinst)_ZN3pcl24SampleConsensusModelLineINS_11PointNormalEEC1ERKN5boost10shared_ptrIKNS_10PointCloudIS1_EEEE@Base 1.6
 (optional=templinst)_ZN3pcl24SampleConsensusModelLineINS_11PointNormalEEC2ERKN5boost10shared_ptrIKNS_10PointCloudIS1_EEEE@Base 1.6
 (optional=templinst)_ZN3pcl24SampleConsensusModelLineINS_11PointNormalEED0Ev@Base 1.6
 (optional=templinst)_ZN3pcl24SampleConsensusModelLineINS_11PointNormalEED1Ev@Base 1.6
 (optional=templinst)_ZN3pcl24SampleConsensusModelLineINS_11PointNormalEED2Ev@Base 1.6
 (optional=templinst)_ZN3pcl24SampleConsensusModelLineINS_11PointXYZHSVEE12isModelValidERKN5Eigen6MatrixIfLin1ELi1ELi0ELin1ELi1EEE@Base 1.6
 (optional=templinst)_ZN3pcl24SampleConsensusModelLineINS_11PointXYZHSVEEC1ERKN5boost10shared_ptrIKNS_10PointCloudIS1_EEEE@Base 1.6
 (optional=templinst)_ZN3pcl24SampleConsensusModelLineINS_11PointXYZHSVEEC2ERKN5boost10shared_ptrIKNS_10PointCloudIS1_EEEE@Base 1.6
 (optional=templinst)_ZN3pcl24SampleConsensusModelLineINS_11PointXYZHSVEED0Ev@Base 1.6
 (optional=templinst)_ZN3pcl24SampleConsensusModelLineINS_11PointXYZHSVEED1Ev@Base 1.6
 (optional=templinst)_ZN3pcl24SampleConsensusModelLineINS_11PointXYZHSVEED2Ev@Base 1.6
 (optional=templinst)_ZN3pcl24SampleConsensusModelLineINS_11PointXYZRGBEE12isModelValidERKN5Eigen6MatrixIfLin1ELi1ELi0ELin1ELi1EEE@Base 1.6
 (optional=templinst)_ZN3pcl24SampleConsensusModelLineINS_11PointXYZRGBEEC1ERKN5boost10shared_ptrIKNS_10PointCloudIS1_EEEE@Base 1.6
 (optional=templinst)_ZN3pcl24SampleConsensusModelLineINS_11PointXYZRGBEEC2ERKN5boost10shared_ptrIKNS_10PointCloudIS1_EEEE@Base 1.6
 (optional=templinst)_ZN3pcl24SampleConsensusModelLineINS_11PointXYZRGBEED0Ev@Base 1.6
 (optional=templinst)_ZN3pcl24SampleConsensusModelLineINS_11PointXYZRGBEED1Ev@Base 1.6
 (optional=templinst)_ZN3pcl24SampleConsensusModelLineINS_11PointXYZRGBEED2Ev@Base 1.6
 (optional=templinst)_ZN3pcl24SampleConsensusModelLineINS_12PointXYZRGBAEE12isModelValidERKN5Eigen6MatrixIfLin1ELi1ELi0ELin1ELi1EEE@Base 1.6
 (optional=templinst)_ZN3pcl24SampleConsensusModelLineINS_12PointXYZRGBAEEC1ERKN5boost10shared_ptrIKNS_10PointCloudIS1_EEEE@Base 1.6
 (optional=templinst)_ZN3pcl24SampleConsensusModelLineINS_12PointXYZRGBAEEC2ERKN5boost10shared_ptrIKNS_10PointCloudIS1_EEEE@Base 1.6
 (optional=templinst)_ZN3pcl24SampleConsensusModelLineINS_12PointXYZRGBAEED0Ev@Base 1.6
 (optional=templinst)_ZN3pcl24SampleConsensusModelLineINS_12PointXYZRGBAEED1Ev@Base 1.6
 (optional=templinst)_ZN3pcl24SampleConsensusModelLineINS_12PointXYZRGBAEED2Ev@Base 1.6
 (optional=templinst)_ZN3pcl24SampleConsensusModelLineINS_12PointXYZRGBLEE12isModelValidERKN5Eigen6MatrixIfLin1ELi1ELi0ELin1ELi1EEE@Base 1.6
 (optional=templinst)_ZN3pcl24SampleConsensusModelLineINS_12PointXYZRGBLEEC1ERKN5boost10shared_ptrIKNS_10PointCloudIS1_EEEE@Base 1.6
 (optional=templinst)_ZN3pcl24SampleConsensusModelLineINS_12PointXYZRGBLEEC2ERKN5boost10shared_ptrIKNS_10PointCloudIS1_EEEE@Base 1.6
 (optional=templinst)_ZN3pcl24SampleConsensusModelLineINS_12PointXYZRGBLEED0Ev@Base 1.6
 (optional=templinst)_ZN3pcl24SampleConsensusModelLineINS_12PointXYZRGBLEED1Ev@Base 1.6
 (optional=templinst)_ZN3pcl24SampleConsensusModelLineINS_12PointXYZRGBLEED2Ev@Base 1.6
 (optional=templinst)_ZN3pcl24SampleConsensusModelLineINS_13InterestPointEE12isModelValidERKN5Eigen6MatrixIfLin1ELi1ELi0ELin1ELi1EEE@Base 1.6
 (optional=templinst)_ZN3pcl24SampleConsensusModelLineINS_13InterestPointEEC1ERKN5boost10shared_ptrIKNS_10PointCloudIS1_EEEE@Base 1.6
 (optional=templinst)_ZN3pcl24SampleConsensusModelLineINS_13InterestPointEEC2ERKN5boost10shared_ptrIKNS_10PointCloudIS1_EEEE@Base 1.6
 (optional=templinst)_ZN3pcl24SampleConsensusModelLineINS_13InterestPointEED0Ev@Base 1.6
 (optional=templinst)_ZN3pcl24SampleConsensusModelLineINS_13InterestPointEED1Ev@Base 1.6
 (optional=templinst)_ZN3pcl24SampleConsensusModelLineINS_13InterestPointEED2Ev@Base 1.6
 (optional=templinst)_ZN3pcl24SampleConsensusModelLineINS_14PointWithRangeEE12isModelValidERKN5Eigen6MatrixIfLin1ELi1ELi0ELin1ELi1EEE@Base 1.6
 (optional=templinst)_ZN3pcl24SampleConsensusModelLineINS_14PointWithRangeEEC1ERKN5boost10shared_ptrIKNS_10PointCloudIS1_EEEE@Base 1.6
 (optional=templinst)_ZN3pcl24SampleConsensusModelLineINS_14PointWithRangeEEC2ERKN5boost10shared_ptrIKNS_10PointCloudIS1_EEEE@Base 1.6
 (optional=templinst)_ZN3pcl24SampleConsensusModelLineINS_14PointWithRangeEED0Ev@Base 1.6
 (optional=templinst)_ZN3pcl24SampleConsensusModelLineINS_14PointWithRangeEED1Ev@Base 1.6
 (optional=templinst)_ZN3pcl24SampleConsensusModelLineINS_14PointWithRangeEED2Ev@Base 1.6
 (optional=templinst)_ZN3pcl24SampleConsensusModelLineINS_14PointWithScaleEE12isModelValidERKN5Eigen6MatrixIfLin1ELi1ELi0ELin1ELi1EEE@Base 1.6
 (optional=templinst)_ZN3pcl24SampleConsensusModelLineINS_14PointWithScaleEEC1ERKN5boost10shared_ptrIKNS_10PointCloudIS1_EEEE@Base 1.6
 (optional=templinst)_ZN3pcl24SampleConsensusModelLineINS_14PointWithScaleEEC2ERKN5boost10shared_ptrIKNS_10PointCloudIS1_EEEE@Base 1.6
 (optional=templinst)_ZN3pcl24SampleConsensusModelLineINS_14PointWithScaleEED0Ev@Base 1.6
 (optional=templinst)_ZN3pcl24SampleConsensusModelLineINS_14PointWithScaleEED1Ev@Base 1.6
 (optional=templinst)_ZN3pcl24SampleConsensusModelLineINS_14PointWithScaleEED2Ev@Base 1.6
 (optional=templinst)_ZN3pcl24SampleConsensusModelLineINS_15PointXYZINormalEE12isModelValidERKN5Eigen6MatrixIfLin1ELi1ELi0ELin1ELi1EEE@Base 1.6
 (optional=templinst)_ZN3pcl24SampleConsensusModelLineINS_15PointXYZINormalEEC1ERKN5boost10shared_ptrIKNS_10PointCloudIS1_EEEE@Base 1.6
 (optional=templinst)_ZN3pcl24SampleConsensusModelLineINS_15PointXYZINormalEEC2ERKN5boost10shared_ptrIKNS_10PointCloudIS1_EEEE@Base 1.6
 (optional=templinst)_ZN3pcl24SampleConsensusModelLineINS_15PointXYZINormalEED0Ev@Base 1.6
 (optional=templinst)_ZN3pcl24SampleConsensusModelLineINS_15PointXYZINormalEED1Ev@Base 1.6
 (optional=templinst)_ZN3pcl24SampleConsensusModelLineINS_15PointXYZINormalEED2Ev@Base 1.6
 (optional=templinst)_ZN3pcl24SampleConsensusModelLineINS_17PointXYZRGBNormalEE12isModelValidERKN5Eigen6MatrixIfLin1ELi1ELi0ELin1ELi1EEE@Base 1.6
 (optional=templinst)_ZN3pcl24SampleConsensusModelLineINS_17PointXYZRGBNormalEEC1ERKN5boost10shared_ptrIKNS_10PointCloudIS1_EEEE@Base 1.6
 (optional=templinst)_ZN3pcl24SampleConsensusModelLineINS_17PointXYZRGBNormalEEC2ERKN5boost10shared_ptrIKNS_10PointCloudIS1_EEEE@Base 1.6
 (optional=templinst)_ZN3pcl24SampleConsensusModelLineINS_17PointXYZRGBNormalEED0Ev@Base 1.6
 (optional=templinst)_ZN3pcl24SampleConsensusModelLineINS_17PointXYZRGBNormalEED1Ev@Base 1.6
 (optional=templinst)_ZN3pcl24SampleConsensusModelLineINS_17PointXYZRGBNormalEED2Ev@Base 1.6
 (optional=templinst)_ZN3pcl24SampleConsensusModelLineINS_18PointWithViewpointEE12isModelValidERKN5Eigen6MatrixIfLin1ELi1ELi0ELin1ELi1EEE@Base 1.6
 (optional=templinst)_ZN3pcl24SampleConsensusModelLineINS_18PointWithViewpointEEC1ERKN5boost10shared_ptrIKNS_10PointCloudIS1_EEEE@Base 1.6
 (optional=templinst)_ZN3pcl24SampleConsensusModelLineINS_18PointWithViewpointEEC2ERKN5boost10shared_ptrIKNS_10PointCloudIS1_EEEE@Base 1.6
 (optional=templinst)_ZN3pcl24SampleConsensusModelLineINS_18PointWithViewpointEED0Ev@Base 1.6
 (optional=templinst)_ZN3pcl24SampleConsensusModelLineINS_18PointWithViewpointEED1Ev@Base 1.6
 (optional=templinst)_ZN3pcl24SampleConsensusModelLineINS_18PointWithViewpointEED2Ev@Base 1.6
 (optional=templinst)_ZN3pcl24SampleConsensusModelLineINS_8PointXYZEE12isModelValidERKN5Eigen6MatrixIfLin1ELi1ELi0ELin1ELi1EEE@Base 1.6
 (optional=templinst)_ZN3pcl24SampleConsensusModelLineINS_8PointXYZEEC1ERKN5boost10shared_ptrIKNS_10PointCloudIS1_EEEE@Base 1.6
 (optional=templinst)_ZN3pcl24SampleConsensusModelLineINS_8PointXYZEEC2ERKN5boost10shared_ptrIKNS_10PointCloudIS1_EEEE@Base 1.6
 (optional=templinst)_ZN3pcl24SampleConsensusModelLineINS_8PointXYZEED0Ev@Base 1.6
 (optional=templinst)_ZN3pcl24SampleConsensusModelLineINS_8PointXYZEED1Ev@Base 1.6
 (optional=templinst)_ZN3pcl24SampleConsensusModelLineINS_8PointXYZEED2Ev@Base 1.6
 (optional=templinst)_ZN3pcl24SampleConsensusModelLineINS_9PointXYZIEE12isModelValidERKN5Eigen6MatrixIfLin1ELi1ELi0ELin1ELi1EEE@Base 1.6
 (optional=templinst)_ZN3pcl24SampleConsensusModelLineINS_9PointXYZIEEC1ERKN5boost10shared_ptrIKNS_10PointCloudIS1_EEEE@Base 1.6
 (optional=templinst)_ZN3pcl24SampleConsensusModelLineINS_9PointXYZIEEC2ERKN5boost10shared_ptrIKNS_10PointCloudIS1_EEEE@Base 1.6
 (optional=templinst)_ZN3pcl24SampleConsensusModelLineINS_9PointXYZIEED0Ev@Base 1.6
 (optional=templinst)_ZN3pcl24SampleConsensusModelLineINS_9PointXYZIEED1Ev@Base 1.6
 (optional=templinst)_ZN3pcl24SampleConsensusModelLineINS_9PointXYZIEED2Ev@Base 1.6
 (optional=templinst)_ZN3pcl24SampleConsensusModelLineINS_9PointXYZLEE12isModelValidERKN5Eigen6MatrixIfLin1ELi1ELi0ELin1ELi1EEE@Base 1.6
 (optional=templinst)_ZN3pcl24SampleConsensusModelLineINS_9PointXYZLEEC1ERKN5boost10shared_ptrIKNS_10PointCloudIS1_EEEE@Base 1.6
 (optional=templinst)_ZN3pcl24SampleConsensusModelLineINS_9PointXYZLEEC2ERKN5boost10shared_ptrIKNS_10PointCloudIS1_EEEE@Base 1.6
 (optional=templinst)_ZN3pcl24SampleConsensusModelLineINS_9PointXYZLEED0Ev@Base 1.6
 (optional=templinst)_ZN3pcl24SampleConsensusModelLineINS_9PointXYZLEED1Ev@Base 1.6
 (optional=templinst)_ZN3pcl24SampleConsensusModelLineINS_9PointXYZLEED2Ev@Base 1.6
 (optional=templinst)_ZN3pcl24TfQuadraticXYZComparisonINS_11PointNormalEE19setComparisonMatrixERKN5Eigen6MatrixIfLi3ELi3ELi0ELi3ELi3EEE@Base 1.6
 (optional=templinst)_ZN3pcl24TfQuadraticXYZComparisonINS_11PointNormalEE19setComparisonMatrixERKN5Eigen6MatrixIfLi4ELi4ELi0ELi4ELi4EEE@Base 1.6
 (optional=templinst)_ZN3pcl24TfQuadraticXYZComparisonINS_11PointNormalEE19setComparisonScalarERKf@Base 1.6
 (optional=templinst)_ZN3pcl24TfQuadraticXYZComparisonINS_11PointNormalEE19setComparisonVectorERKN5Eigen6MatrixIfLi3ELi1ELi0ELi3ELi1EEE@Base 1.6
 (optional=templinst)_ZN3pcl24TfQuadraticXYZComparisonINS_11PointNormalEE19setComparisonVectorERKN5Eigen6MatrixIfLi4ELi1ELi0ELi4ELi1EEE@Base 1.6
 (optional=templinst)_ZN3pcl24TfQuadraticXYZComparisonINS_11PointNormalEE19transformComparisonERKN5Eigen6MatrixIfLi4ELi4ELi0ELi4ELi4EEE@Base 1.6
 (optional=templinst)_ZN3pcl24TfQuadraticXYZComparisonINS_11PointNormalEE19transformComparisonERKN5Eigen9TransformIfLi3ELi2ELi0EEE@Base 1.6
 (optional=templinst)_ZN3pcl24TfQuadraticXYZComparisonINS_11PointNormalEE21setComparisonOperatorENS_13ComparisonOps9CompareOpE@Base 1.6
 (optional=templinst)_ZN3pcl24TfQuadraticXYZComparisonINS_11PointNormalEEC1ENS_13ComparisonOps9CompareOpERKN5Eigen6MatrixIfLi3ELi3ELi0ELi3ELi3EEERKNS6_IfLi3ELi1ELi0ELi3ELi1EEERKfRKNS5_9TransformIfLi3ELi2ELi0EEE@Base 1.6
 (optional=templinst)_ZN3pcl24TfQuadraticXYZComparisonINS_11PointNormalEEC1Ev@Base 1.6
 (optional=templinst)_ZN3pcl24TfQuadraticXYZComparisonINS_11PointNormalEEC2ENS_13ComparisonOps9CompareOpERKN5Eigen6MatrixIfLi3ELi3ELi0ELi3ELi3EEERKNS6_IfLi3ELi1ELi0ELi3ELi1EEERKfRKNS5_9TransformIfLi3ELi2ELi0EEE@Base 1.6
 (optional=templinst)_ZN3pcl24TfQuadraticXYZComparisonINS_11PointNormalEEC2Ev@Base 1.6
 (optional=templinst)_ZN3pcl24TfQuadraticXYZComparisonINS_11PointNormalEED0Ev@Base 1.6
 (optional=templinst)_ZN3pcl24TfQuadraticXYZComparisonINS_11PointNormalEED1Ev@Base 1.6
 (optional=templinst)_ZN3pcl24TfQuadraticXYZComparisonINS_11PointNormalEED2Ev@Base 1.6
 _ZN3pcl24TfQuadraticXYZComparisonINS_11PointNormalEEdaEPv@Base 1.6
 _ZN3pcl24TfQuadraticXYZComparisonINS_11PointNormalEEdlEPv@Base 1.6
 _ZN3pcl24TfQuadraticXYZComparisonINS_11PointNormalEEdlEPvRKSt9nothrow_t@Base 1.6
 _ZN3pcl24TfQuadraticXYZComparisonINS_11PointNormalEEdlEPvS3_@Base 1.6
 _ZN3pcl24TfQuadraticXYZComparisonINS_11PointNormalEEnaEm@Base 1.6
 _ZN3pcl24TfQuadraticXYZComparisonINS_11PointNormalEEnwEm@Base 1.6
 _ZN3pcl24TfQuadraticXYZComparisonINS_11PointNormalEEnwEmPv@Base 1.6
 _ZN3pcl24TfQuadraticXYZComparisonINS_11PointNormalEEnwEmRKSt9nothrow_t@Base 1.6
 (optional=templinst)_ZN3pcl24TfQuadraticXYZComparisonINS_11PointXYZHSVEE19setComparisonMatrixERKN5Eigen6MatrixIfLi3ELi3ELi0ELi3ELi3EEE@Base 1.6
 (optional=templinst)_ZN3pcl24TfQuadraticXYZComparisonINS_11PointXYZHSVEE19setComparisonMatrixERKN5Eigen6MatrixIfLi4ELi4ELi0ELi4ELi4EEE@Base 1.6
 (optional=templinst)_ZN3pcl24TfQuadraticXYZComparisonINS_11PointXYZHSVEE19setComparisonScalarERKf@Base 1.6
 (optional=templinst)_ZN3pcl24TfQuadraticXYZComparisonINS_11PointXYZHSVEE19setComparisonVectorERKN5Eigen6MatrixIfLi3ELi1ELi0ELi3ELi1EEE@Base 1.6
 (optional=templinst)_ZN3pcl24TfQuadraticXYZComparisonINS_11PointXYZHSVEE19setComparisonVectorERKN5Eigen6MatrixIfLi4ELi1ELi0ELi4ELi1EEE@Base 1.6
 (optional=templinst)_ZN3pcl24TfQuadraticXYZComparisonINS_11PointXYZHSVEE19transformComparisonERKN5Eigen6MatrixIfLi4ELi4ELi0ELi4ELi4EEE@Base 1.6
 (optional=templinst)_ZN3pcl24TfQuadraticXYZComparisonINS_11PointXYZHSVEE19transformComparisonERKN5Eigen9TransformIfLi3ELi2ELi0EEE@Base 1.6
 (optional=templinst)_ZN3pcl24TfQuadraticXYZComparisonINS_11PointXYZHSVEE21setComparisonOperatorENS_13ComparisonOps9CompareOpE@Base 1.6
 (optional=templinst)_ZN3pcl24TfQuadraticXYZComparisonINS_11PointXYZHSVEEC1ENS_13ComparisonOps9CompareOpERKN5Eigen6MatrixIfLi3ELi3ELi0ELi3ELi3EEERKNS6_IfLi3ELi1ELi0ELi3ELi1EEERKfRKNS5_9TransformIfLi3ELi2ELi0EEE@Base 1.6
 (optional=templinst)_ZN3pcl24TfQuadraticXYZComparisonINS_11PointXYZHSVEEC1Ev@Base 1.6
 (optional=templinst)_ZN3pcl24TfQuadraticXYZComparisonINS_11PointXYZHSVEEC2ENS_13ComparisonOps9CompareOpERKN5Eigen6MatrixIfLi3ELi3ELi0ELi3ELi3EEERKNS6_IfLi3ELi1ELi0ELi3ELi1EEERKfRKNS5_9TransformIfLi3ELi2ELi0EEE@Base 1.6
 (optional=templinst)_ZN3pcl24TfQuadraticXYZComparisonINS_11PointXYZHSVEEC2Ev@Base 1.6
 (optional=templinst)_ZN3pcl24TfQuadraticXYZComparisonINS_11PointXYZHSVEED0Ev@Base 1.6
 (optional=templinst)_ZN3pcl24TfQuadraticXYZComparisonINS_11PointXYZHSVEED1Ev@Base 1.6
 (optional=templinst)_ZN3pcl24TfQuadraticXYZComparisonINS_11PointXYZHSVEED2Ev@Base 1.6
 _ZN3pcl24TfQuadraticXYZComparisonINS_11PointXYZHSVEEdaEPv@Base 1.6
 _ZN3pcl24TfQuadraticXYZComparisonINS_11PointXYZHSVEEdlEPv@Base 1.6
 _ZN3pcl24TfQuadraticXYZComparisonINS_11PointXYZHSVEEdlEPvRKSt9nothrow_t@Base 1.6
 _ZN3pcl24TfQuadraticXYZComparisonINS_11PointXYZHSVEEdlEPvS3_@Base 1.6
 _ZN3pcl24TfQuadraticXYZComparisonINS_11PointXYZHSVEEnaEm@Base 1.6
 _ZN3pcl24TfQuadraticXYZComparisonINS_11PointXYZHSVEEnwEm@Base 1.6
 _ZN3pcl24TfQuadraticXYZComparisonINS_11PointXYZHSVEEnwEmPv@Base 1.6
 _ZN3pcl24TfQuadraticXYZComparisonINS_11PointXYZHSVEEnwEmRKSt9nothrow_t@Base 1.6
 (optional=templinst)_ZN3pcl24TfQuadraticXYZComparisonINS_11PointXYZRGBEE19setComparisonMatrixERKN5Eigen6MatrixIfLi3ELi3ELi0ELi3ELi3EEE@Base 1.6
 (optional=templinst)_ZN3pcl24TfQuadraticXYZComparisonINS_11PointXYZRGBEE19setComparisonMatrixERKN5Eigen6MatrixIfLi4ELi4ELi0ELi4ELi4EEE@Base 1.6
 (optional=templinst)_ZN3pcl24TfQuadraticXYZComparisonINS_11PointXYZRGBEE19setComparisonScalarERKf@Base 1.6
 (optional=templinst)_ZN3pcl24TfQuadraticXYZComparisonINS_11PointXYZRGBEE19setComparisonVectorERKN5Eigen6MatrixIfLi3ELi1ELi0ELi3ELi1EEE@Base 1.6
 (optional=templinst)_ZN3pcl24TfQuadraticXYZComparisonINS_11PointXYZRGBEE19setComparisonVectorERKN5Eigen6MatrixIfLi4ELi1ELi0ELi4ELi1EEE@Base 1.6
 (optional=templinst)_ZN3pcl24TfQuadraticXYZComparisonINS_11PointXYZRGBEE19transformComparisonERKN5Eigen6MatrixIfLi4ELi4ELi0ELi4ELi4EEE@Base 1.6
 (optional=templinst)_ZN3pcl24TfQuadraticXYZComparisonINS_11PointXYZRGBEE19transformComparisonERKN5Eigen9TransformIfLi3ELi2ELi0EEE@Base 1.6
 (optional=templinst)_ZN3pcl24TfQuadraticXYZComparisonINS_11PointXYZRGBEE21setComparisonOperatorENS_13ComparisonOps9CompareOpE@Base 1.6
 (optional=templinst)_ZN3pcl24TfQuadraticXYZComparisonINS_11PointXYZRGBEEC1ENS_13ComparisonOps9CompareOpERKN5Eigen6MatrixIfLi3ELi3ELi0ELi3ELi3EEERKNS6_IfLi3ELi1ELi0ELi3ELi1EEERKfRKNS5_9TransformIfLi3ELi2ELi0EEE@Base 1.6
 (optional=templinst)_ZN3pcl24TfQuadraticXYZComparisonINS_11PointXYZRGBEEC1Ev@Base 1.6
 (optional=templinst)_ZN3pcl24TfQuadraticXYZComparisonINS_11PointXYZRGBEEC2ENS_13ComparisonOps9CompareOpERKN5Eigen6MatrixIfLi3ELi3ELi0ELi3ELi3EEERKNS6_IfLi3ELi1ELi0ELi3ELi1EEERKfRKNS5_9TransformIfLi3ELi2ELi0EEE@Base 1.6
 (optional=templinst)_ZN3pcl24TfQuadraticXYZComparisonINS_11PointXYZRGBEEC2Ev@Base 1.6
 (optional=templinst)_ZN3pcl24TfQuadraticXYZComparisonINS_11PointXYZRGBEED0Ev@Base 1.6
 (optional=templinst)_ZN3pcl24TfQuadraticXYZComparisonINS_11PointXYZRGBEED1Ev@Base 1.6
 (optional=templinst)_ZN3pcl24TfQuadraticXYZComparisonINS_11PointXYZRGBEED2Ev@Base 1.6
 _ZN3pcl24TfQuadraticXYZComparisonINS_11PointXYZRGBEEdaEPv@Base 1.6
 _ZN3pcl24TfQuadraticXYZComparisonINS_11PointXYZRGBEEdlEPv@Base 1.6
 _ZN3pcl24TfQuadraticXYZComparisonINS_11PointXYZRGBEEdlEPvRKSt9nothrow_t@Base 1.6
 _ZN3pcl24TfQuadraticXYZComparisonINS_11PointXYZRGBEEdlEPvS3_@Base 1.6
 _ZN3pcl24TfQuadraticXYZComparisonINS_11PointXYZRGBEEnaEm@Base 1.6
 _ZN3pcl24TfQuadraticXYZComparisonINS_11PointXYZRGBEEnwEm@Base 1.6
 _ZN3pcl24TfQuadraticXYZComparisonINS_11PointXYZRGBEEnwEmPv@Base 1.6
 _ZN3pcl24TfQuadraticXYZComparisonINS_11PointXYZRGBEEnwEmRKSt9nothrow_t@Base 1.6
 (optional=templinst)_ZN3pcl24TfQuadraticXYZComparisonINS_12PointXYZRGBAEE19setComparisonMatrixERKN5Eigen6MatrixIfLi3ELi3ELi0ELi3ELi3EEE@Base 1.6
 (optional=templinst)_ZN3pcl24TfQuadraticXYZComparisonINS_12PointXYZRGBAEE19setComparisonMatrixERKN5Eigen6MatrixIfLi4ELi4ELi0ELi4ELi4EEE@Base 1.6
 (optional=templinst)_ZN3pcl24TfQuadraticXYZComparisonINS_12PointXYZRGBAEE19setComparisonScalarERKf@Base 1.6
 (optional=templinst)_ZN3pcl24TfQuadraticXYZComparisonINS_12PointXYZRGBAEE19setComparisonVectorERKN5Eigen6MatrixIfLi3ELi1ELi0ELi3ELi1EEE@Base 1.6
 (optional=templinst)_ZN3pcl24TfQuadraticXYZComparisonINS_12PointXYZRGBAEE19setComparisonVectorERKN5Eigen6MatrixIfLi4ELi1ELi0ELi4ELi1EEE@Base 1.6
 (optional=templinst)_ZN3pcl24TfQuadraticXYZComparisonINS_12PointXYZRGBAEE19transformComparisonERKN5Eigen6MatrixIfLi4ELi4ELi0ELi4ELi4EEE@Base 1.6
 (optional=templinst)_ZN3pcl24TfQuadraticXYZComparisonINS_12PointXYZRGBAEE19transformComparisonERKN5Eigen9TransformIfLi3ELi2ELi0EEE@Base 1.6
 (optional=templinst)_ZN3pcl24TfQuadraticXYZComparisonINS_12PointXYZRGBAEE21setComparisonOperatorENS_13ComparisonOps9CompareOpE@Base 1.6
 (optional=templinst)_ZN3pcl24TfQuadraticXYZComparisonINS_12PointXYZRGBAEEC1ENS_13ComparisonOps9CompareOpERKN5Eigen6MatrixIfLi3ELi3ELi0ELi3ELi3EEERKNS6_IfLi3ELi1ELi0ELi3ELi1EEERKfRKNS5_9TransformIfLi3ELi2ELi0EEE@Base 1.6
 (optional=templinst)_ZN3pcl24TfQuadraticXYZComparisonINS_12PointXYZRGBAEEC1Ev@Base 1.6
 (optional=templinst)_ZN3pcl24TfQuadraticXYZComparisonINS_12PointXYZRGBAEEC2ENS_13ComparisonOps9CompareOpERKN5Eigen6MatrixIfLi3ELi3ELi0ELi3ELi3EEERKNS6_IfLi3ELi1ELi0ELi3ELi1EEERKfRKNS5_9TransformIfLi3ELi2ELi0EEE@Base 1.6
 (optional=templinst)_ZN3pcl24TfQuadraticXYZComparisonINS_12PointXYZRGBAEEC2Ev@Base 1.6
 (optional=templinst)_ZN3pcl24TfQuadraticXYZComparisonINS_12PointXYZRGBAEED0Ev@Base 1.6
 (optional=templinst)_ZN3pcl24TfQuadraticXYZComparisonINS_12PointXYZRGBAEED1Ev@Base 1.6
 (optional=templinst)_ZN3pcl24TfQuadraticXYZComparisonINS_12PointXYZRGBAEED2Ev@Base 1.6
 _ZN3pcl24TfQuadraticXYZComparisonINS_12PointXYZRGBAEEdaEPv@Base 1.6
 _ZN3pcl24TfQuadraticXYZComparisonINS_12PointXYZRGBAEEdlEPv@Base 1.6
 _ZN3pcl24TfQuadraticXYZComparisonINS_12PointXYZRGBAEEdlEPvRKSt9nothrow_t@Base 1.6
 _ZN3pcl24TfQuadraticXYZComparisonINS_12PointXYZRGBAEEdlEPvS3_@Base 1.6
 _ZN3pcl24TfQuadraticXYZComparisonINS_12PointXYZRGBAEEnaEm@Base 1.6
 _ZN3pcl24TfQuadraticXYZComparisonINS_12PointXYZRGBAEEnwEm@Base 1.6
 _ZN3pcl24TfQuadraticXYZComparisonINS_12PointXYZRGBAEEnwEmPv@Base 1.6
 _ZN3pcl24TfQuadraticXYZComparisonINS_12PointXYZRGBAEEnwEmRKSt9nothrow_t@Base 1.6
 (optional=templinst)_ZN3pcl24TfQuadraticXYZComparisonINS_12PointXYZRGBLEE19setComparisonMatrixERKN5Eigen6MatrixIfLi3ELi3ELi0ELi3ELi3EEE@Base 1.6
 (optional=templinst)_ZN3pcl24TfQuadraticXYZComparisonINS_12PointXYZRGBLEE19setComparisonMatrixERKN5Eigen6MatrixIfLi4ELi4ELi0ELi4ELi4EEE@Base 1.6
 (optional=templinst)_ZN3pcl24TfQuadraticXYZComparisonINS_12PointXYZRGBLEE19setComparisonScalarERKf@Base 1.6
 (optional=templinst)_ZN3pcl24TfQuadraticXYZComparisonINS_12PointXYZRGBLEE19setComparisonVectorERKN5Eigen6MatrixIfLi3ELi1ELi0ELi3ELi1EEE@Base 1.6
 (optional=templinst)_ZN3pcl24TfQuadraticXYZComparisonINS_12PointXYZRGBLEE19setComparisonVectorERKN5Eigen6MatrixIfLi4ELi1ELi0ELi4ELi1EEE@Base 1.6
 (optional=templinst)_ZN3pcl24TfQuadraticXYZComparisonINS_12PointXYZRGBLEE19transformComparisonERKN5Eigen6MatrixIfLi4ELi4ELi0ELi4ELi4EEE@Base 1.6
 (optional=templinst)_ZN3pcl24TfQuadraticXYZComparisonINS_12PointXYZRGBLEE19transformComparisonERKN5Eigen9TransformIfLi3ELi2ELi0EEE@Base 1.6
 (optional=templinst)_ZN3pcl24TfQuadraticXYZComparisonINS_12PointXYZRGBLEE21setComparisonOperatorENS_13ComparisonOps9CompareOpE@Base 1.6
 (optional=templinst)_ZN3pcl24TfQuadraticXYZComparisonINS_12PointXYZRGBLEEC1ENS_13ComparisonOps9CompareOpERKN5Eigen6MatrixIfLi3ELi3ELi0ELi3ELi3EEERKNS6_IfLi3ELi1ELi0ELi3ELi1EEERKfRKNS5_9TransformIfLi3ELi2ELi0EEE@Base 1.6
 (optional=templinst)_ZN3pcl24TfQuadraticXYZComparisonINS_12PointXYZRGBLEEC1Ev@Base 1.6
 (optional=templinst)_ZN3pcl24TfQuadraticXYZComparisonINS_12PointXYZRGBLEEC2ENS_13ComparisonOps9CompareOpERKN5Eigen6MatrixIfLi3ELi3ELi0ELi3ELi3EEERKNS6_IfLi3ELi1ELi0ELi3ELi1EEERKfRKNS5_9TransformIfLi3ELi2ELi0EEE@Base 1.6
 (optional=templinst)_ZN3pcl24TfQuadraticXYZComparisonINS_12PointXYZRGBLEEC2Ev@Base 1.6
 (optional=templinst)_ZN3pcl24TfQuadraticXYZComparisonINS_12PointXYZRGBLEED0Ev@Base 1.6
 (optional=templinst)_ZN3pcl24TfQuadraticXYZComparisonINS_12PointXYZRGBLEED1Ev@Base 1.6
 (optional=templinst)_ZN3pcl24TfQuadraticXYZComparisonINS_12PointXYZRGBLEED2Ev@Base 1.6
 _ZN3pcl24TfQuadraticXYZComparisonINS_12PointXYZRGBLEEdaEPv@Base 1.6
 _ZN3pcl24TfQuadraticXYZComparisonINS_12PointXYZRGBLEEdlEPv@Base 1.6
 _ZN3pcl24TfQuadraticXYZComparisonINS_12PointXYZRGBLEEdlEPvRKSt9nothrow_t@Base 1.6
 _ZN3pcl24TfQuadraticXYZComparisonINS_12PointXYZRGBLEEdlEPvS3_@Base 1.6
 _ZN3pcl24TfQuadraticXYZComparisonINS_12PointXYZRGBLEEnaEm@Base 1.6
 _ZN3pcl24TfQuadraticXYZComparisonINS_12PointXYZRGBLEEnwEm@Base 1.6
 _ZN3pcl24TfQuadraticXYZComparisonINS_12PointXYZRGBLEEnwEmPv@Base 1.6
 _ZN3pcl24TfQuadraticXYZComparisonINS_12PointXYZRGBLEEnwEmRKSt9nothrow_t@Base 1.6
 (optional=templinst)_ZN3pcl24TfQuadraticXYZComparisonINS_13InterestPointEE19setComparisonMatrixERKN5Eigen6MatrixIfLi3ELi3ELi0ELi3ELi3EEE@Base 1.6
 (optional=templinst)_ZN3pcl24TfQuadraticXYZComparisonINS_13InterestPointEE19setComparisonMatrixERKN5Eigen6MatrixIfLi4ELi4ELi0ELi4ELi4EEE@Base 1.6
 (optional=templinst)_ZN3pcl24TfQuadraticXYZComparisonINS_13InterestPointEE19setComparisonScalarERKf@Base 1.6
 (optional=templinst)_ZN3pcl24TfQuadraticXYZComparisonINS_13InterestPointEE19setComparisonVectorERKN5Eigen6MatrixIfLi3ELi1ELi0ELi3ELi1EEE@Base 1.6
 (optional=templinst)_ZN3pcl24TfQuadraticXYZComparisonINS_13InterestPointEE19setComparisonVectorERKN5Eigen6MatrixIfLi4ELi1ELi0ELi4ELi1EEE@Base 1.6
 (optional=templinst)_ZN3pcl24TfQuadraticXYZComparisonINS_13InterestPointEE19transformComparisonERKN5Eigen6MatrixIfLi4ELi4ELi0ELi4ELi4EEE@Base 1.6
 (optional=templinst)_ZN3pcl24TfQuadraticXYZComparisonINS_13InterestPointEE19transformComparisonERKN5Eigen9TransformIfLi3ELi2ELi0EEE@Base 1.6
 (optional=templinst)_ZN3pcl24TfQuadraticXYZComparisonINS_13InterestPointEE21setComparisonOperatorENS_13ComparisonOps9CompareOpE@Base 1.6
 (optional=templinst)_ZN3pcl24TfQuadraticXYZComparisonINS_13InterestPointEEC1ENS_13ComparisonOps9CompareOpERKN5Eigen6MatrixIfLi3ELi3ELi0ELi3ELi3EEERKNS6_IfLi3ELi1ELi0ELi3ELi1EEERKfRKNS5_9TransformIfLi3ELi2ELi0EEE@Base 1.6
 (optional=templinst)_ZN3pcl24TfQuadraticXYZComparisonINS_13InterestPointEEC1Ev@Base 1.6
 (optional=templinst)_ZN3pcl24TfQuadraticXYZComparisonINS_13InterestPointEEC2ENS_13ComparisonOps9CompareOpERKN5Eigen6MatrixIfLi3ELi3ELi0ELi3ELi3EEERKNS6_IfLi3ELi1ELi0ELi3ELi1EEERKfRKNS5_9TransformIfLi3ELi2ELi0EEE@Base 1.6
 (optional=templinst)_ZN3pcl24TfQuadraticXYZComparisonINS_13InterestPointEEC2Ev@Base 1.6
 (optional=templinst)_ZN3pcl24TfQuadraticXYZComparisonINS_13InterestPointEED0Ev@Base 1.6
 (optional=templinst)_ZN3pcl24TfQuadraticXYZComparisonINS_13InterestPointEED1Ev@Base 1.6
 (optional=templinst)_ZN3pcl24TfQuadraticXYZComparisonINS_13InterestPointEED2Ev@Base 1.6
 _ZN3pcl24TfQuadraticXYZComparisonINS_13InterestPointEEdaEPv@Base 1.6
 _ZN3pcl24TfQuadraticXYZComparisonINS_13InterestPointEEdlEPv@Base 1.6
 _ZN3pcl24TfQuadraticXYZComparisonINS_13InterestPointEEdlEPvRKSt9nothrow_t@Base 1.6
 _ZN3pcl24TfQuadraticXYZComparisonINS_13InterestPointEEdlEPvS3_@Base 1.6
 _ZN3pcl24TfQuadraticXYZComparisonINS_13InterestPointEEnaEm@Base 1.6
 _ZN3pcl24TfQuadraticXYZComparisonINS_13InterestPointEEnwEm@Base 1.6
 _ZN3pcl24TfQuadraticXYZComparisonINS_13InterestPointEEnwEmPv@Base 1.6
 _ZN3pcl24TfQuadraticXYZComparisonINS_13InterestPointEEnwEmRKSt9nothrow_t@Base 1.6
 (optional=templinst)_ZN3pcl24TfQuadraticXYZComparisonINS_14PointWithRangeEE19setComparisonMatrixERKN5Eigen6MatrixIfLi3ELi3ELi0ELi3ELi3EEE@Base 1.6
 (optional=templinst)_ZN3pcl24TfQuadraticXYZComparisonINS_14PointWithRangeEE19setComparisonMatrixERKN5Eigen6MatrixIfLi4ELi4ELi0ELi4ELi4EEE@Base 1.6
 (optional=templinst)_ZN3pcl24TfQuadraticXYZComparisonINS_14PointWithRangeEE19setComparisonScalarERKf@Base 1.6
 (optional=templinst)_ZN3pcl24TfQuadraticXYZComparisonINS_14PointWithRangeEE19setComparisonVectorERKN5Eigen6MatrixIfLi3ELi1ELi0ELi3ELi1EEE@Base 1.6
 (optional=templinst)_ZN3pcl24TfQuadraticXYZComparisonINS_14PointWithRangeEE19setComparisonVectorERKN5Eigen6MatrixIfLi4ELi1ELi0ELi4ELi1EEE@Base 1.6
 (optional=templinst)_ZN3pcl24TfQuadraticXYZComparisonINS_14PointWithRangeEE19transformComparisonERKN5Eigen6MatrixIfLi4ELi4ELi0ELi4ELi4EEE@Base 1.6
 (optional=templinst)_ZN3pcl24TfQuadraticXYZComparisonINS_14PointWithRangeEE19transformComparisonERKN5Eigen9TransformIfLi3ELi2ELi0EEE@Base 1.6
 (optional=templinst)_ZN3pcl24TfQuadraticXYZComparisonINS_14PointWithRangeEE21setComparisonOperatorENS_13ComparisonOps9CompareOpE@Base 1.6
 (optional=templinst)_ZN3pcl24TfQuadraticXYZComparisonINS_14PointWithRangeEEC1ENS_13ComparisonOps9CompareOpERKN5Eigen6MatrixIfLi3ELi3ELi0ELi3ELi3EEERKNS6_IfLi3ELi1ELi0ELi3ELi1EEERKfRKNS5_9TransformIfLi3ELi2ELi0EEE@Base 1.6
 (optional=templinst)_ZN3pcl24TfQuadraticXYZComparisonINS_14PointWithRangeEEC1Ev@Base 1.6
 (optional=templinst)_ZN3pcl24TfQuadraticXYZComparisonINS_14PointWithRangeEEC2ENS_13ComparisonOps9CompareOpERKN5Eigen6MatrixIfLi3ELi3ELi0ELi3ELi3EEERKNS6_IfLi3ELi1ELi0ELi3ELi1EEERKfRKNS5_9TransformIfLi3ELi2ELi0EEE@Base 1.6
 (optional=templinst)_ZN3pcl24TfQuadraticXYZComparisonINS_14PointWithRangeEEC2Ev@Base 1.6
 (optional=templinst)_ZN3pcl24TfQuadraticXYZComparisonINS_14PointWithRangeEED0Ev@Base 1.6
 (optional=templinst)_ZN3pcl24TfQuadraticXYZComparisonINS_14PointWithRangeEED1Ev@Base 1.6
 (optional=templinst)_ZN3pcl24TfQuadraticXYZComparisonINS_14PointWithRangeEED2Ev@Base 1.6
 _ZN3pcl24TfQuadraticXYZComparisonINS_14PointWithRangeEEdaEPv@Base 1.6
 _ZN3pcl24TfQuadraticXYZComparisonINS_14PointWithRangeEEdlEPv@Base 1.6
 _ZN3pcl24TfQuadraticXYZComparisonINS_14PointWithRangeEEdlEPvRKSt9nothrow_t@Base 1.6
 _ZN3pcl24TfQuadraticXYZComparisonINS_14PointWithRangeEEdlEPvS3_@Base 1.6
 _ZN3pcl24TfQuadraticXYZComparisonINS_14PointWithRangeEEnaEm@Base 1.6
 _ZN3pcl24TfQuadraticXYZComparisonINS_14PointWithRangeEEnwEm@Base 1.6
 _ZN3pcl24TfQuadraticXYZComparisonINS_14PointWithRangeEEnwEmPv@Base 1.6
 _ZN3pcl24TfQuadraticXYZComparisonINS_14PointWithRangeEEnwEmRKSt9nothrow_t@Base 1.6
 (optional=templinst)_ZN3pcl24TfQuadraticXYZComparisonINS_14PointWithScaleEE19setComparisonMatrixERKN5Eigen6MatrixIfLi3ELi3ELi0ELi3ELi3EEE@Base 1.6
 (optional=templinst)_ZN3pcl24TfQuadraticXYZComparisonINS_14PointWithScaleEE19setComparisonMatrixERKN5Eigen6MatrixIfLi4ELi4ELi0ELi4ELi4EEE@Base 1.6
 (optional=templinst)_ZN3pcl24TfQuadraticXYZComparisonINS_14PointWithScaleEE19setComparisonScalarERKf@Base 1.6
 (optional=templinst)_ZN3pcl24TfQuadraticXYZComparisonINS_14PointWithScaleEE19setComparisonVectorERKN5Eigen6MatrixIfLi3ELi1ELi0ELi3ELi1EEE@Base 1.6
 (optional=templinst)_ZN3pcl24TfQuadraticXYZComparisonINS_14PointWithScaleEE19setComparisonVectorERKN5Eigen6MatrixIfLi4ELi1ELi0ELi4ELi1EEE@Base 1.6
 (optional=templinst)_ZN3pcl24TfQuadraticXYZComparisonINS_14PointWithScaleEE19transformComparisonERKN5Eigen6MatrixIfLi4ELi4ELi0ELi4ELi4EEE@Base 1.6
 (optional=templinst)_ZN3pcl24TfQuadraticXYZComparisonINS_14PointWithScaleEE19transformComparisonERKN5Eigen9TransformIfLi3ELi2ELi0EEE@Base 1.6
 (optional=templinst)_ZN3pcl24TfQuadraticXYZComparisonINS_14PointWithScaleEE21setComparisonOperatorENS_13ComparisonOps9CompareOpE@Base 1.6
 (optional=templinst)_ZN3pcl24TfQuadraticXYZComparisonINS_14PointWithScaleEEC1ENS_13ComparisonOps9CompareOpERKN5Eigen6MatrixIfLi3ELi3ELi0ELi3ELi3EEERKNS6_IfLi3ELi1ELi0ELi3ELi1EEERKfRKNS5_9TransformIfLi3ELi2ELi0EEE@Base 1.6
 (optional=templinst)_ZN3pcl24TfQuadraticXYZComparisonINS_14PointWithScaleEEC1Ev@Base 1.6
 (optional=templinst)_ZN3pcl24TfQuadraticXYZComparisonINS_14PointWithScaleEEC2ENS_13ComparisonOps9CompareOpERKN5Eigen6MatrixIfLi3ELi3ELi0ELi3ELi3EEERKNS6_IfLi3ELi1ELi0ELi3ELi1EEERKfRKNS5_9TransformIfLi3ELi2ELi0EEE@Base 1.6
 (optional=templinst)_ZN3pcl24TfQuadraticXYZComparisonINS_14PointWithScaleEEC2Ev@Base 1.6
 (optional=templinst)_ZN3pcl24TfQuadraticXYZComparisonINS_14PointWithScaleEED0Ev@Base 1.6
 (optional=templinst)_ZN3pcl24TfQuadraticXYZComparisonINS_14PointWithScaleEED1Ev@Base 1.6
 (optional=templinst)_ZN3pcl24TfQuadraticXYZComparisonINS_14PointWithScaleEED2Ev@Base 1.6
 _ZN3pcl24TfQuadraticXYZComparisonINS_14PointWithScaleEEdaEPv@Base 1.6
 _ZN3pcl24TfQuadraticXYZComparisonINS_14PointWithScaleEEdlEPv@Base 1.6
 _ZN3pcl24TfQuadraticXYZComparisonINS_14PointWithScaleEEdlEPvRKSt9nothrow_t@Base 1.6
 _ZN3pcl24TfQuadraticXYZComparisonINS_14PointWithScaleEEdlEPvS3_@Base 1.6
 _ZN3pcl24TfQuadraticXYZComparisonINS_14PointWithScaleEEnaEm@Base 1.6
 _ZN3pcl24TfQuadraticXYZComparisonINS_14PointWithScaleEEnwEm@Base 1.6
 _ZN3pcl24TfQuadraticXYZComparisonINS_14PointWithScaleEEnwEmPv@Base 1.6
 _ZN3pcl24TfQuadraticXYZComparisonINS_14PointWithScaleEEnwEmRKSt9nothrow_t@Base 1.6
 (optional=templinst)_ZN3pcl24TfQuadraticXYZComparisonINS_15PointXYZINormalEE19setComparisonMatrixERKN5Eigen6MatrixIfLi3ELi3ELi0ELi3ELi3EEE@Base 1.6
 (optional=templinst)_ZN3pcl24TfQuadraticXYZComparisonINS_15PointXYZINormalEE19setComparisonMatrixERKN5Eigen6MatrixIfLi4ELi4ELi0ELi4ELi4EEE@Base 1.6
 (optional=templinst)_ZN3pcl24TfQuadraticXYZComparisonINS_15PointXYZINormalEE19setComparisonScalarERKf@Base 1.6
 (optional=templinst)_ZN3pcl24TfQuadraticXYZComparisonINS_15PointXYZINormalEE19setComparisonVectorERKN5Eigen6MatrixIfLi3ELi1ELi0ELi3ELi1EEE@Base 1.6
 (optional=templinst)_ZN3pcl24TfQuadraticXYZComparisonINS_15PointXYZINormalEE19setComparisonVectorERKN5Eigen6MatrixIfLi4ELi1ELi0ELi4ELi1EEE@Base 1.6
 (optional=templinst)_ZN3pcl24TfQuadraticXYZComparisonINS_15PointXYZINormalEE19transformComparisonERKN5Eigen6MatrixIfLi4ELi4ELi0ELi4ELi4EEE@Base 1.6
 (optional=templinst)_ZN3pcl24TfQuadraticXYZComparisonINS_15PointXYZINormalEE19transformComparisonERKN5Eigen9TransformIfLi3ELi2ELi0EEE@Base 1.6
 (optional=templinst)_ZN3pcl24TfQuadraticXYZComparisonINS_15PointXYZINormalEE21setComparisonOperatorENS_13ComparisonOps9CompareOpE@Base 1.6
 (optional=templinst)_ZN3pcl24TfQuadraticXYZComparisonINS_15PointXYZINormalEEC1ENS_13ComparisonOps9CompareOpERKN5Eigen6MatrixIfLi3ELi3ELi0ELi3ELi3EEERKNS6_IfLi3ELi1ELi0ELi3ELi1EEERKfRKNS5_9TransformIfLi3ELi2ELi0EEE@Base 1.6
 (optional=templinst)_ZN3pcl24TfQuadraticXYZComparisonINS_15PointXYZINormalEEC1Ev@Base 1.6
 (optional=templinst)_ZN3pcl24TfQuadraticXYZComparisonINS_15PointXYZINormalEEC2ENS_13ComparisonOps9CompareOpERKN5Eigen6MatrixIfLi3ELi3ELi0ELi3ELi3EEERKNS6_IfLi3ELi1ELi0ELi3ELi1EEERKfRKNS5_9TransformIfLi3ELi2ELi0EEE@Base 1.6
 (optional=templinst)_ZN3pcl24TfQuadraticXYZComparisonINS_15PointXYZINormalEEC2Ev@Base 1.6
 (optional=templinst)_ZN3pcl24TfQuadraticXYZComparisonINS_15PointXYZINormalEED0Ev@Base 1.6
 (optional=templinst)_ZN3pcl24TfQuadraticXYZComparisonINS_15PointXYZINormalEED1Ev@Base 1.6
 (optional=templinst)_ZN3pcl24TfQuadraticXYZComparisonINS_15PointXYZINormalEED2Ev@Base 1.6
 _ZN3pcl24TfQuadraticXYZComparisonINS_15PointXYZINormalEEdaEPv@Base 1.6
 _ZN3pcl24TfQuadraticXYZComparisonINS_15PointXYZINormalEEdlEPv@Base 1.6
 _ZN3pcl24TfQuadraticXYZComparisonINS_15PointXYZINormalEEdlEPvRKSt9nothrow_t@Base 1.6
 _ZN3pcl24TfQuadraticXYZComparisonINS_15PointXYZINormalEEdlEPvS3_@Base 1.6
 _ZN3pcl24TfQuadraticXYZComparisonINS_15PointXYZINormalEEnaEm@Base 1.6
 _ZN3pcl24TfQuadraticXYZComparisonINS_15PointXYZINormalEEnwEm@Base 1.6
 _ZN3pcl24TfQuadraticXYZComparisonINS_15PointXYZINormalEEnwEmPv@Base 1.6
 _ZN3pcl24TfQuadraticXYZComparisonINS_15PointXYZINormalEEnwEmRKSt9nothrow_t@Base 1.6
 (optional=templinst)_ZN3pcl24TfQuadraticXYZComparisonINS_17PointXYZRGBNormalEE19setComparisonMatrixERKN5Eigen6MatrixIfLi3ELi3ELi0ELi3ELi3EEE@Base 1.6
 (optional=templinst)_ZN3pcl24TfQuadraticXYZComparisonINS_17PointXYZRGBNormalEE19setComparisonMatrixERKN5Eigen6MatrixIfLi4ELi4ELi0ELi4ELi4EEE@Base 1.6
 (optional=templinst)_ZN3pcl24TfQuadraticXYZComparisonINS_17PointXYZRGBNormalEE19setComparisonScalarERKf@Base 1.6
 (optional=templinst)_ZN3pcl24TfQuadraticXYZComparisonINS_17PointXYZRGBNormalEE19setComparisonVectorERKN5Eigen6MatrixIfLi3ELi1ELi0ELi3ELi1EEE@Base 1.6
 (optional=templinst)_ZN3pcl24TfQuadraticXYZComparisonINS_17PointXYZRGBNormalEE19setComparisonVectorERKN5Eigen6MatrixIfLi4ELi1ELi0ELi4ELi1EEE@Base 1.6
 (optional=templinst)_ZN3pcl24TfQuadraticXYZComparisonINS_17PointXYZRGBNormalEE19transformComparisonERKN5Eigen6MatrixIfLi4ELi4ELi0ELi4ELi4EEE@Base 1.6
 (optional=templinst)_ZN3pcl24TfQuadraticXYZComparisonINS_17PointXYZRGBNormalEE19transformComparisonERKN5Eigen9TransformIfLi3ELi2ELi0EEE@Base 1.6
 (optional=templinst)_ZN3pcl24TfQuadraticXYZComparisonINS_17PointXYZRGBNormalEE21setComparisonOperatorENS_13ComparisonOps9CompareOpE@Base 1.6
 (optional=templinst)_ZN3pcl24TfQuadraticXYZComparisonINS_17PointXYZRGBNormalEEC1ENS_13ComparisonOps9CompareOpERKN5Eigen6MatrixIfLi3ELi3ELi0ELi3ELi3EEERKNS6_IfLi3ELi1ELi0ELi3ELi1EEERKfRKNS5_9TransformIfLi3ELi2ELi0EEE@Base 1.6
 (optional=templinst)_ZN3pcl24TfQuadraticXYZComparisonINS_17PointXYZRGBNormalEEC1Ev@Base 1.6
 (optional=templinst)_ZN3pcl24TfQuadraticXYZComparisonINS_17PointXYZRGBNormalEEC2ENS_13ComparisonOps9CompareOpERKN5Eigen6MatrixIfLi3ELi3ELi0ELi3ELi3EEERKNS6_IfLi3ELi1ELi0ELi3ELi1EEERKfRKNS5_9TransformIfLi3ELi2ELi0EEE@Base 1.6
 (optional=templinst)_ZN3pcl24TfQuadraticXYZComparisonINS_17PointXYZRGBNormalEEC2Ev@Base 1.6
 (optional=templinst)_ZN3pcl24TfQuadraticXYZComparisonINS_17PointXYZRGBNormalEED0Ev@Base 1.6
 (optional=templinst)_ZN3pcl24TfQuadraticXYZComparisonINS_17PointXYZRGBNormalEED1Ev@Base 1.6
 (optional=templinst)_ZN3pcl24TfQuadraticXYZComparisonINS_17PointXYZRGBNormalEED2Ev@Base 1.6
 _ZN3pcl24TfQuadraticXYZComparisonINS_17PointXYZRGBNormalEEdaEPv@Base 1.6
 _ZN3pcl24TfQuadraticXYZComparisonINS_17PointXYZRGBNormalEEdlEPv@Base 1.6
 _ZN3pcl24TfQuadraticXYZComparisonINS_17PointXYZRGBNormalEEdlEPvRKSt9nothrow_t@Base 1.6
 _ZN3pcl24TfQuadraticXYZComparisonINS_17PointXYZRGBNormalEEdlEPvS3_@Base 1.6
 _ZN3pcl24TfQuadraticXYZComparisonINS_17PointXYZRGBNormalEEnaEm@Base 1.6
 _ZN3pcl24TfQuadraticXYZComparisonINS_17PointXYZRGBNormalEEnwEm@Base 1.6
 _ZN3pcl24TfQuadraticXYZComparisonINS_17PointXYZRGBNormalEEnwEmPv@Base 1.6
 _ZN3pcl24TfQuadraticXYZComparisonINS_17PointXYZRGBNormalEEnwEmRKSt9nothrow_t@Base 1.6
 (optional=templinst)_ZN3pcl24TfQuadraticXYZComparisonINS_18PointWithViewpointEE19setComparisonMatrixERKN5Eigen6MatrixIfLi3ELi3ELi0ELi3ELi3EEE@Base 1.6
 (optional=templinst)_ZN3pcl24TfQuadraticXYZComparisonINS_18PointWithViewpointEE19setComparisonMatrixERKN5Eigen6MatrixIfLi4ELi4ELi0ELi4ELi4EEE@Base 1.6
 (optional=templinst)_ZN3pcl24TfQuadraticXYZComparisonINS_18PointWithViewpointEE19setComparisonScalarERKf@Base 1.6
 (optional=templinst)_ZN3pcl24TfQuadraticXYZComparisonINS_18PointWithViewpointEE19setComparisonVectorERKN5Eigen6MatrixIfLi3ELi1ELi0ELi3ELi1EEE@Base 1.6
 (optional=templinst)_ZN3pcl24TfQuadraticXYZComparisonINS_18PointWithViewpointEE19setComparisonVectorERKN5Eigen6MatrixIfLi4ELi1ELi0ELi4ELi1EEE@Base 1.6
 (optional=templinst)_ZN3pcl24TfQuadraticXYZComparisonINS_18PointWithViewpointEE19transformComparisonERKN5Eigen6MatrixIfLi4ELi4ELi0ELi4ELi4EEE@Base 1.6
 (optional=templinst)_ZN3pcl24TfQuadraticXYZComparisonINS_18PointWithViewpointEE19transformComparisonERKN5Eigen9TransformIfLi3ELi2ELi0EEE@Base 1.6
 (optional=templinst)_ZN3pcl24TfQuadraticXYZComparisonINS_18PointWithViewpointEE21setComparisonOperatorENS_13ComparisonOps9CompareOpE@Base 1.6
 (optional=templinst)_ZN3pcl24TfQuadraticXYZComparisonINS_18PointWithViewpointEEC1ENS_13ComparisonOps9CompareOpERKN5Eigen6MatrixIfLi3ELi3ELi0ELi3ELi3EEERKNS6_IfLi3ELi1ELi0ELi3ELi1EEERKfRKNS5_9TransformIfLi3ELi2ELi0EEE@Base 1.6
 (optional=templinst)_ZN3pcl24TfQuadraticXYZComparisonINS_18PointWithViewpointEEC1Ev@Base 1.6
 (optional=templinst)_ZN3pcl24TfQuadraticXYZComparisonINS_18PointWithViewpointEEC2ENS_13ComparisonOps9CompareOpERKN5Eigen6MatrixIfLi3ELi3ELi0ELi3ELi3EEERKNS6_IfLi3ELi1ELi0ELi3ELi1EEERKfRKNS5_9TransformIfLi3ELi2ELi0EEE@Base 1.6
 (optional=templinst)_ZN3pcl24TfQuadraticXYZComparisonINS_18PointWithViewpointEEC2Ev@Base 1.6
 (optional=templinst)_ZN3pcl24TfQuadraticXYZComparisonINS_18PointWithViewpointEED0Ev@Base 1.6
 (optional=templinst)_ZN3pcl24TfQuadraticXYZComparisonINS_18PointWithViewpointEED1Ev@Base 1.6
 (optional=templinst)_ZN3pcl24TfQuadraticXYZComparisonINS_18PointWithViewpointEED2Ev@Base 1.6
 _ZN3pcl24TfQuadraticXYZComparisonINS_18PointWithViewpointEEdaEPv@Base 1.6
 _ZN3pcl24TfQuadraticXYZComparisonINS_18PointWithViewpointEEdlEPv@Base 1.6
 _ZN3pcl24TfQuadraticXYZComparisonINS_18PointWithViewpointEEdlEPvRKSt9nothrow_t@Base 1.6
 _ZN3pcl24TfQuadraticXYZComparisonINS_18PointWithViewpointEEdlEPvS3_@Base 1.6
 _ZN3pcl24TfQuadraticXYZComparisonINS_18PointWithViewpointEEnaEm@Base 1.6
 _ZN3pcl24TfQuadraticXYZComparisonINS_18PointWithViewpointEEnwEm@Base 1.6
 _ZN3pcl24TfQuadraticXYZComparisonINS_18PointWithViewpointEEnwEmPv@Base 1.6
 _ZN3pcl24TfQuadraticXYZComparisonINS_18PointWithViewpointEEnwEmRKSt9nothrow_t@Base 1.6
 (optional=templinst)_ZN3pcl24TfQuadraticXYZComparisonINS_8PointXYZEE19setComparisonMatrixERKN5Eigen6MatrixIfLi3ELi3ELi0ELi3ELi3EEE@Base 1.6
 (optional=templinst)_ZN3pcl24TfQuadraticXYZComparisonINS_8PointXYZEE19setComparisonMatrixERKN5Eigen6MatrixIfLi4ELi4ELi0ELi4ELi4EEE@Base 1.6
 (optional=templinst)_ZN3pcl24TfQuadraticXYZComparisonINS_8PointXYZEE19setComparisonScalarERKf@Base 1.6
 (optional=templinst)_ZN3pcl24TfQuadraticXYZComparisonINS_8PointXYZEE19setComparisonVectorERKN5Eigen6MatrixIfLi3ELi1ELi0ELi3ELi1EEE@Base 1.6
 (optional=templinst)_ZN3pcl24TfQuadraticXYZComparisonINS_8PointXYZEE19setComparisonVectorERKN5Eigen6MatrixIfLi4ELi1ELi0ELi4ELi1EEE@Base 1.6
 (optional=templinst)_ZN3pcl24TfQuadraticXYZComparisonINS_8PointXYZEE19transformComparisonERKN5Eigen6MatrixIfLi4ELi4ELi0ELi4ELi4EEE@Base 1.6
 (optional=templinst)_ZN3pcl24TfQuadraticXYZComparisonINS_8PointXYZEE19transformComparisonERKN5Eigen9TransformIfLi3ELi2ELi0EEE@Base 1.6
 (optional=templinst)_ZN3pcl24TfQuadraticXYZComparisonINS_8PointXYZEE21setComparisonOperatorENS_13ComparisonOps9CompareOpE@Base 1.6
 (optional=templinst)_ZN3pcl24TfQuadraticXYZComparisonINS_8PointXYZEEC1ENS_13ComparisonOps9CompareOpERKN5Eigen6MatrixIfLi3ELi3ELi0ELi3ELi3EEERKNS6_IfLi3ELi1ELi0ELi3ELi1EEERKfRKNS5_9TransformIfLi3ELi2ELi0EEE@Base 1.6
 (optional=templinst)_ZN3pcl24TfQuadraticXYZComparisonINS_8PointXYZEEC1Ev@Base 1.6
 (optional=templinst)_ZN3pcl24TfQuadraticXYZComparisonINS_8PointXYZEEC2ENS_13ComparisonOps9CompareOpERKN5Eigen6MatrixIfLi3ELi3ELi0ELi3ELi3EEERKNS6_IfLi3ELi1ELi0ELi3ELi1EEERKfRKNS5_9TransformIfLi3ELi2ELi0EEE@Base 1.6
 (optional=templinst)_ZN3pcl24TfQuadraticXYZComparisonINS_8PointXYZEEC2Ev@Base 1.6
 (optional=templinst)_ZN3pcl24TfQuadraticXYZComparisonINS_8PointXYZEED0Ev@Base 1.6
 (optional=templinst)_ZN3pcl24TfQuadraticXYZComparisonINS_8PointXYZEED1Ev@Base 1.6
 (optional=templinst)_ZN3pcl24TfQuadraticXYZComparisonINS_8PointXYZEED2Ev@Base 1.6
 _ZN3pcl24TfQuadraticXYZComparisonINS_8PointXYZEEdaEPv@Base 1.6
 _ZN3pcl24TfQuadraticXYZComparisonINS_8PointXYZEEdlEPv@Base 1.6
 _ZN3pcl24TfQuadraticXYZComparisonINS_8PointXYZEEdlEPvRKSt9nothrow_t@Base 1.6
 _ZN3pcl24TfQuadraticXYZComparisonINS_8PointXYZEEdlEPvS3_@Base 1.6
 _ZN3pcl24TfQuadraticXYZComparisonINS_8PointXYZEEnaEm@Base 1.6
 _ZN3pcl24TfQuadraticXYZComparisonINS_8PointXYZEEnwEm@Base 1.6
 _ZN3pcl24TfQuadraticXYZComparisonINS_8PointXYZEEnwEmPv@Base 1.6
 _ZN3pcl24TfQuadraticXYZComparisonINS_8PointXYZEEnwEmRKSt9nothrow_t@Base 1.6
 (optional=templinst)_ZN3pcl24TfQuadraticXYZComparisonINS_9PointXYZIEE19setComparisonMatrixERKN5Eigen6MatrixIfLi3ELi3ELi0ELi3ELi3EEE@Base 1.6
 (optional=templinst)_ZN3pcl24TfQuadraticXYZComparisonINS_9PointXYZIEE19setComparisonMatrixERKN5Eigen6MatrixIfLi4ELi4ELi0ELi4ELi4EEE@Base 1.6
 (optional=templinst)_ZN3pcl24TfQuadraticXYZComparisonINS_9PointXYZIEE19setComparisonScalarERKf@Base 1.6
 (optional=templinst)_ZN3pcl24TfQuadraticXYZComparisonINS_9PointXYZIEE19setComparisonVectorERKN5Eigen6MatrixIfLi3ELi1ELi0ELi3ELi1EEE@Base 1.6
 (optional=templinst)_ZN3pcl24TfQuadraticXYZComparisonINS_9PointXYZIEE19setComparisonVectorERKN5Eigen6MatrixIfLi4ELi1ELi0ELi4ELi1EEE@Base 1.6
 (optional=templinst)_ZN3pcl24TfQuadraticXYZComparisonINS_9PointXYZIEE19transformComparisonERKN5Eigen6MatrixIfLi4ELi4ELi0ELi4ELi4EEE@Base 1.6
 (optional=templinst)_ZN3pcl24TfQuadraticXYZComparisonINS_9PointXYZIEE19transformComparisonERKN5Eigen9TransformIfLi3ELi2ELi0EEE@Base 1.6
 (optional=templinst)_ZN3pcl24TfQuadraticXYZComparisonINS_9PointXYZIEE21setComparisonOperatorENS_13ComparisonOps9CompareOpE@Base 1.6
 (optional=templinst)_ZN3pcl24TfQuadraticXYZComparisonINS_9PointXYZIEEC1ENS_13ComparisonOps9CompareOpERKN5Eigen6MatrixIfLi3ELi3ELi0ELi3ELi3EEERKNS6_IfLi3ELi1ELi0ELi3ELi1EEERKfRKNS5_9TransformIfLi3ELi2ELi0EEE@Base 1.6
 (optional=templinst)_ZN3pcl24TfQuadraticXYZComparisonINS_9PointXYZIEEC1Ev@Base 1.6
 (optional=templinst)_ZN3pcl24TfQuadraticXYZComparisonINS_9PointXYZIEEC2ENS_13ComparisonOps9CompareOpERKN5Eigen6MatrixIfLi3ELi3ELi0ELi3ELi3EEERKNS6_IfLi3ELi1ELi0ELi3ELi1EEERKfRKNS5_9TransformIfLi3ELi2ELi0EEE@Base 1.6
 (optional=templinst)_ZN3pcl24TfQuadraticXYZComparisonINS_9PointXYZIEEC2Ev@Base 1.6
 (optional=templinst)_ZN3pcl24TfQuadraticXYZComparisonINS_9PointXYZIEED0Ev@Base 1.6
 (optional=templinst)_ZN3pcl24TfQuadraticXYZComparisonINS_9PointXYZIEED1Ev@Base 1.6
 (optional=templinst)_ZN3pcl24TfQuadraticXYZComparisonINS_9PointXYZIEED2Ev@Base 1.6
 _ZN3pcl24TfQuadraticXYZComparisonINS_9PointXYZIEEdaEPv@Base 1.6
 _ZN3pcl24TfQuadraticXYZComparisonINS_9PointXYZIEEdlEPv@Base 1.6
 _ZN3pcl24TfQuadraticXYZComparisonINS_9PointXYZIEEdlEPvRKSt9nothrow_t@Base 1.6
 _ZN3pcl24TfQuadraticXYZComparisonINS_9PointXYZIEEdlEPvS3_@Base 1.6
 _ZN3pcl24TfQuadraticXYZComparisonINS_9PointXYZIEEnaEm@Base 1.6
 _ZN3pcl24TfQuadraticXYZComparisonINS_9PointXYZIEEnwEm@Base 1.6
 _ZN3pcl24TfQuadraticXYZComparisonINS_9PointXYZIEEnwEmPv@Base 1.6
 _ZN3pcl24TfQuadraticXYZComparisonINS_9PointXYZIEEnwEmRKSt9nothrow_t@Base 1.6
 (optional=templinst)_ZN3pcl24TfQuadraticXYZComparisonINS_9PointXYZLEE19setComparisonMatrixERKN5Eigen6MatrixIfLi3ELi3ELi0ELi3ELi3EEE@Base 1.6
 (optional=templinst)_ZN3pcl24TfQuadraticXYZComparisonINS_9PointXYZLEE19setComparisonMatrixERKN5Eigen6MatrixIfLi4ELi4ELi0ELi4ELi4EEE@Base 1.6
 (optional=templinst)_ZN3pcl24TfQuadraticXYZComparisonINS_9PointXYZLEE19setComparisonScalarERKf@Base 1.6
 (optional=templinst)_ZN3pcl24TfQuadraticXYZComparisonINS_9PointXYZLEE19setComparisonVectorERKN5Eigen6MatrixIfLi3ELi1ELi0ELi3ELi1EEE@Base 1.6
 (optional=templinst)_ZN3pcl24TfQuadraticXYZComparisonINS_9PointXYZLEE19setComparisonVectorERKN5Eigen6MatrixIfLi4ELi1ELi0ELi4ELi1EEE@Base 1.6
 (optional=templinst)_ZN3pcl24TfQuadraticXYZComparisonINS_9PointXYZLEE19transformComparisonERKN5Eigen6MatrixIfLi4ELi4ELi0ELi4ELi4EEE@Base 1.6
 (optional=templinst)_ZN3pcl24TfQuadraticXYZComparisonINS_9PointXYZLEE19transformComparisonERKN5Eigen9TransformIfLi3ELi2ELi0EEE@Base 1.6
 (optional=templinst)_ZN3pcl24TfQuadraticXYZComparisonINS_9PointXYZLEE21setComparisonOperatorENS_13ComparisonOps9CompareOpE@Base 1.6
 (optional=templinst)_ZN3pcl24TfQuadraticXYZComparisonINS_9PointXYZLEEC1ENS_13ComparisonOps9CompareOpERKN5Eigen6MatrixIfLi3ELi3ELi0ELi3ELi3EEERKNS6_IfLi3ELi1ELi0ELi3ELi1EEERKfRKNS5_9TransformIfLi3ELi2ELi0EEE@Base 1.6
 (optional=templinst)_ZN3pcl24TfQuadraticXYZComparisonINS_9PointXYZLEEC1Ev@Base 1.6
 (optional=templinst)_ZN3pcl24TfQuadraticXYZComparisonINS_9PointXYZLEEC2ENS_13ComparisonOps9CompareOpERKN5Eigen6MatrixIfLi3ELi3ELi0ELi3ELi3EEERKNS6_IfLi3ELi1ELi0ELi3ELi1EEERKfRKNS5_9TransformIfLi3ELi2ELi0EEE@Base 1.6
 (optional=templinst)_ZN3pcl24TfQuadraticXYZComparisonINS_9PointXYZLEEC2Ev@Base 1.6
 (optional=templinst)_ZN3pcl24TfQuadraticXYZComparisonINS_9PointXYZLEED0Ev@Base 1.6
 (optional=templinst)_ZN3pcl24TfQuadraticXYZComparisonINS_9PointXYZLEED1Ev@Base 1.6
 (optional=templinst)_ZN3pcl24TfQuadraticXYZComparisonINS_9PointXYZLEED2Ev@Base 1.6
 _ZN3pcl24TfQuadraticXYZComparisonINS_9PointXYZLEEdaEPv@Base 1.6
 _ZN3pcl24TfQuadraticXYZComparisonINS_9PointXYZLEEdlEPv@Base 1.6
 _ZN3pcl24TfQuadraticXYZComparisonINS_9PointXYZLEEdlEPvRKSt9nothrow_t@Base 1.6
 _ZN3pcl24TfQuadraticXYZComparisonINS_9PointXYZLEEdlEPvS3_@Base 1.6
 _ZN3pcl24TfQuadraticXYZComparisonINS_9PointXYZLEEnaEm@Base 1.6
 _ZN3pcl24TfQuadraticXYZComparisonINS_9PointXYZLEEnwEm@Base 1.6
 _ZN3pcl24TfQuadraticXYZComparisonINS_9PointXYZLEEnwEmPv@Base 1.6
 _ZN3pcl24TfQuadraticXYZComparisonINS_9PointXYZLEEnwEmRKSt9nothrow_t@Base 1.6
 (optional=templinst)_ZN3pcl25SampleConsensusModelPlaneINS_11PointNormalEE12isModelValidERKN5Eigen6MatrixIfLin1ELi1ELi0ELin1ELi1EEE@Base 1.6
 (optional=templinst)_ZN3pcl25SampleConsensusModelPlaneINS_11PointNormalEEC1ERKN5boost10shared_ptrIKNS_10PointCloudIS1_EEEE@Base 1.6
 (optional=templinst)_ZN3pcl25SampleConsensusModelPlaneINS_11PointNormalEEC2ERKN5boost10shared_ptrIKNS_10PointCloudIS1_EEEE@Base 1.6
 (optional=templinst)_ZN3pcl25SampleConsensusModelPlaneINS_11PointNormalEED0Ev@Base 1.6
 (optional=templinst)_ZN3pcl25SampleConsensusModelPlaneINS_11PointNormalEED1Ev@Base 1.6
 (optional=templinst)_ZN3pcl25SampleConsensusModelPlaneINS_11PointNormalEED2Ev@Base 1.6
 (optional=templinst)_ZN3pcl25SampleConsensusModelPlaneINS_11PointXYZHSVEE12isModelValidERKN5Eigen6MatrixIfLin1ELi1ELi0ELin1ELi1EEE@Base 1.6
 (optional=templinst)_ZN3pcl25SampleConsensusModelPlaneINS_11PointXYZHSVEEC1ERKN5boost10shared_ptrIKNS_10PointCloudIS1_EEEE@Base 1.6
 (optional=templinst)_ZN3pcl25SampleConsensusModelPlaneINS_11PointXYZHSVEEC2ERKN5boost10shared_ptrIKNS_10PointCloudIS1_EEEE@Base 1.6
 (optional=templinst)_ZN3pcl25SampleConsensusModelPlaneINS_11PointXYZHSVEED0Ev@Base 1.6
 (optional=templinst)_ZN3pcl25SampleConsensusModelPlaneINS_11PointXYZHSVEED1Ev@Base 1.6
 (optional=templinst)_ZN3pcl25SampleConsensusModelPlaneINS_11PointXYZHSVEED2Ev@Base 1.6
 (optional=templinst)_ZN3pcl25SampleConsensusModelPlaneINS_11PointXYZRGBEE12isModelValidERKN5Eigen6MatrixIfLin1ELi1ELi0ELin1ELi1EEE@Base 1.6
 (optional=templinst)_ZN3pcl25SampleConsensusModelPlaneINS_11PointXYZRGBEEC1ERKN5boost10shared_ptrIKNS_10PointCloudIS1_EEEE@Base 1.6
 (optional=templinst)_ZN3pcl25SampleConsensusModelPlaneINS_11PointXYZRGBEEC2ERKN5boost10shared_ptrIKNS_10PointCloudIS1_EEEE@Base 1.6
 (optional=templinst)_ZN3pcl25SampleConsensusModelPlaneINS_11PointXYZRGBEED0Ev@Base 1.6
 (optional=templinst)_ZN3pcl25SampleConsensusModelPlaneINS_11PointXYZRGBEED1Ev@Base 1.6
 (optional=templinst)_ZN3pcl25SampleConsensusModelPlaneINS_11PointXYZRGBEED2Ev@Base 1.6
 (optional=templinst)_ZN3pcl25SampleConsensusModelPlaneINS_12PointXYZRGBAEE12isModelValidERKN5Eigen6MatrixIfLin1ELi1ELi0ELin1ELi1EEE@Base 1.6
 (optional=templinst)_ZN3pcl25SampleConsensusModelPlaneINS_12PointXYZRGBAEEC1ERKN5boost10shared_ptrIKNS_10PointCloudIS1_EEEE@Base 1.6
 (optional=templinst)_ZN3pcl25SampleConsensusModelPlaneINS_12PointXYZRGBAEEC2ERKN5boost10shared_ptrIKNS_10PointCloudIS1_EEEE@Base 1.6
 (optional=templinst)_ZN3pcl25SampleConsensusModelPlaneINS_12PointXYZRGBAEED0Ev@Base 1.6
 (optional=templinst)_ZN3pcl25SampleConsensusModelPlaneINS_12PointXYZRGBAEED1Ev@Base 1.6
 (optional=templinst)_ZN3pcl25SampleConsensusModelPlaneINS_12PointXYZRGBAEED2Ev@Base 1.6
 (optional=templinst)_ZN3pcl25SampleConsensusModelPlaneINS_12PointXYZRGBLEE12isModelValidERKN5Eigen6MatrixIfLin1ELi1ELi0ELin1ELi1EEE@Base 1.6
 (optional=templinst)_ZN3pcl25SampleConsensusModelPlaneINS_12PointXYZRGBLEEC1ERKN5boost10shared_ptrIKNS_10PointCloudIS1_EEEE@Base 1.6
 (optional=templinst)_ZN3pcl25SampleConsensusModelPlaneINS_12PointXYZRGBLEEC2ERKN5boost10shared_ptrIKNS_10PointCloudIS1_EEEE@Base 1.6
 (optional=templinst)_ZN3pcl25SampleConsensusModelPlaneINS_12PointXYZRGBLEED0Ev@Base 1.6
 (optional=templinst)_ZN3pcl25SampleConsensusModelPlaneINS_12PointXYZRGBLEED1Ev@Base 1.6
 (optional=templinst)_ZN3pcl25SampleConsensusModelPlaneINS_12PointXYZRGBLEED2Ev@Base 1.6
 (optional=templinst)_ZN3pcl25SampleConsensusModelPlaneINS_13InterestPointEE12isModelValidERKN5Eigen6MatrixIfLin1ELi1ELi0ELin1ELi1EEE@Base 1.6
 (optional=templinst)_ZN3pcl25SampleConsensusModelPlaneINS_13InterestPointEEC1ERKN5boost10shared_ptrIKNS_10PointCloudIS1_EEEE@Base 1.6
 (optional=templinst)_ZN3pcl25SampleConsensusModelPlaneINS_13InterestPointEEC2ERKN5boost10shared_ptrIKNS_10PointCloudIS1_EEEE@Base 1.6
 (optional=templinst)_ZN3pcl25SampleConsensusModelPlaneINS_13InterestPointEED0Ev@Base 1.6
 (optional=templinst)_ZN3pcl25SampleConsensusModelPlaneINS_13InterestPointEED1Ev@Base 1.6
 (optional=templinst)_ZN3pcl25SampleConsensusModelPlaneINS_13InterestPointEED2Ev@Base 1.6
 (optional=templinst)_ZN3pcl25SampleConsensusModelPlaneINS_14PointWithRangeEE12isModelValidERKN5Eigen6MatrixIfLin1ELi1ELi0ELin1ELi1EEE@Base 1.6
 (optional=templinst)_ZN3pcl25SampleConsensusModelPlaneINS_14PointWithRangeEEC1ERKN5boost10shared_ptrIKNS_10PointCloudIS1_EEEE@Base 1.6
 (optional=templinst)_ZN3pcl25SampleConsensusModelPlaneINS_14PointWithRangeEEC2ERKN5boost10shared_ptrIKNS_10PointCloudIS1_EEEE@Base 1.6
 (optional=templinst)_ZN3pcl25SampleConsensusModelPlaneINS_14PointWithRangeEED0Ev@Base 1.6
 (optional=templinst)_ZN3pcl25SampleConsensusModelPlaneINS_14PointWithRangeEED1Ev@Base 1.6
 (optional=templinst)_ZN3pcl25SampleConsensusModelPlaneINS_14PointWithRangeEED2Ev@Base 1.6
 (optional=templinst)_ZN3pcl25SampleConsensusModelPlaneINS_14PointWithScaleEE12isModelValidERKN5Eigen6MatrixIfLin1ELi1ELi0ELin1ELi1EEE@Base 1.6
 (optional=templinst)_ZN3pcl25SampleConsensusModelPlaneINS_14PointWithScaleEEC1ERKN5boost10shared_ptrIKNS_10PointCloudIS1_EEEE@Base 1.6
 (optional=templinst)_ZN3pcl25SampleConsensusModelPlaneINS_14PointWithScaleEEC2ERKN5boost10shared_ptrIKNS_10PointCloudIS1_EEEE@Base 1.6
 (optional=templinst)_ZN3pcl25SampleConsensusModelPlaneINS_14PointWithScaleEED0Ev@Base 1.6
 (optional=templinst)_ZN3pcl25SampleConsensusModelPlaneINS_14PointWithScaleEED1Ev@Base 1.6
 (optional=templinst)_ZN3pcl25SampleConsensusModelPlaneINS_14PointWithScaleEED2Ev@Base 1.6
 (optional=templinst)_ZN3pcl25SampleConsensusModelPlaneINS_15PointXYZINormalEE12isModelValidERKN5Eigen6MatrixIfLin1ELi1ELi0ELin1ELi1EEE@Base 1.6
 (optional=templinst)_ZN3pcl25SampleConsensusModelPlaneINS_15PointXYZINormalEEC1ERKN5boost10shared_ptrIKNS_10PointCloudIS1_EEEE@Base 1.6
 (optional=templinst)_ZN3pcl25SampleConsensusModelPlaneINS_15PointXYZINormalEEC2ERKN5boost10shared_ptrIKNS_10PointCloudIS1_EEEE@Base 1.6
 (optional=templinst)_ZN3pcl25SampleConsensusModelPlaneINS_15PointXYZINormalEED0Ev@Base 1.6
 (optional=templinst)_ZN3pcl25SampleConsensusModelPlaneINS_15PointXYZINormalEED1Ev@Base 1.6
 (optional=templinst)_ZN3pcl25SampleConsensusModelPlaneINS_15PointXYZINormalEED2Ev@Base 1.6
 (optional=templinst)_ZN3pcl25SampleConsensusModelPlaneINS_17PointXYZRGBNormalEE12isModelValidERKN5Eigen6MatrixIfLin1ELi1ELi0ELin1ELi1EEE@Base 1.6
 (optional=templinst)_ZN3pcl25SampleConsensusModelPlaneINS_17PointXYZRGBNormalEEC1ERKN5boost10shared_ptrIKNS_10PointCloudIS1_EEEE@Base 1.6
 (optional=templinst)_ZN3pcl25SampleConsensusModelPlaneINS_17PointXYZRGBNormalEEC2ERKN5boost10shared_ptrIKNS_10PointCloudIS1_EEEE@Base 1.6
 (optional=templinst)_ZN3pcl25SampleConsensusModelPlaneINS_17PointXYZRGBNormalEED0Ev@Base 1.6
 (optional=templinst)_ZN3pcl25SampleConsensusModelPlaneINS_17PointXYZRGBNormalEED1Ev@Base 1.6
 (optional=templinst)_ZN3pcl25SampleConsensusModelPlaneINS_17PointXYZRGBNormalEED2Ev@Base 1.6
 (optional=templinst)_ZN3pcl25SampleConsensusModelPlaneINS_18PointWithViewpointEE12isModelValidERKN5Eigen6MatrixIfLin1ELi1ELi0ELin1ELi1EEE@Base 1.6
 (optional=templinst)_ZN3pcl25SampleConsensusModelPlaneINS_18PointWithViewpointEEC1ERKN5boost10shared_ptrIKNS_10PointCloudIS1_EEEE@Base 1.6
 (optional=templinst)_ZN3pcl25SampleConsensusModelPlaneINS_18PointWithViewpointEEC2ERKN5boost10shared_ptrIKNS_10PointCloudIS1_EEEE@Base 1.6
 (optional=templinst)_ZN3pcl25SampleConsensusModelPlaneINS_18PointWithViewpointEED0Ev@Base 1.6
 (optional=templinst)_ZN3pcl25SampleConsensusModelPlaneINS_18PointWithViewpointEED1Ev@Base 1.6
 (optional=templinst)_ZN3pcl25SampleConsensusModelPlaneINS_18PointWithViewpointEED2Ev@Base 1.6
 (optional=templinst)_ZN3pcl25SampleConsensusModelPlaneINS_8PointXYZEE12isModelValidERKN5Eigen6MatrixIfLin1ELi1ELi0ELin1ELi1EEE@Base 1.6
 (optional=templinst)_ZN3pcl25SampleConsensusModelPlaneINS_8PointXYZEEC1ERKN5boost10shared_ptrIKNS_10PointCloudIS1_EEEE@Base 1.6
 (optional=templinst)_ZN3pcl25SampleConsensusModelPlaneINS_8PointXYZEEC2ERKN5boost10shared_ptrIKNS_10PointCloudIS1_EEEE@Base 1.6
 (optional=templinst)_ZN3pcl25SampleConsensusModelPlaneINS_8PointXYZEED0Ev@Base 1.6
 (optional=templinst)_ZN3pcl25SampleConsensusModelPlaneINS_8PointXYZEED1Ev@Base 1.6
 (optional=templinst)_ZN3pcl25SampleConsensusModelPlaneINS_8PointXYZEED2Ev@Base 1.6
 (optional=templinst)_ZN3pcl25SampleConsensusModelPlaneINS_9PointXYZIEE12isModelValidERKN5Eigen6MatrixIfLin1ELi1ELi0ELin1ELi1EEE@Base 1.6
 (optional=templinst)_ZN3pcl25SampleConsensusModelPlaneINS_9PointXYZIEEC1ERKN5boost10shared_ptrIKNS_10PointCloudIS1_EEEE@Base 1.6
 (optional=templinst)_ZN3pcl25SampleConsensusModelPlaneINS_9PointXYZIEEC2ERKN5boost10shared_ptrIKNS_10PointCloudIS1_EEEE@Base 1.6
 (optional=templinst)_ZN3pcl25SampleConsensusModelPlaneINS_9PointXYZIEED0Ev@Base 1.6
 (optional=templinst)_ZN3pcl25SampleConsensusModelPlaneINS_9PointXYZIEED1Ev@Base 1.6
 (optional=templinst)_ZN3pcl25SampleConsensusModelPlaneINS_9PointXYZIEED2Ev@Base 1.6
 (optional=templinst)_ZN3pcl25SampleConsensusModelPlaneINS_9PointXYZLEE12isModelValidERKN5Eigen6MatrixIfLin1ELi1ELi0ELin1ELi1EEE@Base 1.6
 (optional=templinst)_ZN3pcl25SampleConsensusModelPlaneINS_9PointXYZLEEC1ERKN5boost10shared_ptrIKNS_10PointCloudIS1_EEEE@Base 1.6
 (optional=templinst)_ZN3pcl25SampleConsensusModelPlaneINS_9PointXYZLEEC2ERKN5boost10shared_ptrIKNS_10PointCloudIS1_EEEE@Base 1.6
 (optional=templinst)_ZN3pcl25SampleConsensusModelPlaneINS_9PointXYZLEED0Ev@Base 1.6
 (optional=templinst)_ZN3pcl25SampleConsensusModelPlaneINS_9PointXYZLEED1Ev@Base 1.6
 (optional=templinst)_ZN3pcl25SampleConsensusModelPlaneINS_9PointXYZLEED2Ev@Base 1.6
 (optional=templinst)_ZN3pcl25StatisticalOutlierRemovalIN11sensor_msgs11PointCloud2EE11applyFilterERS2_@Base 1.6
 (optional=templinst)_ZN3pcl25StatisticalOutlierRemovalIN11sensor_msgs11PointCloud2EED0Ev@Base 1.6
 (optional=templinst)_ZN3pcl25StatisticalOutlierRemovalIN11sensor_msgs11PointCloud2EED1Ev@Base 1.6
 (optional=templinst)_ZN3pcl25StatisticalOutlierRemovalIN11sensor_msgs11PointCloud2EED2Ev@Base 1.6
 (optional=templinst)_ZN3pcl25StatisticalOutlierRemovalINS_11PointNormalEE11applyFilterERNS_10PointCloudIS1_EE@Base 1.6
 (optional=templinst)_ZN3pcl25StatisticalOutlierRemovalINS_11PointNormalEE11applyFilterERSt6vectorIiSaIiEE@Base 1.6
 (optional=templinst)_ZN3pcl25StatisticalOutlierRemovalINS_11PointNormalEE18applyFilterIndicesERSt6vectorIiSaIiEE@Base 1.6
 (optional=templinst)_ZN3pcl25StatisticalOutlierRemovalINS_11PointNormalEE18getStddevMulThreshEv@Base 1.6
 (optional=templinst)_ZN3pcl25StatisticalOutlierRemovalINS_11PointNormalEE18setStddevMulThreshEd@Base 1.6
 (optional=templinst)_ZN3pcl25StatisticalOutlierRemovalINS_11PointNormalEE8getMeanKEv@Base 1.6
 (optional=templinst)_ZN3pcl25StatisticalOutlierRemovalINS_11PointNormalEE8setMeanKEi@Base 1.6
 (optional=templinst)_ZN3pcl25StatisticalOutlierRemovalINS_11PointNormalEEC1Eb@Base 1.6
 (optional=templinst)_ZN3pcl25StatisticalOutlierRemovalINS_11PointNormalEEC2Eb@Base 1.6
 (optional=templinst)_ZN3pcl25StatisticalOutlierRemovalINS_11PointNormalEED0Ev@Base 1.6
 (optional=templinst)_ZN3pcl25StatisticalOutlierRemovalINS_11PointNormalEED1Ev@Base 1.6
 (optional=templinst)_ZN3pcl25StatisticalOutlierRemovalINS_11PointNormalEED2Ev@Base 1.6
 (optional=templinst)_ZN3pcl25StatisticalOutlierRemovalINS_11PointXYZHSVEE11applyFilterERNS_10PointCloudIS1_EE@Base 1.6
 (optional=templinst)_ZN3pcl25StatisticalOutlierRemovalINS_11PointXYZHSVEE11applyFilterERSt6vectorIiSaIiEE@Base 1.6
 (optional=templinst)_ZN3pcl25StatisticalOutlierRemovalINS_11PointXYZHSVEE18applyFilterIndicesERSt6vectorIiSaIiEE@Base 1.6
 (optional=templinst)_ZN3pcl25StatisticalOutlierRemovalINS_11PointXYZHSVEE18getStddevMulThreshEv@Base 1.6
 (optional=templinst)_ZN3pcl25StatisticalOutlierRemovalINS_11PointXYZHSVEE18setStddevMulThreshEd@Base 1.6
 (optional=templinst)_ZN3pcl25StatisticalOutlierRemovalINS_11PointXYZHSVEE8getMeanKEv@Base 1.6
 (optional=templinst)_ZN3pcl25StatisticalOutlierRemovalINS_11PointXYZHSVEE8setMeanKEi@Base 1.6
 (optional=templinst)_ZN3pcl25StatisticalOutlierRemovalINS_11PointXYZHSVEEC1Eb@Base 1.6
 (optional=templinst)_ZN3pcl25StatisticalOutlierRemovalINS_11PointXYZHSVEEC2Eb@Base 1.6
 (optional=templinst)_ZN3pcl25StatisticalOutlierRemovalINS_11PointXYZHSVEED0Ev@Base 1.6
 (optional=templinst)_ZN3pcl25StatisticalOutlierRemovalINS_11PointXYZHSVEED1Ev@Base 1.6
 (optional=templinst)_ZN3pcl25StatisticalOutlierRemovalINS_11PointXYZHSVEED2Ev@Base 1.6
 (optional=templinst)_ZN3pcl25StatisticalOutlierRemovalINS_11PointXYZRGBEE11applyFilterERNS_10PointCloudIS1_EE@Base 1.6
 (optional=templinst)_ZN3pcl25StatisticalOutlierRemovalINS_11PointXYZRGBEE11applyFilterERSt6vectorIiSaIiEE@Base 1.6
 (optional=templinst)_ZN3pcl25StatisticalOutlierRemovalINS_11PointXYZRGBEE18applyFilterIndicesERSt6vectorIiSaIiEE@Base 1.6
 (optional=templinst)_ZN3pcl25StatisticalOutlierRemovalINS_11PointXYZRGBEE18getStddevMulThreshEv@Base 1.6
 (optional=templinst)_ZN3pcl25StatisticalOutlierRemovalINS_11PointXYZRGBEE18setStddevMulThreshEd@Base 1.6
 (optional=templinst)_ZN3pcl25StatisticalOutlierRemovalINS_11PointXYZRGBEE8getMeanKEv@Base 1.6
 (optional=templinst)_ZN3pcl25StatisticalOutlierRemovalINS_11PointXYZRGBEE8setMeanKEi@Base 1.6
 (optional=templinst)_ZN3pcl25StatisticalOutlierRemovalINS_11PointXYZRGBEEC1Eb@Base 1.6
 (optional=templinst)_ZN3pcl25StatisticalOutlierRemovalINS_11PointXYZRGBEEC2Eb@Base 1.6
 (optional=templinst)_ZN3pcl25StatisticalOutlierRemovalINS_11PointXYZRGBEED0Ev@Base 1.6
 (optional=templinst)_ZN3pcl25StatisticalOutlierRemovalINS_11PointXYZRGBEED1Ev@Base 1.6
 (optional=templinst)_ZN3pcl25StatisticalOutlierRemovalINS_11PointXYZRGBEED2Ev@Base 1.6
 (optional=templinst)_ZN3pcl25StatisticalOutlierRemovalINS_12PointXYZRGBAEE11applyFilterERNS_10PointCloudIS1_EE@Base 1.6
 (optional=templinst)_ZN3pcl25StatisticalOutlierRemovalINS_12PointXYZRGBAEE11applyFilterERSt6vectorIiSaIiEE@Base 1.6
 (optional=templinst)_ZN3pcl25StatisticalOutlierRemovalINS_12PointXYZRGBAEE18applyFilterIndicesERSt6vectorIiSaIiEE@Base 1.6
 (optional=templinst)_ZN3pcl25StatisticalOutlierRemovalINS_12PointXYZRGBAEE18getStddevMulThreshEv@Base 1.6
 (optional=templinst)_ZN3pcl25StatisticalOutlierRemovalINS_12PointXYZRGBAEE18setStddevMulThreshEd@Base 1.6
 (optional=templinst)_ZN3pcl25StatisticalOutlierRemovalINS_12PointXYZRGBAEE8getMeanKEv@Base 1.6
 (optional=templinst)_ZN3pcl25StatisticalOutlierRemovalINS_12PointXYZRGBAEE8setMeanKEi@Base 1.6
 (optional=templinst)_ZN3pcl25StatisticalOutlierRemovalINS_12PointXYZRGBAEEC1Eb@Base 1.6
 (optional=templinst)_ZN3pcl25StatisticalOutlierRemovalINS_12PointXYZRGBAEEC2Eb@Base 1.6
 (optional=templinst)_ZN3pcl25StatisticalOutlierRemovalINS_12PointXYZRGBAEED0Ev@Base 1.6
 (optional=templinst)_ZN3pcl25StatisticalOutlierRemovalINS_12PointXYZRGBAEED1Ev@Base 1.6
 (optional=templinst)_ZN3pcl25StatisticalOutlierRemovalINS_12PointXYZRGBAEED2Ev@Base 1.6
 (optional=templinst)_ZN3pcl25StatisticalOutlierRemovalINS_12PointXYZRGBLEE11applyFilterERNS_10PointCloudIS1_EE@Base 1.6
 (optional=templinst)_ZN3pcl25StatisticalOutlierRemovalINS_12PointXYZRGBLEE11applyFilterERSt6vectorIiSaIiEE@Base 1.6
 (optional=templinst)_ZN3pcl25StatisticalOutlierRemovalINS_12PointXYZRGBLEE18applyFilterIndicesERSt6vectorIiSaIiEE@Base 1.6
 (optional=templinst)_ZN3pcl25StatisticalOutlierRemovalINS_12PointXYZRGBLEE18getStddevMulThreshEv@Base 1.6
 (optional=templinst)_ZN3pcl25StatisticalOutlierRemovalINS_12PointXYZRGBLEE18setStddevMulThreshEd@Base 1.6
 (optional=templinst)_ZN3pcl25StatisticalOutlierRemovalINS_12PointXYZRGBLEE8getMeanKEv@Base 1.6
 (optional=templinst)_ZN3pcl25StatisticalOutlierRemovalINS_12PointXYZRGBLEE8setMeanKEi@Base 1.6
 (optional=templinst)_ZN3pcl25StatisticalOutlierRemovalINS_12PointXYZRGBLEEC1Eb@Base 1.6
 (optional=templinst)_ZN3pcl25StatisticalOutlierRemovalINS_12PointXYZRGBLEEC2Eb@Base 1.6
 (optional=templinst)_ZN3pcl25StatisticalOutlierRemovalINS_12PointXYZRGBLEED0Ev@Base 1.6
 (optional=templinst)_ZN3pcl25StatisticalOutlierRemovalINS_12PointXYZRGBLEED1Ev@Base 1.6
 (optional=templinst)_ZN3pcl25StatisticalOutlierRemovalINS_12PointXYZRGBLEED2Ev@Base 1.6
 (optional=templinst)_ZN3pcl25StatisticalOutlierRemovalINS_13InterestPointEE11applyFilterERNS_10PointCloudIS1_EE@Base 1.6
 (optional=templinst)_ZN3pcl25StatisticalOutlierRemovalINS_13InterestPointEE11applyFilterERSt6vectorIiSaIiEE@Base 1.6
 (optional=templinst)_ZN3pcl25StatisticalOutlierRemovalINS_13InterestPointEE18applyFilterIndicesERSt6vectorIiSaIiEE@Base 1.6
 (optional=templinst)_ZN3pcl25StatisticalOutlierRemovalINS_13InterestPointEE18getStddevMulThreshEv@Base 1.6
 (optional=templinst)_ZN3pcl25StatisticalOutlierRemovalINS_13InterestPointEE18setStddevMulThreshEd@Base 1.6
 (optional=templinst)_ZN3pcl25StatisticalOutlierRemovalINS_13InterestPointEE8getMeanKEv@Base 1.6
 (optional=templinst)_ZN3pcl25StatisticalOutlierRemovalINS_13InterestPointEE8setMeanKEi@Base 1.6
 (optional=templinst)_ZN3pcl25StatisticalOutlierRemovalINS_13InterestPointEEC1Eb@Base 1.6
 (optional=templinst)_ZN3pcl25StatisticalOutlierRemovalINS_13InterestPointEEC2Eb@Base 1.6
 (optional=templinst)_ZN3pcl25StatisticalOutlierRemovalINS_13InterestPointEED0Ev@Base 1.6
 (optional=templinst)_ZN3pcl25StatisticalOutlierRemovalINS_13InterestPointEED1Ev@Base 1.6
 (optional=templinst)_ZN3pcl25StatisticalOutlierRemovalINS_13InterestPointEED2Ev@Base 1.6
 (optional=templinst)_ZN3pcl25StatisticalOutlierRemovalINS_14PointWithRangeEE11applyFilterERNS_10PointCloudIS1_EE@Base 1.6
 (optional=templinst)_ZN3pcl25StatisticalOutlierRemovalINS_14PointWithRangeEE11applyFilterERSt6vectorIiSaIiEE@Base 1.6
 (optional=templinst)_ZN3pcl25StatisticalOutlierRemovalINS_14PointWithRangeEE18applyFilterIndicesERSt6vectorIiSaIiEE@Base 1.6
 (optional=templinst)_ZN3pcl25StatisticalOutlierRemovalINS_14PointWithRangeEE18getStddevMulThreshEv@Base 1.6
 (optional=templinst)_ZN3pcl25StatisticalOutlierRemovalINS_14PointWithRangeEE18setStddevMulThreshEd@Base 1.6
 (optional=templinst)_ZN3pcl25StatisticalOutlierRemovalINS_14PointWithRangeEE8getMeanKEv@Base 1.6
 (optional=templinst)_ZN3pcl25StatisticalOutlierRemovalINS_14PointWithRangeEE8setMeanKEi@Base 1.6
 (optional=templinst)_ZN3pcl25StatisticalOutlierRemovalINS_14PointWithRangeEEC1Eb@Base 1.6
 (optional=templinst)_ZN3pcl25StatisticalOutlierRemovalINS_14PointWithRangeEEC2Eb@Base 1.6
 (optional=templinst)_ZN3pcl25StatisticalOutlierRemovalINS_14PointWithRangeEED0Ev@Base 1.6
 (optional=templinst)_ZN3pcl25StatisticalOutlierRemovalINS_14PointWithRangeEED1Ev@Base 1.6
 (optional=templinst)_ZN3pcl25StatisticalOutlierRemovalINS_14PointWithRangeEED2Ev@Base 1.6
 (optional=templinst)_ZN3pcl25StatisticalOutlierRemovalINS_14PointWithScaleEE11applyFilterERNS_10PointCloudIS1_EE@Base 1.6
 (optional=templinst)_ZN3pcl25StatisticalOutlierRemovalINS_14PointWithScaleEE11applyFilterERSt6vectorIiSaIiEE@Base 1.6
 (optional=templinst)_ZN3pcl25StatisticalOutlierRemovalINS_14PointWithScaleEE18applyFilterIndicesERSt6vectorIiSaIiEE@Base 1.6
 (optional=templinst)_ZN3pcl25StatisticalOutlierRemovalINS_14PointWithScaleEE18getStddevMulThreshEv@Base 1.6
 (optional=templinst)_ZN3pcl25StatisticalOutlierRemovalINS_14PointWithScaleEE18setStddevMulThreshEd@Base 1.6
 (optional=templinst)_ZN3pcl25StatisticalOutlierRemovalINS_14PointWithScaleEE8getMeanKEv@Base 1.6
 (optional=templinst)_ZN3pcl25StatisticalOutlierRemovalINS_14PointWithScaleEE8setMeanKEi@Base 1.6
 (optional=templinst)_ZN3pcl25StatisticalOutlierRemovalINS_14PointWithScaleEEC1Eb@Base 1.6
 (optional=templinst)_ZN3pcl25StatisticalOutlierRemovalINS_14PointWithScaleEEC2Eb@Base 1.6
 (optional=templinst)_ZN3pcl25StatisticalOutlierRemovalINS_14PointWithScaleEED0Ev@Base 1.6
 (optional=templinst)_ZN3pcl25StatisticalOutlierRemovalINS_14PointWithScaleEED1Ev@Base 1.6
 (optional=templinst)_ZN3pcl25StatisticalOutlierRemovalINS_14PointWithScaleEED2Ev@Base 1.6
 (optional=templinst)_ZN3pcl25StatisticalOutlierRemovalINS_15PointXYZINormalEE11applyFilterERNS_10PointCloudIS1_EE@Base 1.6
 (optional=templinst)_ZN3pcl25StatisticalOutlierRemovalINS_15PointXYZINormalEE11applyFilterERSt6vectorIiSaIiEE@Base 1.6
 (optional=templinst)_ZN3pcl25StatisticalOutlierRemovalINS_15PointXYZINormalEE18applyFilterIndicesERSt6vectorIiSaIiEE@Base 1.6
 (optional=templinst)_ZN3pcl25StatisticalOutlierRemovalINS_15PointXYZINormalEE18getStddevMulThreshEv@Base 1.6
 (optional=templinst)_ZN3pcl25StatisticalOutlierRemovalINS_15PointXYZINormalEE18setStddevMulThreshEd@Base 1.6
 (optional=templinst)_ZN3pcl25StatisticalOutlierRemovalINS_15PointXYZINormalEE8getMeanKEv@Base 1.6
 (optional=templinst)_ZN3pcl25StatisticalOutlierRemovalINS_15PointXYZINormalEE8setMeanKEi@Base 1.6
 (optional=templinst)_ZN3pcl25StatisticalOutlierRemovalINS_15PointXYZINormalEEC1Eb@Base 1.6
 (optional=templinst)_ZN3pcl25StatisticalOutlierRemovalINS_15PointXYZINormalEEC2Eb@Base 1.6
 (optional=templinst)_ZN3pcl25StatisticalOutlierRemovalINS_15PointXYZINormalEED0Ev@Base 1.6
 (optional=templinst)_ZN3pcl25StatisticalOutlierRemovalINS_15PointXYZINormalEED1Ev@Base 1.6
 (optional=templinst)_ZN3pcl25StatisticalOutlierRemovalINS_15PointXYZINormalEED2Ev@Base 1.6
 (optional=templinst)_ZN3pcl25StatisticalOutlierRemovalINS_17PointXYZRGBNormalEE11applyFilterERNS_10PointCloudIS1_EE@Base 1.6
 (optional=templinst)_ZN3pcl25StatisticalOutlierRemovalINS_17PointXYZRGBNormalEE11applyFilterERSt6vectorIiSaIiEE@Base 1.6
 (optional=templinst)_ZN3pcl25StatisticalOutlierRemovalINS_17PointXYZRGBNormalEE18applyFilterIndicesERSt6vectorIiSaIiEE@Base 1.6
 (optional=templinst)_ZN3pcl25StatisticalOutlierRemovalINS_17PointXYZRGBNormalEE18getStddevMulThreshEv@Base 1.6
 (optional=templinst)_ZN3pcl25StatisticalOutlierRemovalINS_17PointXYZRGBNormalEE18setStddevMulThreshEd@Base 1.6
 (optional=templinst)_ZN3pcl25StatisticalOutlierRemovalINS_17PointXYZRGBNormalEE8getMeanKEv@Base 1.6
 (optional=templinst)_ZN3pcl25StatisticalOutlierRemovalINS_17PointXYZRGBNormalEE8setMeanKEi@Base 1.6
 (optional=templinst)_ZN3pcl25StatisticalOutlierRemovalINS_17PointXYZRGBNormalEEC1Eb@Base 1.6
 (optional=templinst)_ZN3pcl25StatisticalOutlierRemovalINS_17PointXYZRGBNormalEEC2Eb@Base 1.6
 (optional=templinst)_ZN3pcl25StatisticalOutlierRemovalINS_17PointXYZRGBNormalEED0Ev@Base 1.6
 (optional=templinst)_ZN3pcl25StatisticalOutlierRemovalINS_17PointXYZRGBNormalEED1Ev@Base 1.6
 (optional=templinst)_ZN3pcl25StatisticalOutlierRemovalINS_17PointXYZRGBNormalEED2Ev@Base 1.6
 (optional=templinst)_ZN3pcl25StatisticalOutlierRemovalINS_18PointWithViewpointEE11applyFilterERNS_10PointCloudIS1_EE@Base 1.6
 (optional=templinst)_ZN3pcl25StatisticalOutlierRemovalINS_18PointWithViewpointEE11applyFilterERSt6vectorIiSaIiEE@Base 1.6
 (optional=templinst)_ZN3pcl25StatisticalOutlierRemovalINS_18PointWithViewpointEE18applyFilterIndicesERSt6vectorIiSaIiEE@Base 1.6
 (optional=templinst)_ZN3pcl25StatisticalOutlierRemovalINS_18PointWithViewpointEE18getStddevMulThreshEv@Base 1.6
 (optional=templinst)_ZN3pcl25StatisticalOutlierRemovalINS_18PointWithViewpointEE18setStddevMulThreshEd@Base 1.6
 (optional=templinst)_ZN3pcl25StatisticalOutlierRemovalINS_18PointWithViewpointEE8getMeanKEv@Base 1.6
 (optional=templinst)_ZN3pcl25StatisticalOutlierRemovalINS_18PointWithViewpointEE8setMeanKEi@Base 1.6
 (optional=templinst)_ZN3pcl25StatisticalOutlierRemovalINS_18PointWithViewpointEEC1Eb@Base 1.6
 (optional=templinst)_ZN3pcl25StatisticalOutlierRemovalINS_18PointWithViewpointEEC2Eb@Base 1.6
 (optional=templinst)_ZN3pcl25StatisticalOutlierRemovalINS_18PointWithViewpointEED0Ev@Base 1.6
 (optional=templinst)_ZN3pcl25StatisticalOutlierRemovalINS_18PointWithViewpointEED1Ev@Base 1.6
 (optional=templinst)_ZN3pcl25StatisticalOutlierRemovalINS_18PointWithViewpointEED2Ev@Base 1.6
 (optional=templinst)_ZN3pcl25StatisticalOutlierRemovalINS_8PointXYZEE11applyFilterERNS_10PointCloudIS1_EE@Base 1.6
 (optional=templinst)_ZN3pcl25StatisticalOutlierRemovalINS_8PointXYZEE11applyFilterERSt6vectorIiSaIiEE@Base 1.6
 (optional=templinst)_ZN3pcl25StatisticalOutlierRemovalINS_8PointXYZEE18applyFilterIndicesERSt6vectorIiSaIiEE@Base 1.6
 (optional=templinst)_ZN3pcl25StatisticalOutlierRemovalINS_8PointXYZEE18getStddevMulThreshEv@Base 1.6
 (optional=templinst)_ZN3pcl25StatisticalOutlierRemovalINS_8PointXYZEE18setStddevMulThreshEd@Base 1.6
 (optional=templinst)_ZN3pcl25StatisticalOutlierRemovalINS_8PointXYZEE8getMeanKEv@Base 1.6
 (optional=templinst)_ZN3pcl25StatisticalOutlierRemovalINS_8PointXYZEE8setMeanKEi@Base 1.6
 (optional=templinst)_ZN3pcl25StatisticalOutlierRemovalINS_8PointXYZEEC1Eb@Base 1.6
 (optional=templinst)_ZN3pcl25StatisticalOutlierRemovalINS_8PointXYZEEC2Eb@Base 1.6
 (optional=templinst)_ZN3pcl25StatisticalOutlierRemovalINS_8PointXYZEED0Ev@Base 1.6
 (optional=templinst)_ZN3pcl25StatisticalOutlierRemovalINS_8PointXYZEED1Ev@Base 1.6
 (optional=templinst)_ZN3pcl25StatisticalOutlierRemovalINS_8PointXYZEED2Ev@Base 1.6
 (optional=templinst)_ZN3pcl25StatisticalOutlierRemovalINS_9PointXYZIEE11applyFilterERNS_10PointCloudIS1_EE@Base 1.6
 (optional=templinst)_ZN3pcl25StatisticalOutlierRemovalINS_9PointXYZIEE11applyFilterERSt6vectorIiSaIiEE@Base 1.6
 (optional=templinst)_ZN3pcl25StatisticalOutlierRemovalINS_9PointXYZIEE18applyFilterIndicesERSt6vectorIiSaIiEE@Base 1.6
 (optional=templinst)_ZN3pcl25StatisticalOutlierRemovalINS_9PointXYZIEE18getStddevMulThreshEv@Base 1.6
 (optional=templinst)_ZN3pcl25StatisticalOutlierRemovalINS_9PointXYZIEE18setStddevMulThreshEd@Base 1.6
 (optional=templinst)_ZN3pcl25StatisticalOutlierRemovalINS_9PointXYZIEE8getMeanKEv@Base 1.6
 (optional=templinst)_ZN3pcl25StatisticalOutlierRemovalINS_9PointXYZIEE8setMeanKEi@Base 1.6
 (optional=templinst)_ZN3pcl25StatisticalOutlierRemovalINS_9PointXYZIEEC1Eb@Base 1.6
 (optional=templinst)_ZN3pcl25StatisticalOutlierRemovalINS_9PointXYZIEEC2Eb@Base 1.6
 (optional=templinst)_ZN3pcl25StatisticalOutlierRemovalINS_9PointXYZIEED0Ev@Base 1.6
 (optional=templinst)_ZN3pcl25StatisticalOutlierRemovalINS_9PointXYZIEED1Ev@Base 1.6
 (optional=templinst)_ZN3pcl25StatisticalOutlierRemovalINS_9PointXYZIEED2Ev@Base 1.6
 (optional=templinst)_ZN3pcl25StatisticalOutlierRemovalINS_9PointXYZLEE11applyFilterERNS_10PointCloudIS1_EE@Base 1.6
 (optional=templinst)_ZN3pcl25StatisticalOutlierRemovalINS_9PointXYZLEE11applyFilterERSt6vectorIiSaIiEE@Base 1.6
 (optional=templinst)_ZN3pcl25StatisticalOutlierRemovalINS_9PointXYZLEE18applyFilterIndicesERSt6vectorIiSaIiEE@Base 1.6
 (optional=templinst)_ZN3pcl25StatisticalOutlierRemovalINS_9PointXYZLEE18getStddevMulThreshEv@Base 1.6
 (optional=templinst)_ZN3pcl25StatisticalOutlierRemovalINS_9PointXYZLEE18setStddevMulThreshEd@Base 1.6
 (optional=templinst)_ZN3pcl25StatisticalOutlierRemovalINS_9PointXYZLEE8getMeanKEv@Base 1.6
 (optional=templinst)_ZN3pcl25StatisticalOutlierRemovalINS_9PointXYZLEE8setMeanKEi@Base 1.6
 (optional=templinst)_ZN3pcl25StatisticalOutlierRemovalINS_9PointXYZLEEC1Eb@Base 1.6
 (optional=templinst)_ZN3pcl25StatisticalOutlierRemovalINS_9PointXYZLEEC2Eb@Base 1.6
 (optional=templinst)_ZN3pcl25StatisticalOutlierRemovalINS_9PointXYZLEED0Ev@Base 1.6
 (optional=templinst)_ZN3pcl25StatisticalOutlierRemovalINS_9PointXYZLEED1Ev@Base 1.6
 (optional=templinst)_ZN3pcl25StatisticalOutlierRemovalINS_9PointXYZLEED2Ev@Base 1.6
 (optional=templinst)_ZN3pcl26DefaultPointRepresentationINS_11PointNormalEED0Ev@Base 1.6
 (optional=templinst)_ZN3pcl26DefaultPointRepresentationINS_11PointNormalEED1Ev@Base 1.6
 (optional=templinst)_ZN3pcl26DefaultPointRepresentationINS_11PointNormalEED2Ev@Base 1.6
 (optional=templinst)_ZN3pcl26DefaultPointRepresentationINS_11PointXYZHSVEED0Ev@Base 1.6
 (optional=templinst)_ZN3pcl26DefaultPointRepresentationINS_11PointXYZHSVEED1Ev@Base 1.6
 (optional=templinst)_ZN3pcl26DefaultPointRepresentationINS_11PointXYZHSVEED2Ev@Base 1.6
 (optional=templinst)_ZN3pcl26DefaultPointRepresentationINS_11PointXYZRGBEED0Ev@Base 1.6
 (optional=templinst)_ZN3pcl26DefaultPointRepresentationINS_11PointXYZRGBEED1Ev@Base 1.6
 (optional=templinst)_ZN3pcl26DefaultPointRepresentationINS_11PointXYZRGBEED2Ev@Base 1.6
 (optional=templinst)_ZN3pcl26DefaultPointRepresentationINS_12PointXYZRGBAEED0Ev@Base 1.6
 (optional=templinst)_ZN3pcl26DefaultPointRepresentationINS_12PointXYZRGBAEED1Ev@Base 1.6
 (optional=templinst)_ZN3pcl26DefaultPointRepresentationINS_12PointXYZRGBAEED2Ev@Base 1.6
 (optional=templinst)_ZN3pcl26DefaultPointRepresentationINS_12PointXYZRGBLEED0Ev@Base 1.6
 (optional=templinst)_ZN3pcl26DefaultPointRepresentationINS_12PointXYZRGBLEED1Ev@Base 1.6
 (optional=templinst)_ZN3pcl26DefaultPointRepresentationINS_12PointXYZRGBLEED2Ev@Base 1.6
 (optional=templinst)_ZN3pcl26DefaultPointRepresentationINS_13InterestPointEED0Ev@Base 1.6
 (optional=templinst)_ZN3pcl26DefaultPointRepresentationINS_13InterestPointEED1Ev@Base 1.6
 (optional=templinst)_ZN3pcl26DefaultPointRepresentationINS_13InterestPointEED2Ev@Base 1.6
 (optional=templinst)_ZN3pcl26DefaultPointRepresentationINS_14PointWithRangeEED0Ev@Base 1.6
 (optional=templinst)_ZN3pcl26DefaultPointRepresentationINS_14PointWithRangeEED1Ev@Base 1.6
 (optional=templinst)_ZN3pcl26DefaultPointRepresentationINS_14PointWithRangeEED2Ev@Base 1.6
 (optional=templinst)_ZN3pcl26DefaultPointRepresentationINS_14PointWithScaleEED0Ev@Base 1.6
 (optional=templinst)_ZN3pcl26DefaultPointRepresentationINS_14PointWithScaleEED1Ev@Base 1.6
 (optional=templinst)_ZN3pcl26DefaultPointRepresentationINS_14PointWithScaleEED2Ev@Base 1.6
 (optional=templinst)_ZN3pcl26DefaultPointRepresentationINS_15PointXYZINormalEED0Ev@Base 1.6
 (optional=templinst)_ZN3pcl26DefaultPointRepresentationINS_15PointXYZINormalEED1Ev@Base 1.6
 (optional=templinst)_ZN3pcl26DefaultPointRepresentationINS_15PointXYZINormalEED2Ev@Base 1.6
 (optional=templinst)_ZN3pcl26DefaultPointRepresentationINS_17PointXYZRGBNormalEED0Ev@Base 1.6
 (optional=templinst)_ZN3pcl26DefaultPointRepresentationINS_17PointXYZRGBNormalEED1Ev@Base 1.6
 (optional=templinst)_ZN3pcl26DefaultPointRepresentationINS_17PointXYZRGBNormalEED2Ev@Base 1.6
 (optional=templinst)_ZN3pcl26DefaultPointRepresentationINS_18PointWithViewpointEED0Ev@Base 1.6
 (optional=templinst)_ZN3pcl26DefaultPointRepresentationINS_18PointWithViewpointEED1Ev@Base 1.6
 (optional=templinst)_ZN3pcl26DefaultPointRepresentationINS_18PointWithViewpointEED2Ev@Base 1.6
 (optional=templinst)_ZN3pcl26DefaultPointRepresentationINS_8PointXYZEED0Ev@Base 1.6
 (optional=templinst)_ZN3pcl26DefaultPointRepresentationINS_8PointXYZEED1Ev@Base 1.6
 (optional=templinst)_ZN3pcl26DefaultPointRepresentationINS_8PointXYZEED2Ev@Base 1.6
 (optional=templinst)_ZN3pcl26DefaultPointRepresentationINS_9PointXYZIEED0Ev@Base 1.6
 (optional=templinst)_ZN3pcl26DefaultPointRepresentationINS_9PointXYZIEED1Ev@Base 1.6
 (optional=templinst)_ZN3pcl26DefaultPointRepresentationINS_9PointXYZIEED2Ev@Base 1.6
 (optional=templinst)_ZN3pcl26DefaultPointRepresentationINS_9PointXYZLEED0Ev@Base 1.6
 (optional=templinst)_ZN3pcl26DefaultPointRepresentationINS_9PointXYZLEED1Ev@Base 1.6
 (optional=templinst)_ZN3pcl26DefaultPointRepresentationINS_9PointXYZLEED2Ev@Base 1.6
 (optional=templinst)_ZN3pcl26SampleConsensusModelSphereINS_11PointNormalEE12isModelValidERKN5Eigen6MatrixIfLin1ELi1ELi0ELin1ELi1EEE@Base 1.6
 (optional=templinst)_ZN3pcl26SampleConsensusModelSphereINS_11PointNormalEEC1ERKN5boost10shared_ptrIKNS_10PointCloudIS1_EEEE@Base 1.6
 (optional=templinst)_ZN3pcl26SampleConsensusModelSphereINS_11PointNormalEEC2ERKN5boost10shared_ptrIKNS_10PointCloudIS1_EEEE@Base 1.6
 (optional=templinst)_ZN3pcl26SampleConsensusModelSphereINS_11PointNormalEED0Ev@Base 1.6
 (optional=templinst)_ZN3pcl26SampleConsensusModelSphereINS_11PointNormalEED1Ev@Base 1.6
 (optional=templinst)_ZN3pcl26SampleConsensusModelSphereINS_11PointNormalEED2Ev@Base 1.6
 (optional=templinst)_ZN3pcl26SampleConsensusModelSphereINS_11PointXYZHSVEE12isModelValidERKN5Eigen6MatrixIfLin1ELi1ELi0ELin1ELi1EEE@Base 1.6
 (optional=templinst)_ZN3pcl26SampleConsensusModelSphereINS_11PointXYZHSVEEC1ERKN5boost10shared_ptrIKNS_10PointCloudIS1_EEEE@Base 1.6
 (optional=templinst)_ZN3pcl26SampleConsensusModelSphereINS_11PointXYZHSVEEC2ERKN5boost10shared_ptrIKNS_10PointCloudIS1_EEEE@Base 1.6
 (optional=templinst)_ZN3pcl26SampleConsensusModelSphereINS_11PointXYZHSVEED0Ev@Base 1.6
 (optional=templinst)_ZN3pcl26SampleConsensusModelSphereINS_11PointXYZHSVEED1Ev@Base 1.6
 (optional=templinst)_ZN3pcl26SampleConsensusModelSphereINS_11PointXYZHSVEED2Ev@Base 1.6
 (optional=templinst)_ZN3pcl26SampleConsensusModelSphereINS_11PointXYZRGBEE12isModelValidERKN5Eigen6MatrixIfLin1ELi1ELi0ELin1ELi1EEE@Base 1.6
 (optional=templinst)_ZN3pcl26SampleConsensusModelSphereINS_11PointXYZRGBEEC1ERKN5boost10shared_ptrIKNS_10PointCloudIS1_EEEE@Base 1.6
 (optional=templinst)_ZN3pcl26SampleConsensusModelSphereINS_11PointXYZRGBEEC2ERKN5boost10shared_ptrIKNS_10PointCloudIS1_EEEE@Base 1.6
 (optional=templinst)_ZN3pcl26SampleConsensusModelSphereINS_11PointXYZRGBEED0Ev@Base 1.6
 (optional=templinst)_ZN3pcl26SampleConsensusModelSphereINS_11PointXYZRGBEED1Ev@Base 1.6
 (optional=templinst)_ZN3pcl26SampleConsensusModelSphereINS_11PointXYZRGBEED2Ev@Base 1.6
 (optional=templinst)_ZN3pcl26SampleConsensusModelSphereINS_12PointXYZRGBAEE12isModelValidERKN5Eigen6MatrixIfLin1ELi1ELi0ELin1ELi1EEE@Base 1.6
 (optional=templinst)_ZN3pcl26SampleConsensusModelSphereINS_12PointXYZRGBAEEC1ERKN5boost10shared_ptrIKNS_10PointCloudIS1_EEEE@Base 1.6
 (optional=templinst)_ZN3pcl26SampleConsensusModelSphereINS_12PointXYZRGBAEEC2ERKN5boost10shared_ptrIKNS_10PointCloudIS1_EEEE@Base 1.6
 (optional=templinst)_ZN3pcl26SampleConsensusModelSphereINS_12PointXYZRGBAEED0Ev@Base 1.6
 (optional=templinst)_ZN3pcl26SampleConsensusModelSphereINS_12PointXYZRGBAEED1Ev@Base 1.6
 (optional=templinst)_ZN3pcl26SampleConsensusModelSphereINS_12PointXYZRGBAEED2Ev@Base 1.6
 (optional=templinst)_ZN3pcl26SampleConsensusModelSphereINS_12PointXYZRGBLEE12isModelValidERKN5Eigen6MatrixIfLin1ELi1ELi0ELin1ELi1EEE@Base 1.6
 (optional=templinst)_ZN3pcl26SampleConsensusModelSphereINS_12PointXYZRGBLEEC1ERKN5boost10shared_ptrIKNS_10PointCloudIS1_EEEE@Base 1.6
 (optional=templinst)_ZN3pcl26SampleConsensusModelSphereINS_12PointXYZRGBLEEC2ERKN5boost10shared_ptrIKNS_10PointCloudIS1_EEEE@Base 1.6
 (optional=templinst)_ZN3pcl26SampleConsensusModelSphereINS_12PointXYZRGBLEED0Ev@Base 1.6
 (optional=templinst)_ZN3pcl26SampleConsensusModelSphereINS_12PointXYZRGBLEED1Ev@Base 1.6
 (optional=templinst)_ZN3pcl26SampleConsensusModelSphereINS_12PointXYZRGBLEED2Ev@Base 1.6
 (optional=templinst)_ZN3pcl26SampleConsensusModelSphereINS_13InterestPointEE12isModelValidERKN5Eigen6MatrixIfLin1ELi1ELi0ELin1ELi1EEE@Base 1.6
 (optional=templinst)_ZN3pcl26SampleConsensusModelSphereINS_13InterestPointEEC1ERKN5boost10shared_ptrIKNS_10PointCloudIS1_EEEE@Base 1.6
 (optional=templinst)_ZN3pcl26SampleConsensusModelSphereINS_13InterestPointEEC2ERKN5boost10shared_ptrIKNS_10PointCloudIS1_EEEE@Base 1.6
 (optional=templinst)_ZN3pcl26SampleConsensusModelSphereINS_13InterestPointEED0Ev@Base 1.6
 (optional=templinst)_ZN3pcl26SampleConsensusModelSphereINS_13InterestPointEED1Ev@Base 1.6
 (optional=templinst)_ZN3pcl26SampleConsensusModelSphereINS_13InterestPointEED2Ev@Base 1.6
 (optional=templinst)_ZN3pcl26SampleConsensusModelSphereINS_14PointWithRangeEE12isModelValidERKN5Eigen6MatrixIfLin1ELi1ELi0ELin1ELi1EEE@Base 1.6
 (optional=templinst)_ZN3pcl26SampleConsensusModelSphereINS_14PointWithRangeEEC1ERKN5boost10shared_ptrIKNS_10PointCloudIS1_EEEE@Base 1.6
 (optional=templinst)_ZN3pcl26SampleConsensusModelSphereINS_14PointWithRangeEEC2ERKN5boost10shared_ptrIKNS_10PointCloudIS1_EEEE@Base 1.6
 (optional=templinst)_ZN3pcl26SampleConsensusModelSphereINS_14PointWithRangeEED0Ev@Base 1.6
 (optional=templinst)_ZN3pcl26SampleConsensusModelSphereINS_14PointWithRangeEED1Ev@Base 1.6
 (optional=templinst)_ZN3pcl26SampleConsensusModelSphereINS_14PointWithRangeEED2Ev@Base 1.6
 (optional=templinst)_ZN3pcl26SampleConsensusModelSphereINS_14PointWithScaleEE12isModelValidERKN5Eigen6MatrixIfLin1ELi1ELi0ELin1ELi1EEE@Base 1.6
 (optional=templinst)_ZN3pcl26SampleConsensusModelSphereINS_14PointWithScaleEEC1ERKN5boost10shared_ptrIKNS_10PointCloudIS1_EEEE@Base 1.6
 (optional=templinst)_ZN3pcl26SampleConsensusModelSphereINS_14PointWithScaleEEC2ERKN5boost10shared_ptrIKNS_10PointCloudIS1_EEEE@Base 1.6
 (optional=templinst)_ZN3pcl26SampleConsensusModelSphereINS_14PointWithScaleEED0Ev@Base 1.6
 (optional=templinst)_ZN3pcl26SampleConsensusModelSphereINS_14PointWithScaleEED1Ev@Base 1.6
 (optional=templinst)_ZN3pcl26SampleConsensusModelSphereINS_14PointWithScaleEED2Ev@Base 1.6
 (optional=templinst)_ZN3pcl26SampleConsensusModelSphereINS_15PointXYZINormalEE12isModelValidERKN5Eigen6MatrixIfLin1ELi1ELi0ELin1ELi1EEE@Base 1.6
 (optional=templinst)_ZN3pcl26SampleConsensusModelSphereINS_15PointXYZINormalEEC1ERKN5boost10shared_ptrIKNS_10PointCloudIS1_EEEE@Base 1.6
 (optional=templinst)_ZN3pcl26SampleConsensusModelSphereINS_15PointXYZINormalEEC2ERKN5boost10shared_ptrIKNS_10PointCloudIS1_EEEE@Base 1.6
 (optional=templinst)_ZN3pcl26SampleConsensusModelSphereINS_15PointXYZINormalEED0Ev@Base 1.6
 (optional=templinst)_ZN3pcl26SampleConsensusModelSphereINS_15PointXYZINormalEED1Ev@Base 1.6
 (optional=templinst)_ZN3pcl26SampleConsensusModelSphereINS_15PointXYZINormalEED2Ev@Base 1.6
 (optional=templinst)_ZN3pcl26SampleConsensusModelSphereINS_17PointXYZRGBNormalEE12isModelValidERKN5Eigen6MatrixIfLin1ELi1ELi0ELin1ELi1EEE@Base 1.6
 (optional=templinst)_ZN3pcl26SampleConsensusModelSphereINS_17PointXYZRGBNormalEEC1ERKN5boost10shared_ptrIKNS_10PointCloudIS1_EEEE@Base 1.6
 (optional=templinst)_ZN3pcl26SampleConsensusModelSphereINS_17PointXYZRGBNormalEEC2ERKN5boost10shared_ptrIKNS_10PointCloudIS1_EEEE@Base 1.6
 (optional=templinst)_ZN3pcl26SampleConsensusModelSphereINS_17PointXYZRGBNormalEED0Ev@Base 1.6
 (optional=templinst)_ZN3pcl26SampleConsensusModelSphereINS_17PointXYZRGBNormalEED1Ev@Base 1.6
 (optional=templinst)_ZN3pcl26SampleConsensusModelSphereINS_17PointXYZRGBNormalEED2Ev@Base 1.6
 (optional=templinst)_ZN3pcl26SampleConsensusModelSphereINS_18PointWithViewpointEE12isModelValidERKN5Eigen6MatrixIfLin1ELi1ELi0ELin1ELi1EEE@Base 1.6
 (optional=templinst)_ZN3pcl26SampleConsensusModelSphereINS_18PointWithViewpointEEC1ERKN5boost10shared_ptrIKNS_10PointCloudIS1_EEEE@Base 1.6
 (optional=templinst)_ZN3pcl26SampleConsensusModelSphereINS_18PointWithViewpointEEC2ERKN5boost10shared_ptrIKNS_10PointCloudIS1_EEEE@Base 1.6
 (optional=templinst)_ZN3pcl26SampleConsensusModelSphereINS_18PointWithViewpointEED0Ev@Base 1.6
 (optional=templinst)_ZN3pcl26SampleConsensusModelSphereINS_18PointWithViewpointEED1Ev@Base 1.6
 (optional=templinst)_ZN3pcl26SampleConsensusModelSphereINS_18PointWithViewpointEED2Ev@Base 1.6
 (optional=templinst)_ZN3pcl26SampleConsensusModelSphereINS_8PointXYZEE12isModelValidERKN5Eigen6MatrixIfLin1ELi1ELi0ELin1ELi1EEE@Base 1.6
 (optional=templinst)_ZN3pcl26SampleConsensusModelSphereINS_8PointXYZEEC1ERKN5boost10shared_ptrIKNS_10PointCloudIS1_EEEE@Base 1.6
 (optional=templinst)_ZN3pcl26SampleConsensusModelSphereINS_8PointXYZEEC2ERKN5boost10shared_ptrIKNS_10PointCloudIS1_EEEE@Base 1.6
 (optional=templinst)_ZN3pcl26SampleConsensusModelSphereINS_8PointXYZEED0Ev@Base 1.6
 (optional=templinst)_ZN3pcl26SampleConsensusModelSphereINS_8PointXYZEED1Ev@Base 1.6
 (optional=templinst)_ZN3pcl26SampleConsensusModelSphereINS_8PointXYZEED2Ev@Base 1.6
 (optional=templinst)_ZN3pcl26SampleConsensusModelSphereINS_9PointXYZIEE12isModelValidERKN5Eigen6MatrixIfLin1ELi1ELi0ELin1ELi1EEE@Base 1.6
 (optional=templinst)_ZN3pcl26SampleConsensusModelSphereINS_9PointXYZIEEC1ERKN5boost10shared_ptrIKNS_10PointCloudIS1_EEEE@Base 1.6
 (optional=templinst)_ZN3pcl26SampleConsensusModelSphereINS_9PointXYZIEEC2ERKN5boost10shared_ptrIKNS_10PointCloudIS1_EEEE@Base 1.6
 (optional=templinst)_ZN3pcl26SampleConsensusModelSphereINS_9PointXYZIEED0Ev@Base 1.6
 (optional=templinst)_ZN3pcl26SampleConsensusModelSphereINS_9PointXYZIEED1Ev@Base 1.6
 (optional=templinst)_ZN3pcl26SampleConsensusModelSphereINS_9PointXYZIEED2Ev@Base 1.6
 (optional=templinst)_ZN3pcl26SampleConsensusModelSphereINS_9PointXYZLEE12isModelValidERKN5Eigen6MatrixIfLin1ELi1ELi0ELin1ELi1EEE@Base 1.6
 (optional=templinst)_ZN3pcl26SampleConsensusModelSphereINS_9PointXYZLEEC1ERKN5boost10shared_ptrIKNS_10PointCloudIS1_EEEE@Base 1.6
 (optional=templinst)_ZN3pcl26SampleConsensusModelSphereINS_9PointXYZLEEC2ERKN5boost10shared_ptrIKNS_10PointCloudIS1_EEEE@Base 1.6
 (optional=templinst)_ZN3pcl26SampleConsensusModelSphereINS_9PointXYZLEED0Ev@Base 1.6
 (optional=templinst)_ZN3pcl26SampleConsensusModelSphereINS_9PointXYZLEED1Ev@Base 1.6
 (optional=templinst)_ZN3pcl26SampleConsensusModelSphereINS_9PointXYZLEED2Ev@Base 1.6
 (optional=templinst)_ZN3pcl28SampleConsensusModelCircle2DINS_11PointNormalEEC1ERKN5boost10shared_ptrIKNS_10PointCloudIS1_EEEE@Base 1.6
 (optional=templinst)_ZN3pcl28SampleConsensusModelCircle2DINS_11PointNormalEEC2ERKN5boost10shared_ptrIKNS_10PointCloudIS1_EEEE@Base 1.6
 (optional=templinst)_ZN3pcl28SampleConsensusModelCircle2DINS_11PointNormalEED0Ev@Base 1.6
 (optional=templinst)_ZN3pcl28SampleConsensusModelCircle2DINS_11PointNormalEED1Ev@Base 1.6
 (optional=templinst)_ZN3pcl28SampleConsensusModelCircle2DINS_11PointNormalEED2Ev@Base 1.6
 (optional=templinst)_ZN3pcl28SampleConsensusModelCircle2DINS_11PointXYZHSVEEC1ERKN5boost10shared_ptrIKNS_10PointCloudIS1_EEEE@Base 1.6
 (optional=templinst)_ZN3pcl28SampleConsensusModelCircle2DINS_11PointXYZHSVEEC2ERKN5boost10shared_ptrIKNS_10PointCloudIS1_EEEE@Base 1.6
 (optional=templinst)_ZN3pcl28SampleConsensusModelCircle2DINS_11PointXYZHSVEED0Ev@Base 1.6
 (optional=templinst)_ZN3pcl28SampleConsensusModelCircle2DINS_11PointXYZHSVEED1Ev@Base 1.6
 (optional=templinst)_ZN3pcl28SampleConsensusModelCircle2DINS_11PointXYZHSVEED2Ev@Base 1.6
 (optional=templinst)_ZN3pcl28SampleConsensusModelCircle2DINS_11PointXYZRGBEEC1ERKN5boost10shared_ptrIKNS_10PointCloudIS1_EEEE@Base 1.6
 (optional=templinst)_ZN3pcl28SampleConsensusModelCircle2DINS_11PointXYZRGBEEC2ERKN5boost10shared_ptrIKNS_10PointCloudIS1_EEEE@Base 1.6
 (optional=templinst)_ZN3pcl28SampleConsensusModelCircle2DINS_11PointXYZRGBEED0Ev@Base 1.6
 (optional=templinst)_ZN3pcl28SampleConsensusModelCircle2DINS_11PointXYZRGBEED1Ev@Base 1.6
 (optional=templinst)_ZN3pcl28SampleConsensusModelCircle2DINS_11PointXYZRGBEED2Ev@Base 1.6
 (optional=templinst)_ZN3pcl28SampleConsensusModelCircle2DINS_12PointXYZRGBAEEC1ERKN5boost10shared_ptrIKNS_10PointCloudIS1_EEEE@Base 1.6
 (optional=templinst)_ZN3pcl28SampleConsensusModelCircle2DINS_12PointXYZRGBAEEC2ERKN5boost10shared_ptrIKNS_10PointCloudIS1_EEEE@Base 1.6
 (optional=templinst)_ZN3pcl28SampleConsensusModelCircle2DINS_12PointXYZRGBAEED0Ev@Base 1.6
 (optional=templinst)_ZN3pcl28SampleConsensusModelCircle2DINS_12PointXYZRGBAEED1Ev@Base 1.6
 (optional=templinst)_ZN3pcl28SampleConsensusModelCircle2DINS_12PointXYZRGBAEED2Ev@Base 1.6
 (optional=templinst)_ZN3pcl28SampleConsensusModelCircle2DINS_12PointXYZRGBLEEC1ERKN5boost10shared_ptrIKNS_10PointCloudIS1_EEEE@Base 1.6
 (optional=templinst)_ZN3pcl28SampleConsensusModelCircle2DINS_12PointXYZRGBLEEC2ERKN5boost10shared_ptrIKNS_10PointCloudIS1_EEEE@Base 1.6
 (optional=templinst)_ZN3pcl28SampleConsensusModelCircle2DINS_12PointXYZRGBLEED0Ev@Base 1.6
 (optional=templinst)_ZN3pcl28SampleConsensusModelCircle2DINS_12PointXYZRGBLEED1Ev@Base 1.6
 (optional=templinst)_ZN3pcl28SampleConsensusModelCircle2DINS_12PointXYZRGBLEED2Ev@Base 1.6
 (optional=templinst)_ZN3pcl28SampleConsensusModelCircle2DINS_13InterestPointEEC1ERKN5boost10shared_ptrIKNS_10PointCloudIS1_EEEE@Base 1.6
 (optional=templinst)_ZN3pcl28SampleConsensusModelCircle2DINS_13InterestPointEEC2ERKN5boost10shared_ptrIKNS_10PointCloudIS1_EEEE@Base 1.6
 (optional=templinst)_ZN3pcl28SampleConsensusModelCircle2DINS_13InterestPointEED0Ev@Base 1.6
 (optional=templinst)_ZN3pcl28SampleConsensusModelCircle2DINS_13InterestPointEED1Ev@Base 1.6
 (optional=templinst)_ZN3pcl28SampleConsensusModelCircle2DINS_13InterestPointEED2Ev@Base 1.6
 (optional=templinst)_ZN3pcl28SampleConsensusModelCircle2DINS_14PointWithRangeEEC1ERKN5boost10shared_ptrIKNS_10PointCloudIS1_EEEE@Base 1.6
 (optional=templinst)_ZN3pcl28SampleConsensusModelCircle2DINS_14PointWithRangeEEC2ERKN5boost10shared_ptrIKNS_10PointCloudIS1_EEEE@Base 1.6
 (optional=templinst)_ZN3pcl28SampleConsensusModelCircle2DINS_14PointWithRangeEED0Ev@Base 1.6
 (optional=templinst)_ZN3pcl28SampleConsensusModelCircle2DINS_14PointWithRangeEED1Ev@Base 1.6
 (optional=templinst)_ZN3pcl28SampleConsensusModelCircle2DINS_14PointWithRangeEED2Ev@Base 1.6
 (optional=templinst)_ZN3pcl28SampleConsensusModelCircle2DINS_14PointWithScaleEEC1ERKN5boost10shared_ptrIKNS_10PointCloudIS1_EEEE@Base 1.6
 (optional=templinst)_ZN3pcl28SampleConsensusModelCircle2DINS_14PointWithScaleEEC2ERKN5boost10shared_ptrIKNS_10PointCloudIS1_EEEE@Base 1.6
 (optional=templinst)_ZN3pcl28SampleConsensusModelCircle2DINS_14PointWithScaleEED0Ev@Base 1.6
 (optional=templinst)_ZN3pcl28SampleConsensusModelCircle2DINS_14PointWithScaleEED1Ev@Base 1.6
 (optional=templinst)_ZN3pcl28SampleConsensusModelCircle2DINS_14PointWithScaleEED2Ev@Base 1.6
 (optional=templinst)_ZN3pcl28SampleConsensusModelCircle2DINS_15PointXYZINormalEEC1ERKN5boost10shared_ptrIKNS_10PointCloudIS1_EEEE@Base 1.6
 (optional=templinst)_ZN3pcl28SampleConsensusModelCircle2DINS_15PointXYZINormalEEC2ERKN5boost10shared_ptrIKNS_10PointCloudIS1_EEEE@Base 1.6
 (optional=templinst)_ZN3pcl28SampleConsensusModelCircle2DINS_15PointXYZINormalEED0Ev@Base 1.6
 (optional=templinst)_ZN3pcl28SampleConsensusModelCircle2DINS_15PointXYZINormalEED1Ev@Base 1.6
 (optional=templinst)_ZN3pcl28SampleConsensusModelCircle2DINS_15PointXYZINormalEED2Ev@Base 1.6
 (optional=templinst)_ZN3pcl28SampleConsensusModelCircle2DINS_17PointXYZRGBNormalEEC1ERKN5boost10shared_ptrIKNS_10PointCloudIS1_EEEE@Base 1.6
 (optional=templinst)_ZN3pcl28SampleConsensusModelCircle2DINS_17PointXYZRGBNormalEEC2ERKN5boost10shared_ptrIKNS_10PointCloudIS1_EEEE@Base 1.6
 (optional=templinst)_ZN3pcl28SampleConsensusModelCircle2DINS_17PointXYZRGBNormalEED0Ev@Base 1.6
 (optional=templinst)_ZN3pcl28SampleConsensusModelCircle2DINS_17PointXYZRGBNormalEED1Ev@Base 1.6
 (optional=templinst)_ZN3pcl28SampleConsensusModelCircle2DINS_17PointXYZRGBNormalEED2Ev@Base 1.6
 (optional=templinst)_ZN3pcl28SampleConsensusModelCircle2DINS_18PointWithViewpointEEC1ERKN5boost10shared_ptrIKNS_10PointCloudIS1_EEEE@Base 1.6
 (optional=templinst)_ZN3pcl28SampleConsensusModelCircle2DINS_18PointWithViewpointEEC2ERKN5boost10shared_ptrIKNS_10PointCloudIS1_EEEE@Base 1.6
 (optional=templinst)_ZN3pcl28SampleConsensusModelCircle2DINS_18PointWithViewpointEED0Ev@Base 1.6
 (optional=templinst)_ZN3pcl28SampleConsensusModelCircle2DINS_18PointWithViewpointEED1Ev@Base 1.6
 (optional=templinst)_ZN3pcl28SampleConsensusModelCircle2DINS_18PointWithViewpointEED2Ev@Base 1.6
 (optional=templinst)_ZN3pcl28SampleConsensusModelCircle2DINS_8PointXYZEEC1ERKN5boost10shared_ptrIKNS_10PointCloudIS1_EEEE@Base 1.6
 (optional=templinst)_ZN3pcl28SampleConsensusModelCircle2DINS_8PointXYZEEC2ERKN5boost10shared_ptrIKNS_10PointCloudIS1_EEEE@Base 1.6
 (optional=templinst)_ZN3pcl28SampleConsensusModelCircle2DINS_8PointXYZEED0Ev@Base 1.6
 (optional=templinst)_ZN3pcl28SampleConsensusModelCircle2DINS_8PointXYZEED1Ev@Base 1.6
 (optional=templinst)_ZN3pcl28SampleConsensusModelCircle2DINS_8PointXYZEED2Ev@Base 1.6
 (optional=templinst)_ZN3pcl28SampleConsensusModelCircle2DINS_9PointXYZIEEC1ERKN5boost10shared_ptrIKNS_10PointCloudIS1_EEEE@Base 1.6
 (optional=templinst)_ZN3pcl28SampleConsensusModelCircle2DINS_9PointXYZIEEC2ERKN5boost10shared_ptrIKNS_10PointCloudIS1_EEEE@Base 1.6
 (optional=templinst)_ZN3pcl28SampleConsensusModelCircle2DINS_9PointXYZIEED0Ev@Base 1.6
 (optional=templinst)_ZN3pcl28SampleConsensusModelCircle2DINS_9PointXYZIEED1Ev@Base 1.6
 (optional=templinst)_ZN3pcl28SampleConsensusModelCircle2DINS_9PointXYZIEED2Ev@Base 1.6
 (optional=templinst)_ZN3pcl28SampleConsensusModelCircle2DINS_9PointXYZLEEC1ERKN5boost10shared_ptrIKNS_10PointCloudIS1_EEEE@Base 1.6
 (optional=templinst)_ZN3pcl28SampleConsensusModelCircle2DINS_9PointXYZLEEC2ERKN5boost10shared_ptrIKNS_10PointCloudIS1_EEEE@Base 1.6
 (optional=templinst)_ZN3pcl28SampleConsensusModelCircle2DINS_9PointXYZLEED0Ev@Base 1.6
 (optional=templinst)_ZN3pcl28SampleConsensusModelCircle2DINS_9PointXYZLEED1Ev@Base 1.6
 (optional=templinst)_ZN3pcl28SampleConsensusModelCircle2DINS_9PointXYZLEED2Ev@Base 1.6
 (optional=templinst)_ZN3pcl28SampleConsensusModelCylinderINS_11PointNormalENS_6NormalEEC1ERKN5boost10shared_ptrIKNS_10PointCloudIS1_EEEE@Base 1.6
 (optional=templinst)_ZN3pcl28SampleConsensusModelCylinderINS_11PointNormalENS_6NormalEEC2ERKN5boost10shared_ptrIKNS_10PointCloudIS1_EEEE@Base 1.6
 (optional=templinst)_ZN3pcl28SampleConsensusModelCylinderINS_11PointNormalENS_6NormalEED0Ev@Base 1.6
 (optional=templinst)_ZN3pcl28SampleConsensusModelCylinderINS_11PointNormalENS_6NormalEED1Ev@Base 1.6
 (optional=templinst)_ZN3pcl28SampleConsensusModelCylinderINS_11PointNormalENS_6NormalEED2Ev@Base 1.6
 (optional=templinst)_ZN3pcl28SampleConsensusModelCylinderINS_11PointXYZHSVENS_6NormalEEC1ERKN5boost10shared_ptrIKNS_10PointCloudIS1_EEEE@Base 1.6
 (optional=templinst)_ZN3pcl28SampleConsensusModelCylinderINS_11PointXYZHSVENS_6NormalEEC2ERKN5boost10shared_ptrIKNS_10PointCloudIS1_EEEE@Base 1.6
 (optional=templinst)_ZN3pcl28SampleConsensusModelCylinderINS_11PointXYZHSVENS_6NormalEED0Ev@Base 1.6
 (optional=templinst)_ZN3pcl28SampleConsensusModelCylinderINS_11PointXYZHSVENS_6NormalEED1Ev@Base 1.6
 (optional=templinst)_ZN3pcl28SampleConsensusModelCylinderINS_11PointXYZHSVENS_6NormalEED2Ev@Base 1.6
 (optional=templinst)_ZN3pcl28SampleConsensusModelCylinderINS_11PointXYZRGBENS_6NormalEEC1ERKN5boost10shared_ptrIKNS_10PointCloudIS1_EEEE@Base 1.6
 (optional=templinst)_ZN3pcl28SampleConsensusModelCylinderINS_11PointXYZRGBENS_6NormalEEC2ERKN5boost10shared_ptrIKNS_10PointCloudIS1_EEEE@Base 1.6
 (optional=templinst)_ZN3pcl28SampleConsensusModelCylinderINS_11PointXYZRGBENS_6NormalEED0Ev@Base 1.6
 (optional=templinst)_ZN3pcl28SampleConsensusModelCylinderINS_11PointXYZRGBENS_6NormalEED1Ev@Base 1.6
 (optional=templinst)_ZN3pcl28SampleConsensusModelCylinderINS_11PointXYZRGBENS_6NormalEED2Ev@Base 1.6
 (optional=templinst)_ZN3pcl28SampleConsensusModelCylinderINS_12PointXYZRGBAENS_6NormalEEC1ERKN5boost10shared_ptrIKNS_10PointCloudIS1_EEEE@Base 1.6
 (optional=templinst)_ZN3pcl28SampleConsensusModelCylinderINS_12PointXYZRGBAENS_6NormalEEC2ERKN5boost10shared_ptrIKNS_10PointCloudIS1_EEEE@Base 1.6
 (optional=templinst)_ZN3pcl28SampleConsensusModelCylinderINS_12PointXYZRGBAENS_6NormalEED0Ev@Base 1.6
 (optional=templinst)_ZN3pcl28SampleConsensusModelCylinderINS_12PointXYZRGBAENS_6NormalEED1Ev@Base 1.6
 (optional=templinst)_ZN3pcl28SampleConsensusModelCylinderINS_12PointXYZRGBAENS_6NormalEED2Ev@Base 1.6
 (optional=templinst)_ZN3pcl28SampleConsensusModelCylinderINS_12PointXYZRGBLENS_6NormalEEC1ERKN5boost10shared_ptrIKNS_10PointCloudIS1_EEEE@Base 1.6
 (optional=templinst)_ZN3pcl28SampleConsensusModelCylinderINS_12PointXYZRGBLENS_6NormalEEC2ERKN5boost10shared_ptrIKNS_10PointCloudIS1_EEEE@Base 1.6
 (optional=templinst)_ZN3pcl28SampleConsensusModelCylinderINS_12PointXYZRGBLENS_6NormalEED0Ev@Base 1.6
 (optional=templinst)_ZN3pcl28SampleConsensusModelCylinderINS_12PointXYZRGBLENS_6NormalEED1Ev@Base 1.6
 (optional=templinst)_ZN3pcl28SampleConsensusModelCylinderINS_12PointXYZRGBLENS_6NormalEED2Ev@Base 1.6
 (optional=templinst)_ZN3pcl28SampleConsensusModelCylinderINS_13InterestPointENS_6NormalEEC1ERKN5boost10shared_ptrIKNS_10PointCloudIS1_EEEE@Base 1.6
 (optional=templinst)_ZN3pcl28SampleConsensusModelCylinderINS_13InterestPointENS_6NormalEEC2ERKN5boost10shared_ptrIKNS_10PointCloudIS1_EEEE@Base 1.6
 (optional=templinst)_ZN3pcl28SampleConsensusModelCylinderINS_13InterestPointENS_6NormalEED0Ev@Base 1.6
 (optional=templinst)_ZN3pcl28SampleConsensusModelCylinderINS_13InterestPointENS_6NormalEED1Ev@Base 1.6
 (optional=templinst)_ZN3pcl28SampleConsensusModelCylinderINS_13InterestPointENS_6NormalEED2Ev@Base 1.6
 (optional=templinst)_ZN3pcl28SampleConsensusModelCylinderINS_14PointWithRangeENS_6NormalEEC1ERKN5boost10shared_ptrIKNS_10PointCloudIS1_EEEE@Base 1.6
 (optional=templinst)_ZN3pcl28SampleConsensusModelCylinderINS_14PointWithRangeENS_6NormalEEC2ERKN5boost10shared_ptrIKNS_10PointCloudIS1_EEEE@Base 1.6
 (optional=templinst)_ZN3pcl28SampleConsensusModelCylinderINS_14PointWithRangeENS_6NormalEED0Ev@Base 1.6
 (optional=templinst)_ZN3pcl28SampleConsensusModelCylinderINS_14PointWithRangeENS_6NormalEED1Ev@Base 1.6
 (optional=templinst)_ZN3pcl28SampleConsensusModelCylinderINS_14PointWithRangeENS_6NormalEED2Ev@Base 1.6
 (optional=templinst)_ZN3pcl28SampleConsensusModelCylinderINS_14PointWithScaleENS_6NormalEEC1ERKN5boost10shared_ptrIKNS_10PointCloudIS1_EEEE@Base 1.6
 (optional=templinst)_ZN3pcl28SampleConsensusModelCylinderINS_14PointWithScaleENS_6NormalEEC2ERKN5boost10shared_ptrIKNS_10PointCloudIS1_EEEE@Base 1.6
 (optional=templinst)_ZN3pcl28SampleConsensusModelCylinderINS_14PointWithScaleENS_6NormalEED0Ev@Base 1.6
 (optional=templinst)_ZN3pcl28SampleConsensusModelCylinderINS_14PointWithScaleENS_6NormalEED1Ev@Base 1.6
 (optional=templinst)_ZN3pcl28SampleConsensusModelCylinderINS_14PointWithScaleENS_6NormalEED2Ev@Base 1.6
 (optional=templinst)_ZN3pcl28SampleConsensusModelCylinderINS_15PointXYZINormalENS_6NormalEEC1ERKN5boost10shared_ptrIKNS_10PointCloudIS1_EEEE@Base 1.6
 (optional=templinst)_ZN3pcl28SampleConsensusModelCylinderINS_15PointXYZINormalENS_6NormalEEC2ERKN5boost10shared_ptrIKNS_10PointCloudIS1_EEEE@Base 1.6
 (optional=templinst)_ZN3pcl28SampleConsensusModelCylinderINS_15PointXYZINormalENS_6NormalEED0Ev@Base 1.6
 (optional=templinst)_ZN3pcl28SampleConsensusModelCylinderINS_15PointXYZINormalENS_6NormalEED1Ev@Base 1.6
 (optional=templinst)_ZN3pcl28SampleConsensusModelCylinderINS_15PointXYZINormalENS_6NormalEED2Ev@Base 1.6
 (optional=templinst)_ZN3pcl28SampleConsensusModelCylinderINS_17PointXYZRGBNormalENS_6NormalEEC1ERKN5boost10shared_ptrIKNS_10PointCloudIS1_EEEE@Base 1.6
 (optional=templinst)_ZN3pcl28SampleConsensusModelCylinderINS_17PointXYZRGBNormalENS_6NormalEEC2ERKN5boost10shared_ptrIKNS_10PointCloudIS1_EEEE@Base 1.6
 (optional=templinst)_ZN3pcl28SampleConsensusModelCylinderINS_17PointXYZRGBNormalENS_6NormalEED0Ev@Base 1.6
 (optional=templinst)_ZN3pcl28SampleConsensusModelCylinderINS_17PointXYZRGBNormalENS_6NormalEED1Ev@Base 1.6
 (optional=templinst)_ZN3pcl28SampleConsensusModelCylinderINS_17PointXYZRGBNormalENS_6NormalEED2Ev@Base 1.6
 (optional=templinst)_ZN3pcl28SampleConsensusModelCylinderINS_18PointWithViewpointENS_6NormalEEC1ERKN5boost10shared_ptrIKNS_10PointCloudIS1_EEEE@Base 1.6
 (optional=templinst)_ZN3pcl28SampleConsensusModelCylinderINS_18PointWithViewpointENS_6NormalEEC2ERKN5boost10shared_ptrIKNS_10PointCloudIS1_EEEE@Base 1.6
 (optional=templinst)_ZN3pcl28SampleConsensusModelCylinderINS_18PointWithViewpointENS_6NormalEED0Ev@Base 1.6
 (optional=templinst)_ZN3pcl28SampleConsensusModelCylinderINS_18PointWithViewpointENS_6NormalEED1Ev@Base 1.6
 (optional=templinst)_ZN3pcl28SampleConsensusModelCylinderINS_18PointWithViewpointENS_6NormalEED2Ev@Base 1.6
 (optional=templinst)_ZN3pcl28SampleConsensusModelCylinderINS_8PointXYZENS_6NormalEEC1ERKN5boost10shared_ptrIKNS_10PointCloudIS1_EEEE@Base 1.6
 (optional=templinst)_ZN3pcl28SampleConsensusModelCylinderINS_8PointXYZENS_6NormalEEC2ERKN5boost10shared_ptrIKNS_10PointCloudIS1_EEEE@Base 1.6
 (optional=templinst)_ZN3pcl28SampleConsensusModelCylinderINS_8PointXYZENS_6NormalEED0Ev@Base 1.6
 (optional=templinst)_ZN3pcl28SampleConsensusModelCylinderINS_8PointXYZENS_6NormalEED1Ev@Base 1.6
 (optional=templinst)_ZN3pcl28SampleConsensusModelCylinderINS_8PointXYZENS_6NormalEED2Ev@Base 1.6
 (optional=templinst)_ZN3pcl28SampleConsensusModelCylinderINS_9PointXYZIENS_6NormalEEC1ERKN5boost10shared_ptrIKNS_10PointCloudIS1_EEEE@Base 1.6
 (optional=templinst)_ZN3pcl28SampleConsensusModelCylinderINS_9PointXYZIENS_6NormalEEC2ERKN5boost10shared_ptrIKNS_10PointCloudIS1_EEEE@Base 1.6
 (optional=templinst)_ZN3pcl28SampleConsensusModelCylinderINS_9PointXYZIENS_6NormalEED0Ev@Base 1.6
 (optional=templinst)_ZN3pcl28SampleConsensusModelCylinderINS_9PointXYZIENS_6NormalEED1Ev@Base 1.6
 (optional=templinst)_ZN3pcl28SampleConsensusModelCylinderINS_9PointXYZIENS_6NormalEED2Ev@Base 1.6
 (optional=templinst)_ZN3pcl28SampleConsensusModelCylinderINS_9PointXYZLENS_6NormalEEC1ERKN5boost10shared_ptrIKNS_10PointCloudIS1_EEEE@Base 1.6
 (optional=templinst)_ZN3pcl28SampleConsensusModelCylinderINS_9PointXYZLENS_6NormalEEC2ERKN5boost10shared_ptrIKNS_10PointCloudIS1_EEEE@Base 1.6
 (optional=templinst)_ZN3pcl28SampleConsensusModelCylinderINS_9PointXYZLENS_6NormalEED0Ev@Base 1.6
 (optional=templinst)_ZN3pcl28SampleConsensusModelCylinderINS_9PointXYZLENS_6NormalEED1Ev@Base 1.6
 (optional=templinst)_ZN3pcl28SampleConsensusModelCylinderINS_9PointXYZLENS_6NormalEED2Ev@Base 1.6
 (optional=templinst)_ZN3pcl31SampleConsensusModelFromNormalsINS_11PointNormalENS_6NormalEED0Ev@Base 1.6
 (optional=templinst)_ZN3pcl31SampleConsensusModelFromNormalsINS_11PointNormalENS_6NormalEED1Ev@Base 1.6
 (optional=templinst)_ZN3pcl31SampleConsensusModelFromNormalsINS_11PointNormalENS_6NormalEED2Ev@Base 1.6
 (optional=templinst)_ZN3pcl31SampleConsensusModelFromNormalsINS_11PointXYZHSVENS_6NormalEED0Ev@Base 1.6
 (optional=templinst)_ZN3pcl31SampleConsensusModelFromNormalsINS_11PointXYZHSVENS_6NormalEED1Ev@Base 1.6
 (optional=templinst)_ZN3pcl31SampleConsensusModelFromNormalsINS_11PointXYZHSVENS_6NormalEED2Ev@Base 1.6
 (optional=templinst)_ZN3pcl31SampleConsensusModelFromNormalsINS_11PointXYZRGBENS_6NormalEED0Ev@Base 1.6
 (optional=templinst)_ZN3pcl31SampleConsensusModelFromNormalsINS_11PointXYZRGBENS_6NormalEED1Ev@Base 1.6
 (optional=templinst)_ZN3pcl31SampleConsensusModelFromNormalsINS_11PointXYZRGBENS_6NormalEED2Ev@Base 1.6
 (optional=templinst)_ZN3pcl31SampleConsensusModelFromNormalsINS_12PointXYZRGBAENS_6NormalEED0Ev@Base 1.6
 (optional=templinst)_ZN3pcl31SampleConsensusModelFromNormalsINS_12PointXYZRGBAENS_6NormalEED1Ev@Base 1.6
 (optional=templinst)_ZN3pcl31SampleConsensusModelFromNormalsINS_12PointXYZRGBAENS_6NormalEED2Ev@Base 1.6
 (optional=templinst)_ZN3pcl31SampleConsensusModelFromNormalsINS_12PointXYZRGBLENS_6NormalEED0Ev@Base 1.6
 (optional=templinst)_ZN3pcl31SampleConsensusModelFromNormalsINS_12PointXYZRGBLENS_6NormalEED1Ev@Base 1.6
 (optional=templinst)_ZN3pcl31SampleConsensusModelFromNormalsINS_12PointXYZRGBLENS_6NormalEED2Ev@Base 1.6
 (optional=templinst)_ZN3pcl31SampleConsensusModelFromNormalsINS_13InterestPointENS_6NormalEED0Ev@Base 1.6
 (optional=templinst)_ZN3pcl31SampleConsensusModelFromNormalsINS_13InterestPointENS_6NormalEED1Ev@Base 1.6
 (optional=templinst)_ZN3pcl31SampleConsensusModelFromNormalsINS_13InterestPointENS_6NormalEED2Ev@Base 1.6
 (optional=templinst)_ZN3pcl31SampleConsensusModelFromNormalsINS_14PointWithRangeENS_6NormalEED0Ev@Base 1.6
 (optional=templinst)_ZN3pcl31SampleConsensusModelFromNormalsINS_14PointWithRangeENS_6NormalEED1Ev@Base 1.6
 (optional=templinst)_ZN3pcl31SampleConsensusModelFromNormalsINS_14PointWithRangeENS_6NormalEED2Ev@Base 1.6
 (optional=templinst)_ZN3pcl31SampleConsensusModelFromNormalsINS_14PointWithScaleENS_6NormalEED0Ev@Base 1.6
 (optional=templinst)_ZN3pcl31SampleConsensusModelFromNormalsINS_14PointWithScaleENS_6NormalEED1Ev@Base 1.6
 (optional=templinst)_ZN3pcl31SampleConsensusModelFromNormalsINS_14PointWithScaleENS_6NormalEED2Ev@Base 1.6
 (optional=templinst)_ZN3pcl31SampleConsensusModelFromNormalsINS_15PointXYZINormalENS_6NormalEED0Ev@Base 1.6
 (optional=templinst)_ZN3pcl31SampleConsensusModelFromNormalsINS_15PointXYZINormalENS_6NormalEED1Ev@Base 1.6
 (optional=templinst)_ZN3pcl31SampleConsensusModelFromNormalsINS_15PointXYZINormalENS_6NormalEED2Ev@Base 1.6
 (optional=templinst)_ZN3pcl31SampleConsensusModelFromNormalsINS_17PointXYZRGBNormalENS_6NormalEED0Ev@Base 1.6
 (optional=templinst)_ZN3pcl31SampleConsensusModelFromNormalsINS_17PointXYZRGBNormalENS_6NormalEED1Ev@Base 1.6
 (optional=templinst)_ZN3pcl31SampleConsensusModelFromNormalsINS_17PointXYZRGBNormalENS_6NormalEED2Ev@Base 1.6
 (optional=templinst)_ZN3pcl31SampleConsensusModelFromNormalsINS_18PointWithViewpointENS_6NormalEED0Ev@Base 1.6
 (optional=templinst)_ZN3pcl31SampleConsensusModelFromNormalsINS_18PointWithViewpointENS_6NormalEED1Ev@Base 1.6
 (optional=templinst)_ZN3pcl31SampleConsensusModelFromNormalsINS_18PointWithViewpointENS_6NormalEED2Ev@Base 1.6
 (optional=templinst)_ZN3pcl31SampleConsensusModelFromNormalsINS_8PointXYZENS_6NormalEED0Ev@Base 1.6
 (optional=templinst)_ZN3pcl31SampleConsensusModelFromNormalsINS_8PointXYZENS_6NormalEED1Ev@Base 1.6
 (optional=templinst)_ZN3pcl31SampleConsensusModelFromNormalsINS_8PointXYZENS_6NormalEED2Ev@Base 1.6
 (optional=templinst)_ZN3pcl31SampleConsensusModelFromNormalsINS_9PointXYZIENS_6NormalEED0Ev@Base 1.6
 (optional=templinst)_ZN3pcl31SampleConsensusModelFromNormalsINS_9PointXYZIENS_6NormalEED1Ev@Base 1.6
 (optional=templinst)_ZN3pcl31SampleConsensusModelFromNormalsINS_9PointXYZIENS_6NormalEED2Ev@Base 1.6
 (optional=templinst)_ZN3pcl31SampleConsensusModelFromNormalsINS_9PointXYZLENS_6NormalEED0Ev@Base 1.6
 (optional=templinst)_ZN3pcl31SampleConsensusModelFromNormalsINS_9PointXYZLENS_6NormalEED1Ev@Base 1.6
 (optional=templinst)_ZN3pcl31SampleConsensusModelFromNormalsINS_9PointXYZLENS_6NormalEED2Ev@Base 1.6
 (optional=templinst)_ZN3pcl31SampleConsensusModelNormalPlaneINS_11PointNormalENS_6NormalEEC1ERKN5boost10shared_ptrIKNS_10PointCloudIS1_EEEE@Base 1.6
 (optional=templinst)_ZN3pcl31SampleConsensusModelNormalPlaneINS_11PointNormalENS_6NormalEEC2ERKN5boost10shared_ptrIKNS_10PointCloudIS1_EEEE@Base 1.6
 (optional=templinst)_ZN3pcl31SampleConsensusModelNormalPlaneINS_11PointNormalENS_6NormalEED0Ev@Base 1.6
 (optional=templinst)_ZN3pcl31SampleConsensusModelNormalPlaneINS_11PointNormalENS_6NormalEED1Ev@Base 1.6
 (optional=templinst)_ZN3pcl31SampleConsensusModelNormalPlaneINS_11PointNormalENS_6NormalEED2Ev@Base 1.6
 (optional=templinst)_ZN3pcl31SampleConsensusModelNormalPlaneINS_11PointXYZHSVENS_6NormalEEC1ERKN5boost10shared_ptrIKNS_10PointCloudIS1_EEEE@Base 1.6
 (optional=templinst)_ZN3pcl31SampleConsensusModelNormalPlaneINS_11PointXYZHSVENS_6NormalEEC2ERKN5boost10shared_ptrIKNS_10PointCloudIS1_EEEE@Base 1.6
 (optional=templinst)_ZN3pcl31SampleConsensusModelNormalPlaneINS_11PointXYZHSVENS_6NormalEED0Ev@Base 1.6
 (optional=templinst)_ZN3pcl31SampleConsensusModelNormalPlaneINS_11PointXYZHSVENS_6NormalEED1Ev@Base 1.6
 (optional=templinst)_ZN3pcl31SampleConsensusModelNormalPlaneINS_11PointXYZHSVENS_6NormalEED2Ev@Base 1.6
 (optional=templinst)_ZN3pcl31SampleConsensusModelNormalPlaneINS_11PointXYZRGBENS_6NormalEEC1ERKN5boost10shared_ptrIKNS_10PointCloudIS1_EEEE@Base 1.6
 (optional=templinst)_ZN3pcl31SampleConsensusModelNormalPlaneINS_11PointXYZRGBENS_6NormalEEC2ERKN5boost10shared_ptrIKNS_10PointCloudIS1_EEEE@Base 1.6
 (optional=templinst)_ZN3pcl31SampleConsensusModelNormalPlaneINS_11PointXYZRGBENS_6NormalEED0Ev@Base 1.6
 (optional=templinst)_ZN3pcl31SampleConsensusModelNormalPlaneINS_11PointXYZRGBENS_6NormalEED1Ev@Base 1.6
 (optional=templinst)_ZN3pcl31SampleConsensusModelNormalPlaneINS_11PointXYZRGBENS_6NormalEED2Ev@Base 1.6
 (optional=templinst)_ZN3pcl31SampleConsensusModelNormalPlaneINS_12PointXYZRGBAENS_6NormalEEC1ERKN5boost10shared_ptrIKNS_10PointCloudIS1_EEEE@Base 1.6
 (optional=templinst)_ZN3pcl31SampleConsensusModelNormalPlaneINS_12PointXYZRGBAENS_6NormalEEC2ERKN5boost10shared_ptrIKNS_10PointCloudIS1_EEEE@Base 1.6
 (optional=templinst)_ZN3pcl31SampleConsensusModelNormalPlaneINS_12PointXYZRGBAENS_6NormalEED0Ev@Base 1.6
 (optional=templinst)_ZN3pcl31SampleConsensusModelNormalPlaneINS_12PointXYZRGBAENS_6NormalEED1Ev@Base 1.6
 (optional=templinst)_ZN3pcl31SampleConsensusModelNormalPlaneINS_12PointXYZRGBAENS_6NormalEED2Ev@Base 1.6
 (optional=templinst)_ZN3pcl31SampleConsensusModelNormalPlaneINS_12PointXYZRGBLENS_6NormalEEC1ERKN5boost10shared_ptrIKNS_10PointCloudIS1_EEEE@Base 1.6
 (optional=templinst)_ZN3pcl31SampleConsensusModelNormalPlaneINS_12PointXYZRGBLENS_6NormalEEC2ERKN5boost10shared_ptrIKNS_10PointCloudIS1_EEEE@Base 1.6
 (optional=templinst)_ZN3pcl31SampleConsensusModelNormalPlaneINS_12PointXYZRGBLENS_6NormalEED0Ev@Base 1.6
 (optional=templinst)_ZN3pcl31SampleConsensusModelNormalPlaneINS_12PointXYZRGBLENS_6NormalEED1Ev@Base 1.6
 (optional=templinst)_ZN3pcl31SampleConsensusModelNormalPlaneINS_12PointXYZRGBLENS_6NormalEED2Ev@Base 1.6
 (optional=templinst)_ZN3pcl31SampleConsensusModelNormalPlaneINS_13InterestPointENS_6NormalEEC1ERKN5boost10shared_ptrIKNS_10PointCloudIS1_EEEE@Base 1.6
 (optional=templinst)_ZN3pcl31SampleConsensusModelNormalPlaneINS_13InterestPointENS_6NormalEEC2ERKN5boost10shared_ptrIKNS_10PointCloudIS1_EEEE@Base 1.6
 (optional=templinst)_ZN3pcl31SampleConsensusModelNormalPlaneINS_13InterestPointENS_6NormalEED0Ev@Base 1.6
 (optional=templinst)_ZN3pcl31SampleConsensusModelNormalPlaneINS_13InterestPointENS_6NormalEED1Ev@Base 1.6
 (optional=templinst)_ZN3pcl31SampleConsensusModelNormalPlaneINS_13InterestPointENS_6NormalEED2Ev@Base 1.6
 (optional=templinst)_ZN3pcl31SampleConsensusModelNormalPlaneINS_14PointWithRangeENS_6NormalEEC1ERKN5boost10shared_ptrIKNS_10PointCloudIS1_EEEE@Base 1.6
 (optional=templinst)_ZN3pcl31SampleConsensusModelNormalPlaneINS_14PointWithRangeENS_6NormalEEC2ERKN5boost10shared_ptrIKNS_10PointCloudIS1_EEEE@Base 1.6
 (optional=templinst)_ZN3pcl31SampleConsensusModelNormalPlaneINS_14PointWithRangeENS_6NormalEED0Ev@Base 1.6
 (optional=templinst)_ZN3pcl31SampleConsensusModelNormalPlaneINS_14PointWithRangeENS_6NormalEED1Ev@Base 1.6
 (optional=templinst)_ZN3pcl31SampleConsensusModelNormalPlaneINS_14PointWithRangeENS_6NormalEED2Ev@Base 1.6
 (optional=templinst)_ZN3pcl31SampleConsensusModelNormalPlaneINS_14PointWithScaleENS_6NormalEEC1ERKN5boost10shared_ptrIKNS_10PointCloudIS1_EEEE@Base 1.6
 (optional=templinst)_ZN3pcl31SampleConsensusModelNormalPlaneINS_14PointWithScaleENS_6NormalEEC2ERKN5boost10shared_ptrIKNS_10PointCloudIS1_EEEE@Base 1.6
 (optional=templinst)_ZN3pcl31SampleConsensusModelNormalPlaneINS_14PointWithScaleENS_6NormalEED0Ev@Base 1.6
 (optional=templinst)_ZN3pcl31SampleConsensusModelNormalPlaneINS_14PointWithScaleENS_6NormalEED1Ev@Base 1.6
 (optional=templinst)_ZN3pcl31SampleConsensusModelNormalPlaneINS_14PointWithScaleENS_6NormalEED2Ev@Base 1.6
 (optional=templinst)_ZN3pcl31SampleConsensusModelNormalPlaneINS_15PointXYZINormalENS_6NormalEEC1ERKN5boost10shared_ptrIKNS_10PointCloudIS1_EEEE@Base 1.6
 (optional=templinst)_ZN3pcl31SampleConsensusModelNormalPlaneINS_15PointXYZINormalENS_6NormalEEC2ERKN5boost10shared_ptrIKNS_10PointCloudIS1_EEEE@Base 1.6
 (optional=templinst)_ZN3pcl31SampleConsensusModelNormalPlaneINS_15PointXYZINormalENS_6NormalEED0Ev@Base 1.6
 (optional=templinst)_ZN3pcl31SampleConsensusModelNormalPlaneINS_15PointXYZINormalENS_6NormalEED1Ev@Base 1.6
 (optional=templinst)_ZN3pcl31SampleConsensusModelNormalPlaneINS_15PointXYZINormalENS_6NormalEED2Ev@Base 1.6
 (optional=templinst)_ZN3pcl31SampleConsensusModelNormalPlaneINS_17PointXYZRGBNormalENS_6NormalEEC1ERKN5boost10shared_ptrIKNS_10PointCloudIS1_EEEE@Base 1.6
 (optional=templinst)_ZN3pcl31SampleConsensusModelNormalPlaneINS_17PointXYZRGBNormalENS_6NormalEEC2ERKN5boost10shared_ptrIKNS_10PointCloudIS1_EEEE@Base 1.6
 (optional=templinst)_ZN3pcl31SampleConsensusModelNormalPlaneINS_17PointXYZRGBNormalENS_6NormalEED0Ev@Base 1.6
 (optional=templinst)_ZN3pcl31SampleConsensusModelNormalPlaneINS_17PointXYZRGBNormalENS_6NormalEED1Ev@Base 1.6
 (optional=templinst)_ZN3pcl31SampleConsensusModelNormalPlaneINS_17PointXYZRGBNormalENS_6NormalEED2Ev@Base 1.6
 (optional=templinst)_ZN3pcl31SampleConsensusModelNormalPlaneINS_18PointWithViewpointENS_6NormalEEC1ERKN5boost10shared_ptrIKNS_10PointCloudIS1_EEEE@Base 1.6
 (optional=templinst)_ZN3pcl31SampleConsensusModelNormalPlaneINS_18PointWithViewpointENS_6NormalEEC2ERKN5boost10shared_ptrIKNS_10PointCloudIS1_EEEE@Base 1.6
 (optional=templinst)_ZN3pcl31SampleConsensusModelNormalPlaneINS_18PointWithViewpointENS_6NormalEED0Ev@Base 1.6
 (optional=templinst)_ZN3pcl31SampleConsensusModelNormalPlaneINS_18PointWithViewpointENS_6NormalEED1Ev@Base 1.6
 (optional=templinst)_ZN3pcl31SampleConsensusModelNormalPlaneINS_18PointWithViewpointENS_6NormalEED2Ev@Base 1.6
 (optional=templinst)_ZN3pcl31SampleConsensusModelNormalPlaneINS_8PointXYZENS_6NormalEEC1ERKN5boost10shared_ptrIKNS_10PointCloudIS1_EEEE@Base 1.6
 (optional=templinst)_ZN3pcl31SampleConsensusModelNormalPlaneINS_8PointXYZENS_6NormalEEC2ERKN5boost10shared_ptrIKNS_10PointCloudIS1_EEEE@Base 1.6
 (optional=templinst)_ZN3pcl31SampleConsensusModelNormalPlaneINS_8PointXYZENS_6NormalEED0Ev@Base 1.6
 (optional=templinst)_ZN3pcl31SampleConsensusModelNormalPlaneINS_8PointXYZENS_6NormalEED1Ev@Base 1.6
 (optional=templinst)_ZN3pcl31SampleConsensusModelNormalPlaneINS_8PointXYZENS_6NormalEED2Ev@Base 1.6
 (optional=templinst)_ZN3pcl31SampleConsensusModelNormalPlaneINS_9PointXYZIENS_6NormalEEC1ERKN5boost10shared_ptrIKNS_10PointCloudIS1_EEEE@Base 1.6
 (optional=templinst)_ZN3pcl31SampleConsensusModelNormalPlaneINS_9PointXYZIENS_6NormalEEC2ERKN5boost10shared_ptrIKNS_10PointCloudIS1_EEEE@Base 1.6
 (optional=templinst)_ZN3pcl31SampleConsensusModelNormalPlaneINS_9PointXYZIENS_6NormalEED0Ev@Base 1.6
 (optional=templinst)_ZN3pcl31SampleConsensusModelNormalPlaneINS_9PointXYZIENS_6NormalEED1Ev@Base 1.6
 (optional=templinst)_ZN3pcl31SampleConsensusModelNormalPlaneINS_9PointXYZIENS_6NormalEED2Ev@Base 1.6
 (optional=templinst)_ZN3pcl31SampleConsensusModelNormalPlaneINS_9PointXYZLENS_6NormalEEC1ERKN5boost10shared_ptrIKNS_10PointCloudIS1_EEEE@Base 1.6
 (optional=templinst)_ZN3pcl31SampleConsensusModelNormalPlaneINS_9PointXYZLENS_6NormalEEC2ERKN5boost10shared_ptrIKNS_10PointCloudIS1_EEEE@Base 1.6
 (optional=templinst)_ZN3pcl31SampleConsensusModelNormalPlaneINS_9PointXYZLENS_6NormalEED0Ev@Base 1.6
 (optional=templinst)_ZN3pcl31SampleConsensusModelNormalPlaneINS_9PointXYZLENS_6NormalEED1Ev@Base 1.6
 (optional=templinst)_ZN3pcl31SampleConsensusModelNormalPlaneINS_9PointXYZLENS_6NormalEED2Ev@Base 1.6
 (optional=templinst)_ZN3pcl32SampleConsensusModelNormalSphereINS_11PointNormalENS_6NormalEEC1ERKN5boost10shared_ptrIKNS_10PointCloudIS1_EEEE@Base 1.6
 (optional=templinst)_ZN3pcl32SampleConsensusModelNormalSphereINS_11PointNormalENS_6NormalEEC2ERKN5boost10shared_ptrIKNS_10PointCloudIS1_EEEE@Base 1.6
 (optional=templinst)_ZN3pcl32SampleConsensusModelNormalSphereINS_11PointNormalENS_6NormalEED0Ev@Base 1.6
 (optional=templinst)_ZN3pcl32SampleConsensusModelNormalSphereINS_11PointNormalENS_6NormalEED1Ev@Base 1.6
 (optional=templinst)_ZN3pcl32SampleConsensusModelNormalSphereINS_11PointNormalENS_6NormalEED2Ev@Base 1.6
 (optional=templinst)_ZN3pcl32SampleConsensusModelNormalSphereINS_11PointXYZHSVENS_6NormalEEC1ERKN5boost10shared_ptrIKNS_10PointCloudIS1_EEEE@Base 1.6
 (optional=templinst)_ZN3pcl32SampleConsensusModelNormalSphereINS_11PointXYZHSVENS_6NormalEEC2ERKN5boost10shared_ptrIKNS_10PointCloudIS1_EEEE@Base 1.6
 (optional=templinst)_ZN3pcl32SampleConsensusModelNormalSphereINS_11PointXYZHSVENS_6NormalEED0Ev@Base 1.6
 (optional=templinst)_ZN3pcl32SampleConsensusModelNormalSphereINS_11PointXYZHSVENS_6NormalEED1Ev@Base 1.6
 (optional=templinst)_ZN3pcl32SampleConsensusModelNormalSphereINS_11PointXYZHSVENS_6NormalEED2Ev@Base 1.6
 (optional=templinst)_ZN3pcl32SampleConsensusModelNormalSphereINS_11PointXYZRGBENS_6NormalEEC1ERKN5boost10shared_ptrIKNS_10PointCloudIS1_EEEE@Base 1.6
 (optional=templinst)_ZN3pcl32SampleConsensusModelNormalSphereINS_11PointXYZRGBENS_6NormalEEC2ERKN5boost10shared_ptrIKNS_10PointCloudIS1_EEEE@Base 1.6
 (optional=templinst)_ZN3pcl32SampleConsensusModelNormalSphereINS_11PointXYZRGBENS_6NormalEED0Ev@Base 1.6
 (optional=templinst)_ZN3pcl32SampleConsensusModelNormalSphereINS_11PointXYZRGBENS_6NormalEED1Ev@Base 1.6
 (optional=templinst)_ZN3pcl32SampleConsensusModelNormalSphereINS_11PointXYZRGBENS_6NormalEED2Ev@Base 1.6
 (optional=templinst)_ZN3pcl32SampleConsensusModelNormalSphereINS_12PointXYZRGBAENS_6NormalEEC1ERKN5boost10shared_ptrIKNS_10PointCloudIS1_EEEE@Base 1.6
 (optional=templinst)_ZN3pcl32SampleConsensusModelNormalSphereINS_12PointXYZRGBAENS_6NormalEEC2ERKN5boost10shared_ptrIKNS_10PointCloudIS1_EEEE@Base 1.6
 (optional=templinst)_ZN3pcl32SampleConsensusModelNormalSphereINS_12PointXYZRGBAENS_6NormalEED0Ev@Base 1.6
 (optional=templinst)_ZN3pcl32SampleConsensusModelNormalSphereINS_12PointXYZRGBAENS_6NormalEED1Ev@Base 1.6
 (optional=templinst)_ZN3pcl32SampleConsensusModelNormalSphereINS_12PointXYZRGBAENS_6NormalEED2Ev@Base 1.6
 (optional=templinst)_ZN3pcl32SampleConsensusModelNormalSphereINS_12PointXYZRGBLENS_6NormalEEC1ERKN5boost10shared_ptrIKNS_10PointCloudIS1_EEEE@Base 1.6
 (optional=templinst)_ZN3pcl32SampleConsensusModelNormalSphereINS_12PointXYZRGBLENS_6NormalEEC2ERKN5boost10shared_ptrIKNS_10PointCloudIS1_EEEE@Base 1.6
 (optional=templinst)_ZN3pcl32SampleConsensusModelNormalSphereINS_12PointXYZRGBLENS_6NormalEED0Ev@Base 1.6
 (optional=templinst)_ZN3pcl32SampleConsensusModelNormalSphereINS_12PointXYZRGBLENS_6NormalEED1Ev@Base 1.6
 (optional=templinst)_ZN3pcl32SampleConsensusModelNormalSphereINS_12PointXYZRGBLENS_6NormalEED2Ev@Base 1.6
 (optional=templinst)_ZN3pcl32SampleConsensusModelNormalSphereINS_13InterestPointENS_6NormalEEC1ERKN5boost10shared_ptrIKNS_10PointCloudIS1_EEEE@Base 1.6
 (optional=templinst)_ZN3pcl32SampleConsensusModelNormalSphereINS_13InterestPointENS_6NormalEEC2ERKN5boost10shared_ptrIKNS_10PointCloudIS1_EEEE@Base 1.6
 (optional=templinst)_ZN3pcl32SampleConsensusModelNormalSphereINS_13InterestPointENS_6NormalEED0Ev@Base 1.6
 (optional=templinst)_ZN3pcl32SampleConsensusModelNormalSphereINS_13InterestPointENS_6NormalEED1Ev@Base 1.6
 (optional=templinst)_ZN3pcl32SampleConsensusModelNormalSphereINS_13InterestPointENS_6NormalEED2Ev@Base 1.6
 (optional=templinst)_ZN3pcl32SampleConsensusModelNormalSphereINS_14PointWithRangeENS_6NormalEEC1ERKN5boost10shared_ptrIKNS_10PointCloudIS1_EEEE@Base 1.6
 (optional=templinst)_ZN3pcl32SampleConsensusModelNormalSphereINS_14PointWithRangeENS_6NormalEEC2ERKN5boost10shared_ptrIKNS_10PointCloudIS1_EEEE@Base 1.6
 (optional=templinst)_ZN3pcl32SampleConsensusModelNormalSphereINS_14PointWithRangeENS_6NormalEED0Ev@Base 1.6
 (optional=templinst)_ZN3pcl32SampleConsensusModelNormalSphereINS_14PointWithRangeENS_6NormalEED1Ev@Base 1.6
 (optional=templinst)_ZN3pcl32SampleConsensusModelNormalSphereINS_14PointWithRangeENS_6NormalEED2Ev@Base 1.6
 (optional=templinst)_ZN3pcl32SampleConsensusModelNormalSphereINS_14PointWithScaleENS_6NormalEEC1ERKN5boost10shared_ptrIKNS_10PointCloudIS1_EEEE@Base 1.6
 (optional=templinst)_ZN3pcl32SampleConsensusModelNormalSphereINS_14PointWithScaleENS_6NormalEEC2ERKN5boost10shared_ptrIKNS_10PointCloudIS1_EEEE@Base 1.6
 (optional=templinst)_ZN3pcl32SampleConsensusModelNormalSphereINS_14PointWithScaleENS_6NormalEED0Ev@Base 1.6
 (optional=templinst)_ZN3pcl32SampleConsensusModelNormalSphereINS_14PointWithScaleENS_6NormalEED1Ev@Base 1.6
 (optional=templinst)_ZN3pcl32SampleConsensusModelNormalSphereINS_14PointWithScaleENS_6NormalEED2Ev@Base 1.6
 (optional=templinst)_ZN3pcl32SampleConsensusModelNormalSphereINS_15PointXYZINormalENS_6NormalEEC1ERKN5boost10shared_ptrIKNS_10PointCloudIS1_EEEE@Base 1.6
 (optional=templinst)_ZN3pcl32SampleConsensusModelNormalSphereINS_15PointXYZINormalENS_6NormalEEC2ERKN5boost10shared_ptrIKNS_10PointCloudIS1_EEEE@Base 1.6
 (optional=templinst)_ZN3pcl32SampleConsensusModelNormalSphereINS_15PointXYZINormalENS_6NormalEED0Ev@Base 1.6
 (optional=templinst)_ZN3pcl32SampleConsensusModelNormalSphereINS_15PointXYZINormalENS_6NormalEED1Ev@Base 1.6
 (optional=templinst)_ZN3pcl32SampleConsensusModelNormalSphereINS_15PointXYZINormalENS_6NormalEED2Ev@Base 1.6
 (optional=templinst)_ZN3pcl32SampleConsensusModelNormalSphereINS_17PointXYZRGBNormalENS_6NormalEEC1ERKN5boost10shared_ptrIKNS_10PointCloudIS1_EEEE@Base 1.6
 (optional=templinst)_ZN3pcl32SampleConsensusModelNormalSphereINS_17PointXYZRGBNormalENS_6NormalEEC2ERKN5boost10shared_ptrIKNS_10PointCloudIS1_EEEE@Base 1.6
 (optional=templinst)_ZN3pcl32SampleConsensusModelNormalSphereINS_17PointXYZRGBNormalENS_6NormalEED0Ev@Base 1.6
 (optional=templinst)_ZN3pcl32SampleConsensusModelNormalSphereINS_17PointXYZRGBNormalENS_6NormalEED1Ev@Base 1.6
 (optional=templinst)_ZN3pcl32SampleConsensusModelNormalSphereINS_17PointXYZRGBNormalENS_6NormalEED2Ev@Base 1.6
 (optional=templinst)_ZN3pcl32SampleConsensusModelNormalSphereINS_18PointWithViewpointENS_6NormalEEC1ERKN5boost10shared_ptrIKNS_10PointCloudIS1_EEEE@Base 1.6
 (optional=templinst)_ZN3pcl32SampleConsensusModelNormalSphereINS_18PointWithViewpointENS_6NormalEEC2ERKN5boost10shared_ptrIKNS_10PointCloudIS1_EEEE@Base 1.6
 (optional=templinst)_ZN3pcl32SampleConsensusModelNormalSphereINS_18PointWithViewpointENS_6NormalEED0Ev@Base 1.6
 (optional=templinst)_ZN3pcl32SampleConsensusModelNormalSphereINS_18PointWithViewpointENS_6NormalEED1Ev@Base 1.6
 (optional=templinst)_ZN3pcl32SampleConsensusModelNormalSphereINS_18PointWithViewpointENS_6NormalEED2Ev@Base 1.6
 (optional=templinst)_ZN3pcl32SampleConsensusModelNormalSphereINS_8PointXYZENS_6NormalEEC1ERKN5boost10shared_ptrIKNS_10PointCloudIS1_EEEE@Base 1.6
 (optional=templinst)_ZN3pcl32SampleConsensusModelNormalSphereINS_8PointXYZENS_6NormalEEC2ERKN5boost10shared_ptrIKNS_10PointCloudIS1_EEEE@Base 1.6
 (optional=templinst)_ZN3pcl32SampleConsensusModelNormalSphereINS_8PointXYZENS_6NormalEED0Ev@Base 1.6
 (optional=templinst)_ZN3pcl32SampleConsensusModelNormalSphereINS_8PointXYZENS_6NormalEED1Ev@Base 1.6
 (optional=templinst)_ZN3pcl32SampleConsensusModelNormalSphereINS_8PointXYZENS_6NormalEED2Ev@Base 1.6
 (optional=templinst)_ZN3pcl32SampleConsensusModelNormalSphereINS_9PointXYZIENS_6NormalEEC1ERKN5boost10shared_ptrIKNS_10PointCloudIS1_EEEE@Base 1.6
 (optional=templinst)_ZN3pcl32SampleConsensusModelNormalSphereINS_9PointXYZIENS_6NormalEEC2ERKN5boost10shared_ptrIKNS_10PointCloudIS1_EEEE@Base 1.6
 (optional=templinst)_ZN3pcl32SampleConsensusModelNormalSphereINS_9PointXYZIENS_6NormalEED0Ev@Base 1.6
 (optional=templinst)_ZN3pcl32SampleConsensusModelNormalSphereINS_9PointXYZIENS_6NormalEED1Ev@Base 1.6
 (optional=templinst)_ZN3pcl32SampleConsensusModelNormalSphereINS_9PointXYZIENS_6NormalEED2Ev@Base 1.6
 (optional=templinst)_ZN3pcl32SampleConsensusModelNormalSphereINS_9PointXYZLENS_6NormalEEC1ERKN5boost10shared_ptrIKNS_10PointCloudIS1_EEEE@Base 1.6
 (optional=templinst)_ZN3pcl32SampleConsensusModelNormalSphereINS_9PointXYZLENS_6NormalEEC2ERKN5boost10shared_ptrIKNS_10PointCloudIS1_EEEE@Base 1.6
 (optional=templinst)_ZN3pcl32SampleConsensusModelNormalSphereINS_9PointXYZLENS_6NormalEED0Ev@Base 1.6
 (optional=templinst)_ZN3pcl32SampleConsensusModelNormalSphereINS_9PointXYZLENS_6NormalEED1Ev@Base 1.6
 (optional=templinst)_ZN3pcl32SampleConsensusModelNormalSphereINS_9PointXYZLENS_6NormalEED2Ev@Base 1.6
