# SymbolsHelper-Confirmed: 1.6 amd64
libpcl_octree.so.1.6 libpcl-octree1.6 #MINVER#
 (optional=templinst)_ZN3pcl6octree10OctreeBaseIiNS0_20OctreeContainerDataTIiEENS0_20OctreeContainerEmptyIiEEE10deleteTreeEb@Base 1.6
 (optional=templinst)_ZN3pcl6octree10OctreeBaseIiNS0_20OctreeContainerDataTIiEENS0_20OctreeContainerEmptyIiEEE10removeLeafERKNS0_9OctreeKeyE@Base 1.6
 (optional=templinst)_ZN3pcl6octree10OctreeBaseIiNS0_20OctreeContainerDataTIiEENS0_20OctreeContainerEmptyIiEEE10removeLeafEjjj@Base 1.6
 (optional=templinst)_ZN3pcl6octree10OctreeBaseIiNS0_20OctreeContainerDataTIiEENS0_20OctreeContainerEmptyIiEEE11branchResetERNS0_16OctreeBranchNodeIS5_EE@Base 1.6
 (optional=templinst)_ZN3pcl6octree10OctreeBaseIiNS0_20OctreeContainerDataTIiEENS0_20OctreeContainerEmptyIiEEE11poolCleanUpEv@Base 1.6
 (optional=templinst)_ZN3pcl6octree10OctreeBaseIiNS0_20OctreeContainerDataTIiEENS0_20OctreeContainerEmptyIiEEE12deleteBranchERNS0_16OctreeBranchNodeIS5_EE@Base 1.6
 (optional=templinst)_ZN3pcl6octree10OctreeBaseIiNS0_20OctreeContainerDataTIiEENS0_20OctreeContainerEmptyIiEEE12setTreeDepthEj@Base 1.6
 (optional=templinst)_ZN3pcl6octree10OctreeBaseIiNS0_20OctreeContainerDataTIiEENS0_20OctreeContainerEmptyIiEEE13serializeTreeERSt6vectorIcSaIcEE@Base 1.6
 (optional=templinst)_ZN3pcl6octree10OctreeBaseIiNS0_20OctreeContainerDataTIiEENS0_20OctreeContainerEmptyIiEEE13serializeTreeERSt6vectorIcSaIcEERS7_IiSaIiEE@Base 1.6
 (optional=templinst)_ZN3pcl6octree10OctreeBaseIiNS0_20OctreeContainerDataTIiEENS0_20OctreeContainerEmptyIiEEE14serializeLeafsERSt6vectorIiSaIiEE@Base 1.6
 (optional=templinst)_ZN3pcl6octree10OctreeBaseIiNS0_20OctreeContainerDataTIiEENS0_20OctreeContainerEmptyIiEEE15createLeafChildERNS0_16OctreeBranchNodeIS5_EEhRPNS0_14OctreeLeafNodeIS3_EE@Base 1.6
 (optional=templinst)_ZN3pcl6octree10OctreeBaseIiNS0_20OctreeContainerDataTIiEENS0_20OctreeContainerEmptyIiEEE15deserializeTreeERSt6vectorIcSaIcEE@Base 1.6
 (optional=templinst)_ZN3pcl6octree10OctreeBaseIiNS0_20OctreeContainerDataTIiEENS0_20OctreeContainerEmptyIiEEE15deserializeTreeERSt6vectorIcSaIcEERS7_IiSaIiEE@Base 1.6
 (optional=templinst)_ZN3pcl6octree10OctreeBaseIiNS0_20OctreeContainerDataTIiEENS0_20OctreeContainerEmptyIiEEE15octreeCanResizeEv@Base 1.6
 (optional=templinst)_ZN3pcl6octree10OctreeBaseIiNS0_20OctreeContainerDataTIiEENS0_20OctreeContainerEmptyIiEEE16setMaxVoxelIndexEj@Base 1.6
 (optional=templinst)_ZN3pcl6octree10OctreeBaseIiNS0_20OctreeContainerDataTIiEENS0_20OctreeContainerEmptyIiEEE17createBranchChildERNS0_16OctreeBranchNodeIS5_EEhRPS8_@Base 1.6
 (optional=templinst)_ZN3pcl6octree10OctreeBaseIiNS0_20OctreeContainerDataTIiEENS0_20OctreeContainerEmptyIiEEE17deleteBranchChildERNS0_16OctreeBranchNodeIS5_EEh@Base 1.6
 (optional=templinst)_ZN3pcl6octree10OctreeBaseIiNS0_20OctreeContainerDataTIiEENS0_20OctreeContainerEmptyIiEEE17setBranchChildPtrERNS0_16OctreeBranchNodeIS5_EEhPNS0_10OctreeNodeE@Base 1.6
 (optional=templinst)_ZN3pcl6octree10OctreeBaseIiNS0_20OctreeContainerDataTIiEENS0_20OctreeContainerEmptyIiEEE18enableDynamicDepthEm@Base 1.6
 (optional=templinst)_ZN3pcl6octree10OctreeBaseIiNS0_20OctreeContainerDataTIiEENS0_20OctreeContainerEmptyIiEEE19deleteLeafRecursiveERKNS0_9OctreeKeyEjPNS0_16OctreeBranchNodeIS5_EE@Base 1.6
 (optional=templinst)_ZN3pcl6octree10OctreeBaseIiNS0_20OctreeContainerDataTIiEENS0_20OctreeContainerEmptyIiEEE21getDataFromOctreeNodeEPKNS0_10OctreeNodeERSt6vectorIiSaIiEE@Base 1.6
 (optional=templinst)_ZN3pcl6octree10OctreeBaseIiNS0_20OctreeContainerDataTIiEENS0_20OctreeContainerEmptyIiEEE21getDataFromOctreeNodeEPKNS0_10OctreeNodeERi@Base 1.6
 (optional=templinst)_ZN3pcl6octree10OctreeBaseIiNS0_20OctreeContainerDataTIiEENS0_20OctreeContainerEmptyIiEEE22addDataToLeafRecursiveERKNS0_9OctreeKeyEjRKiPNS0_16OctreeBranchNodeIS5_EE@Base 1.6
 (optional=templinst)_ZN3pcl6octree10OctreeBaseIiNS0_20OctreeContainerDataTIiEENS0_20OctreeContainerEmptyIiEEE23deserializeTreeCallbackERNS0_14OctreeLeafNodeIS3_EERKNS0_9OctreeKeyE@Base 1.6
 (optional=templinst)_ZN3pcl6octree10OctreeBaseIiNS0_20OctreeContainerDataTIiEENS0_20OctreeContainerEmptyIiEEE24deserializeTreeRecursiveEPNS0_16OctreeBranchNodeIS5_EEjRNS0_9OctreeKeyERN9__gnu_cxx17__normal_iteratorIPKcSt6vectorIcSaIcEEEESK_PNSD_IPKiSG_IiSaIiEEEESQ_@Base 1.6
 (optional=templinst)_ZN3pcl6octree10OctreeBaseIiNS0_20OctreeContainerDataTIiEENS0_20OctreeContainerEmptyIiEEE25getDataSizeFromOctreeNodeEPKNS0_10OctreeNodeE@Base 1.6
 (optional=templinst)_ZN3pcl6octree10OctreeBaseIiNS0_20OctreeContainerDataTIiEENS0_20OctreeContainerEmptyIiEEE4Log2Ed@Base 1.6
 (optional=templinst)_ZN3pcl6octree10OctreeBaseIiNS0_20OctreeContainerDataTIiEENS0_20OctreeContainerEmptyIiEEE7addDataERKNS0_9OctreeKeyERKi@Base 1.6
 (optional=templinst)_ZN3pcl6octree10OctreeBaseIiNS0_20OctreeContainerDataTIiEENS0_20OctreeContainerEmptyIiEEE7addDataEjjjRKi@Base 1.6
 (optional=templinst)_ZN3pcl6octree10OctreeBaseIiNS0_20OctreeContainerDataTIiEENS0_20OctreeContainerEmptyIiEEEC1ERKS6_@Base 1.6
 (optional=templinst)_ZN3pcl6octree10OctreeBaseIiNS0_20OctreeContainerDataTIiEENS0_20OctreeContainerEmptyIiEEEC1Ev@Base 1.6
 (optional=templinst)_ZN3pcl6octree10OctreeBaseIiNS0_20OctreeContainerDataTIiEENS0_20OctreeContainerEmptyIiEEEC2ERKS6_@Base 1.6
 (optional=templinst)_ZN3pcl6octree10OctreeBaseIiNS0_20OctreeContainerDataTIiEENS0_20OctreeContainerEmptyIiEEEC2Ev@Base 1.6
 (optional=templinst)_ZN3pcl6octree10OctreeBaseIiNS0_20OctreeContainerDataTIiEENS0_20OctreeContainerEmptyIiEEED0Ev@Base 1.6
 (optional=templinst)_ZN3pcl6octree10OctreeBaseIiNS0_20OctreeContainerDataTIiEENS0_20OctreeContainerEmptyIiEEED1Ev@Base 1.6
 (optional=templinst)_ZN3pcl6octree10OctreeBaseIiNS0_20OctreeContainerDataTIiEENS0_20OctreeContainerEmptyIiEEED2Ev@Base 1.6
 (optional=templinst)_ZN3pcl6octree10OctreeBaseIiNS0_20OctreeContainerDataTIiEENS0_20OctreeContainerEmptyIiEEEaSERKS6_@Base 1.6
 (optional=templinst)_ZN3pcl6octree10OctreeBaseIiNS0_26OctreeContainerDataTVectorIiEENS0_20OctreeContainerEmptyIiEEE10deleteTreeEb@Base 1.6
 (optional=templinst)_ZN3pcl6octree10OctreeBaseIiNS0_26OctreeContainerDataTVectorIiEENS0_20OctreeContainerEmptyIiEEE10removeLeafERKNS0_9OctreeKeyE@Base 1.6
 (optional=templinst)_ZN3pcl6octree10OctreeBaseIiNS0_26OctreeContainerDataTVectorIiEENS0_20OctreeContainerEmptyIiEEE10removeLeafEjjj@Base 1.6
 (optional=templinst)_ZN3pcl6octree10OctreeBaseIiNS0_26OctreeContainerDataTVectorIiEENS0_20OctreeContainerEmptyIiEEE11branchResetERNS0_16OctreeBranchNodeIS5_EE@Base 1.6
 (optional=templinst)_ZN3pcl6octree10OctreeBaseIiNS0_26OctreeContainerDataTVectorIiEENS0_20OctreeContainerEmptyIiEEE11poolCleanUpEv@Base 1.6
 (optional=templinst)_ZN3pcl6octree10OctreeBaseIiNS0_26OctreeContainerDataTVectorIiEENS0_20OctreeContainerEmptyIiEEE12deleteBranchERNS0_16OctreeBranchNodeIS5_EE@Base 1.6
 (optional=templinst)_ZN3pcl6octree10OctreeBaseIiNS0_26OctreeContainerDataTVectorIiEENS0_20OctreeContainerEmptyIiEEE12setTreeDepthEj@Base 1.6
 (optional=templinst)_ZN3pcl6octree10OctreeBaseIiNS0_26OctreeContainerDataTVectorIiEENS0_20OctreeContainerEmptyIiEEE13serializeTreeERSt6vectorIcSaIcEE@Base 1.6
 (optional=templinst)_ZN3pcl6octree10OctreeBaseIiNS0_26OctreeContainerDataTVectorIiEENS0_20OctreeContainerEmptyIiEEE13serializeTreeERSt6vectorIcSaIcEERS7_IiSaIiEE@Base 1.6
 (optional=templinst)_ZN3pcl6octree10OctreeBaseIiNS0_26OctreeContainerDataTVectorIiEENS0_20OctreeContainerEmptyIiEEE14serializeLeafsERSt6vectorIiSaIiEE@Base 1.6
 (optional=templinst)_ZN3pcl6octree10OctreeBaseIiNS0_26OctreeContainerDataTVectorIiEENS0_20OctreeContainerEmptyIiEEE15createLeafChildERNS0_16OctreeBranchNodeIS5_EEhRPNS0_14OctreeLeafNodeIS3_EE@Base 1.6
 (optional=templinst)_ZN3pcl6octree10OctreeBaseIiNS0_26OctreeContainerDataTVectorIiEENS0_20OctreeContainerEmptyIiEEE15deserializeTreeERSt6vectorIcSaIcEE@Base 1.6
 (optional=templinst)_ZN3pcl6octree10OctreeBaseIiNS0_26OctreeContainerDataTVectorIiEENS0_20OctreeContainerEmptyIiEEE15deserializeTreeERSt6vectorIcSaIcEERS7_IiSaIiEE@Base 1.6
 (optional=templinst)_ZN3pcl6octree10OctreeBaseIiNS0_26OctreeContainerDataTVectorIiEENS0_20OctreeContainerEmptyIiEEE15octreeCanResizeEv@Base 1.6
 (optional=templinst)_ZN3pcl6octree10OctreeBaseIiNS0_26OctreeContainerDataTVectorIiEENS0_20OctreeContainerEmptyIiEEE16setMaxVoxelIndexEj@Base 1.6
 (optional=templinst)_ZN3pcl6octree10OctreeBaseIiNS0_26OctreeContainerDataTVectorIiEENS0_20OctreeContainerEmptyIiEEE17createBranchChildERNS0_16OctreeBranchNodeIS5_EEhRPS8_@Base 1.6
 (optional=templinst)_ZN3pcl6octree10OctreeBaseIiNS0_26OctreeContainerDataTVectorIiEENS0_20OctreeContainerEmptyIiEEE17deleteBranchChildERNS0_16OctreeBranchNodeIS5_EEh@Base 1.6
 (optional=templinst)_ZN3pcl6octree10OctreeBaseIiNS0_26OctreeContainerDataTVectorIiEENS0_20OctreeContainerEmptyIiEEE17setBranchChildPtrERNS0_16OctreeBranchNodeIS5_EEhPNS0_10OctreeNodeE@Base 1.6
 (optional=templinst)_ZN3pcl6octree10OctreeBaseIiNS0_26OctreeContainerDataTVectorIiEENS0_20OctreeContainerEmptyIiEEE18enableDynamicDepthEm@Base 1.6
 (optional=templinst)_ZN3pcl6octree10OctreeBaseIiNS0_26OctreeContainerDataTVectorIiEENS0_20OctreeContainerEmptyIiEEE19deleteLeafRecursiveERKNS0_9OctreeKeyEjPNS0_16OctreeBranchNodeIS5_EE@Base 1.6
 (optional=templinst)_ZN3pcl6octree10OctreeBaseIiNS0_26OctreeContainerDataTVectorIiEENS0_20OctreeContainerEmptyIiEEE21getDataFromOctreeNodeEPKNS0_10OctreeNodeERSt6vectorIiSaIiEE@Base 1.6
 (optional=templinst)_ZN3pcl6octree10OctreeBaseIiNS0_26OctreeContainerDataTVectorIiEENS0_20OctreeContainerEmptyIiEEE21getDataFromOctreeNodeEPKNS0_10OctreeNodeERi@Base 1.6
 (optional=templinst)_ZN3pcl6octree10OctreeBaseIiNS0_26OctreeContainerDataTVectorIiEENS0_20OctreeContainerEmptyIiEEE22addDataToLeafRecursiveERKNS0_9OctreeKeyEjRKiPNS0_16OctreeBranchNodeIS5_EE@Base 1.6
 (optional=templinst)_ZN3pcl6octree10OctreeBaseIiNS0_26OctreeContainerDataTVectorIiEENS0_20OctreeContainerEmptyIiEEE23deserializeTreeCallbackERNS0_14OctreeLeafNodeIS3_EERKNS0_9OctreeKeyE@Base 1.6
 (optional=templinst)_ZN3pcl6octree10OctreeBaseIiNS0_26OctreeContainerDataTVectorIiEENS0_20OctreeContainerEmptyIiEEE24deserializeTreeRecursiveEPNS0_16OctreeBranchNodeIS5_EEjRNS0_9OctreeKeyERN9__gnu_cxx17__normal_iteratorIPKcSt6vectorIcSaIcEEEESK_PNSD_IPKiSG_IiSaIiEEEESQ_@Base 1.6
 (optional=templinst)_ZN3pcl6octree10OctreeBaseIiNS0_26OctreeContainerDataTVectorIiEENS0_20OctreeContainerEmptyIiEEE25getDataSizeFromOctreeNodeEPKNS0_10OctreeNodeE@Base 1.6
 (optional=templinst)_ZN3pcl6octree10OctreeBaseIiNS0_26OctreeContainerDataTVectorIiEENS0_20OctreeContainerEmptyIiEEE4Log2Ed@Base 1.6
 (optional=templinst)_ZN3pcl6octree10OctreeBaseIiNS0_26OctreeContainerDataTVectorIiEENS0_20OctreeContainerEmptyIiEEE7addDataERKNS0_9OctreeKeyERKi@Base 1.6
 (optional=templinst)_ZN3pcl6octree10OctreeBaseIiNS0_26OctreeContainerDataTVectorIiEENS0_20OctreeContainerEmptyIiEEE7addDataEjjjRKi@Base 1.6
 (optional=templinst)_ZN3pcl6octree10OctreeBaseIiNS0_26OctreeContainerDataTVectorIiEENS0_20OctreeContainerEmptyIiEEEC1ERKS6_@Base 1.6
 (optional=templinst)_ZN3pcl6octree10OctreeBaseIiNS0_26OctreeContainerDataTVectorIiEENS0_20OctreeContainerEmptyIiEEEC1Ev@Base 1.6
 (optional=templinst)_ZN3pcl6octree10OctreeBaseIiNS0_26OctreeContainerDataTVectorIiEENS0_20OctreeContainerEmptyIiEEEC2ERKS6_@Base 1.6
 (optional=templinst)_ZN3pcl6octree10OctreeBaseIiNS0_26OctreeContainerDataTVectorIiEENS0_20OctreeContainerEmptyIiEEEC2Ev@Base 1.6
 (optional=templinst)_ZN3pcl6octree10OctreeBaseIiNS0_26OctreeContainerDataTVectorIiEENS0_20OctreeContainerEmptyIiEEED0Ev@Base 1.6
 (optional=templinst)_ZN3pcl6octree10OctreeBaseIiNS0_26OctreeContainerDataTVectorIiEENS0_20OctreeContainerEmptyIiEEED1Ev@Base 1.6
 (optional=templinst)_ZN3pcl6octree10OctreeBaseIiNS0_26OctreeContainerDataTVectorIiEENS0_20OctreeContainerEmptyIiEEED2Ev@Base 1.6
 (optional=templinst)_ZN3pcl6octree10OctreeBaseIiNS0_26OctreeContainerDataTVectorIiEENS0_20OctreeContainerEmptyIiEEEaSERKS6_@Base 1.6
 _ZN3pcl6octree10OctreeNodeD0Ev@Base 1.6
 _ZN3pcl6octree10OctreeNodeD1Ev@Base 1.6
 _ZN3pcl6octree10OctreeNodeD2Ev@Base 1.6
 (optional=templinst)_ZN3pcl6octree14Octree2BufBaseIiNS0_20OctreeContainerDataTIiEENS0_20OctreeContainerEmptyIiEEE10createLeafERKNS0_9OctreeKeyE@Base 1.6
 (optional=templinst)_ZN3pcl6octree14Octree2BufBaseIiNS0_20OctreeContainerDataTIiEENS0_20OctreeContainerEmptyIiEEE10deleteTreeEb@Base 1.6
 (optional=templinst)_ZN3pcl6octree14Octree2BufBaseIiNS0_20OctreeContainerDataTIiEENS0_20OctreeContainerEmptyIiEEE10removeLeafERKNS0_9OctreeKeyE@Base 1.6
 (optional=templinst)_ZN3pcl6octree14Octree2BufBaseIiNS0_20OctreeContainerDataTIiEENS0_20OctreeContainerEmptyIiEEE10removeLeafEjjj@Base 1.6
 (optional=templinst)_ZN3pcl6octree14Octree2BufBaseIiNS0_20OctreeContainerDataTIiEENS0_20OctreeContainerEmptyIiEEE11poolCleanUpEv@Base 1.6
 (optional=templinst)_ZN3pcl6octree14Octree2BufBaseIiNS0_20OctreeContainerDataTIiEENS0_20OctreeContainerEmptyIiEEE11printBinaryEc@Base 1.6
 (optional=templinst)_ZN3pcl6octree14Octree2BufBaseIiNS0_20OctreeContainerDataTIiEENS0_20OctreeContainerEmptyIiEEE12deleteBranchERNS0_18BufferedBranchNodeIS5_EE@Base 1.6
 (optional=templinst)_ZN3pcl6octree14Octree2BufBaseIiNS0_20OctreeContainerDataTIiEENS0_20OctreeContainerEmptyIiEEE12setTreeDepthEj@Base 1.6
 (optional=templinst)_ZN3pcl6octree14Octree2BufBaseIiNS0_20OctreeContainerDataTIiEENS0_20OctreeContainerEmptyIiEEE13serializeTreeERSt6vectorIcSaIcEERS7_IiSaIiEEb@Base 1.6
 (optional=templinst)_ZN3pcl6octree14Octree2BufBaseIiNS0_20OctreeContainerDataTIiEENS0_20OctreeContainerEmptyIiEEE13serializeTreeERSt6vectorIcSaIcEEb@Base 1.6
 (optional=templinst)_ZN3pcl6octree14Octree2BufBaseIiNS0_20OctreeContainerDataTIiEENS0_20OctreeContainerEmptyIiEEE13switchBuffersEv@Base 1.6
 (optional=templinst)_ZN3pcl6octree14Octree2BufBaseIiNS0_20OctreeContainerDataTIiEENS0_20OctreeContainerEmptyIiEEE14serializeLeafsERSt6vectorIiSaIiEE@Base 1.6
 (optional=templinst)_ZN3pcl6octree14Octree2BufBaseIiNS0_20OctreeContainerDataTIiEENS0_20OctreeContainerEmptyIiEEE15createLeafChildERNS0_18BufferedBranchNodeIS5_EEhRPNS0_14OctreeLeafNodeIS3_EE@Base 1.6
 (optional=templinst)_ZN3pcl6octree14Octree2BufBaseIiNS0_20OctreeContainerDataTIiEENS0_20OctreeContainerEmptyIiEEE15deserializeTreeERSt6vectorIcSaIcEERS7_IiSaIiEEb@Base 1.6
 (optional=templinst)_ZN3pcl6octree14Octree2BufBaseIiNS0_20OctreeContainerDataTIiEENS0_20OctreeContainerEmptyIiEEE15deserializeTreeERSt6vectorIcSaIcEEb@Base 1.6
 (optional=templinst)_ZN3pcl6octree14Octree2BufBaseIiNS0_20OctreeContainerDataTIiEENS0_20OctreeContainerEmptyIiEEE15octreeCanResizeEv@Base 1.6
 (optional=templinst)_ZN3pcl6octree14Octree2BufBaseIiNS0_20OctreeContainerDataTIiEENS0_20OctreeContainerEmptyIiEEE16setMaxVoxelIndexEj@Base 1.6
 (optional=templinst)_ZN3pcl6octree14Octree2BufBaseIiNS0_20OctreeContainerDataTIiEENS0_20OctreeContainerEmptyIiEEE17createBranchChildERNS0_18BufferedBranchNodeIS5_EEhRPS8_@Base 1.6
 (optional=templinst)_ZN3pcl6octree14Octree2BufBaseIiNS0_20OctreeContainerDataTIiEENS0_20OctreeContainerEmptyIiEEE17deleteBranchChildERNS0_18BufferedBranchNodeIS5_EEhh@Base 1.6
 (optional=templinst)_ZN3pcl6octree14Octree2BufBaseIiNS0_20OctreeContainerDataTIiEENS0_20OctreeContainerEmptyIiEEE17serializeNewLeafsERSt6vectorIiSaIiEEi@Base 1.6
 (optional=templinst)_ZN3pcl6octree14Octree2BufBaseIiNS0_20OctreeContainerDataTIiEENS0_20OctreeContainerEmptyIiEEE17setBranchChildPtrERNS0_18BufferedBranchNodeIS5_EEhPNS0_10OctreeNodeE@Base 1.6
 (optional=templinst)_ZN3pcl6octree14Octree2BufBaseIiNS0_20OctreeContainerDataTIiEENS0_20OctreeContainerEmptyIiEEE19createLeafRecursiveERKNS0_9OctreeKeyEjPNS0_18BufferedBranchNodeIS5_EEb@Base 1.6
 (optional=templinst)_ZN3pcl6octree14Octree2BufBaseIiNS0_20OctreeContainerDataTIiEENS0_20OctreeContainerEmptyIiEEE19deleteCurrentBufferEv@Base 1.6
 (optional=templinst)_ZN3pcl6octree14Octree2BufBaseIiNS0_20OctreeContainerDataTIiEENS0_20OctreeContainerEmptyIiEEE19deleteLeafRecursiveERKNS0_9OctreeKeyEjPNS0_18BufferedBranchNodeIS5_EE@Base 1.6
 (optional=templinst)_ZN3pcl6octree14Octree2BufBaseIiNS0_20OctreeContainerDataTIiEENS0_20OctreeContainerEmptyIiEEE20deletePreviousBufferEv@Base 1.6
 (optional=templinst)_ZN3pcl6octree14Octree2BufBaseIiNS0_20OctreeContainerDataTIiEENS0_20OctreeContainerEmptyIiEEE20treeCleanUpRecursiveEPNS0_18BufferedBranchNodeIS5_EE@Base 1.6
 (optional=templinst)_ZN3pcl6octree14Octree2BufBaseIiNS0_20OctreeContainerDataTIiEENS0_20OctreeContainerEmptyIiEEE21getDataFromOctreeNodeEPKNS0_10OctreeNodeERSt6vectorIiSaIiEE@Base 1.6
 (optional=templinst)_ZN3pcl6octree14Octree2BufBaseIiNS0_20OctreeContainerDataTIiEENS0_20OctreeContainerEmptyIiEEE21getDataFromOctreeNodeEPKNS0_10OctreeNodeERi@Base 1.6
 (optional=templinst)_ZN3pcl6octree14Octree2BufBaseIiNS0_20OctreeContainerDataTIiEENS0_20OctreeContainerEmptyIiEEE21serializeTreeCallbackERNS0_14OctreeLeafNodeIS3_EERKNS0_9OctreeKeyE@Base 1.6
 (optional=templinst)_ZN3pcl6octree14Octree2BufBaseIiNS0_20OctreeContainerDataTIiEENS0_20OctreeContainerEmptyIiEEE22serializeTreeRecursiveEPNS0_18BufferedBranchNodeIS5_EERNS0_9OctreeKeyEPSt6vectorIcSaIcEEPSC_IiSaIiEEbbm@Base 1.6
 (optional=templinst)_ZN3pcl6octree14Octree2BufBaseIiNS0_20OctreeContainerDataTIiEENS0_20OctreeContainerEmptyIiEEE23deserializeTreeCallbackERNS0_14OctreeLeafNodeIS3_EERKNS0_9OctreeKeyE@Base 1.6
 (optional=templinst)_ZN3pcl6octree14Octree2BufBaseIiNS0_20OctreeContainerDataTIiEENS0_20OctreeContainerEmptyIiEEE24deserializeTreeRecursiveEPNS0_18BufferedBranchNodeIS5_EEjRNS0_9OctreeKeyERN9__gnu_cxx17__normal_iteratorIPKcSt6vectorIcSaIcEEEESK_PNSD_IPKiSG_IiSaIiEEEESQ_bb@Base 1.6
 (optional=templinst)_ZN3pcl6octree14Octree2BufBaseIiNS0_20OctreeContainerDataTIiEENS0_20OctreeContainerEmptyIiEEE25getDataSizeFromOctreeNodeEPKNS0_10OctreeNodeE@Base 1.6
 (optional=templinst)_ZN3pcl6octree14Octree2BufBaseIiNS0_20OctreeContainerDataTIiEENS0_20OctreeContainerEmptyIiEEE4Log2Ed@Base 1.6
 (optional=templinst)_ZN3pcl6octree14Octree2BufBaseIiNS0_20OctreeContainerDataTIiEENS0_20OctreeContainerEmptyIiEEE7addDataERKNS0_9OctreeKeyERKi@Base 1.6
 (optional=templinst)_ZN3pcl6octree14Octree2BufBaseIiNS0_20OctreeContainerDataTIiEENS0_20OctreeContainerEmptyIiEEE7addDataEjjjRKi@Base 1.6
 (optional=templinst)_ZN3pcl6octree14Octree2BufBaseIiNS0_20OctreeContainerDataTIiEENS0_20OctreeContainerEmptyIiEEEC1ERKS6_@Base 1.6
 (optional=templinst)_ZN3pcl6octree14Octree2BufBaseIiNS0_20OctreeContainerDataTIiEENS0_20OctreeContainerEmptyIiEEEC1Ev@Base 1.6
 (optional=templinst)_ZN3pcl6octree14Octree2BufBaseIiNS0_20OctreeContainerDataTIiEENS0_20OctreeContainerEmptyIiEEEC2ERKS6_@Base 1.6
 (optional=templinst)_ZN3pcl6octree14Octree2BufBaseIiNS0_20OctreeContainerDataTIiEENS0_20OctreeContainerEmptyIiEEEC2Ev@Base 1.6
 (optional=templinst)_ZN3pcl6octree14Octree2BufBaseIiNS0_20OctreeContainerDataTIiEENS0_20OctreeContainerEmptyIiEEED0Ev@Base 1.6
 (optional=templinst)_ZN3pcl6octree14Octree2BufBaseIiNS0_20OctreeContainerDataTIiEENS0_20OctreeContainerEmptyIiEEED1Ev@Base 1.6
 (optional=templinst)_ZN3pcl6octree14Octree2BufBaseIiNS0_20OctreeContainerDataTIiEENS0_20OctreeContainerEmptyIiEEED2Ev@Base 1.6
 (optional=templinst)_ZN3pcl6octree14Octree2BufBaseIiNS0_20OctreeContainerDataTIiEENS0_20OctreeContainerEmptyIiEEEaSERKS6_@Base 1.6
 (optional=templinst)_ZN3pcl6octree14Octree2BufBaseIiNS0_26OctreeContainerDataTVectorIiEENS0_20OctreeContainerEmptyIiEEE10createLeafERKNS0_9OctreeKeyE@Base 1.6
 (optional=templinst)_ZN3pcl6octree14Octree2BufBaseIiNS0_26OctreeContainerDataTVectorIiEENS0_20OctreeContainerEmptyIiEEE10deleteTreeEb@Base 1.6
 (optional=templinst)_ZN3pcl6octree14Octree2BufBaseIiNS0_26OctreeContainerDataTVectorIiEENS0_20OctreeContainerEmptyIiEEE10removeLeafERKNS0_9OctreeKeyE@Base 1.6
 (optional=templinst)_ZN3pcl6octree14Octree2BufBaseIiNS0_26OctreeContainerDataTVectorIiEENS0_20OctreeContainerEmptyIiEEE10removeLeafEjjj@Base 1.6
 (optional=templinst)_ZN3pcl6octree14Octree2BufBaseIiNS0_26OctreeContainerDataTVectorIiEENS0_20OctreeContainerEmptyIiEEE11poolCleanUpEv@Base 1.6
 (optional=templinst)_ZN3pcl6octree14Octree2BufBaseIiNS0_26OctreeContainerDataTVectorIiEENS0_20OctreeContainerEmptyIiEEE11printBinaryEc@Base 1.6
 (optional=templinst)_ZN3pcl6octree14Octree2BufBaseIiNS0_26OctreeContainerDataTVectorIiEENS0_20OctreeContainerEmptyIiEEE12deleteBranchERNS0_18BufferedBranchNodeIS5_EE@Base 1.6
 (optional=templinst)_ZN3pcl6octree14Octree2BufBaseIiNS0_26OctreeContainerDataTVectorIiEENS0_20OctreeContainerEmptyIiEEE12setTreeDepthEj@Base 1.6
 (optional=templinst)_ZN3pcl6octree14Octree2BufBaseIiNS0_26OctreeContainerDataTVectorIiEENS0_20OctreeContainerEmptyIiEEE13serializeTreeERSt6vectorIcSaIcEERS7_IiSaIiEEb@Base 1.6
 (optional=templinst)_ZN3pcl6octree14Octree2BufBaseIiNS0_26OctreeContainerDataTVectorIiEENS0_20OctreeContainerEmptyIiEEE13serializeTreeERSt6vectorIcSaIcEEb@Base 1.6
 (optional=templinst)_ZN3pcl6octree14Octree2BufBaseIiNS0_26OctreeContainerDataTVectorIiEENS0_20OctreeContainerEmptyIiEEE13switchBuffersEv@Base 1.6
 (optional=templinst)_ZN3pcl6octree14Octree2BufBaseIiNS0_26OctreeContainerDataTVectorIiEENS0_20OctreeContainerEmptyIiEEE14serializeLeafsERSt6vectorIiSaIiEE@Base 1.6
 (optional=templinst)_ZN3pcl6octree14Octree2BufBaseIiNS0_26OctreeContainerDataTVectorIiEENS0_20OctreeContainerEmptyIiEEE15createLeafChildERNS0_18BufferedBranchNodeIS5_EEhRPNS0_14OctreeLeafNodeIS3_EE@Base 1.6
 (optional=templinst)_ZN3pcl6octree14Octree2BufBaseIiNS0_26OctreeContainerDataTVectorIiEENS0_20OctreeContainerEmptyIiEEE15deserializeTreeERSt6vectorIcSaIcEERS7_IiSaIiEEb@Base 1.6
 (optional=templinst)_ZN3pcl6octree14Octree2BufBaseIiNS0_26OctreeContainerDataTVectorIiEENS0_20OctreeContainerEmptyIiEEE15deserializeTreeERSt6vectorIcSaIcEEb@Base 1.6
 (optional=templinst)_ZN3pcl6octree14Octree2BufBaseIiNS0_26OctreeContainerDataTVectorIiEENS0_20OctreeContainerEmptyIiEEE15octreeCanResizeEv@Base 1.6
 (optional=templinst)_ZN3pcl6octree14Octree2BufBaseIiNS0_26OctreeContainerDataTVectorIiEENS0_20OctreeContainerEmptyIiEEE16setMaxVoxelIndexEj@Base 1.6
 (optional=templinst)_ZN3pcl6octree14Octree2BufBaseIiNS0_26OctreeContainerDataTVectorIiEENS0_20OctreeContainerEmptyIiEEE17createBranchChildERNS0_18BufferedBranchNodeIS5_EEhRPS8_@Base 1.6
 (optional=templinst)_ZN3pcl6octree14Octree2BufBaseIiNS0_26OctreeContainerDataTVectorIiEENS0_20OctreeContainerEmptyIiEEE17deleteBranchChildERNS0_18BufferedBranchNodeIS5_EEhh@Base 1.6
 (optional=templinst)_ZN3pcl6octree14Octree2BufBaseIiNS0_26OctreeContainerDataTVectorIiEENS0_20OctreeContainerEmptyIiEEE17serializeNewLeafsERSt6vectorIiSaIiEEi@Base 1.6
 (optional=templinst)_ZN3pcl6octree14Octree2BufBaseIiNS0_26OctreeContainerDataTVectorIiEENS0_20OctreeContainerEmptyIiEEE17setBranchChildPtrERNS0_18BufferedBranchNodeIS5_EEhPNS0_10OctreeNodeE@Base 1.6
 (optional=templinst)_ZN3pcl6octree14Octree2BufBaseIiNS0_26OctreeContainerDataTVectorIiEENS0_20OctreeContainerEmptyIiEEE19createLeafRecursiveERKNS0_9OctreeKeyEjPNS0_18BufferedBranchNodeIS5_EEb@Base 1.6
 (optional=templinst)_ZN3pcl6octree14Octree2BufBaseIiNS0_26OctreeContainerDataTVectorIiEENS0_20OctreeContainerEmptyIiEEE19deleteCurrentBufferEv@Base 1.6
 (optional=templinst)_ZN3pcl6octree14Octree2BufBaseIiNS0_26OctreeContainerDataTVectorIiEENS0_20OctreeContainerEmptyIiEEE19deleteLeafRecursiveERKNS0_9OctreeKeyEjPNS0_18BufferedBranchNodeIS5_EE@Base 1.6
 (optional=templinst)_ZN3pcl6octree14Octree2BufBaseIiNS0_26OctreeContainerDataTVectorIiEENS0_20OctreeContainerEmptyIiEEE20deletePreviousBufferEv@Base 1.6
 (optional=templinst)_ZN3pcl6octree14Octree2BufBaseIiNS0_26OctreeContainerDataTVectorIiEENS0_20OctreeContainerEmptyIiEEE20treeCleanUpRecursiveEPNS0_18BufferedBranchNodeIS5_EE@Base 1.6
 (optional=templinst)_ZN3pcl6octree14Octree2BufBaseIiNS0_26OctreeContainerDataTVectorIiEENS0_20OctreeContainerEmptyIiEEE21getDataFromOctreeNodeEPKNS0_10OctreeNodeERSt6vectorIiSaIiEE@Base 1.6
 (optional=templinst)_ZN3pcl6octree14Octree2BufBaseIiNS0_26OctreeContainerDataTVectorIiEENS0_20OctreeContainerEmptyIiEEE21getDataFromOctreeNodeEPKNS0_10OctreeNodeERi@Base 1.6
 (optional=templinst)_ZN3pcl6octree14Octree2BufBaseIiNS0_26OctreeContainerDataTVectorIiEENS0_20OctreeContainerEmptyIiEEE21serializeTreeCallbackERNS0_14OctreeLeafNodeIS3_EERKNS0_9OctreeKeyE@Base 1.6
 (optional=templinst)_ZN3pcl6octree14Octree2BufBaseIiNS0_26OctreeContainerDataTVectorIiEENS0_20OctreeContainerEmptyIiEEE22serializeTreeRecursiveEPNS0_18BufferedBranchNodeIS5_EERNS0_9OctreeKeyEPSt6vectorIcSaIcEEPSC_IiSaIiEEbbm@Base 1.6
 (optional=templinst)_ZN3pcl6octree14Octree2BufBaseIiNS0_26OctreeContainerDataTVectorIiEENS0_20OctreeContainerEmptyIiEEE23deserializeTreeCallbackERNS0_14OctreeLeafNodeIS3_EERKNS0_9OctreeKeyE@Base 1.6
 (optional=templinst)_ZN3pcl6octree14Octree2BufBaseIiNS0_26OctreeContainerDataTVectorIiEENS0_20OctreeContainerEmptyIiEEE24deserializeTreeRecursiveEPNS0_18BufferedBranchNodeIS5_EEjRNS0_9OctreeKeyERN9__gnu_cxx17__normal_iteratorIPKcSt6vectorIcSaIcEEEESK_PNSD_IPKiSG_IiSaIiEEEESQ_bb@Base 1.6
 (optional=templinst)_ZN3pcl6octree14Octree2BufBaseIiNS0_26OctreeContainerDataTVectorIiEENS0_20OctreeContainerEmptyIiEEE25getDataSizeFromOctreeNodeEPKNS0_10OctreeNodeE@Base 1.6
 (optional=templinst)_ZN3pcl6octree14Octree2BufBaseIiNS0_26OctreeContainerDataTVectorIiEENS0_20OctreeContainerEmptyIiEEE4Log2Ed@Base 1.6
 (optional=templinst)_ZN3pcl6octree14Octree2BufBaseIiNS0_26OctreeContainerDataTVectorIiEENS0_20OctreeContainerEmptyIiEEE7addDataERKNS0_9OctreeKeyERKi@Base 1.6
 (optional=templinst)_ZN3pcl6octree14Octree2BufBaseIiNS0_26OctreeContainerDataTVectorIiEENS0_20OctreeContainerEmptyIiEEE7addDataEjjjRKi@Base 1.6
 (optional=templinst)_ZN3pcl6octree14Octree2BufBaseIiNS0_26OctreeContainerDataTVectorIiEENS0_20OctreeContainerEmptyIiEEEC1ERKS6_@Base 1.6
 (optional=templinst)_ZN3pcl6octree14Octree2BufBaseIiNS0_26OctreeContainerDataTVectorIiEENS0_20OctreeContainerEmptyIiEEEC1Ev@Base 1.6
 (optional=templinst)_ZN3pcl6octree14Octree2BufBaseIiNS0_26OctreeContainerDataTVectorIiEENS0_20OctreeContainerEmptyIiEEEC2ERKS6_@Base 1.6
 (optional=templinst)_ZN3pcl6octree14Octree2BufBaseIiNS0_26OctreeContainerDataTVectorIiEENS0_20OctreeContainerEmptyIiEEEC2Ev@Base 1.6
 (optional=templinst)_ZN3pcl6octree14Octree2BufBaseIiNS0_26OctreeContainerDataTVectorIiEENS0_20OctreeContainerEmptyIiEEED0Ev@Base 1.6
 (optional=templinst)_ZN3pcl6octree14Octree2BufBaseIiNS0_26OctreeContainerDataTVectorIiEENS0_20OctreeContainerEmptyIiEEED1Ev@Base 1.6
 (optional=templinst)_ZN3pcl6octree14Octree2BufBaseIiNS0_26OctreeContainerDataTVectorIiEENS0_20OctreeContainerEmptyIiEEED2Ev@Base 1.6
 (optional=templinst)_ZN3pcl6octree14Octree2BufBaseIiNS0_26OctreeContainerDataTVectorIiEENS0_20OctreeContainerEmptyIiEEEaSERKS6_@Base 1.6
 (optional=templinst)_ZN3pcl6octree14OctreeLeafNodeINS0_20OctreeContainerDataTIiEEED0Ev@Base 1.6
 (optional=templinst)_ZN3pcl6octree14OctreeLeafNodeINS0_20OctreeContainerDataTIiEEED1Ev@Base 1.6
 (optional=templinst)_ZN3pcl6octree14OctreeLeafNodeINS0_20OctreeContainerDataTIiEEED2Ev@Base 1.6
 (optional=templinst)_ZN3pcl6octree14OctreeLeafNodeINS0_26OctreeContainerDataTVectorIiEEED0Ev@Base 1.6
 (optional=templinst)_ZN3pcl6octree14OctreeLeafNodeINS0_26OctreeContainerDataTVectorIiEEED1Ev@Base 1.6
 (optional=templinst)_ZN3pcl6octree14OctreeLeafNodeINS0_26OctreeContainerDataTVectorIiEEED2Ev@Base 1.6
 (optional=templinst)_ZN3pcl6octree14OctreeNodePoolINS0_14OctreeLeafNodeINS0_20OctreeContainerDataTIiEEEEED0Ev@Base 1.6
 (optional=templinst)_ZN3pcl6octree14OctreeNodePoolINS0_14OctreeLeafNodeINS0_20OctreeContainerDataTIiEEEEED1Ev@Base 1.6
 (optional=templinst)_ZN3pcl6octree14OctreeNodePoolINS0_14OctreeLeafNodeINS0_20OctreeContainerDataTIiEEEEED2Ev@Base 1.6
 (optional=templinst)_ZN3pcl6octree14OctreeNodePoolINS0_14OctreeLeafNodeINS0_26OctreeContainerDataTVectorIiEEEEED0Ev@Base 1.6
 (optional=templinst)_ZN3pcl6octree14OctreeNodePoolINS0_14OctreeLeafNodeINS0_26OctreeContainerDataTVectorIiEEEEED1Ev@Base 1.6
 (optional=templinst)_ZN3pcl6octree14OctreeNodePoolINS0_14OctreeLeafNodeINS0_26OctreeContainerDataTVectorIiEEEEED2Ev@Base 1.6
 (optional=templinst)_ZN3pcl6octree14OctreeNodePoolINS0_16OctreeBranchNodeINS0_20OctreeContainerEmptyIiEEEEED0Ev@Base 1.6
 (optional=templinst)_ZN3pcl6octree14OctreeNodePoolINS0_16OctreeBranchNodeINS0_20OctreeContainerEmptyIiEEEEED1Ev@Base 1.6
 (optional=templinst)_ZN3pcl6octree14OctreeNodePoolINS0_16OctreeBranchNodeINS0_20OctreeContainerEmptyIiEEEEED2Ev@Base 1.6
 (optional=templinst)_ZN3pcl6octree14OctreeNodePoolINS0_18BufferedBranchNodeINS0_20OctreeContainerEmptyIiEEEEED0Ev@Base 1.6
 (optional=templinst)_ZN3pcl6octree14OctreeNodePoolINS0_18BufferedBranchNodeINS0_20OctreeContainerEmptyIiEEEEED1Ev@Base 1.6
 (optional=templinst)_ZN3pcl6octree14OctreeNodePoolINS0_18BufferedBranchNodeINS0_20OctreeContainerEmptyIiEEEEED2Ev@Base 1.6
 (optional=templinst)_ZN3pcl6octree16OctreeBranchNodeINS0_20OctreeContainerEmptyIiEEED0Ev@Base 1.6
 (optional=templinst)_ZN3pcl6octree16OctreeBranchNodeINS0_20OctreeContainerEmptyIiEEED1Ev@Base 1.6
 (optional=templinst)_ZN3pcl6octree16OctreeBranchNodeINS0_20OctreeContainerEmptyIiEEED2Ev@Base 1.6
 (optional=templinst)_ZN3pcl6octree16OctreePointCloudINS_11PointNormalENS0_26OctreeContainerDataTVectorIiEENS0_20OctreeContainerEmptyIiEENS0_10OctreeBaseIiS4_S6_EEE10deleteTreeEb@Base 1.6
 (optional=templinst)_ZN3pcl6octree16OctreePointCloudINS_11PointNormalENS0_26OctreeContainerDataTVectorIiEENS0_20OctreeContainerEmptyIiEENS0_10OctreeBaseIiS4_S6_EEE10setEpsilonEd@Base 1.6
 (optional=templinst)_ZN3pcl6octree16OctreePointCloudINS_11PointNormalENS0_26OctreeContainerDataTVectorIiEENS0_20OctreeContainerEmptyIiEENS0_10OctreeBaseIiS4_S6_EEE11addPointIdxEi@Base 1.6
 (optional=templinst)_ZN3pcl6octree16OctreePointCloudINS_11PointNormalENS0_26OctreeContainerDataTVectorIiEENS0_20OctreeContainerEmptyIiEENS0_10OctreeBaseIiS4_S6_EEE13getKeyBitSizeEv@Base 1.6
 (optional=templinst)_ZN3pcl6octree16OctreePointCloudINS_11PointNormalENS0_26OctreeContainerDataTVectorIiEENS0_20OctreeContainerEmptyIiEENS0_10OctreeBaseIiS4_S6_EEE13setInputCloudERKN5boost10shared_ptrIKNS_10PointCloudIS2_EEEERKNSB_IKSt6vectorIiSaIiEEEE@Base 1.6
 (optional=templinst)_ZN3pcl6octree16OctreePointCloudINS_11PointNormalENS0_26OctreeContainerDataTVectorIiEENS0_20OctreeContainerEmptyIiEENS0_10OctreeBaseIiS4_S6_EEE13setResolutionEd@Base 1.6
 (optional=templinst)_ZN3pcl6octree16OctreePointCloudINS_11PointNormalENS0_26OctreeContainerDataTVectorIiEENS0_20OctreeContainerEmptyIiEENS0_10OctreeBaseIiS4_S6_EEE14getVoxelBoundsERNS0_18OctreeIteratorBaseIiS8_EERN5Eigen6MatrixIfLi3ELi1ELi0ELi3ELi1EEESG_@Base 1.6
 (optional=templinst)_ZN3pcl6octree16OctreePointCloudINS_11PointNormalENS0_26OctreeContainerDataTVectorIiEENS0_20OctreeContainerEmptyIiEENS0_10OctreeBaseIiS4_S6_EEE15addPointToCloudERKS2_N5boost10shared_ptrINS_10PointCloudIS2_EEEE@Base 1.6
 (optional=templinst)_ZN3pcl6octree16OctreePointCloudINS_11PointNormalENS0_26OctreeContainerDataTVectorIiEENS0_20OctreeContainerEmptyIiEENS0_10OctreeBaseIiS4_S6_EEE15addPointToCloudERKS2_N5boost10shared_ptrINS_10PointCloudIS2_EEEENSD_ISt6vectorIiSaIiEEEE@Base 1.6
 (optional=templinst)_ZN3pcl6octree16OctreePointCloudINS_11PointNormalENS0_26OctreeContainerDataTVectorIiEENS0_20OctreeContainerEmptyIiEENS0_10OctreeBaseIiS4_S6_EEE17addPointFromCloudEiN5boost10shared_ptrISt6vectorIiSaIiEEEE@Base 1.6
 (optional=templinst)_ZN3pcl6octree16OctreePointCloudINS_11PointNormalENS0_26OctreeContainerDataTVectorIiEENS0_20OctreeContainerEmptyIiEENS0_10OctreeBaseIiS4_S6_EEE17defineBoundingBoxEd@Base 1.6
 (optional=templinst)_ZN3pcl6octree16OctreePointCloudINS_11PointNormalENS0_26OctreeContainerDataTVectorIiEENS0_20OctreeContainerEmptyIiEENS0_10OctreeBaseIiS4_S6_EEE17defineBoundingBoxEddd@Base 1.6
 (optional=templinst)_ZN3pcl6octree16OctreePointCloudINS_11PointNormalENS0_26OctreeContainerDataTVectorIiEENS0_20OctreeContainerEmptyIiEENS0_10OctreeBaseIiS4_S6_EEE17defineBoundingBoxEdddddd@Base 1.6
 (optional=templinst)_ZN3pcl6octree16OctreePointCloudINS_11PointNormalENS0_26OctreeContainerDataTVectorIiEENS0_20OctreeContainerEmptyIiEENS0_10OctreeBaseIiS4_S6_EEE17defineBoundingBoxEv@Base 1.6
 (optional=templinst)_ZN3pcl6octree16OctreePointCloudINS_11PointNormalENS0_26OctreeContainerDataTVectorIiEENS0_20OctreeContainerEmptyIiEENS0_10OctreeBaseIiS4_S6_EEE18deleteVoxelAtPointERKS2_@Base 1.6
 (optional=templinst)_ZN3pcl6octree16OctreePointCloudINS_11PointNormalENS0_26OctreeContainerDataTVectorIiEENS0_20OctreeContainerEmptyIiEENS0_10OctreeBaseIiS4_S6_EEE18deleteVoxelAtPointERKi@Base 1.6
 (optional=templinst)_ZN3pcl6octree16OctreePointCloudINS_11PointNormalENS0_26OctreeContainerDataTVectorIiEENS0_20OctreeContainerEmptyIiEENS0_10OctreeBaseIiS4_S6_EEE23addPointsFromInputCloudEv@Base 1.6
 (optional=templinst)_ZN3pcl6octree16OctreePointCloudINS_11PointNormalENS0_26OctreeContainerDataTVectorIiEENS0_20OctreeContainerEmptyIiEENS0_10OctreeBaseIiS4_S6_EEE23adoptBoundingBoxToPointERKS2_@Base 1.6
 (optional=templinst)_ZN3pcl6octree16OctreePointCloudINS_11PointNormalENS0_26OctreeContainerDataTVectorIiEENS0_20OctreeContainerEmptyIiEENS0_10OctreeBaseIiS4_S6_EEE41getApproxIntersectedVoxelCentersBySegmentERKN5Eigen6MatrixIfLi3ELi1ELi0ELi3ELi1EEESE_RSt6vectorIS2_NSA_17aligned_allocatorIS2_EEEf@Base 1.6
 (optional=templinst)_ZN3pcl6octree16OctreePointCloudINS_11PointNormalENS0_26OctreeContainerDataTVectorIiEENS0_20OctreeContainerEmptyIiEENS0_10OctreeBaseIiS4_S6_EEEC1Ed@Base 1.6
 (optional=templinst)_ZN3pcl6octree16OctreePointCloudINS_11PointNormalENS0_26OctreeContainerDataTVectorIiEENS0_20OctreeContainerEmptyIiEENS0_10OctreeBaseIiS4_S6_EEEC2Ed@Base 1.6
 (optional=templinst)_ZN3pcl6octree16OctreePointCloudINS_11PointNormalENS0_26OctreeContainerDataTVectorIiEENS0_20OctreeContainerEmptyIiEENS0_10OctreeBaseIiS4_S6_EEED0Ev@Base 1.6
 (optional=templinst)_ZN3pcl6octree16OctreePointCloudINS_11PointNormalENS0_26OctreeContainerDataTVectorIiEENS0_20OctreeContainerEmptyIiEENS0_10OctreeBaseIiS4_S6_EEED1Ev@Base 1.6
 (optional=templinst)_ZN3pcl6octree16OctreePointCloudINS_11PointNormalENS0_26OctreeContainerDataTVectorIiEENS0_20OctreeContainerEmptyIiEENS0_10OctreeBaseIiS4_S6_EEED2Ev@Base 1.6
 (optional=templinst)_ZN3pcl6octree16OctreePointCloudINS_11PointNormalENS0_26OctreeContainerDataTVectorIiEENS0_20OctreeContainerEmptyIiEENS0_14Octree2BufBaseIiS4_S6_EEE10deleteTreeEb@Base 1.6
 (optional=templinst)_ZN3pcl6octree16OctreePointCloudINS_11PointNormalENS0_26OctreeContainerDataTVectorIiEENS0_20OctreeContainerEmptyIiEENS0_14Octree2BufBaseIiS4_S6_EEE10setEpsilonEd@Base 1.6
 (optional=templinst)_ZN3pcl6octree16OctreePointCloudINS_11PointNormalENS0_26OctreeContainerDataTVectorIiEENS0_20OctreeContainerEmptyIiEENS0_14Octree2BufBaseIiS4_S6_EEE11addPointIdxEi@Base 1.6
 (optional=templinst)_ZN3pcl6octree16OctreePointCloudINS_11PointNormalENS0_26OctreeContainerDataTVectorIiEENS0_20OctreeContainerEmptyIiEENS0_14Octree2BufBaseIiS4_S6_EEE13getKeyBitSizeEv@Base 1.6
 (optional=templinst)_ZN3pcl6octree16OctreePointCloudINS_11PointNormalENS0_26OctreeContainerDataTVectorIiEENS0_20OctreeContainerEmptyIiEENS0_14Octree2BufBaseIiS4_S6_EEE13setInputCloudERKN5boost10shared_ptrIKNS_10PointCloudIS2_EEEERKNSB_IKSt6vectorIiSaIiEEEE@Base 1.6
 (optional=templinst)_ZN3pcl6octree16OctreePointCloudINS_11PointNormalENS0_26OctreeContainerDataTVectorIiEENS0_20OctreeContainerEmptyIiEENS0_14Octree2BufBaseIiS4_S6_EEE13setResolutionEd@Base 1.6
 (optional=templinst)_ZN3pcl6octree16OctreePointCloudINS_11PointNormalENS0_26OctreeContainerDataTVectorIiEENS0_20OctreeContainerEmptyIiEENS0_14Octree2BufBaseIiS4_S6_EEE14getVoxelBoundsERNS0_18OctreeIteratorBaseIiS8_EERN5Eigen6MatrixIfLi3ELi1ELi0ELi3ELi1EEESG_@Base 1.6
 (optional=templinst)_ZN3pcl6octree16OctreePointCloudINS_11PointNormalENS0_26OctreeContainerDataTVectorIiEENS0_20OctreeContainerEmptyIiEENS0_14Octree2BufBaseIiS4_S6_EEE15addPointToCloudERKS2_N5boost10shared_ptrINS_10PointCloudIS2_EEEE@Base 1.6
 (optional=templinst)_ZN3pcl6octree16OctreePointCloudINS_11PointNormalENS0_26OctreeContainerDataTVectorIiEENS0_20OctreeContainerEmptyIiEENS0_14Octree2BufBaseIiS4_S6_EEE15addPointToCloudERKS2_N5boost10shared_ptrINS_10PointCloudIS2_EEEENSD_ISt6vectorIiSaIiEEEE@Base 1.6
 (optional=templinst)_ZN3pcl6octree16OctreePointCloudINS_11PointNormalENS0_26OctreeContainerDataTVectorIiEENS0_20OctreeContainerEmptyIiEENS0_14Octree2BufBaseIiS4_S6_EEE17addPointFromCloudEiN5boost10shared_ptrISt6vectorIiSaIiEEEE@Base 1.6
 (optional=templinst)_ZN3pcl6octree16OctreePointCloudINS_11PointNormalENS0_26OctreeContainerDataTVectorIiEENS0_20OctreeContainerEmptyIiEENS0_14Octree2BufBaseIiS4_S6_EEE17defineBoundingBoxEd@Base 1.6
 (optional=templinst)_ZN3pcl6octree16OctreePointCloudINS_11PointNormalENS0_26OctreeContainerDataTVectorIiEENS0_20OctreeContainerEmptyIiEENS0_14Octree2BufBaseIiS4_S6_EEE17defineBoundingBoxEddd@Base 1.6
 (optional=templinst)_ZN3pcl6octree16OctreePointCloudINS_11PointNormalENS0_26OctreeContainerDataTVectorIiEENS0_20OctreeContainerEmptyIiEENS0_14Octree2BufBaseIiS4_S6_EEE17defineBoundingBoxEdddddd@Base 1.6
 (optional=templinst)_ZN3pcl6octree16OctreePointCloudINS_11PointNormalENS0_26OctreeContainerDataTVectorIiEENS0_20OctreeContainerEmptyIiEENS0_14Octree2BufBaseIiS4_S6_EEE17defineBoundingBoxEv@Base 1.6
 (optional=templinst)_ZN3pcl6octree16OctreePointCloudINS_11PointNormalENS0_26OctreeContainerDataTVectorIiEENS0_20OctreeContainerEmptyIiEENS0_14Octree2BufBaseIiS4_S6_EEE18deleteVoxelAtPointERKS2_@Base 1.6
 (optional=templinst)_ZN3pcl6octree16OctreePointCloudINS_11PointNormalENS0_26OctreeContainerDataTVectorIiEENS0_20OctreeContainerEmptyIiEENS0_14Octree2BufBaseIiS4_S6_EEE18deleteVoxelAtPointERKi@Base 1.6
 (optional=templinst)_ZN3pcl6octree16OctreePointCloudINS_11PointNormalENS0_26OctreeContainerDataTVectorIiEENS0_20OctreeContainerEmptyIiEENS0_14Octree2BufBaseIiS4_S6_EEE23addPointsFromInputCloudEv@Base 1.6
 (optional=templinst)_ZN3pcl6octree16OctreePointCloudINS_11PointNormalENS0_26OctreeContainerDataTVectorIiEENS0_20OctreeContainerEmptyIiEENS0_14Octree2BufBaseIiS4_S6_EEE23adoptBoundingBoxToPointERKS2_@Base 1.6
 (optional=templinst)_ZN3pcl6octree16OctreePointCloudINS_11PointNormalENS0_26OctreeContainerDataTVectorIiEENS0_20OctreeContainerEmptyIiEENS0_14Octree2BufBaseIiS4_S6_EEE41getApproxIntersectedVoxelCentersBySegmentERKN5Eigen6MatrixIfLi3ELi1ELi0ELi3ELi1EEESE_RSt6vectorIS2_NSA_17aligned_allocatorIS2_EEEf@Base 1.6
 (optional=templinst)_ZN3pcl6octree16OctreePointCloudINS_11PointNormalENS0_26OctreeContainerDataTVectorIiEENS0_20OctreeContainerEmptyIiEENS0_14Octree2BufBaseIiS4_S6_EEEC1Ed@Base 1.6
 (optional=templinst)_ZN3pcl6octree16OctreePointCloudINS_11PointNormalENS0_26OctreeContainerDataTVectorIiEENS0_20OctreeContainerEmptyIiEENS0_14Octree2BufBaseIiS4_S6_EEEC2Ed@Base 1.6
 (optional=templinst)_ZN3pcl6octree16OctreePointCloudINS_11PointNormalENS0_26OctreeContainerDataTVectorIiEENS0_20OctreeContainerEmptyIiEENS0_14Octree2BufBaseIiS4_S6_EEED0Ev@Base 1.6
 (optional=templinst)_ZN3pcl6octree16OctreePointCloudINS_11PointNormalENS0_26OctreeContainerDataTVectorIiEENS0_20OctreeContainerEmptyIiEENS0_14Octree2BufBaseIiS4_S6_EEED1Ev@Base 1.6
 (optional=templinst)_ZN3pcl6octree16OctreePointCloudINS_11PointNormalENS0_26OctreeContainerDataTVectorIiEENS0_20OctreeContainerEmptyIiEENS0_14Octree2BufBaseIiS4_S6_EEED2Ev@Base 1.6
 (optional=templinst)_ZN3pcl6octree16OctreePointCloudINS_11PointXYZHSVENS0_26OctreeContainerDataTVectorIiEENS0_20OctreeContainerEmptyIiEENS0_10OctreeBaseIiS4_S6_EEE10deleteTreeEb@Base 1.6
 (optional=templinst)_ZN3pcl6octree16OctreePointCloudINS_11PointXYZHSVENS0_26OctreeContainerDataTVectorIiEENS0_20OctreeContainerEmptyIiEENS0_10OctreeBaseIiS4_S6_EEE10setEpsilonEd@Base 1.6
 (optional=templinst)_ZN3pcl6octree16OctreePointCloudINS_11PointXYZHSVENS0_26OctreeContainerDataTVectorIiEENS0_20OctreeContainerEmptyIiEENS0_10OctreeBaseIiS4_S6_EEE11addPointIdxEi@Base 1.6
 (optional=templinst)_ZN3pcl6octree16OctreePointCloudINS_11PointXYZHSVENS0_26OctreeContainerDataTVectorIiEENS0_20OctreeContainerEmptyIiEENS0_10OctreeBaseIiS4_S6_EEE13getKeyBitSizeEv@Base 1.6
 (optional=templinst)_ZN3pcl6octree16OctreePointCloudINS_11PointXYZHSVENS0_26OctreeContainerDataTVectorIiEENS0_20OctreeContainerEmptyIiEENS0_10OctreeBaseIiS4_S6_EEE13setInputCloudERKN5boost10shared_ptrIKNS_10PointCloudIS2_EEEERKNSB_IKSt6vectorIiSaIiEEEE@Base 1.6
 (optional=templinst)_ZN3pcl6octree16OctreePointCloudINS_11PointXYZHSVENS0_26OctreeContainerDataTVectorIiEENS0_20OctreeContainerEmptyIiEENS0_10OctreeBaseIiS4_S6_EEE13setResolutionEd@Base 1.6
 (optional=templinst)_ZN3pcl6octree16OctreePointCloudINS_11PointXYZHSVENS0_26OctreeContainerDataTVectorIiEENS0_20OctreeContainerEmptyIiEENS0_10OctreeBaseIiS4_S6_EEE14getVoxelBoundsERNS0_18OctreeIteratorBaseIiS8_EERN5Eigen6MatrixIfLi3ELi1ELi0ELi3ELi1EEESG_@Base 1.6
 (optional=templinst)_ZN3pcl6octree16OctreePointCloudINS_11PointXYZHSVENS0_26OctreeContainerDataTVectorIiEENS0_20OctreeContainerEmptyIiEENS0_10OctreeBaseIiS4_S6_EEE15addPointToCloudERKS2_N5boost10shared_ptrINS_10PointCloudIS2_EEEE@Base 1.6
 (optional=templinst)_ZN3pcl6octree16OctreePointCloudINS_11PointXYZHSVENS0_26OctreeContainerDataTVectorIiEENS0_20OctreeContainerEmptyIiEENS0_10OctreeBaseIiS4_S6_EEE15addPointToCloudERKS2_N5boost10shared_ptrINS_10PointCloudIS2_EEEENSD_ISt6vectorIiSaIiEEEE@Base 1.6
 (optional=templinst)_ZN3pcl6octree16OctreePointCloudINS_11PointXYZHSVENS0_26OctreeContainerDataTVectorIiEENS0_20OctreeContainerEmptyIiEENS0_10OctreeBaseIiS4_S6_EEE17addPointFromCloudEiN5boost10shared_ptrISt6vectorIiSaIiEEEE@Base 1.6
 (optional=templinst)_ZN3pcl6octree16OctreePointCloudINS_11PointXYZHSVENS0_26OctreeContainerDataTVectorIiEENS0_20OctreeContainerEmptyIiEENS0_10OctreeBaseIiS4_S6_EEE17defineBoundingBoxEd@Base 1.6
 (optional=templinst)_ZN3pcl6octree16OctreePointCloudINS_11PointXYZHSVENS0_26OctreeContainerDataTVectorIiEENS0_20OctreeContainerEmptyIiEENS0_10OctreeBaseIiS4_S6_EEE17defineBoundingBoxEddd@Base 1.6
 (optional=templinst)_ZN3pcl6octree16OctreePointCloudINS_11PointXYZHSVENS0_26OctreeContainerDataTVectorIiEENS0_20OctreeContainerEmptyIiEENS0_10OctreeBaseIiS4_S6_EEE17defineBoundingBoxEdddddd@Base 1.6
 (optional=templinst)_ZN3pcl6octree16OctreePointCloudINS_11PointXYZHSVENS0_26OctreeContainerDataTVectorIiEENS0_20OctreeContainerEmptyIiEENS0_10OctreeBaseIiS4_S6_EEE17defineBoundingBoxEv@Base 1.6
 (optional=templinst)_ZN3pcl6octree16OctreePointCloudINS_11PointXYZHSVENS0_26OctreeContainerDataTVectorIiEENS0_20OctreeContainerEmptyIiEENS0_10OctreeBaseIiS4_S6_EEE18deleteVoxelAtPointERKS2_@Base 1.6
 (optional=templinst)_ZN3pcl6octree16OctreePointCloudINS_11PointXYZHSVENS0_26OctreeContainerDataTVectorIiEENS0_20OctreeContainerEmptyIiEENS0_10OctreeBaseIiS4_S6_EEE18deleteVoxelAtPointERKi@Base 1.6
 (optional=templinst)_ZN3pcl6octree16OctreePointCloudINS_11PointXYZHSVENS0_26OctreeContainerDataTVectorIiEENS0_20OctreeContainerEmptyIiEENS0_10OctreeBaseIiS4_S6_EEE23addPointsFromInputCloudEv@Base 1.6
 (optional=templinst)_ZN3pcl6octree16OctreePointCloudINS_11PointXYZHSVENS0_26OctreeContainerDataTVectorIiEENS0_20OctreeContainerEmptyIiEENS0_10OctreeBaseIiS4_S6_EEE23adoptBoundingBoxToPointERKS2_@Base 1.6
 (optional=templinst)_ZN3pcl6octree16OctreePointCloudINS_11PointXYZHSVENS0_26OctreeContainerDataTVectorIiEENS0_20OctreeContainerEmptyIiEENS0_10OctreeBaseIiS4_S6_EEE41getApproxIntersectedVoxelCentersBySegmentERKN5Eigen6MatrixIfLi3ELi1ELi0ELi3ELi1EEESE_RSt6vectorIS2_NSA_17aligned_allocatorIS2_EEEf@Base 1.6
 (optional=templinst)_ZN3pcl6octree16OctreePointCloudINS_11PointXYZHSVENS0_26OctreeContainerDataTVectorIiEENS0_20OctreeContainerEmptyIiEENS0_10OctreeBaseIiS4_S6_EEEC1Ed@Base 1.6
 (optional=templinst)_ZN3pcl6octree16OctreePointCloudINS_11PointXYZHSVENS0_26OctreeContainerDataTVectorIiEENS0_20OctreeContainerEmptyIiEENS0_10OctreeBaseIiS4_S6_EEEC2Ed@Base 1.6
 (optional=templinst)_ZN3pcl6octree16OctreePointCloudINS_11PointXYZHSVENS0_26OctreeContainerDataTVectorIiEENS0_20OctreeContainerEmptyIiEENS0_10OctreeBaseIiS4_S6_EEED0Ev@Base 1.6
 (optional=templinst)_ZN3pcl6octree16OctreePointCloudINS_11PointXYZHSVENS0_26OctreeContainerDataTVectorIiEENS0_20OctreeContainerEmptyIiEENS0_10OctreeBaseIiS4_S6_EEED1Ev@Base 1.6
 (optional=templinst)_ZN3pcl6octree16OctreePointCloudINS_11PointXYZHSVENS0_26OctreeContainerDataTVectorIiEENS0_20OctreeContainerEmptyIiEENS0_10OctreeBaseIiS4_S6_EEED2Ev@Base 1.6
 (optional=templinst)_ZN3pcl6octree16OctreePointCloudINS_11PointXYZHSVENS0_26OctreeContainerDataTVectorIiEENS0_20OctreeContainerEmptyIiEENS0_14Octree2BufBaseIiS4_S6_EEE10deleteTreeEb@Base 1.6
 (optional=templinst)_ZN3pcl6octree16OctreePointCloudINS_11PointXYZHSVENS0_26OctreeContainerDataTVectorIiEENS0_20OctreeContainerEmptyIiEENS0_14Octree2BufBaseIiS4_S6_EEE10setEpsilonEd@Base 1.6
 (optional=templinst)_ZN3pcl6octree16OctreePointCloudINS_11PointXYZHSVENS0_26OctreeContainerDataTVectorIiEENS0_20OctreeContainerEmptyIiEENS0_14Octree2BufBaseIiS4_S6_EEE11addPointIdxEi@Base 1.6
 (optional=templinst)_ZN3pcl6octree16OctreePointCloudINS_11PointXYZHSVENS0_26OctreeContainerDataTVectorIiEENS0_20OctreeContainerEmptyIiEENS0_14Octree2BufBaseIiS4_S6_EEE13getKeyBitSizeEv@Base 1.6
 (optional=templinst)_ZN3pcl6octree16OctreePointCloudINS_11PointXYZHSVENS0_26OctreeContainerDataTVectorIiEENS0_20OctreeContainerEmptyIiEENS0_14Octree2BufBaseIiS4_S6_EEE13setInputCloudERKN5boost10shared_ptrIKNS_10PointCloudIS2_EEEERKNSB_IKSt6vectorIiSaIiEEEE@Base 1.6
 (optional=templinst)_ZN3pcl6octree16OctreePointCloudINS_11PointXYZHSVENS0_26OctreeContainerDataTVectorIiEENS0_20OctreeContainerEmptyIiEENS0_14Octree2BufBaseIiS4_S6_EEE13setResolutionEd@Base 1.6
 (optional=templinst)_ZN3pcl6octree16OctreePointCloudINS_11PointXYZHSVENS0_26OctreeContainerDataTVectorIiEENS0_20OctreeContainerEmptyIiEENS0_14Octree2BufBaseIiS4_S6_EEE14getVoxelBoundsERNS0_18OctreeIteratorBaseIiS8_EERN5Eigen6MatrixIfLi3ELi1ELi0ELi3ELi1EEESG_@Base 1.6
 (optional=templinst)_ZN3pcl6octree16OctreePointCloudINS_11PointXYZHSVENS0_26OctreeContainerDataTVectorIiEENS0_20OctreeContainerEmptyIiEENS0_14Octree2BufBaseIiS4_S6_EEE15addPointToCloudERKS2_N5boost10shared_ptrINS_10PointCloudIS2_EEEE@Base 1.6
 (optional=templinst)_ZN3pcl6octree16OctreePointCloudINS_11PointXYZHSVENS0_26OctreeContainerDataTVectorIiEENS0_20OctreeContainerEmptyIiEENS0_14Octree2BufBaseIiS4_S6_EEE15addPointToCloudERKS2_N5boost10shared_ptrINS_10PointCloudIS2_EEEENSD_ISt6vectorIiSaIiEEEE@Base 1.6
 (optional=templinst)_ZN3pcl6octree16OctreePointCloudINS_11PointXYZHSVENS0_26OctreeContainerDataTVectorIiEENS0_20OctreeContainerEmptyIiEENS0_14Octree2BufBaseIiS4_S6_EEE17addPointFromCloudEiN5boost10shared_ptrISt6vectorIiSaIiEEEE@Base 1.6
 (optional=templinst)_ZN3pcl6octree16OctreePointCloudINS_11PointXYZHSVENS0_26OctreeContainerDataTVectorIiEENS0_20OctreeContainerEmptyIiEENS0_14Octree2BufBaseIiS4_S6_EEE17defineBoundingBoxEd@Base 1.6
 (optional=templinst)_ZN3pcl6octree16OctreePointCloudINS_11PointXYZHSVENS0_26OctreeContainerDataTVectorIiEENS0_20OctreeContainerEmptyIiEENS0_14Octree2BufBaseIiS4_S6_EEE17defineBoundingBoxEddd@Base 1.6
 (optional=templinst)_ZN3pcl6octree16OctreePointCloudINS_11PointXYZHSVENS0_26OctreeContainerDataTVectorIiEENS0_20OctreeContainerEmptyIiEENS0_14Octree2BufBaseIiS4_S6_EEE17defineBoundingBoxEdddddd@Base 1.6
 (optional=templinst)_ZN3pcl6octree16OctreePointCloudINS_11PointXYZHSVENS0_26OctreeContainerDataTVectorIiEENS0_20OctreeContainerEmptyIiEENS0_14Octree2BufBaseIiS4_S6_EEE17defineBoundingBoxEv@Base 1.6
 (optional=templinst)_ZN3pcl6octree16OctreePointCloudINS_11PointXYZHSVENS0_26OctreeContainerDataTVectorIiEENS0_20OctreeContainerEmptyIiEENS0_14Octree2BufBaseIiS4_S6_EEE18deleteVoxelAtPointERKS2_@Base 1.6
 (optional=templinst)_ZN3pcl6octree16OctreePointCloudINS_11PointXYZHSVENS0_26OctreeContainerDataTVectorIiEENS0_20OctreeContainerEmptyIiEENS0_14Octree2BufBaseIiS4_S6_EEE18deleteVoxelAtPointERKi@Base 1.6
 (optional=templinst)_ZN3pcl6octree16OctreePointCloudINS_11PointXYZHSVENS0_26OctreeContainerDataTVectorIiEENS0_20OctreeContainerEmptyIiEENS0_14Octree2BufBaseIiS4_S6_EEE23addPointsFromInputCloudEv@Base 1.6
 (optional=templinst)_ZN3pcl6octree16OctreePointCloudINS_11PointXYZHSVENS0_26OctreeContainerDataTVectorIiEENS0_20OctreeContainerEmptyIiEENS0_14Octree2BufBaseIiS4_S6_EEE23adoptBoundingBoxToPointERKS2_@Base 1.6
 (optional=templinst)_ZN3pcl6octree16OctreePointCloudINS_11PointXYZHSVENS0_26OctreeContainerDataTVectorIiEENS0_20OctreeContainerEmptyIiEENS0_14Octree2BufBaseIiS4_S6_EEE41getApproxIntersectedVoxelCentersBySegmentERKN5Eigen6MatrixIfLi3ELi1ELi0ELi3ELi1EEESE_RSt6vectorIS2_NSA_17aligned_allocatorIS2_EEEf@Base 1.6
 (optional=templinst)_ZN3pcl6octree16OctreePointCloudINS_11PointXYZHSVENS0_26OctreeContainerDataTVectorIiEENS0_20OctreeContainerEmptyIiEENS0_14Octree2BufBaseIiS4_S6_EEEC1Ed@Base 1.6
 (optional=templinst)_ZN3pcl6octree16OctreePointCloudINS_11PointXYZHSVENS0_26OctreeContainerDataTVectorIiEENS0_20OctreeContainerEmptyIiEENS0_14Octree2BufBaseIiS4_S6_EEEC2Ed@Base 1.6
 (optional=templinst)_ZN3pcl6octree16OctreePointCloudINS_11PointXYZHSVENS0_26OctreeContainerDataTVectorIiEENS0_20OctreeContainerEmptyIiEENS0_14Octree2BufBaseIiS4_S6_EEED0Ev@Base 1.6
 (optional=templinst)_ZN3pcl6octree16OctreePointCloudINS_11PointXYZHSVENS0_26OctreeContainerDataTVectorIiEENS0_20OctreeContainerEmptyIiEENS0_14Octree2BufBaseIiS4_S6_EEED1Ev@Base 1.6
 (optional=templinst)_ZN3pcl6octree16OctreePointCloudINS_11PointXYZHSVENS0_26OctreeContainerDataTVectorIiEENS0_20OctreeContainerEmptyIiEENS0_14Octree2BufBaseIiS4_S6_EEED2Ev@Base 1.6
 (optional=templinst)_ZN3pcl6octree16OctreePointCloudINS_11PointXYZRGBENS0_26OctreeContainerDataTVectorIiEENS0_20OctreeContainerEmptyIiEENS0_10OctreeBaseIiS4_S6_EEE10deleteTreeEb@Base 1.6
 (optional=templinst)_ZN3pcl6octree16OctreePointCloudINS_11PointXYZRGBENS0_26OctreeContainerDataTVectorIiEENS0_20OctreeContainerEmptyIiEENS0_10OctreeBaseIiS4_S6_EEE10setEpsilonEd@Base 1.6
 (optional=templinst)_ZN3pcl6octree16OctreePointCloudINS_11PointXYZRGBENS0_26OctreeContainerDataTVectorIiEENS0_20OctreeContainerEmptyIiEENS0_10OctreeBaseIiS4_S6_EEE11addPointIdxEi@Base 1.6
 (optional=templinst)_ZN3pcl6octree16OctreePointCloudINS_11PointXYZRGBENS0_26OctreeContainerDataTVectorIiEENS0_20OctreeContainerEmptyIiEENS0_10OctreeBaseIiS4_S6_EEE13getKeyBitSizeEv@Base 1.6
 (optional=templinst)_ZN3pcl6octree16OctreePointCloudINS_11PointXYZRGBENS0_26OctreeContainerDataTVectorIiEENS0_20OctreeContainerEmptyIiEENS0_10OctreeBaseIiS4_S6_EEE13setInputCloudERKN5boost10shared_ptrIKNS_10PointCloudIS2_EEEERKNSB_IKSt6vectorIiSaIiEEEE@Base 1.6
 (optional=templinst)_ZN3pcl6octree16OctreePointCloudINS_11PointXYZRGBENS0_26OctreeContainerDataTVectorIiEENS0_20OctreeContainerEmptyIiEENS0_10OctreeBaseIiS4_S6_EEE13setResolutionEd@Base 1.6
 (optional=templinst)_ZN3pcl6octree16OctreePointCloudINS_11PointXYZRGBENS0_26OctreeContainerDataTVectorIiEENS0_20OctreeContainerEmptyIiEENS0_10OctreeBaseIiS4_S6_EEE14getVoxelBoundsERNS0_18OctreeIteratorBaseIiS8_EERN5Eigen6MatrixIfLi3ELi1ELi0ELi3ELi1EEESG_@Base 1.6
 (optional=templinst)_ZN3pcl6octree16OctreePointCloudINS_11PointXYZRGBENS0_26OctreeContainerDataTVectorIiEENS0_20OctreeContainerEmptyIiEENS0_10OctreeBaseIiS4_S6_EEE15addPointToCloudERKS2_N5boost10shared_ptrINS_10PointCloudIS2_EEEE@Base 1.6
 (optional=templinst)_ZN3pcl6octree16OctreePointCloudINS_11PointXYZRGBENS0_26OctreeContainerDataTVectorIiEENS0_20OctreeContainerEmptyIiEENS0_10OctreeBaseIiS4_S6_EEE15addPointToCloudERKS2_N5boost10shared_ptrINS_10PointCloudIS2_EEEENSD_ISt6vectorIiSaIiEEEE@Base 1.6
 (optional=templinst)_ZN3pcl6octree16OctreePointCloudINS_11PointXYZRGBENS0_26OctreeContainerDataTVectorIiEENS0_20OctreeContainerEmptyIiEENS0_10OctreeBaseIiS4_S6_EEE17addPointFromCloudEiN5boost10shared_ptrISt6vectorIiSaIiEEEE@Base 1.6
 (optional=templinst)_ZN3pcl6octree16OctreePointCloudINS_11PointXYZRGBENS0_26OctreeContainerDataTVectorIiEENS0_20OctreeContainerEmptyIiEENS0_10OctreeBaseIiS4_S6_EEE17defineBoundingBoxEd@Base 1.6
 (optional=templinst)_ZN3pcl6octree16OctreePointCloudINS_11PointXYZRGBENS0_26OctreeContainerDataTVectorIiEENS0_20OctreeContainerEmptyIiEENS0_10OctreeBaseIiS4_S6_EEE17defineBoundingBoxEddd@Base 1.6
 (optional=templinst)_ZN3pcl6octree16OctreePointCloudINS_11PointXYZRGBENS0_26OctreeContainerDataTVectorIiEENS0_20OctreeContainerEmptyIiEENS0_10OctreeBaseIiS4_S6_EEE17defineBoundingBoxEdddddd@Base 1.6
 (optional=templinst)_ZN3pcl6octree16OctreePointCloudINS_11PointXYZRGBENS0_26OctreeContainerDataTVectorIiEENS0_20OctreeContainerEmptyIiEENS0_10OctreeBaseIiS4_S6_EEE17defineBoundingBoxEv@Base 1.6
 (optional=templinst)_ZN3pcl6octree16OctreePointCloudINS_11PointXYZRGBENS0_26OctreeContainerDataTVectorIiEENS0_20OctreeContainerEmptyIiEENS0_10OctreeBaseIiS4_S6_EEE18deleteVoxelAtPointERKS2_@Base 1.6
 (optional=templinst)_ZN3pcl6octree16OctreePointCloudINS_11PointXYZRGBENS0_26OctreeContainerDataTVectorIiEENS0_20OctreeContainerEmptyIiEENS0_10OctreeBaseIiS4_S6_EEE18deleteVoxelAtPointERKi@Base 1.6
 (optional=templinst)_ZN3pcl6octree16OctreePointCloudINS_11PointXYZRGBENS0_26OctreeContainerDataTVectorIiEENS0_20OctreeContainerEmptyIiEENS0_10OctreeBaseIiS4_S6_EEE23addPointsFromInputCloudEv@Base 1.6
 (optional=templinst)_ZN3pcl6octree16OctreePointCloudINS_11PointXYZRGBENS0_26OctreeContainerDataTVectorIiEENS0_20OctreeContainerEmptyIiEENS0_10OctreeBaseIiS4_S6_EEE23adoptBoundingBoxToPointERKS2_@Base 1.6
 (optional=templinst)_ZN3pcl6octree16OctreePointCloudINS_11PointXYZRGBENS0_26OctreeContainerDataTVectorIiEENS0_20OctreeContainerEmptyIiEENS0_10OctreeBaseIiS4_S6_EEE41getApproxIntersectedVoxelCentersBySegmentERKN5Eigen6MatrixIfLi3ELi1ELi0ELi3ELi1EEESE_RSt6vectorIS2_NSA_17aligned_allocatorIS2_EEEf@Base 1.6
 (optional=templinst)_ZN3pcl6octree16OctreePointCloudINS_11PointXYZRGBENS0_26OctreeContainerDataTVectorIiEENS0_20OctreeContainerEmptyIiEENS0_10OctreeBaseIiS4_S6_EEEC1Ed@Base 1.6
 (optional=templinst)_ZN3pcl6octree16OctreePointCloudINS_11PointXYZRGBENS0_26OctreeContainerDataTVectorIiEENS0_20OctreeContainerEmptyIiEENS0_10OctreeBaseIiS4_S6_EEEC2Ed@Base 1.6
 (optional=templinst)_ZN3pcl6octree16OctreePointCloudINS_11PointXYZRGBENS0_26OctreeContainerDataTVectorIiEENS0_20OctreeContainerEmptyIiEENS0_10OctreeBaseIiS4_S6_EEED0Ev@Base 1.6
 (optional=templinst)_ZN3pcl6octree16OctreePointCloudINS_11PointXYZRGBENS0_26OctreeContainerDataTVectorIiEENS0_20OctreeContainerEmptyIiEENS0_10OctreeBaseIiS4_S6_EEED1Ev@Base 1.6
 (optional=templinst)_ZN3pcl6octree16OctreePointCloudINS_11PointXYZRGBENS0_26OctreeContainerDataTVectorIiEENS0_20OctreeContainerEmptyIiEENS0_10OctreeBaseIiS4_S6_EEED2Ev@Base 1.6
 (optional=templinst)_ZN3pcl6octree16OctreePointCloudINS_11PointXYZRGBENS0_26OctreeContainerDataTVectorIiEENS0_20OctreeContainerEmptyIiEENS0_14Octree2BufBaseIiS4_S6_EEE10deleteTreeEb@Base 1.6
 (optional=templinst)_ZN3pcl6octree16OctreePointCloudINS_11PointXYZRGBENS0_26OctreeContainerDataTVectorIiEENS0_20OctreeContainerEmptyIiEENS0_14Octree2BufBaseIiS4_S6_EEE10setEpsilonEd@Base 1.6
 (optional=templinst)_ZN3pcl6octree16OctreePointCloudINS_11PointXYZRGBENS0_26OctreeContainerDataTVectorIiEENS0_20OctreeContainerEmptyIiEENS0_14Octree2BufBaseIiS4_S6_EEE11addPointIdxEi@Base 1.6
 (optional=templinst)_ZN3pcl6octree16OctreePointCloudINS_11PointXYZRGBENS0_26OctreeContainerDataTVectorIiEENS0_20OctreeContainerEmptyIiEENS0_14Octree2BufBaseIiS4_S6_EEE13getKeyBitSizeEv@Base 1.6
 (optional=templinst)_ZN3pcl6octree16OctreePointCloudINS_11PointXYZRGBENS0_26OctreeContainerDataTVectorIiEENS0_20OctreeContainerEmptyIiEENS0_14Octree2BufBaseIiS4_S6_EEE13setInputCloudERKN5boost10shared_ptrIKNS_10PointCloudIS2_EEEERKNSB_IKSt6vectorIiSaIiEEEE@Base 1.6
 (optional=templinst)_ZN3pcl6octree16OctreePointCloudINS_11PointXYZRGBENS0_26OctreeContainerDataTVectorIiEENS0_20OctreeContainerEmptyIiEENS0_14Octree2BufBaseIiS4_S6_EEE13setResolutionEd@Base 1.6
 (optional=templinst)_ZN3pcl6octree16OctreePointCloudINS_11PointXYZRGBENS0_26OctreeContainerDataTVectorIiEENS0_20OctreeContainerEmptyIiEENS0_14Octree2BufBaseIiS4_S6_EEE14getVoxelBoundsERNS0_18OctreeIteratorBaseIiS8_EERN5Eigen6MatrixIfLi3ELi1ELi0ELi3ELi1EEESG_@Base 1.6
 (optional=templinst)_ZN3pcl6octree16OctreePointCloudINS_11PointXYZRGBENS0_26OctreeContainerDataTVectorIiEENS0_20OctreeContainerEmptyIiEENS0_14Octree2BufBaseIiS4_S6_EEE15addPointToCloudERKS2_N5boost10shared_ptrINS_10PointCloudIS2_EEEE@Base 1.6
 (optional=templinst)_ZN3pcl6octree16OctreePointCloudINS_11PointXYZRGBENS0_26OctreeContainerDataTVectorIiEENS0_20OctreeContainerEmptyIiEENS0_14Octree2BufBaseIiS4_S6_EEE15addPointToCloudERKS2_N5boost10shared_ptrINS_10PointCloudIS2_EEEENSD_ISt6vectorIiSaIiEEEE@Base 1.6
 (optional=templinst)_ZN3pcl6octree16OctreePointCloudINS_11PointXYZRGBENS0_26OctreeContainerDataTVectorIiEENS0_20OctreeContainerEmptyIiEENS0_14Octree2BufBaseIiS4_S6_EEE17addPointFromCloudEiN5boost10shared_ptrISt6vectorIiSaIiEEEE@Base 1.6
 (optional=templinst)_ZN3pcl6octree16OctreePointCloudINS_11PointXYZRGBENS0_26OctreeContainerDataTVectorIiEENS0_20OctreeContainerEmptyIiEENS0_14Octree2BufBaseIiS4_S6_EEE17defineBoundingBoxEd@Base 1.6
 (optional=templinst)_ZN3pcl6octree16OctreePointCloudINS_11PointXYZRGBENS0_26OctreeContainerDataTVectorIiEENS0_20OctreeContainerEmptyIiEENS0_14Octree2BufBaseIiS4_S6_EEE17defineBoundingBoxEddd@Base 1.6
 (optional=templinst)_ZN3pcl6octree16OctreePointCloudINS_11PointXYZRGBENS0_26OctreeContainerDataTVectorIiEENS0_20OctreeContainerEmptyIiEENS0_14Octree2BufBaseIiS4_S6_EEE17defineBoundingBoxEdddddd@Base 1.6
 (optional=templinst)_ZN3pcl6octree16OctreePointCloudINS_11PointXYZRGBENS0_26OctreeContainerDataTVectorIiEENS0_20OctreeContainerEmptyIiEENS0_14Octree2BufBaseIiS4_S6_EEE17defineBoundingBoxEv@Base 1.6
 (optional=templinst)_ZN3pcl6octree16OctreePointCloudINS_11PointXYZRGBENS0_26OctreeContainerDataTVectorIiEENS0_20OctreeContainerEmptyIiEENS0_14Octree2BufBaseIiS4_S6_EEE18deleteVoxelAtPointERKS2_@Base 1.6
 (optional=templinst)_ZN3pcl6octree16OctreePointCloudINS_11PointXYZRGBENS0_26OctreeContainerDataTVectorIiEENS0_20OctreeContainerEmptyIiEENS0_14Octree2BufBaseIiS4_S6_EEE18deleteVoxelAtPointERKi@Base 1.6
 (optional=templinst)_ZN3pcl6octree16OctreePointCloudINS_11PointXYZRGBENS0_26OctreeContainerDataTVectorIiEENS0_20OctreeContainerEmptyIiEENS0_14Octree2BufBaseIiS4_S6_EEE23addPointsFromInputCloudEv@Base 1.6
 (optional=templinst)_ZN3pcl6octree16OctreePointCloudINS_11PointXYZRGBENS0_26OctreeContainerDataTVectorIiEENS0_20OctreeContainerEmptyIiEENS0_14Octree2BufBaseIiS4_S6_EEE23adoptBoundingBoxToPointERKS2_@Base 1.6
 (optional=templinst)_ZN3pcl6octree16OctreePointCloudINS_11PointXYZRGBENS0_26OctreeContainerDataTVectorIiEENS0_20OctreeContainerEmptyIiEENS0_14Octree2BufBaseIiS4_S6_EEE41getApproxIntersectedVoxelCentersBySegmentERKN5Eigen6MatrixIfLi3ELi1ELi0ELi3ELi1EEESE_RSt6vectorIS2_NSA_17aligned_allocatorIS2_EEEf@Base 1.6
 (optional=templinst)_ZN3pcl6octree16OctreePointCloudINS_11PointXYZRGBENS0_26OctreeContainerDataTVectorIiEENS0_20OctreeContainerEmptyIiEENS0_14Octree2BufBaseIiS4_S6_EEEC1Ed@Base 1.6
 (optional=templinst)_ZN3pcl6octree16OctreePointCloudINS_11PointXYZRGBENS0_26OctreeContainerDataTVectorIiEENS0_20OctreeContainerEmptyIiEENS0_14Octree2BufBaseIiS4_S6_EEEC2Ed@Base 1.6
 (optional=templinst)_ZN3pcl6octree16OctreePointCloudINS_11PointXYZRGBENS0_26OctreeContainerDataTVectorIiEENS0_20OctreeContainerEmptyIiEENS0_14Octree2BufBaseIiS4_S6_EEED0Ev@Base 1.6
 (optional=templinst)_ZN3pcl6octree16OctreePointCloudINS_11PointXYZRGBENS0_26OctreeContainerDataTVectorIiEENS0_20OctreeContainerEmptyIiEENS0_14Octree2BufBaseIiS4_S6_EEED1Ev@Base 1.6
 (optional=templinst)_ZN3pcl6octree16OctreePointCloudINS_11PointXYZRGBENS0_26OctreeContainerDataTVectorIiEENS0_20OctreeContainerEmptyIiEENS0_14Octree2BufBaseIiS4_S6_EEED2Ev@Base 1.6
 (optional=templinst)_ZN3pcl6octree16OctreePointCloudINS_12PointXYZRGBAENS0_26OctreeContainerDataTVectorIiEENS0_20OctreeContainerEmptyIiEENS0_10OctreeBaseIiS4_S6_EEE10deleteTreeEb@Base 1.6
 (optional=templinst)_ZN3pcl6octree16OctreePointCloudINS_12PointXYZRGBAENS0_26OctreeContainerDataTVectorIiEENS0_20OctreeContainerEmptyIiEENS0_10OctreeBaseIiS4_S6_EEE10setEpsilonEd@Base 1.6
 (optional=templinst)_ZN3pcl6octree16OctreePointCloudINS_12PointXYZRGBAENS0_26OctreeContainerDataTVectorIiEENS0_20OctreeContainerEmptyIiEENS0_10OctreeBaseIiS4_S6_EEE11addPointIdxEi@Base 1.6
 (optional=templinst)_ZN3pcl6octree16OctreePointCloudINS_12PointXYZRGBAENS0_26OctreeContainerDataTVectorIiEENS0_20OctreeContainerEmptyIiEENS0_10OctreeBaseIiS4_S6_EEE13getKeyBitSizeEv@Base 1.6
 (optional=templinst)_ZN3pcl6octree16OctreePointCloudINS_12PointXYZRGBAENS0_26OctreeContainerDataTVectorIiEENS0_20OctreeContainerEmptyIiEENS0_10OctreeBaseIiS4_S6_EEE13setInputCloudERKN5boost10shared_ptrIKNS_10PointCloudIS2_EEEERKNSB_IKSt6vectorIiSaIiEEEE@Base 1.6
 (optional=templinst)_ZN3pcl6octree16OctreePointCloudINS_12PointXYZRGBAENS0_26OctreeContainerDataTVectorIiEENS0_20OctreeContainerEmptyIiEENS0_10OctreeBaseIiS4_S6_EEE13setResolutionEd@Base 1.6
 (optional=templinst)_ZN3pcl6octree16OctreePointCloudINS_12PointXYZRGBAENS0_26OctreeContainerDataTVectorIiEENS0_20OctreeContainerEmptyIiEENS0_10OctreeBaseIiS4_S6_EEE14getVoxelBoundsERNS0_18OctreeIteratorBaseIiS8_EERN5Eigen6MatrixIfLi3ELi1ELi0ELi3ELi1EEESG_@Base 1.6
 (optional=templinst)_ZN3pcl6octree16OctreePointCloudINS_12PointXYZRGBAENS0_26OctreeContainerDataTVectorIiEENS0_20OctreeContainerEmptyIiEENS0_10OctreeBaseIiS4_S6_EEE15addPointToCloudERKS2_N5boost10shared_ptrINS_10PointCloudIS2_EEEE@Base 1.6
 (optional=templinst)_ZN3pcl6octree16OctreePointCloudINS_12PointXYZRGBAENS0_26OctreeContainerDataTVectorIiEENS0_20OctreeContainerEmptyIiEENS0_10OctreeBaseIiS4_S6_EEE15addPointToCloudERKS2_N5boost10shared_ptrINS_10PointCloudIS2_EEEENSD_ISt6vectorIiSaIiEEEE@Base 1.6
 (optional=templinst)_ZN3pcl6octree16OctreePointCloudINS_12PointXYZRGBAENS0_26OctreeContainerDataTVectorIiEENS0_20OctreeContainerEmptyIiEENS0_10OctreeBaseIiS4_S6_EEE17addPointFromCloudEiN5boost10shared_ptrISt6vectorIiSaIiEEEE@Base 1.6
 (optional=templinst)_ZN3pcl6octree16OctreePointCloudINS_12PointXYZRGBAENS0_26OctreeContainerDataTVectorIiEENS0_20OctreeContainerEmptyIiEENS0_10OctreeBaseIiS4_S6_EEE17defineBoundingBoxEd@Base 1.6
 (optional=templinst)_ZN3pcl6octree16OctreePointCloudINS_12PointXYZRGBAENS0_26OctreeContainerDataTVectorIiEENS0_20OctreeContainerEmptyIiEENS0_10OctreeBaseIiS4_S6_EEE17defineBoundingBoxEddd@Base 1.6
 (optional=templinst)_ZN3pcl6octree16OctreePointCloudINS_12PointXYZRGBAENS0_26OctreeContainerDataTVectorIiEENS0_20OctreeContainerEmptyIiEENS0_10OctreeBaseIiS4_S6_EEE17defineBoundingBoxEdddddd@Base 1.6
 (optional=templinst)_ZN3pcl6octree16OctreePointCloudINS_12PointXYZRGBAENS0_26OctreeContainerDataTVectorIiEENS0_20OctreeContainerEmptyIiEENS0_10OctreeBaseIiS4_S6_EEE17defineBoundingBoxEv@Base 1.6
 (optional=templinst)_ZN3pcl6octree16OctreePointCloudINS_12PointXYZRGBAENS0_26OctreeContainerDataTVectorIiEENS0_20OctreeContainerEmptyIiEENS0_10OctreeBaseIiS4_S6_EEE18deleteVoxelAtPointERKS2_@Base 1.6
 (optional=templinst)_ZN3pcl6octree16OctreePointCloudINS_12PointXYZRGBAENS0_26OctreeContainerDataTVectorIiEENS0_20OctreeContainerEmptyIiEENS0_10OctreeBaseIiS4_S6_EEE18deleteVoxelAtPointERKi@Base 1.6
 (optional=templinst)_ZN3pcl6octree16OctreePointCloudINS_12PointXYZRGBAENS0_26OctreeContainerDataTVectorIiEENS0_20OctreeContainerEmptyIiEENS0_10OctreeBaseIiS4_S6_EEE23addPointsFromInputCloudEv@Base 1.6
 (optional=templinst)_ZN3pcl6octree16OctreePointCloudINS_12PointXYZRGBAENS0_26OctreeContainerDataTVectorIiEENS0_20OctreeContainerEmptyIiEENS0_10OctreeBaseIiS4_S6_EEE23adoptBoundingBoxToPointERKS2_@Base 1.6
 (optional=templinst)_ZN3pcl6octree16OctreePointCloudINS_12PointXYZRGBAENS0_26OctreeContainerDataTVectorIiEENS0_20OctreeContainerEmptyIiEENS0_10OctreeBaseIiS4_S6_EEE41getApproxIntersectedVoxelCentersBySegmentERKN5Eigen6MatrixIfLi3ELi1ELi0ELi3ELi1EEESE_RSt6vectorIS2_NSA_17aligned_allocatorIS2_EEEf@Base 1.6
 (optional=templinst)_ZN3pcl6octree16OctreePointCloudINS_12PointXYZRGBAENS0_26OctreeContainerDataTVectorIiEENS0_20OctreeContainerEmptyIiEENS0_10OctreeBaseIiS4_S6_EEEC1Ed@Base 1.6
 (optional=templinst)_ZN3pcl6octree16OctreePointCloudINS_12PointXYZRGBAENS0_26OctreeContainerDataTVectorIiEENS0_20OctreeContainerEmptyIiEENS0_10OctreeBaseIiS4_S6_EEEC2Ed@Base 1.6
 (optional=templinst)_ZN3pcl6octree16OctreePointCloudINS_12PointXYZRGBAENS0_26OctreeContainerDataTVectorIiEENS0_20OctreeContainerEmptyIiEENS0_10OctreeBaseIiS4_S6_EEED0Ev@Base 1.6
 (optional=templinst)_ZN3pcl6octree16OctreePointCloudINS_12PointXYZRGBAENS0_26OctreeContainerDataTVectorIiEENS0_20OctreeContainerEmptyIiEENS0_10OctreeBaseIiS4_S6_EEED1Ev@Base 1.6
 (optional=templinst)_ZN3pcl6octree16OctreePointCloudINS_12PointXYZRGBAENS0_26OctreeContainerDataTVectorIiEENS0_20OctreeContainerEmptyIiEENS0_10OctreeBaseIiS4_S6_EEED2Ev@Base 1.6
 (optional=templinst)_ZN3pcl6octree16OctreePointCloudINS_12PointXYZRGBAENS0_26OctreeContainerDataTVectorIiEENS0_20OctreeContainerEmptyIiEENS0_14Octree2BufBaseIiS4_S6_EEE10deleteTreeEb@Base 1.6
 (optional=templinst)_ZN3pcl6octree16OctreePointCloudINS_12PointXYZRGBAENS0_26OctreeContainerDataTVectorIiEENS0_20OctreeContainerEmptyIiEENS0_14Octree2BufBaseIiS4_S6_EEE10setEpsilonEd@Base 1.6
 (optional=templinst)_ZN3pcl6octree16OctreePointCloudINS_12PointXYZRGBAENS0_26OctreeContainerDataTVectorIiEENS0_20OctreeContainerEmptyIiEENS0_14Octree2BufBaseIiS4_S6_EEE11addPointIdxEi@Base 1.6
 (optional=templinst)_ZN3pcl6octree16OctreePointCloudINS_12PointXYZRGBAENS0_26OctreeContainerDataTVectorIiEENS0_20OctreeContainerEmptyIiEENS0_14Octree2BufBaseIiS4_S6_EEE13getKeyBitSizeEv@Base 1.6
 (optional=templinst)_ZN3pcl6octree16OctreePointCloudINS_12PointXYZRGBAENS0_26OctreeContainerDataTVectorIiEENS0_20OctreeContainerEmptyIiEENS0_14Octree2BufBaseIiS4_S6_EEE13setInputCloudERKN5boost10shared_ptrIKNS_10PointCloudIS2_EEEERKNSB_IKSt6vectorIiSaIiEEEE@Base 1.6
 (optional=templinst)_ZN3pcl6octree16OctreePointCloudINS_12PointXYZRGBAENS0_26OctreeContainerDataTVectorIiEENS0_20OctreeContainerEmptyIiEENS0_14Octree2BufBaseIiS4_S6_EEE13setResolutionEd@Base 1.6
 (optional=templinst)_ZN3pcl6octree16OctreePointCloudINS_12PointXYZRGBAENS0_26OctreeContainerDataTVectorIiEENS0_20OctreeContainerEmptyIiEENS0_14Octree2BufBaseIiS4_S6_EEE14getVoxelBoundsERNS0_18OctreeIteratorBaseIiS8_EERN5Eigen6MatrixIfLi3ELi1ELi0ELi3ELi1EEESG_@Base 1.6
 (optional=templinst)_ZN3pcl6octree16OctreePointCloudINS_12PointXYZRGBAENS0_26OctreeContainerDataTVectorIiEENS0_20OctreeContainerEmptyIiEENS0_14Octree2BufBaseIiS4_S6_EEE15addPointToCloudERKS2_N5boost10shared_ptrINS_10PointCloudIS2_EEEE@Base 1.6
 (optional=templinst)_ZN3pcl6octree16OctreePointCloudINS_12PointXYZRGBAENS0_26OctreeContainerDataTVectorIiEENS0_20OctreeContainerEmptyIiEENS0_14Octree2BufBaseIiS4_S6_EEE15addPointToCloudERKS2_N5boost10shared_ptrINS_10PointCloudIS2_EEEENSD_ISt6vectorIiSaIiEEEE@Base 1.6
 (optional=templinst)_ZN3pcl6octree16OctreePointCloudINS_12PointXYZRGBAENS0_26OctreeContainerDataTVectorIiEENS0_20OctreeContainerEmptyIiEENS0_14Octree2BufBaseIiS4_S6_EEE17addPointFromCloudEiN5boost10shared_ptrISt6vectorIiSaIiEEEE@Base 1.6
 (optional=templinst)_ZN3pcl6octree16OctreePointCloudINS_12PointXYZRGBAENS0_26OctreeContainerDataTVectorIiEENS0_20OctreeContainerEmptyIiEENS0_14Octree2BufBaseIiS4_S6_EEE17defineBoundingBoxEd@Base 1.6
 (optional=templinst)_ZN3pcl6octree16OctreePointCloudINS_12PointXYZRGBAENS0_26OctreeContainerDataTVectorIiEENS0_20OctreeContainerEmptyIiEENS0_14Octree2BufBaseIiS4_S6_EEE17defineBoundingBoxEddd@Base 1.6
 (optional=templinst)_ZN3pcl6octree16OctreePointCloudINS_12PointXYZRGBAENS0_26OctreeContainerDataTVectorIiEENS0_20OctreeContainerEmptyIiEENS0_14Octree2BufBaseIiS4_S6_EEE17defineBoundingBoxEdddddd@Base 1.6
 (optional=templinst)_ZN3pcl6octree16OctreePointCloudINS_12PointXYZRGBAENS0_26OctreeContainerDataTVectorIiEENS0_20OctreeContainerEmptyIiEENS0_14Octree2BufBaseIiS4_S6_EEE17defineBoundingBoxEv@Base 1.6
 (optional=templinst)_ZN3pcl6octree16OctreePointCloudINS_12PointXYZRGBAENS0_26OctreeContainerDataTVectorIiEENS0_20OctreeContainerEmptyIiEENS0_14Octree2BufBaseIiS4_S6_EEE18deleteVoxelAtPointERKS2_@Base 1.6
 (optional=templinst)_ZN3pcl6octree16OctreePointCloudINS_12PointXYZRGBAENS0_26OctreeContainerDataTVectorIiEENS0_20OctreeContainerEmptyIiEENS0_14Octree2BufBaseIiS4_S6_EEE18deleteVoxelAtPointERKi@Base 1.6
 (optional=templinst)_ZN3pcl6octree16OctreePointCloudINS_12PointXYZRGBAENS0_26OctreeContainerDataTVectorIiEENS0_20OctreeContainerEmptyIiEENS0_14Octree2BufBaseIiS4_S6_EEE23addPointsFromInputCloudEv@Base 1.6
 (optional=templinst)_ZN3pcl6octree16OctreePointCloudINS_12PointXYZRGBAENS0_26OctreeContainerDataTVectorIiEENS0_20OctreeContainerEmptyIiEENS0_14Octree2BufBaseIiS4_S6_EEE23adoptBoundingBoxToPointERKS2_@Base 1.6
 (optional=templinst)_ZN3pcl6octree16OctreePointCloudINS_12PointXYZRGBAENS0_26OctreeContainerDataTVectorIiEENS0_20OctreeContainerEmptyIiEENS0_14Octree2BufBaseIiS4_S6_EEE41getApproxIntersectedVoxelCentersBySegmentERKN5Eigen6MatrixIfLi3ELi1ELi0ELi3ELi1EEESE_RSt6vectorIS2_NSA_17aligned_allocatorIS2_EEEf@Base 1.6
 (optional=templinst)_ZN3pcl6octree16OctreePointCloudINS_12PointXYZRGBAENS0_26OctreeContainerDataTVectorIiEENS0_20OctreeContainerEmptyIiEENS0_14Octree2BufBaseIiS4_S6_EEEC1Ed@Base 1.6
 (optional=templinst)_ZN3pcl6octree16OctreePointCloudINS_12PointXYZRGBAENS0_26OctreeContainerDataTVectorIiEENS0_20OctreeContainerEmptyIiEENS0_14Octree2BufBaseIiS4_S6_EEEC2Ed@Base 1.6
 (optional=templinst)_ZN3pcl6octree16OctreePointCloudINS_12PointXYZRGBAENS0_26OctreeContainerDataTVectorIiEENS0_20OctreeContainerEmptyIiEENS0_14Octree2BufBaseIiS4_S6_EEED0Ev@Base 1.6
 (optional=templinst)_ZN3pcl6octree16OctreePointCloudINS_12PointXYZRGBAENS0_26OctreeContainerDataTVectorIiEENS0_20OctreeContainerEmptyIiEENS0_14Octree2BufBaseIiS4_S6_EEED1Ev@Base 1.6
 (optional=templinst)_ZN3pcl6octree16OctreePointCloudINS_12PointXYZRGBAENS0_26OctreeContainerDataTVectorIiEENS0_20OctreeContainerEmptyIiEENS0_14Octree2BufBaseIiS4_S6_EEED2Ev@Base 1.6
 (optional=templinst)_ZN3pcl6octree16OctreePointCloudINS_12PointXYZRGBLENS0_26OctreeContainerDataTVectorIiEENS0_20OctreeContainerEmptyIiEENS0_10OctreeBaseIiS4_S6_EEE10deleteTreeEb@Base 1.6
 (optional=templinst)_ZN3pcl6octree16OctreePointCloudINS_12PointXYZRGBLENS0_26OctreeContainerDataTVectorIiEENS0_20OctreeContainerEmptyIiEENS0_10OctreeBaseIiS4_S6_EEE10setEpsilonEd@Base 1.6
 (optional=templinst)_ZN3pcl6octree16OctreePointCloudINS_12PointXYZRGBLENS0_26OctreeContainerDataTVectorIiEENS0_20OctreeContainerEmptyIiEENS0_10OctreeBaseIiS4_S6_EEE11addPointIdxEi@Base 1.6
 (optional=templinst)_ZN3pcl6octree16OctreePointCloudINS_12PointXYZRGBLENS0_26OctreeContainerDataTVectorIiEENS0_20OctreeContainerEmptyIiEENS0_10OctreeBaseIiS4_S6_EEE13getKeyBitSizeEv@Base 1.6
 (optional=templinst)_ZN3pcl6octree16OctreePointCloudINS_12PointXYZRGBLENS0_26OctreeContainerDataTVectorIiEENS0_20OctreeContainerEmptyIiEENS0_10OctreeBaseIiS4_S6_EEE13setInputCloudERKN5boost10shared_ptrIKNS_10PointCloudIS2_EEEERKNSB_IKSt6vectorIiSaIiEEEE@Base 1.6
 (optional=templinst)_ZN3pcl6octree16OctreePointCloudINS_12PointXYZRGBLENS0_26OctreeContainerDataTVectorIiEENS0_20OctreeContainerEmptyIiEENS0_10OctreeBaseIiS4_S6_EEE13setResolutionEd@Base 1.6
 (optional=templinst)_ZN3pcl6octree16OctreePointCloudINS_12PointXYZRGBLENS0_26OctreeContainerDataTVectorIiEENS0_20OctreeContainerEmptyIiEENS0_10OctreeBaseIiS4_S6_EEE14getVoxelBoundsERNS0_18OctreeIteratorBaseIiS8_EERN5Eigen6MatrixIfLi3ELi1ELi0ELi3ELi1EEESG_@Base 1.6
 (optional=templinst)_ZN3pcl6octree16OctreePointCloudINS_12PointXYZRGBLENS0_26OctreeContainerDataTVectorIiEENS0_20OctreeContainerEmptyIiEENS0_10OctreeBaseIiS4_S6_EEE15addPointToCloudERKS2_N5boost10shared_ptrINS_10PointCloudIS2_EEEE@Base 1.6
 (optional=templinst)_ZN3pcl6octree16OctreePointCloudINS_12PointXYZRGBLENS0_26OctreeContainerDataTVectorIiEENS0_20OctreeContainerEmptyIiEENS0_10OctreeBaseIiS4_S6_EEE15addPointToCloudERKS2_N5boost10shared_ptrINS_10PointCloudIS2_EEEENSD_ISt6vectorIiSaIiEEEE@Base 1.6
 (optional=templinst)_ZN3pcl6octree16OctreePointCloudINS_12PointXYZRGBLENS0_26OctreeContainerDataTVectorIiEENS0_20OctreeContainerEmptyIiEENS0_10OctreeBaseIiS4_S6_EEE17addPointFromCloudEiN5boost10shared_ptrISt6vectorIiSaIiEEEE@Base 1.6
 (optional=templinst)_ZN3pcl6octree16OctreePointCloudINS_12PointXYZRGBLENS0_26OctreeContainerDataTVectorIiEENS0_20OctreeContainerEmptyIiEENS0_10OctreeBaseIiS4_S6_EEE17defineBoundingBoxEd@Base 1.6
 (optional=templinst)_ZN3pcl6octree16OctreePointCloudINS_12PointXYZRGBLENS0_26OctreeContainerDataTVectorIiEENS0_20OctreeContainerEmptyIiEENS0_10OctreeBaseIiS4_S6_EEE17defineBoundingBoxEddd@Base 1.6
 (optional=templinst)_ZN3pcl6octree16OctreePointCloudINS_12PointXYZRGBLENS0_26OctreeContainerDataTVectorIiEENS0_20OctreeContainerEmptyIiEENS0_10OctreeBaseIiS4_S6_EEE17defineBoundingBoxEdddddd@Base 1.6
 (optional=templinst)_ZN3pcl6octree16OctreePointCloudINS_12PointXYZRGBLENS0_26OctreeContainerDataTVectorIiEENS0_20OctreeContainerEmptyIiEENS0_10OctreeBaseIiS4_S6_EEE17defineBoundingBoxEv@Base 1.6
 (optional=templinst)_ZN3pcl6octree16OctreePointCloudINS_12PointXYZRGBLENS0_26OctreeContainerDataTVectorIiEENS0_20OctreeContainerEmptyIiEENS0_10OctreeBaseIiS4_S6_EEE18deleteVoxelAtPointERKS2_@Base 1.6
 (optional=templinst)_ZN3pcl6octree16OctreePointCloudINS_12PointXYZRGBLENS0_26OctreeContainerDataTVectorIiEENS0_20OctreeContainerEmptyIiEENS0_10OctreeBaseIiS4_S6_EEE18deleteVoxelAtPointERKi@Base 1.6
 (optional=templinst)_ZN3pcl6octree16OctreePointCloudINS_12PointXYZRGBLENS0_26OctreeContainerDataTVectorIiEENS0_20OctreeContainerEmptyIiEENS0_10OctreeBaseIiS4_S6_EEE23addPointsFromInputCloudEv@Base 1.6
 (optional=templinst)_ZN3pcl6octree16OctreePointCloudINS_12PointXYZRGBLENS0_26OctreeContainerDataTVectorIiEENS0_20OctreeContainerEmptyIiEENS0_10OctreeBaseIiS4_S6_EEE23adoptBoundingBoxToPointERKS2_@Base 1.6
 (optional=templinst)_ZN3pcl6octree16OctreePointCloudINS_12PointXYZRGBLENS0_26OctreeContainerDataTVectorIiEENS0_20OctreeContainerEmptyIiEENS0_10OctreeBaseIiS4_S6_EEE41getApproxIntersectedVoxelCentersBySegmentERKN5Eigen6MatrixIfLi3ELi1ELi0ELi3ELi1EEESE_RSt6vectorIS2_NSA_17aligned_allocatorIS2_EEEf@Base 1.6
 (optional=templinst)_ZN3pcl6octree16OctreePointCloudINS_12PointXYZRGBLENS0_26OctreeContainerDataTVectorIiEENS0_20OctreeContainerEmptyIiEENS0_10OctreeBaseIiS4_S6_EEEC1Ed@Base 1.6
 (optional=templinst)_ZN3pcl6octree16OctreePointCloudINS_12PointXYZRGBLENS0_26OctreeContainerDataTVectorIiEENS0_20OctreeContainerEmptyIiEENS0_10OctreeBaseIiS4_S6_EEEC2Ed@Base 1.6
 (optional=templinst)_ZN3pcl6octree16OctreePointCloudINS_12PointXYZRGBLENS0_26OctreeContainerDataTVectorIiEENS0_20OctreeContainerEmptyIiEENS0_10OctreeBaseIiS4_S6_EEED0Ev@Base 1.6
 (optional=templinst)_ZN3pcl6octree16OctreePointCloudINS_12PointXYZRGBLENS0_26OctreeContainerDataTVectorIiEENS0_20OctreeContainerEmptyIiEENS0_10OctreeBaseIiS4_S6_EEED1Ev@Base 1.6
 (optional=templinst)_ZN3pcl6octree16OctreePointCloudINS_12PointXYZRGBLENS0_26OctreeContainerDataTVectorIiEENS0_20OctreeContainerEmptyIiEENS0_10OctreeBaseIiS4_S6_EEED2Ev@Base 1.6
 (optional=templinst)_ZN3pcl6octree16OctreePointCloudINS_12PointXYZRGBLENS0_26OctreeContainerDataTVectorIiEENS0_20OctreeContainerEmptyIiEENS0_14Octree2BufBaseIiS4_S6_EEE10deleteTreeEb@Base 1.6
 (optional=templinst)_ZN3pcl6octree16OctreePointCloudINS_12PointXYZRGBLENS0_26OctreeContainerDataTVectorIiEENS0_20OctreeContainerEmptyIiEENS0_14Octree2BufBaseIiS4_S6_EEE10setEpsilonEd@Base 1.6
 (optional=templinst)_ZN3pcl6octree16OctreePointCloudINS_12PointXYZRGBLENS0_26OctreeContainerDataTVectorIiEENS0_20OctreeContainerEmptyIiEENS0_14Octree2BufBaseIiS4_S6_EEE11addPointIdxEi@Base 1.6
 (optional=templinst)_ZN3pcl6octree16OctreePointCloudINS_12PointXYZRGBLENS0_26OctreeContainerDataTVectorIiEENS0_20OctreeContainerEmptyIiEENS0_14Octree2BufBaseIiS4_S6_EEE13getKeyBitSizeEv@Base 1.6
 (optional=templinst)_ZN3pcl6octree16OctreePointCloudINS_12PointXYZRGBLENS0_26OctreeContainerDataTVectorIiEENS0_20OctreeContainerEmptyIiEENS0_14Octree2BufBaseIiS4_S6_EEE13setInputCloudERKN5boost10shared_ptrIKNS_10PointCloudIS2_EEEERKNSB_IKSt6vectorIiSaIiEEEE@Base 1.6
 (optional=templinst)_ZN3pcl6octree16OctreePointCloudINS_12PointXYZRGBLENS0_26OctreeContainerDataTVectorIiEENS0_20OctreeContainerEmptyIiEENS0_14Octree2BufBaseIiS4_S6_EEE13setResolutionEd@Base 1.6
 (optional=templinst)_ZN3pcl6octree16OctreePointCloudINS_12PointXYZRGBLENS0_26OctreeContainerDataTVectorIiEENS0_20OctreeContainerEmptyIiEENS0_14Octree2BufBaseIiS4_S6_EEE14getVoxelBoundsERNS0_18OctreeIteratorBaseIiS8_EERN5Eigen6MatrixIfLi3ELi1ELi0ELi3ELi1EEESG_@Base 1.6
 (optional=templinst)_ZN3pcl6octree16OctreePointCloudINS_12PointXYZRGBLENS0_26OctreeContainerDataTVectorIiEENS0_20OctreeContainerEmptyIiEENS0_14Octree2BufBaseIiS4_S6_EEE15addPointToCloudERKS2_N5boost10shared_ptrINS_10PointCloudIS2_EEEE@Base 1.6
 (optional=templinst)_ZN3pcl6octree16OctreePointCloudINS_12PointXYZRGBLENS0_26OctreeContainerDataTVectorIiEENS0_20OctreeContainerEmptyIiEENS0_14Octree2BufBaseIiS4_S6_EEE15addPointToCloudERKS2_N5boost10shared_ptrINS_10PointCloudIS2_EEEENSD_ISt6vectorIiSaIiEEEE@Base 1.6
 (optional=templinst)_ZN3pcl6octree16OctreePointCloudINS_12PointXYZRGBLENS0_26OctreeContainerDataTVectorIiEENS0_20OctreeContainerEmptyIiEENS0_14Octree2BufBaseIiS4_S6_EEE17addPointFromCloudEiN5boost10shared_ptrISt6vectorIiSaIiEEEE@Base 1.6
 (optional=templinst)_ZN3pcl6octree16OctreePointCloudINS_12PointXYZRGBLENS0_26OctreeContainerDataTVectorIiEENS0_20OctreeContainerEmptyIiEENS0_14Octree2BufBaseIiS4_S6_EEE17defineBoundingBoxEd@Base 1.6
 (optional=templinst)_ZN3pcl6octree16OctreePointCloudINS_12PointXYZRGBLENS0_26OctreeContainerDataTVectorIiEENS0_20OctreeContainerEmptyIiEENS0_14Octree2BufBaseIiS4_S6_EEE17defineBoundingBoxEddd@Base 1.6
 (optional=templinst)_ZN3pcl6octree16OctreePointCloudINS_12PointXYZRGBLENS0_26OctreeContainerDataTVectorIiEENS0_20OctreeContainerEmptyIiEENS0_14Octree2BufBaseIiS4_S6_EEE17defineBoundingBoxEdddddd@Base 1.6
 (optional=templinst)_ZN3pcl6octree16OctreePointCloudINS_12PointXYZRGBLENS0_26OctreeContainerDataTVectorIiEENS0_20OctreeContainerEmptyIiEENS0_14Octree2BufBaseIiS4_S6_EEE17defineBoundingBoxEv@Base 1.6
 (optional=templinst)_ZN3pcl6octree16OctreePointCloudINS_12PointXYZRGBLENS0_26OctreeContainerDataTVectorIiEENS0_20OctreeContainerEmptyIiEENS0_14Octree2BufBaseIiS4_S6_EEE18deleteVoxelAtPointERKS2_@Base 1.6
 (optional=templinst)_ZN3pcl6octree16OctreePointCloudINS_12PointXYZRGBLENS0_26OctreeContainerDataTVectorIiEENS0_20OctreeContainerEmptyIiEENS0_14Octree2BufBaseIiS4_S6_EEE18deleteVoxelAtPointERKi@Base 1.6
 (optional=templinst)_ZN3pcl6octree16OctreePointCloudINS_12PointXYZRGBLENS0_26OctreeContainerDataTVectorIiEENS0_20OctreeContainerEmptyIiEENS0_14Octree2BufBaseIiS4_S6_EEE23addPointsFromInputCloudEv@Base 1.6
 (optional=templinst)_ZN3pcl6octree16OctreePointCloudINS_12PointXYZRGBLENS0_26OctreeContainerDataTVectorIiEENS0_20OctreeContainerEmptyIiEENS0_14Octree2BufBaseIiS4_S6_EEE23adoptBoundingBoxToPointERKS2_@Base 1.6
 (optional=templinst)_ZN3pcl6octree16OctreePointCloudINS_12PointXYZRGBLENS0_26OctreeContainerDataTVectorIiEENS0_20OctreeContainerEmptyIiEENS0_14Octree2BufBaseIiS4_S6_EEE41getApproxIntersectedVoxelCentersBySegmentERKN5Eigen6MatrixIfLi3ELi1ELi0ELi3ELi1EEESE_RSt6vectorIS2_NSA_17aligned_allocatorIS2_EEEf@Base 1.6
 (optional=templinst)_ZN3pcl6octree16OctreePointCloudINS_12PointXYZRGBLENS0_26OctreeContainerDataTVectorIiEENS0_20OctreeContainerEmptyIiEENS0_14Octree2BufBaseIiS4_S6_EEEC1Ed@Base 1.6
 (optional=templinst)_ZN3pcl6octree16OctreePointCloudINS_12PointXYZRGBLENS0_26OctreeContainerDataTVectorIiEENS0_20OctreeContainerEmptyIiEENS0_14Octree2BufBaseIiS4_S6_EEEC2Ed@Base 1.6
 (optional=templinst)_ZN3pcl6octree16OctreePointCloudINS_12PointXYZRGBLENS0_26OctreeContainerDataTVectorIiEENS0_20OctreeContainerEmptyIiEENS0_14Octree2BufBaseIiS4_S6_EEED0Ev@Base 1.6
 (optional=templinst)_ZN3pcl6octree16OctreePointCloudINS_12PointXYZRGBLENS0_26OctreeContainerDataTVectorIiEENS0_20OctreeContainerEmptyIiEENS0_14Octree2BufBaseIiS4_S6_EEED1Ev@Base 1.6
 (optional=templinst)_ZN3pcl6octree16OctreePointCloudINS_12PointXYZRGBLENS0_26OctreeContainerDataTVectorIiEENS0_20OctreeContainerEmptyIiEENS0_14Octree2BufBaseIiS4_S6_EEED2Ev@Base 1.6
 (optional=templinst)_ZN3pcl6octree16OctreePointCloudINS_13InterestPointENS0_26OctreeContainerDataTVectorIiEENS0_20OctreeContainerEmptyIiEENS0_10OctreeBaseIiS4_S6_EEE10deleteTreeEb@Base 1.6
 (optional=templinst)_ZN3pcl6octree16OctreePointCloudINS_13InterestPointENS0_26OctreeContainerDataTVectorIiEENS0_20OctreeContainerEmptyIiEENS0_10OctreeBaseIiS4_S6_EEE10setEpsilonEd@Base 1.6
 (optional=templinst)_ZN3pcl6octree16OctreePointCloudINS_13InterestPointENS0_26OctreeContainerDataTVectorIiEENS0_20OctreeContainerEmptyIiEENS0_10OctreeBaseIiS4_S6_EEE11addPointIdxEi@Base 1.6
 (optional=templinst)_ZN3pcl6octree16OctreePointCloudINS_13InterestPointENS0_26OctreeContainerDataTVectorIiEENS0_20OctreeContainerEmptyIiEENS0_10OctreeBaseIiS4_S6_EEE13getKeyBitSizeEv@Base 1.6
 (optional=templinst)_ZN3pcl6octree16OctreePointCloudINS_13InterestPointENS0_26OctreeContainerDataTVectorIiEENS0_20OctreeContainerEmptyIiEENS0_10OctreeBaseIiS4_S6_EEE13setInputCloudERKN5boost10shared_ptrIKNS_10PointCloudIS2_EEEERKNSB_IKSt6vectorIiSaIiEEEE@Base 1.6
 (optional=templinst)_ZN3pcl6octree16OctreePointCloudINS_13InterestPointENS0_26OctreeContainerDataTVectorIiEENS0_20OctreeContainerEmptyIiEENS0_10OctreeBaseIiS4_S6_EEE13setResolutionEd@Base 1.6
 (optional=templinst)_ZN3pcl6octree16OctreePointCloudINS_13InterestPointENS0_26OctreeContainerDataTVectorIiEENS0_20OctreeContainerEmptyIiEENS0_10OctreeBaseIiS4_S6_EEE14getVoxelBoundsERNS0_18OctreeIteratorBaseIiS8_EERN5Eigen6MatrixIfLi3ELi1ELi0ELi3ELi1EEESG_@Base 1.6
 (optional=templinst)_ZN3pcl6octree16OctreePointCloudINS_13InterestPointENS0_26OctreeContainerDataTVectorIiEENS0_20OctreeContainerEmptyIiEENS0_10OctreeBaseIiS4_S6_EEE15addPointToCloudERKS2_N5boost10shared_ptrINS_10PointCloudIS2_EEEE@Base 1.6
 (optional=templinst)_ZN3pcl6octree16OctreePointCloudINS_13InterestPointENS0_26OctreeContainerDataTVectorIiEENS0_20OctreeContainerEmptyIiEENS0_10OctreeBaseIiS4_S6_EEE15addPointToCloudERKS2_N5boost10shared_ptrINS_10PointCloudIS2_EEEENSD_ISt6vectorIiSaIiEEEE@Base 1.6
 (optional=templinst)_ZN3pcl6octree16OctreePointCloudINS_13InterestPointENS0_26OctreeContainerDataTVectorIiEENS0_20OctreeContainerEmptyIiEENS0_10OctreeBaseIiS4_S6_EEE17addPointFromCloudEiN5boost10shared_ptrISt6vectorIiSaIiEEEE@Base 1.6
 (optional=templinst)_ZN3pcl6octree16OctreePointCloudINS_13InterestPointENS0_26OctreeContainerDataTVectorIiEENS0_20OctreeContainerEmptyIiEENS0_10OctreeBaseIiS4_S6_EEE17defineBoundingBoxEd@Base 1.6
 (optional=templinst)_ZN3pcl6octree16OctreePointCloudINS_13InterestPointENS0_26OctreeContainerDataTVectorIiEENS0_20OctreeContainerEmptyIiEENS0_10OctreeBaseIiS4_S6_EEE17defineBoundingBoxEddd@Base 1.6
 (optional=templinst)_ZN3pcl6octree16OctreePointCloudINS_13InterestPointENS0_26OctreeContainerDataTVectorIiEENS0_20OctreeContainerEmptyIiEENS0_10OctreeBaseIiS4_S6_EEE17defineBoundingBoxEdddddd@Base 1.6
 (optional=templinst)_ZN3pcl6octree16OctreePointCloudINS_13InterestPointENS0_26OctreeContainerDataTVectorIiEENS0_20OctreeContainerEmptyIiEENS0_10OctreeBaseIiS4_S6_EEE17defineBoundingBoxEv@Base 1.6
 (optional=templinst)_ZN3pcl6octree16OctreePointCloudINS_13InterestPointENS0_26OctreeContainerDataTVectorIiEENS0_20OctreeContainerEmptyIiEENS0_10OctreeBaseIiS4_S6_EEE18deleteVoxelAtPointERKS2_@Base 1.6
 (optional=templinst)_ZN3pcl6octree16OctreePointCloudINS_13InterestPointENS0_26OctreeContainerDataTVectorIiEENS0_20OctreeContainerEmptyIiEENS0_10OctreeBaseIiS4_S6_EEE18deleteVoxelAtPointERKi@Base 1.6
 (optional=templinst)_ZN3pcl6octree16OctreePointCloudINS_13InterestPointENS0_26OctreeContainerDataTVectorIiEENS0_20OctreeContainerEmptyIiEENS0_10OctreeBaseIiS4_S6_EEE23addPointsFromInputCloudEv@Base 1.6
 (optional=templinst)_ZN3pcl6octree16OctreePointCloudINS_13InterestPointENS0_26OctreeContainerDataTVectorIiEENS0_20OctreeContainerEmptyIiEENS0_10OctreeBaseIiS4_S6_EEE23adoptBoundingBoxToPointERKS2_@Base 1.6
 (optional=templinst)_ZN3pcl6octree16OctreePointCloudINS_13InterestPointENS0_26OctreeContainerDataTVectorIiEENS0_20OctreeContainerEmptyIiEENS0_10OctreeBaseIiS4_S6_EEE41getApproxIntersectedVoxelCentersBySegmentERKN5Eigen6MatrixIfLi3ELi1ELi0ELi3ELi1EEESE_RSt6vectorIS2_NSA_17aligned_allocatorIS2_EEEf@Base 1.6
 (optional=templinst)_ZN3pcl6octree16OctreePointCloudINS_13InterestPointENS0_26OctreeContainerDataTVectorIiEENS0_20OctreeContainerEmptyIiEENS0_10OctreeBaseIiS4_S6_EEEC1Ed@Base 1.6
 (optional=templinst)_ZN3pcl6octree16OctreePointCloudINS_13InterestPointENS0_26OctreeContainerDataTVectorIiEENS0_20OctreeContainerEmptyIiEENS0_10OctreeBaseIiS4_S6_EEEC2Ed@Base 1.6
 (optional=templinst)_ZN3pcl6octree16OctreePointCloudINS_13InterestPointENS0_26OctreeContainerDataTVectorIiEENS0_20OctreeContainerEmptyIiEENS0_10OctreeBaseIiS4_S6_EEED0Ev@Base 1.6
 (optional=templinst)_ZN3pcl6octree16OctreePointCloudINS_13InterestPointENS0_26OctreeContainerDataTVectorIiEENS0_20OctreeContainerEmptyIiEENS0_10OctreeBaseIiS4_S6_EEED1Ev@Base 1.6
 (optional=templinst)_ZN3pcl6octree16OctreePointCloudINS_13InterestPointENS0_26OctreeContainerDataTVectorIiEENS0_20OctreeContainerEmptyIiEENS0_10OctreeBaseIiS4_S6_EEED2Ev@Base 1.6
 (optional=templinst)_ZN3pcl6octree16OctreePointCloudINS_13InterestPointENS0_26OctreeContainerDataTVectorIiEENS0_20OctreeContainerEmptyIiEENS0_14Octree2BufBaseIiS4_S6_EEE10deleteTreeEb@Base 1.6
 (optional=templinst)_ZN3pcl6octree16OctreePointCloudINS_13InterestPointENS0_26OctreeContainerDataTVectorIiEENS0_20OctreeContainerEmptyIiEENS0_14Octree2BufBaseIiS4_S6_EEE10setEpsilonEd@Base 1.6
 (optional=templinst)_ZN3pcl6octree16OctreePointCloudINS_13InterestPointENS0_26OctreeContainerDataTVectorIiEENS0_20OctreeContainerEmptyIiEENS0_14Octree2BufBaseIiS4_S6_EEE11addPointIdxEi@Base 1.6
 (optional=templinst)_ZN3pcl6octree16OctreePointCloudINS_13InterestPointENS0_26OctreeContainerDataTVectorIiEENS0_20OctreeContainerEmptyIiEENS0_14Octree2BufBaseIiS4_S6_EEE13getKeyBitSizeEv@Base 1.6
 (optional=templinst)_ZN3pcl6octree16OctreePointCloudINS_13InterestPointENS0_26OctreeContainerDataTVectorIiEENS0_20OctreeContainerEmptyIiEENS0_14Octree2BufBaseIiS4_S6_EEE13setInputCloudERKN5boost10shared_ptrIKNS_10PointCloudIS2_EEEERKNSB_IKSt6vectorIiSaIiEEEE@Base 1.6
 (optional=templinst)_ZN3pcl6octree16OctreePointCloudINS_13InterestPointENS0_26OctreeContainerDataTVectorIiEENS0_20OctreeContainerEmptyIiEENS0_14Octree2BufBaseIiS4_S6_EEE13setResolutionEd@Base 1.6
 (optional=templinst)_ZN3pcl6octree16OctreePointCloudINS_13InterestPointENS0_26OctreeContainerDataTVectorIiEENS0_20OctreeContainerEmptyIiEENS0_14Octree2BufBaseIiS4_S6_EEE14getVoxelBoundsERNS0_18OctreeIteratorBaseIiS8_EERN5Eigen6MatrixIfLi3ELi1ELi0ELi3ELi1EEESG_@Base 1.6
 (optional=templinst)_ZN3pcl6octree16OctreePointCloudINS_13InterestPointENS0_26OctreeContainerDataTVectorIiEENS0_20OctreeContainerEmptyIiEENS0_14Octree2BufBaseIiS4_S6_EEE15addPointToCloudERKS2_N5boost10shared_ptrINS_10PointCloudIS2_EEEE@Base 1.6
 (optional=templinst)_ZN3pcl6octree16OctreePointCloudINS_13InterestPointENS0_26OctreeContainerDataTVectorIiEENS0_20OctreeContainerEmptyIiEENS0_14Octree2BufBaseIiS4_S6_EEE15addPointToCloudERKS2_N5boost10shared_ptrINS_10PointCloudIS2_EEEENSD_ISt6vectorIiSaIiEEEE@Base 1.6
 (optional=templinst)_ZN3pcl6octree16OctreePointCloudINS_13InterestPointENS0_26OctreeContainerDataTVectorIiEENS0_20OctreeContainerEmptyIiEENS0_14Octree2BufBaseIiS4_S6_EEE17addPointFromCloudEiN5boost10shared_ptrISt6vectorIiSaIiEEEE@Base 1.6
 (optional=templinst)_ZN3pcl6octree16OctreePointCloudINS_13InterestPointENS0_26OctreeContainerDataTVectorIiEENS0_20OctreeContainerEmptyIiEENS0_14Octree2BufBaseIiS4_S6_EEE17defineBoundingBoxEd@Base 1.6
 (optional=templinst)_ZN3pcl6octree16OctreePointCloudINS_13InterestPointENS0_26OctreeContainerDataTVectorIiEENS0_20OctreeContainerEmptyIiEENS0_14Octree2BufBaseIiS4_S6_EEE17defineBoundingBoxEddd@Base 1.6
 (optional=templinst)_ZN3pcl6octree16OctreePointCloudINS_13InterestPointENS0_26OctreeContainerDataTVectorIiEENS0_20OctreeContainerEmptyIiEENS0_14Octree2BufBaseIiS4_S6_EEE17defineBoundingBoxEdddddd@Base 1.6
 (optional=templinst)_ZN3pcl6octree16OctreePointCloudINS_13InterestPointENS0_26OctreeContainerDataTVectorIiEENS0_20OctreeContainerEmptyIiEENS0_14Octree2BufBaseIiS4_S6_EEE17defineBoundingBoxEv@Base 1.6
 (optional=templinst)_ZN3pcl6octree16OctreePointCloudINS_13InterestPointENS0_26OctreeContainerDataTVectorIiEENS0_20OctreeContainerEmptyIiEENS0_14Octree2BufBaseIiS4_S6_EEE18deleteVoxelAtPointERKS2_@Base 1.6
 (optional=templinst)_ZN3pcl6octree16OctreePointCloudINS_13InterestPointENS0_26OctreeContainerDataTVectorIiEENS0_20OctreeContainerEmptyIiEENS0_14Octree2BufBaseIiS4_S6_EEE18deleteVoxelAtPointERKi@Base 1.6
 (optional=templinst)_ZN3pcl6octree16OctreePointCloudINS_13InterestPointENS0_26OctreeContainerDataTVectorIiEENS0_20OctreeContainerEmptyIiEENS0_14Octree2BufBaseIiS4_S6_EEE23addPointsFromInputCloudEv@Base 1.6
 (optional=templinst)_ZN3pcl6octree16OctreePointCloudINS_13InterestPointENS0_26OctreeContainerDataTVectorIiEENS0_20OctreeContainerEmptyIiEENS0_14Octree2BufBaseIiS4_S6_EEE23adoptBoundingBoxToPointERKS2_@Base 1.6
 (optional=templinst)_ZN3pcl6octree16OctreePointCloudINS_13InterestPointENS0_26OctreeContainerDataTVectorIiEENS0_20OctreeContainerEmptyIiEENS0_14Octree2BufBaseIiS4_S6_EEE41getApproxIntersectedVoxelCentersBySegmentERKN5Eigen6MatrixIfLi3ELi1ELi0ELi3ELi1EEESE_RSt6vectorIS2_NSA_17aligned_allocatorIS2_EEEf@Base 1.6
 (optional=templinst)_ZN3pcl6octree16OctreePointCloudINS_13InterestPointENS0_26OctreeContainerDataTVectorIiEENS0_20OctreeContainerEmptyIiEENS0_14Octree2BufBaseIiS4_S6_EEEC1Ed@Base 1.6
 (optional=templinst)_ZN3pcl6octree16OctreePointCloudINS_13InterestPointENS0_26OctreeContainerDataTVectorIiEENS0_20OctreeContainerEmptyIiEENS0_14Octree2BufBaseIiS4_S6_EEEC2Ed@Base 1.6
 (optional=templinst)_ZN3pcl6octree16OctreePointCloudINS_13InterestPointENS0_26OctreeContainerDataTVectorIiEENS0_20OctreeContainerEmptyIiEENS0_14Octree2BufBaseIiS4_S6_EEED0Ev@Base 1.6
 (optional=templinst)_ZN3pcl6octree16OctreePointCloudINS_13InterestPointENS0_26OctreeContainerDataTVectorIiEENS0_20OctreeContainerEmptyIiEENS0_14Octree2BufBaseIiS4_S6_EEED1Ev@Base 1.6
 (optional=templinst)_ZN3pcl6octree16OctreePointCloudINS_13InterestPointENS0_26OctreeContainerDataTVectorIiEENS0_20OctreeContainerEmptyIiEENS0_14Octree2BufBaseIiS4_S6_EEED2Ev@Base 1.6
 (optional=templinst)_ZN3pcl6octree16OctreePointCloudINS_14PointWithRangeENS0_26OctreeContainerDataTVectorIiEENS0_20OctreeContainerEmptyIiEENS0_10OctreeBaseIiS4_S6_EEE10deleteTreeEb@Base 1.6
 (optional=templinst)_ZN3pcl6octree16OctreePointCloudINS_14PointWithRangeENS0_26OctreeContainerDataTVectorIiEENS0_20OctreeContainerEmptyIiEENS0_10OctreeBaseIiS4_S6_EEE10setEpsilonEd@Base 1.6
 (optional=templinst)_ZN3pcl6octree16OctreePointCloudINS_14PointWithRangeENS0_26OctreeContainerDataTVectorIiEENS0_20OctreeContainerEmptyIiEENS0_10OctreeBaseIiS4_S6_EEE11addPointIdxEi@Base 1.6
 (optional=templinst)_ZN3pcl6octree16OctreePointCloudINS_14PointWithRangeENS0_26OctreeContainerDataTVectorIiEENS0_20OctreeContainerEmptyIiEENS0_10OctreeBaseIiS4_S6_EEE13getKeyBitSizeEv@Base 1.6
 (optional=templinst)_ZN3pcl6octree16OctreePointCloudINS_14PointWithRangeENS0_26OctreeContainerDataTVectorIiEENS0_20OctreeContainerEmptyIiEENS0_10OctreeBaseIiS4_S6_EEE13setInputCloudERKN5boost10shared_ptrIKNS_10PointCloudIS2_EEEERKNSB_IKSt6vectorIiSaIiEEEE@Base 1.6
 (optional=templinst)_ZN3pcl6octree16OctreePointCloudINS_14PointWithRangeENS0_26OctreeContainerDataTVectorIiEENS0_20OctreeContainerEmptyIiEENS0_10OctreeBaseIiS4_S6_EEE13setResolutionEd@Base 1.6
 (optional=templinst)_ZN3pcl6octree16OctreePointCloudINS_14PointWithRangeENS0_26OctreeContainerDataTVectorIiEENS0_20OctreeContainerEmptyIiEENS0_10OctreeBaseIiS4_S6_EEE14getVoxelBoundsERNS0_18OctreeIteratorBaseIiS8_EERN5Eigen6MatrixIfLi3ELi1ELi0ELi3ELi1EEESG_@Base 1.6
 (optional=templinst)_ZN3pcl6octree16OctreePointCloudINS_14PointWithRangeENS0_26OctreeContainerDataTVectorIiEENS0_20OctreeContainerEmptyIiEENS0_10OctreeBaseIiS4_S6_EEE15addPointToCloudERKS2_N5boost10shared_ptrINS_10PointCloudIS2_EEEE@Base 1.6
 (optional=templinst)_ZN3pcl6octree16OctreePointCloudINS_14PointWithRangeENS0_26OctreeContainerDataTVectorIiEENS0_20OctreeContainerEmptyIiEENS0_10OctreeBaseIiS4_S6_EEE15addPointToCloudERKS2_N5boost10shared_ptrINS_10PointCloudIS2_EEEENSD_ISt6vectorIiSaIiEEEE@Base 1.6
 (optional=templinst)_ZN3pcl6octree16OctreePointCloudINS_14PointWithRangeENS0_26OctreeContainerDataTVectorIiEENS0_20OctreeContainerEmptyIiEENS0_10OctreeBaseIiS4_S6_EEE17addPointFromCloudEiN5boost10shared_ptrISt6vectorIiSaIiEEEE@Base 1.6
 (optional=templinst)_ZN3pcl6octree16OctreePointCloudINS_14PointWithRangeENS0_26OctreeContainerDataTVectorIiEENS0_20OctreeContainerEmptyIiEENS0_10OctreeBaseIiS4_S6_EEE17defineBoundingBoxEd@Base 1.6
 (optional=templinst)_ZN3pcl6octree16OctreePointCloudINS_14PointWithRangeENS0_26OctreeContainerDataTVectorIiEENS0_20OctreeContainerEmptyIiEENS0_10OctreeBaseIiS4_S6_EEE17defineBoundingBoxEddd@Base 1.6
 (optional=templinst)_ZN3pcl6octree16OctreePointCloudINS_14PointWithRangeENS0_26OctreeContainerDataTVectorIiEENS0_20OctreeContainerEmptyIiEENS0_10OctreeBaseIiS4_S6_EEE17defineBoundingBoxEdddddd@Base 1.6
 (optional=templinst)_ZN3pcl6octree16OctreePointCloudINS_14PointWithRangeENS0_26OctreeContainerDataTVectorIiEENS0_20OctreeContainerEmptyIiEENS0_10OctreeBaseIiS4_S6_EEE17defineBoundingBoxEv@Base 1.6
 (optional=templinst)_ZN3pcl6octree16OctreePointCloudINS_14PointWithRangeENS0_26OctreeContainerDataTVectorIiEENS0_20OctreeContainerEmptyIiEENS0_10OctreeBaseIiS4_S6_EEE18deleteVoxelAtPointERKS2_@Base 1.6
 (optional=templinst)_ZN3pcl6octree16OctreePointCloudINS_14PointWithRangeENS0_26OctreeContainerDataTVectorIiEENS0_20OctreeContainerEmptyIiEENS0_10OctreeBaseIiS4_S6_EEE18deleteVoxelAtPointERKi@Base 1.6
 (optional=templinst)_ZN3pcl6octree16OctreePointCloudINS_14PointWithRangeENS0_26OctreeContainerDataTVectorIiEENS0_20OctreeContainerEmptyIiEENS0_10OctreeBaseIiS4_S6_EEE23addPointsFromInputCloudEv@Base 1.6
 (optional=templinst)_ZN3pcl6octree16OctreePointCloudINS_14PointWithRangeENS0_26OctreeContainerDataTVectorIiEENS0_20OctreeContainerEmptyIiEENS0_10OctreeBaseIiS4_S6_EEE23adoptBoundingBoxToPointERKS2_@Base 1.6
 (optional=templinst)_ZN3pcl6octree16OctreePointCloudINS_14PointWithRangeENS0_26OctreeContainerDataTVectorIiEENS0_20OctreeContainerEmptyIiEENS0_10OctreeBaseIiS4_S6_EEE41getApproxIntersectedVoxelCentersBySegmentERKN5Eigen6MatrixIfLi3ELi1ELi0ELi3ELi1EEESE_RSt6vectorIS2_NSA_17aligned_allocatorIS2_EEEf@Base 1.6
 (optional=templinst)_ZN3pcl6octree16OctreePointCloudINS_14PointWithRangeENS0_26OctreeContainerDataTVectorIiEENS0_20OctreeContainerEmptyIiEENS0_10OctreeBaseIiS4_S6_EEEC1Ed@Base 1.6
 (optional=templinst)_ZN3pcl6octree16OctreePointCloudINS_14PointWithRangeENS0_26OctreeContainerDataTVectorIiEENS0_20OctreeContainerEmptyIiEENS0_10OctreeBaseIiS4_S6_EEEC2Ed@Base 1.6
 (optional=templinst)_ZN3pcl6octree16OctreePointCloudINS_14PointWithRangeENS0_26OctreeContainerDataTVectorIiEENS0_20OctreeContainerEmptyIiEENS0_10OctreeBaseIiS4_S6_EEED0Ev@Base 1.6
 (optional=templinst)_ZN3pcl6octree16OctreePointCloudINS_14PointWithRangeENS0_26OctreeContainerDataTVectorIiEENS0_20OctreeContainerEmptyIiEENS0_10OctreeBaseIiS4_S6_EEED1Ev@Base 1.6
 (optional=templinst)_ZN3pcl6octree16OctreePointCloudINS_14PointWithRangeENS0_26OctreeContainerDataTVectorIiEENS0_20OctreeContainerEmptyIiEENS0_10OctreeBaseIiS4_S6_EEED2Ev@Base 1.6
 (optional=templinst)_ZN3pcl6octree16OctreePointCloudINS_14PointWithRangeENS0_26OctreeContainerDataTVectorIiEENS0_20OctreeContainerEmptyIiEENS0_14Octree2BufBaseIiS4_S6_EEE10deleteTreeEb@Base 1.6
 (optional=templinst)_ZN3pcl6octree16OctreePointCloudINS_14PointWithRangeENS0_26OctreeContainerDataTVectorIiEENS0_20OctreeContainerEmptyIiEENS0_14Octree2BufBaseIiS4_S6_EEE10setEpsilonEd@Base 1.6
 (optional=templinst)_ZN3pcl6octree16OctreePointCloudINS_14PointWithRangeENS0_26OctreeContainerDataTVectorIiEENS0_20OctreeContainerEmptyIiEENS0_14Octree2BufBaseIiS4_S6_EEE11addPointIdxEi@Base 1.6
 (optional=templinst)_ZN3pcl6octree16OctreePointCloudINS_14PointWithRangeENS0_26OctreeContainerDataTVectorIiEENS0_20OctreeContainerEmptyIiEENS0_14Octree2BufBaseIiS4_S6_EEE13getKeyBitSizeEv@Base 1.6
 (optional=templinst)_ZN3pcl6octree16OctreePointCloudINS_14PointWithRangeENS0_26OctreeContainerDataTVectorIiEENS0_20OctreeContainerEmptyIiEENS0_14Octree2BufBaseIiS4_S6_EEE13setInputCloudERKN5boost10shared_ptrIKNS_10PointCloudIS2_EEEERKNSB_IKSt6vectorIiSaIiEEEE@Base 1.6
 (optional=templinst)_ZN3pcl6octree16OctreePointCloudINS_14PointWithRangeENS0_26OctreeContainerDataTVectorIiEENS0_20OctreeContainerEmptyIiEENS0_14Octree2BufBaseIiS4_S6_EEE13setResolutionEd@Base 1.6
 (optional=templinst)_ZN3pcl6octree16OctreePointCloudINS_14PointWithRangeENS0_26OctreeContainerDataTVectorIiEENS0_20OctreeContainerEmptyIiEENS0_14Octree2BufBaseIiS4_S6_EEE14getVoxelBoundsERNS0_18OctreeIteratorBaseIiS8_EERN5Eigen6MatrixIfLi3ELi1ELi0ELi3ELi1EEESG_@Base 1.6
 (optional=templinst)_ZN3pcl6octree16OctreePointCloudINS_14PointWithRangeENS0_26OctreeContainerDataTVectorIiEENS0_20OctreeContainerEmptyIiEENS0_14Octree2BufBaseIiS4_S6_EEE15addPointToCloudERKS2_N5boost10shared_ptrINS_10PointCloudIS2_EEEE@Base 1.6
 (optional=templinst)_ZN3pcl6octree16OctreePointCloudINS_14PointWithRangeENS0_26OctreeContainerDataTVectorIiEENS0_20OctreeContainerEmptyIiEENS0_14Octree2BufBaseIiS4_S6_EEE15addPointToCloudERKS2_N5boost10shared_ptrINS_10PointCloudIS2_EEEENSD_ISt6vectorIiSaIiEEEE@Base 1.6
 (optional=templinst)_ZN3pcl6octree16OctreePointCloudINS_14PointWithRangeENS0_26OctreeContainerDataTVectorIiEENS0_20OctreeContainerEmptyIiEENS0_14Octree2BufBaseIiS4_S6_EEE17addPointFromCloudEiN5boost10shared_ptrISt6vectorIiSaIiEEEE@Base 1.6
 (optional=templinst)_ZN3pcl6octree16OctreePointCloudINS_14PointWithRangeENS0_26OctreeContainerDataTVectorIiEENS0_20OctreeContainerEmptyIiEENS0_14Octree2BufBaseIiS4_S6_EEE17defineBoundingBoxEd@Base 1.6
 (optional=templinst)_ZN3pcl6octree16OctreePointCloudINS_14PointWithRangeENS0_26OctreeContainerDataTVectorIiEENS0_20OctreeContainerEmptyIiEENS0_14Octree2BufBaseIiS4_S6_EEE17defineBoundingBoxEddd@Base 1.6
 (optional=templinst)_ZN3pcl6octree16OctreePointCloudINS_14PointWithRangeENS0_26OctreeContainerDataTVectorIiEENS0_20OctreeContainerEmptyIiEENS0_14Octree2BufBaseIiS4_S6_EEE17defineBoundingBoxEdddddd@Base 1.6
 (optional=templinst)_ZN3pcl6octree16OctreePointCloudINS_14PointWithRangeENS0_26OctreeContainerDataTVectorIiEENS0_20OctreeContainerEmptyIiEENS0_14Octree2BufBaseIiS4_S6_EEE17defineBoundingBoxEv@Base 1.6
 (optional=templinst)_ZN3pcl6octree16OctreePointCloudINS_14PointWithRangeENS0_26OctreeContainerDataTVectorIiEENS0_20OctreeContainerEmptyIiEENS0_14Octree2BufBaseIiS4_S6_EEE18deleteVoxelAtPointERKS2_@Base 1.6
 (optional=templinst)_ZN3pcl6octree16OctreePointCloudINS_14PointWithRangeENS0_26OctreeContainerDataTVectorIiEENS0_20OctreeContainerEmptyIiEENS0_14Octree2BufBaseIiS4_S6_EEE18deleteVoxelAtPointERKi@Base 1.6
 (optional=templinst)_ZN3pcl6octree16OctreePointCloudINS_14PointWithRangeENS0_26OctreeContainerDataTVectorIiEENS0_20OctreeContainerEmptyIiEENS0_14Octree2BufBaseIiS4_S6_EEE23addPointsFromInputCloudEv@Base 1.6
 (optional=templinst)_ZN3pcl6octree16OctreePointCloudINS_14PointWithRangeENS0_26OctreeContainerDataTVectorIiEENS0_20OctreeContainerEmptyIiEENS0_14Octree2BufBaseIiS4_S6_EEE23adoptBoundingBoxToPointERKS2_@Base 1.6
 (optional=templinst)_ZN3pcl6octree16OctreePointCloudINS_14PointWithRangeENS0_26OctreeContainerDataTVectorIiEENS0_20OctreeContainerEmptyIiEENS0_14Octree2BufBaseIiS4_S6_EEE41getApproxIntersectedVoxelCentersBySegmentERKN5Eigen6MatrixIfLi3ELi1ELi0ELi3ELi1EEESE_RSt6vectorIS2_NSA_17aligned_allocatorIS2_EEEf@Base 1.6
 (optional=templinst)_ZN3pcl6octree16OctreePointCloudINS_14PointWithRangeENS0_26OctreeContainerDataTVectorIiEENS0_20OctreeContainerEmptyIiEENS0_14Octree2BufBaseIiS4_S6_EEEC1Ed@Base 1.6
 (optional=templinst)_ZN3pcl6octree16OctreePointCloudINS_14PointWithRangeENS0_26OctreeContainerDataTVectorIiEENS0_20OctreeContainerEmptyIiEENS0_14Octree2BufBaseIiS4_S6_EEEC2Ed@Base 1.6
 (optional=templinst)_ZN3pcl6octree16OctreePointCloudINS_14PointWithRangeENS0_26OctreeContainerDataTVectorIiEENS0_20OctreeContainerEmptyIiEENS0_14Octree2BufBaseIiS4_S6_EEED0Ev@Base 1.6
 (optional=templinst)_ZN3pcl6octree16OctreePointCloudINS_14PointWithRangeENS0_26OctreeContainerDataTVectorIiEENS0_20OctreeContainerEmptyIiEENS0_14Octree2BufBaseIiS4_S6_EEED1Ev@Base 1.6
 (optional=templinst)_ZN3pcl6octree16OctreePointCloudINS_14PointWithRangeENS0_26OctreeContainerDataTVectorIiEENS0_20OctreeContainerEmptyIiEENS0_14Octree2BufBaseIiS4_S6_EEED2Ev@Base 1.6
 (optional=templinst)_ZN3pcl6octree16OctreePointCloudINS_14PointWithScaleENS0_26OctreeContainerDataTVectorIiEENS0_20OctreeContainerEmptyIiEENS0_10OctreeBaseIiS4_S6_EEE10deleteTreeEb@Base 1.6
 (optional=templinst)_ZN3pcl6octree16OctreePointCloudINS_14PointWithScaleENS0_26OctreeContainerDataTVectorIiEENS0_20OctreeContainerEmptyIiEENS0_10OctreeBaseIiS4_S6_EEE10setEpsilonEd@Base 1.6
 (optional=templinst)_ZN3pcl6octree16OctreePointCloudINS_14PointWithScaleENS0_26OctreeContainerDataTVectorIiEENS0_20OctreeContainerEmptyIiEENS0_10OctreeBaseIiS4_S6_EEE11addPointIdxEi@Base 1.6
 (optional=templinst)_ZN3pcl6octree16OctreePointCloudINS_14PointWithScaleENS0_26OctreeContainerDataTVectorIiEENS0_20OctreeContainerEmptyIiEENS0_10OctreeBaseIiS4_S6_EEE13getKeyBitSizeEv@Base 1.6
 (optional=templinst)_ZN3pcl6octree16OctreePointCloudINS_14PointWithScaleENS0_26OctreeContainerDataTVectorIiEENS0_20OctreeContainerEmptyIiEENS0_10OctreeBaseIiS4_S6_EEE13setInputCloudERKN5boost10shared_ptrIKNS_10PointCloudIS2_EEEERKNSB_IKSt6vectorIiSaIiEEEE@Base 1.6
 (optional=templinst)_ZN3pcl6octree16OctreePointCloudINS_14PointWithScaleENS0_26OctreeContainerDataTVectorIiEENS0_20OctreeContainerEmptyIiEENS0_10OctreeBaseIiS4_S6_EEE13setResolutionEd@Base 1.6
 (optional=templinst)_ZN3pcl6octree16OctreePointCloudINS_14PointWithScaleENS0_26OctreeContainerDataTVectorIiEENS0_20OctreeContainerEmptyIiEENS0_10OctreeBaseIiS4_S6_EEE14getVoxelBoundsERNS0_18OctreeIteratorBaseIiS8_EERN5Eigen6MatrixIfLi3ELi1ELi0ELi3ELi1EEESG_@Base 1.6
 (optional=templinst)_ZN3pcl6octree16OctreePointCloudINS_14PointWithScaleENS0_26OctreeContainerDataTVectorIiEENS0_20OctreeContainerEmptyIiEENS0_10OctreeBaseIiS4_S6_EEE15addPointToCloudERKS2_N5boost10shared_ptrINS_10PointCloudIS2_EEEE@Base 1.6
 (optional=templinst)_ZN3pcl6octree16OctreePointCloudINS_14PointWithScaleENS0_26OctreeContainerDataTVectorIiEENS0_20OctreeContainerEmptyIiEENS0_10OctreeBaseIiS4_S6_EEE15addPointToCloudERKS2_N5boost10shared_ptrINS_10PointCloudIS2_EEEENSD_ISt6vectorIiSaIiEEEE@Base 1.6
 (optional=templinst)_ZN3pcl6octree16OctreePointCloudINS_14PointWithScaleENS0_26OctreeContainerDataTVectorIiEENS0_20OctreeContainerEmptyIiEENS0_10OctreeBaseIiS4_S6_EEE17addPointFromCloudEiN5boost10shared_ptrISt6vectorIiSaIiEEEE@Base 1.6
 (optional=templinst)_ZN3pcl6octree16OctreePointCloudINS_14PointWithScaleENS0_26OctreeContainerDataTVectorIiEENS0_20OctreeContainerEmptyIiEENS0_10OctreeBaseIiS4_S6_EEE17defineBoundingBoxEd@Base 1.6
 (optional=templinst)_ZN3pcl6octree16OctreePointCloudINS_14PointWithScaleENS0_26OctreeContainerDataTVectorIiEENS0_20OctreeContainerEmptyIiEENS0_10OctreeBaseIiS4_S6_EEE17defineBoundingBoxEddd@Base 1.6
 (optional=templinst)_ZN3pcl6octree16OctreePointCloudINS_14PointWithScaleENS0_26OctreeContainerDataTVectorIiEENS0_20OctreeContainerEmptyIiEENS0_10OctreeBaseIiS4_S6_EEE17defineBoundingBoxEdddddd@Base 1.6
 (optional=templinst)_ZN3pcl6octree16OctreePointCloudINS_14PointWithScaleENS0_26OctreeContainerDataTVectorIiEENS0_20OctreeContainerEmptyIiEENS0_10OctreeBaseIiS4_S6_EEE17defineBoundingBoxEv@Base 1.6
 (optional=templinst)_ZN3pcl6octree16OctreePointCloudINS_14PointWithScaleENS0_26OctreeContainerDataTVectorIiEENS0_20OctreeContainerEmptyIiEENS0_10OctreeBaseIiS4_S6_EEE18deleteVoxelAtPointERKS2_@Base 1.6
 (optional=templinst)_ZN3pcl6octree16OctreePointCloudINS_14PointWithScaleENS0_26OctreeContainerDataTVectorIiEENS0_20OctreeContainerEmptyIiEENS0_10OctreeBaseIiS4_S6_EEE18deleteVoxelAtPointERKi@Base 1.6
 (optional=templinst)_ZN3pcl6octree16OctreePointCloudINS_14PointWithScaleENS0_26OctreeContainerDataTVectorIiEENS0_20OctreeContainerEmptyIiEENS0_10OctreeBaseIiS4_S6_EEE23addPointsFromInputCloudEv@Base 1.6
 (optional=templinst)_ZN3pcl6octree16OctreePointCloudINS_14PointWithScaleENS0_26OctreeContainerDataTVectorIiEENS0_20OctreeContainerEmptyIiEENS0_10OctreeBaseIiS4_S6_EEE23adoptBoundingBoxToPointERKS2_@Base 1.6
 (optional=templinst)_ZN3pcl6octree16OctreePointCloudINS_14PointWithScaleENS0_26OctreeContainerDataTVectorIiEENS0_20OctreeContainerEmptyIiEENS0_10OctreeBaseIiS4_S6_EEE41getApproxIntersectedVoxelCentersBySegmentERKN5Eigen6MatrixIfLi3ELi1ELi0ELi3ELi1EEESE_RSt6vectorIS2_NSA_17aligned_allocatorIS2_EEEf@Base 1.6
 (optional=templinst)_ZN3pcl6octree16OctreePointCloudINS_14PointWithScaleENS0_26OctreeContainerDataTVectorIiEENS0_20OctreeContainerEmptyIiEENS0_10OctreeBaseIiS4_S6_EEEC1Ed@Base 1.6
 (optional=templinst)_ZN3pcl6octree16OctreePointCloudINS_14PointWithScaleENS0_26OctreeContainerDataTVectorIiEENS0_20OctreeContainerEmptyIiEENS0_10OctreeBaseIiS4_S6_EEEC2Ed@Base 1.6
 (optional=templinst)_ZN3pcl6octree16OctreePointCloudINS_14PointWithScaleENS0_26OctreeContainerDataTVectorIiEENS0_20OctreeContainerEmptyIiEENS0_10OctreeBaseIiS4_S6_EEED0Ev@Base 1.6
 (optional=templinst)_ZN3pcl6octree16OctreePointCloudINS_14PointWithScaleENS0_26OctreeContainerDataTVectorIiEENS0_20OctreeContainerEmptyIiEENS0_10OctreeBaseIiS4_S6_EEED1Ev@Base 1.6
 (optional=templinst)_ZN3pcl6octree16OctreePointCloudINS_14PointWithScaleENS0_26OctreeContainerDataTVectorIiEENS0_20OctreeContainerEmptyIiEENS0_10OctreeBaseIiS4_S6_EEED2Ev@Base 1.6
 (optional=templinst)_ZN3pcl6octree16OctreePointCloudINS_14PointWithScaleENS0_26OctreeContainerDataTVectorIiEENS0_20OctreeContainerEmptyIiEENS0_14Octree2BufBaseIiS4_S6_EEE10deleteTreeEb@Base 1.6
 (optional=templinst)_ZN3pcl6octree16OctreePointCloudINS_14PointWithScaleENS0_26OctreeContainerDataTVectorIiEENS0_20OctreeContainerEmptyIiEENS0_14Octree2BufBaseIiS4_S6_EEE10setEpsilonEd@Base 1.6
 (optional=templinst)_ZN3pcl6octree16OctreePointCloudINS_14PointWithScaleENS0_26OctreeContainerDataTVectorIiEENS0_20OctreeContainerEmptyIiEENS0_14Octree2BufBaseIiS4_S6_EEE11addPointIdxEi@Base 1.6
 (optional=templinst)_ZN3pcl6octree16OctreePointCloudINS_14PointWithScaleENS0_26OctreeContainerDataTVectorIiEENS0_20OctreeContainerEmptyIiEENS0_14Octree2BufBaseIiS4_S6_EEE13getKeyBitSizeEv@Base 1.6
 (optional=templinst)_ZN3pcl6octree16OctreePointCloudINS_14PointWithScaleENS0_26OctreeContainerDataTVectorIiEENS0_20OctreeContainerEmptyIiEENS0_14Octree2BufBaseIiS4_S6_EEE13setInputCloudERKN5boost10shared_ptrIKNS_10PointCloudIS2_EEEERKNSB_IKSt6vectorIiSaIiEEEE@Base 1.6
 (optional=templinst)_ZN3pcl6octree16OctreePointCloudINS_14PointWithScaleENS0_26OctreeContainerDataTVectorIiEENS0_20OctreeContainerEmptyIiEENS0_14Octree2BufBaseIiS4_S6_EEE13setResolutionEd@Base 1.6
 (optional=templinst)_ZN3pcl6octree16OctreePointCloudINS_14PointWithScaleENS0_26OctreeContainerDataTVectorIiEENS0_20OctreeContainerEmptyIiEENS0_14Octree2BufBaseIiS4_S6_EEE14getVoxelBoundsERNS0_18OctreeIteratorBaseIiS8_EERN5Eigen6MatrixIfLi3ELi1ELi0ELi3ELi1EEESG_@Base 1.6
 (optional=templinst)_ZN3pcl6octree16OctreePointCloudINS_14PointWithScaleENS0_26OctreeContainerDataTVectorIiEENS0_20OctreeContainerEmptyIiEENS0_14Octree2BufBaseIiS4_S6_EEE15addPointToCloudERKS2_N5boost10shared_ptrINS_10PointCloudIS2_EEEE@Base 1.6
 (optional=templinst)_ZN3pcl6octree16OctreePointCloudINS_14PointWithScaleENS0_26OctreeContainerDataTVectorIiEENS0_20OctreeContainerEmptyIiEENS0_14Octree2BufBaseIiS4_S6_EEE15addPointToCloudERKS2_N5boost10shared_ptrINS_10PointCloudIS2_EEEENSD_ISt6vectorIiSaIiEEEE@Base 1.6
 (optional=templinst)_ZN3pcl6octree16OctreePointCloudINS_14PointWithScaleENS0_26OctreeContainerDataTVectorIiEENS0_20OctreeContainerEmptyIiEENS0_14Octree2BufBaseIiS4_S6_EEE17addPointFromCloudEiN5boost10shared_ptrISt6vectorIiSaIiEEEE@Base 1.6
 (optional=templinst)_ZN3pcl6octree16OctreePointCloudINS_14PointWithScaleENS0_26OctreeContainerDataTVectorIiEENS0_20OctreeContainerEmptyIiEENS0_14Octree2BufBaseIiS4_S6_EEE17defineBoundingBoxEd@Base 1.6
 (optional=templinst)_ZN3pcl6octree16OctreePointCloudINS_14PointWithScaleENS0_26OctreeContainerDataTVectorIiEENS0_20OctreeContainerEmptyIiEENS0_14Octree2BufBaseIiS4_S6_EEE17defineBoundingBoxEddd@Base 1.6
 (optional=templinst)_ZN3pcl6octree16OctreePointCloudINS_14PointWithScaleENS0_26OctreeContainerDataTVectorIiEENS0_20OctreeContainerEmptyIiEENS0_14Octree2BufBaseIiS4_S6_EEE17defineBoundingBoxEdddddd@Base 1.6
 (optional=templinst)_ZN3pcl6octree16OctreePointCloudINS_14PointWithScaleENS0_26OctreeContainerDataTVectorIiEENS0_20OctreeContainerEmptyIiEENS0_14Octree2BufBaseIiS4_S6_EEE17defineBoundingBoxEv@Base 1.6
 (optional=templinst)_ZN3pcl6octree16OctreePointCloudINS_14PointWithScaleENS0_26OctreeContainerDataTVectorIiEENS0_20OctreeContainerEmptyIiEENS0_14Octree2BufBaseIiS4_S6_EEE18deleteVoxelAtPointERKS2_@Base 1.6
 (optional=templinst)_ZN3pcl6octree16OctreePointCloudINS_14PointWithScaleENS0_26OctreeContainerDataTVectorIiEENS0_20OctreeContainerEmptyIiEENS0_14Octree2BufBaseIiS4_S6_EEE18deleteVoxelAtPointERKi@Base 1.6
 (optional=templinst)_ZN3pcl6octree16OctreePointCloudINS_14PointWithScaleENS0_26OctreeContainerDataTVectorIiEENS0_20OctreeContainerEmptyIiEENS0_14Octree2BufBaseIiS4_S6_EEE23addPointsFromInputCloudEv@Base 1.6
 (optional=templinst)_ZN3pcl6octree16OctreePointCloudINS_14PointWithScaleENS0_26OctreeContainerDataTVectorIiEENS0_20OctreeContainerEmptyIiEENS0_14Octree2BufBaseIiS4_S6_EEE23adoptBoundingBoxToPointERKS2_@Base 1.6
 (optional=templinst)_ZN3pcl6octree16OctreePointCloudINS_14PointWithScaleENS0_26OctreeContainerDataTVectorIiEENS0_20OctreeContainerEmptyIiEENS0_14Octree2BufBaseIiS4_S6_EEE41getApproxIntersectedVoxelCentersBySegmentERKN5Eigen6MatrixIfLi3ELi1ELi0ELi3ELi1EEESE_RSt6vectorIS2_NSA_17aligned_allocatorIS2_EEEf@Base 1.6
 (optional=templinst)_ZN3pcl6octree16OctreePointCloudINS_14PointWithScaleENS0_26OctreeContainerDataTVectorIiEENS0_20OctreeContainerEmptyIiEENS0_14Octree2BufBaseIiS4_S6_EEEC1Ed@Base 1.6
 (optional=templinst)_ZN3pcl6octree16OctreePointCloudINS_14PointWithScaleENS0_26OctreeContainerDataTVectorIiEENS0_20OctreeContainerEmptyIiEENS0_14Octree2BufBaseIiS4_S6_EEEC2Ed@Base 1.6
 (optional=templinst)_ZN3pcl6octree16OctreePointCloudINS_14PointWithScaleENS0_26OctreeContainerDataTVectorIiEENS0_20OctreeContainerEmptyIiEENS0_14Octree2BufBaseIiS4_S6_EEED0Ev@Base 1.6
 (optional=templinst)_ZN3pcl6octree16OctreePointCloudINS_14PointWithScaleENS0_26OctreeContainerDataTVectorIiEENS0_20OctreeContainerEmptyIiEENS0_14Octree2BufBaseIiS4_S6_EEED1Ev@Base 1.6
 (optional=templinst)_ZN3pcl6octree16OctreePointCloudINS_14PointWithScaleENS0_26OctreeContainerDataTVectorIiEENS0_20OctreeContainerEmptyIiEENS0_14Octree2BufBaseIiS4_S6_EEED2Ev@Base 1.6
 (optional=templinst)_ZN3pcl6octree16OctreePointCloudINS_15PointXYZINormalENS0_26OctreeContainerDataTVectorIiEENS0_20OctreeContainerEmptyIiEENS0_10OctreeBaseIiS4_S6_EEE10deleteTreeEb@Base 1.6
 (optional=templinst)_ZN3pcl6octree16OctreePointCloudINS_15PointXYZINormalENS0_26OctreeContainerDataTVectorIiEENS0_20OctreeContainerEmptyIiEENS0_10OctreeBaseIiS4_S6_EEE10setEpsilonEd@Base 1.6
 (optional=templinst)_ZN3pcl6octree16OctreePointCloudINS_15PointXYZINormalENS0_26OctreeContainerDataTVectorIiEENS0_20OctreeContainerEmptyIiEENS0_10OctreeBaseIiS4_S6_EEE11addPointIdxEi@Base 1.6
 (optional=templinst)_ZN3pcl6octree16OctreePointCloudINS_15PointXYZINormalENS0_26OctreeContainerDataTVectorIiEENS0_20OctreeContainerEmptyIiEENS0_10OctreeBaseIiS4_S6_EEE13getKeyBitSizeEv@Base 1.6
 (optional=templinst)_ZN3pcl6octree16OctreePointCloudINS_15PointXYZINormalENS0_26OctreeContainerDataTVectorIiEENS0_20OctreeContainerEmptyIiEENS0_10OctreeBaseIiS4_S6_EEE13setInputCloudERKN5boost10shared_ptrIKNS_10PointCloudIS2_EEEERKNSB_IKSt6vectorIiSaIiEEEE@Base 1.6
 (optional=templinst)_ZN3pcl6octree16OctreePointCloudINS_15PointXYZINormalENS0_26OctreeContainerDataTVectorIiEENS0_20OctreeContainerEmptyIiEENS0_10OctreeBaseIiS4_S6_EEE13setResolutionEd@Base 1.6
 (optional=templinst)_ZN3pcl6octree16OctreePointCloudINS_15PointXYZINormalENS0_26OctreeContainerDataTVectorIiEENS0_20OctreeContainerEmptyIiEENS0_10OctreeBaseIiS4_S6_EEE14getVoxelBoundsERNS0_18OctreeIteratorBaseIiS8_EERN5Eigen6MatrixIfLi3ELi1ELi0ELi3ELi1EEESG_@Base 1.6
 (optional=templinst)_ZN3pcl6octree16OctreePointCloudINS_15PointXYZINormalENS0_26OctreeContainerDataTVectorIiEENS0_20OctreeContainerEmptyIiEENS0_10OctreeBaseIiS4_S6_EEE15addPointToCloudERKS2_N5boost10shared_ptrINS_10PointCloudIS2_EEEE@Base 1.6
 (optional=templinst)_ZN3pcl6octree16OctreePointCloudINS_15PointXYZINormalENS0_26OctreeContainerDataTVectorIiEENS0_20OctreeContainerEmptyIiEENS0_10OctreeBaseIiS4_S6_EEE15addPointToCloudERKS2_N5boost10shared_ptrINS_10PointCloudIS2_EEEENSD_ISt6vectorIiSaIiEEEE@Base 1.6
 (optional=templinst)_ZN3pcl6octree16OctreePointCloudINS_15PointXYZINormalENS0_26OctreeContainerDataTVectorIiEENS0_20OctreeContainerEmptyIiEENS0_10OctreeBaseIiS4_S6_EEE17addPointFromCloudEiN5boost10shared_ptrISt6vectorIiSaIiEEEE@Base 1.6
 (optional=templinst)_ZN3pcl6octree16OctreePointCloudINS_15PointXYZINormalENS0_26OctreeContainerDataTVectorIiEENS0_20OctreeContainerEmptyIiEENS0_10OctreeBaseIiS4_S6_EEE17defineBoundingBoxEd@Base 1.6
 (optional=templinst)_ZN3pcl6octree16OctreePointCloudINS_15PointXYZINormalENS0_26OctreeContainerDataTVectorIiEENS0_20OctreeContainerEmptyIiEENS0_10OctreeBaseIiS4_S6_EEE17defineBoundingBoxEddd@Base 1.6
 (optional=templinst)_ZN3pcl6octree16OctreePointCloudINS_15PointXYZINormalENS0_26OctreeContainerDataTVectorIiEENS0_20OctreeContainerEmptyIiEENS0_10OctreeBaseIiS4_S6_EEE17defineBoundingBoxEdddddd@Base 1.6
 (optional=templinst)_ZN3pcl6octree16OctreePointCloudINS_15PointXYZINormalENS0_26OctreeContainerDataTVectorIiEENS0_20OctreeContainerEmptyIiEENS0_10OctreeBaseIiS4_S6_EEE17defineBoundingBoxEv@Base 1.6
 (optional=templinst)_ZN3pcl6octree16OctreePointCloudINS_15PointXYZINormalENS0_26OctreeContainerDataTVectorIiEENS0_20OctreeContainerEmptyIiEENS0_10OctreeBaseIiS4_S6_EEE18deleteVoxelAtPointERKS2_@Base 1.6
 (optional=templinst)_ZN3pcl6octree16OctreePointCloudINS_15PointXYZINormalENS0_26OctreeContainerDataTVectorIiEENS0_20OctreeContainerEmptyIiEENS0_10OctreeBaseIiS4_S6_EEE18deleteVoxelAtPointERKi@Base 1.6
 (optional=templinst)_ZN3pcl6octree16OctreePointCloudINS_15PointXYZINormalENS0_26OctreeContainerDataTVectorIiEENS0_20OctreeContainerEmptyIiEENS0_10OctreeBaseIiS4_S6_EEE23addPointsFromInputCloudEv@Base 1.6
 (optional=templinst)_ZN3pcl6octree16OctreePointCloudINS_15PointXYZINormalENS0_26OctreeContainerDataTVectorIiEENS0_20OctreeContainerEmptyIiEENS0_10OctreeBaseIiS4_S6_EEE23adoptBoundingBoxToPointERKS2_@Base 1.6
 (optional=templinst)_ZN3pcl6octree16OctreePointCloudINS_15PointXYZINormalENS0_26OctreeContainerDataTVectorIiEENS0_20OctreeContainerEmptyIiEENS0_10OctreeBaseIiS4_S6_EEE41getApproxIntersectedVoxelCentersBySegmentERKN5Eigen6MatrixIfLi3ELi1ELi0ELi3ELi1EEESE_RSt6vectorIS2_NSA_17aligned_allocatorIS2_EEEf@Base 1.6
 (optional=templinst)_ZN3pcl6octree16OctreePointCloudINS_15PointXYZINormalENS0_26OctreeContainerDataTVectorIiEENS0_20OctreeContainerEmptyIiEENS0_10OctreeBaseIiS4_S6_EEEC1Ed@Base 1.6
 (optional=templinst)_ZN3pcl6octree16OctreePointCloudINS_15PointXYZINormalENS0_26OctreeContainerDataTVectorIiEENS0_20OctreeContainerEmptyIiEENS0_10OctreeBaseIiS4_S6_EEEC2Ed@Base 1.6
 (optional=templinst)_ZN3pcl6octree16OctreePointCloudINS_15PointXYZINormalENS0_26OctreeContainerDataTVectorIiEENS0_20OctreeContainerEmptyIiEENS0_10OctreeBaseIiS4_S6_EEED0Ev@Base 1.6
 (optional=templinst)_ZN3pcl6octree16OctreePointCloudINS_15PointXYZINormalENS0_26OctreeContainerDataTVectorIiEENS0_20OctreeContainerEmptyIiEENS0_10OctreeBaseIiS4_S6_EEED1Ev@Base 1.6
 (optional=templinst)_ZN3pcl6octree16OctreePointCloudINS_15PointXYZINormalENS0_26OctreeContainerDataTVectorIiEENS0_20OctreeContainerEmptyIiEENS0_10OctreeBaseIiS4_S6_EEED2Ev@Base 1.6
 (optional=templinst)_ZN3pcl6octree16OctreePointCloudINS_15PointXYZINormalENS0_26OctreeContainerDataTVectorIiEENS0_20OctreeContainerEmptyIiEENS0_14Octree2BufBaseIiS4_S6_EEE10deleteTreeEb@Base 1.6
 (optional=templinst)_ZN3pcl6octree16OctreePointCloudINS_15PointXYZINormalENS0_26OctreeContainerDataTVectorIiEENS0_20OctreeContainerEmptyIiEENS0_14Octree2BufBaseIiS4_S6_EEE10setEpsilonEd@Base 1.6
 (optional=templinst)_ZN3pcl6octree16OctreePointCloudINS_15PointXYZINormalENS0_26OctreeContainerDataTVectorIiEENS0_20OctreeContainerEmptyIiEENS0_14Octree2BufBaseIiS4_S6_EEE11addPointIdxEi@Base 1.6
 (optional=templinst)_ZN3pcl6octree16OctreePointCloudINS_15PointXYZINormalENS0_26OctreeContainerDataTVectorIiEENS0_20OctreeContainerEmptyIiEENS0_14Octree2BufBaseIiS4_S6_EEE13getKeyBitSizeEv@Base 1.6
 (optional=templinst)_ZN3pcl6octree16OctreePointCloudINS_15PointXYZINormalENS0_26OctreeContainerDataTVectorIiEENS0_20OctreeContainerEmptyIiEENS0_14Octree2BufBaseIiS4_S6_EEE13setInputCloudERKN5boost10shared_ptrIKNS_10PointCloudIS2_EEEERKNSB_IKSt6vectorIiSaIiEEEE@Base 1.6
 (optional=templinst)_ZN3pcl6octree16OctreePointCloudINS_15PointXYZINormalENS0_26OctreeContainerDataTVectorIiEENS0_20OctreeContainerEmptyIiEENS0_14Octree2BufBaseIiS4_S6_EEE13setResolutionEd@Base 1.6
 (optional=templinst)_ZN3pcl6octree16OctreePointCloudINS_15PointXYZINormalENS0_26OctreeContainerDataTVectorIiEENS0_20OctreeContainerEmptyIiEENS0_14Octree2BufBaseIiS4_S6_EEE14getVoxelBoundsERNS0_18OctreeIteratorBaseIiS8_EERN5Eigen6MatrixIfLi3ELi1ELi0ELi3ELi1EEESG_@Base 1.6
 (optional=templinst)_ZN3pcl6octree16OctreePointCloudINS_15PointXYZINormalENS0_26OctreeContainerDataTVectorIiEENS0_20OctreeContainerEmptyIiEENS0_14Octree2BufBaseIiS4_S6_EEE15addPointToCloudERKS2_N5boost10shared_ptrINS_10PointCloudIS2_EEEE@Base 1.6
 (optional=templinst)_ZN3pcl6octree16OctreePointCloudINS_15PointXYZINormalENS0_26OctreeContainerDataTVectorIiEENS0_20OctreeContainerEmptyIiEENS0_14Octree2BufBaseIiS4_S6_EEE15addPointToCloudERKS2_N5boost10shared_ptrINS_10PointCloudIS2_EEEENSD_ISt6vectorIiSaIiEEEE@Base 1.6
 (optional=templinst)_ZN3pcl6octree16OctreePointCloudINS_15PointXYZINormalENS0_26OctreeContainerDataTVectorIiEENS0_20OctreeContainerEmptyIiEENS0_14Octree2BufBaseIiS4_S6_EEE17addPointFromCloudEiN5boost10shared_ptrISt6vectorIiSaIiEEEE@Base 1.6
 (optional=templinst)_ZN3pcl6octree16OctreePointCloudINS_15PointXYZINormalENS0_26OctreeContainerDataTVectorIiEENS0_20OctreeContainerEmptyIiEENS0_14Octree2BufBaseIiS4_S6_EEE17defineBoundingBoxEd@Base 1.6
 (optional=templinst)_ZN3pcl6octree16OctreePointCloudINS_15PointXYZINormalENS0_26OctreeContainerDataTVectorIiEENS0_20OctreeContainerEmptyIiEENS0_14Octree2BufBaseIiS4_S6_EEE17defineBoundingBoxEddd@Base 1.6
 (optional=templinst)_ZN3pcl6octree16OctreePointCloudINS_15PointXYZINormalENS0_26OctreeContainerDataTVectorIiEENS0_20OctreeContainerEmptyIiEENS0_14Octree2BufBaseIiS4_S6_EEE17defineBoundingBoxEdddddd@Base 1.6
 (optional=templinst)_ZN3pcl6octree16OctreePointCloudINS_15PointXYZINormalENS0_26OctreeContainerDataTVectorIiEENS0_20OctreeContainerEmptyIiEENS0_14Octree2BufBaseIiS4_S6_EEE17defineBoundingBoxEv@Base 1.6
 (optional=templinst)_ZN3pcl6octree16OctreePointCloudINS_15PointXYZINormalENS0_26OctreeContainerDataTVectorIiEENS0_20OctreeContainerEmptyIiEENS0_14Octree2BufBaseIiS4_S6_EEE18deleteVoxelAtPointERKS2_@Base 1.6
 (optional=templinst)_ZN3pcl6octree16OctreePointCloudINS_15PointXYZINormalENS0_26OctreeContainerDataTVectorIiEENS0_20OctreeContainerEmptyIiEENS0_14Octree2BufBaseIiS4_S6_EEE18deleteVoxelAtPointERKi@Base 1.6
 (optional=templinst)_ZN3pcl6octree16OctreePointCloudINS_15PointXYZINormalENS0_26OctreeContainerDataTVectorIiEENS0_20OctreeContainerEmptyIiEENS0_14Octree2BufBaseIiS4_S6_EEE23addPointsFromInputCloudEv@Base 1.6
 (optional=templinst)_ZN3pcl6octree16OctreePointCloudINS_15PointXYZINormalENS0_26OctreeContainerDataTVectorIiEENS0_20OctreeContainerEmptyIiEENS0_14Octree2BufBaseIiS4_S6_EEE23adoptBoundingBoxToPointERKS2_@Base 1.6
 (optional=templinst)_ZN3pcl6octree16OctreePointCloudINS_15PointXYZINormalENS0_26OctreeContainerDataTVectorIiEENS0_20OctreeContainerEmptyIiEENS0_14Octree2BufBaseIiS4_S6_EEE41getApproxIntersectedVoxelCentersBySegmentERKN5Eigen6MatrixIfLi3ELi1ELi0ELi3ELi1EEESE_RSt6vectorIS2_NSA_17aligned_allocatorIS2_EEEf@Base 1.6
 (optional=templinst)_ZN3pcl6octree16OctreePointCloudINS_15PointXYZINormalENS0_26OctreeContainerDataTVectorIiEENS0_20OctreeContainerEmptyIiEENS0_14Octree2BufBaseIiS4_S6_EEEC1Ed@Base 1.6
 (optional=templinst)_ZN3pcl6octree16OctreePointCloudINS_15PointXYZINormalENS0_26OctreeContainerDataTVectorIiEENS0_20OctreeContainerEmptyIiEENS0_14Octree2BufBaseIiS4_S6_EEEC2Ed@Base 1.6
 (optional=templinst)_ZN3pcl6octree16OctreePointCloudINS_15PointXYZINormalENS0_26OctreeContainerDataTVectorIiEENS0_20OctreeContainerEmptyIiEENS0_14Octree2BufBaseIiS4_S6_EEED0Ev@Base 1.6
 (optional=templinst)_ZN3pcl6octree16OctreePointCloudINS_15PointXYZINormalENS0_26OctreeContainerDataTVectorIiEENS0_20OctreeContainerEmptyIiEENS0_14Octree2BufBaseIiS4_S6_EEED1Ev@Base 1.6
 (optional=templinst)_ZN3pcl6octree16OctreePointCloudINS_15PointXYZINormalENS0_26OctreeContainerDataTVectorIiEENS0_20OctreeContainerEmptyIiEENS0_14Octree2BufBaseIiS4_S6_EEED2Ev@Base 1.6
 (optional=templinst)_ZN3pcl6octree16OctreePointCloudINS_17PointXYZRGBNormalENS0_26OctreeContainerDataTVectorIiEENS0_20OctreeContainerEmptyIiEENS0_10OctreeBaseIiS4_S6_EEE10deleteTreeEb@Base 1.6
 (optional=templinst)_ZN3pcl6octree16OctreePointCloudINS_17PointXYZRGBNormalENS0_26OctreeContainerDataTVectorIiEENS0_20OctreeContainerEmptyIiEENS0_10OctreeBaseIiS4_S6_EEE10setEpsilonEd@Base 1.6
 (optional=templinst)_ZN3pcl6octree16OctreePointCloudINS_17PointXYZRGBNormalENS0_26OctreeContainerDataTVectorIiEENS0_20OctreeContainerEmptyIiEENS0_10OctreeBaseIiS4_S6_EEE11addPointIdxEi@Base 1.6
 (optional=templinst)_ZN3pcl6octree16OctreePointCloudINS_17PointXYZRGBNormalENS0_26OctreeContainerDataTVectorIiEENS0_20OctreeContainerEmptyIiEENS0_10OctreeBaseIiS4_S6_EEE13getKeyBitSizeEv@Base 1.6
 (optional=templinst)_ZN3pcl6octree16OctreePointCloudINS_17PointXYZRGBNormalENS0_26OctreeContainerDataTVectorIiEENS0_20OctreeContainerEmptyIiEENS0_10OctreeBaseIiS4_S6_EEE13setInputCloudERKN5boost10shared_ptrIKNS_10PointCloudIS2_EEEERKNSB_IKSt6vectorIiSaIiEEEE@Base 1.6
 (optional=templinst)_ZN3pcl6octree16OctreePointCloudINS_17PointXYZRGBNormalENS0_26OctreeContainerDataTVectorIiEENS0_20OctreeContainerEmptyIiEENS0_10OctreeBaseIiS4_S6_EEE13setResolutionEd@Base 1.6
 (optional=templinst)_ZN3pcl6octree16OctreePointCloudINS_17PointXYZRGBNormalENS0_26OctreeContainerDataTVectorIiEENS0_20OctreeContainerEmptyIiEENS0_10OctreeBaseIiS4_S6_EEE14getVoxelBoundsERNS0_18OctreeIteratorBaseIiS8_EERN5Eigen6MatrixIfLi3ELi1ELi0ELi3ELi1EEESG_@Base 1.6
 (optional=templinst)_ZN3pcl6octree16OctreePointCloudINS_17PointXYZRGBNormalENS0_26OctreeContainerDataTVectorIiEENS0_20OctreeContainerEmptyIiEENS0_10OctreeBaseIiS4_S6_EEE15addPointToCloudERKS2_N5boost10shared_ptrINS_10PointCloudIS2_EEEE@Base 1.6
 (optional=templinst)_ZN3pcl6octree16OctreePointCloudINS_17PointXYZRGBNormalENS0_26OctreeContainerDataTVectorIiEENS0_20OctreeContainerEmptyIiEENS0_10OctreeBaseIiS4_S6_EEE15addPointToCloudERKS2_N5boost10shared_ptrINS_10PointCloudIS2_EEEENSD_ISt6vectorIiSaIiEEEE@Base 1.6
 (optional=templinst)_ZN3pcl6octree16OctreePointCloudINS_17PointXYZRGBNormalENS0_26OctreeContainerDataTVectorIiEENS0_20OctreeContainerEmptyIiEENS0_10OctreeBaseIiS4_S6_EEE17addPointFromCloudEiN5boost10shared_ptrISt6vectorIiSaIiEEEE@Base 1.6
 (optional=templinst)_ZN3pcl6octree16OctreePointCloudINS_17PointXYZRGBNormalENS0_26OctreeContainerDataTVectorIiEENS0_20OctreeContainerEmptyIiEENS0_10OctreeBaseIiS4_S6_EEE17defineBoundingBoxEd@Base 1.6
 (optional=templinst)_ZN3pcl6octree16OctreePointCloudINS_17PointXYZRGBNormalENS0_26OctreeContainerDataTVectorIiEENS0_20OctreeContainerEmptyIiEENS0_10OctreeBaseIiS4_S6_EEE17defineBoundingBoxEddd@Base 1.6
 (optional=templinst)_ZN3pcl6octree16OctreePointCloudINS_17PointXYZRGBNormalENS0_26OctreeContainerDataTVectorIiEENS0_20OctreeContainerEmptyIiEENS0_10OctreeBaseIiS4_S6_EEE17defineBoundingBoxEdddddd@Base 1.6
 (optional=templinst)_ZN3pcl6octree16OctreePointCloudINS_17PointXYZRGBNormalENS0_26OctreeContainerDataTVectorIiEENS0_20OctreeContainerEmptyIiEENS0_10OctreeBaseIiS4_S6_EEE17defineBoundingBoxEv@Base 1.6
 (optional=templinst)_ZN3pcl6octree16OctreePointCloudINS_17PointXYZRGBNormalENS0_26OctreeContainerDataTVectorIiEENS0_20OctreeContainerEmptyIiEENS0_10OctreeBaseIiS4_S6_EEE18deleteVoxelAtPointERKS2_@Base 1.6
 (optional=templinst)_ZN3pcl6octree16OctreePointCloudINS_17PointXYZRGBNormalENS0_26OctreeContainerDataTVectorIiEENS0_20OctreeContainerEmptyIiEENS0_10OctreeBaseIiS4_S6_EEE18deleteVoxelAtPointERKi@Base 1.6
 (optional=templinst)_ZN3pcl6octree16OctreePointCloudINS_17PointXYZRGBNormalENS0_26OctreeContainerDataTVectorIiEENS0_20OctreeContainerEmptyIiEENS0_10OctreeBaseIiS4_S6_EEE23addPointsFromInputCloudEv@Base 1.6
 (optional=templinst)_ZN3pcl6octree16OctreePointCloudINS_17PointXYZRGBNormalENS0_26OctreeContainerDataTVectorIiEENS0_20OctreeContainerEmptyIiEENS0_10OctreeBaseIiS4_S6_EEE23adoptBoundingBoxToPointERKS2_@Base 1.6
 (optional=templinst)_ZN3pcl6octree16OctreePointCloudINS_17PointXYZRGBNormalENS0_26OctreeContainerDataTVectorIiEENS0_20OctreeContainerEmptyIiEENS0_10OctreeBaseIiS4_S6_EEE41getApproxIntersectedVoxelCentersBySegmentERKN5Eigen6MatrixIfLi3ELi1ELi0ELi3ELi1EEESE_RSt6vectorIS2_NSA_17aligned_allocatorIS2_EEEf@Base 1.6
 (optional=templinst)_ZN3pcl6octree16OctreePointCloudINS_17PointXYZRGBNormalENS0_26OctreeContainerDataTVectorIiEENS0_20OctreeContainerEmptyIiEENS0_10OctreeBaseIiS4_S6_EEEC1Ed@Base 1.6
 (optional=templinst)_ZN3pcl6octree16OctreePointCloudINS_17PointXYZRGBNormalENS0_26OctreeContainerDataTVectorIiEENS0_20OctreeContainerEmptyIiEENS0_10OctreeBaseIiS4_S6_EEEC2Ed@Base 1.6
 (optional=templinst)_ZN3pcl6octree16OctreePointCloudINS_17PointXYZRGBNormalENS0_26OctreeContainerDataTVectorIiEENS0_20OctreeContainerEmptyIiEENS0_10OctreeBaseIiS4_S6_EEED0Ev@Base 1.6
 (optional=templinst)_ZN3pcl6octree16OctreePointCloudINS_17PointXYZRGBNormalENS0_26OctreeContainerDataTVectorIiEENS0_20OctreeContainerEmptyIiEENS0_10OctreeBaseIiS4_S6_EEED1Ev@Base 1.6
 (optional=templinst)_ZN3pcl6octree16OctreePointCloudINS_17PointXYZRGBNormalENS0_26OctreeContainerDataTVectorIiEENS0_20OctreeContainerEmptyIiEENS0_10OctreeBaseIiS4_S6_EEED2Ev@Base 1.6
 (optional=templinst)_ZN3pcl6octree16OctreePointCloudINS_17PointXYZRGBNormalENS0_26OctreeContainerDataTVectorIiEENS0_20OctreeContainerEmptyIiEENS0_14Octree2BufBaseIiS4_S6_EEE10deleteTreeEb@Base 1.6
 (optional=templinst)_ZN3pcl6octree16OctreePointCloudINS_17PointXYZRGBNormalENS0_26OctreeContainerDataTVectorIiEENS0_20OctreeContainerEmptyIiEENS0_14Octree2BufBaseIiS4_S6_EEE10setEpsilonEd@Base 1.6
 (optional=templinst)_ZN3pcl6octree16OctreePointCloudINS_17PointXYZRGBNormalENS0_26OctreeContainerDataTVectorIiEENS0_20OctreeContainerEmptyIiEENS0_14Octree2BufBaseIiS4_S6_EEE11addPointIdxEi@Base 1.6
 (optional=templinst)_ZN3pcl6octree16OctreePointCloudINS_17PointXYZRGBNormalENS0_26OctreeContainerDataTVectorIiEENS0_20OctreeContainerEmptyIiEENS0_14Octree2BufBaseIiS4_S6_EEE13getKeyBitSizeEv@Base 1.6
 (optional=templinst)_ZN3pcl6octree16OctreePointCloudINS_17PointXYZRGBNormalENS0_26OctreeContainerDataTVectorIiEENS0_20OctreeContainerEmptyIiEENS0_14Octree2BufBaseIiS4_S6_EEE13setInputCloudERKN5boost10shared_ptrIKNS_10PointCloudIS2_EEEERKNSB_IKSt6vectorIiSaIiEEEE@Base 1.6
 (optional=templinst)_ZN3pcl6octree16OctreePointCloudINS_17PointXYZRGBNormalENS0_26OctreeContainerDataTVectorIiEENS0_20OctreeContainerEmptyIiEENS0_14Octree2BufBaseIiS4_S6_EEE13setResolutionEd@Base 1.6
 (optional=templinst)_ZN3pcl6octree16OctreePointCloudINS_17PointXYZRGBNormalENS0_26OctreeContainerDataTVectorIiEENS0_20OctreeContainerEmptyIiEENS0_14Octree2BufBaseIiS4_S6_EEE14getVoxelBoundsERNS0_18OctreeIteratorBaseIiS8_EERN5Eigen6MatrixIfLi3ELi1ELi0ELi3ELi1EEESG_@Base 1.6
 (optional=templinst)_ZN3pcl6octree16OctreePointCloudINS_17PointXYZRGBNormalENS0_26OctreeContainerDataTVectorIiEENS0_20OctreeContainerEmptyIiEENS0_14Octree2BufBaseIiS4_S6_EEE15addPointToCloudERKS2_N5boost10shared_ptrINS_10PointCloudIS2_EEEE@Base 1.6
 (optional=templinst)_ZN3pcl6octree16OctreePointCloudINS_17PointXYZRGBNormalENS0_26OctreeContainerDataTVectorIiEENS0_20OctreeContainerEmptyIiEENS0_14Octree2BufBaseIiS4_S6_EEE15addPointToCloudERKS2_N5boost10shared_ptrINS_10PointCloudIS2_EEEENSD_ISt6vectorIiSaIiEEEE@Base 1.6
 (optional=templinst)_ZN3pcl6octree16OctreePointCloudINS_17PointXYZRGBNormalENS0_26OctreeContainerDataTVectorIiEENS0_20OctreeContainerEmptyIiEENS0_14Octree2BufBaseIiS4_S6_EEE17addPointFromCloudEiN5boost10shared_ptrISt6vectorIiSaIiEEEE@Base 1.6
 (optional=templinst)_ZN3pcl6octree16OctreePointCloudINS_17PointXYZRGBNormalENS0_26OctreeContainerDataTVectorIiEENS0_20OctreeContainerEmptyIiEENS0_14Octree2BufBaseIiS4_S6_EEE17defineBoundingBoxEd@Base 1.6
 (optional=templinst)_ZN3pcl6octree16OctreePointCloudINS_17PointXYZRGBNormalENS0_26OctreeContainerDataTVectorIiEENS0_20OctreeContainerEmptyIiEENS0_14Octree2BufBaseIiS4_S6_EEE17defineBoundingBoxEddd@Base 1.6
 (optional=templinst)_ZN3pcl6octree16OctreePointCloudINS_17PointXYZRGBNormalENS0_26OctreeContainerDataTVectorIiEENS0_20OctreeContainerEmptyIiEENS0_14Octree2BufBaseIiS4_S6_EEE17defineBoundingBoxEdddddd@Base 1.6
 (optional=templinst)_ZN3pcl6octree16OctreePointCloudINS_17PointXYZRGBNormalENS0_26OctreeContainerDataTVectorIiEENS0_20OctreeContainerEmptyIiEENS0_14Octree2BufBaseIiS4_S6_EEE17defineBoundingBoxEv@Base 1.6
 (optional=templinst)_ZN3pcl6octree16OctreePointCloudINS_17PointXYZRGBNormalENS0_26OctreeContainerDataTVectorIiEENS0_20OctreeContainerEmptyIiEENS0_14Octree2BufBaseIiS4_S6_EEE18deleteVoxelAtPointERKS2_@Base 1.6
 (optional=templinst)_ZN3pcl6octree16OctreePointCloudINS_17PointXYZRGBNormalENS0_26OctreeContainerDataTVectorIiEENS0_20OctreeContainerEmptyIiEENS0_14Octree2BufBaseIiS4_S6_EEE18deleteVoxelAtPointERKi@Base 1.6
 (optional=templinst)_ZN3pcl6octree16OctreePointCloudINS_17PointXYZRGBNormalENS0_26OctreeContainerDataTVectorIiEENS0_20OctreeContainerEmptyIiEENS0_14Octree2BufBaseIiS4_S6_EEE23addPointsFromInputCloudEv@Base 1.6
 (optional=templinst)_ZN3pcl6octree16OctreePointCloudINS_17PointXYZRGBNormalENS0_26OctreeContainerDataTVectorIiEENS0_20OctreeContainerEmptyIiEENS0_14Octree2BufBaseIiS4_S6_EEE23adoptBoundingBoxToPointERKS2_@Base 1.6
 (optional=templinst)_ZN3pcl6octree16OctreePointCloudINS_17PointXYZRGBNormalENS0_26OctreeContainerDataTVectorIiEENS0_20OctreeContainerEmptyIiEENS0_14Octree2BufBaseIiS4_S6_EEE41getApproxIntersectedVoxelCentersBySegmentERKN5Eigen6MatrixIfLi3ELi1ELi0ELi3ELi1EEESE_RSt6vectorIS2_NSA_17aligned_allocatorIS2_EEEf@Base 1.6
 (optional=templinst)_ZN3pcl6octree16OctreePointCloudINS_17PointXYZRGBNormalENS0_26OctreeContainerDataTVectorIiEENS0_20OctreeContainerEmptyIiEENS0_14Octree2BufBaseIiS4_S6_EEEC1Ed@Base 1.6
 (optional=templinst)_ZN3pcl6octree16OctreePointCloudINS_17PointXYZRGBNormalENS0_26OctreeContainerDataTVectorIiEENS0_20OctreeContainerEmptyIiEENS0_14Octree2BufBaseIiS4_S6_EEEC2Ed@Base 1.6
 (optional=templinst)_ZN3pcl6octree16OctreePointCloudINS_17PointXYZRGBNormalENS0_26OctreeContainerDataTVectorIiEENS0_20OctreeContainerEmptyIiEENS0_14Octree2BufBaseIiS4_S6_EEED0Ev@Base 1.6
 (optional=templinst)_ZN3pcl6octree16OctreePointCloudINS_17PointXYZRGBNormalENS0_26OctreeContainerDataTVectorIiEENS0_20OctreeContainerEmptyIiEENS0_14Octree2BufBaseIiS4_S6_EEED1Ev@Base 1.6
 (optional=templinst)_ZN3pcl6octree16OctreePointCloudINS_17PointXYZRGBNormalENS0_26OctreeContainerDataTVectorIiEENS0_20OctreeContainerEmptyIiEENS0_14Octree2BufBaseIiS4_S6_EEED2Ev@Base 1.6
 (optional=templinst)_ZN3pcl6octree16OctreePointCloudINS_18PointWithViewpointENS0_26OctreeContainerDataTVectorIiEENS0_20OctreeContainerEmptyIiEENS0_10OctreeBaseIiS4_S6_EEE10deleteTreeEb@Base 1.6
 (optional=templinst)_ZN3pcl6octree16OctreePointCloudINS_18PointWithViewpointENS0_26OctreeContainerDataTVectorIiEENS0_20OctreeContainerEmptyIiEENS0_10OctreeBaseIiS4_S6_EEE10setEpsilonEd@Base 1.6
 (optional=templinst)_ZN3pcl6octree16OctreePointCloudINS_18PointWithViewpointENS0_26OctreeContainerDataTVectorIiEENS0_20OctreeContainerEmptyIiEENS0_10OctreeBaseIiS4_S6_EEE11addPointIdxEi@Base 1.6
 (optional=templinst)_ZN3pcl6octree16OctreePointCloudINS_18PointWithViewpointENS0_26OctreeContainerDataTVectorIiEENS0_20OctreeContainerEmptyIiEENS0_10OctreeBaseIiS4_S6_EEE13getKeyBitSizeEv@Base 1.6
 (optional=templinst)_ZN3pcl6octree16OctreePointCloudINS_18PointWithViewpointENS0_26OctreeContainerDataTVectorIiEENS0_20OctreeContainerEmptyIiEENS0_10OctreeBaseIiS4_S6_EEE13setInputCloudERKN5boost10shared_ptrIKNS_10PointCloudIS2_EEEERKNSB_IKSt6vectorIiSaIiEEEE@Base 1.6
 (optional=templinst)_ZN3pcl6octree16OctreePointCloudINS_18PointWithViewpointENS0_26OctreeContainerDataTVectorIiEENS0_20OctreeContainerEmptyIiEENS0_10OctreeBaseIiS4_S6_EEE13setResolutionEd@Base 1.6
 (optional=templinst)_ZN3pcl6octree16OctreePointCloudINS_18PointWithViewpointENS0_26OctreeContainerDataTVectorIiEENS0_20OctreeContainerEmptyIiEENS0_10OctreeBaseIiS4_S6_EEE14getVoxelBoundsERNS0_18OctreeIteratorBaseIiS8_EERN5Eigen6MatrixIfLi3ELi1ELi0ELi3ELi1EEESG_@Base 1.6
 (optional=templinst)_ZN3pcl6octree16OctreePointCloudINS_18PointWithViewpointENS0_26OctreeContainerDataTVectorIiEENS0_20OctreeContainerEmptyIiEENS0_10OctreeBaseIiS4_S6_EEE15addPointToCloudERKS2_N5boost10shared_ptrINS_10PointCloudIS2_EEEE@Base 1.6
 (optional=templinst)_ZN3pcl6octree16OctreePointCloudINS_18PointWithViewpointENS0_26OctreeContainerDataTVectorIiEENS0_20OctreeContainerEmptyIiEENS0_10OctreeBaseIiS4_S6_EEE15addPointToCloudERKS2_N5boost10shared_ptrINS_10PointCloudIS2_EEEENSD_ISt6vectorIiSaIiEEEE@Base 1.6
 (optional=templinst)_ZN3pcl6octree16OctreePointCloudINS_18PointWithViewpointENS0_26OctreeContainerDataTVectorIiEENS0_20OctreeContainerEmptyIiEENS0_10OctreeBaseIiS4_S6_EEE17addPointFromCloudEiN5boost10shared_ptrISt6vectorIiSaIiEEEE@Base 1.6
 (optional=templinst)_ZN3pcl6octree16OctreePointCloudINS_18PointWithViewpointENS0_26OctreeContainerDataTVectorIiEENS0_20OctreeContainerEmptyIiEENS0_10OctreeBaseIiS4_S6_EEE17defineBoundingBoxEd@Base 1.6
 (optional=templinst)_ZN3pcl6octree16OctreePointCloudINS_18PointWithViewpointENS0_26OctreeContainerDataTVectorIiEENS0_20OctreeContainerEmptyIiEENS0_10OctreeBaseIiS4_S6_EEE17defineBoundingBoxEddd@Base 1.6
 (optional=templinst)_ZN3pcl6octree16OctreePointCloudINS_18PointWithViewpointENS0_26OctreeContainerDataTVectorIiEENS0_20OctreeContainerEmptyIiEENS0_10OctreeBaseIiS4_S6_EEE17defineBoundingBoxEdddddd@Base 1.6
 (optional=templinst)_ZN3pcl6octree16OctreePointCloudINS_18PointWithViewpointENS0_26OctreeContainerDataTVectorIiEENS0_20OctreeContainerEmptyIiEENS0_10OctreeBaseIiS4_S6_EEE17defineBoundingBoxEv@Base 1.6
 (optional=templinst)_ZN3pcl6octree16OctreePointCloudINS_18PointWithViewpointENS0_26OctreeContainerDataTVectorIiEENS0_20OctreeContainerEmptyIiEENS0_10OctreeBaseIiS4_S6_EEE18deleteVoxelAtPointERKS2_@Base 1.6
 (optional=templinst)_ZN3pcl6octree16OctreePointCloudINS_18PointWithViewpointENS0_26OctreeContainerDataTVectorIiEENS0_20OctreeContainerEmptyIiEENS0_10OctreeBaseIiS4_S6_EEE18deleteVoxelAtPointERKi@Base 1.6
 (optional=templinst)_ZN3pcl6octree16OctreePointCloudINS_18PointWithViewpointENS0_26OctreeContainerDataTVectorIiEENS0_20OctreeContainerEmptyIiEENS0_10OctreeBaseIiS4_S6_EEE23addPointsFromInputCloudEv@Base 1.6
 (optional=templinst)_ZN3pcl6octree16OctreePointCloudINS_18PointWithViewpointENS0_26OctreeContainerDataTVectorIiEENS0_20OctreeContainerEmptyIiEENS0_10OctreeBaseIiS4_S6_EEE23adoptBoundingBoxToPointERKS2_@Base 1.6
 (optional=templinst)_ZN3pcl6octree16OctreePointCloudINS_18PointWithViewpointENS0_26OctreeContainerDataTVectorIiEENS0_20OctreeContainerEmptyIiEENS0_10OctreeBaseIiS4_S6_EEE41getApproxIntersectedVoxelCentersBySegmentERKN5Eigen6MatrixIfLi3ELi1ELi0ELi3ELi1EEESE_RSt6vectorIS2_NSA_17aligned_allocatorIS2_EEEf@Base 1.6
 (optional=templinst)_ZN3pcl6octree16OctreePointCloudINS_18PointWithViewpointENS0_26OctreeContainerDataTVectorIiEENS0_20OctreeContainerEmptyIiEENS0_10OctreeBaseIiS4_S6_EEEC1Ed@Base 1.6
 (optional=templinst)_ZN3pcl6octree16OctreePointCloudINS_18PointWithViewpointENS0_26OctreeContainerDataTVectorIiEENS0_20OctreeContainerEmptyIiEENS0_10OctreeBaseIiS4_S6_EEEC2Ed@Base 1.6
 (optional=templinst)_ZN3pcl6octree16OctreePointCloudINS_18PointWithViewpointENS0_26OctreeContainerDataTVectorIiEENS0_20OctreeContainerEmptyIiEENS0_10OctreeBaseIiS4_S6_EEED0Ev@Base 1.6
 (optional=templinst)_ZN3pcl6octree16OctreePointCloudINS_18PointWithViewpointENS0_26OctreeContainerDataTVectorIiEENS0_20OctreeContainerEmptyIiEENS0_10OctreeBaseIiS4_S6_EEED1Ev@Base 1.6
 (optional=templinst)_ZN3pcl6octree16OctreePointCloudINS_18PointWithViewpointENS0_26OctreeContainerDataTVectorIiEENS0_20OctreeContainerEmptyIiEENS0_10OctreeBaseIiS4_S6_EEED2Ev@Base 1.6
 (optional=templinst)_ZN3pcl6octree16OctreePointCloudINS_18PointWithViewpointENS0_26OctreeContainerDataTVectorIiEENS0_20OctreeContainerEmptyIiEENS0_14Octree2BufBaseIiS4_S6_EEE10deleteTreeEb@Base 1.6
 (optional=templinst)_ZN3pcl6octree16OctreePointCloudINS_18PointWithViewpointENS0_26OctreeContainerDataTVectorIiEENS0_20OctreeContainerEmptyIiEENS0_14Octree2BufBaseIiS4_S6_EEE10setEpsilonEd@Base 1.6
 (optional=templinst)_ZN3pcl6octree16OctreePointCloudINS_18PointWithViewpointENS0_26OctreeContainerDataTVectorIiEENS0_20OctreeContainerEmptyIiEENS0_14Octree2BufBaseIiS4_S6_EEE11addPointIdxEi@Base 1.6
 (optional=templinst)_ZN3pcl6octree16OctreePointCloudINS_18PointWithViewpointENS0_26OctreeContainerDataTVectorIiEENS0_20OctreeContainerEmptyIiEENS0_14Octree2BufBaseIiS4_S6_EEE13getKeyBitSizeEv@Base 1.6
 (optional=templinst)_ZN3pcl6octree16OctreePointCloudINS_18PointWithViewpointENS0_26OctreeContainerDataTVectorIiEENS0_20OctreeContainerEmptyIiEENS0_14Octree2BufBaseIiS4_S6_EEE13setInputCloudERKN5boost10shared_ptrIKNS_10PointCloudIS2_EEEERKNSB_IKSt6vectorIiSaIiEEEE@Base 1.6
 (optional=templinst)_ZN3pcl6octree16OctreePointCloudINS_18PointWithViewpointENS0_26OctreeContainerDataTVectorIiEENS0_20OctreeContainerEmptyIiEENS0_14Octree2BufBaseIiS4_S6_EEE13setResolutionEd@Base 1.6
 (optional=templinst)_ZN3pcl6octree16OctreePointCloudINS_18PointWithViewpointENS0_26OctreeContainerDataTVectorIiEENS0_20OctreeContainerEmptyIiEENS0_14Octree2BufBaseIiS4_S6_EEE14getVoxelBoundsERNS0_18OctreeIteratorBaseIiS8_EERN5Eigen6MatrixIfLi3ELi1ELi0ELi3ELi1EEESG_@Base 1.6
 (optional=templinst)_ZN3pcl6octree16OctreePointCloudINS_18PointWithViewpointENS0_26OctreeContainerDataTVectorIiEENS0_20OctreeContainerEmptyIiEENS0_14Octree2BufBaseIiS4_S6_EEE15addPointToCloudERKS2_N5boost10shared_ptrINS_10PointCloudIS2_EEEE@Base 1.6
 (optional=templinst)_ZN3pcl6octree16OctreePointCloudINS_18PointWithViewpointENS0_26OctreeContainerDataTVectorIiEENS0_20OctreeContainerEmptyIiEENS0_14Octree2BufBaseIiS4_S6_EEE15addPointToCloudERKS2_N5boost10shared_ptrINS_10PointCloudIS2_EEEENSD_ISt6vectorIiSaIiEEEE@Base 1.6
 (optional=templinst)_ZN3pcl6octree16OctreePointCloudINS_18PointWithViewpointENS0_26OctreeContainerDataTVectorIiEENS0_20OctreeContainerEmptyIiEENS0_14Octree2BufBaseIiS4_S6_EEE17addPointFromCloudEiN5boost10shared_ptrISt6vectorIiSaIiEEEE@Base 1.6
 (optional=templinst)_ZN3pcl6octree16OctreePointCloudINS_18PointWithViewpointENS0_26OctreeContainerDataTVectorIiEENS0_20OctreeContainerEmptyIiEENS0_14Octree2BufBaseIiS4_S6_EEE17defineBoundingBoxEd@Base 1.6
 (optional=templinst)_ZN3pcl6octree16OctreePointCloudINS_18PointWithViewpointENS0_26OctreeContainerDataTVectorIiEENS0_20OctreeContainerEmptyIiEENS0_14Octree2BufBaseIiS4_S6_EEE17defineBoundingBoxEddd@Base 1.6
 (optional=templinst)_ZN3pcl6octree16OctreePointCloudINS_18PointWithViewpointENS0_26OctreeContainerDataTVectorIiEENS0_20OctreeContainerEmptyIiEENS0_14Octree2BufBaseIiS4_S6_EEE17defineBoundingBoxEdddddd@Base 1.6
 (optional=templinst)_ZN3pcl6octree16OctreePointCloudINS_18PointWithViewpointENS0_26OctreeContainerDataTVectorIiEENS0_20OctreeContainerEmptyIiEENS0_14Octree2BufBaseIiS4_S6_EEE17defineBoundingBoxEv@Base 1.6
 (optional=templinst)_ZN3pcl6octree16OctreePointCloudINS_18PointWithViewpointENS0_26OctreeContainerDataTVectorIiEENS0_20OctreeContainerEmptyIiEENS0_14Octree2BufBaseIiS4_S6_EEE18deleteVoxelAtPointERKS2_@Base 1.6
 (optional=templinst)_ZN3pcl6octree16OctreePointCloudINS_18PointWithViewpointENS0_26OctreeContainerDataTVectorIiEENS0_20OctreeContainerEmptyIiEENS0_14Octree2BufBaseIiS4_S6_EEE18deleteVoxelAtPointERKi@Base 1.6
 (optional=templinst)_ZN3pcl6octree16OctreePointCloudINS_18PointWithViewpointENS0_26OctreeContainerDataTVectorIiEENS0_20OctreeContainerEmptyIiEENS0_14Octree2BufBaseIiS4_S6_EEE23addPointsFromInputCloudEv@Base 1.6
 (optional=templinst)_ZN3pcl6octree16OctreePointCloudINS_18PointWithViewpointENS0_26OctreeContainerDataTVectorIiEENS0_20OctreeContainerEmptyIiEENS0_14Octree2BufBaseIiS4_S6_EEE23adoptBoundingBoxToPointERKS2_@Base 1.6
 (optional=templinst)_ZN3pcl6octree16OctreePointCloudINS_18PointWithViewpointENS0_26OctreeContainerDataTVectorIiEENS0_20OctreeContainerEmptyIiEENS0_14Octree2BufBaseIiS4_S6_EEE41getApproxIntersectedVoxelCentersBySegmentERKN5Eigen6MatrixIfLi3ELi1ELi0ELi3ELi1EEESE_RSt6vectorIS2_NSA_17aligned_allocatorIS2_EEEf@Base 1.6
 (optional=templinst)_ZN3pcl6octree16OctreePointCloudINS_18PointWithViewpointENS0_26OctreeContainerDataTVectorIiEENS0_20OctreeContainerEmptyIiEENS0_14Octree2BufBaseIiS4_S6_EEEC1Ed@Base 1.6
 (optional=templinst)_ZN3pcl6octree16OctreePointCloudINS_18PointWithViewpointENS0_26OctreeContainerDataTVectorIiEENS0_20OctreeContainerEmptyIiEENS0_14Octree2BufBaseIiS4_S6_EEEC2Ed@Base 1.6
 (optional=templinst)_ZN3pcl6octree16OctreePointCloudINS_18PointWithViewpointENS0_26OctreeContainerDataTVectorIiEENS0_20OctreeContainerEmptyIiEENS0_14Octree2BufBaseIiS4_S6_EEED0Ev@Base 1.6
 (optional=templinst)_ZN3pcl6octree16OctreePointCloudINS_18PointWithViewpointENS0_26OctreeContainerDataTVectorIiEENS0_20OctreeContainerEmptyIiEENS0_14Octree2BufBaseIiS4_S6_EEED1Ev@Base 1.6
 (optional=templinst)_ZN3pcl6octree16OctreePointCloudINS_18PointWithViewpointENS0_26OctreeContainerDataTVectorIiEENS0_20OctreeContainerEmptyIiEENS0_14Octree2BufBaseIiS4_S6_EEED2Ev@Base 1.6
 (optional=templinst)_ZN3pcl6octree16OctreePointCloudINS_8PointXYZENS0_26OctreeContainerDataTVectorIiEENS0_20OctreeContainerEmptyIiEENS0_10OctreeBaseIiS4_S6_EEE10deleteTreeEb@Base 1.6
 (optional=templinst)_ZN3pcl6octree16OctreePointCloudINS_8PointXYZENS0_26OctreeContainerDataTVectorIiEENS0_20OctreeContainerEmptyIiEENS0_10OctreeBaseIiS4_S6_EEE10setEpsilonEd@Base 1.6
 (optional=templinst)_ZN3pcl6octree16OctreePointCloudINS_8PointXYZENS0_26OctreeContainerDataTVectorIiEENS0_20OctreeContainerEmptyIiEENS0_10OctreeBaseIiS4_S6_EEE11addPointIdxEi@Base 1.6
 (optional=templinst)_ZN3pcl6octree16OctreePointCloudINS_8PointXYZENS0_26OctreeContainerDataTVectorIiEENS0_20OctreeContainerEmptyIiEENS0_10OctreeBaseIiS4_S6_EEE13getKeyBitSizeEv@Base 1.6
 (optional=templinst)_ZN3pcl6octree16OctreePointCloudINS_8PointXYZENS0_26OctreeContainerDataTVectorIiEENS0_20OctreeContainerEmptyIiEENS0_10OctreeBaseIiS4_S6_EEE13setInputCloudERKN5boost10shared_ptrIKNS_10PointCloudIS2_EEEERKNSB_IKSt6vectorIiSaIiEEEE@Base 1.6
 (optional=templinst)_ZN3pcl6octree16OctreePointCloudINS_8PointXYZENS0_26OctreeContainerDataTVectorIiEENS0_20OctreeContainerEmptyIiEENS0_10OctreeBaseIiS4_S6_EEE13setResolutionEd@Base 1.6
 (optional=templinst)_ZN3pcl6octree16OctreePointCloudINS_8PointXYZENS0_26OctreeContainerDataTVectorIiEENS0_20OctreeContainerEmptyIiEENS0_10OctreeBaseIiS4_S6_EEE14getVoxelBoundsERNS0_18OctreeIteratorBaseIiS8_EERN5Eigen6MatrixIfLi3ELi1ELi0ELi3ELi1EEESG_@Base 1.6
 (optional=templinst)_ZN3pcl6octree16OctreePointCloudINS_8PointXYZENS0_26OctreeContainerDataTVectorIiEENS0_20OctreeContainerEmptyIiEENS0_10OctreeBaseIiS4_S6_EEE15addPointToCloudERKS2_N5boost10shared_ptrINS_10PointCloudIS2_EEEE@Base 1.6
 (optional=templinst)_ZN3pcl6octree16OctreePointCloudINS_8PointXYZENS0_26OctreeContainerDataTVectorIiEENS0_20OctreeContainerEmptyIiEENS0_10OctreeBaseIiS4_S6_EEE15addPointToCloudERKS2_N5boost10shared_ptrINS_10PointCloudIS2_EEEENSD_ISt6vectorIiSaIiEEEE@Base 1.6
 (optional=templinst)_ZN3pcl6octree16OctreePointCloudINS_8PointXYZENS0_26OctreeContainerDataTVectorIiEENS0_20OctreeContainerEmptyIiEENS0_10OctreeBaseIiS4_S6_EEE17addPointFromCloudEiN5boost10shared_ptrISt6vectorIiSaIiEEEE@Base 1.6
 (optional=templinst)_ZN3pcl6octree16OctreePointCloudINS_8PointXYZENS0_26OctreeContainerDataTVectorIiEENS0_20OctreeContainerEmptyIiEENS0_10OctreeBaseIiS4_S6_EEE17defineBoundingBoxEd@Base 1.6
 (optional=templinst)_ZN3pcl6octree16OctreePointCloudINS_8PointXYZENS0_26OctreeContainerDataTVectorIiEENS0_20OctreeContainerEmptyIiEENS0_10OctreeBaseIiS4_S6_EEE17defineBoundingBoxEddd@Base 1.6
 (optional=templinst)_ZN3pcl6octree16OctreePointCloudINS_8PointXYZENS0_26OctreeContainerDataTVectorIiEENS0_20OctreeContainerEmptyIiEENS0_10OctreeBaseIiS4_S6_EEE17defineBoundingBoxEdddddd@Base 1.6
 (optional=templinst)_ZN3pcl6octree16OctreePointCloudINS_8PointXYZENS0_26OctreeContainerDataTVectorIiEENS0_20OctreeContainerEmptyIiEENS0_10OctreeBaseIiS4_S6_EEE17defineBoundingBoxEv@Base 1.6
 (optional=templinst)_ZN3pcl6octree16OctreePointCloudINS_8PointXYZENS0_26OctreeContainerDataTVectorIiEENS0_20OctreeContainerEmptyIiEENS0_10OctreeBaseIiS4_S6_EEE18deleteVoxelAtPointERKS2_@Base 1.6
 (optional=templinst)_ZN3pcl6octree16OctreePointCloudINS_8PointXYZENS0_26OctreeContainerDataTVectorIiEENS0_20OctreeContainerEmptyIiEENS0_10OctreeBaseIiS4_S6_EEE18deleteVoxelAtPointERKi@Base 1.6
 (optional=templinst)_ZN3pcl6octree16OctreePointCloudINS_8PointXYZENS0_26OctreeContainerDataTVectorIiEENS0_20OctreeContainerEmptyIiEENS0_10OctreeBaseIiS4_S6_EEE23addPointsFromInputCloudEv@Base 1.6
 (optional=templinst)_ZN3pcl6octree16OctreePointCloudINS_8PointXYZENS0_26OctreeContainerDataTVectorIiEENS0_20OctreeContainerEmptyIiEENS0_10OctreeBaseIiS4_S6_EEE23adoptBoundingBoxToPointERKS2_@Base 1.6
 (optional=templinst)_ZN3pcl6octree16OctreePointCloudINS_8PointXYZENS0_26OctreeContainerDataTVectorIiEENS0_20OctreeContainerEmptyIiEENS0_10OctreeBaseIiS4_S6_EEE41getApproxIntersectedVoxelCentersBySegmentERKN5Eigen6MatrixIfLi3ELi1ELi0ELi3ELi1EEESE_RSt6vectorIS2_NSA_17aligned_allocatorIS2_EEEf@Base 1.6
 (optional=templinst)_ZN3pcl6octree16OctreePointCloudINS_8PointXYZENS0_26OctreeContainerDataTVectorIiEENS0_20OctreeContainerEmptyIiEENS0_10OctreeBaseIiS4_S6_EEEC1Ed@Base 1.6
 (optional=templinst)_ZN3pcl6octree16OctreePointCloudINS_8PointXYZENS0_26OctreeContainerDataTVectorIiEENS0_20OctreeContainerEmptyIiEENS0_10OctreeBaseIiS4_S6_EEEC2Ed@Base 1.6
 (optional=templinst)_ZN3pcl6octree16OctreePointCloudINS_8PointXYZENS0_26OctreeContainerDataTVectorIiEENS0_20OctreeContainerEmptyIiEENS0_10OctreeBaseIiS4_S6_EEED0Ev@Base 1.6
 (optional=templinst)_ZN3pcl6octree16OctreePointCloudINS_8PointXYZENS0_26OctreeContainerDataTVectorIiEENS0_20OctreeContainerEmptyIiEENS0_10OctreeBaseIiS4_S6_EEED1Ev@Base 1.6
 (optional=templinst)_ZN3pcl6octree16OctreePointCloudINS_8PointXYZENS0_26OctreeContainerDataTVectorIiEENS0_20OctreeContainerEmptyIiEENS0_10OctreeBaseIiS4_S6_EEED2Ev@Base 1.6
 (optional=templinst)_ZN3pcl6octree16OctreePointCloudINS_8PointXYZENS0_26OctreeContainerDataTVectorIiEENS0_20OctreeContainerEmptyIiEENS0_14Octree2BufBaseIiS4_S6_EEE10deleteTreeEb@Base 1.6
 (optional=templinst)_ZN3pcl6octree16OctreePointCloudINS_8PointXYZENS0_26OctreeContainerDataTVectorIiEENS0_20OctreeContainerEmptyIiEENS0_14Octree2BufBaseIiS4_S6_EEE10setEpsilonEd@Base 1.6
 (optional=templinst)_ZN3pcl6octree16OctreePointCloudINS_8PointXYZENS0_26OctreeContainerDataTVectorIiEENS0_20OctreeContainerEmptyIiEENS0_14Octree2BufBaseIiS4_S6_EEE11addPointIdxEi@Base 1.6
 (optional=templinst)_ZN3pcl6octree16OctreePointCloudINS_8PointXYZENS0_26OctreeContainerDataTVectorIiEENS0_20OctreeContainerEmptyIiEENS0_14Octree2BufBaseIiS4_S6_EEE13getKeyBitSizeEv@Base 1.6
 (optional=templinst)_ZN3pcl6octree16OctreePointCloudINS_8PointXYZENS0_26OctreeContainerDataTVectorIiEENS0_20OctreeContainerEmptyIiEENS0_14Octree2BufBaseIiS4_S6_EEE13setInputCloudERKN5boost10shared_ptrIKNS_10PointCloudIS2_EEEERKNSB_IKSt6vectorIiSaIiEEEE@Base 1.6
 (optional=templinst)_ZN3pcl6octree16OctreePointCloudINS_8PointXYZENS0_26OctreeContainerDataTVectorIiEENS0_20OctreeContainerEmptyIiEENS0_14Octree2BufBaseIiS4_S6_EEE13setResolutionEd@Base 1.6
 (optional=templinst)_ZN3pcl6octree16OctreePointCloudINS_8PointXYZENS0_26OctreeContainerDataTVectorIiEENS0_20OctreeContainerEmptyIiEENS0_14Octree2BufBaseIiS4_S6_EEE14getVoxelBoundsERNS0_18OctreeIteratorBaseIiS8_EERN5Eigen6MatrixIfLi3ELi1ELi0ELi3ELi1EEESG_@Base 1.6
 (optional=templinst)_ZN3pcl6octree16OctreePointCloudINS_8PointXYZENS0_26OctreeContainerDataTVectorIiEENS0_20OctreeContainerEmptyIiEENS0_14Octree2BufBaseIiS4_S6_EEE15addPointToCloudERKS2_N5boost10shared_ptrINS_10PointCloudIS2_EEEE@Base 1.6
 (optional=templinst)_ZN3pcl6octree16OctreePointCloudINS_8PointXYZENS0_26OctreeContainerDataTVectorIiEENS0_20OctreeContainerEmptyIiEENS0_14Octree2BufBaseIiS4_S6_EEE15addPointToCloudERKS2_N5boost10shared_ptrINS_10PointCloudIS2_EEEENSD_ISt6vectorIiSaIiEEEE@Base 1.6
 (optional=templinst)_ZN3pcl6octree16OctreePointCloudINS_8PointXYZENS0_26OctreeContainerDataTVectorIiEENS0_20OctreeContainerEmptyIiEENS0_14Octree2BufBaseIiS4_S6_EEE17addPointFromCloudEiN5boost10shared_ptrISt6vectorIiSaIiEEEE@Base 1.6
 (optional=templinst)_ZN3pcl6octree16OctreePointCloudINS_8PointXYZENS0_26OctreeContainerDataTVectorIiEENS0_20OctreeContainerEmptyIiEENS0_14Octree2BufBaseIiS4_S6_EEE17defineBoundingBoxEd@Base 1.6
 (optional=templinst)_ZN3pcl6octree16OctreePointCloudINS_8PointXYZENS0_26OctreeContainerDataTVectorIiEENS0_20OctreeContainerEmptyIiEENS0_14Octree2BufBaseIiS4_S6_EEE17defineBoundingBoxEddd@Base 1.6
 (optional=templinst)_ZN3pcl6octree16OctreePointCloudINS_8PointXYZENS0_26OctreeContainerDataTVectorIiEENS0_20OctreeContainerEmptyIiEENS0_14Octree2BufBaseIiS4_S6_EEE17defineBoundingBoxEdddddd@Base 1.6
 (optional=templinst)_ZN3pcl6octree16OctreePointCloudINS_8PointXYZENS0_26OctreeContainerDataTVectorIiEENS0_20OctreeContainerEmptyIiEENS0_14Octree2BufBaseIiS4_S6_EEE17defineBoundingBoxEv@Base 1.6
 (optional=templinst)_ZN3pcl6octree16OctreePointCloudINS_8PointXYZENS0_26OctreeContainerDataTVectorIiEENS0_20OctreeContainerEmptyIiEENS0_14Octree2BufBaseIiS4_S6_EEE18deleteVoxelAtPointERKS2_@Base 1.6
 (optional=templinst)_ZN3pcl6octree16OctreePointCloudINS_8PointXYZENS0_26OctreeContainerDataTVectorIiEENS0_20OctreeContainerEmptyIiEENS0_14Octree2BufBaseIiS4_S6_EEE18deleteVoxelAtPointERKi@Base 1.6
 (optional=templinst)_ZN3pcl6octree16OctreePointCloudINS_8PointXYZENS0_26OctreeContainerDataTVectorIiEENS0_20OctreeContainerEmptyIiEENS0_14Octree2BufBaseIiS4_S6_EEE23addPointsFromInputCloudEv@Base 1.6
 (optional=templinst)_ZN3pcl6octree16OctreePointCloudINS_8PointXYZENS0_26OctreeContainerDataTVectorIiEENS0_20OctreeContainerEmptyIiEENS0_14Octree2BufBaseIiS4_S6_EEE23adoptBoundingBoxToPointERKS2_@Base 1.6
 (optional=templinst)_ZN3pcl6octree16OctreePointCloudINS_8PointXYZENS0_26OctreeContainerDataTVectorIiEENS0_20OctreeContainerEmptyIiEENS0_14Octree2BufBaseIiS4_S6_EEE41getApproxIntersectedVoxelCentersBySegmentERKN5Eigen6MatrixIfLi3ELi1ELi0ELi3ELi1EEESE_RSt6vectorIS2_NSA_17aligned_allocatorIS2_EEEf@Base 1.6
 (optional=templinst)_ZN3pcl6octree16OctreePointCloudINS_8PointXYZENS0_26OctreeContainerDataTVectorIiEENS0_20OctreeContainerEmptyIiEENS0_14Octree2BufBaseIiS4_S6_EEEC1Ed@Base 1.6
 (optional=templinst)_ZN3pcl6octree16OctreePointCloudINS_8PointXYZENS0_26OctreeContainerDataTVectorIiEENS0_20OctreeContainerEmptyIiEENS0_14Octree2BufBaseIiS4_S6_EEEC2Ed@Base 1.6
 (optional=templinst)_ZN3pcl6octree16OctreePointCloudINS_8PointXYZENS0_26OctreeContainerDataTVectorIiEENS0_20OctreeContainerEmptyIiEENS0_14Octree2BufBaseIiS4_S6_EEED0Ev@Base 1.6
 (optional=templinst)_ZN3pcl6octree16OctreePointCloudINS_8PointXYZENS0_26OctreeContainerDataTVectorIiEENS0_20OctreeContainerEmptyIiEENS0_14Octree2BufBaseIiS4_S6_EEED1Ev@Base 1.6
 (optional=templinst)_ZN3pcl6octree16OctreePointCloudINS_8PointXYZENS0_26OctreeContainerDataTVectorIiEENS0_20OctreeContainerEmptyIiEENS0_14Octree2BufBaseIiS4_S6_EEED2Ev@Base 1.6
 (optional=templinst)_ZN3pcl6octree16OctreePointCloudINS_9PointXYZIENS0_26OctreeContainerDataTVectorIiEENS0_20OctreeContainerEmptyIiEENS0_10OctreeBaseIiS4_S6_EEE10deleteTreeEb@Base 1.6
 (optional=templinst)_ZN3pcl6octree16OctreePointCloudINS_9PointXYZIENS0_26OctreeContainerDataTVectorIiEENS0_20OctreeContainerEmptyIiEENS0_10OctreeBaseIiS4_S6_EEE10setEpsilonEd@Base 1.6
 (optional=templinst)_ZN3pcl6octree16OctreePointCloudINS_9PointXYZIENS0_26OctreeContainerDataTVectorIiEENS0_20OctreeContainerEmptyIiEENS0_10OctreeBaseIiS4_S6_EEE11addPointIdxEi@Base 1.6
 (optional=templinst)_ZN3pcl6octree16OctreePointCloudINS_9PointXYZIENS0_26OctreeContainerDataTVectorIiEENS0_20OctreeContainerEmptyIiEENS0_10OctreeBaseIiS4_S6_EEE13getKeyBitSizeEv@Base 1.6
 (optional=templinst)_ZN3pcl6octree16OctreePointCloudINS_9PointXYZIENS0_26OctreeContainerDataTVectorIiEENS0_20OctreeContainerEmptyIiEENS0_10OctreeBaseIiS4_S6_EEE13setInputCloudERKN5boost10shared_ptrIKNS_10PointCloudIS2_EEEERKNSB_IKSt6vectorIiSaIiEEEE@Base 1.6
 (optional=templinst)_ZN3pcl6octree16OctreePointCloudINS_9PointXYZIENS0_26OctreeContainerDataTVectorIiEENS0_20OctreeContainerEmptyIiEENS0_10OctreeBaseIiS4_S6_EEE13setResolutionEd@Base 1.6
 (optional=templinst)_ZN3pcl6octree16OctreePointCloudINS_9PointXYZIENS0_26OctreeContainerDataTVectorIiEENS0_20OctreeContainerEmptyIiEENS0_10OctreeBaseIiS4_S6_EEE14getVoxelBoundsERNS0_18OctreeIteratorBaseIiS8_EERN5Eigen6MatrixIfLi3ELi1ELi0ELi3ELi1EEESG_@Base 1.6
 (optional=templinst)_ZN3pcl6octree16OctreePointCloudINS_9PointXYZIENS0_26OctreeContainerDataTVectorIiEENS0_20OctreeContainerEmptyIiEENS0_10OctreeBaseIiS4_S6_EEE15addPointToCloudERKS2_N5boost10shared_ptrINS_10PointCloudIS2_EEEE@Base 1.6
 (optional=templinst)_ZN3pcl6octree16OctreePointCloudINS_9PointXYZIENS0_26OctreeContainerDataTVectorIiEENS0_20OctreeContainerEmptyIiEENS0_10OctreeBaseIiS4_S6_EEE15addPointToCloudERKS2_N5boost10shared_ptrINS_10PointCloudIS2_EEEENSD_ISt6vectorIiSaIiEEEE@Base 1.6
 (optional=templinst)_ZN3pcl6octree16OctreePointCloudINS_9PointXYZIENS0_26OctreeContainerDataTVectorIiEENS0_20OctreeContainerEmptyIiEENS0_10OctreeBaseIiS4_S6_EEE17addPointFromCloudEiN5boost10shared_ptrISt6vectorIiSaIiEEEE@Base 1.6
 (optional=templinst)_ZN3pcl6octree16OctreePointCloudINS_9PointXYZIENS0_26OctreeContainerDataTVectorIiEENS0_20OctreeContainerEmptyIiEENS0_10OctreeBaseIiS4_S6_EEE17defineBoundingBoxEd@Base 1.6
 (optional=templinst)_ZN3pcl6octree16OctreePointCloudINS_9PointXYZIENS0_26OctreeContainerDataTVectorIiEENS0_20OctreeContainerEmptyIiEENS0_10OctreeBaseIiS4_S6_EEE17defineBoundingBoxEddd@Base 1.6
 (optional=templinst)_ZN3pcl6octree16OctreePointCloudINS_9PointXYZIENS0_26OctreeContainerDataTVectorIiEENS0_20OctreeContainerEmptyIiEENS0_10OctreeBaseIiS4_S6_EEE17defineBoundingBoxEdddddd@Base 1.6
 (optional=templinst)_ZN3pcl6octree16OctreePointCloudINS_9PointXYZIENS0_26OctreeContainerDataTVectorIiEENS0_20OctreeContainerEmptyIiEENS0_10OctreeBaseIiS4_S6_EEE17defineBoundingBoxEv@Base 1.6
 (optional=templinst)_ZN3pcl6octree16OctreePointCloudINS_9PointXYZIENS0_26OctreeContainerDataTVectorIiEENS0_20OctreeContainerEmptyIiEENS0_10OctreeBaseIiS4_S6_EEE18deleteVoxelAtPointERKS2_@Base 1.6
 (optional=templinst)_ZN3pcl6octree16OctreePointCloudINS_9PointXYZIENS0_26OctreeContainerDataTVectorIiEENS0_20OctreeContainerEmptyIiEENS0_10OctreeBaseIiS4_S6_EEE18deleteVoxelAtPointERKi@Base 1.6
 (optional=templinst)_ZN3pcl6octree16OctreePointCloudINS_9PointXYZIENS0_26OctreeContainerDataTVectorIiEENS0_20OctreeContainerEmptyIiEENS0_10OctreeBaseIiS4_S6_EEE23addPointsFromInputCloudEv@Base 1.6
 (optional=templinst)_ZN3pcl6octree16OctreePointCloudINS_9PointXYZIENS0_26OctreeContainerDataTVectorIiEENS0_20OctreeContainerEmptyIiEENS0_10OctreeBaseIiS4_S6_EEE23adoptBoundingBoxToPointERKS2_@Base 1.6
 (optional=templinst)_ZN3pcl6octree16OctreePointCloudINS_9PointXYZIENS0_26OctreeContainerDataTVectorIiEENS0_20OctreeContainerEmptyIiEENS0_10OctreeBaseIiS4_S6_EEE41getApproxIntersectedVoxelCentersBySegmentERKN5Eigen6MatrixIfLi3ELi1ELi0ELi3ELi1EEESE_RSt6vectorIS2_NSA_17aligned_allocatorIS2_EEEf@Base 1.6
 (optional=templinst)_ZN3pcl6octree16OctreePointCloudINS_9PointXYZIENS0_26OctreeContainerDataTVectorIiEENS0_20OctreeContainerEmptyIiEENS0_10OctreeBaseIiS4_S6_EEEC1Ed@Base 1.6
 (optional=templinst)_ZN3pcl6octree16OctreePointCloudINS_9PointXYZIENS0_26OctreeContainerDataTVectorIiEENS0_20OctreeContainerEmptyIiEENS0_10OctreeBaseIiS4_S6_EEEC2Ed@Base 1.6
 (optional=templinst)_ZN3pcl6octree16OctreePointCloudINS_9PointXYZIENS0_26OctreeContainerDataTVectorIiEENS0_20OctreeContainerEmptyIiEENS0_10OctreeBaseIiS4_S6_EEED0Ev@Base 1.6
 (optional=templinst)_ZN3pcl6octree16OctreePointCloudINS_9PointXYZIENS0_26OctreeContainerDataTVectorIiEENS0_20OctreeContainerEmptyIiEENS0_10OctreeBaseIiS4_S6_EEED1Ev@Base 1.6
 (optional=templinst)_ZN3pcl6octree16OctreePointCloudINS_9PointXYZIENS0_26OctreeContainerDataTVectorIiEENS0_20OctreeContainerEmptyIiEENS0_10OctreeBaseIiS4_S6_EEED2Ev@Base 1.6
 (optional=templinst)_ZN3pcl6octree16OctreePointCloudINS_9PointXYZIENS0_26OctreeContainerDataTVectorIiEENS0_20OctreeContainerEmptyIiEENS0_14Octree2BufBaseIiS4_S6_EEE10deleteTreeEb@Base 1.6
 (optional=templinst)_ZN3pcl6octree16OctreePointCloudINS_9PointXYZIENS0_26OctreeContainerDataTVectorIiEENS0_20OctreeContainerEmptyIiEENS0_14Octree2BufBaseIiS4_S6_EEE10setEpsilonEd@Base 1.6
 (optional=templinst)_ZN3pcl6octree16OctreePointCloudINS_9PointXYZIENS0_26OctreeContainerDataTVectorIiEENS0_20OctreeContainerEmptyIiEENS0_14Octree2BufBaseIiS4_S6_EEE11addPointIdxEi@Base 1.6
 (optional=templinst)_ZN3pcl6octree16OctreePointCloudINS_9PointXYZIENS0_26OctreeContainerDataTVectorIiEENS0_20OctreeContainerEmptyIiEENS0_14Octree2BufBaseIiS4_S6_EEE13getKeyBitSizeEv@Base 1.6
 (optional=templinst)_ZN3pcl6octree16OctreePointCloudINS_9PointXYZIENS0_26OctreeContainerDataTVectorIiEENS0_20OctreeContainerEmptyIiEENS0_14Octree2BufBaseIiS4_S6_EEE13setInputCloudERKN5boost10shared_ptrIKNS_10PointCloudIS2_EEEERKNSB_IKSt6vectorIiSaIiEEEE@Base 1.6
 (optional=templinst)_ZN3pcl6octree16OctreePointCloudINS_9PointXYZIENS0_26OctreeContainerDataTVectorIiEENS0_20OctreeContainerEmptyIiEENS0_14Octree2BufBaseIiS4_S6_EEE13setResolutionEd@Base 1.6
 (optional=templinst)_ZN3pcl6octree16OctreePointCloudINS_9PointXYZIENS0_26OctreeContainerDataTVectorIiEENS0_20OctreeContainerEmptyIiEENS0_14Octree2BufBaseIiS4_S6_EEE14getVoxelBoundsERNS0_18OctreeIteratorBaseIiS8_EERN5Eigen6MatrixIfLi3ELi1ELi0ELi3ELi1EEESG_@Base 1.6
 (optional=templinst)_ZN3pcl6octree16OctreePointCloudINS_9PointXYZIENS0_26OctreeContainerDataTVectorIiEENS0_20OctreeContainerEmptyIiEENS0_14Octree2BufBaseIiS4_S6_EEE15addPointToCloudERKS2_N5boost10shared_ptrINS_10PointCloudIS2_EEEE@Base 1.6
 (optional=templinst)_ZN3pcl6octree16OctreePointCloudINS_9PointXYZIENS0_26OctreeContainerDataTVectorIiEENS0_20OctreeContainerEmptyIiEENS0_14Octree2BufBaseIiS4_S6_EEE15addPointToCloudERKS2_N5boost10shared_ptrINS_10PointCloudIS2_EEEENSD_ISt6vectorIiSaIiEEEE@Base 1.6
 (optional=templinst)_ZN3pcl6octree16OctreePointCloudINS_9PointXYZIENS0_26OctreeContainerDataTVectorIiEENS0_20OctreeContainerEmptyIiEENS0_14Octree2BufBaseIiS4_S6_EEE17addPointFromCloudEiN5boost10shared_ptrISt6vectorIiSaIiEEEE@Base 1.6
 (optional=templinst)_ZN3pcl6octree16OctreePointCloudINS_9PointXYZIENS0_26OctreeContainerDataTVectorIiEENS0_20OctreeContainerEmptyIiEENS0_14Octree2BufBaseIiS4_S6_EEE17defineBoundingBoxEd@Base 1.6
 (optional=templinst)_ZN3pcl6octree16OctreePointCloudINS_9PointXYZIENS0_26OctreeContainerDataTVectorIiEENS0_20OctreeContainerEmptyIiEENS0_14Octree2BufBaseIiS4_S6_EEE17defineBoundingBoxEddd@Base 1.6
 (optional=templinst)_ZN3pcl6octree16OctreePointCloudINS_9PointXYZIENS0_26OctreeContainerDataTVectorIiEENS0_20OctreeContainerEmptyIiEENS0_14Octree2BufBaseIiS4_S6_EEE17defineBoundingBoxEdddddd@Base 1.6
 (optional=templinst)_ZN3pcl6octree16OctreePointCloudINS_9PointXYZIENS0_26OctreeContainerDataTVectorIiEENS0_20OctreeContainerEmptyIiEENS0_14Octree2BufBaseIiS4_S6_EEE17defineBoundingBoxEv@Base 1.6
 (optional=templinst)_ZN3pcl6octree16OctreePointCloudINS_9PointXYZIENS0_26OctreeContainerDataTVectorIiEENS0_20OctreeContainerEmptyIiEENS0_14Octree2BufBaseIiS4_S6_EEE18deleteVoxelAtPointERKS2_@Base 1.6
 (optional=templinst)_ZN3pcl6octree16OctreePointCloudINS_9PointXYZIENS0_26OctreeContainerDataTVectorIiEENS0_20OctreeContainerEmptyIiEENS0_14Octree2BufBaseIiS4_S6_EEE18deleteVoxelAtPointERKi@Base 1.6
 (optional=templinst)_ZN3pcl6octree16OctreePointCloudINS_9PointXYZIENS0_26OctreeContainerDataTVectorIiEENS0_20OctreeContainerEmptyIiEENS0_14Octree2BufBaseIiS4_S6_EEE23addPointsFromInputCloudEv@Base 1.6
 (optional=templinst)_ZN3pcl6octree16OctreePointCloudINS_9PointXYZIENS0_26OctreeContainerDataTVectorIiEENS0_20OctreeContainerEmptyIiEENS0_14Octree2BufBaseIiS4_S6_EEE23adoptBoundingBoxToPointERKS2_@Base 1.6
 (optional=templinst)_ZN3pcl6octree16OctreePointCloudINS_9PointXYZIENS0_26OctreeContainerDataTVectorIiEENS0_20OctreeContainerEmptyIiEENS0_14Octree2BufBaseIiS4_S6_EEE41getApproxIntersectedVoxelCentersBySegmentERKN5Eigen6MatrixIfLi3ELi1ELi0ELi3ELi1EEESE_RSt6vectorIS2_NSA_17aligned_allocatorIS2_EEEf@Base 1.6
 (optional=templinst)_ZN3pcl6octree16OctreePointCloudINS_9PointXYZIENS0_26OctreeContainerDataTVectorIiEENS0_20OctreeContainerEmptyIiEENS0_14Octree2BufBaseIiS4_S6_EEEC1Ed@Base 1.6
 (optional=templinst)_ZN3pcl6octree16OctreePointCloudINS_9PointXYZIENS0_26OctreeContainerDataTVectorIiEENS0_20OctreeContainerEmptyIiEENS0_14Octree2BufBaseIiS4_S6_EEEC2Ed@Base 1.6
 (optional=templinst)_ZN3pcl6octree16OctreePointCloudINS_9PointXYZIENS0_26OctreeContainerDataTVectorIiEENS0_20OctreeContainerEmptyIiEENS0_14Octree2BufBaseIiS4_S6_EEED0Ev@Base 1.6
 (optional=templinst)_ZN3pcl6octree16OctreePointCloudINS_9PointXYZIENS0_26OctreeContainerDataTVectorIiEENS0_20OctreeContainerEmptyIiEENS0_14Octree2BufBaseIiS4_S6_EEED1Ev@Base 1.6
 (optional=templinst)_ZN3pcl6octree16OctreePointCloudINS_9PointXYZIENS0_26OctreeContainerDataTVectorIiEENS0_20OctreeContainerEmptyIiEENS0_14Octree2BufBaseIiS4_S6_EEED2Ev@Base 1.6
 (optional=templinst)_ZN3pcl6octree16OctreePointCloudINS_9PointXYZLENS0_26OctreeContainerDataTVectorIiEENS0_20OctreeContainerEmptyIiEENS0_10OctreeBaseIiS4_S6_EEE10deleteTreeEb@Base 1.6
 (optional=templinst)_ZN3pcl6octree16OctreePointCloudINS_9PointXYZLENS0_26OctreeContainerDataTVectorIiEENS0_20OctreeContainerEmptyIiEENS0_10OctreeBaseIiS4_S6_EEE10setEpsilonEd@Base 1.6
 (optional=templinst)_ZN3pcl6octree16OctreePointCloudINS_9PointXYZLENS0_26OctreeContainerDataTVectorIiEENS0_20OctreeContainerEmptyIiEENS0_10OctreeBaseIiS4_S6_EEE11addPointIdxEi@Base 1.6
 (optional=templinst)_ZN3pcl6octree16OctreePointCloudINS_9PointXYZLENS0_26OctreeContainerDataTVectorIiEENS0_20OctreeContainerEmptyIiEENS0_10OctreeBaseIiS4_S6_EEE13getKeyBitSizeEv@Base 1.6
 (optional=templinst)_ZN3pcl6octree16OctreePointCloudINS_9PointXYZLENS0_26OctreeContainerDataTVectorIiEENS0_20OctreeContainerEmptyIiEENS0_10OctreeBaseIiS4_S6_EEE13setInputCloudERKN5boost10shared_ptrIKNS_10PointCloudIS2_EEEERKNSB_IKSt6vectorIiSaIiEEEE@Base 1.6
 (optional=templinst)_ZN3pcl6octree16OctreePointCloudINS_9PointXYZLENS0_26OctreeContainerDataTVectorIiEENS0_20OctreeContainerEmptyIiEENS0_10OctreeBaseIiS4_S6_EEE13setResolutionEd@Base 1.6
 (optional=templinst)_ZN3pcl6octree16OctreePointCloudINS_9PointXYZLENS0_26OctreeContainerDataTVectorIiEENS0_20OctreeContainerEmptyIiEENS0_10OctreeBaseIiS4_S6_EEE14getVoxelBoundsERNS0_18OctreeIteratorBaseIiS8_EERN5Eigen6MatrixIfLi3ELi1ELi0ELi3ELi1EEESG_@Base 1.6
 (optional=templinst)_ZN3pcl6octree16OctreePointCloudINS_9PointXYZLENS0_26OctreeContainerDataTVectorIiEENS0_20OctreeContainerEmptyIiEENS0_10OctreeBaseIiS4_S6_EEE15addPointToCloudERKS2_N5boost10shared_ptrINS_10PointCloudIS2_EEEE@Base 1.6
 (optional=templinst)_ZN3pcl6octree16OctreePointCloudINS_9PointXYZLENS0_26OctreeContainerDataTVectorIiEENS0_20OctreeContainerEmptyIiEENS0_10OctreeBaseIiS4_S6_EEE15addPointToCloudERKS2_N5boost10shared_ptrINS_10PointCloudIS2_EEEENSD_ISt6vectorIiSaIiEEEE@Base 1.6
 (optional=templinst)_ZN3pcl6octree16OctreePointCloudINS_9PointXYZLENS0_26OctreeContainerDataTVectorIiEENS0_20OctreeContainerEmptyIiEENS0_10OctreeBaseIiS4_S6_EEE17addPointFromCloudEiN5boost10shared_ptrISt6vectorIiSaIiEEEE@Base 1.6
 (optional=templinst)_ZN3pcl6octree16OctreePointCloudINS_9PointXYZLENS0_26OctreeContainerDataTVectorIiEENS0_20OctreeContainerEmptyIiEENS0_10OctreeBaseIiS4_S6_EEE17defineBoundingBoxEd@Base 1.6
 (optional=templinst)_ZN3pcl6octree16OctreePointCloudINS_9PointXYZLENS0_26OctreeContainerDataTVectorIiEENS0_20OctreeContainerEmptyIiEENS0_10OctreeBaseIiS4_S6_EEE17defineBoundingBoxEddd@Base 1.6
 (optional=templinst)_ZN3pcl6octree16OctreePointCloudINS_9PointXYZLENS0_26OctreeContainerDataTVectorIiEENS0_20OctreeContainerEmptyIiEENS0_10OctreeBaseIiS4_S6_EEE17defineBoundingBoxEdddddd@Base 1.6
 (optional=templinst)_ZN3pcl6octree16OctreePointCloudINS_9PointXYZLENS0_26OctreeContainerDataTVectorIiEENS0_20OctreeContainerEmptyIiEENS0_10OctreeBaseIiS4_S6_EEE17defineBoundingBoxEv@Base 1.6
 (optional=templinst)_ZN3pcl6octree16OctreePointCloudINS_9PointXYZLENS0_26OctreeContainerDataTVectorIiEENS0_20OctreeContainerEmptyIiEENS0_10OctreeBaseIiS4_S6_EEE18deleteVoxelAtPointERKS2_@Base 1.6
 (optional=templinst)_ZN3pcl6octree16OctreePointCloudINS_9PointXYZLENS0_26OctreeContainerDataTVectorIiEENS0_20OctreeContainerEmptyIiEENS0_10OctreeBaseIiS4_S6_EEE18deleteVoxelAtPointERKi@Base 1.6
 (optional=templinst)_ZN3pcl6octree16OctreePointCloudINS_9PointXYZLENS0_26OctreeContainerDataTVectorIiEENS0_20OctreeContainerEmptyIiEENS0_10OctreeBaseIiS4_S6_EEE23addPointsFromInputCloudEv@Base 1.6
 (optional=templinst)_ZN3pcl6octree16OctreePointCloudINS_9PointXYZLENS0_26OctreeContainerDataTVectorIiEENS0_20OctreeContainerEmptyIiEENS0_10OctreeBaseIiS4_S6_EEE23adoptBoundingBoxToPointERKS2_@Base 1.6
 (optional=templinst)_ZN3pcl6octree16OctreePointCloudINS_9PointXYZLENS0_26OctreeContainerDataTVectorIiEENS0_20OctreeContainerEmptyIiEENS0_10OctreeBaseIiS4_S6_EEE41getApproxIntersectedVoxelCentersBySegmentERKN5Eigen6MatrixIfLi3ELi1ELi0ELi3ELi1EEESE_RSt6vectorIS2_NSA_17aligned_allocatorIS2_EEEf@Base 1.6
 (optional=templinst)_ZN3pcl6octree16OctreePointCloudINS_9PointXYZLENS0_26OctreeContainerDataTVectorIiEENS0_20OctreeContainerEmptyIiEENS0_10OctreeBaseIiS4_S6_EEEC1Ed@Base 1.6
 (optional=templinst)_ZN3pcl6octree16OctreePointCloudINS_9PointXYZLENS0_26OctreeContainerDataTVectorIiEENS0_20OctreeContainerEmptyIiEENS0_10OctreeBaseIiS4_S6_EEEC2Ed@Base 1.6
 (optional=templinst)_ZN3pcl6octree16OctreePointCloudINS_9PointXYZLENS0_26OctreeContainerDataTVectorIiEENS0_20OctreeContainerEmptyIiEENS0_10OctreeBaseIiS4_S6_EEED0Ev@Base 1.6
 (optional=templinst)_ZN3pcl6octree16OctreePointCloudINS_9PointXYZLENS0_26OctreeContainerDataTVectorIiEENS0_20OctreeContainerEmptyIiEENS0_10OctreeBaseIiS4_S6_EEED1Ev@Base 1.6
 (optional=templinst)_ZN3pcl6octree16OctreePointCloudINS_9PointXYZLENS0_26OctreeContainerDataTVectorIiEENS0_20OctreeContainerEmptyIiEENS0_10OctreeBaseIiS4_S6_EEED2Ev@Base 1.6
 (optional=templinst)_ZN3pcl6octree16OctreePointCloudINS_9PointXYZLENS0_26OctreeContainerDataTVectorIiEENS0_20OctreeContainerEmptyIiEENS0_14Octree2BufBaseIiS4_S6_EEE10deleteTreeEb@Base 1.6
 (optional=templinst)_ZN3pcl6octree16OctreePointCloudINS_9PointXYZLENS0_26OctreeContainerDataTVectorIiEENS0_20OctreeContainerEmptyIiEENS0_14Octree2BufBaseIiS4_S6_EEE10setEpsilonEd@Base 1.6
 (optional=templinst)_ZN3pcl6octree16OctreePointCloudINS_9PointXYZLENS0_26OctreeContainerDataTVectorIiEENS0_20OctreeContainerEmptyIiEENS0_14Octree2BufBaseIiS4_S6_EEE11addPointIdxEi@Base 1.6
 (optional=templinst)_ZN3pcl6octree16OctreePointCloudINS_9PointXYZLENS0_26OctreeContainerDataTVectorIiEENS0_20OctreeContainerEmptyIiEENS0_14Octree2BufBaseIiS4_S6_EEE13getKeyBitSizeEv@Base 1.6
 (optional=templinst)_ZN3pcl6octree16OctreePointCloudINS_9PointXYZLENS0_26OctreeContainerDataTVectorIiEENS0_20OctreeContainerEmptyIiEENS0_14Octree2BufBaseIiS4_S6_EEE13setInputCloudERKN5boost10shared_ptrIKNS_10PointCloudIS2_EEEERKNSB_IKSt6vectorIiSaIiEEEE@Base 1.6
 (optional=templinst)_ZN3pcl6octree16OctreePointCloudINS_9PointXYZLENS0_26OctreeContainerDataTVectorIiEENS0_20OctreeContainerEmptyIiEENS0_14Octree2BufBaseIiS4_S6_EEE13setResolutionEd@Base 1.6
 (optional=templinst)_ZN3pcl6octree16OctreePointCloudINS_9PointXYZLENS0_26OctreeContainerDataTVectorIiEENS0_20OctreeContainerEmptyIiEENS0_14Octree2BufBaseIiS4_S6_EEE14getVoxelBoundsERNS0_18OctreeIteratorBaseIiS8_EERN5Eigen6MatrixIfLi3ELi1ELi0ELi3ELi1EEESG_@Base 1.6
 (optional=templinst)_ZN3pcl6octree16OctreePointCloudINS_9PointXYZLENS0_26OctreeContainerDataTVectorIiEENS0_20OctreeContainerEmptyIiEENS0_14Octree2BufBaseIiS4_S6_EEE15addPointToCloudERKS2_N5boost10shared_ptrINS_10PointCloudIS2_EEEE@Base 1.6
 (optional=templinst)_ZN3pcl6octree16OctreePointCloudINS_9PointXYZLENS0_26OctreeContainerDataTVectorIiEENS0_20OctreeContainerEmptyIiEENS0_14Octree2BufBaseIiS4_S6_EEE15addPointToCloudERKS2_N5boost10shared_ptrINS_10PointCloudIS2_EEEENSD_ISt6vectorIiSaIiEEEE@Base 1.6
 (optional=templinst)_ZN3pcl6octree16OctreePointCloudINS_9PointXYZLENS0_26OctreeContainerDataTVectorIiEENS0_20OctreeContainerEmptyIiEENS0_14Octree2BufBaseIiS4_S6_EEE17addPointFromCloudEiN5boost10shared_ptrISt6vectorIiSaIiEEEE@Base 1.6
 (optional=templinst)_ZN3pcl6octree16OctreePointCloudINS_9PointXYZLENS0_26OctreeContainerDataTVectorIiEENS0_20OctreeContainerEmptyIiEENS0_14Octree2BufBaseIiS4_S6_EEE17defineBoundingBoxEd@Base 1.6
 (optional=templinst)_ZN3pcl6octree16OctreePointCloudINS_9PointXYZLENS0_26OctreeContainerDataTVectorIiEENS0_20OctreeContainerEmptyIiEENS0_14Octree2BufBaseIiS4_S6_EEE17defineBoundingBoxEddd@Base 1.6
 (optional=templinst)_ZN3pcl6octree16OctreePointCloudINS_9PointXYZLENS0_26OctreeContainerDataTVectorIiEENS0_20OctreeContainerEmptyIiEENS0_14Octree2BufBaseIiS4_S6_EEE17defineBoundingBoxEdddddd@Base 1.6
 (optional=templinst)_ZN3pcl6octree16OctreePointCloudINS_9PointXYZLENS0_26OctreeContainerDataTVectorIiEENS0_20OctreeContainerEmptyIiEENS0_14Octree2BufBaseIiS4_S6_EEE17defineBoundingBoxEv@Base 1.6
 (optional=templinst)_ZN3pcl6octree16OctreePointCloudINS_9PointXYZLENS0_26OctreeContainerDataTVectorIiEENS0_20OctreeContainerEmptyIiEENS0_14Octree2BufBaseIiS4_S6_EEE18deleteVoxelAtPointERKS2_@Base 1.6
 (optional=templinst)_ZN3pcl6octree16OctreePointCloudINS_9PointXYZLENS0_26OctreeContainerDataTVectorIiEENS0_20OctreeContainerEmptyIiEENS0_14Octree2BufBaseIiS4_S6_EEE18deleteVoxelAtPointERKi@Base 1.6
 (optional=templinst)_ZN3pcl6octree16OctreePointCloudINS_9PointXYZLENS0_26OctreeContainerDataTVectorIiEENS0_20OctreeContainerEmptyIiEENS0_14Octree2BufBaseIiS4_S6_EEE23addPointsFromInputCloudEv@Base 1.6
 (optional=templinst)_ZN3pcl6octree16OctreePointCloudINS_9PointXYZLENS0_26OctreeContainerDataTVectorIiEENS0_20OctreeContainerEmptyIiEENS0_14Octree2BufBaseIiS4_S6_EEE23adoptBoundingBoxToPointERKS2_@Base 1.6
 (optional=templinst)_ZN3pcl6octree16OctreePointCloudINS_9PointXYZLENS0_26OctreeContainerDataTVectorIiEENS0_20OctreeContainerEmptyIiEENS0_14Octree2BufBaseIiS4_S6_EEE41getApproxIntersectedVoxelCentersBySegmentERKN5Eigen6MatrixIfLi3ELi1ELi0ELi3ELi1EEESE_RSt6vectorIS2_NSA_17aligned_allocatorIS2_EEEf@Base 1.6
 (optional=templinst)_ZN3pcl6octree16OctreePointCloudINS_9PointXYZLENS0_26OctreeContainerDataTVectorIiEENS0_20OctreeContainerEmptyIiEENS0_14Octree2BufBaseIiS4_S6_EEEC1Ed@Base 1.6
 (optional=templinst)_ZN3pcl6octree16OctreePointCloudINS_9PointXYZLENS0_26OctreeContainerDataTVectorIiEENS0_20OctreeContainerEmptyIiEENS0_14Octree2BufBaseIiS4_S6_EEEC2Ed@Base 1.6
 (optional=templinst)_ZN3pcl6octree16OctreePointCloudINS_9PointXYZLENS0_26OctreeContainerDataTVectorIiEENS0_20OctreeContainerEmptyIiEENS0_14Octree2BufBaseIiS4_S6_EEED0Ev@Base 1.6
 (optional=templinst)_ZN3pcl6octree16OctreePointCloudINS_9PointXYZLENS0_26OctreeContainerDataTVectorIiEENS0_20OctreeContainerEmptyIiEENS0_14Octree2BufBaseIiS4_S6_EEED1Ev@Base 1.6
 (optional=templinst)_ZN3pcl6octree16OctreePointCloudINS_9PointXYZLENS0_26OctreeContainerDataTVectorIiEENS0_20OctreeContainerEmptyIiEENS0_14Octree2BufBaseIiS4_S6_EEED2Ev@Base 1.6
 (optional=templinst)_ZN3pcl6octree18BufferedBranchNodeINS0_20OctreeContainerEmptyIiEEED0Ev@Base 1.6
 (optional=templinst)_ZN3pcl6octree18BufferedBranchNodeINS0_20OctreeContainerEmptyIiEEED1Ev@Base 1.6
 (optional=templinst)_ZN3pcl6octree18BufferedBranchNodeINS0_20OctreeContainerEmptyIiEEED2Ev@Base 1.6
 (optional=templinst)_ZN3pcl6octree20OctreeContainerDataTIiED0Ev@Base 1.6
 (optional=templinst)_ZN3pcl6octree20OctreeContainerDataTIiED1Ev@Base 1.6
 (optional=templinst)_ZN3pcl6octree20OctreeContainerDataTIiED2Ev@Base 1.6
 (optional=templinst)_ZN3pcl6octree20OctreeContainerEmptyIiED0Ev@Base 1.6
 (optional=templinst)_ZN3pcl6octree20OctreeContainerEmptyIiED1Ev@Base 1.6
 (optional=templinst)_ZN3pcl6octree20OctreeContainerEmptyIiED2Ev@Base 1.6
 (optional=templinst)_ZN3pcl6octree22OctreePointCloudSearchINS_11PointNormalENS0_26OctreeContainerDataTVectorIiEENS0_20OctreeContainerEmptyIiEEE11voxelSearchERKS2_RSt6vectorIiSaIiEE@Base 1.6
 (optional=templinst)_ZN3pcl6octree22OctreePointCloudSearchINS_11PointNormalENS0_26OctreeContainerDataTVectorIiEENS0_20OctreeContainerEmptyIiEEE11voxelSearchEiRSt6vectorIiSaIiEE@Base 1.6
 (optional=templinst)_ZN3pcl6octree22OctreePointCloudSearchINS_11PointNormalENS0_26OctreeContainerDataTVectorIiEENS0_20OctreeContainerEmptyIiEEE12radiusSearchERKNS_10PointCloudIS2_EEidRSt6vectorIiSaIiEERSC_IfSaIfEEj@Base 1.6
 (optional=templinst)_ZN3pcl6octree22OctreePointCloudSearchINS_11PointNormalENS0_26OctreeContainerDataTVectorIiEENS0_20OctreeContainerEmptyIiEEE14nearestKSearchERKNS_10PointCloudIS2_EEiiRSt6vectorIiSaIiEERSC_IfSaIfEE@Base 1.6
 (optional=templinst)_ZN3pcl6octree22OctreePointCloudSearchINS_11PointNormalENS0_26OctreeContainerDataTVectorIiEENS0_20OctreeContainerEmptyIiEEE14nearestKSearchERKS2_iRSt6vectorIiSaIiEERSA_IfSaIfEE@Base 1.6
 (optional=templinst)_ZN3pcl6octree22OctreePointCloudSearchINS_11PointNormalENS0_26OctreeContainerDataTVectorIiEENS0_20OctreeContainerEmptyIiEEE14nearestKSearchEiiRSt6vectorIiSaIiEERS8_IfSaIfEE@Base 1.6
 (optional=templinst)_ZN3pcl6octree22OctreePointCloudSearchINS_11PointNormalENS0_26OctreeContainerDataTVectorIiEENS0_20OctreeContainerEmptyIiEEE19approxNearestSearchERKNS_10PointCloudIS2_EEiRiRf@Base 1.6
 (optional=templinst)_ZN3pcl6octree22OctreePointCloudSearchINS_11PointNormalENS0_26OctreeContainerDataTVectorIiEENS0_20OctreeContainerEmptyIiEEE19approxNearestSearchERKS2_RiRf@Base 1.6
 (optional=templinst)_ZN3pcl6octree22OctreePointCloudSearchINS_11PointNormalENS0_26OctreeContainerDataTVectorIiEENS0_20OctreeContainerEmptyIiEEE19approxNearestSearchEiRiRf@Base 1.6
 (optional=templinst)_ZN3pcl6octree22OctreePointCloudSearchINS_11PointNormalENS0_26OctreeContainerDataTVectorIiEENS0_20OctreeContainerEmptyIiEEE19prioPointQueueEntryC1ERjf@Base 1.6
 (optional=templinst)_ZN3pcl6octree22OctreePointCloudSearchINS_11PointNormalENS0_26OctreeContainerDataTVectorIiEENS0_20OctreeContainerEmptyIiEEE19prioPointQueueEntryC1Ev@Base 1.6
 (optional=templinst)_ZN3pcl6octree22OctreePointCloudSearchINS_11PointNormalENS0_26OctreeContainerDataTVectorIiEENS0_20OctreeContainerEmptyIiEEE19prioPointQueueEntryC2ERjf@Base 1.6
 (optional=templinst)_ZN3pcl6octree22OctreePointCloudSearchINS_11PointNormalENS0_26OctreeContainerDataTVectorIiEENS0_20OctreeContainerEmptyIiEEE19prioPointQueueEntryC2Ev@Base 1.6
 (optional=templinst)_ZN3pcl6octree22OctreePointCloudSearchINS_11PointNormalENS0_26OctreeContainerDataTVectorIiEENS0_20OctreeContainerEmptyIiEEE20prioBranchQueueEntryC1EPNS0_10OctreeNodeERNS0_9OctreeKeyEf@Base 1.6
 (optional=templinst)_ZN3pcl6octree22OctreePointCloudSearchINS_11PointNormalENS0_26OctreeContainerDataTVectorIiEENS0_20OctreeContainerEmptyIiEEE20prioBranchQueueEntryC1Ev@Base 1.6
 (optional=templinst)_ZN3pcl6octree22OctreePointCloudSearchINS_11PointNormalENS0_26OctreeContainerDataTVectorIiEENS0_20OctreeContainerEmptyIiEEE20prioBranchQueueEntryC2EPNS0_10OctreeNodeERNS0_9OctreeKeyEf@Base 1.6
 (optional=templinst)_ZN3pcl6octree22OctreePointCloudSearchINS_11PointNormalENS0_26OctreeContainerDataTVectorIiEENS0_20OctreeContainerEmptyIiEEE20prioBranchQueueEntryC2Ev@Base 1.6
 (optional=templinst)_ZN3pcl6octree22OctreePointCloudSearchINS_11PointNormalENS0_26OctreeContainerDataTVectorIiEENS0_20OctreeContainerEmptyIiEEE28approxNearestSearchRecursiveERKS2_PKNS0_16OctreeBranchNodeIS6_EERKNS0_9OctreeKeyEjRiRf@Base 1.6
 (optional=templinst)_ZN3pcl6octree22OctreePointCloudSearchINS_11PointNormalENS0_26OctreeContainerDataTVectorIiEENS0_20OctreeContainerEmptyIiEEEC1Ed@Base 1.6
 (optional=templinst)_ZN3pcl6octree22OctreePointCloudSearchINS_11PointNormalENS0_26OctreeContainerDataTVectorIiEENS0_20OctreeContainerEmptyIiEEEC2Ed@Base 1.6
 (optional=templinst)_ZN3pcl6octree22OctreePointCloudSearchINS_11PointNormalENS0_26OctreeContainerDataTVectorIiEENS0_20OctreeContainerEmptyIiEEED0Ev@Base 1.6
 (optional=templinst)_ZN3pcl6octree22OctreePointCloudSearchINS_11PointNormalENS0_26OctreeContainerDataTVectorIiEENS0_20OctreeContainerEmptyIiEEED1Ev@Base 1.6
 (optional=templinst)_ZN3pcl6octree22OctreePointCloudSearchINS_11PointNormalENS0_26OctreeContainerDataTVectorIiEENS0_20OctreeContainerEmptyIiEEED2Ev@Base 1.6
 (optional=templinst)_ZN3pcl6octree22OctreePointCloudSearchINS_11PointXYZHSVENS0_26OctreeContainerDataTVectorIiEENS0_20OctreeContainerEmptyIiEEE11voxelSearchERKS2_RSt6vectorIiSaIiEE@Base 1.6
 (optional=templinst)_ZN3pcl6octree22OctreePointCloudSearchINS_11PointXYZHSVENS0_26OctreeContainerDataTVectorIiEENS0_20OctreeContainerEmptyIiEEE11voxelSearchEiRSt6vectorIiSaIiEE@Base 1.6
 (optional=templinst)_ZN3pcl6octree22OctreePointCloudSearchINS_11PointXYZHSVENS0_26OctreeContainerDataTVectorIiEENS0_20OctreeContainerEmptyIiEEE12radiusSearchERKNS_10PointCloudIS2_EEidRSt6vectorIiSaIiEERSC_IfSaIfEEj@Base 1.6
 (optional=templinst)_ZN3pcl6octree22OctreePointCloudSearchINS_11PointXYZHSVENS0_26OctreeContainerDataTVectorIiEENS0_20OctreeContainerEmptyIiEEE14nearestKSearchERKNS_10PointCloudIS2_EEiiRSt6vectorIiSaIiEERSC_IfSaIfEE@Base 1.6
 (optional=templinst)_ZN3pcl6octree22OctreePointCloudSearchINS_11PointXYZHSVENS0_26OctreeContainerDataTVectorIiEENS0_20OctreeContainerEmptyIiEEE14nearestKSearchERKS2_iRSt6vectorIiSaIiEERSA_IfSaIfEE@Base 1.6
 (optional=templinst)_ZN3pcl6octree22OctreePointCloudSearchINS_11PointXYZHSVENS0_26OctreeContainerDataTVectorIiEENS0_20OctreeContainerEmptyIiEEE14nearestKSearchEiiRSt6vectorIiSaIiEERS8_IfSaIfEE@Base 1.6
 (optional=templinst)_ZN3pcl6octree22OctreePointCloudSearchINS_11PointXYZHSVENS0_26OctreeContainerDataTVectorIiEENS0_20OctreeContainerEmptyIiEEE19approxNearestSearchERKNS_10PointCloudIS2_EEiRiRf@Base 1.6
 (optional=templinst)_ZN3pcl6octree22OctreePointCloudSearchINS_11PointXYZHSVENS0_26OctreeContainerDataTVectorIiEENS0_20OctreeContainerEmptyIiEEE19approxNearestSearchERKS2_RiRf@Base 1.6
 (optional=templinst)_ZN3pcl6octree22OctreePointCloudSearchINS_11PointXYZHSVENS0_26OctreeContainerDataTVectorIiEENS0_20OctreeContainerEmptyIiEEE19approxNearestSearchEiRiRf@Base 1.6
 (optional=templinst)_ZN3pcl6octree22OctreePointCloudSearchINS_11PointXYZHSVENS0_26OctreeContainerDataTVectorIiEENS0_20OctreeContainerEmptyIiEEE19prioPointQueueEntryC1ERjf@Base 1.6
 (optional=templinst)_ZN3pcl6octree22OctreePointCloudSearchINS_11PointXYZHSVENS0_26OctreeContainerDataTVectorIiEENS0_20OctreeContainerEmptyIiEEE19prioPointQueueEntryC1Ev@Base 1.6
 (optional=templinst)_ZN3pcl6octree22OctreePointCloudSearchINS_11PointXYZHSVENS0_26OctreeContainerDataTVectorIiEENS0_20OctreeContainerEmptyIiEEE19prioPointQueueEntryC2ERjf@Base 1.6
 (optional=templinst)_ZN3pcl6octree22OctreePointCloudSearchINS_11PointXYZHSVENS0_26OctreeContainerDataTVectorIiEENS0_20OctreeContainerEmptyIiEEE19prioPointQueueEntryC2Ev@Base 1.6
 (optional=templinst)_ZN3pcl6octree22OctreePointCloudSearchINS_11PointXYZHSVENS0_26OctreeContainerDataTVectorIiEENS0_20OctreeContainerEmptyIiEEE20prioBranchQueueEntryC1EPNS0_10OctreeNodeERNS0_9OctreeKeyEf@Base 1.6
 (optional=templinst)_ZN3pcl6octree22OctreePointCloudSearchINS_11PointXYZHSVENS0_26OctreeContainerDataTVectorIiEENS0_20OctreeContainerEmptyIiEEE20prioBranchQueueEntryC1Ev@Base 1.6
 (optional=templinst)_ZN3pcl6octree22OctreePointCloudSearchINS_11PointXYZHSVENS0_26OctreeContainerDataTVectorIiEENS0_20OctreeContainerEmptyIiEEE20prioBranchQueueEntryC2EPNS0_10OctreeNodeERNS0_9OctreeKeyEf@Base 1.6
 (optional=templinst)_ZN3pcl6octree22OctreePointCloudSearchINS_11PointXYZHSVENS0_26OctreeContainerDataTVectorIiEENS0_20OctreeContainerEmptyIiEEE20prioBranchQueueEntryC2Ev@Base 1.6
 (optional=templinst)_ZN3pcl6octree22OctreePointCloudSearchINS_11PointXYZHSVENS0_26OctreeContainerDataTVectorIiEENS0_20OctreeContainerEmptyIiEEE28approxNearestSearchRecursiveERKS2_PKNS0_16OctreeBranchNodeIS6_EERKNS0_9OctreeKeyEjRiRf@Base 1.6
 (optional=templinst)_ZN3pcl6octree22OctreePointCloudSearchINS_11PointXYZHSVENS0_26OctreeContainerDataTVectorIiEENS0_20OctreeContainerEmptyIiEEEC1Ed@Base 1.6
 (optional=templinst)_ZN3pcl6octree22OctreePointCloudSearchINS_11PointXYZHSVENS0_26OctreeContainerDataTVectorIiEENS0_20OctreeContainerEmptyIiEEEC2Ed@Base 1.6
 (optional=templinst)_ZN3pcl6octree22OctreePointCloudSearchINS_11PointXYZHSVENS0_26OctreeContainerDataTVectorIiEENS0_20OctreeContainerEmptyIiEEED0Ev@Base 1.6
 (optional=templinst)_ZN3pcl6octree22OctreePointCloudSearchINS_11PointXYZHSVENS0_26OctreeContainerDataTVectorIiEENS0_20OctreeContainerEmptyIiEEED1Ev@Base 1.6
 (optional=templinst)_ZN3pcl6octree22OctreePointCloudSearchINS_11PointXYZHSVENS0_26OctreeContainerDataTVectorIiEENS0_20OctreeContainerEmptyIiEEED2Ev@Base 1.6
 (optional=templinst)_ZN3pcl6octree22OctreePointCloudSearchINS_11PointXYZRGBENS0_26OctreeContainerDataTVectorIiEENS0_20OctreeContainerEmptyIiEEE11voxelSearchERKS2_RSt6vectorIiSaIiEE@Base 1.6
 (optional=templinst)_ZN3pcl6octree22OctreePointCloudSearchINS_11PointXYZRGBENS0_26OctreeContainerDataTVectorIiEENS0_20OctreeContainerEmptyIiEEE11voxelSearchEiRSt6vectorIiSaIiEE@Base 1.6
 (optional=templinst)_ZN3pcl6octree22OctreePointCloudSearchINS_11PointXYZRGBENS0_26OctreeContainerDataTVectorIiEENS0_20OctreeContainerEmptyIiEEE12radiusSearchERKNS_10PointCloudIS2_EEidRSt6vectorIiSaIiEERSC_IfSaIfEEj@Base 1.6
 (optional=templinst)_ZN3pcl6octree22OctreePointCloudSearchINS_11PointXYZRGBENS0_26OctreeContainerDataTVectorIiEENS0_20OctreeContainerEmptyIiEEE14nearestKSearchERKNS_10PointCloudIS2_EEiiRSt6vectorIiSaIiEERSC_IfSaIfEE@Base 1.6
 (optional=templinst)_ZN3pcl6octree22OctreePointCloudSearchINS_11PointXYZRGBENS0_26OctreeContainerDataTVectorIiEENS0_20OctreeContainerEmptyIiEEE14nearestKSearchERKS2_iRSt6vectorIiSaIiEERSA_IfSaIfEE@Base 1.6
 (optional=templinst)_ZN3pcl6octree22OctreePointCloudSearchINS_11PointXYZRGBENS0_26OctreeContainerDataTVectorIiEENS0_20OctreeContainerEmptyIiEEE14nearestKSearchEiiRSt6vectorIiSaIiEERS8_IfSaIfEE@Base 1.6
 (optional=templinst)_ZN3pcl6octree22OctreePointCloudSearchINS_11PointXYZRGBENS0_26OctreeContainerDataTVectorIiEENS0_20OctreeContainerEmptyIiEEE19approxNearestSearchERKNS_10PointCloudIS2_EEiRiRf@Base 1.6
 (optional=templinst)_ZN3pcl6octree22OctreePointCloudSearchINS_11PointXYZRGBENS0_26OctreeContainerDataTVectorIiEENS0_20OctreeContainerEmptyIiEEE19approxNearestSearchERKS2_RiRf@Base 1.6
 (optional=templinst)_ZN3pcl6octree22OctreePointCloudSearchINS_11PointXYZRGBENS0_26OctreeContainerDataTVectorIiEENS0_20OctreeContainerEmptyIiEEE19approxNearestSearchEiRiRf@Base 1.6
 (optional=templinst)_ZN3pcl6octree22OctreePointCloudSearchINS_11PointXYZRGBENS0_26OctreeContainerDataTVectorIiEENS0_20OctreeContainerEmptyIiEEE19prioPointQueueEntryC1ERjf@Base 1.6
 (optional=templinst)_ZN3pcl6octree22OctreePointCloudSearchINS_11PointXYZRGBENS0_26OctreeContainerDataTVectorIiEENS0_20OctreeContainerEmptyIiEEE19prioPointQueueEntryC1Ev@Base 1.6
 (optional=templinst)_ZN3pcl6octree22OctreePointCloudSearchINS_11PointXYZRGBENS0_26OctreeContainerDataTVectorIiEENS0_20OctreeContainerEmptyIiEEE19prioPointQueueEntryC2ERjf@Base 1.6
 (optional=templinst)_ZN3pcl6octree22OctreePointCloudSearchINS_11PointXYZRGBENS0_26OctreeContainerDataTVectorIiEENS0_20OctreeContainerEmptyIiEEE19prioPointQueueEntryC2Ev@Base 1.6
 (optional=templinst)_ZN3pcl6octree22OctreePointCloudSearchINS_11PointXYZRGBENS0_26OctreeContainerDataTVectorIiEENS0_20OctreeContainerEmptyIiEEE20prioBranchQueueEntryC1EPNS0_10OctreeNodeERNS0_9OctreeKeyEf@Base 1.6
 (optional=templinst)_ZN3pcl6octree22OctreePointCloudSearchINS_11PointXYZRGBENS0_26OctreeContainerDataTVectorIiEENS0_20OctreeContainerEmptyIiEEE20prioBranchQueueEntryC1Ev@Base 1.6
 (optional=templinst)_ZN3pcl6octree22OctreePointCloudSearchINS_11PointXYZRGBENS0_26OctreeContainerDataTVectorIiEENS0_20OctreeContainerEmptyIiEEE20prioBranchQueueEntryC2EPNS0_10OctreeNodeERNS0_9OctreeKeyEf@Base 1.6
 (optional=templinst)_ZN3pcl6octree22OctreePointCloudSearchINS_11PointXYZRGBENS0_26OctreeContainerDataTVectorIiEENS0_20OctreeContainerEmptyIiEEE20prioBranchQueueEntryC2Ev@Base 1.6
 (optional=templinst)_ZN3pcl6octree22OctreePointCloudSearchINS_11PointXYZRGBENS0_26OctreeContainerDataTVectorIiEENS0_20OctreeContainerEmptyIiEEE28approxNearestSearchRecursiveERKS2_PKNS0_16OctreeBranchNodeIS6_EERKNS0_9OctreeKeyEjRiRf@Base 1.6
 (optional=templinst)_ZN3pcl6octree22OctreePointCloudSearchINS_11PointXYZRGBENS0_26OctreeContainerDataTVectorIiEENS0_20OctreeContainerEmptyIiEEEC1Ed@Base 1.6
 (optional=templinst)_ZN3pcl6octree22OctreePointCloudSearchINS_11PointXYZRGBENS0_26OctreeContainerDataTVectorIiEENS0_20OctreeContainerEmptyIiEEEC2Ed@Base 1.6
 (optional=templinst)_ZN3pcl6octree22OctreePointCloudSearchINS_11PointXYZRGBENS0_26OctreeContainerDataTVectorIiEENS0_20OctreeContainerEmptyIiEEED0Ev@Base 1.6
 (optional=templinst)_ZN3pcl6octree22OctreePointCloudSearchINS_11PointXYZRGBENS0_26OctreeContainerDataTVectorIiEENS0_20OctreeContainerEmptyIiEEED1Ev@Base 1.6
 (optional=templinst)_ZN3pcl6octree22OctreePointCloudSearchINS_11PointXYZRGBENS0_26OctreeContainerDataTVectorIiEENS0_20OctreeContainerEmptyIiEEED2Ev@Base 1.6
 (optional=templinst)_ZN3pcl6octree22OctreePointCloudSearchINS_12PointXYZRGBAENS0_26OctreeContainerDataTVectorIiEENS0_20OctreeContainerEmptyIiEEE11voxelSearchERKS2_RSt6vectorIiSaIiEE@Base 1.6
 (optional=templinst)_ZN3pcl6octree22OctreePointCloudSearchINS_12PointXYZRGBAENS0_26OctreeContainerDataTVectorIiEENS0_20OctreeContainerEmptyIiEEE11voxelSearchEiRSt6vectorIiSaIiEE@Base 1.6
 (optional=templinst)_ZN3pcl6octree22OctreePointCloudSearchINS_12PointXYZRGBAENS0_26OctreeContainerDataTVectorIiEENS0_20OctreeContainerEmptyIiEEE12radiusSearchERKNS_10PointCloudIS2_EEidRSt6vectorIiSaIiEERSC_IfSaIfEEj@Base 1.6
 (optional=templinst)_ZN3pcl6octree22OctreePointCloudSearchINS_12PointXYZRGBAENS0_26OctreeContainerDataTVectorIiEENS0_20OctreeContainerEmptyIiEEE14nearestKSearchERKNS_10PointCloudIS2_EEiiRSt6vectorIiSaIiEERSC_IfSaIfEE@Base 1.6
 (optional=templinst)_ZN3pcl6octree22OctreePointCloudSearchINS_12PointXYZRGBAENS0_26OctreeContainerDataTVectorIiEENS0_20OctreeContainerEmptyIiEEE14nearestKSearchERKS2_iRSt6vectorIiSaIiEERSA_IfSaIfEE@Base 1.6
 (optional=templinst)_ZN3pcl6octree22OctreePointCloudSearchINS_12PointXYZRGBAENS0_26OctreeContainerDataTVectorIiEENS0_20OctreeContainerEmptyIiEEE14nearestKSearchEiiRSt6vectorIiSaIiEERS8_IfSaIfEE@Base 1.6
 (optional=templinst)_ZN3pcl6octree22OctreePointCloudSearchINS_12PointXYZRGBAENS0_26OctreeContainerDataTVectorIiEENS0_20OctreeContainerEmptyIiEEE19approxNearestSearchERKNS_10PointCloudIS2_EEiRiRf@Base 1.6
 (optional=templinst)_ZN3pcl6octree22OctreePointCloudSearchINS_12PointXYZRGBAENS0_26OctreeContainerDataTVectorIiEENS0_20OctreeContainerEmptyIiEEE19approxNearestSearchERKS2_RiRf@Base 1.6
 (optional=templinst)_ZN3pcl6octree22OctreePointCloudSearchINS_12PointXYZRGBAENS0_26OctreeContainerDataTVectorIiEENS0_20OctreeContainerEmptyIiEEE19approxNearestSearchEiRiRf@Base 1.6
 (optional=templinst)_ZN3pcl6octree22OctreePointCloudSearchINS_12PointXYZRGBAENS0_26OctreeContainerDataTVectorIiEENS0_20OctreeContainerEmptyIiEEE19prioPointQueueEntryC1ERjf@Base 1.6
 (optional=templinst)_ZN3pcl6octree22OctreePointCloudSearchINS_12PointXYZRGBAENS0_26OctreeContainerDataTVectorIiEENS0_20OctreeContainerEmptyIiEEE19prioPointQueueEntryC1Ev@Base 1.6
 (optional=templinst)_ZN3pcl6octree22OctreePointCloudSearchINS_12PointXYZRGBAENS0_26OctreeContainerDataTVectorIiEENS0_20OctreeContainerEmptyIiEEE19prioPointQueueEntryC2ERjf@Base 1.6
 (optional=templinst)_ZN3pcl6octree22OctreePointCloudSearchINS_12PointXYZRGBAENS0_26OctreeContainerDataTVectorIiEENS0_20OctreeContainerEmptyIiEEE19prioPointQueueEntryC2Ev@Base 1.6
 (optional=templinst)_ZN3pcl6octree22OctreePointCloudSearchINS_12PointXYZRGBAENS0_26OctreeContainerDataTVectorIiEENS0_20OctreeContainerEmptyIiEEE20prioBranchQueueEntryC1EPNS0_10OctreeNodeERNS0_9OctreeKeyEf@Base 1.6
 (optional=templinst)_ZN3pcl6octree22OctreePointCloudSearchINS_12PointXYZRGBAENS0_26OctreeContainerDataTVectorIiEENS0_20OctreeContainerEmptyIiEEE20prioBranchQueueEntryC1Ev@Base 1.6
 (optional=templinst)_ZN3pcl6octree22OctreePointCloudSearchINS_12PointXYZRGBAENS0_26OctreeContainerDataTVectorIiEENS0_20OctreeContainerEmptyIiEEE20prioBranchQueueEntryC2EPNS0_10OctreeNodeERNS0_9OctreeKeyEf@Base 1.6
 (optional=templinst)_ZN3pcl6octree22OctreePointCloudSearchINS_12PointXYZRGBAENS0_26OctreeContainerDataTVectorIiEENS0_20OctreeContainerEmptyIiEEE20prioBranchQueueEntryC2Ev@Base 1.6
 (optional=templinst)_ZN3pcl6octree22OctreePointCloudSearchINS_12PointXYZRGBAENS0_26OctreeContainerDataTVectorIiEENS0_20OctreeContainerEmptyIiEEE28approxNearestSearchRecursiveERKS2_PKNS0_16OctreeBranchNodeIS6_EERKNS0_9OctreeKeyEjRiRf@Base 1.6
 (optional=templinst)_ZN3pcl6octree22OctreePointCloudSearchINS_12PointXYZRGBAENS0_26OctreeContainerDataTVectorIiEENS0_20OctreeContainerEmptyIiEEEC1Ed@Base 1.6
 (optional=templinst)_ZN3pcl6octree22OctreePointCloudSearchINS_12PointXYZRGBAENS0_26OctreeContainerDataTVectorIiEENS0_20OctreeContainerEmptyIiEEEC2Ed@Base 1.6
 (optional=templinst)_ZN3pcl6octree22OctreePointCloudSearchINS_12PointXYZRGBAENS0_26OctreeContainerDataTVectorIiEENS0_20OctreeContainerEmptyIiEEED0Ev@Base 1.6
 (optional=templinst)_ZN3pcl6octree22OctreePointCloudSearchINS_12PointXYZRGBAENS0_26OctreeContainerDataTVectorIiEENS0_20OctreeContainerEmptyIiEEED1Ev@Base 1.6
 (optional=templinst)_ZN3pcl6octree22OctreePointCloudSearchINS_12PointXYZRGBAENS0_26OctreeContainerDataTVectorIiEENS0_20OctreeContainerEmptyIiEEED2Ev@Base 1.6
 (optional=templinst)_ZN3pcl6octree22OctreePointCloudSearchINS_12PointXYZRGBLENS0_26OctreeContainerDataTVectorIiEENS0_20OctreeContainerEmptyIiEEE11voxelSearchERKS2_RSt6vectorIiSaIiEE@Base 1.6
 (optional=templinst)_ZN3pcl6octree22OctreePointCloudSearchINS_12PointXYZRGBLENS0_26OctreeContainerDataTVectorIiEENS0_20OctreeContainerEmptyIiEEE11voxelSearchEiRSt6vectorIiSaIiEE@Base 1.6
 (optional=templinst)_ZN3pcl6octree22OctreePointCloudSearchINS_12PointXYZRGBLENS0_26OctreeContainerDataTVectorIiEENS0_20OctreeContainerEmptyIiEEE12radiusSearchERKNS_10PointCloudIS2_EEidRSt6vectorIiSaIiEERSC_IfSaIfEEj@Base 1.6
 (optional=templinst)_ZN3pcl6octree22OctreePointCloudSearchINS_12PointXYZRGBLENS0_26OctreeContainerDataTVectorIiEENS0_20OctreeContainerEmptyIiEEE14nearestKSearchERKNS_10PointCloudIS2_EEiiRSt6vectorIiSaIiEERSC_IfSaIfEE@Base 1.6
 (optional=templinst)_ZN3pcl6octree22OctreePointCloudSearchINS_12PointXYZRGBLENS0_26OctreeContainerDataTVectorIiEENS0_20OctreeContainerEmptyIiEEE14nearestKSearchERKS2_iRSt6vectorIiSaIiEERSA_IfSaIfEE@Base 1.6
 (optional=templinst)_ZN3pcl6octree22OctreePointCloudSearchINS_12PointXYZRGBLENS0_26OctreeContainerDataTVectorIiEENS0_20OctreeContainerEmptyIiEEE14nearestKSearchEiiRSt6vectorIiSaIiEERS8_IfSaIfEE@Base 1.6
 (optional=templinst)_ZN3pcl6octree22OctreePointCloudSearchINS_12PointXYZRGBLENS0_26OctreeContainerDataTVectorIiEENS0_20OctreeContainerEmptyIiEEE19approxNearestSearchERKNS_10PointCloudIS2_EEiRiRf@Base 1.6
 (optional=templinst)_ZN3pcl6octree22OctreePointCloudSearchINS_12PointXYZRGBLENS0_26OctreeContainerDataTVectorIiEENS0_20OctreeContainerEmptyIiEEE19approxNearestSearchERKS2_RiRf@Base 1.6
 (optional=templinst)_ZN3pcl6octree22OctreePointCloudSearchINS_12PointXYZRGBLENS0_26OctreeContainerDataTVectorIiEENS0_20OctreeContainerEmptyIiEEE19approxNearestSearchEiRiRf@Base 1.6
 (optional=templinst)_ZN3pcl6octree22OctreePointCloudSearchINS_12PointXYZRGBLENS0_26OctreeContainerDataTVectorIiEENS0_20OctreeContainerEmptyIiEEE19prioPointQueueEntryC1ERjf@Base 1.6
 (optional=templinst)_ZN3pcl6octree22OctreePointCloudSearchINS_12PointXYZRGBLENS0_26OctreeContainerDataTVectorIiEENS0_20OctreeContainerEmptyIiEEE19prioPointQueueEntryC1Ev@Base 1.6
 (optional=templinst)_ZN3pcl6octree22OctreePointCloudSearchINS_12PointXYZRGBLENS0_26OctreeContainerDataTVectorIiEENS0_20OctreeContainerEmptyIiEEE19prioPointQueueEntryC2ERjf@Base 1.6
 (optional=templinst)_ZN3pcl6octree22OctreePointCloudSearchINS_12PointXYZRGBLENS0_26OctreeContainerDataTVectorIiEENS0_20OctreeContainerEmptyIiEEE19prioPointQueueEntryC2Ev@Base 1.6
 (optional=templinst)_ZN3pcl6octree22OctreePointCloudSearchINS_12PointXYZRGBLENS0_26OctreeContainerDataTVectorIiEENS0_20OctreeContainerEmptyIiEEE20prioBranchQueueEntryC1EPNS0_10OctreeNodeERNS0_9OctreeKeyEf@Base 1.6
 (optional=templinst)_ZN3pcl6octree22OctreePointCloudSearchINS_12PointXYZRGBLENS0_26OctreeContainerDataTVectorIiEENS0_20OctreeContainerEmptyIiEEE20prioBranchQueueEntryC1Ev@Base 1.6
 (optional=templinst)_ZN3pcl6octree22OctreePointCloudSearchINS_12PointXYZRGBLENS0_26OctreeContainerDataTVectorIiEENS0_20OctreeContainerEmptyIiEEE20prioBranchQueueEntryC2EPNS0_10OctreeNodeERNS0_9OctreeKeyEf@Base 1.6
 (optional=templinst)_ZN3pcl6octree22OctreePointCloudSearchINS_12PointXYZRGBLENS0_26OctreeContainerDataTVectorIiEENS0_20OctreeContainerEmptyIiEEE20prioBranchQueueEntryC2Ev@Base 1.6
 (optional=templinst)_ZN3pcl6octree22OctreePointCloudSearchINS_12PointXYZRGBLENS0_26OctreeContainerDataTVectorIiEENS0_20OctreeContainerEmptyIiEEE28approxNearestSearchRecursiveERKS2_PKNS0_16OctreeBranchNodeIS6_EERKNS0_9OctreeKeyEjRiRf@Base 1.6
 (optional=templinst)_ZN3pcl6octree22OctreePointCloudSearchINS_12PointXYZRGBLENS0_26OctreeContainerDataTVectorIiEENS0_20OctreeContainerEmptyIiEEEC1Ed@Base 1.6
 (optional=templinst)_ZN3pcl6octree22OctreePointCloudSearchINS_12PointXYZRGBLENS0_26OctreeContainerDataTVectorIiEENS0_20OctreeContainerEmptyIiEEEC2Ed@Base 1.6
 (optional=templinst)_ZN3pcl6octree22OctreePointCloudSearchINS_12PointXYZRGBLENS0_26OctreeContainerDataTVectorIiEENS0_20OctreeContainerEmptyIiEEED0Ev@Base 1.6
 (optional=templinst)_ZN3pcl6octree22OctreePointCloudSearchINS_12PointXYZRGBLENS0_26OctreeContainerDataTVectorIiEENS0_20OctreeContainerEmptyIiEEED1Ev@Base 1.6
 (optional=templinst)_ZN3pcl6octree22OctreePointCloudSearchINS_12PointXYZRGBLENS0_26OctreeContainerDataTVectorIiEENS0_20OctreeContainerEmptyIiEEED2Ev@Base 1.6
 (optional=templinst)_ZN3pcl6octree22OctreePointCloudSearchINS_13InterestPointENS0_26OctreeContainerDataTVectorIiEENS0_20OctreeContainerEmptyIiEEE11voxelSearchERKS2_RSt6vectorIiSaIiEE@Base 1.6
 (optional=templinst)_ZN3pcl6octree22OctreePointCloudSearchINS_13InterestPointENS0_26OctreeContainerDataTVectorIiEENS0_20OctreeContainerEmptyIiEEE11voxelSearchEiRSt6vectorIiSaIiEE@Base 1.6
 (optional=templinst)_ZN3pcl6octree22OctreePointCloudSearchINS_13InterestPointENS0_26OctreeContainerDataTVectorIiEENS0_20OctreeContainerEmptyIiEEE12radiusSearchERKNS_10PointCloudIS2_EEidRSt6vectorIiSaIiEERSC_IfSaIfEEj@Base 1.6
 (optional=templinst)_ZN3pcl6octree22OctreePointCloudSearchINS_13InterestPointENS0_26OctreeContainerDataTVectorIiEENS0_20OctreeContainerEmptyIiEEE14nearestKSearchERKNS_10PointCloudIS2_EEiiRSt6vectorIiSaIiEERSC_IfSaIfEE@Base 1.6
 (optional=templinst)_ZN3pcl6octree22OctreePointCloudSearchINS_13InterestPointENS0_26OctreeContainerDataTVectorIiEENS0_20OctreeContainerEmptyIiEEE14nearestKSearchERKS2_iRSt6vectorIiSaIiEERSA_IfSaIfEE@Base 1.6
 (optional=templinst)_ZN3pcl6octree22OctreePointCloudSearchINS_13InterestPointENS0_26OctreeContainerDataTVectorIiEENS0_20OctreeContainerEmptyIiEEE14nearestKSearchEiiRSt6vectorIiSaIiEERS8_IfSaIfEE@Base 1.6
 (optional=templinst)_ZN3pcl6octree22OctreePointCloudSearchINS_13InterestPointENS0_26OctreeContainerDataTVectorIiEENS0_20OctreeContainerEmptyIiEEE19approxNearestSearchERKNS_10PointCloudIS2_EEiRiRf@Base 1.6
 (optional=templinst)_ZN3pcl6octree22OctreePointCloudSearchINS_13InterestPointENS0_26OctreeContainerDataTVectorIiEENS0_20OctreeContainerEmptyIiEEE19approxNearestSearchERKS2_RiRf@Base 1.6
 (optional=templinst)_ZN3pcl6octree22OctreePointCloudSearchINS_13InterestPointENS0_26OctreeContainerDataTVectorIiEENS0_20OctreeContainerEmptyIiEEE19approxNearestSearchEiRiRf@Base 1.6
 (optional=templinst)_ZN3pcl6octree22OctreePointCloudSearchINS_13InterestPointENS0_26OctreeContainerDataTVectorIiEENS0_20OctreeContainerEmptyIiEEE19prioPointQueueEntryC1ERjf@Base 1.6
 (optional=templinst)_ZN3pcl6octree22OctreePointCloudSearchINS_13InterestPointENS0_26OctreeContainerDataTVectorIiEENS0_20OctreeContainerEmptyIiEEE19prioPointQueueEntryC1Ev@Base 1.6
 (optional=templinst)_ZN3pcl6octree22OctreePointCloudSearchINS_13InterestPointENS0_26OctreeContainerDataTVectorIiEENS0_20OctreeContainerEmptyIiEEE19prioPointQueueEntryC2ERjf@Base 1.6
 (optional=templinst)_ZN3pcl6octree22OctreePointCloudSearchINS_13InterestPointENS0_26OctreeContainerDataTVectorIiEENS0_20OctreeContainerEmptyIiEEE19prioPointQueueEntryC2Ev@Base 1.6
 (optional=templinst)_ZN3pcl6octree22OctreePointCloudSearchINS_13InterestPointENS0_26OctreeContainerDataTVectorIiEENS0_20OctreeContainerEmptyIiEEE20prioBranchQueueEntryC1EPNS0_10OctreeNodeERNS0_9OctreeKeyEf@Base 1.6
 (optional=templinst)_ZN3pcl6octree22OctreePointCloudSearchINS_13InterestPointENS0_26OctreeContainerDataTVectorIiEENS0_20OctreeContainerEmptyIiEEE20prioBranchQueueEntryC1Ev@Base 1.6
 (optional=templinst)_ZN3pcl6octree22OctreePointCloudSearchINS_13InterestPointENS0_26OctreeContainerDataTVectorIiEENS0_20OctreeContainerEmptyIiEEE20prioBranchQueueEntryC2EPNS0_10OctreeNodeERNS0_9OctreeKeyEf@Base 1.6
 (optional=templinst)_ZN3pcl6octree22OctreePointCloudSearchINS_13InterestPointENS0_26OctreeContainerDataTVectorIiEENS0_20OctreeContainerEmptyIiEEE20prioBranchQueueEntryC2Ev@Base 1.6
 (optional=templinst)_ZN3pcl6octree22OctreePointCloudSearchINS_13InterestPointENS0_26OctreeContainerDataTVectorIiEENS0_20OctreeContainerEmptyIiEEE28approxNearestSearchRecursiveERKS2_PKNS0_16OctreeBranchNodeIS6_EERKNS0_9OctreeKeyEjRiRf@Base 1.6
 (optional=templinst)_ZN3pcl6octree22OctreePointCloudSearchINS_13InterestPointENS0_26OctreeContainerDataTVectorIiEENS0_20OctreeContainerEmptyIiEEEC1Ed@Base 1.6
 (optional=templinst)_ZN3pcl6octree22OctreePointCloudSearchINS_13InterestPointENS0_26OctreeContainerDataTVectorIiEENS0_20OctreeContainerEmptyIiEEEC2Ed@Base 1.6
 (optional=templinst)_ZN3pcl6octree22OctreePointCloudSearchINS_13InterestPointENS0_26OctreeContainerDataTVectorIiEENS0_20OctreeContainerEmptyIiEEED0Ev@Base 1.6
 (optional=templinst)_ZN3pcl6octree22OctreePointCloudSearchINS_13InterestPointENS0_26OctreeContainerDataTVectorIiEENS0_20OctreeContainerEmptyIiEEED1Ev@Base 1.6
 (optional=templinst)_ZN3pcl6octree22OctreePointCloudSearchINS_13InterestPointENS0_26OctreeContainerDataTVectorIiEENS0_20OctreeContainerEmptyIiEEED2Ev@Base 1.6
 (optional=templinst)_ZN3pcl6octree22OctreePointCloudSearchINS_14PointWithRangeENS0_26OctreeContainerDataTVectorIiEENS0_20OctreeContainerEmptyIiEEE11voxelSearchERKS2_RSt6vectorIiSaIiEE@Base 1.6
 (optional=templinst)_ZN3pcl6octree22OctreePointCloudSearchINS_14PointWithRangeENS0_26OctreeContainerDataTVectorIiEENS0_20OctreeContainerEmptyIiEEE11voxelSearchEiRSt6vectorIiSaIiEE@Base 1.6
 (optional=templinst)_ZN3pcl6octree22OctreePointCloudSearchINS_14PointWithRangeENS0_26OctreeContainerDataTVectorIiEENS0_20OctreeContainerEmptyIiEEE12radiusSearchERKNS_10PointCloudIS2_EEidRSt6vectorIiSaIiEERSC_IfSaIfEEj@Base 1.6
 (optional=templinst)_ZN3pcl6octree22OctreePointCloudSearchINS_14PointWithRangeENS0_26OctreeContainerDataTVectorIiEENS0_20OctreeContainerEmptyIiEEE14nearestKSearchERKNS_10PointCloudIS2_EEiiRSt6vectorIiSaIiEERSC_IfSaIfEE@Base 1.6
 (optional=templinst)_ZN3pcl6octree22OctreePointCloudSearchINS_14PointWithRangeENS0_26OctreeContainerDataTVectorIiEENS0_20OctreeContainerEmptyIiEEE14nearestKSearchERKS2_iRSt6vectorIiSaIiEERSA_IfSaIfEE@Base 1.6
 (optional=templinst)_ZN3pcl6octree22OctreePointCloudSearchINS_14PointWithRangeENS0_26OctreeContainerDataTVectorIiEENS0_20OctreeContainerEmptyIiEEE14nearestKSearchEiiRSt6vectorIiSaIiEERS8_IfSaIfEE@Base 1.6
 (optional=templinst)_ZN3pcl6octree22OctreePointCloudSearchINS_14PointWithRangeENS0_26OctreeContainerDataTVectorIiEENS0_20OctreeContainerEmptyIiEEE19approxNearestSearchERKNS_10PointCloudIS2_EEiRiRf@Base 1.6
 (optional=templinst)_ZN3pcl6octree22OctreePointCloudSearchINS_14PointWithRangeENS0_26OctreeContainerDataTVectorIiEENS0_20OctreeContainerEmptyIiEEE19approxNearestSearchERKS2_RiRf@Base 1.6
 (optional=templinst)_ZN3pcl6octree22OctreePointCloudSearchINS_14PointWithRangeENS0_26OctreeContainerDataTVectorIiEENS0_20OctreeContainerEmptyIiEEE19approxNearestSearchEiRiRf@Base 1.6
 (optional=templinst)_ZN3pcl6octree22OctreePointCloudSearchINS_14PointWithRangeENS0_26OctreeContainerDataTVectorIiEENS0_20OctreeContainerEmptyIiEEE19prioPointQueueEntryC1ERjf@Base 1.6
 (optional=templinst)_ZN3pcl6octree22OctreePointCloudSearchINS_14PointWithRangeENS0_26OctreeContainerDataTVectorIiEENS0_20OctreeContainerEmptyIiEEE19prioPointQueueEntryC1Ev@Base 1.6
 (optional=templinst)_ZN3pcl6octree22OctreePointCloudSearchINS_14PointWithRangeENS0_26OctreeContainerDataTVectorIiEENS0_20OctreeContainerEmptyIiEEE19prioPointQueueEntryC2ERjf@Base 1.6
 (optional=templinst)_ZN3pcl6octree22OctreePointCloudSearchINS_14PointWithRangeENS0_26OctreeContainerDataTVectorIiEENS0_20OctreeContainerEmptyIiEEE19prioPointQueueEntryC2Ev@Base 1.6
 (optional=templinst)_ZN3pcl6octree22OctreePointCloudSearchINS_14PointWithRangeENS0_26OctreeContainerDataTVectorIiEENS0_20OctreeContainerEmptyIiEEE20prioBranchQueueEntryC1EPNS0_10OctreeNodeERNS0_9OctreeKeyEf@Base 1.6
 (optional=templinst)_ZN3pcl6octree22OctreePointCloudSearchINS_14PointWithRangeENS0_26OctreeContainerDataTVectorIiEENS0_20OctreeContainerEmptyIiEEE20prioBranchQueueEntryC1Ev@Base 1.6
 (optional=templinst)_ZN3pcl6octree22OctreePointCloudSearchINS_14PointWithRangeENS0_26OctreeContainerDataTVectorIiEENS0_20OctreeContainerEmptyIiEEE20prioBranchQueueEntryC2EPNS0_10OctreeNodeERNS0_9OctreeKeyEf@Base 1.6
 (optional=templinst)_ZN3pcl6octree22OctreePointCloudSearchINS_14PointWithRangeENS0_26OctreeContainerDataTVectorIiEENS0_20OctreeContainerEmptyIiEEE20prioBranchQueueEntryC2Ev@Base 1.6
 (optional=templinst)_ZN3pcl6octree22OctreePointCloudSearchINS_14PointWithRangeENS0_26OctreeContainerDataTVectorIiEENS0_20OctreeContainerEmptyIiEEE28approxNearestSearchRecursiveERKS2_PKNS0_16OctreeBranchNodeIS6_EERKNS0_9OctreeKeyEjRiRf@Base 1.6
 (optional=templinst)_ZN3pcl6octree22OctreePointCloudSearchINS_14PointWithRangeENS0_26OctreeContainerDataTVectorIiEENS0_20OctreeContainerEmptyIiEEEC1Ed@Base 1.6
 (optional=templinst)_ZN3pcl6octree22OctreePointCloudSearchINS_14PointWithRangeENS0_26OctreeContainerDataTVectorIiEENS0_20OctreeContainerEmptyIiEEEC2Ed@Base 1.6
 (optional=templinst)_ZN3pcl6octree22OctreePointCloudSearchINS_14PointWithRangeENS0_26OctreeContainerDataTVectorIiEENS0_20OctreeContainerEmptyIiEEED0Ev@Base 1.6
 (optional=templinst)_ZN3pcl6octree22OctreePointCloudSearchINS_14PointWithRangeENS0_26OctreeContainerDataTVectorIiEENS0_20OctreeContainerEmptyIiEEED1Ev@Base 1.6
 (optional=templinst)_ZN3pcl6octree22OctreePointCloudSearchINS_14PointWithRangeENS0_26OctreeContainerDataTVectorIiEENS0_20OctreeContainerEmptyIiEEED2Ev@Base 1.6
 (optional=templinst)_ZN3pcl6octree22OctreePointCloudSearchINS_14PointWithScaleENS0_26OctreeContainerDataTVectorIiEENS0_20OctreeContainerEmptyIiEEE11voxelSearchERKS2_RSt6vectorIiSaIiEE@Base 1.6
 (optional=templinst)_ZN3pcl6octree22OctreePointCloudSearchINS_14PointWithScaleENS0_26OctreeContainerDataTVectorIiEENS0_20OctreeContainerEmptyIiEEE11voxelSearchEiRSt6vectorIiSaIiEE@Base 1.6
 (optional=templinst)_ZN3pcl6octree22OctreePointCloudSearchINS_14PointWithScaleENS0_26OctreeContainerDataTVectorIiEENS0_20OctreeContainerEmptyIiEEE12radiusSearchERKNS_10PointCloudIS2_EEidRSt6vectorIiSaIiEERSC_IfSaIfEEj@Base 1.6
 (optional=templinst)_ZN3pcl6octree22OctreePointCloudSearchINS_14PointWithScaleENS0_26OctreeContainerDataTVectorIiEENS0_20OctreeContainerEmptyIiEEE14nearestKSearchERKNS_10PointCloudIS2_EEiiRSt6vectorIiSaIiEERSC_IfSaIfEE@Base 1.6
 (optional=templinst)_ZN3pcl6octree22OctreePointCloudSearchINS_14PointWithScaleENS0_26OctreeContainerDataTVectorIiEENS0_20OctreeContainerEmptyIiEEE14nearestKSearchERKS2_iRSt6vectorIiSaIiEERSA_IfSaIfEE@Base 1.6
 (optional=templinst)_ZN3pcl6octree22OctreePointCloudSearchINS_14PointWithScaleENS0_26OctreeContainerDataTVectorIiEENS0_20OctreeContainerEmptyIiEEE14nearestKSearchEiiRSt6vectorIiSaIiEERS8_IfSaIfEE@Base 1.6
 (optional=templinst)_ZN3pcl6octree22OctreePointCloudSearchINS_14PointWithScaleENS0_26OctreeContainerDataTVectorIiEENS0_20OctreeContainerEmptyIiEEE19approxNearestSearchERKNS_10PointCloudIS2_EEiRiRf@Base 1.6
 (optional=templinst)_ZN3pcl6octree22OctreePointCloudSearchINS_14PointWithScaleENS0_26OctreeContainerDataTVectorIiEENS0_20OctreeContainerEmptyIiEEE19approxNearestSearchERKS2_RiRf@Base 1.6
 (optional=templinst)_ZN3pcl6octree22OctreePointCloudSearchINS_14PointWithScaleENS0_26OctreeContainerDataTVectorIiEENS0_20OctreeContainerEmptyIiEEE19approxNearestSearchEiRiRf@Base 1.6
 (optional=templinst)_ZN3pcl6octree22OctreePointCloudSearchINS_14PointWithScaleENS0_26OctreeContainerDataTVectorIiEENS0_20OctreeContainerEmptyIiEEE19prioPointQueueEntryC1ERjf@Base 1.6
 (optional=templinst)_ZN3pcl6octree22OctreePointCloudSearchINS_14PointWithScaleENS0_26OctreeContainerDataTVectorIiEENS0_20OctreeContainerEmptyIiEEE19prioPointQueueEntryC1Ev@Base 1.6
 (optional=templinst)_ZN3pcl6octree22OctreePointCloudSearchINS_14PointWithScaleENS0_26OctreeContainerDataTVectorIiEENS0_20OctreeContainerEmptyIiEEE19prioPointQueueEntryC2ERjf@Base 1.6
 (optional=templinst)_ZN3pcl6octree22OctreePointCloudSearchINS_14PointWithScaleENS0_26OctreeContainerDataTVectorIiEENS0_20OctreeContainerEmptyIiEEE19prioPointQueueEntryC2Ev@Base 1.6
 (optional=templinst)_ZN3pcl6octree22OctreePointCloudSearchINS_14PointWithScaleENS0_26OctreeContainerDataTVectorIiEENS0_20OctreeContainerEmptyIiEEE20prioBranchQueueEntryC1EPNS0_10OctreeNodeERNS0_9OctreeKeyEf@Base 1.6
 (optional=templinst)_ZN3pcl6octree22OctreePointCloudSearchINS_14PointWithScaleENS0_26OctreeContainerDataTVectorIiEENS0_20OctreeContainerEmptyIiEEE20prioBranchQueueEntryC1Ev@Base 1.6
 (optional=templinst)_ZN3pcl6octree22OctreePointCloudSearchINS_14PointWithScaleENS0_26OctreeContainerDataTVectorIiEENS0_20OctreeContainerEmptyIiEEE20prioBranchQueueEntryC2EPNS0_10OctreeNodeERNS0_9OctreeKeyEf@Base 1.6
 (optional=templinst)_ZN3pcl6octree22OctreePointCloudSearchINS_14PointWithScaleENS0_26OctreeContainerDataTVectorIiEENS0_20OctreeContainerEmptyIiEEE20prioBranchQueueEntryC2Ev@Base 1.6
 (optional=templinst)_ZN3pcl6octree22OctreePointCloudSearchINS_14PointWithScaleENS0_26OctreeContainerDataTVectorIiEENS0_20OctreeContainerEmptyIiEEE28approxNearestSearchRecursiveERKS2_PKNS0_16OctreeBranchNodeIS6_EERKNS0_9OctreeKeyEjRiRf@Base 1.6
 (optional=templinst)_ZN3pcl6octree22OctreePointCloudSearchINS_14PointWithScaleENS0_26OctreeContainerDataTVectorIiEENS0_20OctreeContainerEmptyIiEEEC1Ed@Base 1.6
 (optional=templinst)_ZN3pcl6octree22OctreePointCloudSearchINS_14PointWithScaleENS0_26OctreeContainerDataTVectorIiEENS0_20OctreeContainerEmptyIiEEEC2Ed@Base 1.6
 (optional=templinst)_ZN3pcl6octree22OctreePointCloudSearchINS_14PointWithScaleENS0_26OctreeContainerDataTVectorIiEENS0_20OctreeContainerEmptyIiEEED0Ev@Base 1.6
 (optional=templinst)_ZN3pcl6octree22OctreePointCloudSearchINS_14PointWithScaleENS0_26OctreeContainerDataTVectorIiEENS0_20OctreeContainerEmptyIiEEED1Ev@Base 1.6
 (optional=templinst)_ZN3pcl6octree22OctreePointCloudSearchINS_14PointWithScaleENS0_26OctreeContainerDataTVectorIiEENS0_20OctreeContainerEmptyIiEEED2Ev@Base 1.6
 (optional=templinst)_ZN3pcl6octree22OctreePointCloudSearchINS_15PointXYZINormalENS0_26OctreeContainerDataTVectorIiEENS0_20OctreeContainerEmptyIiEEE11voxelSearchERKS2_RSt6vectorIiSaIiEE@Base 1.6
 (optional=templinst)_ZN3pcl6octree22OctreePointCloudSearchINS_15PointXYZINormalENS0_26OctreeContainerDataTVectorIiEENS0_20OctreeContainerEmptyIiEEE11voxelSearchEiRSt6vectorIiSaIiEE@Base 1.6
 (optional=templinst)_ZN3pcl6octree22OctreePointCloudSearchINS_15PointXYZINormalENS0_26OctreeContainerDataTVectorIiEENS0_20OctreeContainerEmptyIiEEE12radiusSearchERKNS_10PointCloudIS2_EEidRSt6vectorIiSaIiEERSC_IfSaIfEEj@Base 1.6
 (optional=templinst)_ZN3pcl6octree22OctreePointCloudSearchINS_15PointXYZINormalENS0_26OctreeContainerDataTVectorIiEENS0_20OctreeContainerEmptyIiEEE14nearestKSearchERKNS_10PointCloudIS2_EEiiRSt6vectorIiSaIiEERSC_IfSaIfEE@Base 1.6
 (optional=templinst)_ZN3pcl6octree22OctreePointCloudSearchINS_15PointXYZINormalENS0_26OctreeContainerDataTVectorIiEENS0_20OctreeContainerEmptyIiEEE14nearestKSearchERKS2_iRSt6vectorIiSaIiEERSA_IfSaIfEE@Base 1.6
 (optional=templinst)_ZN3pcl6octree22OctreePointCloudSearchINS_15PointXYZINormalENS0_26OctreeContainerDataTVectorIiEENS0_20OctreeContainerEmptyIiEEE14nearestKSearchEiiRSt6vectorIiSaIiEERS8_IfSaIfEE@Base 1.6
 (optional=templinst)_ZN3pcl6octree22OctreePointCloudSearchINS_15PointXYZINormalENS0_26OctreeContainerDataTVectorIiEENS0_20OctreeContainerEmptyIiEEE19approxNearestSearchERKNS_10PointCloudIS2_EEiRiRf@Base 1.6
 (optional=templinst)_ZN3pcl6octree22OctreePointCloudSearchINS_15PointXYZINormalENS0_26OctreeContainerDataTVectorIiEENS0_20OctreeContainerEmptyIiEEE19approxNearestSearchERKS2_RiRf@Base 1.6
 (optional=templinst)_ZN3pcl6octree22OctreePointCloudSearchINS_15PointXYZINormalENS0_26OctreeContainerDataTVectorIiEENS0_20OctreeContainerEmptyIiEEE19approxNearestSearchEiRiRf@Base 1.6
 (optional=templinst)_ZN3pcl6octree22OctreePointCloudSearchINS_15PointXYZINormalENS0_26OctreeContainerDataTVectorIiEENS0_20OctreeContainerEmptyIiEEE19prioPointQueueEntryC1ERjf@Base 1.6
 (optional=templinst)_ZN3pcl6octree22OctreePointCloudSearchINS_15PointXYZINormalENS0_26OctreeContainerDataTVectorIiEENS0_20OctreeContainerEmptyIiEEE19prioPointQueueEntryC1Ev@Base 1.6
 (optional=templinst)_ZN3pcl6octree22OctreePointCloudSearchINS_15PointXYZINormalENS0_26OctreeContainerDataTVectorIiEENS0_20OctreeContainerEmptyIiEEE19prioPointQueueEntryC2ERjf@Base 1.6
 (optional=templinst)_ZN3pcl6octree22OctreePointCloudSearchINS_15PointXYZINormalENS0_26OctreeContainerDataTVectorIiEENS0_20OctreeContainerEmptyIiEEE19prioPointQueueEntryC2Ev@Base 1.6
 (optional=templinst)_ZN3pcl6octree22OctreePointCloudSearchINS_15PointXYZINormalENS0_26OctreeContainerDataTVectorIiEENS0_20OctreeContainerEmptyIiEEE20prioBranchQueueEntryC1EPNS0_10OctreeNodeERNS0_9OctreeKeyEf@Base 1.6
 (optional=templinst)_ZN3pcl6octree22OctreePointCloudSearchINS_15PointXYZINormalENS0_26OctreeContainerDataTVectorIiEENS0_20OctreeContainerEmptyIiEEE20prioBranchQueueEntryC1Ev@Base 1.6
 (optional=templinst)_ZN3pcl6octree22OctreePointCloudSearchINS_15PointXYZINormalENS0_26OctreeContainerDataTVectorIiEENS0_20OctreeContainerEmptyIiEEE20prioBranchQueueEntryC2EPNS0_10OctreeNodeERNS0_9OctreeKeyEf@Base 1.6
 (optional=templinst)_ZN3pcl6octree22OctreePointCloudSearchINS_15PointXYZINormalENS0_26OctreeContainerDataTVectorIiEENS0_20OctreeContainerEmptyIiEEE20prioBranchQueueEntryC2Ev@Base 1.6
 (optional=templinst)_ZN3pcl6octree22OctreePointCloudSearchINS_15PointXYZINormalENS0_26OctreeContainerDataTVectorIiEENS0_20OctreeContainerEmptyIiEEE28approxNearestSearchRecursiveERKS2_PKNS0_16OctreeBranchNodeIS6_EERKNS0_9OctreeKeyEjRiRf@Base 1.6
 (optional=templinst)_ZN3pcl6octree22OctreePointCloudSearchINS_15PointXYZINormalENS0_26OctreeContainerDataTVectorIiEENS0_20OctreeContainerEmptyIiEEEC1Ed@Base 1.6
 (optional=templinst)_ZN3pcl6octree22OctreePointCloudSearchINS_15PointXYZINormalENS0_26OctreeContainerDataTVectorIiEENS0_20OctreeContainerEmptyIiEEEC2Ed@Base 1.6
 (optional=templinst)_ZN3pcl6octree22OctreePointCloudSearchINS_15PointXYZINormalENS0_26OctreeContainerDataTVectorIiEENS0_20OctreeContainerEmptyIiEEED0Ev@Base 1.6
 (optional=templinst)_ZN3pcl6octree22OctreePointCloudSearchINS_15PointXYZINormalENS0_26OctreeContainerDataTVectorIiEENS0_20OctreeContainerEmptyIiEEED1Ev@Base 1.6
 (optional=templinst)_ZN3pcl6octree22OctreePointCloudSearchINS_15PointXYZINormalENS0_26OctreeContainerDataTVectorIiEENS0_20OctreeContainerEmptyIiEEED2Ev@Base 1.6
 (optional=templinst)_ZN3pcl6octree22OctreePointCloudSearchINS_17PointXYZRGBNormalENS0_26OctreeContainerDataTVectorIiEENS0_20OctreeContainerEmptyIiEEE11voxelSearchERKS2_RSt6vectorIiSaIiEE@Base 1.6
 (optional=templinst)_ZN3pcl6octree22OctreePointCloudSearchINS_17PointXYZRGBNormalENS0_26OctreeContainerDataTVectorIiEENS0_20OctreeContainerEmptyIiEEE11voxelSearchEiRSt6vectorIiSaIiEE@Base 1.6
 (optional=templinst)_ZN3pcl6octree22OctreePointCloudSearchINS_17PointXYZRGBNormalENS0_26OctreeContainerDataTVectorIiEENS0_20OctreeContainerEmptyIiEEE12radiusSearchERKNS_10PointCloudIS2_EEidRSt6vectorIiSaIiEERSC_IfSaIfEEj@Base 1.6
 (optional=templinst)_ZN3pcl6octree22OctreePointCloudSearchINS_17PointXYZRGBNormalENS0_26OctreeContainerDataTVectorIiEENS0_20OctreeContainerEmptyIiEEE14nearestKSearchERKNS_10PointCloudIS2_EEiiRSt6vectorIiSaIiEERSC_IfSaIfEE@Base 1.6
 (optional=templinst)_ZN3pcl6octree22OctreePointCloudSearchINS_17PointXYZRGBNormalENS0_26OctreeContainerDataTVectorIiEENS0_20OctreeContainerEmptyIiEEE14nearestKSearchERKS2_iRSt6vectorIiSaIiEERSA_IfSaIfEE@Base 1.6
 (optional=templinst)_ZN3pcl6octree22OctreePointCloudSearchINS_17PointXYZRGBNormalENS0_26OctreeContainerDataTVectorIiEENS0_20OctreeContainerEmptyIiEEE14nearestKSearchEiiRSt6vectorIiSaIiEERS8_IfSaIfEE@Base 1.6
 (optional=templinst)_ZN3pcl6octree22OctreePointCloudSearchINS_17PointXYZRGBNormalENS0_26OctreeContainerDataTVectorIiEENS0_20OctreeContainerEmptyIiEEE19approxNearestSearchERKNS_10PointCloudIS2_EEiRiRf@Base 1.6
 (optional=templinst)_ZN3pcl6octree22OctreePointCloudSearchINS_17PointXYZRGBNormalENS0_26OctreeContainerDataTVectorIiEENS0_20OctreeContainerEmptyIiEEE19approxNearestSearchERKS2_RiRf@Base 1.6
 (optional=templinst)_ZN3pcl6octree22OctreePointCloudSearchINS_17PointXYZRGBNormalENS0_26OctreeContainerDataTVectorIiEENS0_20OctreeContainerEmptyIiEEE19approxNearestSearchEiRiRf@Base 1.6
 (optional=templinst)_ZN3pcl6octree22OctreePointCloudSearchINS_17PointXYZRGBNormalENS0_26OctreeContainerDataTVectorIiEENS0_20OctreeContainerEmptyIiEEE19prioPointQueueEntryC1ERjf@Base 1.6
 (optional=templinst)_ZN3pcl6octree22OctreePointCloudSearchINS_17PointXYZRGBNormalENS0_26OctreeContainerDataTVectorIiEENS0_20OctreeContainerEmptyIiEEE19prioPointQueueEntryC1Ev@Base 1.6
 (optional=templinst)_ZN3pcl6octree22OctreePointCloudSearchINS_17PointXYZRGBNormalENS0_26OctreeContainerDataTVectorIiEENS0_20OctreeContainerEmptyIiEEE19prioPointQueueEntryC2ERjf@Base 1.6
 (optional=templinst)_ZN3pcl6octree22OctreePointCloudSearchINS_17PointXYZRGBNormalENS0_26OctreeContainerDataTVectorIiEENS0_20OctreeContainerEmptyIiEEE19prioPointQueueEntryC2Ev@Base 1.6
 (optional=templinst)_ZN3pcl6octree22OctreePointCloudSearchINS_17PointXYZRGBNormalENS0_26OctreeContainerDataTVectorIiEENS0_20OctreeContainerEmptyIiEEE20prioBranchQueueEntryC1EPNS0_10OctreeNodeERNS0_9OctreeKeyEf@Base 1.6
 (optional=templinst)_ZN3pcl6octree22OctreePointCloudSearchINS_17PointXYZRGBNormalENS0_26OctreeContainerDataTVectorIiEENS0_20OctreeContainerEmptyIiEEE20prioBranchQueueEntryC1Ev@Base 1.6
 (optional=templinst)_ZN3pcl6octree22OctreePointCloudSearchINS_17PointXYZRGBNormalENS0_26OctreeContainerDataTVectorIiEENS0_20OctreeContainerEmptyIiEEE20prioBranchQueueEntryC2EPNS0_10OctreeNodeERNS0_9OctreeKeyEf@Base 1.6
 (optional=templinst)_ZN3pcl6octree22OctreePointCloudSearchINS_17PointXYZRGBNormalENS0_26OctreeContainerDataTVectorIiEENS0_20OctreeContainerEmptyIiEEE20prioBranchQueueEntryC2Ev@Base 1.6
 (optional=templinst)_ZN3pcl6octree22OctreePointCloudSearchINS_17PointXYZRGBNormalENS0_26OctreeContainerDataTVectorIiEENS0_20OctreeContainerEmptyIiEEE28approxNearestSearchRecursiveERKS2_PKNS0_16OctreeBranchNodeIS6_EERKNS0_9OctreeKeyEjRiRf@Base 1.6
 (optional=templinst)_ZN3pcl6octree22OctreePointCloudSearchINS_17PointXYZRGBNormalENS0_26OctreeContainerDataTVectorIiEENS0_20OctreeContainerEmptyIiEEEC1Ed@Base 1.6
 (optional=templinst)_ZN3pcl6octree22OctreePointCloudSearchINS_17PointXYZRGBNormalENS0_26OctreeContainerDataTVectorIiEENS0_20OctreeContainerEmptyIiEEEC2Ed@Base 1.6
 (optional=templinst)_ZN3pcl6octree22OctreePointCloudSearchINS_17PointXYZRGBNormalENS0_26OctreeContainerDataTVectorIiEENS0_20OctreeContainerEmptyIiEEED0Ev@Base 1.6
 (optional=templinst)_ZN3pcl6octree22OctreePointCloudSearchINS_17PointXYZRGBNormalENS0_26OctreeContainerDataTVectorIiEENS0_20OctreeContainerEmptyIiEEED1Ev@Base 1.6
 (optional=templinst)_ZN3pcl6octree22OctreePointCloudSearchINS_17PointXYZRGBNormalENS0_26OctreeContainerDataTVectorIiEENS0_20OctreeContainerEmptyIiEEED2Ev@Base 1.6
 (optional=templinst)_ZN3pcl6octree22OctreePointCloudSearchINS_18PointWithViewpointENS0_26OctreeContainerDataTVectorIiEENS0_20OctreeContainerEmptyIiEEE11voxelSearchERKS2_RSt6vectorIiSaIiEE@Base 1.6
 (optional=templinst)_ZN3pcl6octree22OctreePointCloudSearchINS_18PointWithViewpointENS0_26OctreeContainerDataTVectorIiEENS0_20OctreeContainerEmptyIiEEE11voxelSearchEiRSt6vectorIiSaIiEE@Base 1.6
 (optional=templinst)_ZN3pcl6octree22OctreePointCloudSearchINS_18PointWithViewpointENS0_26OctreeContainerDataTVectorIiEENS0_20OctreeContainerEmptyIiEEE12radiusSearchERKNS_10PointCloudIS2_EEidRSt6vectorIiSaIiEERSC_IfSaIfEEj@Base 1.6
 (optional=templinst)_ZN3pcl6octree22OctreePointCloudSearchINS_18PointWithViewpointENS0_26OctreeContainerDataTVectorIiEENS0_20OctreeContainerEmptyIiEEE14nearestKSearchERKNS_10PointCloudIS2_EEiiRSt6vectorIiSaIiEERSC_IfSaIfEE@Base 1.6
 (optional=templinst)_ZN3pcl6octree22OctreePointCloudSearchINS_18PointWithViewpointENS0_26OctreeContainerDataTVectorIiEENS0_20OctreeContainerEmptyIiEEE14nearestKSearchERKS2_iRSt6vectorIiSaIiEERSA_IfSaIfEE@Base 1.6
 (optional=templinst)_ZN3pcl6octree22OctreePointCloudSearchINS_18PointWithViewpointENS0_26OctreeContainerDataTVectorIiEENS0_20OctreeContainerEmptyIiEEE14nearestKSearchEiiRSt6vectorIiSaIiEERS8_IfSaIfEE@Base 1.6
 (optional=templinst)_ZN3pcl6octree22OctreePointCloudSearchINS_18PointWithViewpointENS0_26OctreeContainerDataTVectorIiEENS0_20OctreeContainerEmptyIiEEE19approxNearestSearchERKNS_10PointCloudIS2_EEiRiRf@Base 1.6
 (optional=templinst)_ZN3pcl6octree22OctreePointCloudSearchINS_18PointWithViewpointENS0_26OctreeContainerDataTVectorIiEENS0_20OctreeContainerEmptyIiEEE19approxNearestSearchERKS2_RiRf@Base 1.6
 (optional=templinst)_ZN3pcl6octree22OctreePointCloudSearchINS_18PointWithViewpointENS0_26OctreeContainerDataTVectorIiEENS0_20OctreeContainerEmptyIiEEE19approxNearestSearchEiRiRf@Base 1.6
 (optional=templinst)_ZN3pcl6octree22OctreePointCloudSearchINS_18PointWithViewpointENS0_26OctreeContainerDataTVectorIiEENS0_20OctreeContainerEmptyIiEEE19prioPointQueueEntryC1ERjf@Base 1.6
 (optional=templinst)_ZN3pcl6octree22OctreePointCloudSearchINS_18PointWithViewpointENS0_26OctreeContainerDataTVectorIiEENS0_20OctreeContainerEmptyIiEEE19prioPointQueueEntryC1Ev@Base 1.6
 (optional=templinst)_ZN3pcl6octree22OctreePointCloudSearchINS_18PointWithViewpointENS0_26OctreeContainerDataTVectorIiEENS0_20OctreeContainerEmptyIiEEE19prioPointQueueEntryC2ERjf@Base 1.6
 (optional=templinst)_ZN3pcl6octree22OctreePointCloudSearchINS_18PointWithViewpointENS0_26OctreeContainerDataTVectorIiEENS0_20OctreeContainerEmptyIiEEE19prioPointQueueEntryC2Ev@Base 1.6
 (optional=templinst)_ZN3pcl6octree22OctreePointCloudSearchINS_18PointWithViewpointENS0_26OctreeContainerDataTVectorIiEENS0_20OctreeContainerEmptyIiEEE20prioBranchQueueEntryC1EPNS0_10OctreeNodeERNS0_9OctreeKeyEf@Base 1.6
 (optional=templinst)_ZN3pcl6octree22OctreePointCloudSearchINS_18PointWithViewpointENS0_26OctreeContainerDataTVectorIiEENS0_20OctreeContainerEmptyIiEEE20prioBranchQueueEntryC1Ev@Base 1.6
 (optional=templinst)_ZN3pcl6octree22OctreePointCloudSearchINS_18PointWithViewpointENS0_26OctreeContainerDataTVectorIiEENS0_20OctreeContainerEmptyIiEEE20prioBranchQueueEntryC2EPNS0_10OctreeNodeERNS0_9OctreeKeyEf@Base 1.6
 (optional=templinst)_ZN3pcl6octree22OctreePointCloudSearchINS_18PointWithViewpointENS0_26OctreeContainerDataTVectorIiEENS0_20OctreeContainerEmptyIiEEE20prioBranchQueueEntryC2Ev@Base 1.6
 (optional=templinst)_ZN3pcl6octree22OctreePointCloudSearchINS_18PointWithViewpointENS0_26OctreeContainerDataTVectorIiEENS0_20OctreeContainerEmptyIiEEE28approxNearestSearchRecursiveERKS2_PKNS0_16OctreeBranchNodeIS6_EERKNS0_9OctreeKeyEjRiRf@Base 1.6
 (optional=templinst)_ZN3pcl6octree22OctreePointCloudSearchINS_18PointWithViewpointENS0_26OctreeContainerDataTVectorIiEENS0_20OctreeContainerEmptyIiEEEC1Ed@Base 1.6
 (optional=templinst)_ZN3pcl6octree22OctreePointCloudSearchINS_18PointWithViewpointENS0_26OctreeContainerDataTVectorIiEENS0_20OctreeContainerEmptyIiEEEC2Ed@Base 1.6
 (optional=templinst)_ZN3pcl6octree22OctreePointCloudSearchINS_18PointWithViewpointENS0_26OctreeContainerDataTVectorIiEENS0_20OctreeContainerEmptyIiEEED0Ev@Base 1.6
 (optional=templinst)_ZN3pcl6octree22OctreePointCloudSearchINS_18PointWithViewpointENS0_26OctreeContainerDataTVectorIiEENS0_20OctreeContainerEmptyIiEEED1Ev@Base 1.6
 (optional=templinst)_ZN3pcl6octree22OctreePointCloudSearchINS_18PointWithViewpointENS0_26OctreeContainerDataTVectorIiEENS0_20OctreeContainerEmptyIiEEED2Ev@Base 1.6
 (optional=templinst)_ZN3pcl6octree22OctreePointCloudSearchINS_8PointXYZENS0_26OctreeContainerDataTVectorIiEENS0_20OctreeContainerEmptyIiEEE11voxelSearchERKS2_RSt6vectorIiSaIiEE@Base 1.6
 (optional=templinst)_ZN3pcl6octree22OctreePointCloudSearchINS_8PointXYZENS0_26OctreeContainerDataTVectorIiEENS0_20OctreeContainerEmptyIiEEE11voxelSearchEiRSt6vectorIiSaIiEE@Base 1.6
 (optional=templinst)_ZN3pcl6octree22OctreePointCloudSearchINS_8PointXYZENS0_26OctreeContainerDataTVectorIiEENS0_20OctreeContainerEmptyIiEEE12radiusSearchERKNS_10PointCloudIS2_EEidRSt6vectorIiSaIiEERSC_IfSaIfEEj@Base 1.6
 (optional=templinst)_ZN3pcl6octree22OctreePointCloudSearchINS_8PointXYZENS0_26OctreeContainerDataTVectorIiEENS0_20OctreeContainerEmptyIiEEE14nearestKSearchERKNS_10PointCloudIS2_EEiiRSt6vectorIiSaIiEERSC_IfSaIfEE@Base 1.6
 (optional=templinst)_ZN3pcl6octree22OctreePointCloudSearchINS_8PointXYZENS0_26OctreeContainerDataTVectorIiEENS0_20OctreeContainerEmptyIiEEE14nearestKSearchERKS2_iRSt6vectorIiSaIiEERSA_IfSaIfEE@Base 1.6
 (optional=templinst)_ZN3pcl6octree22OctreePointCloudSearchINS_8PointXYZENS0_26OctreeContainerDataTVectorIiEENS0_20OctreeContainerEmptyIiEEE14nearestKSearchEiiRSt6vectorIiSaIiEERS8_IfSaIfEE@Base 1.6
 (optional=templinst)_ZN3pcl6octree22OctreePointCloudSearchINS_8PointXYZENS0_26OctreeContainerDataTVectorIiEENS0_20OctreeContainerEmptyIiEEE19approxNearestSearchERKNS_10PointCloudIS2_EEiRiRf@Base 1.6
 (optional=templinst)_ZN3pcl6octree22OctreePointCloudSearchINS_8PointXYZENS0_26OctreeContainerDataTVectorIiEENS0_20OctreeContainerEmptyIiEEE19approxNearestSearchERKS2_RiRf@Base 1.6
 (optional=templinst)_ZN3pcl6octree22OctreePointCloudSearchINS_8PointXYZENS0_26OctreeContainerDataTVectorIiEENS0_20OctreeContainerEmptyIiEEE19approxNearestSearchEiRiRf@Base 1.6
 (optional=templinst)_ZN3pcl6octree22OctreePointCloudSearchINS_8PointXYZENS0_26OctreeContainerDataTVectorIiEENS0_20OctreeContainerEmptyIiEEE19prioPointQueueEntryC1ERjf@Base 1.6
 (optional=templinst)_ZN3pcl6octree22OctreePointCloudSearchINS_8PointXYZENS0_26OctreeContainerDataTVectorIiEENS0_20OctreeContainerEmptyIiEEE19prioPointQueueEntryC1Ev@Base 1.6
 (optional=templinst)_ZN3pcl6octree22OctreePointCloudSearchINS_8PointXYZENS0_26OctreeContainerDataTVectorIiEENS0_20OctreeContainerEmptyIiEEE19prioPointQueueEntryC2ERjf@Base 1.6
 (optional=templinst)_ZN3pcl6octree22OctreePointCloudSearchINS_8PointXYZENS0_26OctreeContainerDataTVectorIiEENS0_20OctreeContainerEmptyIiEEE19prioPointQueueEntryC2Ev@Base 1.6
 (optional=templinst)_ZN3pcl6octree22OctreePointCloudSearchINS_8PointXYZENS0_26OctreeContainerDataTVectorIiEENS0_20OctreeContainerEmptyIiEEE20prioBranchQueueEntryC1EPNS0_10OctreeNodeERNS0_9OctreeKeyEf@Base 1.6
 (optional=templinst)_ZN3pcl6octree22OctreePointCloudSearchINS_8PointXYZENS0_26OctreeContainerDataTVectorIiEENS0_20OctreeContainerEmptyIiEEE20prioBranchQueueEntryC1Ev@Base 1.6
 (optional=templinst)_ZN3pcl6octree22OctreePointCloudSearchINS_8PointXYZENS0_26OctreeContainerDataTVectorIiEENS0_20OctreeContainerEmptyIiEEE20prioBranchQueueEntryC2EPNS0_10OctreeNodeERNS0_9OctreeKeyEf@Base 1.6
 (optional=templinst)_ZN3pcl6octree22OctreePointCloudSearchINS_8PointXYZENS0_26OctreeContainerDataTVectorIiEENS0_20OctreeContainerEmptyIiEEE20prioBranchQueueEntryC2Ev@Base 1.6
 (optional=templinst)_ZN3pcl6octree22OctreePointCloudSearchINS_8PointXYZENS0_26OctreeContainerDataTVectorIiEENS0_20OctreeContainerEmptyIiEEE28approxNearestSearchRecursiveERKS2_PKNS0_16OctreeBranchNodeIS6_EERKNS0_9OctreeKeyEjRiRf@Base 1.6
 (optional=templinst)_ZN3pcl6octree22OctreePointCloudSearchINS_8PointXYZENS0_26OctreeContainerDataTVectorIiEENS0_20OctreeContainerEmptyIiEEEC1Ed@Base 1.6
 (optional=templinst)_ZN3pcl6octree22OctreePointCloudSearchINS_8PointXYZENS0_26OctreeContainerDataTVectorIiEENS0_20OctreeContainerEmptyIiEEEC2Ed@Base 1.6
 (optional=templinst)_ZN3pcl6octree22OctreePointCloudSearchINS_8PointXYZENS0_26OctreeContainerDataTVectorIiEENS0_20OctreeContainerEmptyIiEEED0Ev@Base 1.6
 (optional=templinst)_ZN3pcl6octree22OctreePointCloudSearchINS_8PointXYZENS0_26OctreeContainerDataTVectorIiEENS0_20OctreeContainerEmptyIiEEED1Ev@Base 1.6
 (optional=templinst)_ZN3pcl6octree22OctreePointCloudSearchINS_8PointXYZENS0_26OctreeContainerDataTVectorIiEENS0_20OctreeContainerEmptyIiEEED2Ev@Base 1.6
 (optional=templinst)_ZN3pcl6octree22OctreePointCloudSearchINS_9PointXYZIENS0_26OctreeContainerDataTVectorIiEENS0_20OctreeContainerEmptyIiEEE11voxelSearchERKS2_RSt6vectorIiSaIiEE@Base 1.6
 (optional=templinst)_ZN3pcl6octree22OctreePointCloudSearchINS_9PointXYZIENS0_26OctreeContainerDataTVectorIiEENS0_20OctreeContainerEmptyIiEEE11voxelSearchEiRSt6vectorIiSaIiEE@Base 1.6
 (optional=templinst)_ZN3pcl6octree22OctreePointCloudSearchINS_9PointXYZIENS0_26OctreeContainerDataTVectorIiEENS0_20OctreeContainerEmptyIiEEE12radiusSearchERKNS_10PointCloudIS2_EEidRSt6vectorIiSaIiEERSC_IfSaIfEEj@Base 1.6
 (optional=templinst)_ZN3pcl6octree22OctreePointCloudSearchINS_9PointXYZIENS0_26OctreeContainerDataTVectorIiEENS0_20OctreeContainerEmptyIiEEE14nearestKSearchERKNS_10PointCloudIS2_EEiiRSt6vectorIiSaIiEERSC_IfSaIfEE@Base 1.6
 (optional=templinst)_ZN3pcl6octree22OctreePointCloudSearchINS_9PointXYZIENS0_26OctreeContainerDataTVectorIiEENS0_20OctreeContainerEmptyIiEEE14nearestKSearchERKS2_iRSt6vectorIiSaIiEERSA_IfSaIfEE@Base 1.6
 (optional=templinst)_ZN3pcl6octree22OctreePointCloudSearchINS_9PointXYZIENS0_26OctreeContainerDataTVectorIiEENS0_20OctreeContainerEmptyIiEEE14nearestKSearchEiiRSt6vectorIiSaIiEERS8_IfSaIfEE@Base 1.6
 (optional=templinst)_ZN3pcl6octree22OctreePointCloudSearchINS_9PointXYZIENS0_26OctreeContainerDataTVectorIiEENS0_20OctreeContainerEmptyIiEEE19approxNearestSearchERKNS_10PointCloudIS2_EEiRiRf@Base 1.6
 (optional=templinst)_ZN3pcl6octree22OctreePointCloudSearchINS_9PointXYZIENS0_26OctreeContainerDataTVectorIiEENS0_20OctreeContainerEmptyIiEEE19approxNearestSearchERKS2_RiRf@Base 1.6
 (optional=templinst)_ZN3pcl6octree22OctreePointCloudSearchINS_9PointXYZIENS0_26OctreeContainerDataTVectorIiEENS0_20OctreeContainerEmptyIiEEE19approxNearestSearchEiRiRf@Base 1.6
 (optional=templinst)_ZN3pcl6octree22OctreePointCloudSearchINS_9PointXYZIENS0_26OctreeContainerDataTVectorIiEENS0_20OctreeContainerEmptyIiEEE19prioPointQueueEntryC1ERjf@Base 1.6
 (optional=templinst)_ZN3pcl6octree22OctreePointCloudSearchINS_9PointXYZIENS0_26OctreeContainerDataTVectorIiEENS0_20OctreeContainerEmptyIiEEE19prioPointQueueEntryC1Ev@Base 1.6
 (optional=templinst)_ZN3pcl6octree22OctreePointCloudSearchINS_9PointXYZIENS0_26OctreeContainerDataTVectorIiEENS0_20OctreeContainerEmptyIiEEE19prioPointQueueEntryC2ERjf@Base 1.6
 (optional=templinst)_ZN3pcl6octree22OctreePointCloudSearchINS_9PointXYZIENS0_26OctreeContainerDataTVectorIiEENS0_20OctreeContainerEmptyIiEEE19prioPointQueueEntryC2Ev@Base 1.6
 (optional=templinst)_ZN3pcl6octree22OctreePointCloudSearchINS_9PointXYZIENS0_26OctreeContainerDataTVectorIiEENS0_20OctreeContainerEmptyIiEEE20prioBranchQueueEntryC1EPNS0_10OctreeNodeERNS0_9OctreeKeyEf@Base 1.6
 (optional=templinst)_ZN3pcl6octree22OctreePointCloudSearchINS_9PointXYZIENS0_26OctreeContainerDataTVectorIiEENS0_20OctreeContainerEmptyIiEEE20prioBranchQueueEntryC1Ev@Base 1.6
 (optional=templinst)_ZN3pcl6octree22OctreePointCloudSearchINS_9PointXYZIENS0_26OctreeContainerDataTVectorIiEENS0_20OctreeContainerEmptyIiEEE20prioBranchQueueEntryC2EPNS0_10OctreeNodeERNS0_9OctreeKeyEf@Base 1.6
 (optional=templinst)_ZN3pcl6octree22OctreePointCloudSearchINS_9PointXYZIENS0_26OctreeContainerDataTVectorIiEENS0_20OctreeContainerEmptyIiEEE20prioBranchQueueEntryC2Ev@Base 1.6
 (optional=templinst)_ZN3pcl6octree22OctreePointCloudSearchINS_9PointXYZIENS0_26OctreeContainerDataTVectorIiEENS0_20OctreeContainerEmptyIiEEE28approxNearestSearchRecursiveERKS2_PKNS0_16OctreeBranchNodeIS6_EERKNS0_9OctreeKeyEjRiRf@Base 1.6
 (optional=templinst)_ZN3pcl6octree22OctreePointCloudSearchINS_9PointXYZIENS0_26OctreeContainerDataTVectorIiEENS0_20OctreeContainerEmptyIiEEEC1Ed@Base 1.6
 (optional=templinst)_ZN3pcl6octree22OctreePointCloudSearchINS_9PointXYZIENS0_26OctreeContainerDataTVectorIiEENS0_20OctreeContainerEmptyIiEEEC2Ed@Base 1.6
 (optional=templinst)_ZN3pcl6octree22OctreePointCloudSearchINS_9PointXYZIENS0_26OctreeContainerDataTVectorIiEENS0_20OctreeContainerEmptyIiEEED0Ev@Base 1.6
 (optional=templinst)_ZN3pcl6octree22OctreePointCloudSearchINS_9PointXYZIENS0_26OctreeContainerDataTVectorIiEENS0_20OctreeContainerEmptyIiEEED1Ev@Base 1.6
 (optional=templinst)_ZN3pcl6octree22OctreePointCloudSearchINS_9PointXYZIENS0_26OctreeContainerDataTVectorIiEENS0_20OctreeContainerEmptyIiEEED2Ev@Base 1.6
 (optional=templinst)_ZN3pcl6octree22OctreePointCloudSearchINS_9PointXYZLENS0_26OctreeContainerDataTVectorIiEENS0_20OctreeContainerEmptyIiEEE11voxelSearchERKS2_RSt6vectorIiSaIiEE@Base 1.6
 (optional=templinst)_ZN3pcl6octree22OctreePointCloudSearchINS_9PointXYZLENS0_26OctreeContainerDataTVectorIiEENS0_20OctreeContainerEmptyIiEEE11voxelSearchEiRSt6vectorIiSaIiEE@Base 1.6
 (optional=templinst)_ZN3pcl6octree22OctreePointCloudSearchINS_9PointXYZLENS0_26OctreeContainerDataTVectorIiEENS0_20OctreeContainerEmptyIiEEE12radiusSearchERKNS_10PointCloudIS2_EEidRSt6vectorIiSaIiEERSC_IfSaIfEEj@Base 1.6
 (optional=templinst)_ZN3pcl6octree22OctreePointCloudSearchINS_9PointXYZLENS0_26OctreeContainerDataTVectorIiEENS0_20OctreeContainerEmptyIiEEE14nearestKSearchERKNS_10PointCloudIS2_EEiiRSt6vectorIiSaIiEERSC_IfSaIfEE@Base 1.6
 (optional=templinst)_ZN3pcl6octree22OctreePointCloudSearchINS_9PointXYZLENS0_26OctreeContainerDataTVectorIiEENS0_20OctreeContainerEmptyIiEEE14nearestKSearchERKS2_iRSt6vectorIiSaIiEERSA_IfSaIfEE@Base 1.6
 (optional=templinst)_ZN3pcl6octree22OctreePointCloudSearchINS_9PointXYZLENS0_26OctreeContainerDataTVectorIiEENS0_20OctreeContainerEmptyIiEEE14nearestKSearchEiiRSt6vectorIiSaIiEERS8_IfSaIfEE@Base 1.6
 (optional=templinst)_ZN3pcl6octree22OctreePointCloudSearchINS_9PointXYZLENS0_26OctreeContainerDataTVectorIiEENS0_20OctreeContainerEmptyIiEEE19approxNearestSearchERKNS_10PointCloudIS2_EEiRiRf@Base 1.6
 (optional=templinst)_ZN3pcl6octree22OctreePointCloudSearchINS_9PointXYZLENS0_26OctreeContainerDataTVectorIiEENS0_20OctreeContainerEmptyIiEEE19approxNearestSearchERKS2_RiRf@Base 1.6
 (optional=templinst)_ZN3pcl6octree22OctreePointCloudSearchINS_9PointXYZLENS0_26OctreeContainerDataTVectorIiEENS0_20OctreeContainerEmptyIiEEE19approxNearestSearchEiRiRf@Base 1.6
 (optional=templinst)_ZN3pcl6octree22OctreePointCloudSearchINS_9PointXYZLENS0_26OctreeContainerDataTVectorIiEENS0_20OctreeContainerEmptyIiEEE19prioPointQueueEntryC1ERjf@Base 1.6
 (optional=templinst)_ZN3pcl6octree22OctreePointCloudSearchINS_9PointXYZLENS0_26OctreeContainerDataTVectorIiEENS0_20OctreeContainerEmptyIiEEE19prioPointQueueEntryC1Ev@Base 1.6
 (optional=templinst)_ZN3pcl6octree22OctreePointCloudSearchINS_9PointXYZLENS0_26OctreeContainerDataTVectorIiEENS0_20OctreeContainerEmptyIiEEE19prioPointQueueEntryC2ERjf@Base 1.6
 (optional=templinst)_ZN3pcl6octree22OctreePointCloudSearchINS_9PointXYZLENS0_26OctreeContainerDataTVectorIiEENS0_20OctreeContainerEmptyIiEEE19prioPointQueueEntryC2Ev@Base 1.6
 (optional=templinst)_ZN3pcl6octree22OctreePointCloudSearchINS_9PointXYZLENS0_26OctreeContainerDataTVectorIiEENS0_20OctreeContainerEmptyIiEEE20prioBranchQueueEntryC1EPNS0_10OctreeNodeERNS0_9OctreeKeyEf@Base 1.6
 (optional=templinst)_ZN3pcl6octree22OctreePointCloudSearchINS_9PointXYZLENS0_26OctreeContainerDataTVectorIiEENS0_20OctreeContainerEmptyIiEEE20prioBranchQueueEntryC1Ev@Base 1.6
 (optional=templinst)_ZN3pcl6octree22OctreePointCloudSearchINS_9PointXYZLENS0_26OctreeContainerDataTVectorIiEENS0_20OctreeContainerEmptyIiEEE20prioBranchQueueEntryC2EPNS0_10OctreeNodeERNS0_9OctreeKeyEf@Base 1.6
 (optional=templinst)_ZN3pcl6octree22OctreePointCloudSearchINS_9PointXYZLENS0_26OctreeContainerDataTVectorIiEENS0_20OctreeContainerEmptyIiEEE20prioBranchQueueEntryC2Ev@Base 1.6
 (optional=templinst)_ZN3pcl6octree22OctreePointCloudSearchINS_9PointXYZLENS0_26OctreeContainerDataTVectorIiEENS0_20OctreeContainerEmptyIiEEE28approxNearestSearchRecursiveERKS2_PKNS0_16OctreeBranchNodeIS6_EERKNS0_9OctreeKeyEjRiRf@Base 1.6
 (optional=templinst)_ZN3pcl6octree22OctreePointCloudSearchINS_9PointXYZLENS0_26OctreeContainerDataTVectorIiEENS0_20OctreeContainerEmptyIiEEEC1Ed@Base 1.6
 (optional=templinst)_ZN3pcl6octree22OctreePointCloudSearchINS_9PointXYZLENS0_26OctreeContainerDataTVectorIiEENS0_20OctreeContainerEmptyIiEEEC2Ed@Base 1.6
 (optional=templinst)_ZN3pcl6octree22OctreePointCloudSearchINS_9PointXYZLENS0_26OctreeContainerDataTVectorIiEENS0_20OctreeContainerEmptyIiEEED0Ev@Base 1.6
 (optional=templinst)_ZN3pcl6octree22OctreePointCloudSearchINS_9PointXYZLENS0_26OctreeContainerDataTVectorIiEENS0_20OctreeContainerEmptyIiEEED1Ev@Base 1.6
 (optional=templinst)_ZN3pcl6octree22OctreePointCloudSearchINS_9PointXYZLENS0_26OctreeContainerDataTVectorIiEENS0_20OctreeContainerEmptyIiEEED2Ev@Base 1.6
 (optional=templinst)_ZN3pcl6octree26OctreeContainerDataTVectorIiED0Ev@Base 1.6
 (optional=templinst)_ZN3pcl6octree26OctreeContainerDataTVectorIiED1Ev@Base 1.6
 (optional=templinst)_ZN3pcl6octree26OctreeContainerDataTVectorIiED2Ev@Base 1.6
 (optional=templinst)_ZN3pcl6octree30OctreePointCloudChangeDetectorINS_11PointNormalENS0_26OctreeContainerDataTVectorIiEENS0_20OctreeContainerEmptyIiEEE28getPointIndicesFromNewVoxelsERSt6vectorIiSaIiEEi@Base 1.6
 (optional=templinst)_ZN3pcl6octree30OctreePointCloudChangeDetectorINS_11PointNormalENS0_26OctreeContainerDataTVectorIiEENS0_20OctreeContainerEmptyIiEEEC1Ed@Base 1.6
 (optional=templinst)_ZN3pcl6octree30OctreePointCloudChangeDetectorINS_11PointNormalENS0_26OctreeContainerDataTVectorIiEENS0_20OctreeContainerEmptyIiEEEC2Ed@Base 1.6
 (optional=templinst)_ZN3pcl6octree30OctreePointCloudChangeDetectorINS_11PointNormalENS0_26OctreeContainerDataTVectorIiEENS0_20OctreeContainerEmptyIiEEED0Ev@Base 1.6
 (optional=templinst)_ZN3pcl6octree30OctreePointCloudChangeDetectorINS_11PointNormalENS0_26OctreeContainerDataTVectorIiEENS0_20OctreeContainerEmptyIiEEED1Ev@Base 1.6
 (optional=templinst)_ZN3pcl6octree30OctreePointCloudChangeDetectorINS_11PointNormalENS0_26OctreeContainerDataTVectorIiEENS0_20OctreeContainerEmptyIiEEED2Ev@Base 1.6
 (optional=templinst)_ZN3pcl6octree30OctreePointCloudChangeDetectorINS_11PointXYZHSVENS0_26OctreeContainerDataTVectorIiEENS0_20OctreeContainerEmptyIiEEE28getPointIndicesFromNewVoxelsERSt6vectorIiSaIiEEi@Base 1.6
 (optional=templinst)_ZN3pcl6octree30OctreePointCloudChangeDetectorINS_11PointXYZHSVENS0_26OctreeContainerDataTVectorIiEENS0_20OctreeContainerEmptyIiEEEC1Ed@Base 1.6
 (optional=templinst)_ZN3pcl6octree30OctreePointCloudChangeDetectorINS_11PointXYZHSVENS0_26OctreeContainerDataTVectorIiEENS0_20OctreeContainerEmptyIiEEEC2Ed@Base 1.6
 (optional=templinst)_ZN3pcl6octree30OctreePointCloudChangeDetectorINS_11PointXYZHSVENS0_26OctreeContainerDataTVectorIiEENS0_20OctreeContainerEmptyIiEEED0Ev@Base 1.6
 (optional=templinst)_ZN3pcl6octree30OctreePointCloudChangeDetectorINS_11PointXYZHSVENS0_26OctreeContainerDataTVectorIiEENS0_20OctreeContainerEmptyIiEEED1Ev@Base 1.6
 (optional=templinst)_ZN3pcl6octree30OctreePointCloudChangeDetectorINS_11PointXYZHSVENS0_26OctreeContainerDataTVectorIiEENS0_20OctreeContainerEmptyIiEEED2Ev@Base 1.6
 (optional=templinst)_ZN3pcl6octree30OctreePointCloudChangeDetectorINS_11PointXYZRGBENS0_26OctreeContainerDataTVectorIiEENS0_20OctreeContainerEmptyIiEEE28getPointIndicesFromNewVoxelsERSt6vectorIiSaIiEEi@Base 1.6
 (optional=templinst)_ZN3pcl6octree30OctreePointCloudChangeDetectorINS_11PointXYZRGBENS0_26OctreeContainerDataTVectorIiEENS0_20OctreeContainerEmptyIiEEEC1Ed@Base 1.6
 (optional=templinst)_ZN3pcl6octree30OctreePointCloudChangeDetectorINS_11PointXYZRGBENS0_26OctreeContainerDataTVectorIiEENS0_20OctreeContainerEmptyIiEEEC2Ed@Base 1.6
 (optional=templinst)_ZN3pcl6octree30OctreePointCloudChangeDetectorINS_11PointXYZRGBENS0_26OctreeContainerDataTVectorIiEENS0_20OctreeContainerEmptyIiEEED0Ev@Base 1.6
 (optional=templinst)_ZN3pcl6octree30OctreePointCloudChangeDetectorINS_11PointXYZRGBENS0_26OctreeContainerDataTVectorIiEENS0_20OctreeContainerEmptyIiEEED1Ev@Base 1.6
 (optional=templinst)_ZN3pcl6octree30OctreePointCloudChangeDetectorINS_11PointXYZRGBENS0_26OctreeContainerDataTVectorIiEENS0_20OctreeContainerEmptyIiEEED2Ev@Base 1.6
 (optional=templinst)_ZN3pcl6octree30OctreePointCloudChangeDetectorINS_12PointXYZRGBAENS0_26OctreeContainerDataTVectorIiEENS0_20OctreeContainerEmptyIiEEE28getPointIndicesFromNewVoxelsERSt6vectorIiSaIiEEi@Base 1.6
 (optional=templinst)_ZN3pcl6octree30OctreePointCloudChangeDetectorINS_12PointXYZRGBAENS0_26OctreeContainerDataTVectorIiEENS0_20OctreeContainerEmptyIiEEEC1Ed@Base 1.6
 (optional=templinst)_ZN3pcl6octree30OctreePointCloudChangeDetectorINS_12PointXYZRGBAENS0_26OctreeContainerDataTVectorIiEENS0_20OctreeContainerEmptyIiEEEC2Ed@Base 1.6
 (optional=templinst)_ZN3pcl6octree30OctreePointCloudChangeDetectorINS_12PointXYZRGBAENS0_26OctreeContainerDataTVectorIiEENS0_20OctreeContainerEmptyIiEEED0Ev@Base 1.6
 (optional=templinst)_ZN3pcl6octree30OctreePointCloudChangeDetectorINS_12PointXYZRGBAENS0_26OctreeContainerDataTVectorIiEENS0_20OctreeContainerEmptyIiEEED1Ev@Base 1.6
 (optional=templinst)_ZN3pcl6octree30OctreePointCloudChangeDetectorINS_12PointXYZRGBAENS0_26OctreeContainerDataTVectorIiEENS0_20OctreeContainerEmptyIiEEED2Ev@Base 1.6
 (optional=templinst)_ZN3pcl6octree30OctreePointCloudChangeDetectorINS_12PointXYZRGBLENS0_26OctreeContainerDataTVectorIiEENS0_20OctreeContainerEmptyIiEEE28getPointIndicesFromNewVoxelsERSt6vectorIiSaIiEEi@Base 1.6
 (optional=templinst)_ZN3pcl6octree30OctreePointCloudChangeDetectorINS_12PointXYZRGBLENS0_26OctreeContainerDataTVectorIiEENS0_20OctreeContainerEmptyIiEEEC1Ed@Base 1.6
 (optional=templinst)_ZN3pcl6octree30OctreePointCloudChangeDetectorINS_12PointXYZRGBLENS0_26OctreeContainerDataTVectorIiEENS0_20OctreeContainerEmptyIiEEEC2Ed@Base 1.6
 (optional=templinst)_ZN3pcl6octree30OctreePointCloudChangeDetectorINS_12PointXYZRGBLENS0_26OctreeContainerDataTVectorIiEENS0_20OctreeContainerEmptyIiEEED0Ev@Base 1.6
 (optional=templinst)_ZN3pcl6octree30OctreePointCloudChangeDetectorINS_12PointXYZRGBLENS0_26OctreeContainerDataTVectorIiEENS0_20OctreeContainerEmptyIiEEED1Ev@Base 1.6
 (optional=templinst)_ZN3pcl6octree30OctreePointCloudChangeDetectorINS_12PointXYZRGBLENS0_26OctreeContainerDataTVectorIiEENS0_20OctreeContainerEmptyIiEEED2Ev@Base 1.6
 (optional=templinst)_ZN3pcl6octree30OctreePointCloudChangeDetectorINS_13InterestPointENS0_26OctreeContainerDataTVectorIiEENS0_20OctreeContainerEmptyIiEEE28getPointIndicesFromNewVoxelsERSt6vectorIiSaIiEEi@Base 1.6
 (optional=templinst)_ZN3pcl6octree30OctreePointCloudChangeDetectorINS_13InterestPointENS0_26OctreeContainerDataTVectorIiEENS0_20OctreeContainerEmptyIiEEEC1Ed@Base 1.6
 (optional=templinst)_ZN3pcl6octree30OctreePointCloudChangeDetectorINS_13InterestPointENS0_26OctreeContainerDataTVectorIiEENS0_20OctreeContainerEmptyIiEEEC2Ed@Base 1.6
 (optional=templinst)_ZN3pcl6octree30OctreePointCloudChangeDetectorINS_13InterestPointENS0_26OctreeContainerDataTVectorIiEENS0_20OctreeContainerEmptyIiEEED0Ev@Base 1.6
 (optional=templinst)_ZN3pcl6octree30OctreePointCloudChangeDetectorINS_13InterestPointENS0_26OctreeContainerDataTVectorIiEENS0_20OctreeContainerEmptyIiEEED1Ev@Base 1.6
 (optional=templinst)_ZN3pcl6octree30OctreePointCloudChangeDetectorINS_13InterestPointENS0_26OctreeContainerDataTVectorIiEENS0_20OctreeContainerEmptyIiEEED2Ev@Base 1.6
 (optional=templinst)_ZN3pcl6octree30OctreePointCloudChangeDetectorINS_14PointWithRangeENS0_26OctreeContainerDataTVectorIiEENS0_20OctreeContainerEmptyIiEEE28getPointIndicesFromNewVoxelsERSt6vectorIiSaIiEEi@Base 1.6
 (optional=templinst)_ZN3pcl6octree30OctreePointCloudChangeDetectorINS_14PointWithRangeENS0_26OctreeContainerDataTVectorIiEENS0_20OctreeContainerEmptyIiEEEC1Ed@Base 1.6
 (optional=templinst)_ZN3pcl6octree30OctreePointCloudChangeDetectorINS_14PointWithRangeENS0_26OctreeContainerDataTVectorIiEENS0_20OctreeContainerEmptyIiEEEC2Ed@Base 1.6
 (optional=templinst)_ZN3pcl6octree30OctreePointCloudChangeDetectorINS_14PointWithRangeENS0_26OctreeContainerDataTVectorIiEENS0_20OctreeContainerEmptyIiEEED0Ev@Base 1.6
 (optional=templinst)_ZN3pcl6octree30OctreePointCloudChangeDetectorINS_14PointWithRangeENS0_26OctreeContainerDataTVectorIiEENS0_20OctreeContainerEmptyIiEEED1Ev@Base 1.6
 (optional=templinst)_ZN3pcl6octree30OctreePointCloudChangeDetectorINS_14PointWithRangeENS0_26OctreeContainerDataTVectorIiEENS0_20OctreeContainerEmptyIiEEED2Ev@Base 1.6
 (optional=templinst)_ZN3pcl6octree30OctreePointCloudChangeDetectorINS_14PointWithScaleENS0_26OctreeContainerDataTVectorIiEENS0_20OctreeContainerEmptyIiEEE28getPointIndicesFromNewVoxelsERSt6vectorIiSaIiEEi@Base 1.6
 (optional=templinst)_ZN3pcl6octree30OctreePointCloudChangeDetectorINS_14PointWithScaleENS0_26OctreeContainerDataTVectorIiEENS0_20OctreeContainerEmptyIiEEEC1Ed@Base 1.6
 (optional=templinst)_ZN3pcl6octree30OctreePointCloudChangeDetectorINS_14PointWithScaleENS0_26OctreeContainerDataTVectorIiEENS0_20OctreeContainerEmptyIiEEEC2Ed@Base 1.6
 (optional=templinst)_ZN3pcl6octree30OctreePointCloudChangeDetectorINS_14PointWithScaleENS0_26OctreeContainerDataTVectorIiEENS0_20OctreeContainerEmptyIiEEED0Ev@Base 1.6
 (optional=templinst)_ZN3pcl6octree30OctreePointCloudChangeDetectorINS_14PointWithScaleENS0_26OctreeContainerDataTVectorIiEENS0_20OctreeContainerEmptyIiEEED1Ev@Base 1.6
 (optional=templinst)_ZN3pcl6octree30OctreePointCloudChangeDetectorINS_14PointWithScaleENS0_26OctreeContainerDataTVectorIiEENS0_20OctreeContainerEmptyIiEEED2Ev@Base 1.6
 (optional=templinst)_ZN3pcl6octree30OctreePointCloudChangeDetectorINS_15PointXYZINormalENS0_26OctreeContainerDataTVectorIiEENS0_20OctreeContainerEmptyIiEEE28getPointIndicesFromNewVoxelsERSt6vectorIiSaIiEEi@Base 1.6
 (optional=templinst)_ZN3pcl6octree30OctreePointCloudChangeDetectorINS_15PointXYZINormalENS0_26OctreeContainerDataTVectorIiEENS0_20OctreeContainerEmptyIiEEEC1Ed@Base 1.6
 (optional=templinst)_ZN3pcl6octree30OctreePointCloudChangeDetectorINS_15PointXYZINormalENS0_26OctreeContainerDataTVectorIiEENS0_20OctreeContainerEmptyIiEEEC2Ed@Base 1.6
 (optional=templinst)_ZN3pcl6octree30OctreePointCloudChangeDetectorINS_15PointXYZINormalENS0_26OctreeContainerDataTVectorIiEENS0_20OctreeContainerEmptyIiEEED0Ev@Base 1.6
 (optional=templinst)_ZN3pcl6octree30OctreePointCloudChangeDetectorINS_15PointXYZINormalENS0_26OctreeContainerDataTVectorIiEENS0_20OctreeContainerEmptyIiEEED1Ev@Base 1.6
 (optional=templinst)_ZN3pcl6octree30OctreePointCloudChangeDetectorINS_15PointXYZINormalENS0_26OctreeContainerDataTVectorIiEENS0_20OctreeContainerEmptyIiEEED2Ev@Base 1.6
 (optional=templinst)_ZN3pcl6octree30OctreePointCloudChangeDetectorINS_17PointXYZRGBNormalENS0_26OctreeContainerDataTVectorIiEENS0_20OctreeContainerEmptyIiEEE28getPointIndicesFromNewVoxelsERSt6vectorIiSaIiEEi@Base 1.6
 (optional=templinst)_ZN3pcl6octree30OctreePointCloudChangeDetectorINS_17PointXYZRGBNormalENS0_26OctreeContainerDataTVectorIiEENS0_20OctreeContainerEmptyIiEEEC1Ed@Base 1.6
 (optional=templinst)_ZN3pcl6octree30OctreePointCloudChangeDetectorINS_17PointXYZRGBNormalENS0_26OctreeContainerDataTVectorIiEENS0_20OctreeContainerEmptyIiEEEC2Ed@Base 1.6
 (optional=templinst)_ZN3pcl6octree30OctreePointCloudChangeDetectorINS_17PointXYZRGBNormalENS0_26OctreeContainerDataTVectorIiEENS0_20OctreeContainerEmptyIiEEED0Ev@Base 1.6
 (optional=templinst)_ZN3pcl6octree30OctreePointCloudChangeDetectorINS_17PointXYZRGBNormalENS0_26OctreeContainerDataTVectorIiEENS0_20OctreeContainerEmptyIiEEED1Ev@Base 1.6
 (optional=templinst)_ZN3pcl6octree30OctreePointCloudChangeDetectorINS_17PointXYZRGBNormalENS0_26OctreeContainerDataTVectorIiEENS0_20OctreeContainerEmptyIiEEED2Ev@Base 1.6
 (optional=templinst)_ZN3pcl6octree30OctreePointCloudChangeDetectorINS_18PointWithViewpointENS0_26OctreeContainerDataTVectorIiEENS0_20OctreeContainerEmptyIiEEE28getPointIndicesFromNewVoxelsERSt6vectorIiSaIiEEi@Base 1.6
 (optional=templinst)_ZN3pcl6octree30OctreePointCloudChangeDetectorINS_18PointWithViewpointENS0_26OctreeContainerDataTVectorIiEENS0_20OctreeContainerEmptyIiEEEC1Ed@Base 1.6
 (optional=templinst)_ZN3pcl6octree30OctreePointCloudChangeDetectorINS_18PointWithViewpointENS0_26OctreeContainerDataTVectorIiEENS0_20OctreeContainerEmptyIiEEEC2Ed@Base 1.6
 (optional=templinst)_ZN3pcl6octree30OctreePointCloudChangeDetectorINS_18PointWithViewpointENS0_26OctreeContainerDataTVectorIiEENS0_20OctreeContainerEmptyIiEEED0Ev@Base 1.6
 (optional=templinst)_ZN3pcl6octree30OctreePointCloudChangeDetectorINS_18PointWithViewpointENS0_26OctreeContainerDataTVectorIiEENS0_20OctreeContainerEmptyIiEEED1Ev@Base 1.6
 (optional=templinst)_ZN3pcl6octree30OctreePointCloudChangeDetectorINS_18PointWithViewpointENS0_26OctreeContainerDataTVectorIiEENS0_20OctreeContainerEmptyIiEEED2Ev@Base 1.6
 (optional=templinst)_ZN3pcl6octree30OctreePointCloudChangeDetectorINS_8PointXYZENS0_26OctreeContainerDataTVectorIiEENS0_20OctreeContainerEmptyIiEEE28getPointIndicesFromNewVoxelsERSt6vectorIiSaIiEEi@Base 1.6
 (optional=templinst)_ZN3pcl6octree30OctreePointCloudChangeDetectorINS_8PointXYZENS0_26OctreeContainerDataTVectorIiEENS0_20OctreeContainerEmptyIiEEEC1Ed@Base 1.6
 (optional=templinst)_ZN3pcl6octree30OctreePointCloudChangeDetectorINS_8PointXYZENS0_26OctreeContainerDataTVectorIiEENS0_20OctreeContainerEmptyIiEEEC2Ed@Base 1.6
 (optional=templinst)_ZN3pcl6octree30OctreePointCloudChangeDetectorINS_8PointXYZENS0_26OctreeContainerDataTVectorIiEENS0_20OctreeContainerEmptyIiEEED0Ev@Base 1.6
 (optional=templinst)_ZN3pcl6octree30OctreePointCloudChangeDetectorINS_8PointXYZENS0_26OctreeContainerDataTVectorIiEENS0_20OctreeContainerEmptyIiEEED1Ev@Base 1.6
 (optional=templinst)_ZN3pcl6octree30OctreePointCloudChangeDetectorINS_8PointXYZENS0_26OctreeContainerDataTVectorIiEENS0_20OctreeContainerEmptyIiEEED2Ev@Base 1.6
 (optional=templinst)_ZN3pcl6octree30OctreePointCloudChangeDetectorINS_9PointXYZIENS0_26OctreeContainerDataTVectorIiEENS0_20OctreeContainerEmptyIiEEE28getPointIndicesFromNewVoxelsERSt6vectorIiSaIiEEi@Base 1.6
 (optional=templinst)_ZN3pcl6octree30OctreePointCloudChangeDetectorINS_9PointXYZIENS0_26OctreeContainerDataTVectorIiEENS0_20OctreeContainerEmptyIiEEEC1Ed@Base 1.6
 (optional=templinst)_ZN3pcl6octree30OctreePointCloudChangeDetectorINS_9PointXYZIENS0_26OctreeContainerDataTVectorIiEENS0_20OctreeContainerEmptyIiEEEC2Ed@Base 1.6
 (optional=templinst)_ZN3pcl6octree30OctreePointCloudChangeDetectorINS_9PointXYZIENS0_26OctreeContainerDataTVectorIiEENS0_20OctreeContainerEmptyIiEEED0Ev@Base 1.6
 (optional=templinst)_ZN3pcl6octree30OctreePointCloudChangeDetectorINS_9PointXYZIENS0_26OctreeContainerDataTVectorIiEENS0_20OctreeContainerEmptyIiEEED1Ev@Base 1.6
 (optional=templinst)_ZN3pcl6octree30OctreePointCloudChangeDetectorINS_9PointXYZIENS0_26OctreeContainerDataTVectorIiEENS0_20OctreeContainerEmptyIiEEED2Ev@Base 1.6
 (optional=templinst)_ZN3pcl6octree30OctreePointCloudChangeDetectorINS_9PointXYZLENS0_26OctreeContainerDataTVectorIiEENS0_20OctreeContainerEmptyIiEEE28getPointIndicesFromNewVoxelsERSt6vectorIiSaIiEEi@Base 1.6
 (optional=templinst)_ZN3pcl6octree30OctreePointCloudChangeDetectorINS_9PointXYZLENS0_26OctreeContainerDataTVectorIiEENS0_20OctreeContainerEmptyIiEEEC1Ed@Base 1.6
 (optional=templinst)_ZN3pcl6octree30OctreePointCloudChangeDetectorINS_9PointXYZLENS0_26OctreeContainerDataTVectorIiEENS0_20OctreeContainerEmptyIiEEEC2Ed@Base 1.6
 (optional=templinst)_ZN3pcl6octree30OctreePointCloudChangeDetectorINS_9PointXYZLENS0_26OctreeContainerDataTVectorIiEENS0_20OctreeContainerEmptyIiEEED0Ev@Base 1.6
 (optional=templinst)_ZN3pcl6octree30OctreePointCloudChangeDetectorINS_9PointXYZLENS0_26OctreeContainerDataTVectorIiEENS0_20OctreeContainerEmptyIiEEED1Ev@Base 1.6
 (optional=templinst)_ZN3pcl6octree30OctreePointCloudChangeDetectorINS_9PointXYZLENS0_26OctreeContainerDataTVectorIiEENS0_20OctreeContainerEmptyIiEEED2Ev@Base 1.6
 _ZN5Eigen8internal19throw_std_bad_allocEv@Base 1.6
 (optional=templinst)_ZN5boost10shared_ptrIKN3pcl10PointCloudINS1_11PointNormalEEEED1Ev@Base 1.6
 (optional=templinst)_ZN5boost10shared_ptrIKN3pcl10PointCloudINS1_11PointNormalEEEED2Ev@Base 1.6
 (optional=templinst)_ZN5boost10shared_ptrIKN3pcl10PointCloudINS1_11PointXYZHSVEEEED1Ev@Base 1.6
 (optional=templinst)_ZN5boost10shared_ptrIKN3pcl10PointCloudINS1_11PointXYZHSVEEEED2Ev@Base 1.6
 (optional=templinst)_ZN5boost10shared_ptrIKN3pcl10PointCloudINS1_11PointXYZRGBEEEED1Ev@Base 1.6
 (optional=templinst)_ZN5boost10shared_ptrIKN3pcl10PointCloudINS1_11PointXYZRGBEEEED2Ev@Base 1.6
 (optional=templinst)_ZN5boost10shared_ptrIKN3pcl10PointCloudINS1_12PointXYZRGBAEEEED1Ev@Base 1.6
 (optional=templinst)_ZN5boost10shared_ptrIKN3pcl10PointCloudINS1_12PointXYZRGBAEEEED2Ev@Base 1.6
 (optional=templinst)_ZN5boost10shared_ptrIKN3pcl10PointCloudINS1_12PointXYZRGBLEEEED1Ev@Base 1.6
 (optional=templinst)_ZN5boost10shared_ptrIKN3pcl10PointCloudINS1_12PointXYZRGBLEEEED2Ev@Base 1.6
 (optional=templinst)_ZN5boost10shared_ptrIKN3pcl10PointCloudINS1_13InterestPointEEEED1Ev@Base 1.6
 (optional=templinst)_ZN5boost10shared_ptrIKN3pcl10PointCloudINS1_13InterestPointEEEED2Ev@Base 1.6
 (optional=templinst)_ZN5boost10shared_ptrIKN3pcl10PointCloudINS1_14PointWithRangeEEEED1Ev@Base 1.6
 (optional=templinst)_ZN5boost10shared_ptrIKN3pcl10PointCloudINS1_14PointWithRangeEEEED2Ev@Base 1.6
 (optional=templinst)_ZN5boost10shared_ptrIKN3pcl10PointCloudINS1_14PointWithScaleEEEED1Ev@Base 1.6
 (optional=templinst)_ZN5boost10shared_ptrIKN3pcl10PointCloudINS1_14PointWithScaleEEEED2Ev@Base 1.6
 (optional=templinst)_ZN5boost10shared_ptrIKN3pcl10PointCloudINS1_15PointXYZINormalEEEED1Ev@Base 1.6
 (optional=templinst)_ZN5boost10shared_ptrIKN3pcl10PointCloudINS1_15PointXYZINormalEEEED2Ev@Base 1.6
 (optional=templinst)_ZN5boost10shared_ptrIKN3pcl10PointCloudINS1_17PointXYZRGBNormalEEEED1Ev@Base 1.6
 (optional=templinst)_ZN5boost10shared_ptrIKN3pcl10PointCloudINS1_17PointXYZRGBNormalEEEED2Ev@Base 1.6
 (optional=templinst)_ZN5boost10shared_ptrIKN3pcl10PointCloudINS1_18PointWithViewpointEEEED1Ev@Base 1.6
 (optional=templinst)_ZN5boost10shared_ptrIKN3pcl10PointCloudINS1_18PointWithViewpointEEEED2Ev@Base 1.6
 (optional=templinst)_ZN5boost10shared_ptrIKN3pcl10PointCloudINS1_8PointXYZEEEED1Ev@Base 1.6
 (optional=templinst)_ZN5boost10shared_ptrIKN3pcl10PointCloudINS1_8PointXYZEEEED2Ev@Base 1.6
 (optional=templinst)_ZN5boost10shared_ptrIKN3pcl10PointCloudINS1_9PointXYZIEEEED1Ev@Base 1.6
 (optional=templinst)_ZN5boost10shared_ptrIKN3pcl10PointCloudINS1_9PointXYZIEEEED2Ev@Base 1.6
 (optional=templinst)_ZN5boost10shared_ptrIKN3pcl10PointCloudINS1_9PointXYZLEEEED1Ev@Base 1.6
 (optional=templinst)_ZN5boost10shared_ptrIKN3pcl10PointCloudINS1_9PointXYZLEEEED2Ev@Base 1.6
 _ZN5boost6detail12shared_countD1Ev@Base 1.6
 _ZN5boost6detail12shared_countD2Ev@Base 1.6
 (optional=templinst)_ZNK3pcl6octree10OctreeBaseIiNS0_20OctreeContainerDataTIiEENS0_20OctreeContainerEmptyIiEEE11getRootNodeEv@Base 1.6
 (optional=templinst)_ZNK3pcl6octree10OctreeBaseIiNS0_20OctreeContainerDataTIiEENS0_20OctreeContainerEmptyIiEEE12getLeafCountEv@Base 1.6
 (optional=templinst)_ZNK3pcl6octree10OctreeBaseIiNS0_20OctreeContainerDataTIiEENS0_20OctreeContainerEmptyIiEEE12getTreeDepthEv@Base 1.6
 (optional=templinst)_ZNK3pcl6octree10OctreeBaseIiNS0_20OctreeContainerDataTIiEENS0_20OctreeContainerEmptyIiEEE14branchHasChildERKNS0_16OctreeBranchNodeIS5_EEh@Base 1.6
 (optional=templinst)_ZNK3pcl6octree10OctreeBaseIiNS0_20OctreeContainerDataTIiEENS0_20OctreeContainerEmptyIiEEE14getBranchCountEv@Base 1.6
 (optional=templinst)_ZNK3pcl6octree10OctreeBaseIiNS0_20OctreeContainerDataTIiEENS0_20OctreeContainerEmptyIiEEE17findLeafRecursiveERKNS0_9OctreeKeyEjPNS0_16OctreeBranchNodeIS5_EERPNS0_14OctreeLeafNodeIS3_EE@Base 1.6
 (optional=templinst)_ZNK3pcl6octree10OctreeBaseIiNS0_20OctreeContainerDataTIiEENS0_20OctreeContainerEmptyIiEEE17getBranchChildPtrERKNS0_16OctreeBranchNodeIS5_EEh@Base 1.6
 (optional=templinst)_ZNK3pcl6octree10OctreeBaseIiNS0_20OctreeContainerDataTIiEENS0_20OctreeContainerEmptyIiEEE19genDataTByOctreeKeyERKNS0_9OctreeKeyERi@Base 1.6
 (optional=templinst)_ZNK3pcl6octree10OctreeBaseIiNS0_20OctreeContainerDataTIiEENS0_20OctreeContainerEmptyIiEEE19getBranchBitPatternERKNS0_16OctreeBranchNodeIS5_EE@Base 1.6
 (optional=templinst)_ZNK3pcl6octree10OctreeBaseIiNS0_20OctreeContainerDataTIiEENS0_20OctreeContainerEmptyIiEEE20genOctreeKeyForDataTERKiRNS0_9OctreeKeyE@Base 1.6
 (optional=templinst)_ZNK3pcl6octree10OctreeBaseIiNS0_20OctreeContainerDataTIiEENS0_20OctreeContainerEmptyIiEEE21serializeTreeCallbackERKNS0_14OctreeLeafNodeIS3_EERKNS0_9OctreeKeyE@Base 1.6
 (optional=templinst)_ZNK3pcl6octree10OctreeBaseIiNS0_20OctreeContainerDataTIiEENS0_20OctreeContainerEmptyIiEEE22serializeTreeRecursiveEPKNS0_16OctreeBranchNodeIS5_EERNS0_9OctreeKeyEPSt6vectorIcSaIcEEPSD_IiSaIiEE@Base 1.6
 (optional=templinst)_ZNK3pcl6octree10OctreeBaseIiNS0_20OctreeContainerDataTIiEENS0_20OctreeContainerEmptyIiEEE7getDataEjjjRi@Base 1.6
 (optional=templinst)_ZNK3pcl6octree10OctreeBaseIiNS0_20OctreeContainerDataTIiEENS0_20OctreeContainerEmptyIiEEE8findLeafERKNS0_9OctreeKeyE@Base 1.6
 (optional=templinst)_ZNK3pcl6octree10OctreeBaseIiNS0_20OctreeContainerDataTIiEENS0_20OctreeContainerEmptyIiEEE9existLeafERKNS0_9OctreeKeyE@Base 1.6
 (optional=templinst)_ZNK3pcl6octree10OctreeBaseIiNS0_20OctreeContainerDataTIiEENS0_20OctreeContainerEmptyIiEEE9existLeafEjjj@Base 1.6
 (optional=templinst)_ZNK3pcl6octree10OctreeBaseIiNS0_26OctreeContainerDataTVectorIiEENS0_20OctreeContainerEmptyIiEEE11getRootNodeEv@Base 1.6
 (optional=templinst)_ZNK3pcl6octree10OctreeBaseIiNS0_26OctreeContainerDataTVectorIiEENS0_20OctreeContainerEmptyIiEEE12getLeafCountEv@Base 1.6
 (optional=templinst)_ZNK3pcl6octree10OctreeBaseIiNS0_26OctreeContainerDataTVectorIiEENS0_20OctreeContainerEmptyIiEEE12getTreeDepthEv@Base 1.6
 (optional=templinst)_ZNK3pcl6octree10OctreeBaseIiNS0_26OctreeContainerDataTVectorIiEENS0_20OctreeContainerEmptyIiEEE14branchHasChildERKNS0_16OctreeBranchNodeIS5_EEh@Base 1.6
 (optional=templinst)_ZNK3pcl6octree10OctreeBaseIiNS0_26OctreeContainerDataTVectorIiEENS0_20OctreeContainerEmptyIiEEE14getBranchCountEv@Base 1.6
 (optional=templinst)_ZNK3pcl6octree10OctreeBaseIiNS0_26OctreeContainerDataTVectorIiEENS0_20OctreeContainerEmptyIiEEE17findLeafRecursiveERKNS0_9OctreeKeyEjPNS0_16OctreeBranchNodeIS5_EERPNS0_14OctreeLeafNodeIS3_EE@Base 1.6
 (optional=templinst)_ZNK3pcl6octree10OctreeBaseIiNS0_26OctreeContainerDataTVectorIiEENS0_20OctreeContainerEmptyIiEEE17getBranchChildPtrERKNS0_16OctreeBranchNodeIS5_EEh@Base 1.6
 (optional=templinst)_ZNK3pcl6octree10OctreeBaseIiNS0_26OctreeContainerDataTVectorIiEENS0_20OctreeContainerEmptyIiEEE19genDataTByOctreeKeyERKNS0_9OctreeKeyERi@Base 1.6
 (optional=templinst)_ZNK3pcl6octree10OctreeBaseIiNS0_26OctreeContainerDataTVectorIiEENS0_20OctreeContainerEmptyIiEEE19getBranchBitPatternERKNS0_16OctreeBranchNodeIS5_EE@Base 1.6
 (optional=templinst)_ZNK3pcl6octree10OctreeBaseIiNS0_26OctreeContainerDataTVectorIiEENS0_20OctreeContainerEmptyIiEEE20genOctreeKeyForDataTERKiRNS0_9OctreeKeyE@Base 1.6
 (optional=templinst)_ZNK3pcl6octree10OctreeBaseIiNS0_26OctreeContainerDataTVectorIiEENS0_20OctreeContainerEmptyIiEEE21serializeTreeCallbackERKNS0_14OctreeLeafNodeIS3_EERKNS0_9OctreeKeyE@Base 1.6
 (optional=templinst)_ZNK3pcl6octree10OctreeBaseIiNS0_26OctreeContainerDataTVectorIiEENS0_20OctreeContainerEmptyIiEEE22serializeTreeRecursiveEPKNS0_16OctreeBranchNodeIS5_EERNS0_9OctreeKeyEPSt6vectorIcSaIcEEPSD_IiSaIiEE@Base 1.6
 (optional=templinst)_ZNK3pcl6octree10OctreeBaseIiNS0_26OctreeContainerDataTVectorIiEENS0_20OctreeContainerEmptyIiEEE7getDataEjjjRi@Base 1.6
 (optional=templinst)_ZNK3pcl6octree10OctreeBaseIiNS0_26OctreeContainerDataTVectorIiEENS0_20OctreeContainerEmptyIiEEE8findLeafERKNS0_9OctreeKeyE@Base 1.6
 (optional=templinst)_ZNK3pcl6octree10OctreeBaseIiNS0_26OctreeContainerDataTVectorIiEENS0_20OctreeContainerEmptyIiEEE9existLeafERKNS0_9OctreeKeyE@Base 1.6
 (optional=templinst)_ZNK3pcl6octree10OctreeBaseIiNS0_26OctreeContainerDataTVectorIiEENS0_20OctreeContainerEmptyIiEEE9existLeafEjjj@Base 1.6
 (optional=templinst)_ZNK3pcl6octree14Octree2BufBaseIiNS0_20OctreeContainerDataTIiEENS0_20OctreeContainerEmptyIiEEE11getRootNodeEv@Base 1.6
 (optional=templinst)_ZNK3pcl6octree14Octree2BufBaseIiNS0_20OctreeContainerDataTIiEENS0_20OctreeContainerEmptyIiEEE12getLeafCountEv@Base 1.6
 (optional=templinst)_ZNK3pcl6octree14Octree2BufBaseIiNS0_20OctreeContainerDataTIiEENS0_20OctreeContainerEmptyIiEEE12getTreeDepthEv@Base 1.6
 (optional=templinst)_ZNK3pcl6octree14Octree2BufBaseIiNS0_20OctreeContainerDataTIiEENS0_20OctreeContainerEmptyIiEEE14branchHasChildERKNS0_18BufferedBranchNodeIS5_EEh@Base 1.6
 (optional=templinst)_ZNK3pcl6octree14Octree2BufBaseIiNS0_20OctreeContainerDataTIiEENS0_20OctreeContainerEmptyIiEEE14getBranchCountEv@Base 1.6
 (optional=templinst)_ZNK3pcl6octree14Octree2BufBaseIiNS0_20OctreeContainerDataTIiEENS0_20OctreeContainerEmptyIiEEE16hasBranchChangesERKNS0_18BufferedBranchNodeIS5_EE@Base 1.6
 (optional=templinst)_ZNK3pcl6octree14Octree2BufBaseIiNS0_20OctreeContainerDataTIiEENS0_20OctreeContainerEmptyIiEEE17findLeafRecursiveERKNS0_9OctreeKeyEjPNS0_18BufferedBranchNodeIS5_EE@Base 1.6
 (optional=templinst)_ZNK3pcl6octree14Octree2BufBaseIiNS0_20OctreeContainerDataTIiEENS0_20OctreeContainerEmptyIiEEE17getBranchChildPtrERKNS0_18BufferedBranchNodeIS5_EEh@Base 1.6
 (optional=templinst)_ZNK3pcl6octree14Octree2BufBaseIiNS0_20OctreeContainerDataTIiEENS0_20OctreeContainerEmptyIiEEE19genDataTByOctreeKeyERKNS0_9OctreeKeyERi@Base 1.6
 (optional=templinst)_ZNK3pcl6octree14Octree2BufBaseIiNS0_20OctreeContainerDataTIiEENS0_20OctreeContainerEmptyIiEEE19getBranchBitPatternERKNS0_18BufferedBranchNodeIS5_EE@Base 1.6
 (optional=templinst)_ZNK3pcl6octree14Octree2BufBaseIiNS0_20OctreeContainerDataTIiEENS0_20OctreeContainerEmptyIiEEE19getBranchBitPatternERKNS0_18BufferedBranchNodeIS5_EEh@Base 1.6
 (optional=templinst)_ZNK3pcl6octree14Octree2BufBaseIiNS0_20OctreeContainerDataTIiEENS0_20OctreeContainerEmptyIiEEE20genOctreeKeyForDataTERKiRNS0_9OctreeKeyE@Base 1.6
 (optional=templinst)_ZNK3pcl6octree14Octree2BufBaseIiNS0_20OctreeContainerDataTIiEENS0_20OctreeContainerEmptyIiEEE22getBranchXORBitPatternERKNS0_18BufferedBranchNodeIS5_EE@Base 1.6
 (optional=templinst)_ZNK3pcl6octree14Octree2BufBaseIiNS0_20OctreeContainerDataTIiEENS0_20OctreeContainerEmptyIiEEE7getDataEjjjRi@Base 1.6
 (optional=templinst)_ZNK3pcl6octree14Octree2BufBaseIiNS0_20OctreeContainerDataTIiEENS0_20OctreeContainerEmptyIiEEE8findLeafERKNS0_9OctreeKeyE@Base 1.6
 (optional=templinst)_ZNK3pcl6octree14Octree2BufBaseIiNS0_20OctreeContainerDataTIiEENS0_20OctreeContainerEmptyIiEEE9existLeafERKNS0_9OctreeKeyE@Base 1.6
 (optional=templinst)_ZNK3pcl6octree14Octree2BufBaseIiNS0_20OctreeContainerDataTIiEENS0_20OctreeContainerEmptyIiEEE9existLeafEjjj@Base 1.6
 (optional=templinst)_ZNK3pcl6octree14Octree2BufBaseIiNS0_26OctreeContainerDataTVectorIiEENS0_20OctreeContainerEmptyIiEEE11getRootNodeEv@Base 1.6
 (optional=templinst)_ZNK3pcl6octree14Octree2BufBaseIiNS0_26OctreeContainerDataTVectorIiEENS0_20OctreeContainerEmptyIiEEE12getLeafCountEv@Base 1.6
 (optional=templinst)_ZNK3pcl6octree14Octree2BufBaseIiNS0_26OctreeContainerDataTVectorIiEENS0_20OctreeContainerEmptyIiEEE12getTreeDepthEv@Base 1.6
 (optional=templinst)_ZNK3pcl6octree14Octree2BufBaseIiNS0_26OctreeContainerDataTVectorIiEENS0_20OctreeContainerEmptyIiEEE14branchHasChildERKNS0_18BufferedBranchNodeIS5_EEh@Base 1.6
 (optional=templinst)_ZNK3pcl6octree14Octree2BufBaseIiNS0_26OctreeContainerDataTVectorIiEENS0_20OctreeContainerEmptyIiEEE14getBranchCountEv@Base 1.6
 (optional=templinst)_ZNK3pcl6octree14Octree2BufBaseIiNS0_26OctreeContainerDataTVectorIiEENS0_20OctreeContainerEmptyIiEEE16hasBranchChangesERKNS0_18BufferedBranchNodeIS5_EE@Base 1.6
 (optional=templinst)_ZNK3pcl6octree14Octree2BufBaseIiNS0_26OctreeContainerDataTVectorIiEENS0_20OctreeContainerEmptyIiEEE17findLeafRecursiveERKNS0_9OctreeKeyEjPNS0_18BufferedBranchNodeIS5_EE@Base 1.6
 (optional=templinst)_ZNK3pcl6octree14Octree2BufBaseIiNS0_26OctreeContainerDataTVectorIiEENS0_20OctreeContainerEmptyIiEEE17getBranchChildPtrERKNS0_18BufferedBranchNodeIS5_EEh@Base 1.6
 (optional=templinst)_ZNK3pcl6octree14Octree2BufBaseIiNS0_26OctreeContainerDataTVectorIiEENS0_20OctreeContainerEmptyIiEEE19genDataTByOctreeKeyERKNS0_9OctreeKeyERi@Base 1.6
 (optional=templinst)_ZNK3pcl6octree14Octree2BufBaseIiNS0_26OctreeContainerDataTVectorIiEENS0_20OctreeContainerEmptyIiEEE19getBranchBitPatternERKNS0_18BufferedBranchNodeIS5_EE@Base 1.6
 (optional=templinst)_ZNK3pcl6octree14Octree2BufBaseIiNS0_26OctreeContainerDataTVectorIiEENS0_20OctreeContainerEmptyIiEEE19getBranchBitPatternERKNS0_18BufferedBranchNodeIS5_EEh@Base 1.6
 (optional=templinst)_ZNK3pcl6octree14Octree2BufBaseIiNS0_26OctreeContainerDataTVectorIiEENS0_20OctreeContainerEmptyIiEEE20genOctreeKeyForDataTERKiRNS0_9OctreeKeyE@Base 1.6
 (optional=templinst)_ZNK3pcl6octree14Octree2BufBaseIiNS0_26OctreeContainerDataTVectorIiEENS0_20OctreeContainerEmptyIiEEE22getBranchXORBitPatternERKNS0_18BufferedBranchNodeIS5_EE@Base 1.6
 (optional=templinst)_ZNK3pcl6octree14Octree2BufBaseIiNS0_26OctreeContainerDataTVectorIiEENS0_20OctreeContainerEmptyIiEEE7getDataEjjjRi@Base 1.6
 (optional=templinst)_ZNK3pcl6octree14Octree2BufBaseIiNS0_26OctreeContainerDataTVectorIiEENS0_20OctreeContainerEmptyIiEEE8findLeafERKNS0_9OctreeKeyE@Base 1.6
 (optional=templinst)_ZNK3pcl6octree14Octree2BufBaseIiNS0_26OctreeContainerDataTVectorIiEENS0_20OctreeContainerEmptyIiEEE9existLeafERKNS0_9OctreeKeyE@Base 1.6
 (optional=templinst)_ZNK3pcl6octree14Octree2BufBaseIiNS0_26OctreeContainerDataTVectorIiEENS0_20OctreeContainerEmptyIiEEE9existLeafEjjj@Base 1.6
 (optional=templinst)_ZNK3pcl6octree14OctreeLeafNodeINS0_20OctreeContainerDataTIiEEE11getNodeTypeEv@Base 1.6
 (optional=templinst)_ZNK3pcl6octree14OctreeLeafNodeINS0_20OctreeContainerDataTIiEEE8deepCopyEv@Base 1.6
 (optional=templinst)_ZNK3pcl6octree14OctreeLeafNodeINS0_26OctreeContainerDataTVectorIiEEE11getNodeTypeEv@Base 1.6
 (optional=templinst)_ZNK3pcl6octree14OctreeLeafNodeINS0_26OctreeContainerDataTVectorIiEEE8deepCopyEv@Base 1.6
 (optional=templinst)_ZNK3pcl6octree16OctreeBranchNodeINS0_20OctreeContainerEmptyIiEEE11getNodeTypeEv@Base 1.6
 (optional=templinst)_ZNK3pcl6octree16OctreeBranchNodeINS0_20OctreeContainerEmptyIiEEE8deepCopyEv@Base 1.6
 (optional=templinst)_ZNK3pcl6octree16OctreePointCloudINS_11PointNormalENS0_26OctreeContainerDataTVectorIiEENS0_20OctreeContainerEmptyIiEENS0_10OctreeBaseIiS4_S6_EEE10getEpsilonEv@Base 1.6
 (optional=templinst)_ZNK3pcl6octree16OctreePointCloudINS_11PointNormalENS0_26OctreeContainerDataTVectorIiEENS0_20OctreeContainerEmptyIiEENS0_10OctreeBaseIiS4_S6_EEE10getIndicesEv@Base 1.6
 (optional=templinst)_ZNK3pcl6octree16OctreePointCloudINS_11PointNormalENS0_26OctreeContainerDataTVectorIiEENS0_20OctreeContainerEmptyIiEENS0_10OctreeBaseIiS4_S6_EEE12getTreeDepthEv@Base 1.6
 (optional=templinst)_ZNK3pcl6octree16OctreePointCloudINS_11PointNormalENS0_26OctreeContainerDataTVectorIiEENS0_20OctreeContainerEmptyIiEENS0_10OctreeBaseIiS4_S6_EEE13getInputCloudEv@Base 1.6
 (optional=templinst)_ZNK3pcl6octree16OctreePointCloudINS_11PointNormalENS0_26OctreeContainerDataTVectorIiEENS0_20OctreeContainerEmptyIiEENS0_10OctreeBaseIiS4_S6_EEE13getResolutionEv@Base 1.6
 (optional=templinst)_ZNK3pcl6octree16OctreePointCloudINS_11PointNormalENS0_26OctreeContainerDataTVectorIiEENS0_20OctreeContainerEmptyIiEENS0_10OctreeBaseIiS4_S6_EEE14getBoundingBoxERdSA_SA_SA_SA_SA_@Base 1.6
 (optional=templinst)_ZNK3pcl6octree16OctreePointCloudINS_11PointNormalENS0_26OctreeContainerDataTVectorIiEENS0_20OctreeContainerEmptyIiEENS0_10OctreeBaseIiS4_S6_EEE15findLeafAtPointERKS2_@Base 1.6
 (optional=templinst)_ZNK3pcl6octree16OctreePointCloudINS_11PointNormalENS0_26OctreeContainerDataTVectorIiEENS0_20OctreeContainerEmptyIiEENS0_10OctreeBaseIiS4_S6_EEE15getPointByIndexEj@Base 1.6
 (optional=templinst)_ZNK3pcl6octree16OctreePointCloudINS_11PointNormalENS0_26OctreeContainerDataTVectorIiEENS0_20OctreeContainerEmptyIiEENS0_10OctreeBaseIiS4_S6_EEE20genOctreeKeyForDataTERKiRNS0_9OctreeKeyE@Base 1.6
 (optional=templinst)_ZNK3pcl6octree16OctreePointCloudINS_11PointNormalENS0_26OctreeContainerDataTVectorIiEENS0_20OctreeContainerEmptyIiEENS0_10OctreeBaseIiS4_S6_EEE20genOctreeKeyforPointERKS2_RNS0_9OctreeKeyE@Base 1.6
 (optional=templinst)_ZNK3pcl6octree16OctreePointCloudINS_11PointNormalENS0_26OctreeContainerDataTVectorIiEENS0_20OctreeContainerEmptyIiEENS0_10OctreeBaseIiS4_S6_EEE20genOctreeKeyforPointEdddRNS0_9OctreeKeyE@Base 1.6
 (optional=templinst)_ZNK3pcl6octree16OctreePointCloudINS_11PointNormalENS0_26OctreeContainerDataTVectorIiEENS0_20OctreeContainerEmptyIiEENS0_10OctreeBaseIiS4_S6_EEE22getVoxelSquaredSideLenEj@Base 1.6
 (optional=templinst)_ZNK3pcl6octree16OctreePointCloudINS_11PointNormalENS0_26OctreeContainerDataTVectorIiEENS0_20OctreeContainerEmptyIiEENS0_10OctreeBaseIiS4_S6_EEE22getVoxelSquaredSideLenEv@Base 1.6
 (optional=templinst)_ZNK3pcl6octree16OctreePointCloudINS_11PointNormalENS0_26OctreeContainerDataTVectorIiEENS0_20OctreeContainerEmptyIiEENS0_10OctreeBaseIiS4_S6_EEE22isVoxelOccupiedAtPointERKS2_@Base 1.6
 (optional=templinst)_ZNK3pcl6octree16OctreePointCloudINS_11PointNormalENS0_26OctreeContainerDataTVectorIiEENS0_20OctreeContainerEmptyIiEENS0_10OctreeBaseIiS4_S6_EEE22isVoxelOccupiedAtPointERKi@Base 1.6
 (optional=templinst)_ZNK3pcl6octree16OctreePointCloudINS_11PointNormalENS0_26OctreeContainerDataTVectorIiEENS0_20OctreeContainerEmptyIiEENS0_10OctreeBaseIiS4_S6_EEE22isVoxelOccupiedAtPointEddd@Base 1.6
 (optional=templinst)_ZNK3pcl6octree16OctreePointCloudINS_11PointNormalENS0_26OctreeContainerDataTVectorIiEENS0_20OctreeContainerEmptyIiEENS0_10OctreeBaseIiS4_S6_EEE23getOccupiedVoxelCentersERSt6vectorIS2_N5Eigen17aligned_allocatorIS2_EEE@Base 1.6
 (optional=templinst)_ZNK3pcl6octree16OctreePointCloudINS_11PointNormalENS0_26OctreeContainerDataTVectorIiEENS0_20OctreeContainerEmptyIiEENS0_10OctreeBaseIiS4_S6_EEE23getVoxelSquaredDiameterEj@Base 1.6
 (optional=templinst)_ZNK3pcl6octree16OctreePointCloudINS_11PointNormalENS0_26OctreeContainerDataTVectorIiEENS0_20OctreeContainerEmptyIiEENS0_10OctreeBaseIiS4_S6_EEE23getVoxelSquaredDiameterEv@Base 1.6
 (optional=templinst)_ZNK3pcl6octree16OctreePointCloudINS_11PointNormalENS0_26OctreeContainerDataTVectorIiEENS0_20OctreeContainerEmptyIiEENS0_10OctreeBaseIiS4_S6_EEE24isPointWithinBoundingBoxERKS2_@Base 1.6
 (optional=templinst)_ZNK3pcl6octree16OctreePointCloudINS_11PointNormalENS0_26OctreeContainerDataTVectorIiEENS0_20OctreeContainerEmptyIiEENS0_10OctreeBaseIiS4_S6_EEE27genVoxelBoundsFromOctreeKeyERKNS0_9OctreeKeyEjRN5Eigen6MatrixIfLi3ELi1ELi0ELi3ELi1EEESG_@Base 1.6
 (optional=templinst)_ZNK3pcl6octree16OctreePointCloudINS_11PointNormalENS0_26OctreeContainerDataTVectorIiEENS0_20OctreeContainerEmptyIiEENS0_10OctreeBaseIiS4_S6_EEE27genVoxelCenterFromOctreeKeyERKNS0_9OctreeKeyEjRS2_@Base 1.6
 (optional=templinst)_ZNK3pcl6octree16OctreePointCloudINS_11PointNormalENS0_26OctreeContainerDataTVectorIiEENS0_20OctreeContainerEmptyIiEENS0_10OctreeBaseIiS4_S6_EEE30genLeafNodeCenterFromOctreeKeyERKNS0_9OctreeKeyERS2_@Base 1.6
 (optional=templinst)_ZNK3pcl6octree16OctreePointCloudINS_11PointNormalENS0_26OctreeContainerDataTVectorIiEENS0_20OctreeContainerEmptyIiEENS0_10OctreeBaseIiS4_S6_EEE32getOccupiedVoxelCentersRecursiveEPKNS0_16OctreeBranchNodeIS6_EERKNS0_9OctreeKeyERSt6vectorIS2_N5Eigen17aligned_allocatorIS2_EEE@Base 1.6
 (optional=templinst)_ZNK3pcl6octree16OctreePointCloudINS_11PointNormalENS0_26OctreeContainerDataTVectorIiEENS0_20OctreeContainerEmptyIiEENS0_14Octree2BufBaseIiS4_S6_EEE10getEpsilonEv@Base 1.6
 (optional=templinst)_ZNK3pcl6octree16OctreePointCloudINS_11PointNormalENS0_26OctreeContainerDataTVectorIiEENS0_20OctreeContainerEmptyIiEENS0_14Octree2BufBaseIiS4_S6_EEE10getIndicesEv@Base 1.6
 (optional=templinst)_ZNK3pcl6octree16OctreePointCloudINS_11PointNormalENS0_26OctreeContainerDataTVectorIiEENS0_20OctreeContainerEmptyIiEENS0_14Octree2BufBaseIiS4_S6_EEE12getTreeDepthEv@Base 1.6
 (optional=templinst)_ZNK3pcl6octree16OctreePointCloudINS_11PointNormalENS0_26OctreeContainerDataTVectorIiEENS0_20OctreeContainerEmptyIiEENS0_14Octree2BufBaseIiS4_S6_EEE13getInputCloudEv@Base 1.6
 (optional=templinst)_ZNK3pcl6octree16OctreePointCloudINS_11PointNormalENS0_26OctreeContainerDataTVectorIiEENS0_20OctreeContainerEmptyIiEENS0_14Octree2BufBaseIiS4_S6_EEE13getResolutionEv@Base 1.6
 (optional=templinst)_ZNK3pcl6octree16OctreePointCloudINS_11PointNormalENS0_26OctreeContainerDataTVectorIiEENS0_20OctreeContainerEmptyIiEENS0_14Octree2BufBaseIiS4_S6_EEE14getBoundingBoxERdSA_SA_SA_SA_SA_@Base 1.6
 (optional=templinst)_ZNK3pcl6octree16OctreePointCloudINS_11PointNormalENS0_26OctreeContainerDataTVectorIiEENS0_20OctreeContainerEmptyIiEENS0_14Octree2BufBaseIiS4_S6_EEE15findLeafAtPointERKS2_@Base 1.6
 (optional=templinst)_ZNK3pcl6octree16OctreePointCloudINS_11PointNormalENS0_26OctreeContainerDataTVectorIiEENS0_20OctreeContainerEmptyIiEENS0_14Octree2BufBaseIiS4_S6_EEE15getPointByIndexEj@Base 1.6
 (optional=templinst)_ZNK3pcl6octree16OctreePointCloudINS_11PointNormalENS0_26OctreeContainerDataTVectorIiEENS0_20OctreeContainerEmptyIiEENS0_14Octree2BufBaseIiS4_S6_EEE20genOctreeKeyForDataTERKiRNS0_9OctreeKeyE@Base 1.6
 (optional=templinst)_ZNK3pcl6octree16OctreePointCloudINS_11PointNormalENS0_26OctreeContainerDataTVectorIiEENS0_20OctreeContainerEmptyIiEENS0_14Octree2BufBaseIiS4_S6_EEE20genOctreeKeyforPointERKS2_RNS0_9OctreeKeyE@Base 1.6
 (optional=templinst)_ZNK3pcl6octree16OctreePointCloudINS_11PointNormalENS0_26OctreeContainerDataTVectorIiEENS0_20OctreeContainerEmptyIiEENS0_14Octree2BufBaseIiS4_S6_EEE20genOctreeKeyforPointEdddRNS0_9OctreeKeyE@Base 1.6
 (optional=templinst)_ZNK3pcl6octree16OctreePointCloudINS_11PointNormalENS0_26OctreeContainerDataTVectorIiEENS0_20OctreeContainerEmptyIiEENS0_14Octree2BufBaseIiS4_S6_EEE22getVoxelSquaredSideLenEj@Base 1.6
 (optional=templinst)_ZNK3pcl6octree16OctreePointCloudINS_11PointNormalENS0_26OctreeContainerDataTVectorIiEENS0_20OctreeContainerEmptyIiEENS0_14Octree2BufBaseIiS4_S6_EEE22getVoxelSquaredSideLenEv@Base 1.6
 (optional=templinst)_ZNK3pcl6octree16OctreePointCloudINS_11PointNormalENS0_26OctreeContainerDataTVectorIiEENS0_20OctreeContainerEmptyIiEENS0_14Octree2BufBaseIiS4_S6_EEE22isVoxelOccupiedAtPointERKS2_@Base 1.6
 (optional=templinst)_ZNK3pcl6octree16OctreePointCloudINS_11PointNormalENS0_26OctreeContainerDataTVectorIiEENS0_20OctreeContainerEmptyIiEENS0_14Octree2BufBaseIiS4_S6_EEE22isVoxelOccupiedAtPointERKi@Base 1.6
 (optional=templinst)_ZNK3pcl6octree16OctreePointCloudINS_11PointNormalENS0_26OctreeContainerDataTVectorIiEENS0_20OctreeContainerEmptyIiEENS0_14Octree2BufBaseIiS4_S6_EEE22isVoxelOccupiedAtPointEddd@Base 1.6
 (optional=templinst)_ZNK3pcl6octree16OctreePointCloudINS_11PointNormalENS0_26OctreeContainerDataTVectorIiEENS0_20OctreeContainerEmptyIiEENS0_14Octree2BufBaseIiS4_S6_EEE23getOccupiedVoxelCentersERSt6vectorIS2_N5Eigen17aligned_allocatorIS2_EEE@Base 1.6
 (optional=templinst)_ZNK3pcl6octree16OctreePointCloudINS_11PointNormalENS0_26OctreeContainerDataTVectorIiEENS0_20OctreeContainerEmptyIiEENS0_14Octree2BufBaseIiS4_S6_EEE23getVoxelSquaredDiameterEj@Base 1.6
 (optional=templinst)_ZNK3pcl6octree16OctreePointCloudINS_11PointNormalENS0_26OctreeContainerDataTVectorIiEENS0_20OctreeContainerEmptyIiEENS0_14Octree2BufBaseIiS4_S6_EEE23getVoxelSquaredDiameterEv@Base 1.6
 (optional=templinst)_ZNK3pcl6octree16OctreePointCloudINS_11PointNormalENS0_26OctreeContainerDataTVectorIiEENS0_20OctreeContainerEmptyIiEENS0_14Octree2BufBaseIiS4_S6_EEE24isPointWithinBoundingBoxERKS2_@Base 1.6
 (optional=templinst)_ZNK3pcl6octree16OctreePointCloudINS_11PointNormalENS0_26OctreeContainerDataTVectorIiEENS0_20OctreeContainerEmptyIiEENS0_14Octree2BufBaseIiS4_S6_EEE27genVoxelBoundsFromOctreeKeyERKNS0_9OctreeKeyEjRN5Eigen6MatrixIfLi3ELi1ELi0ELi3ELi1EEESG_@Base 1.6
 (optional=templinst)_ZNK3pcl6octree16OctreePointCloudINS_11PointNormalENS0_26OctreeContainerDataTVectorIiEENS0_20OctreeContainerEmptyIiEENS0_14Octree2BufBaseIiS4_S6_EEE27genVoxelCenterFromOctreeKeyERKNS0_9OctreeKeyEjRS2_@Base 1.6
 (optional=templinst)_ZNK3pcl6octree16OctreePointCloudINS_11PointNormalENS0_26OctreeContainerDataTVectorIiEENS0_20OctreeContainerEmptyIiEENS0_14Octree2BufBaseIiS4_S6_EEE30genLeafNodeCenterFromOctreeKeyERKNS0_9OctreeKeyERS2_@Base 1.6
 (optional=templinst)_ZNK3pcl6octree16OctreePointCloudINS_11PointNormalENS0_26OctreeContainerDataTVectorIiEENS0_20OctreeContainerEmptyIiEENS0_14Octree2BufBaseIiS4_S6_EEE32getOccupiedVoxelCentersRecursiveEPKNS0_18BufferedBranchNodeIS6_EERKNS0_9OctreeKeyERSt6vectorIS2_N5Eigen17aligned_allocatorIS2_EEE@Base 1.6
 (optional=templinst)_ZNK3pcl6octree16OctreePointCloudINS_11PointXYZHSVENS0_26OctreeContainerDataTVectorIiEENS0_20OctreeContainerEmptyIiEENS0_10OctreeBaseIiS4_S6_EEE10getEpsilonEv@Base 1.6
 (optional=templinst)_ZNK3pcl6octree16OctreePointCloudINS_11PointXYZHSVENS0_26OctreeContainerDataTVectorIiEENS0_20OctreeContainerEmptyIiEENS0_10OctreeBaseIiS4_S6_EEE10getIndicesEv@Base 1.6
 (optional=templinst)_ZNK3pcl6octree16OctreePointCloudINS_11PointXYZHSVENS0_26OctreeContainerDataTVectorIiEENS0_20OctreeContainerEmptyIiEENS0_10OctreeBaseIiS4_S6_EEE12getTreeDepthEv@Base 1.6
 (optional=templinst)_ZNK3pcl6octree16OctreePointCloudINS_11PointXYZHSVENS0_26OctreeContainerDataTVectorIiEENS0_20OctreeContainerEmptyIiEENS0_10OctreeBaseIiS4_S6_EEE13getInputCloudEv@Base 1.6
 (optional=templinst)_ZNK3pcl6octree16OctreePointCloudINS_11PointXYZHSVENS0_26OctreeContainerDataTVectorIiEENS0_20OctreeContainerEmptyIiEENS0_10OctreeBaseIiS4_S6_EEE13getResolutionEv@Base 1.6
 (optional=templinst)_ZNK3pcl6octree16OctreePointCloudINS_11PointXYZHSVENS0_26OctreeContainerDataTVectorIiEENS0_20OctreeContainerEmptyIiEENS0_10OctreeBaseIiS4_S6_EEE14getBoundingBoxERdSA_SA_SA_SA_SA_@Base 1.6
 (optional=templinst)_ZNK3pcl6octree16OctreePointCloudINS_11PointXYZHSVENS0_26OctreeContainerDataTVectorIiEENS0_20OctreeContainerEmptyIiEENS0_10OctreeBaseIiS4_S6_EEE15findLeafAtPointERKS2_@Base 1.6
 (optional=templinst)_ZNK3pcl6octree16OctreePointCloudINS_11PointXYZHSVENS0_26OctreeContainerDataTVectorIiEENS0_20OctreeContainerEmptyIiEENS0_10OctreeBaseIiS4_S6_EEE15getPointByIndexEj@Base 1.6
 (optional=templinst)_ZNK3pcl6octree16OctreePointCloudINS_11PointXYZHSVENS0_26OctreeContainerDataTVectorIiEENS0_20OctreeContainerEmptyIiEENS0_10OctreeBaseIiS4_S6_EEE20genOctreeKeyForDataTERKiRNS0_9OctreeKeyE@Base 1.6
 (optional=templinst)_ZNK3pcl6octree16OctreePointCloudINS_11PointXYZHSVENS0_26OctreeContainerDataTVectorIiEENS0_20OctreeContainerEmptyIiEENS0_10OctreeBaseIiS4_S6_EEE20genOctreeKeyforPointERKS2_RNS0_9OctreeKeyE@Base 1.6
 (optional=templinst)_ZNK3pcl6octree16OctreePointCloudINS_11PointXYZHSVENS0_26OctreeContainerDataTVectorIiEENS0_20OctreeContainerEmptyIiEENS0_10OctreeBaseIiS4_S6_EEE20genOctreeKeyforPointEdddRNS0_9OctreeKeyE@Base 1.6
 (optional=templinst)_ZNK3pcl6octree16OctreePointCloudINS_11PointXYZHSVENS0_26OctreeContainerDataTVectorIiEENS0_20OctreeContainerEmptyIiEENS0_10OctreeBaseIiS4_S6_EEE22getVoxelSquaredSideLenEj@Base 1.6
 (optional=templinst)_ZNK3pcl6octree16OctreePointCloudINS_11PointXYZHSVENS0_26OctreeContainerDataTVectorIiEENS0_20OctreeContainerEmptyIiEENS0_10OctreeBaseIiS4_S6_EEE22getVoxelSquaredSideLenEv@Base 1.6
 (optional=templinst)_ZNK3pcl6octree16OctreePointCloudINS_11PointXYZHSVENS0_26OctreeContainerDataTVectorIiEENS0_20OctreeContainerEmptyIiEENS0_10OctreeBaseIiS4_S6_EEE22isVoxelOccupiedAtPointERKS2_@Base 1.6
 (optional=templinst)_ZNK3pcl6octree16OctreePointCloudINS_11PointXYZHSVENS0_26OctreeContainerDataTVectorIiEENS0_20OctreeContainerEmptyIiEENS0_10OctreeBaseIiS4_S6_EEE22isVoxelOccupiedAtPointERKi@Base 1.6
 (optional=templinst)_ZNK3pcl6octree16OctreePointCloudINS_11PointXYZHSVENS0_26OctreeContainerDataTVectorIiEENS0_20OctreeContainerEmptyIiEENS0_10OctreeBaseIiS4_S6_EEE22isVoxelOccupiedAtPointEddd@Base 1.6
 (optional=templinst)_ZNK3pcl6octree16OctreePointCloudINS_11PointXYZHSVENS0_26OctreeContainerDataTVectorIiEENS0_20OctreeContainerEmptyIiEENS0_10OctreeBaseIiS4_S6_EEE23getOccupiedVoxelCentersERSt6vectorIS2_N5Eigen17aligned_allocatorIS2_EEE@Base 1.6
 (optional=templinst)_ZNK3pcl6octree16OctreePointCloudINS_11PointXYZHSVENS0_26OctreeContainerDataTVectorIiEENS0_20OctreeContainerEmptyIiEENS0_10OctreeBaseIiS4_S6_EEE23getVoxelSquaredDiameterEj@Base 1.6
 (optional=templinst)_ZNK3pcl6octree16OctreePointCloudINS_11PointXYZHSVENS0_26OctreeContainerDataTVectorIiEENS0_20OctreeContainerEmptyIiEENS0_10OctreeBaseIiS4_S6_EEE23getVoxelSquaredDiameterEv@Base 1.6
 (optional=templinst)_ZNK3pcl6octree16OctreePointCloudINS_11PointXYZHSVENS0_26OctreeContainerDataTVectorIiEENS0_20OctreeContainerEmptyIiEENS0_10OctreeBaseIiS4_S6_EEE24isPointWithinBoundingBoxERKS2_@Base 1.6
 (optional=templinst)_ZNK3pcl6octree16OctreePointCloudINS_11PointXYZHSVENS0_26OctreeContainerDataTVectorIiEENS0_20OctreeContainerEmptyIiEENS0_10OctreeBaseIiS4_S6_EEE27genVoxelBoundsFromOctreeKeyERKNS0_9OctreeKeyEjRN5Eigen6MatrixIfLi3ELi1ELi0ELi3ELi1EEESG_@Base 1.6
 (optional=templinst)_ZNK3pcl6octree16OctreePointCloudINS_11PointXYZHSVENS0_26OctreeContainerDataTVectorIiEENS0_20OctreeContainerEmptyIiEENS0_10OctreeBaseIiS4_S6_EEE27genVoxelCenterFromOctreeKeyERKNS0_9OctreeKeyEjRS2_@Base 1.6
 (optional=templinst)_ZNK3pcl6octree16OctreePointCloudINS_11PointXYZHSVENS0_26OctreeContainerDataTVectorIiEENS0_20OctreeContainerEmptyIiEENS0_10OctreeBaseIiS4_S6_EEE30genLeafNodeCenterFromOctreeKeyERKNS0_9OctreeKeyERS2_@Base 1.6
 (optional=templinst)_ZNK3pcl6octree16OctreePointCloudINS_11PointXYZHSVENS0_26OctreeContainerDataTVectorIiEENS0_20OctreeContainerEmptyIiEENS0_10OctreeBaseIiS4_S6_EEE32getOccupiedVoxelCentersRecursiveEPKNS0_16OctreeBranchNodeIS6_EERKNS0_9OctreeKeyERSt6vectorIS2_N5Eigen17aligned_allocatorIS2_EEE@Base 1.6
 (optional=templinst)_ZNK3pcl6octree16OctreePointCloudINS_11PointXYZHSVENS0_26OctreeContainerDataTVectorIiEENS0_20OctreeContainerEmptyIiEENS0_14Octree2BufBaseIiS4_S6_EEE10getEpsilonEv@Base 1.6
 (optional=templinst)_ZNK3pcl6octree16OctreePointCloudINS_11PointXYZHSVENS0_26OctreeContainerDataTVectorIiEENS0_20OctreeContainerEmptyIiEENS0_14Octree2BufBaseIiS4_S6_EEE10getIndicesEv@Base 1.6
 (optional=templinst)_ZNK3pcl6octree16OctreePointCloudINS_11PointXYZHSVENS0_26OctreeContainerDataTVectorIiEENS0_20OctreeContainerEmptyIiEENS0_14Octree2BufBaseIiS4_S6_EEE12getTreeDepthEv@Base 1.6
 (optional=templinst)_ZNK3pcl6octree16OctreePointCloudINS_11PointXYZHSVENS0_26OctreeContainerDataTVectorIiEENS0_20OctreeContainerEmptyIiEENS0_14Octree2BufBaseIiS4_S6_EEE13getInputCloudEv@Base 1.6
 (optional=templinst)_ZNK3pcl6octree16OctreePointCloudINS_11PointXYZHSVENS0_26OctreeContainerDataTVectorIiEENS0_20OctreeContainerEmptyIiEENS0_14Octree2BufBaseIiS4_S6_EEE13getResolutionEv@Base 1.6
 (optional=templinst)_ZNK3pcl6octree16OctreePointCloudINS_11PointXYZHSVENS0_26OctreeContainerDataTVectorIiEENS0_20OctreeContainerEmptyIiEENS0_14Octree2BufBaseIiS4_S6_EEE14getBoundingBoxERdSA_SA_SA_SA_SA_@Base 1.6
 (optional=templinst)_ZNK3pcl6octree16OctreePointCloudINS_11PointXYZHSVENS0_26OctreeContainerDataTVectorIiEENS0_20OctreeContainerEmptyIiEENS0_14Octree2BufBaseIiS4_S6_EEE15findLeafAtPointERKS2_@Base 1.6
 (optional=templinst)_ZNK3pcl6octree16OctreePointCloudINS_11PointXYZHSVENS0_26OctreeContainerDataTVectorIiEENS0_20OctreeContainerEmptyIiEENS0_14Octree2BufBaseIiS4_S6_EEE15getPointByIndexEj@Base 1.6
 (optional=templinst)_ZNK3pcl6octree16OctreePointCloudINS_11PointXYZHSVENS0_26OctreeContainerDataTVectorIiEENS0_20OctreeContainerEmptyIiEENS0_14Octree2BufBaseIiS4_S6_EEE20genOctreeKeyForDataTERKiRNS0_9OctreeKeyE@Base 1.6
 (optional=templinst)_ZNK3pcl6octree16OctreePointCloudINS_11PointXYZHSVENS0_26OctreeContainerDataTVectorIiEENS0_20OctreeContainerEmptyIiEENS0_14Octree2BufBaseIiS4_S6_EEE20genOctreeKeyforPointERKS2_RNS0_9OctreeKeyE@Base 1.6
 (optional=templinst)_ZNK3pcl6octree16OctreePointCloudINS_11PointXYZHSVENS0_26OctreeContainerDataTVectorIiEENS0_20OctreeContainerEmptyIiEENS0_14Octree2BufBaseIiS4_S6_EEE20genOctreeKeyforPointEdddRNS0_9OctreeKeyE@Base 1.6
 (optional=templinst)_ZNK3pcl6octree16OctreePointCloudINS_11PointXYZHSVENS0_26OctreeContainerDataTVectorIiEENS0_20OctreeContainerEmptyIiEENS0_14Octree2BufBaseIiS4_S6_EEE22getVoxelSquaredSideLenEj@Base 1.6
 (optional=templinst)_ZNK3pcl6octree16OctreePointCloudINS_11PointXYZHSVENS0_26OctreeContainerDataTVectorIiEENS0_20OctreeContainerEmptyIiEENS0_14Octree2BufBaseIiS4_S6_EEE22getVoxelSquaredSideLenEv@Base 1.6
 (optional=templinst)_ZNK3pcl6octree16OctreePointCloudINS_11PointXYZHSVENS0_26OctreeContainerDataTVectorIiEENS0_20OctreeContainerEmptyIiEENS0_14Octree2BufBaseIiS4_S6_EEE22isVoxelOccupiedAtPointERKS2_@Base 1.6
 (optional=templinst)_ZNK3pcl6octree16OctreePointCloudINS_11PointXYZHSVENS0_26OctreeContainerDataTVectorIiEENS0_20OctreeContainerEmptyIiEENS0_14Octree2BufBaseIiS4_S6_EEE22isVoxelOccupiedAtPointERKi@Base 1.6
 (optional=templinst)_ZNK3pcl6octree16OctreePointCloudINS_11PointXYZHSVENS0_26OctreeContainerDataTVectorIiEENS0_20OctreeContainerEmptyIiEENS0_14Octree2BufBaseIiS4_S6_EEE22isVoxelOccupiedAtPointEddd@Base 1.6
 (optional=templinst)_ZNK3pcl6octree16OctreePointCloudINS_11PointXYZHSVENS0_26OctreeContainerDataTVectorIiEENS0_20OctreeContainerEmptyIiEENS0_14Octree2BufBaseIiS4_S6_EEE23getOccupiedVoxelCentersERSt6vectorIS2_N5Eigen17aligned_allocatorIS2_EEE@Base 1.6
 (optional=templinst)_ZNK3pcl6octree16OctreePointCloudINS_11PointXYZHSVENS0_26OctreeContainerDataTVectorIiEENS0_20OctreeContainerEmptyIiEENS0_14Octree2BufBaseIiS4_S6_EEE23getVoxelSquaredDiameterEj@Base 1.6
 (optional=templinst)_ZNK3pcl6octree16OctreePointCloudINS_11PointXYZHSVENS0_26OctreeContainerDataTVectorIiEENS0_20OctreeContainerEmptyIiEENS0_14Octree2BufBaseIiS4_S6_EEE23getVoxelSquaredDiameterEv@Base 1.6
 (optional=templinst)_ZNK3pcl6octree16OctreePointCloudINS_11PointXYZHSVENS0_26OctreeContainerDataTVectorIiEENS0_20OctreeContainerEmptyIiEENS0_14Octree2BufBaseIiS4_S6_EEE24isPointWithinBoundingBoxERKS2_@Base 1.6
 (optional=templinst)_ZNK3pcl6octree16OctreePointCloudINS_11PointXYZHSVENS0_26OctreeContainerDataTVectorIiEENS0_20OctreeContainerEmptyIiEENS0_14Octree2BufBaseIiS4_S6_EEE27genVoxelBoundsFromOctreeKeyERKNS0_9OctreeKeyEjRN5Eigen6MatrixIfLi3ELi1ELi0ELi3ELi1EEESG_@Base 1.6
 (optional=templinst)_ZNK3pcl6octree16OctreePointCloudINS_11PointXYZHSVENS0_26OctreeContainerDataTVectorIiEENS0_20OctreeContainerEmptyIiEENS0_14Octree2BufBaseIiS4_S6_EEE27genVoxelCenterFromOctreeKeyERKNS0_9OctreeKeyEjRS2_@Base 1.6
 (optional=templinst)_ZNK3pcl6octree16OctreePointCloudINS_11PointXYZHSVENS0_26OctreeContainerDataTVectorIiEENS0_20OctreeContainerEmptyIiEENS0_14Octree2BufBaseIiS4_S6_EEE30genLeafNodeCenterFromOctreeKeyERKNS0_9OctreeKeyERS2_@Base 1.6
 (optional=templinst)_ZNK3pcl6octree16OctreePointCloudINS_11PointXYZHSVENS0_26OctreeContainerDataTVectorIiEENS0_20OctreeContainerEmptyIiEENS0_14Octree2BufBaseIiS4_S6_EEE32getOccupiedVoxelCentersRecursiveEPKNS0_18BufferedBranchNodeIS6_EERKNS0_9OctreeKeyERSt6vectorIS2_N5Eigen17aligned_allocatorIS2_EEE@Base 1.6
 (optional=templinst)_ZNK3pcl6octree16OctreePointCloudINS_11PointXYZRGBENS0_26OctreeContainerDataTVectorIiEENS0_20OctreeContainerEmptyIiEENS0_10OctreeBaseIiS4_S6_EEE10getEpsilonEv@Base 1.6
 (optional=templinst)_ZNK3pcl6octree16OctreePointCloudINS_11PointXYZRGBENS0_26OctreeContainerDataTVectorIiEENS0_20OctreeContainerEmptyIiEENS0_10OctreeBaseIiS4_S6_EEE10getIndicesEv@Base 1.6
 (optional=templinst)_ZNK3pcl6octree16OctreePointCloudINS_11PointXYZRGBENS0_26OctreeContainerDataTVectorIiEENS0_20OctreeContainerEmptyIiEENS0_10OctreeBaseIiS4_S6_EEE12getTreeDepthEv@Base 1.6
 (optional=templinst)_ZNK3pcl6octree16OctreePointCloudINS_11PointXYZRGBENS0_26OctreeContainerDataTVectorIiEENS0_20OctreeContainerEmptyIiEENS0_10OctreeBaseIiS4_S6_EEE13getInputCloudEv@Base 1.6
 (optional=templinst)_ZNK3pcl6octree16OctreePointCloudINS_11PointXYZRGBENS0_26OctreeContainerDataTVectorIiEENS0_20OctreeContainerEmptyIiEENS0_10OctreeBaseIiS4_S6_EEE13getResolutionEv@Base 1.6
 (optional=templinst)_ZNK3pcl6octree16OctreePointCloudINS_11PointXYZRGBENS0_26OctreeContainerDataTVectorIiEENS0_20OctreeContainerEmptyIiEENS0_10OctreeBaseIiS4_S6_EEE14getBoundingBoxERdSA_SA_SA_SA_SA_@Base 1.6
 (optional=templinst)_ZNK3pcl6octree16OctreePointCloudINS_11PointXYZRGBENS0_26OctreeContainerDataTVectorIiEENS0_20OctreeContainerEmptyIiEENS0_10OctreeBaseIiS4_S6_EEE15findLeafAtPointERKS2_@Base 1.6
 (optional=templinst)_ZNK3pcl6octree16OctreePointCloudINS_11PointXYZRGBENS0_26OctreeContainerDataTVectorIiEENS0_20OctreeContainerEmptyIiEENS0_10OctreeBaseIiS4_S6_EEE15getPointByIndexEj@Base 1.6
 (optional=templinst)_ZNK3pcl6octree16OctreePointCloudINS_11PointXYZRGBENS0_26OctreeContainerDataTVectorIiEENS0_20OctreeContainerEmptyIiEENS0_10OctreeBaseIiS4_S6_EEE20genOctreeKeyForDataTERKiRNS0_9OctreeKeyE@Base 1.6
 (optional=templinst)_ZNK3pcl6octree16OctreePointCloudINS_11PointXYZRGBENS0_26OctreeContainerDataTVectorIiEENS0_20OctreeContainerEmptyIiEENS0_10OctreeBaseIiS4_S6_EEE20genOctreeKeyforPointERKS2_RNS0_9OctreeKeyE@Base 1.6
 (optional=templinst)_ZNK3pcl6octree16OctreePointCloudINS_11PointXYZRGBENS0_26OctreeContainerDataTVectorIiEENS0_20OctreeContainerEmptyIiEENS0_10OctreeBaseIiS4_S6_EEE20genOctreeKeyforPointEdddRNS0_9OctreeKeyE@Base 1.6
 (optional=templinst)_ZNK3pcl6octree16OctreePointCloudINS_11PointXYZRGBENS0_26OctreeContainerDataTVectorIiEENS0_20OctreeContainerEmptyIiEENS0_10OctreeBaseIiS4_S6_EEE22getVoxelSquaredSideLenEj@Base 1.6
 (optional=templinst)_ZNK3pcl6octree16OctreePointCloudINS_11PointXYZRGBENS0_26OctreeContainerDataTVectorIiEENS0_20OctreeContainerEmptyIiEENS0_10OctreeBaseIiS4_S6_EEE22getVoxelSquaredSideLenEv@Base 1.6
 (optional=templinst)_ZNK3pcl6octree16OctreePointCloudINS_11PointXYZRGBENS0_26OctreeContainerDataTVectorIiEENS0_20OctreeContainerEmptyIiEENS0_10OctreeBaseIiS4_S6_EEE22isVoxelOccupiedAtPointERKS2_@Base 1.6
 (optional=templinst)_ZNK3pcl6octree16OctreePointCloudINS_11PointXYZRGBENS0_26OctreeContainerDataTVectorIiEENS0_20OctreeContainerEmptyIiEENS0_10OctreeBaseIiS4_S6_EEE22isVoxelOccupiedAtPointERKi@Base 1.6
 (optional=templinst)_ZNK3pcl6octree16OctreePointCloudINS_11PointXYZRGBENS0_26OctreeContainerDataTVectorIiEENS0_20OctreeContainerEmptyIiEENS0_10OctreeBaseIiS4_S6_EEE22isVoxelOccupiedAtPointEddd@Base 1.6
 (optional=templinst)_ZNK3pcl6octree16OctreePointCloudINS_11PointXYZRGBENS0_26OctreeContainerDataTVectorIiEENS0_20OctreeContainerEmptyIiEENS0_10OctreeBaseIiS4_S6_EEE23getOccupiedVoxelCentersERSt6vectorIS2_N5Eigen17aligned_allocatorIS2_EEE@Base 1.6
 (optional=templinst)_ZNK3pcl6octree16OctreePointCloudINS_11PointXYZRGBENS0_26OctreeContainerDataTVectorIiEENS0_20OctreeContainerEmptyIiEENS0_10OctreeBaseIiS4_S6_EEE23getVoxelSquaredDiameterEj@Base 1.6
 (optional=templinst)_ZNK3pcl6octree16OctreePointCloudINS_11PointXYZRGBENS0_26OctreeContainerDataTVectorIiEENS0_20OctreeContainerEmptyIiEENS0_10OctreeBaseIiS4_S6_EEE23getVoxelSquaredDiameterEv@Base 1.6
 (optional=templinst)_ZNK3pcl6octree16OctreePointCloudINS_11PointXYZRGBENS0_26OctreeContainerDataTVectorIiEENS0_20OctreeContainerEmptyIiEENS0_10OctreeBaseIiS4_S6_EEE24isPointWithinBoundingBoxERKS2_@Base 1.6
 (optional=templinst)_ZNK3pcl6octree16OctreePointCloudINS_11PointXYZRGBENS0_26OctreeContainerDataTVectorIiEENS0_20OctreeContainerEmptyIiEENS0_10OctreeBaseIiS4_S6_EEE27genVoxelBoundsFromOctreeKeyERKNS0_9OctreeKeyEjRN5Eigen6MatrixIfLi3ELi1ELi0ELi3ELi1EEESG_@Base 1.6
 (optional=templinst)_ZNK3pcl6octree16OctreePointCloudINS_11PointXYZRGBENS0_26OctreeContainerDataTVectorIiEENS0_20OctreeContainerEmptyIiEENS0_10OctreeBaseIiS4_S6_EEE27genVoxelCenterFromOctreeKeyERKNS0_9OctreeKeyEjRS2_@Base 1.6
 (optional=templinst)_ZNK3pcl6octree16OctreePointCloudINS_11PointXYZRGBENS0_26OctreeContainerDataTVectorIiEENS0_20OctreeContainerEmptyIiEENS0_10OctreeBaseIiS4_S6_EEE30genLeafNodeCenterFromOctreeKeyERKNS0_9OctreeKeyERS2_@Base 1.6
 (optional=templinst)_ZNK3pcl6octree16OctreePointCloudINS_11PointXYZRGBENS0_26OctreeContainerDataTVectorIiEENS0_20OctreeContainerEmptyIiEENS0_10OctreeBaseIiS4_S6_EEE32getOccupiedVoxelCentersRecursiveEPKNS0_16OctreeBranchNodeIS6_EERKNS0_9OctreeKeyERSt6vectorIS2_N5Eigen17aligned_allocatorIS2_EEE@Base 1.6
 (optional=templinst)_ZNK3pcl6octree16OctreePointCloudINS_11PointXYZRGBENS0_26OctreeContainerDataTVectorIiEENS0_20OctreeContainerEmptyIiEENS0_14Octree2BufBaseIiS4_S6_EEE10getEpsilonEv@Base 1.6
 (optional=templinst)_ZNK3pcl6octree16OctreePointCloudINS_11PointXYZRGBENS0_26OctreeContainerDataTVectorIiEENS0_20OctreeContainerEmptyIiEENS0_14Octree2BufBaseIiS4_S6_EEE10getIndicesEv@Base 1.6
 (optional=templinst)_ZNK3pcl6octree16OctreePointCloudINS_11PointXYZRGBENS0_26OctreeContainerDataTVectorIiEENS0_20OctreeContainerEmptyIiEENS0_14Octree2BufBaseIiS4_S6_EEE12getTreeDepthEv@Base 1.6
 (optional=templinst)_ZNK3pcl6octree16OctreePointCloudINS_11PointXYZRGBENS0_26OctreeContainerDataTVectorIiEENS0_20OctreeContainerEmptyIiEENS0_14Octree2BufBaseIiS4_S6_EEE13getInputCloudEv@Base 1.6
 (optional=templinst)_ZNK3pcl6octree16OctreePointCloudINS_11PointXYZRGBENS0_26OctreeContainerDataTVectorIiEENS0_20OctreeContainerEmptyIiEENS0_14Octree2BufBaseIiS4_S6_EEE13getResolutionEv@Base 1.6
 (optional=templinst)_ZNK3pcl6octree16OctreePointCloudINS_11PointXYZRGBENS0_26OctreeContainerDataTVectorIiEENS0_20OctreeContainerEmptyIiEENS0_14Octree2BufBaseIiS4_S6_EEE14getBoundingBoxERdSA_SA_SA_SA_SA_@Base 1.6
 (optional=templinst)_ZNK3pcl6octree16OctreePointCloudINS_11PointXYZRGBENS0_26OctreeContainerDataTVectorIiEENS0_20OctreeContainerEmptyIiEENS0_14Octree2BufBaseIiS4_S6_EEE15findLeafAtPointERKS2_@Base 1.6
 (optional=templinst)_ZNK3pcl6octree16OctreePointCloudINS_11PointXYZRGBENS0_26OctreeContainerDataTVectorIiEENS0_20OctreeContainerEmptyIiEENS0_14Octree2BufBaseIiS4_S6_EEE15getPointByIndexEj@Base 1.6
 (optional=templinst)_ZNK3pcl6octree16OctreePointCloudINS_11PointXYZRGBENS0_26OctreeContainerDataTVectorIiEENS0_20OctreeContainerEmptyIiEENS0_14Octree2BufBaseIiS4_S6_EEE20genOctreeKeyForDataTERKiRNS0_9OctreeKeyE@Base 1.6
 (optional=templinst)_ZNK3pcl6octree16OctreePointCloudINS_11PointXYZRGBENS0_26OctreeContainerDataTVectorIiEENS0_20OctreeContainerEmptyIiEENS0_14Octree2BufBaseIiS4_S6_EEE20genOctreeKeyforPointERKS2_RNS0_9OctreeKeyE@Base 1.6
 (optional=templinst)_ZNK3pcl6octree16OctreePointCloudINS_11PointXYZRGBENS0_26OctreeContainerDataTVectorIiEENS0_20OctreeContainerEmptyIiEENS0_14Octree2BufBaseIiS4_S6_EEE20genOctreeKeyforPointEdddRNS0_9OctreeKeyE@Base 1.6
 (optional=templinst)_ZNK3pcl6octree16OctreePointCloudINS_11PointXYZRGBENS0_26OctreeContainerDataTVectorIiEENS0_20OctreeContainerEmptyIiEENS0_14Octree2BufBaseIiS4_S6_EEE22getVoxelSquaredSideLenEj@Base 1.6
 (optional=templinst)_ZNK3pcl6octree16OctreePointCloudINS_11PointXYZRGBENS0_26OctreeContainerDataTVectorIiEENS0_20OctreeContainerEmptyIiEENS0_14Octree2BufBaseIiS4_S6_EEE22getVoxelSquaredSideLenEv@Base 1.6
 (optional=templinst)_ZNK3pcl6octree16OctreePointCloudINS_11PointXYZRGBENS0_26OctreeContainerDataTVectorIiEENS0_20OctreeContainerEmptyIiEENS0_14Octree2BufBaseIiS4_S6_EEE22isVoxelOccupiedAtPointERKS2_@Base 1.6
 (optional=templinst)_ZNK3pcl6octree16OctreePointCloudINS_11PointXYZRGBENS0_26OctreeContainerDataTVectorIiEENS0_20OctreeContainerEmptyIiEENS0_14Octree2BufBaseIiS4_S6_EEE22isVoxelOccupiedAtPointERKi@Base 1.6
 (optional=templinst)_ZNK3pcl6octree16OctreePointCloudINS_11PointXYZRGBENS0_26OctreeContainerDataTVectorIiEENS0_20OctreeContainerEmptyIiEENS0_14Octree2BufBaseIiS4_S6_EEE22isVoxelOccupiedAtPointEddd@Base 1.6
 (optional=templinst)_ZNK3pcl6octree16OctreePointCloudINS_11PointXYZRGBENS0_26OctreeContainerDataTVectorIiEENS0_20OctreeContainerEmptyIiEENS0_14Octree2BufBaseIiS4_S6_EEE23getOccupiedVoxelCentersERSt6vectorIS2_N5Eigen17aligned_allocatorIS2_EEE@Base 1.6
 (optional=templinst)_ZNK3pcl6octree16OctreePointCloudINS_11PointXYZRGBENS0_26OctreeContainerDataTVectorIiEENS0_20OctreeContainerEmptyIiEENS0_14Octree2BufBaseIiS4_S6_EEE23getVoxelSquaredDiameterEj@Base 1.6
 (optional=templinst)_ZNK3pcl6octree16OctreePointCloudINS_11PointXYZRGBENS0_26OctreeContainerDataTVectorIiEENS0_20OctreeContainerEmptyIiEENS0_14Octree2BufBaseIiS4_S6_EEE23getVoxelSquaredDiameterEv@Base 1.6
 (optional=templinst)_ZNK3pcl6octree16OctreePointCloudINS_11PointXYZRGBENS0_26OctreeContainerDataTVectorIiEENS0_20OctreeContainerEmptyIiEENS0_14Octree2BufBaseIiS4_S6_EEE24isPointWithinBoundingBoxERKS2_@Base 1.6
 (optional=templinst)_ZNK3pcl6octree16OctreePointCloudINS_11PointXYZRGBENS0_26OctreeContainerDataTVectorIiEENS0_20OctreeContainerEmptyIiEENS0_14Octree2BufBaseIiS4_S6_EEE27genVoxelBoundsFromOctreeKeyERKNS0_9OctreeKeyEjRN5Eigen6MatrixIfLi3ELi1ELi0ELi3ELi1EEESG_@Base 1.6
 (optional=templinst)_ZNK3pcl6octree16OctreePointCloudINS_11PointXYZRGBENS0_26OctreeContainerDataTVectorIiEENS0_20OctreeContainerEmptyIiEENS0_14Octree2BufBaseIiS4_S6_EEE27genVoxelCenterFromOctreeKeyERKNS0_9OctreeKeyEjRS2_@Base 1.6
 (optional=templinst)_ZNK3pcl6octree16OctreePointCloudINS_11PointXYZRGBENS0_26OctreeContainerDataTVectorIiEENS0_20OctreeContainerEmptyIiEENS0_14Octree2BufBaseIiS4_S6_EEE30genLeafNodeCenterFromOctreeKeyERKNS0_9OctreeKeyERS2_@Base 1.6
 (optional=templinst)_ZNK3pcl6octree16OctreePointCloudINS_11PointXYZRGBENS0_26OctreeContainerDataTVectorIiEENS0_20OctreeContainerEmptyIiEENS0_14Octree2BufBaseIiS4_S6_EEE32getOccupiedVoxelCentersRecursiveEPKNS0_18BufferedBranchNodeIS6_EERKNS0_9OctreeKeyERSt6vectorIS2_N5Eigen17aligned_allocatorIS2_EEE@Base 1.6
 (optional=templinst)_ZNK3pcl6octree16OctreePointCloudINS_12PointXYZRGBAENS0_26OctreeContainerDataTVectorIiEENS0_20OctreeContainerEmptyIiEENS0_10OctreeBaseIiS4_S6_EEE10getEpsilonEv@Base 1.6
 (optional=templinst)_ZNK3pcl6octree16OctreePointCloudINS_12PointXYZRGBAENS0_26OctreeContainerDataTVectorIiEENS0_20OctreeContainerEmptyIiEENS0_10OctreeBaseIiS4_S6_EEE10getIndicesEv@Base 1.6
 (optional=templinst)_ZNK3pcl6octree16OctreePointCloudINS_12PointXYZRGBAENS0_26OctreeContainerDataTVectorIiEENS0_20OctreeContainerEmptyIiEENS0_10OctreeBaseIiS4_S6_EEE12getTreeDepthEv@Base 1.6
 (optional=templinst)_ZNK3pcl6octree16OctreePointCloudINS_12PointXYZRGBAENS0_26OctreeContainerDataTVectorIiEENS0_20OctreeContainerEmptyIiEENS0_10OctreeBaseIiS4_S6_EEE13getInputCloudEv@Base 1.6
 (optional=templinst)_ZNK3pcl6octree16OctreePointCloudINS_12PointXYZRGBAENS0_26OctreeContainerDataTVectorIiEENS0_20OctreeContainerEmptyIiEENS0_10OctreeBaseIiS4_S6_EEE13getResolutionEv@Base 1.6
 (optional=templinst)_ZNK3pcl6octree16OctreePointCloudINS_12PointXYZRGBAENS0_26OctreeContainerDataTVectorIiEENS0_20OctreeContainerEmptyIiEENS0_10OctreeBaseIiS4_S6_EEE14getBoundingBoxERdSA_SA_SA_SA_SA_@Base 1.6
 (optional=templinst)_ZNK3pcl6octree16OctreePointCloudINS_12PointXYZRGBAENS0_26OctreeContainerDataTVectorIiEENS0_20OctreeContainerEmptyIiEENS0_10OctreeBaseIiS4_S6_EEE15findLeafAtPointERKS2_@Base 1.6
 (optional=templinst)_ZNK3pcl6octree16OctreePointCloudINS_12PointXYZRGBAENS0_26OctreeContainerDataTVectorIiEENS0_20OctreeContainerEmptyIiEENS0_10OctreeBaseIiS4_S6_EEE15getPointByIndexEj@Base 1.6
 (optional=templinst)_ZNK3pcl6octree16OctreePointCloudINS_12PointXYZRGBAENS0_26OctreeContainerDataTVectorIiEENS0_20OctreeContainerEmptyIiEENS0_10OctreeBaseIiS4_S6_EEE20genOctreeKeyForDataTERKiRNS0_9OctreeKeyE@Base 1.6
 (optional=templinst)_ZNK3pcl6octree16OctreePointCloudINS_12PointXYZRGBAENS0_26OctreeContainerDataTVectorIiEENS0_20OctreeContainerEmptyIiEENS0_10OctreeBaseIiS4_S6_EEE20genOctreeKeyforPointERKS2_RNS0_9OctreeKeyE@Base 1.6
 (optional=templinst)_ZNK3pcl6octree16OctreePointCloudINS_12PointXYZRGBAENS0_26OctreeContainerDataTVectorIiEENS0_20OctreeContainerEmptyIiEENS0_10OctreeBaseIiS4_S6_EEE20genOctreeKeyforPointEdddRNS0_9OctreeKeyE@Base 1.6
 (optional=templinst)_ZNK3pcl6octree16OctreePointCloudINS_12PointXYZRGBAENS0_26OctreeContainerDataTVectorIiEENS0_20OctreeContainerEmptyIiEENS0_10OctreeBaseIiS4_S6_EEE22getVoxelSquaredSideLenEj@Base 1.6
 (optional=templinst)_ZNK3pcl6octree16OctreePointCloudINS_12PointXYZRGBAENS0_26OctreeContainerDataTVectorIiEENS0_20OctreeContainerEmptyIiEENS0_10OctreeBaseIiS4_S6_EEE22getVoxelSquaredSideLenEv@Base 1.6
 (optional=templinst)_ZNK3pcl6octree16OctreePointCloudINS_12PointXYZRGBAENS0_26OctreeContainerDataTVectorIiEENS0_20OctreeContainerEmptyIiEENS0_10OctreeBaseIiS4_S6_EEE22isVoxelOccupiedAtPointERKS2_@Base 1.6
 (optional=templinst)_ZNK3pcl6octree16OctreePointCloudINS_12PointXYZRGBAENS0_26OctreeContainerDataTVectorIiEENS0_20OctreeContainerEmptyIiEENS0_10OctreeBaseIiS4_S6_EEE22isVoxelOccupiedAtPointERKi@Base 1.6
 (optional=templinst)_ZNK3pcl6octree16OctreePointCloudINS_12PointXYZRGBAENS0_26OctreeContainerDataTVectorIiEENS0_20OctreeContainerEmptyIiEENS0_10OctreeBaseIiS4_S6_EEE22isVoxelOccupiedAtPointEddd@Base 1.6
 (optional=templinst)_ZNK3pcl6octree16OctreePointCloudINS_12PointXYZRGBAENS0_26OctreeContainerDataTVectorIiEENS0_20OctreeContainerEmptyIiEENS0_10OctreeBaseIiS4_S6_EEE23getOccupiedVoxelCentersERSt6vectorIS2_N5Eigen17aligned_allocatorIS2_EEE@Base 1.6
 (optional=templinst)_ZNK3pcl6octree16OctreePointCloudINS_12PointXYZRGBAENS0_26OctreeContainerDataTVectorIiEENS0_20OctreeContainerEmptyIiEENS0_10OctreeBaseIiS4_S6_EEE23getVoxelSquaredDiameterEj@Base 1.6
 (optional=templinst)_ZNK3pcl6octree16OctreePointCloudINS_12PointXYZRGBAENS0_26OctreeContainerDataTVectorIiEENS0_20OctreeContainerEmptyIiEENS0_10OctreeBaseIiS4_S6_EEE23getVoxelSquaredDiameterEv@Base 1.6
 (optional=templinst)_ZNK3pcl6octree16OctreePointCloudINS_12PointXYZRGBAENS0_26OctreeContainerDataTVectorIiEENS0_20OctreeContainerEmptyIiEENS0_10OctreeBaseIiS4_S6_EEE24isPointWithinBoundingBoxERKS2_@Base 1.6
 (optional=templinst)_ZNK3pcl6octree16OctreePointCloudINS_12PointXYZRGBAENS0_26OctreeContainerDataTVectorIiEENS0_20OctreeContainerEmptyIiEENS0_10OctreeBaseIiS4_S6_EEE27genVoxelBoundsFromOctreeKeyERKNS0_9OctreeKeyEjRN5Eigen6MatrixIfLi3ELi1ELi0ELi3ELi1EEESG_@Base 1.6
 (optional=templinst)_ZNK3pcl6octree16OctreePointCloudINS_12PointXYZRGBAENS0_26OctreeContainerDataTVectorIiEENS0_20OctreeContainerEmptyIiEENS0_10OctreeBaseIiS4_S6_EEE27genVoxelCenterFromOctreeKeyERKNS0_9OctreeKeyEjRS2_@Base 1.6
 (optional=templinst)_ZNK3pcl6octree16OctreePointCloudINS_12PointXYZRGBAENS0_26OctreeContainerDataTVectorIiEENS0_20OctreeContainerEmptyIiEENS0_10OctreeBaseIiS4_S6_EEE30genLeafNodeCenterFromOctreeKeyERKNS0_9OctreeKeyERS2_@Base 1.6
 (optional=templinst)_ZNK3pcl6octree16OctreePointCloudINS_12PointXYZRGBAENS0_26OctreeContainerDataTVectorIiEENS0_20OctreeContainerEmptyIiEENS0_10OctreeBaseIiS4_S6_EEE32getOccupiedVoxelCentersRecursiveEPKNS0_16OctreeBranchNodeIS6_EERKNS0_9OctreeKeyERSt6vectorIS2_N5Eigen17aligned_allocatorIS2_EEE@Base 1.6
 (optional=templinst)_ZNK3pcl6octree16OctreePointCloudINS_12PointXYZRGBAENS0_26OctreeContainerDataTVectorIiEENS0_20OctreeContainerEmptyIiEENS0_14Octree2BufBaseIiS4_S6_EEE10getEpsilonEv@Base 1.6
 (optional=templinst)_ZNK3pcl6octree16OctreePointCloudINS_12PointXYZRGBAENS0_26OctreeContainerDataTVectorIiEENS0_20OctreeContainerEmptyIiEENS0_14Octree2BufBaseIiS4_S6_EEE10getIndicesEv@Base 1.6
 (optional=templinst)_ZNK3pcl6octree16OctreePointCloudINS_12PointXYZRGBAENS0_26OctreeContainerDataTVectorIiEENS0_20OctreeContainerEmptyIiEENS0_14Octree2BufBaseIiS4_S6_EEE12getTreeDepthEv@Base 1.6
 (optional=templinst)_ZNK3pcl6octree16OctreePointCloudINS_12PointXYZRGBAENS0_26OctreeContainerDataTVectorIiEENS0_20OctreeContainerEmptyIiEENS0_14Octree2BufBaseIiS4_S6_EEE13getInputCloudEv@Base 1.6
 (optional=templinst)_ZNK3pcl6octree16OctreePointCloudINS_12PointXYZRGBAENS0_26OctreeContainerDataTVectorIiEENS0_20OctreeContainerEmptyIiEENS0_14Octree2BufBaseIiS4_S6_EEE13getResolutionEv@Base 1.6
 (optional=templinst)_ZNK3pcl6octree16OctreePointCloudINS_12PointXYZRGBAENS0_26OctreeContainerDataTVectorIiEENS0_20OctreeContainerEmptyIiEENS0_14Octree2BufBaseIiS4_S6_EEE14getBoundingBoxERdSA_SA_SA_SA_SA_@Base 1.6
 (optional=templinst)_ZNK3pcl6octree16OctreePointCloudINS_12PointXYZRGBAENS0_26OctreeContainerDataTVectorIiEENS0_20OctreeContainerEmptyIiEENS0_14Octree2BufBaseIiS4_S6_EEE15findLeafAtPointERKS2_@Base 1.6
 (optional=templinst)_ZNK3pcl6octree16OctreePointCloudINS_12PointXYZRGBAENS0_26OctreeContainerDataTVectorIiEENS0_20OctreeContainerEmptyIiEENS0_14Octree2BufBaseIiS4_S6_EEE15getPointByIndexEj@Base 1.6
 (optional=templinst)_ZNK3pcl6octree16OctreePointCloudINS_12PointXYZRGBAENS0_26OctreeContainerDataTVectorIiEENS0_20OctreeContainerEmptyIiEENS0_14Octree2BufBaseIiS4_S6_EEE20genOctreeKeyForDataTERKiRNS0_9OctreeKeyE@Base 1.6
 (optional=templinst)_ZNK3pcl6octree16OctreePointCloudINS_12PointXYZRGBAENS0_26OctreeContainerDataTVectorIiEENS0_20OctreeContainerEmptyIiEENS0_14Octree2BufBaseIiS4_S6_EEE20genOctreeKeyforPointERKS2_RNS0_9OctreeKeyE@Base 1.6
 (optional=templinst)_ZNK3pcl6octree16OctreePointCloudINS_12PointXYZRGBAENS0_26OctreeContainerDataTVectorIiEENS0_20OctreeContainerEmptyIiEENS0_14Octree2BufBaseIiS4_S6_EEE20genOctreeKeyforPointEdddRNS0_9OctreeKeyE@Base 1.6
 (optional=templinst)_ZNK3pcl6octree16OctreePointCloudINS_12PointXYZRGBAENS0_26OctreeContainerDataTVectorIiEENS0_20OctreeContainerEmptyIiEENS0_14Octree2BufBaseIiS4_S6_EEE22getVoxelSquaredSideLenEj@Base 1.6
 (optional=templinst)_ZNK3pcl6octree16OctreePointCloudINS_12PointXYZRGBAENS0_26OctreeContainerDataTVectorIiEENS0_20OctreeContainerEmptyIiEENS0_14Octree2BufBaseIiS4_S6_EEE22getVoxelSquaredSideLenEv@Base 1.6
 (optional=templinst)_ZNK3pcl6octree16OctreePointCloudINS_12PointXYZRGBAENS0_26OctreeContainerDataTVectorIiEENS0_20OctreeContainerEmptyIiEENS0_14Octree2BufBaseIiS4_S6_EEE22isVoxelOccupiedAtPointERKS2_@Base 1.6
 (optional=templinst)_ZNK3pcl6octree16OctreePointCloudINS_12PointXYZRGBAENS0_26OctreeContainerDataTVectorIiEENS0_20OctreeContainerEmptyIiEENS0_14Octree2BufBaseIiS4_S6_EEE22isVoxelOccupiedAtPointERKi@Base 1.6
 (optional=templinst)_ZNK3pcl6octree16OctreePointCloudINS_12PointXYZRGBAENS0_26OctreeContainerDataTVectorIiEENS0_20OctreeContainerEmptyIiEENS0_14Octree2BufBaseIiS4_S6_EEE22isVoxelOccupiedAtPointEddd@Base 1.6
 (optional=templinst)_ZNK3pcl6octree16OctreePointCloudINS_12PointXYZRGBAENS0_26OctreeContainerDataTVectorIiEENS0_20OctreeContainerEmptyIiEENS0_14Octree2BufBaseIiS4_S6_EEE23getOccupiedVoxelCentersERSt6vectorIS2_N5Eigen17aligned_allocatorIS2_EEE@Base 1.6
 (optional=templinst)_ZNK3pcl6octree16OctreePointCloudINS_12PointXYZRGBAENS0_26OctreeContainerDataTVectorIiEENS0_20OctreeContainerEmptyIiEENS0_14Octree2BufBaseIiS4_S6_EEE23getVoxelSquaredDiameterEj@Base 1.6
 (optional=templinst)_ZNK3pcl6octree16OctreePointCloudINS_12PointXYZRGBAENS0_26OctreeContainerDataTVectorIiEENS0_20OctreeContainerEmptyIiEENS0_14Octree2BufBaseIiS4_S6_EEE23getVoxelSquaredDiameterEv@Base 1.6
 (optional=templinst)_ZNK3pcl6octree16OctreePointCloudINS_12PointXYZRGBAENS0_26OctreeContainerDataTVectorIiEENS0_20OctreeContainerEmptyIiEENS0_14Octree2BufBaseIiS4_S6_EEE24isPointWithinBoundingBoxERKS2_@Base 1.6
 (optional=templinst)_ZNK3pcl6octree16OctreePointCloudINS_12PointXYZRGBAENS0_26OctreeContainerDataTVectorIiEENS0_20OctreeContainerEmptyIiEENS0_14Octree2BufBaseIiS4_S6_EEE27genVoxelBoundsFromOctreeKeyERKNS0_9OctreeKeyEjRN5Eigen6MatrixIfLi3ELi1ELi0ELi3ELi1EEESG_@Base 1.6
 (optional=templinst)_ZNK3pcl6octree16OctreePointCloudINS_12PointXYZRGBAENS0_26OctreeContainerDataTVectorIiEENS0_20OctreeContainerEmptyIiEENS0_14Octree2BufBaseIiS4_S6_EEE27genVoxelCenterFromOctreeKeyERKNS0_9OctreeKeyEjRS2_@Base 1.6
 (optional=templinst)_ZNK3pcl6octree16OctreePointCloudINS_12PointXYZRGBAENS0_26OctreeContainerDataTVectorIiEENS0_20OctreeContainerEmptyIiEENS0_14Octree2BufBaseIiS4_S6_EEE30genLeafNodeCenterFromOctreeKeyERKNS0_9OctreeKeyERS2_@Base 1.6
 (optional=templinst)_ZNK3pcl6octree16OctreePointCloudINS_12PointXYZRGBAENS0_26OctreeContainerDataTVectorIiEENS0_20OctreeContainerEmptyIiEENS0_14Octree2BufBaseIiS4_S6_EEE32getOccupiedVoxelCentersRecursiveEPKNS0_18BufferedBranchNodeIS6_EERKNS0_9OctreeKeyERSt6vectorIS2_N5Eigen17aligned_allocatorIS2_EEE@Base 1.6
 (optional=templinst)_ZNK3pcl6octree16OctreePointCloudINS_12PointXYZRGBLENS0_26OctreeContainerDataTVectorIiEENS0_20OctreeContainerEmptyIiEENS0_10OctreeBaseIiS4_S6_EEE10getEpsilonEv@Base 1.6
 (optional=templinst)_ZNK3pcl6octree16OctreePointCloudINS_12PointXYZRGBLENS0_26OctreeContainerDataTVectorIiEENS0_20OctreeContainerEmptyIiEENS0_10OctreeBaseIiS4_S6_EEE10getIndicesEv@Base 1.6
 (optional=templinst)_ZNK3pcl6octree16OctreePointCloudINS_12PointXYZRGBLENS0_26OctreeContainerDataTVectorIiEENS0_20OctreeContainerEmptyIiEENS0_10OctreeBaseIiS4_S6_EEE12getTreeDepthEv@Base 1.6
 (optional=templinst)_ZNK3pcl6octree16OctreePointCloudINS_12PointXYZRGBLENS0_26OctreeContainerDataTVectorIiEENS0_20OctreeContainerEmptyIiEENS0_10OctreeBaseIiS4_S6_EEE13getInputCloudEv@Base 1.6
 (optional=templinst)_ZNK3pcl6octree16OctreePointCloudINS_12PointXYZRGBLENS0_26OctreeContainerDataTVectorIiEENS0_20OctreeContainerEmptyIiEENS0_10OctreeBaseIiS4_S6_EEE13getResolutionEv@Base 1.6
 (optional=templinst)_ZNK3pcl6octree16OctreePointCloudINS_12PointXYZRGBLENS0_26OctreeContainerDataTVectorIiEENS0_20OctreeContainerEmptyIiEENS0_10OctreeBaseIiS4_S6_EEE14getBoundingBoxERdSA_SA_SA_SA_SA_@Base 1.6
 (optional=templinst)_ZNK3pcl6octree16OctreePointCloudINS_12PointXYZRGBLENS0_26OctreeContainerDataTVectorIiEENS0_20OctreeContainerEmptyIiEENS0_10OctreeBaseIiS4_S6_EEE15findLeafAtPointERKS2_@Base 1.6
 (optional=templinst)_ZNK3pcl6octree16OctreePointCloudINS_12PointXYZRGBLENS0_26OctreeContainerDataTVectorIiEENS0_20OctreeContainerEmptyIiEENS0_10OctreeBaseIiS4_S6_EEE15getPointByIndexEj@Base 1.6
 (optional=templinst)_ZNK3pcl6octree16OctreePointCloudINS_12PointXYZRGBLENS0_26OctreeContainerDataTVectorIiEENS0_20OctreeContainerEmptyIiEENS0_10OctreeBaseIiS4_S6_EEE20genOctreeKeyForDataTERKiRNS0_9OctreeKeyE@Base 1.6
 (optional=templinst)_ZNK3pcl6octree16OctreePointCloudINS_12PointXYZRGBLENS0_26OctreeContainerDataTVectorIiEENS0_20OctreeContainerEmptyIiEENS0_10OctreeBaseIiS4_S6_EEE20genOctreeKeyforPointERKS2_RNS0_9OctreeKeyE@Base 1.6
 (optional=templinst)_ZNK3pcl6octree16OctreePointCloudINS_12PointXYZRGBLENS0_26OctreeContainerDataTVectorIiEENS0_20OctreeContainerEmptyIiEENS0_10OctreeBaseIiS4_S6_EEE20genOctreeKeyforPointEdddRNS0_9OctreeKeyE@Base 1.6
 (optional=templinst)_ZNK3pcl6octree16OctreePointCloudINS_12PointXYZRGBLENS0_26OctreeContainerDataTVectorIiEENS0_20OctreeContainerEmptyIiEENS0_10OctreeBaseIiS4_S6_EEE22getVoxelSquaredSideLenEj@Base 1.6
 (optional=templinst)_ZNK3pcl6octree16OctreePointCloudINS_12PointXYZRGBLENS0_26OctreeContainerDataTVectorIiEENS0_20OctreeContainerEmptyIiEENS0_10OctreeBaseIiS4_S6_EEE22getVoxelSquaredSideLenEv@Base 1.6
 (optional=templinst)_ZNK3pcl6octree16OctreePointCloudINS_12PointXYZRGBLENS0_26OctreeContainerDataTVectorIiEENS0_20OctreeContainerEmptyIiEENS0_10OctreeBaseIiS4_S6_EEE22isVoxelOccupiedAtPointERKS2_@Base 1.6
 (optional=templinst)_ZNK3pcl6octree16OctreePointCloudINS_12PointXYZRGBLENS0_26OctreeContainerDataTVectorIiEENS0_20OctreeContainerEmptyIiEENS0_10OctreeBaseIiS4_S6_EEE22isVoxelOccupiedAtPointERKi@Base 1.6
 (optional=templinst)_ZNK3pcl6octree16OctreePointCloudINS_12PointXYZRGBLENS0_26OctreeContainerDataTVectorIiEENS0_20OctreeContainerEmptyIiEENS0_10OctreeBaseIiS4_S6_EEE22isVoxelOccupiedAtPointEddd@Base 1.6
 (optional=templinst)_ZNK3pcl6octree16OctreePointCloudINS_12PointXYZRGBLENS0_26OctreeContainerDataTVectorIiEENS0_20OctreeContainerEmptyIiEENS0_10OctreeBaseIiS4_S6_EEE23getOccupiedVoxelCentersERSt6vectorIS2_N5Eigen17aligned_allocatorIS2_EEE@Base 1.6
 (optional=templinst)_ZNK3pcl6octree16OctreePointCloudINS_12PointXYZRGBLENS0_26OctreeContainerDataTVectorIiEENS0_20OctreeContainerEmptyIiEENS0_10OctreeBaseIiS4_S6_EEE23getVoxelSquaredDiameterEj@Base 1.6
 (optional=templinst)_ZNK3pcl6octree16OctreePointCloudINS_12PointXYZRGBLENS0_26OctreeContainerDataTVectorIiEENS0_20OctreeContainerEmptyIiEENS0_10OctreeBaseIiS4_S6_EEE23getVoxelSquaredDiameterEv@Base 1.6
 (optional=templinst)_ZNK3pcl6octree16OctreePointCloudINS_12PointXYZRGBLENS0_26OctreeContainerDataTVectorIiEENS0_20OctreeContainerEmptyIiEENS0_10OctreeBaseIiS4_S6_EEE24isPointWithinBoundingBoxERKS2_@Base 1.6
 (optional=templinst)_ZNK3pcl6octree16OctreePointCloudINS_12PointXYZRGBLENS0_26OctreeContainerDataTVectorIiEENS0_20OctreeContainerEmptyIiEENS0_10OctreeBaseIiS4_S6_EEE27genVoxelBoundsFromOctreeKeyERKNS0_9OctreeKeyEjRN5Eigen6MatrixIfLi3ELi1ELi0ELi3ELi1EEESG_@Base 1.6
 (optional=templinst)_ZNK3pcl6octree16OctreePointCloudINS_12PointXYZRGBLENS0_26OctreeContainerDataTVectorIiEENS0_20OctreeContainerEmptyIiEENS0_10OctreeBaseIiS4_S6_EEE27genVoxelCenterFromOctreeKeyERKNS0_9OctreeKeyEjRS2_@Base 1.6
 (optional=templinst)_ZNK3pcl6octree16OctreePointCloudINS_12PointXYZRGBLENS0_26OctreeContainerDataTVectorIiEENS0_20OctreeContainerEmptyIiEENS0_10OctreeBaseIiS4_S6_EEE30genLeafNodeCenterFromOctreeKeyERKNS0_9OctreeKeyERS2_@Base 1.6
 (optional=templinst)_ZNK3pcl6octree16OctreePointCloudINS_12PointXYZRGBLENS0_26OctreeContainerDataTVectorIiEENS0_20OctreeContainerEmptyIiEENS0_10OctreeBaseIiS4_S6_EEE32getOccupiedVoxelCentersRecursiveEPKNS0_16OctreeBranchNodeIS6_EERKNS0_9OctreeKeyERSt6vectorIS2_N5Eigen17aligned_allocatorIS2_EEE@Base 1.6
 (optional=templinst)_ZNK3pcl6octree16OctreePointCloudINS_12PointXYZRGBLENS0_26OctreeContainerDataTVectorIiEENS0_20OctreeContainerEmptyIiEENS0_14Octree2BufBaseIiS4_S6_EEE10getEpsilonEv@Base 1.6
 (optional=templinst)_ZNK3pcl6octree16OctreePointCloudINS_12PointXYZRGBLENS0_26OctreeContainerDataTVectorIiEENS0_20OctreeContainerEmptyIiEENS0_14Octree2BufBaseIiS4_S6_EEE10getIndicesEv@Base 1.6
 (optional=templinst)_ZNK3pcl6octree16OctreePointCloudINS_12PointXYZRGBLENS0_26OctreeContainerDataTVectorIiEENS0_20OctreeContainerEmptyIiEENS0_14Octree2BufBaseIiS4_S6_EEE12getTreeDepthEv@Base 1.6
 (optional=templinst)_ZNK3pcl6octree16OctreePointCloudINS_12PointXYZRGBLENS0_26OctreeContainerDataTVectorIiEENS0_20OctreeContainerEmptyIiEENS0_14Octree2BufBaseIiS4_S6_EEE13getInputCloudEv@Base 1.6
 (optional=templinst)_ZNK3pcl6octree16OctreePointCloudINS_12PointXYZRGBLENS0_26OctreeContainerDataTVectorIiEENS0_20OctreeContainerEmptyIiEENS0_14Octree2BufBaseIiS4_S6_EEE13getResolutionEv@Base 1.6
 (optional=templinst)_ZNK3pcl6octree16OctreePointCloudINS_12PointXYZRGBLENS0_26OctreeContainerDataTVectorIiEENS0_20OctreeContainerEmptyIiEENS0_14Octree2BufBaseIiS4_S6_EEE14getBoundingBoxERdSA_SA_SA_SA_SA_@Base 1.6
 (optional=templinst)_ZNK3pcl6octree16OctreePointCloudINS_12PointXYZRGBLENS0_26OctreeContainerDataTVectorIiEENS0_20OctreeContainerEmptyIiEENS0_14Octree2BufBaseIiS4_S6_EEE15findLeafAtPointERKS2_@Base 1.6
 (optional=templinst)_ZNK3pcl6octree16OctreePointCloudINS_12PointXYZRGBLENS0_26OctreeContainerDataTVectorIiEENS0_20OctreeContainerEmptyIiEENS0_14Octree2BufBaseIiS4_S6_EEE15getPointByIndexEj@Base 1.6
 (optional=templinst)_ZNK3pcl6octree16OctreePointCloudINS_12PointXYZRGBLENS0_26OctreeContainerDataTVectorIiEENS0_20OctreeContainerEmptyIiEENS0_14Octree2BufBaseIiS4_S6_EEE20genOctreeKeyForDataTERKiRNS0_9OctreeKeyE@Base 1.6
 (optional=templinst)_ZNK3pcl6octree16OctreePointCloudINS_12PointXYZRGBLENS0_26OctreeContainerDataTVectorIiEENS0_20OctreeContainerEmptyIiEENS0_14Octree2BufBaseIiS4_S6_EEE20genOctreeKeyforPointERKS2_RNS0_9OctreeKeyE@Base 1.6
 (optional=templinst)_ZNK3pcl6octree16OctreePointCloudINS_12PointXYZRGBLENS0_26OctreeContainerDataTVectorIiEENS0_20OctreeContainerEmptyIiEENS0_14Octree2BufBaseIiS4_S6_EEE20genOctreeKeyforPointEdddRNS0_9OctreeKeyE@Base 1.6
 (optional=templinst)_ZNK3pcl6octree16OctreePointCloudINS_12PointXYZRGBLENS0_26OctreeContainerDataTVectorIiEENS0_20OctreeContainerEmptyIiEENS0_14Octree2BufBaseIiS4_S6_EEE22getVoxelSquaredSideLenEj@Base 1.6
 (optional=templinst)_ZNK3pcl6octree16OctreePointCloudINS_12PointXYZRGBLENS0_26OctreeContainerDataTVectorIiEENS0_20OctreeContainerEmptyIiEENS0_14Octree2BufBaseIiS4_S6_EEE22getVoxelSquaredSideLenEv@Base 1.6
 (optional=templinst)_ZNK3pcl6octree16OctreePointCloudINS_12PointXYZRGBLENS0_26OctreeContainerDataTVectorIiEENS0_20OctreeContainerEmptyIiEENS0_14Octree2BufBaseIiS4_S6_EEE22isVoxelOccupiedAtPointERKS2_@Base 1.6
 (optional=templinst)_ZNK3pcl6octree16OctreePointCloudINS_12PointXYZRGBLENS0_26OctreeContainerDataTVectorIiEENS0_20OctreeContainerEmptyIiEENS0_14Octree2BufBaseIiS4_S6_EEE22isVoxelOccupiedAtPointERKi@Base 1.6
 (optional=templinst)_ZNK3pcl6octree16OctreePointCloudINS_12PointXYZRGBLENS0_26OctreeContainerDataTVectorIiEENS0_20OctreeContainerEmptyIiEENS0_14Octree2BufBaseIiS4_S6_EEE22isVoxelOccupiedAtPointEddd@Base 1.6
 (optional=templinst)_ZNK3pcl6octree16OctreePointCloudINS_12PointXYZRGBLENS0_26OctreeContainerDataTVectorIiEENS0_20OctreeContainerEmptyIiEENS0_14Octree2BufBaseIiS4_S6_EEE23getOccupiedVoxelCentersERSt6vectorIS2_N5Eigen17aligned_allocatorIS2_EEE@Base 1.6
 (optional=templinst)_ZNK3pcl6octree16OctreePointCloudINS_12PointXYZRGBLENS0_26OctreeContainerDataTVectorIiEENS0_20OctreeContainerEmptyIiEENS0_14Octree2BufBaseIiS4_S6_EEE23getVoxelSquaredDiameterEj@Base 1.6
 (optional=templinst)_ZNK3pcl6octree16OctreePointCloudINS_12PointXYZRGBLENS0_26OctreeContainerDataTVectorIiEENS0_20OctreeContainerEmptyIiEENS0_14Octree2BufBaseIiS4_S6_EEE23getVoxelSquaredDiameterEv@Base 1.6
 (optional=templinst)_ZNK3pcl6octree16OctreePointCloudINS_12PointXYZRGBLENS0_26OctreeContainerDataTVectorIiEENS0_20OctreeContainerEmptyIiEENS0_14Octree2BufBaseIiS4_S6_EEE24isPointWithinBoundingBoxERKS2_@Base 1.6
 (optional=templinst)_ZNK3pcl6octree16OctreePointCloudINS_12PointXYZRGBLENS0_26OctreeContainerDataTVectorIiEENS0_20OctreeContainerEmptyIiEENS0_14Octree2BufBaseIiS4_S6_EEE27genVoxelBoundsFromOctreeKeyERKNS0_9OctreeKeyEjRN5Eigen6MatrixIfLi3ELi1ELi0ELi3ELi1EEESG_@Base 1.6
 (optional=templinst)_ZNK3pcl6octree16OctreePointCloudINS_12PointXYZRGBLENS0_26OctreeContainerDataTVectorIiEENS0_20OctreeContainerEmptyIiEENS0_14Octree2BufBaseIiS4_S6_EEE27genVoxelCenterFromOctreeKeyERKNS0_9OctreeKeyEjRS2_@Base 1.6
 (optional=templinst)_ZNK3pcl6octree16OctreePointCloudINS_12PointXYZRGBLENS0_26OctreeContainerDataTVectorIiEENS0_20OctreeContainerEmptyIiEENS0_14Octree2BufBaseIiS4_S6_EEE30genLeafNodeCenterFromOctreeKeyERKNS0_9OctreeKeyERS2_@Base 1.6
 (optional=templinst)_ZNK3pcl6octree16OctreePointCloudINS_12PointXYZRGBLENS0_26OctreeContainerDataTVectorIiEENS0_20OctreeContainerEmptyIiEENS0_14Octree2BufBaseIiS4_S6_EEE32getOccupiedVoxelCentersRecursiveEPKNS0_18BufferedBranchNodeIS6_EERKNS0_9OctreeKeyERSt6vectorIS2_N5Eigen17aligned_allocatorIS2_EEE@Base 1.6
 (optional=templinst)_ZNK3pcl6octree16OctreePointCloudINS_13InterestPointENS0_26OctreeContainerDataTVectorIiEENS0_20OctreeContainerEmptyIiEENS0_10OctreeBaseIiS4_S6_EEE10getEpsilonEv@Base 1.6
 (optional=templinst)_ZNK3pcl6octree16OctreePointCloudINS_13InterestPointENS0_26OctreeContainerDataTVectorIiEENS0_20OctreeContainerEmptyIiEENS0_10OctreeBaseIiS4_S6_EEE10getIndicesEv@Base 1.6
 (optional=templinst)_ZNK3pcl6octree16OctreePointCloudINS_13InterestPointENS0_26OctreeContainerDataTVectorIiEENS0_20OctreeContainerEmptyIiEENS0_10OctreeBaseIiS4_S6_EEE12getTreeDepthEv@Base 1.6
 (optional=templinst)_ZNK3pcl6octree16OctreePointCloudINS_13InterestPointENS0_26OctreeContainerDataTVectorIiEENS0_20OctreeContainerEmptyIiEENS0_10OctreeBaseIiS4_S6_EEE13getInputCloudEv@Base 1.6
 (optional=templinst)_ZNK3pcl6octree16OctreePointCloudINS_13InterestPointENS0_26OctreeContainerDataTVectorIiEENS0_20OctreeContainerEmptyIiEENS0_10OctreeBaseIiS4_S6_EEE13getResolutionEv@Base 1.6
 (optional=templinst)_ZNK3pcl6octree16OctreePointCloudINS_13InterestPointENS0_26OctreeContainerDataTVectorIiEENS0_20OctreeContainerEmptyIiEENS0_10OctreeBaseIiS4_S6_EEE14getBoundingBoxERdSA_SA_SA_SA_SA_@Base 1.6
 (optional=templinst)_ZNK3pcl6octree16OctreePointCloudINS_13InterestPointENS0_26OctreeContainerDataTVectorIiEENS0_20OctreeContainerEmptyIiEENS0_10OctreeBaseIiS4_S6_EEE15findLeafAtPointERKS2_@Base 1.6
 (optional=templinst)_ZNK3pcl6octree16OctreePointCloudINS_13InterestPointENS0_26OctreeContainerDataTVectorIiEENS0_20OctreeContainerEmptyIiEENS0_10OctreeBaseIiS4_S6_EEE15getPointByIndexEj@Base 1.6
 (optional=templinst)_ZNK3pcl6octree16OctreePointCloudINS_13InterestPointENS0_26OctreeContainerDataTVectorIiEENS0_20OctreeContainerEmptyIiEENS0_10OctreeBaseIiS4_S6_EEE20genOctreeKeyForDataTERKiRNS0_9OctreeKeyE@Base 1.6
 (optional=templinst)_ZNK3pcl6octree16OctreePointCloudINS_13InterestPointENS0_26OctreeContainerDataTVectorIiEENS0_20OctreeContainerEmptyIiEENS0_10OctreeBaseIiS4_S6_EEE20genOctreeKeyforPointERKS2_RNS0_9OctreeKeyE@Base 1.6
 (optional=templinst)_ZNK3pcl6octree16OctreePointCloudINS_13InterestPointENS0_26OctreeContainerDataTVectorIiEENS0_20OctreeContainerEmptyIiEENS0_10OctreeBaseIiS4_S6_EEE20genOctreeKeyforPointEdddRNS0_9OctreeKeyE@Base 1.6
 (optional=templinst)_ZNK3pcl6octree16OctreePointCloudINS_13InterestPointENS0_26OctreeContainerDataTVectorIiEENS0_20OctreeContainerEmptyIiEENS0_10OctreeBaseIiS4_S6_EEE22getVoxelSquaredSideLenEj@Base 1.6
 (optional=templinst)_ZNK3pcl6octree16OctreePointCloudINS_13InterestPointENS0_26OctreeContainerDataTVectorIiEENS0_20OctreeContainerEmptyIiEENS0_10OctreeBaseIiS4_S6_EEE22getVoxelSquaredSideLenEv@Base 1.6
 (optional=templinst)_ZNK3pcl6octree16OctreePointCloudINS_13InterestPointENS0_26OctreeContainerDataTVectorIiEENS0_20OctreeContainerEmptyIiEENS0_10OctreeBaseIiS4_S6_EEE22isVoxelOccupiedAtPointERKS2_@Base 1.6
 (optional=templinst)_ZNK3pcl6octree16OctreePointCloudINS_13InterestPointENS0_26OctreeContainerDataTVectorIiEENS0_20OctreeContainerEmptyIiEENS0_10OctreeBaseIiS4_S6_EEE22isVoxelOccupiedAtPointERKi@Base 1.6
 (optional=templinst)_ZNK3pcl6octree16OctreePointCloudINS_13InterestPointENS0_26OctreeContainerDataTVectorIiEENS0_20OctreeContainerEmptyIiEENS0_10OctreeBaseIiS4_S6_EEE22isVoxelOccupiedAtPointEddd@Base 1.6
 (optional=templinst)_ZNK3pcl6octree16OctreePointCloudINS_13InterestPointENS0_26OctreeContainerDataTVectorIiEENS0_20OctreeContainerEmptyIiEENS0_10OctreeBaseIiS4_S6_EEE23getOccupiedVoxelCentersERSt6vectorIS2_N5Eigen17aligned_allocatorIS2_EEE@Base 1.6
 (optional=templinst)_ZNK3pcl6octree16OctreePointCloudINS_13InterestPointENS0_26OctreeContainerDataTVectorIiEENS0_20OctreeContainerEmptyIiEENS0_10OctreeBaseIiS4_S6_EEE23getVoxelSquaredDiameterEj@Base 1.6
 (optional=templinst)_ZNK3pcl6octree16OctreePointCloudINS_13InterestPointENS0_26OctreeContainerDataTVectorIiEENS0_20OctreeContainerEmptyIiEENS0_10OctreeBaseIiS4_S6_EEE23getVoxelSquaredDiameterEv@Base 1.6
 (optional=templinst)_ZNK3pcl6octree16OctreePointCloudINS_13InterestPointENS0_26OctreeContainerDataTVectorIiEENS0_20OctreeContainerEmptyIiEENS0_10OctreeBaseIiS4_S6_EEE24isPointWithinBoundingBoxERKS2_@Base 1.6
 (optional=templinst)_ZNK3pcl6octree16OctreePointCloudINS_13InterestPointENS0_26OctreeContainerDataTVectorIiEENS0_20OctreeContainerEmptyIiEENS0_10OctreeBaseIiS4_S6_EEE27genVoxelBoundsFromOctreeKeyERKNS0_9OctreeKeyEjRN5Eigen6MatrixIfLi3ELi1ELi0ELi3ELi1EEESG_@Base 1.6
 (optional=templinst)_ZNK3pcl6octree16OctreePointCloudINS_13InterestPointENS0_26OctreeContainerDataTVectorIiEENS0_20OctreeContainerEmptyIiEENS0_10OctreeBaseIiS4_S6_EEE27genVoxelCenterFromOctreeKeyERKNS0_9OctreeKeyEjRS2_@Base 1.6
 (optional=templinst)_ZNK3pcl6octree16OctreePointCloudINS_13InterestPointENS0_26OctreeContainerDataTVectorIiEENS0_20OctreeContainerEmptyIiEENS0_10OctreeBaseIiS4_S6_EEE30genLeafNodeCenterFromOctreeKeyERKNS0_9OctreeKeyERS2_@Base 1.6
 (optional=templinst)_ZNK3pcl6octree16OctreePointCloudINS_13InterestPointENS0_26OctreeContainerDataTVectorIiEENS0_20OctreeContainerEmptyIiEENS0_10OctreeBaseIiS4_S6_EEE32getOccupiedVoxelCentersRecursiveEPKNS0_16OctreeBranchNodeIS6_EERKNS0_9OctreeKeyERSt6vectorIS2_N5Eigen17aligned_allocatorIS2_EEE@Base 1.6
 (optional=templinst)_ZNK3pcl6octree16OctreePointCloudINS_13InterestPointENS0_26OctreeContainerDataTVectorIiEENS0_20OctreeContainerEmptyIiEENS0_14Octree2BufBaseIiS4_S6_EEE10getEpsilonEv@Base 1.6
 (optional=templinst)_ZNK3pcl6octree16OctreePointCloudINS_13InterestPointENS0_26OctreeContainerDataTVectorIiEENS0_20OctreeContainerEmptyIiEENS0_14Octree2BufBaseIiS4_S6_EEE10getIndicesEv@Base 1.6
 (optional=templinst)_ZNK3pcl6octree16OctreePointCloudINS_13InterestPointENS0_26OctreeContainerDataTVectorIiEENS0_20OctreeContainerEmptyIiEENS0_14Octree2BufBaseIiS4_S6_EEE12getTreeDepthEv@Base 1.6
 (optional=templinst)_ZNK3pcl6octree16OctreePointCloudINS_13InterestPointENS0_26OctreeContainerDataTVectorIiEENS0_20OctreeContainerEmptyIiEENS0_14Octree2BufBaseIiS4_S6_EEE13getInputCloudEv@Base 1.6
 (optional=templinst)_ZNK3pcl6octree16OctreePointCloudINS_13InterestPointENS0_26OctreeContainerDataTVectorIiEENS0_20OctreeContainerEmptyIiEENS0_14Octree2BufBaseIiS4_S6_EEE13getResolutionEv@Base 1.6
 (optional=templinst)_ZNK3pcl6octree16OctreePointCloudINS_13InterestPointENS0_26OctreeContainerDataTVectorIiEENS0_20OctreeContainerEmptyIiEENS0_14Octree2BufBaseIiS4_S6_EEE14getBoundingBoxERdSA_SA_SA_SA_SA_@Base 1.6
 (optional=templinst)_ZNK3pcl6octree16OctreePointCloudINS_13InterestPointENS0_26OctreeContainerDataTVectorIiEENS0_20OctreeContainerEmptyIiEENS0_14Octree2BufBaseIiS4_S6_EEE15findLeafAtPointERKS2_@Base 1.6
 (optional=templinst)_ZNK3pcl6octree16OctreePointCloudINS_13InterestPointENS0_26OctreeContainerDataTVectorIiEENS0_20OctreeContainerEmptyIiEENS0_14Octree2BufBaseIiS4_S6_EEE15getPointByIndexEj@Base 1.6
 (optional=templinst)_ZNK3pcl6octree16OctreePointCloudINS_13InterestPointENS0_26OctreeContainerDataTVectorIiEENS0_20OctreeContainerEmptyIiEENS0_14Octree2BufBaseIiS4_S6_EEE20genOctreeKeyForDataTERKiRNS0_9OctreeKeyE@Base 1.6
 (optional=templinst)_ZNK3pcl6octree16OctreePointCloudINS_13InterestPointENS0_26OctreeContainerDataTVectorIiEENS0_20OctreeContainerEmptyIiEENS0_14Octree2BufBaseIiS4_S6_EEE20genOctreeKeyforPointERKS2_RNS0_9OctreeKeyE@Base 1.6
 (optional=templinst)_ZNK3pcl6octree16OctreePointCloudINS_13InterestPointENS0_26OctreeContainerDataTVectorIiEENS0_20OctreeContainerEmptyIiEENS0_14Octree2BufBaseIiS4_S6_EEE20genOctreeKeyforPointEdddRNS0_9OctreeKeyE@Base 1.6
 (optional=templinst)_ZNK3pcl6octree16OctreePointCloudINS_13InterestPointENS0_26OctreeContainerDataTVectorIiEENS0_20OctreeContainerEmptyIiEENS0_14Octree2BufBaseIiS4_S6_EEE22getVoxelSquaredSideLenEj@Base 1.6
 (optional=templinst)_ZNK3pcl6octree16OctreePointCloudINS_13InterestPointENS0_26OctreeContainerDataTVectorIiEENS0_20OctreeContainerEmptyIiEENS0_14Octree2BufBaseIiS4_S6_EEE22getVoxelSquaredSideLenEv@Base 1.6
 (optional=templinst)_ZNK3pcl6octree16OctreePointCloudINS_13InterestPointENS0_26OctreeContainerDataTVectorIiEENS0_20OctreeContainerEmptyIiEENS0_14Octree2BufBaseIiS4_S6_EEE22isVoxelOccupiedAtPointERKS2_@Base 1.6
 (optional=templinst)_ZNK3pcl6octree16OctreePointCloudINS_13InterestPointENS0_26OctreeContainerDataTVectorIiEENS0_20OctreeContainerEmptyIiEENS0_14Octree2BufBaseIiS4_S6_EEE22isVoxelOccupiedAtPointERKi@Base 1.6
 (optional=templinst)_ZNK3pcl6octree16OctreePointCloudINS_13InterestPointENS0_26OctreeContainerDataTVectorIiEENS0_20OctreeContainerEmptyIiEENS0_14Octree2BufBaseIiS4_S6_EEE22isVoxelOccupiedAtPointEddd@Base 1.6
 (optional=templinst)_ZNK3pcl6octree16OctreePointCloudINS_13InterestPointENS0_26OctreeContainerDataTVectorIiEENS0_20OctreeContainerEmptyIiEENS0_14Octree2BufBaseIiS4_S6_EEE23getOccupiedVoxelCentersERSt6vectorIS2_N5Eigen17aligned_allocatorIS2_EEE@Base 1.6
 (optional=templinst)_ZNK3pcl6octree16OctreePointCloudINS_13InterestPointENS0_26OctreeContainerDataTVectorIiEENS0_20OctreeContainerEmptyIiEENS0_14Octree2BufBaseIiS4_S6_EEE23getVoxelSquaredDiameterEj@Base 1.6
 (optional=templinst)_ZNK3pcl6octree16OctreePointCloudINS_13InterestPointENS0_26OctreeContainerDataTVectorIiEENS0_20OctreeContainerEmptyIiEENS0_14Octree2BufBaseIiS4_S6_EEE23getVoxelSquaredDiameterEv@Base 1.6
 (optional=templinst)_ZNK3pcl6octree16OctreePointCloudINS_13InterestPointENS0_26OctreeContainerDataTVectorIiEENS0_20OctreeContainerEmptyIiEENS0_14Octree2BufBaseIiS4_S6_EEE24isPointWithinBoundingBoxERKS2_@Base 1.6
 (optional=templinst)_ZNK3pcl6octree16OctreePointCloudINS_13InterestPointENS0_26OctreeContainerDataTVectorIiEENS0_20OctreeContainerEmptyIiEENS0_14Octree2BufBaseIiS4_S6_EEE27genVoxelBoundsFromOctreeKeyERKNS0_9OctreeKeyEjRN5Eigen6MatrixIfLi3ELi1ELi0ELi3ELi1EEESG_@Base 1.6
 (optional=templinst)_ZNK3pcl6octree16OctreePointCloudINS_13InterestPointENS0_26OctreeContainerDataTVectorIiEENS0_20OctreeContainerEmptyIiEENS0_14Octree2BufBaseIiS4_S6_EEE27genVoxelCenterFromOctreeKeyERKNS0_9OctreeKeyEjRS2_@Base 1.6
 (optional=templinst)_ZNK3pcl6octree16OctreePointCloudINS_13InterestPointENS0_26OctreeContainerDataTVectorIiEENS0_20OctreeContainerEmptyIiEENS0_14Octree2BufBaseIiS4_S6_EEE30genLeafNodeCenterFromOctreeKeyERKNS0_9OctreeKeyERS2_@Base 1.6
 (optional=templinst)_ZNK3pcl6octree16OctreePointCloudINS_13InterestPointENS0_26OctreeContainerDataTVectorIiEENS0_20OctreeContainerEmptyIiEENS0_14Octree2BufBaseIiS4_S6_EEE32getOccupiedVoxelCentersRecursiveEPKNS0_18BufferedBranchNodeIS6_EERKNS0_9OctreeKeyERSt6vectorIS2_N5Eigen17aligned_allocatorIS2_EEE@Base 1.6
 (optional=templinst)_ZNK3pcl6octree16OctreePointCloudINS_14PointWithRangeENS0_26OctreeContainerDataTVectorIiEENS0_20OctreeContainerEmptyIiEENS0_10OctreeBaseIiS4_S6_EEE10getEpsilonEv@Base 1.6
 (optional=templinst)_ZNK3pcl6octree16OctreePointCloudINS_14PointWithRangeENS0_26OctreeContainerDataTVectorIiEENS0_20OctreeContainerEmptyIiEENS0_10OctreeBaseIiS4_S6_EEE10getIndicesEv@Base 1.6
 (optional=templinst)_ZNK3pcl6octree16OctreePointCloudINS_14PointWithRangeENS0_26OctreeContainerDataTVectorIiEENS0_20OctreeContainerEmptyIiEENS0_10OctreeBaseIiS4_S6_EEE12getTreeDepthEv@Base 1.6
 (optional=templinst)_ZNK3pcl6octree16OctreePointCloudINS_14PointWithRangeENS0_26OctreeContainerDataTVectorIiEENS0_20OctreeContainerEmptyIiEENS0_10OctreeBaseIiS4_S6_EEE13getInputCloudEv@Base 1.6
 (optional=templinst)_ZNK3pcl6octree16OctreePointCloudINS_14PointWithRangeENS0_26OctreeContainerDataTVectorIiEENS0_20OctreeContainerEmptyIiEENS0_10OctreeBaseIiS4_S6_EEE13getResolutionEv@Base 1.6
 (optional=templinst)_ZNK3pcl6octree16OctreePointCloudINS_14PointWithRangeENS0_26OctreeContainerDataTVectorIiEENS0_20OctreeContainerEmptyIiEENS0_10OctreeBaseIiS4_S6_EEE14getBoundingBoxERdSA_SA_SA_SA_SA_@Base 1.6
 (optional=templinst)_ZNK3pcl6octree16OctreePointCloudINS_14PointWithRangeENS0_26OctreeContainerDataTVectorIiEENS0_20OctreeContainerEmptyIiEENS0_10OctreeBaseIiS4_S6_EEE15findLeafAtPointERKS2_@Base 1.6
 (optional=templinst)_ZNK3pcl6octree16OctreePointCloudINS_14PointWithRangeENS0_26OctreeContainerDataTVectorIiEENS0_20OctreeContainerEmptyIiEENS0_10OctreeBaseIiS4_S6_EEE15getPointByIndexEj@Base 1.6
 (optional=templinst)_ZNK3pcl6octree16OctreePointCloudINS_14PointWithRangeENS0_26OctreeContainerDataTVectorIiEENS0_20OctreeContainerEmptyIiEENS0_10OctreeBaseIiS4_S6_EEE20genOctreeKeyForDataTERKiRNS0_9OctreeKeyE@Base 1.6
 (optional=templinst)_ZNK3pcl6octree16OctreePointCloudINS_14PointWithRangeENS0_26OctreeContainerDataTVectorIiEENS0_20OctreeContainerEmptyIiEENS0_10OctreeBaseIiS4_S6_EEE20genOctreeKeyforPointERKS2_RNS0_9OctreeKeyE@Base 1.6
 (optional=templinst)_ZNK3pcl6octree16OctreePointCloudINS_14PointWithRangeENS0_26OctreeContainerDataTVectorIiEENS0_20OctreeContainerEmptyIiEENS0_10OctreeBaseIiS4_S6_EEE20genOctreeKeyforPointEdddRNS0_9OctreeKeyE@Base 1.6
 (optional=templinst)_ZNK3pcl6octree16OctreePointCloudINS_14PointWithRangeENS0_26OctreeContainerDataTVectorIiEENS0_20OctreeContainerEmptyIiEENS0_10OctreeBaseIiS4_S6_EEE22getVoxelSquaredSideLenEj@Base 1.6
 (optional=templinst)_ZNK3pcl6octree16OctreePointCloudINS_14PointWithRangeENS0_26OctreeContainerDataTVectorIiEENS0_20OctreeContainerEmptyIiEENS0_10OctreeBaseIiS4_S6_EEE22getVoxelSquaredSideLenEv@Base 1.6
 (optional=templinst)_ZNK3pcl6octree16OctreePointCloudINS_14PointWithRangeENS0_26OctreeContainerDataTVectorIiEENS0_20OctreeContainerEmptyIiEENS0_10OctreeBaseIiS4_S6_EEE22isVoxelOccupiedAtPointERKS2_@Base 1.6
 (optional=templinst)_ZNK3pcl6octree16OctreePointCloudINS_14PointWithRangeENS0_26OctreeContainerDataTVectorIiEENS0_20OctreeContainerEmptyIiEENS0_10OctreeBaseIiS4_S6_EEE22isVoxelOccupiedAtPointERKi@Base 1.6
 (optional=templinst)_ZNK3pcl6octree16OctreePointCloudINS_14PointWithRangeENS0_26OctreeContainerDataTVectorIiEENS0_20OctreeContainerEmptyIiEENS0_10OctreeBaseIiS4_S6_EEE22isVoxelOccupiedAtPointEddd@Base 1.6
 (optional=templinst)_ZNK3pcl6octree16OctreePointCloudINS_14PointWithRangeENS0_26OctreeContainerDataTVectorIiEENS0_20OctreeContainerEmptyIiEENS0_10OctreeBaseIiS4_S6_EEE23getOccupiedVoxelCentersERSt6vectorIS2_N5Eigen17aligned_allocatorIS2_EEE@Base 1.6
 (optional=templinst)_ZNK3pcl6octree16OctreePointCloudINS_14PointWithRangeENS0_26OctreeContainerDataTVectorIiEENS0_20OctreeContainerEmptyIiEENS0_10OctreeBaseIiS4_S6_EEE23getVoxelSquaredDiameterEj@Base 1.6
 (optional=templinst)_ZNK3pcl6octree16OctreePointCloudINS_14PointWithRangeENS0_26OctreeContainerDataTVectorIiEENS0_20OctreeContainerEmptyIiEENS0_10OctreeBaseIiS4_S6_EEE23getVoxelSquaredDiameterEv@Base 1.6
 (optional=templinst)_ZNK3pcl6octree16OctreePointCloudINS_14PointWithRangeENS0_26OctreeContainerDataTVectorIiEENS0_20OctreeContainerEmptyIiEENS0_10OctreeBaseIiS4_S6_EEE24isPointWithinBoundingBoxERKS2_@Base 1.6
 (optional=templinst)_ZNK3pcl6octree16OctreePointCloudINS_14PointWithRangeENS0_26OctreeContainerDataTVectorIiEENS0_20OctreeContainerEmptyIiEENS0_10OctreeBaseIiS4_S6_EEE27genVoxelBoundsFromOctreeKeyERKNS0_9OctreeKeyEjRN5Eigen6MatrixIfLi3ELi1ELi0ELi3ELi1EEESG_@Base 1.6
 (optional=templinst)_ZNK3pcl6octree16OctreePointCloudINS_14PointWithRangeENS0_26OctreeContainerDataTVectorIiEENS0_20OctreeContainerEmptyIiEENS0_10OctreeBaseIiS4_S6_EEE27genVoxelCenterFromOctreeKeyERKNS0_9OctreeKeyEjRS2_@Base 1.6
 (optional=templinst)_ZNK3pcl6octree16OctreePointCloudINS_14PointWithRangeENS0_26OctreeContainerDataTVectorIiEENS0_20OctreeContainerEmptyIiEENS0_10OctreeBaseIiS4_S6_EEE30genLeafNodeCenterFromOctreeKeyERKNS0_9OctreeKeyERS2_@Base 1.6
 (optional=templinst)_ZNK3pcl6octree16OctreePointCloudINS_14PointWithRangeENS0_26OctreeContainerDataTVectorIiEENS0_20OctreeContainerEmptyIiEENS0_10OctreeBaseIiS4_S6_EEE32getOccupiedVoxelCentersRecursiveEPKNS0_16OctreeBranchNodeIS6_EERKNS0_9OctreeKeyERSt6vectorIS2_N5Eigen17aligned_allocatorIS2_EEE@Base 1.6
 (optional=templinst)_ZNK3pcl6octree16OctreePointCloudINS_14PointWithRangeENS0_26OctreeContainerDataTVectorIiEENS0_20OctreeContainerEmptyIiEENS0_14Octree2BufBaseIiS4_S6_EEE10getEpsilonEv@Base 1.6
 (optional=templinst)_ZNK3pcl6octree16OctreePointCloudINS_14PointWithRangeENS0_26OctreeContainerDataTVectorIiEENS0_20OctreeContainerEmptyIiEENS0_14Octree2BufBaseIiS4_S6_EEE10getIndicesEv@Base 1.6
 (optional=templinst)_ZNK3pcl6octree16OctreePointCloudINS_14PointWithRangeENS0_26OctreeContainerDataTVectorIiEENS0_20OctreeContainerEmptyIiEENS0_14Octree2BufBaseIiS4_S6_EEE12getTreeDepthEv@Base 1.6
 (optional=templinst)_ZNK3pcl6octree16OctreePointCloudINS_14PointWithRangeENS0_26OctreeContainerDataTVectorIiEENS0_20OctreeContainerEmptyIiEENS0_14Octree2BufBaseIiS4_S6_EEE13getInputCloudEv@Base 1.6
 (optional=templinst)_ZNK3pcl6octree16OctreePointCloudINS_14PointWithRangeENS0_26OctreeContainerDataTVectorIiEENS0_20OctreeContainerEmptyIiEENS0_14Octree2BufBaseIiS4_S6_EEE13getResolutionEv@Base 1.6
 (optional=templinst)_ZNK3pcl6octree16OctreePointCloudINS_14PointWithRangeENS0_26OctreeContainerDataTVectorIiEENS0_20OctreeContainerEmptyIiEENS0_14Octree2BufBaseIiS4_S6_EEE14getBoundingBoxERdSA_SA_SA_SA_SA_@Base 1.6
 (optional=templinst)_ZNK3pcl6octree16OctreePointCloudINS_14PointWithRangeENS0_26OctreeContainerDataTVectorIiEENS0_20OctreeContainerEmptyIiEENS0_14Octree2BufBaseIiS4_S6_EEE15findLeafAtPointERKS2_@Base 1.6
 (optional=templinst)_ZNK3pcl6octree16OctreePointCloudINS_14PointWithRangeENS0_26OctreeContainerDataTVectorIiEENS0_20OctreeContainerEmptyIiEENS0_14Octree2BufBaseIiS4_S6_EEE15getPointByIndexEj@Base 1.6
 (optional=templinst)_ZNK3pcl6octree16OctreePointCloudINS_14PointWithRangeENS0_26OctreeContainerDataTVectorIiEENS0_20OctreeContainerEmptyIiEENS0_14Octree2BufBaseIiS4_S6_EEE20genOctreeKeyForDataTERKiRNS0_9OctreeKeyE@Base 1.6
 (optional=templinst)_ZNK3pcl6octree16OctreePointCloudINS_14PointWithRangeENS0_26OctreeContainerDataTVectorIiEENS0_20OctreeContainerEmptyIiEENS0_14Octree2BufBaseIiS4_S6_EEE20genOctreeKeyforPointERKS2_RNS0_9OctreeKeyE@Base 1.6
 (optional=templinst)_ZNK3pcl6octree16OctreePointCloudINS_14PointWithRangeENS0_26OctreeContainerDataTVectorIiEENS0_20OctreeContainerEmptyIiEENS0_14Octree2BufBaseIiS4_S6_EEE20genOctreeKeyforPointEdddRNS0_9OctreeKeyE@Base 1.6
 (optional=templinst)_ZNK3pcl6octree16OctreePointCloudINS_14PointWithRangeENS0_26OctreeContainerDataTVectorIiEENS0_20OctreeContainerEmptyIiEENS0_14Octree2BufBaseIiS4_S6_EEE22getVoxelSquaredSideLenEj@Base 1.6
 (optional=templinst)_ZNK3pcl6octree16OctreePointCloudINS_14PointWithRangeENS0_26OctreeContainerDataTVectorIiEENS0_20OctreeContainerEmptyIiEENS0_14Octree2BufBaseIiS4_S6_EEE22getVoxelSquaredSideLenEv@Base 1.6
 (optional=templinst)_ZNK3pcl6octree16OctreePointCloudINS_14PointWithRangeENS0_26OctreeContainerDataTVectorIiEENS0_20OctreeContainerEmptyIiEENS0_14Octree2BufBaseIiS4_S6_EEE22isVoxelOccupiedAtPointERKS2_@Base 1.6
 (optional=templinst)_ZNK3pcl6octree16OctreePointCloudINS_14PointWithRangeENS0_26OctreeContainerDataTVectorIiEENS0_20OctreeContainerEmptyIiEENS0_14Octree2BufBaseIiS4_S6_EEE22isVoxelOccupiedAtPointERKi@Base 1.6
 (optional=templinst)_ZNK3pcl6octree16OctreePointCloudINS_14PointWithRangeENS0_26OctreeContainerDataTVectorIiEENS0_20OctreeContainerEmptyIiEENS0_14Octree2BufBaseIiS4_S6_EEE22isVoxelOccupiedAtPointEddd@Base 1.6
 (optional=templinst)_ZNK3pcl6octree16OctreePointCloudINS_14PointWithRangeENS0_26OctreeContainerDataTVectorIiEENS0_20OctreeContainerEmptyIiEENS0_14Octree2BufBaseIiS4_S6_EEE23getOccupiedVoxelCentersERSt6vectorIS2_N5Eigen17aligned_allocatorIS2_EEE@Base 1.6
 (optional=templinst)_ZNK3pcl6octree16OctreePointCloudINS_14PointWithRangeENS0_26OctreeContainerDataTVectorIiEENS0_20OctreeContainerEmptyIiEENS0_14Octree2BufBaseIiS4_S6_EEE23getVoxelSquaredDiameterEj@Base 1.6
 (optional=templinst)_ZNK3pcl6octree16OctreePointCloudINS_14PointWithRangeENS0_26OctreeContainerDataTVectorIiEENS0_20OctreeContainerEmptyIiEENS0_14Octree2BufBaseIiS4_S6_EEE23getVoxelSquaredDiameterEv@Base 1.6
 (optional=templinst)_ZNK3pcl6octree16OctreePointCloudINS_14PointWithRangeENS0_26OctreeContainerDataTVectorIiEENS0_20OctreeContainerEmptyIiEENS0_14Octree2BufBaseIiS4_S6_EEE24isPointWithinBoundingBoxERKS2_@Base 1.6
 (optional=templinst)_ZNK3pcl6octree16OctreePointCloudINS_14PointWithRangeENS0_26OctreeContainerDataTVectorIiEENS0_20OctreeContainerEmptyIiEENS0_14Octree2BufBaseIiS4_S6_EEE27genVoxelBoundsFromOctreeKeyERKNS0_9OctreeKeyEjRN5Eigen6MatrixIfLi3ELi1ELi0ELi3ELi1EEESG_@Base 1.6
 (optional=templinst)_ZNK3pcl6octree16OctreePointCloudINS_14PointWithRangeENS0_26OctreeContainerDataTVectorIiEENS0_20OctreeContainerEmptyIiEENS0_14Octree2BufBaseIiS4_S6_EEE27genVoxelCenterFromOctreeKeyERKNS0_9OctreeKeyEjRS2_@Base 1.6
 (optional=templinst)_ZNK3pcl6octree16OctreePointCloudINS_14PointWithRangeENS0_26OctreeContainerDataTVectorIiEENS0_20OctreeContainerEmptyIiEENS0_14Octree2BufBaseIiS4_S6_EEE30genLeafNodeCenterFromOctreeKeyERKNS0_9OctreeKeyERS2_@Base 1.6
 (optional=templinst)_ZNK3pcl6octree16OctreePointCloudINS_14PointWithRangeENS0_26OctreeContainerDataTVectorIiEENS0_20OctreeContainerEmptyIiEENS0_14Octree2BufBaseIiS4_S6_EEE32getOccupiedVoxelCentersRecursiveEPKNS0_18BufferedBranchNodeIS6_EERKNS0_9OctreeKeyERSt6vectorIS2_N5Eigen17aligned_allocatorIS2_EEE@Base 1.6
 (optional=templinst)_ZNK3pcl6octree16OctreePointCloudINS_14PointWithScaleENS0_26OctreeContainerDataTVectorIiEENS0_20OctreeContainerEmptyIiEENS0_10OctreeBaseIiS4_S6_EEE10getEpsilonEv@Base 1.6
 (optional=templinst)_ZNK3pcl6octree16OctreePointCloudINS_14PointWithScaleENS0_26OctreeContainerDataTVectorIiEENS0_20OctreeContainerEmptyIiEENS0_10OctreeBaseIiS4_S6_EEE10getIndicesEv@Base 1.6
 (optional=templinst)_ZNK3pcl6octree16OctreePointCloudINS_14PointWithScaleENS0_26OctreeContainerDataTVectorIiEENS0_20OctreeContainerEmptyIiEENS0_10OctreeBaseIiS4_S6_EEE12getTreeDepthEv@Base 1.6
 (optional=templinst)_ZNK3pcl6octree16OctreePointCloudINS_14PointWithScaleENS0_26OctreeContainerDataTVectorIiEENS0_20OctreeContainerEmptyIiEENS0_10OctreeBaseIiS4_S6_EEE13getInputCloudEv@Base 1.6
 (optional=templinst)_ZNK3pcl6octree16OctreePointCloudINS_14PointWithScaleENS0_26OctreeContainerDataTVectorIiEENS0_20OctreeContainerEmptyIiEENS0_10OctreeBaseIiS4_S6_EEE13getResolutionEv@Base 1.6
 (optional=templinst)_ZNK3pcl6octree16OctreePointCloudINS_14PointWithScaleENS0_26OctreeContainerDataTVectorIiEENS0_20OctreeContainerEmptyIiEENS0_10OctreeBaseIiS4_S6_EEE14getBoundingBoxERdSA_SA_SA_SA_SA_@Base 1.6
 (optional=templinst)_ZNK3pcl6octree16OctreePointCloudINS_14PointWithScaleENS0_26OctreeContainerDataTVectorIiEENS0_20OctreeContainerEmptyIiEENS0_10OctreeBaseIiS4_S6_EEE15findLeafAtPointERKS2_@Base 1.6
 (optional=templinst)_ZNK3pcl6octree16OctreePointCloudINS_14PointWithScaleENS0_26OctreeContainerDataTVectorIiEENS0_20OctreeContainerEmptyIiEENS0_10OctreeBaseIiS4_S6_EEE15getPointByIndexEj@Base 1.6
 (optional=templinst)_ZNK3pcl6octree16OctreePointCloudINS_14PointWithScaleENS0_26OctreeContainerDataTVectorIiEENS0_20OctreeContainerEmptyIiEENS0_10OctreeBaseIiS4_S6_EEE20genOctreeKeyForDataTERKiRNS0_9OctreeKeyE@Base 1.6
 (optional=templinst)_ZNK3pcl6octree16OctreePointCloudINS_14PointWithScaleENS0_26OctreeContainerDataTVectorIiEENS0_20OctreeContainerEmptyIiEENS0_10OctreeBaseIiS4_S6_EEE20genOctreeKeyforPointERKS2_RNS0_9OctreeKeyE@Base 1.6
 (optional=templinst)_ZNK3pcl6octree16OctreePointCloudINS_14PointWithScaleENS0_26OctreeContainerDataTVectorIiEENS0_20OctreeContainerEmptyIiEENS0_10OctreeBaseIiS4_S6_EEE20genOctreeKeyforPointEdddRNS0_9OctreeKeyE@Base 1.6
 (optional=templinst)_ZNK3pcl6octree16OctreePointCloudINS_14PointWithScaleENS0_26OctreeContainerDataTVectorIiEENS0_20OctreeContainerEmptyIiEENS0_10OctreeBaseIiS4_S6_EEE22getVoxelSquaredSideLenEj@Base 1.6
 (optional=templinst)_ZNK3pcl6octree16OctreePointCloudINS_14PointWithScaleENS0_26OctreeContainerDataTVectorIiEENS0_20OctreeContainerEmptyIiEENS0_10OctreeBaseIiS4_S6_EEE22getVoxelSquaredSideLenEv@Base 1.6
 (optional=templinst)_ZNK3pcl6octree16OctreePointCloudINS_14PointWithScaleENS0_26OctreeContainerDataTVectorIiEENS0_20OctreeContainerEmptyIiEENS0_10OctreeBaseIiS4_S6_EEE22isVoxelOccupiedAtPointERKS2_@Base 1.6
 (optional=templinst)_ZNK3pcl6octree16OctreePointCloudINS_14PointWithScaleENS0_26OctreeContainerDataTVectorIiEENS0_20OctreeContainerEmptyIiEENS0_10OctreeBaseIiS4_S6_EEE22isVoxelOccupiedAtPointERKi@Base 1.6
 (optional=templinst)_ZNK3pcl6octree16OctreePointCloudINS_14PointWithScaleENS0_26OctreeContainerDataTVectorIiEENS0_20OctreeContainerEmptyIiEENS0_10OctreeBaseIiS4_S6_EEE22isVoxelOccupiedAtPointEddd@Base 1.6
 (optional=templinst)_ZNK3pcl6octree16OctreePointCloudINS_14PointWithScaleENS0_26OctreeContainerDataTVectorIiEENS0_20OctreeContainerEmptyIiEENS0_10OctreeBaseIiS4_S6_EEE23getOccupiedVoxelCentersERSt6vectorIS2_N5Eigen17aligned_allocatorIS2_EEE@Base 1.6
 (optional=templinst)_ZNK3pcl6octree16OctreePointCloudINS_14PointWithScaleENS0_26OctreeContainerDataTVectorIiEENS0_20OctreeContainerEmptyIiEENS0_10OctreeBaseIiS4_S6_EEE23getVoxelSquaredDiameterEj@Base 1.6
 (optional=templinst)_ZNK3pcl6octree16OctreePointCloudINS_14PointWithScaleENS0_26OctreeContainerDataTVectorIiEENS0_20OctreeContainerEmptyIiEENS0_10OctreeBaseIiS4_S6_EEE23getVoxelSquaredDiameterEv@Base 1.6
 (optional=templinst)_ZNK3pcl6octree16OctreePointCloudINS_14PointWithScaleENS0_26OctreeContainerDataTVectorIiEENS0_20OctreeContainerEmptyIiEENS0_10OctreeBaseIiS4_S6_EEE24isPointWithinBoundingBoxERKS2_@Base 1.6
 (optional=templinst)_ZNK3pcl6octree16OctreePointCloudINS_14PointWithScaleENS0_26OctreeContainerDataTVectorIiEENS0_20OctreeContainerEmptyIiEENS0_10OctreeBaseIiS4_S6_EEE27genVoxelBoundsFromOctreeKeyERKNS0_9OctreeKeyEjRN5Eigen6MatrixIfLi3ELi1ELi0ELi3ELi1EEESG_@Base 1.6
 (optional=templinst)_ZNK3pcl6octree16OctreePointCloudINS_14PointWithScaleENS0_26OctreeContainerDataTVectorIiEENS0_20OctreeContainerEmptyIiEENS0_10OctreeBaseIiS4_S6_EEE27genVoxelCenterFromOctreeKeyERKNS0_9OctreeKeyEjRS2_@Base 1.6
 (optional=templinst)_ZNK3pcl6octree16OctreePointCloudINS_14PointWithScaleENS0_26OctreeContainerDataTVectorIiEENS0_20OctreeContainerEmptyIiEENS0_10OctreeBaseIiS4_S6_EEE30genLeafNodeCenterFromOctreeKeyERKNS0_9OctreeKeyERS2_@Base 1.6
 (optional=templinst)_ZNK3pcl6octree16OctreePointCloudINS_14PointWithScaleENS0_26OctreeContainerDataTVectorIiEENS0_20OctreeContainerEmptyIiEENS0_10OctreeBaseIiS4_S6_EEE32getOccupiedVoxelCentersRecursiveEPKNS0_16OctreeBranchNodeIS6_EERKNS0_9OctreeKeyERSt6vectorIS2_N5Eigen17aligned_allocatorIS2_EEE@Base 1.6
 (optional=templinst)_ZNK3pcl6octree16OctreePointCloudINS_14PointWithScaleENS0_26OctreeContainerDataTVectorIiEENS0_20OctreeContainerEmptyIiEENS0_14Octree2BufBaseIiS4_S6_EEE10getEpsilonEv@Base 1.6
 (optional=templinst)_ZNK3pcl6octree16OctreePointCloudINS_14PointWithScaleENS0_26OctreeContainerDataTVectorIiEENS0_20OctreeContainerEmptyIiEENS0_14Octree2BufBaseIiS4_S6_EEE10getIndicesEv@Base 1.6
 (optional=templinst)_ZNK3pcl6octree16OctreePointCloudINS_14PointWithScaleENS0_26OctreeContainerDataTVectorIiEENS0_20OctreeContainerEmptyIiEENS0_14Octree2BufBaseIiS4_S6_EEE12getTreeDepthEv@Base 1.6
 (optional=templinst)_ZNK3pcl6octree16OctreePointCloudINS_14PointWithScaleENS0_26OctreeContainerDataTVectorIiEENS0_20OctreeContainerEmptyIiEENS0_14Octree2BufBaseIiS4_S6_EEE13getInputCloudEv@Base 1.6
 (optional=templinst)_ZNK3pcl6octree16OctreePointCloudINS_14PointWithScaleENS0_26OctreeContainerDataTVectorIiEENS0_20OctreeContainerEmptyIiEENS0_14Octree2BufBaseIiS4_S6_EEE13getResolutionEv@Base 1.6
 (optional=templinst)_ZNK3pcl6octree16OctreePointCloudINS_14PointWithScaleENS0_26OctreeContainerDataTVectorIiEENS0_20OctreeContainerEmptyIiEENS0_14Octree2BufBaseIiS4_S6_EEE14getBoundingBoxERdSA_SA_SA_SA_SA_@Base 1.6
 (optional=templinst)_ZNK3pcl6octree16OctreePointCloudINS_14PointWithScaleENS0_26OctreeContainerDataTVectorIiEENS0_20OctreeContainerEmptyIiEENS0_14Octree2BufBaseIiS4_S6_EEE15findLeafAtPointERKS2_@Base 1.6
 (optional=templinst)_ZNK3pcl6octree16OctreePointCloudINS_14PointWithScaleENS0_26OctreeContainerDataTVectorIiEENS0_20OctreeContainerEmptyIiEENS0_14Octree2BufBaseIiS4_S6_EEE15getPointByIndexEj@Base 1.6
 (optional=templinst)_ZNK3pcl6octree16OctreePointCloudINS_14PointWithScaleENS0_26OctreeContainerDataTVectorIiEENS0_20OctreeContainerEmptyIiEENS0_14Octree2BufBaseIiS4_S6_EEE20genOctreeKeyForDataTERKiRNS0_9OctreeKeyE@Base 1.6
 (optional=templinst)_ZNK3pcl6octree16OctreePointCloudINS_14PointWithScaleENS0_26OctreeContainerDataTVectorIiEENS0_20OctreeContainerEmptyIiEENS0_14Octree2BufBaseIiS4_S6_EEE20genOctreeKeyforPointERKS2_RNS0_9OctreeKeyE@Base 1.6
 (optional=templinst)_ZNK3pcl6octree16OctreePointCloudINS_14PointWithScaleENS0_26OctreeContainerDataTVectorIiEENS0_20OctreeContainerEmptyIiEENS0_14Octree2BufBaseIiS4_S6_EEE20genOctreeKeyforPointEdddRNS0_9OctreeKeyE@Base 1.6
 (optional=templinst)_ZNK3pcl6octree16OctreePointCloudINS_14PointWithScaleENS0_26OctreeContainerDataTVectorIiEENS0_20OctreeContainerEmptyIiEENS0_14Octree2BufBaseIiS4_S6_EEE22getVoxelSquaredSideLenEj@Base 1.6
 (optional=templinst)_ZNK3pcl6octree16OctreePointCloudINS_14PointWithScaleENS0_26OctreeContainerDataTVectorIiEENS0_20OctreeContainerEmptyIiEENS0_14Octree2BufBaseIiS4_S6_EEE22getVoxelSquaredSideLenEv@Base 1.6
 (optional=templinst)_ZNK3pcl6octree16OctreePointCloudINS_14PointWithScaleENS0_26OctreeContainerDataTVectorIiEENS0_20OctreeContainerEmptyIiEENS0_14Octree2BufBaseIiS4_S6_EEE22isVoxelOccupiedAtPointERKS2_@Base 1.6
 (optional=templinst)_ZNK3pcl6octree16OctreePointCloudINS_14PointWithScaleENS0_26OctreeContainerDataTVectorIiEENS0_20OctreeContainerEmptyIiEENS0_14Octree2BufBaseIiS4_S6_EEE22isVoxelOccupiedAtPointERKi@Base 1.6
 (optional=templinst)_ZNK3pcl6octree16OctreePointCloudINS_14PointWithScaleENS0_26OctreeContainerDataTVectorIiEENS0_20OctreeContainerEmptyIiEENS0_14Octree2BufBaseIiS4_S6_EEE22isVoxelOccupiedAtPointEddd@Base 1.6
 (optional=templinst)_ZNK3pcl6octree16OctreePointCloudINS_14PointWithScaleENS0_26OctreeContainerDataTVectorIiEENS0_20OctreeContainerEmptyIiEENS0_14Octree2BufBaseIiS4_S6_EEE23getOccupiedVoxelCentersERSt6vectorIS2_N5Eigen17aligned_allocatorIS2_EEE@Base 1.6
 (optional=templinst)_ZNK3pcl6octree16OctreePointCloudINS_14PointWithScaleENS0_26OctreeContainerDataTVectorIiEENS0_20OctreeContainerEmptyIiEENS0_14Octree2BufBaseIiS4_S6_EEE23getVoxelSquaredDiameterEj@Base 1.6
 (optional=templinst)_ZNK3pcl6octree16OctreePointCloudINS_14PointWithScaleENS0_26OctreeContainerDataTVectorIiEENS0_20OctreeContainerEmptyIiEENS0_14Octree2BufBaseIiS4_S6_EEE23getVoxelSquaredDiameterEv@Base 1.6
 (optional=templinst)_ZNK3pcl6octree16OctreePointCloudINS_14PointWithScaleENS0_26OctreeContainerDataTVectorIiEENS0_20OctreeContainerEmptyIiEENS0_14Octree2BufBaseIiS4_S6_EEE24isPointWithinBoundingBoxERKS2_@Base 1.6
 (optional=templinst)_ZNK3pcl6octree16OctreePointCloudINS_14PointWithScaleENS0_26OctreeContainerDataTVectorIiEENS0_20OctreeContainerEmptyIiEENS0_14Octree2BufBaseIiS4_S6_EEE27genVoxelBoundsFromOctreeKeyERKNS0_9OctreeKeyEjRN5Eigen6MatrixIfLi3ELi1ELi0ELi3ELi1EEESG_@Base 1.6
 (optional=templinst)_ZNK3pcl6octree16OctreePointCloudINS_14PointWithScaleENS0_26OctreeContainerDataTVectorIiEENS0_20OctreeContainerEmptyIiEENS0_14Octree2BufBaseIiS4_S6_EEE27genVoxelCenterFromOctreeKeyERKNS0_9OctreeKeyEjRS2_@Base 1.6
 (optional=templinst)_ZNK3pcl6octree16OctreePointCloudINS_14PointWithScaleENS0_26OctreeContainerDataTVectorIiEENS0_20OctreeContainerEmptyIiEENS0_14Octree2BufBaseIiS4_S6_EEE30genLeafNodeCenterFromOctreeKeyERKNS0_9OctreeKeyERS2_@Base 1.6
 (optional=templinst)_ZNK3pcl6octree16OctreePointCloudINS_14PointWithScaleENS0_26OctreeContainerDataTVectorIiEENS0_20OctreeContainerEmptyIiEENS0_14Octree2BufBaseIiS4_S6_EEE32getOccupiedVoxelCentersRecursiveEPKNS0_18BufferedBranchNodeIS6_EERKNS0_9OctreeKeyERSt6vectorIS2_N5Eigen17aligned_allocatorIS2_EEE@Base 1.6
 (optional=templinst)_ZNK3pcl6octree16OctreePointCloudINS_15PointXYZINormalENS0_26OctreeContainerDataTVectorIiEENS0_20OctreeContainerEmptyIiEENS0_10OctreeBaseIiS4_S6_EEE10getEpsilonEv@Base 1.6
 (optional=templinst)_ZNK3pcl6octree16OctreePointCloudINS_15PointXYZINormalENS0_26OctreeContainerDataTVectorIiEENS0_20OctreeContainerEmptyIiEENS0_10OctreeBaseIiS4_S6_EEE10getIndicesEv@Base 1.6
 (optional=templinst)_ZNK3pcl6octree16OctreePointCloudINS_15PointXYZINormalENS0_26OctreeContainerDataTVectorIiEENS0_20OctreeContainerEmptyIiEENS0_10OctreeBaseIiS4_S6_EEE12getTreeDepthEv@Base 1.6
 (optional=templinst)_ZNK3pcl6octree16OctreePointCloudINS_15PointXYZINormalENS0_26OctreeContainerDataTVectorIiEENS0_20OctreeContainerEmptyIiEENS0_10OctreeBaseIiS4_S6_EEE13getInputCloudEv@Base 1.6
 (optional=templinst)_ZNK3pcl6octree16OctreePointCloudINS_15PointXYZINormalENS0_26OctreeContainerDataTVectorIiEENS0_20OctreeContainerEmptyIiEENS0_10OctreeBaseIiS4_S6_EEE13getResolutionEv@Base 1.6
 (optional=templinst)_ZNK3pcl6octree16OctreePointCloudINS_15PointXYZINormalENS0_26OctreeContainerDataTVectorIiEENS0_20OctreeContainerEmptyIiEENS0_10OctreeBaseIiS4_S6_EEE14getBoundingBoxERdSA_SA_SA_SA_SA_@Base 1.6
 (optional=templinst)_ZNK3pcl6octree16OctreePointCloudINS_15PointXYZINormalENS0_26OctreeContainerDataTVectorIiEENS0_20OctreeContainerEmptyIiEENS0_10OctreeBaseIiS4_S6_EEE15findLeafAtPointERKS2_@Base 1.6
 (optional=templinst)_ZNK3pcl6octree16OctreePointCloudINS_15PointXYZINormalENS0_26OctreeContainerDataTVectorIiEENS0_20OctreeContainerEmptyIiEENS0_10OctreeBaseIiS4_S6_EEE15getPointByIndexEj@Base 1.6
 (optional=templinst)_ZNK3pcl6octree16OctreePointCloudINS_15PointXYZINormalENS0_26OctreeContainerDataTVectorIiEENS0_20OctreeContainerEmptyIiEENS0_10OctreeBaseIiS4_S6_EEE20genOctreeKeyForDataTERKiRNS0_9OctreeKeyE@Base 1.6
 (optional=templinst)_ZNK3pcl6octree16OctreePointCloudINS_15PointXYZINormalENS0_26OctreeContainerDataTVectorIiEENS0_20OctreeContainerEmptyIiEENS0_10OctreeBaseIiS4_S6_EEE20genOctreeKeyforPointERKS2_RNS0_9OctreeKeyE@Base 1.6
 (optional=templinst)_ZNK3pcl6octree16OctreePointCloudINS_15PointXYZINormalENS0_26OctreeContainerDataTVectorIiEENS0_20OctreeContainerEmptyIiEENS0_10OctreeBaseIiS4_S6_EEE20genOctreeKeyforPointEdddRNS0_9OctreeKeyE@Base 1.6
 (optional=templinst)_ZNK3pcl6octree16OctreePointCloudINS_15PointXYZINormalENS0_26OctreeContainerDataTVectorIiEENS0_20OctreeContainerEmptyIiEENS0_10OctreeBaseIiS4_S6_EEE22getVoxelSquaredSideLenEj@Base 1.6
 (optional=templinst)_ZNK3pcl6octree16OctreePointCloudINS_15PointXYZINormalENS0_26OctreeContainerDataTVectorIiEENS0_20OctreeContainerEmptyIiEENS0_10OctreeBaseIiS4_S6_EEE22getVoxelSquaredSideLenEv@Base 1.6
 (optional=templinst)_ZNK3pcl6octree16OctreePointCloudINS_15PointXYZINormalENS0_26OctreeContainerDataTVectorIiEENS0_20OctreeContainerEmptyIiEENS0_10OctreeBaseIiS4_S6_EEE22isVoxelOccupiedAtPointERKS2_@Base 1.6
 (optional=templinst)_ZNK3pcl6octree16OctreePointCloudINS_15PointXYZINormalENS0_26OctreeContainerDataTVectorIiEENS0_20OctreeContainerEmptyIiEENS0_10OctreeBaseIiS4_S6_EEE22isVoxelOccupiedAtPointERKi@Base 1.6
 (optional=templinst)_ZNK3pcl6octree16OctreePointCloudINS_15PointXYZINormalENS0_26OctreeContainerDataTVectorIiEENS0_20OctreeContainerEmptyIiEENS0_10OctreeBaseIiS4_S6_EEE22isVoxelOccupiedAtPointEddd@Base 1.6
 (optional=templinst)_ZNK3pcl6octree16OctreePointCloudINS_15PointXYZINormalENS0_26OctreeContainerDataTVectorIiEENS0_20OctreeContainerEmptyIiEENS0_10OctreeBaseIiS4_S6_EEE23getOccupiedVoxelCentersERSt6vectorIS2_N5Eigen17aligned_allocatorIS2_EEE@Base 1.6
 (optional=templinst)_ZNK3pcl6octree16OctreePointCloudINS_15PointXYZINormalENS0_26OctreeContainerDataTVectorIiEENS0_20OctreeContainerEmptyIiEENS0_10OctreeBaseIiS4_S6_EEE23getVoxelSquaredDiameterEj@Base 1.6
 (optional=templinst)_ZNK3pcl6octree16OctreePointCloudINS_15PointXYZINormalENS0_26OctreeContainerDataTVectorIiEENS0_20OctreeContainerEmptyIiEENS0_10OctreeBaseIiS4_S6_EEE23getVoxelSquaredDiameterEv@Base 1.6
 (optional=templinst)_ZNK3pcl6octree16OctreePointCloudINS_15PointXYZINormalENS0_26OctreeContainerDataTVectorIiEENS0_20OctreeContainerEmptyIiEENS0_10OctreeBaseIiS4_S6_EEE24isPointWithinBoundingBoxERKS2_@Base 1.6
 (optional=templinst)_ZNK3pcl6octree16OctreePointCloudINS_15PointXYZINormalENS0_26OctreeContainerDataTVectorIiEENS0_20OctreeContainerEmptyIiEENS0_10OctreeBaseIiS4_S6_EEE27genVoxelBoundsFromOctreeKeyERKNS0_9OctreeKeyEjRN5Eigen6MatrixIfLi3ELi1ELi0ELi3ELi1EEESG_@Base 1.6
 (optional=templinst)_ZNK3pcl6octree16OctreePointCloudINS_15PointXYZINormalENS0_26OctreeContainerDataTVectorIiEENS0_20OctreeContainerEmptyIiEENS0_10OctreeBaseIiS4_S6_EEE27genVoxelCenterFromOctreeKeyERKNS0_9OctreeKeyEjRS2_@Base 1.6
 (optional=templinst)_ZNK3pcl6octree16OctreePointCloudINS_15PointXYZINormalENS0_26OctreeContainerDataTVectorIiEENS0_20OctreeContainerEmptyIiEENS0_10OctreeBaseIiS4_S6_EEE30genLeafNodeCenterFromOctreeKeyERKNS0_9OctreeKeyERS2_@Base 1.6
 (optional=templinst)_ZNK3pcl6octree16OctreePointCloudINS_15PointXYZINormalENS0_26OctreeContainerDataTVectorIiEENS0_20OctreeContainerEmptyIiEENS0_10OctreeBaseIiS4_S6_EEE32getOccupiedVoxelCentersRecursiveEPKNS0_16OctreeBranchNodeIS6_EERKNS0_9OctreeKeyERSt6vectorIS2_N5Eigen17aligned_allocatorIS2_EEE@Base 1.6
 (optional=templinst)_ZNK3pcl6octree16OctreePointCloudINS_15PointXYZINormalENS0_26OctreeContainerDataTVectorIiEENS0_20OctreeContainerEmptyIiEENS0_14Octree2BufBaseIiS4_S6_EEE10getEpsilonEv@Base 1.6
 (optional=templinst)_ZNK3pcl6octree16OctreePointCloudINS_15PointXYZINormalENS0_26OctreeContainerDataTVectorIiEENS0_20OctreeContainerEmptyIiEENS0_14Octree2BufBaseIiS4_S6_EEE10getIndicesEv@Base 1.6
 (optional=templinst)_ZNK3pcl6octree16OctreePointCloudINS_15PointXYZINormalENS0_26OctreeContainerDataTVectorIiEENS0_20OctreeContainerEmptyIiEENS0_14Octree2BufBaseIiS4_S6_EEE12getTreeDepthEv@Base 1.6
 (optional=templinst)_ZNK3pcl6octree16OctreePointCloudINS_15PointXYZINormalENS0_26OctreeContainerDataTVectorIiEENS0_20OctreeContainerEmptyIiEENS0_14Octree2BufBaseIiS4_S6_EEE13getInputCloudEv@Base 1.6
 (optional=templinst)_ZNK3pcl6octree16OctreePointCloudINS_15PointXYZINormalENS0_26OctreeContainerDataTVectorIiEENS0_20OctreeContainerEmptyIiEENS0_14Octree2BufBaseIiS4_S6_EEE13getResolutionEv@Base 1.6
 (optional=templinst)_ZNK3pcl6octree16OctreePointCloudINS_15PointXYZINormalENS0_26OctreeContainerDataTVectorIiEENS0_20OctreeContainerEmptyIiEENS0_14Octree2BufBaseIiS4_S6_EEE14getBoundingBoxERdSA_SA_SA_SA_SA_@Base 1.6
 (optional=templinst)_ZNK3pcl6octree16OctreePointCloudINS_15PointXYZINormalENS0_26OctreeContainerDataTVectorIiEENS0_20OctreeContainerEmptyIiEENS0_14Octree2BufBaseIiS4_S6_EEE15findLeafAtPointERKS2_@Base 1.6
 (optional=templinst)_ZNK3pcl6octree16OctreePointCloudINS_15PointXYZINormalENS0_26OctreeContainerDataTVectorIiEENS0_20OctreeContainerEmptyIiEENS0_14Octree2BufBaseIiS4_S6_EEE15getPointByIndexEj@Base 1.6
 (optional=templinst)_ZNK3pcl6octree16OctreePointCloudINS_15PointXYZINormalENS0_26OctreeContainerDataTVectorIiEENS0_20OctreeContainerEmptyIiEENS0_14Octree2BufBaseIiS4_S6_EEE20genOctreeKeyForDataTERKiRNS0_9OctreeKeyE@Base 1.6
 (optional=templinst)_ZNK3pcl6octree16OctreePointCloudINS_15PointXYZINormalENS0_26OctreeContainerDataTVectorIiEENS0_20OctreeContainerEmptyIiEENS0_14Octree2BufBaseIiS4_S6_EEE20genOctreeKeyforPointERKS2_RNS0_9OctreeKeyE@Base 1.6
 (optional=templinst)_ZNK3pcl6octree16OctreePointCloudINS_15PointXYZINormalENS0_26OctreeContainerDataTVectorIiEENS0_20OctreeContainerEmptyIiEENS0_14Octree2BufBaseIiS4_S6_EEE20genOctreeKeyforPointEdddRNS0_9OctreeKeyE@Base 1.6
 (optional=templinst)_ZNK3pcl6octree16OctreePointCloudINS_15PointXYZINormalENS0_26OctreeContainerDataTVectorIiEENS0_20OctreeContainerEmptyIiEENS0_14Octree2BufBaseIiS4_S6_EEE22getVoxelSquaredSideLenEj@Base 1.6
 (optional=templinst)_ZNK3pcl6octree16OctreePointCloudINS_15PointXYZINormalENS0_26OctreeContainerDataTVectorIiEENS0_20OctreeContainerEmptyIiEENS0_14Octree2BufBaseIiS4_S6_EEE22getVoxelSquaredSideLenEv@Base 1.6
 (optional=templinst)_ZNK3pcl6octree16OctreePointCloudINS_15PointXYZINormalENS0_26OctreeContainerDataTVectorIiEENS0_20OctreeContainerEmptyIiEENS0_14Octree2BufBaseIiS4_S6_EEE22isVoxelOccupiedAtPointERKS2_@Base 1.6
 (optional=templinst)_ZNK3pcl6octree16OctreePointCloudINS_15PointXYZINormalENS0_26OctreeContainerDataTVectorIiEENS0_20OctreeContainerEmptyIiEENS0_14Octree2BufBaseIiS4_S6_EEE22isVoxelOccupiedAtPointERKi@Base 1.6
 (optional=templinst)_ZNK3pcl6octree16OctreePointCloudINS_15PointXYZINormalENS0_26OctreeContainerDataTVectorIiEENS0_20OctreeContainerEmptyIiEENS0_14Octree2BufBaseIiS4_S6_EEE22isVoxelOccupiedAtPointEddd@Base 1.6
 (optional=templinst)_ZNK3pcl6octree16OctreePointCloudINS_15PointXYZINormalENS0_26OctreeContainerDataTVectorIiEENS0_20OctreeContainerEmptyIiEENS0_14Octree2BufBaseIiS4_S6_EEE23getOccupiedVoxelCentersERSt6vectorIS2_N5Eigen17aligned_allocatorIS2_EEE@Base 1.6
 (optional=templinst)_ZNK3pcl6octree16OctreePointCloudINS_15PointXYZINormalENS0_26OctreeContainerDataTVectorIiEENS0_20OctreeContainerEmptyIiEENS0_14Octree2BufBaseIiS4_S6_EEE23getVoxelSquaredDiameterEj@Base 1.6
 (optional=templinst)_ZNK3pcl6octree16OctreePointCloudINS_15PointXYZINormalENS0_26OctreeContainerDataTVectorIiEENS0_20OctreeContainerEmptyIiEENS0_14Octree2BufBaseIiS4_S6_EEE23getVoxelSquaredDiameterEv@Base 1.6
 (optional=templinst)_ZNK3pcl6octree16OctreePointCloudINS_15PointXYZINormalENS0_26OctreeContainerDataTVectorIiEENS0_20OctreeContainerEmptyIiEENS0_14Octree2BufBaseIiS4_S6_EEE24isPointWithinBoundingBoxERKS2_@Base 1.6
 (optional=templinst)_ZNK3pcl6octree16OctreePointCloudINS_15PointXYZINormalENS0_26OctreeContainerDataTVectorIiEENS0_20OctreeContainerEmptyIiEENS0_14Octree2BufBaseIiS4_S6_EEE27genVoxelBoundsFromOctreeKeyERKNS0_9OctreeKeyEjRN5Eigen6MatrixIfLi3ELi1ELi0ELi3ELi1EEESG_@Base 1.6
 (optional=templinst)_ZNK3pcl6octree16OctreePointCloudINS_15PointXYZINormalENS0_26OctreeContainerDataTVectorIiEENS0_20OctreeContainerEmptyIiEENS0_14Octree2BufBaseIiS4_S6_EEE27genVoxelCenterFromOctreeKeyERKNS0_9OctreeKeyEjRS2_@Base 1.6
 (optional=templinst)_ZNK3pcl6octree16OctreePointCloudINS_15PointXYZINormalENS0_26OctreeContainerDataTVectorIiEENS0_20OctreeContainerEmptyIiEENS0_14Octree2BufBaseIiS4_S6_EEE30genLeafNodeCenterFromOctreeKeyERKNS0_9OctreeKeyERS2_@Base 1.6
 (optional=templinst)_ZNK3pcl6octree16OctreePointCloudINS_15PointXYZINormalENS0_26OctreeContainerDataTVectorIiEENS0_20OctreeContainerEmptyIiEENS0_14Octree2BufBaseIiS4_S6_EEE32getOccupiedVoxelCentersRecursiveEPKNS0_18BufferedBranchNodeIS6_EERKNS0_9OctreeKeyERSt6vectorIS2_N5Eigen17aligned_allocatorIS2_EEE@Base 1.6
 (optional=templinst)_ZNK3pcl6octree16OctreePointCloudINS_17PointXYZRGBNormalENS0_26OctreeContainerDataTVectorIiEENS0_20OctreeContainerEmptyIiEENS0_10OctreeBaseIiS4_S6_EEE10getEpsilonEv@Base 1.6
 (optional=templinst)_ZNK3pcl6octree16OctreePointCloudINS_17PointXYZRGBNormalENS0_26OctreeContainerDataTVectorIiEENS0_20OctreeContainerEmptyIiEENS0_10OctreeBaseIiS4_S6_EEE10getIndicesEv@Base 1.6
 (optional=templinst)_ZNK3pcl6octree16OctreePointCloudINS_17PointXYZRGBNormalENS0_26OctreeContainerDataTVectorIiEENS0_20OctreeContainerEmptyIiEENS0_10OctreeBaseIiS4_S6_EEE12getTreeDepthEv@Base 1.6
 (optional=templinst)_ZNK3pcl6octree16OctreePointCloudINS_17PointXYZRGBNormalENS0_26OctreeContainerDataTVectorIiEENS0_20OctreeContainerEmptyIiEENS0_10OctreeBaseIiS4_S6_EEE13getInputCloudEv@Base 1.6
 (optional=templinst)_ZNK3pcl6octree16OctreePointCloudINS_17PointXYZRGBNormalENS0_26OctreeContainerDataTVectorIiEENS0_20OctreeContainerEmptyIiEENS0_10OctreeBaseIiS4_S6_EEE13getResolutionEv@Base 1.6
 (optional=templinst)_ZNK3pcl6octree16OctreePointCloudINS_17PointXYZRGBNormalENS0_26OctreeContainerDataTVectorIiEENS0_20OctreeContainerEmptyIiEENS0_10OctreeBaseIiS4_S6_EEE14getBoundingBoxERdSA_SA_SA_SA_SA_@Base 1.6
 (optional=templinst)_ZNK3pcl6octree16OctreePointCloudINS_17PointXYZRGBNormalENS0_26OctreeContainerDataTVectorIiEENS0_20OctreeContainerEmptyIiEENS0_10OctreeBaseIiS4_S6_EEE15findLeafAtPointERKS2_@Base 1.6
 (optional=templinst)_ZNK3pcl6octree16OctreePointCloudINS_17PointXYZRGBNormalENS0_26OctreeContainerDataTVectorIiEENS0_20OctreeContainerEmptyIiEENS0_10OctreeBaseIiS4_S6_EEE15getPointByIndexEj@Base 1.6
 (optional=templinst)_ZNK3pcl6octree16OctreePointCloudINS_17PointXYZRGBNormalENS0_26OctreeContainerDataTVectorIiEENS0_20OctreeContainerEmptyIiEENS0_10OctreeBaseIiS4_S6_EEE20genOctreeKeyForDataTERKiRNS0_9OctreeKeyE@Base 1.6
 (optional=templinst)_ZNK3pcl6octree16OctreePointCloudINS_17PointXYZRGBNormalENS0_26OctreeContainerDataTVectorIiEENS0_20OctreeContainerEmptyIiEENS0_10OctreeBaseIiS4_S6_EEE20genOctreeKeyforPointERKS2_RNS0_9OctreeKeyE@Base 1.6
 (optional=templinst)_ZNK3pcl6octree16OctreePointCloudINS_17PointXYZRGBNormalENS0_26OctreeContainerDataTVectorIiEENS0_20OctreeContainerEmptyIiEENS0_10OctreeBaseIiS4_S6_EEE20genOctreeKeyforPointEdddRNS0_9OctreeKeyE@Base 1.6
 (optional=templinst)_ZNK3pcl6octree16OctreePointCloudINS_17PointXYZRGBNormalENS0_26OctreeContainerDataTVectorIiEENS0_20OctreeContainerEmptyIiEENS0_10OctreeBaseIiS4_S6_EEE22getVoxelSquaredSideLenEj@Base 1.6
 (optional=templinst)_ZNK3pcl6octree16OctreePointCloudINS_17PointXYZRGBNormalENS0_26OctreeContainerDataTVectorIiEENS0_20OctreeContainerEmptyIiEENS0_10OctreeBaseIiS4_S6_EEE22getVoxelSquaredSideLenEv@Base 1.6
 (optional=templinst)_ZNK3pcl6octree16OctreePointCloudINS_17PointXYZRGBNormalENS0_26OctreeContainerDataTVectorIiEENS0_20OctreeContainerEmptyIiEENS0_10OctreeBaseIiS4_S6_EEE22isVoxelOccupiedAtPointERKS2_@Base 1.6
 (optional=templinst)_ZNK3pcl6octree16OctreePointCloudINS_17PointXYZRGBNormalENS0_26OctreeContainerDataTVectorIiEENS0_20OctreeContainerEmptyIiEENS0_10OctreeBaseIiS4_S6_EEE22isVoxelOccupiedAtPointERKi@Base 1.6
 (optional=templinst)_ZNK3pcl6octree16OctreePointCloudINS_17PointXYZRGBNormalENS0_26OctreeContainerDataTVectorIiEENS0_20OctreeContainerEmptyIiEENS0_10OctreeBaseIiS4_S6_EEE22isVoxelOccupiedAtPointEddd@Base 1.6
 (optional=templinst)_ZNK3pcl6octree16OctreePointCloudINS_17PointXYZRGBNormalENS0_26OctreeContainerDataTVectorIiEENS0_20OctreeContainerEmptyIiEENS0_10OctreeBaseIiS4_S6_EEE23getOccupiedVoxelCentersERSt6vectorIS2_N5Eigen17aligned_allocatorIS2_EEE@Base 1.6
 (optional=templinst)_ZNK3pcl6octree16OctreePointCloudINS_17PointXYZRGBNormalENS0_26OctreeContainerDataTVectorIiEENS0_20OctreeContainerEmptyIiEENS0_10OctreeBaseIiS4_S6_EEE23getVoxelSquaredDiameterEj@Base 1.6
 (optional=templinst)_ZNK3pcl6octree16OctreePointCloudINS_17PointXYZRGBNormalENS0_26OctreeContainerDataTVectorIiEENS0_20OctreeContainerEmptyIiEENS0_10OctreeBaseIiS4_S6_EEE23getVoxelSquaredDiameterEv@Base 1.6
 (optional=templinst)_ZNK3pcl6octree16OctreePointCloudINS_17PointXYZRGBNormalENS0_26OctreeContainerDataTVectorIiEENS0_20OctreeContainerEmptyIiEENS0_10OctreeBaseIiS4_S6_EEE24isPointWithinBoundingBoxERKS2_@Base 1.6
 (optional=templinst)_ZNK3pcl6octree16OctreePointCloudINS_17PointXYZRGBNormalENS0_26OctreeContainerDataTVectorIiEENS0_20OctreeContainerEmptyIiEENS0_10OctreeBaseIiS4_S6_EEE27genVoxelBoundsFromOctreeKeyERKNS0_9OctreeKeyEjRN5Eigen6MatrixIfLi3ELi1ELi0ELi3ELi1EEESG_@Base 1.6
 (optional=templinst)_ZNK3pcl6octree16OctreePointCloudINS_17PointXYZRGBNormalENS0_26OctreeContainerDataTVectorIiEENS0_20OctreeContainerEmptyIiEENS0_10OctreeBaseIiS4_S6_EEE27genVoxelCenterFromOctreeKeyERKNS0_9OctreeKeyEjRS2_@Base 1.6
 (optional=templinst)_ZNK3pcl6octree16OctreePointCloudINS_17PointXYZRGBNormalENS0_26OctreeContainerDataTVectorIiEENS0_20OctreeContainerEmptyIiEENS0_10OctreeBaseIiS4_S6_EEE30genLeafNodeCenterFromOctreeKeyERKNS0_9OctreeKeyERS2_@Base 1.6
 (optional=templinst)_ZNK3pcl6octree16OctreePointCloudINS_17PointXYZRGBNormalENS0_26OctreeContainerDataTVectorIiEENS0_20OctreeContainerEmptyIiEENS0_10OctreeBaseIiS4_S6_EEE32getOccupiedVoxelCentersRecursiveEPKNS0_16OctreeBranchNodeIS6_EERKNS0_9OctreeKeyERSt6vectorIS2_N5Eigen17aligned_allocatorIS2_EEE@Base 1.6
 (optional=templinst)_ZNK3pcl6octree16OctreePointCloudINS_17PointXYZRGBNormalENS0_26OctreeContainerDataTVectorIiEENS0_20OctreeContainerEmptyIiEENS0_14Octree2BufBaseIiS4_S6_EEE10getEpsilonEv@Base 1.6
 (optional=templinst)_ZNK3pcl6octree16OctreePointCloudINS_17PointXYZRGBNormalENS0_26OctreeContainerDataTVectorIiEENS0_20OctreeContainerEmptyIiEENS0_14Octree2BufBaseIiS4_S6_EEE10getIndicesEv@Base 1.6
 (optional=templinst)_ZNK3pcl6octree16OctreePointCloudINS_17PointXYZRGBNormalENS0_26OctreeContainerDataTVectorIiEENS0_20OctreeContainerEmptyIiEENS0_14Octree2BufBaseIiS4_S6_EEE12getTreeDepthEv@Base 1.6
 (optional=templinst)_ZNK3pcl6octree16OctreePointCloudINS_17PointXYZRGBNormalENS0_26OctreeContainerDataTVectorIiEENS0_20OctreeContainerEmptyIiEENS0_14Octree2BufBaseIiS4_S6_EEE13getInputCloudEv@Base 1.6
 (optional=templinst)_ZNK3pcl6octree16OctreePointCloudINS_17PointXYZRGBNormalENS0_26OctreeContainerDataTVectorIiEENS0_20OctreeContainerEmptyIiEENS0_14Octree2BufBaseIiS4_S6_EEE13getResolutionEv@Base 1.6
 (optional=templinst)_ZNK3pcl6octree16OctreePointCloudINS_17PointXYZRGBNormalENS0_26OctreeContainerDataTVectorIiEENS0_20OctreeContainerEmptyIiEENS0_14Octree2BufBaseIiS4_S6_EEE14getBoundingBoxERdSA_SA_SA_SA_SA_@Base 1.6
 (optional=templinst)_ZNK3pcl6octree16OctreePointCloudINS_17PointXYZRGBNormalENS0_26OctreeContainerDataTVectorIiEENS0_20OctreeContainerEmptyIiEENS0_14Octree2BufBaseIiS4_S6_EEE15findLeafAtPointERKS2_@Base 1.6
 (optional=templinst)_ZNK3pcl6octree16OctreePointCloudINS_17PointXYZRGBNormalENS0_26OctreeContainerDataTVectorIiEENS0_20OctreeContainerEmptyIiEENS0_14Octree2BufBaseIiS4_S6_EEE15getPointByIndexEj@Base 1.6
 (optional=templinst)_ZNK3pcl6octree16OctreePointCloudINS_17PointXYZRGBNormalENS0_26OctreeContainerDataTVectorIiEENS0_20OctreeContainerEmptyIiEENS0_14Octree2BufBaseIiS4_S6_EEE20genOctreeKeyForDataTERKiRNS0_9OctreeKeyE@Base 1.6
 (optional=templinst)_ZNK3pcl6octree16OctreePointCloudINS_17PointXYZRGBNormalENS0_26OctreeContainerDataTVectorIiEENS0_20OctreeContainerEmptyIiEENS0_14Octree2BufBaseIiS4_S6_EEE20genOctreeKeyforPointERKS2_RNS0_9OctreeKeyE@Base 1.6
 (optional=templinst)_ZNK3pcl6octree16OctreePointCloudINS_17PointXYZRGBNormalENS0_26OctreeContainerDataTVectorIiEENS0_20OctreeContainerEmptyIiEENS0_14Octree2BufBaseIiS4_S6_EEE20genOctreeKeyforPointEdddRNS0_9OctreeKeyE@Base 1.6
 (optional=templinst)_ZNK3pcl6octree16OctreePointCloudINS_17PointXYZRGBNormalENS0_26OctreeContainerDataTVectorIiEENS0_20OctreeContainerEmptyIiEENS0_14Octree2BufBaseIiS4_S6_EEE22getVoxelSquaredSideLenEj@Base 1.6
 (optional=templinst)_ZNK3pcl6octree16OctreePointCloudINS_17PointXYZRGBNormalENS0_26OctreeContainerDataTVectorIiEENS0_20OctreeContainerEmptyIiEENS0_14Octree2BufBaseIiS4_S6_EEE22getVoxelSquaredSideLenEv@Base 1.6
 (optional=templinst)_ZNK3pcl6octree16OctreePointCloudINS_17PointXYZRGBNormalENS0_26OctreeContainerDataTVectorIiEENS0_20OctreeContainerEmptyIiEENS0_14Octree2BufBaseIiS4_S6_EEE22isVoxelOccupiedAtPointERKS2_@Base 1.6
 (optional=templinst)_ZNK3pcl6octree16OctreePointCloudINS_17PointXYZRGBNormalENS0_26OctreeContainerDataTVectorIiEENS0_20OctreeContainerEmptyIiEENS0_14Octree2BufBaseIiS4_S6_EEE22isVoxelOccupiedAtPointERKi@Base 1.6
 (optional=templinst)_ZNK3pcl6octree16OctreePointCloudINS_17PointXYZRGBNormalENS0_26OctreeContainerDataTVectorIiEENS0_20OctreeContainerEmptyIiEENS0_14Octree2BufBaseIiS4_S6_EEE22isVoxelOccupiedAtPointEddd@Base 1.6
 (optional=templinst)_ZNK3pcl6octree16OctreePointCloudINS_17PointXYZRGBNormalENS0_26OctreeContainerDataTVectorIiEENS0_20OctreeContainerEmptyIiEENS0_14Octree2BufBaseIiS4_S6_EEE23getOccupiedVoxelCentersERSt6vectorIS2_N5Eigen17aligned_allocatorIS2_EEE@Base 1.6
 (optional=templinst)_ZNK3pcl6octree16OctreePointCloudINS_17PointXYZRGBNormalENS0_26OctreeContainerDataTVectorIiEENS0_20OctreeContainerEmptyIiEENS0_14Octree2BufBaseIiS4_S6_EEE23getVoxelSquaredDiameterEj@Base 1.6
 (optional=templinst)_ZNK3pcl6octree16OctreePointCloudINS_17PointXYZRGBNormalENS0_26OctreeContainerDataTVectorIiEENS0_20OctreeContainerEmptyIiEENS0_14Octree2BufBaseIiS4_S6_EEE23getVoxelSquaredDiameterEv@Base 1.6
 (optional=templinst)_ZNK3pcl6octree16OctreePointCloudINS_17PointXYZRGBNormalENS0_26OctreeContainerDataTVectorIiEENS0_20OctreeContainerEmptyIiEENS0_14Octree2BufBaseIiS4_S6_EEE24isPointWithinBoundingBoxERKS2_@Base 1.6
 (optional=templinst)_ZNK3pcl6octree16OctreePointCloudINS_17PointXYZRGBNormalENS0_26OctreeContainerDataTVectorIiEENS0_20OctreeContainerEmptyIiEENS0_14Octree2BufBaseIiS4_S6_EEE27genVoxelBoundsFromOctreeKeyERKNS0_9OctreeKeyEjRN5Eigen6MatrixIfLi3ELi1ELi0ELi3ELi1EEESG_@Base 1.6
 (optional=templinst)_ZNK3pcl6octree16OctreePointCloudINS_17PointXYZRGBNormalENS0_26OctreeContainerDataTVectorIiEENS0_20OctreeContainerEmptyIiEENS0_14Octree2BufBaseIiS4_S6_EEE27genVoxelCenterFromOctreeKeyERKNS0_9OctreeKeyEjRS2_@Base 1.6
 (optional=templinst)_ZNK3pcl6octree16OctreePointCloudINS_17PointXYZRGBNormalENS0_26OctreeContainerDataTVectorIiEENS0_20OctreeContainerEmptyIiEENS0_14Octree2BufBaseIiS4_S6_EEE30genLeafNodeCenterFromOctreeKeyERKNS0_9OctreeKeyERS2_@Base 1.6
 (optional=templinst)_ZNK3pcl6octree16OctreePointCloudINS_17PointXYZRGBNormalENS0_26OctreeContainerDataTVectorIiEENS0_20OctreeContainerEmptyIiEENS0_14Octree2BufBaseIiS4_S6_EEE32getOccupiedVoxelCentersRecursiveEPKNS0_18BufferedBranchNodeIS6_EERKNS0_9OctreeKeyERSt6vectorIS2_N5Eigen17aligned_allocatorIS2_EEE@Base 1.6
 (optional=templinst)_ZNK3pcl6octree16OctreePointCloudINS_18PointWithViewpointENS0_26OctreeContainerDataTVectorIiEENS0_20OctreeContainerEmptyIiEENS0_10OctreeBaseIiS4_S6_EEE10getEpsilonEv@Base 1.6
 (optional=templinst)_ZNK3pcl6octree16OctreePointCloudINS_18PointWithViewpointENS0_26OctreeContainerDataTVectorIiEENS0_20OctreeContainerEmptyIiEENS0_10OctreeBaseIiS4_S6_EEE10getIndicesEv@Base 1.6
 (optional=templinst)_ZNK3pcl6octree16OctreePointCloudINS_18PointWithViewpointENS0_26OctreeContainerDataTVectorIiEENS0_20OctreeContainerEmptyIiEENS0_10OctreeBaseIiS4_S6_EEE12getTreeDepthEv@Base 1.6
 (optional=templinst)_ZNK3pcl6octree16OctreePointCloudINS_18PointWithViewpointENS0_26OctreeContainerDataTVectorIiEENS0_20OctreeContainerEmptyIiEENS0_10OctreeBaseIiS4_S6_EEE13getInputCloudEv@Base 1.6
 (optional=templinst)_ZNK3pcl6octree16OctreePointCloudINS_18PointWithViewpointENS0_26OctreeContainerDataTVectorIiEENS0_20OctreeContainerEmptyIiEENS0_10OctreeBaseIiS4_S6_EEE13getResolutionEv@Base 1.6
 (optional=templinst)_ZNK3pcl6octree16OctreePointCloudINS_18PointWithViewpointENS0_26OctreeContainerDataTVectorIiEENS0_20OctreeContainerEmptyIiEENS0_10OctreeBaseIiS4_S6_EEE14getBoundingBoxERdSA_SA_SA_SA_SA_@Base 1.6
 (optional=templinst)_ZNK3pcl6octree16OctreePointCloudINS_18PointWithViewpointENS0_26OctreeContainerDataTVectorIiEENS0_20OctreeContainerEmptyIiEENS0_10OctreeBaseIiS4_S6_EEE15findLeafAtPointERKS2_@Base 1.6
 (optional=templinst)_ZNK3pcl6octree16OctreePointCloudINS_18PointWithViewpointENS0_26OctreeContainerDataTVectorIiEENS0_20OctreeContainerEmptyIiEENS0_10OctreeBaseIiS4_S6_EEE15getPointByIndexEj@Base 1.6
 (optional=templinst)_ZNK3pcl6octree16OctreePointCloudINS_18PointWithViewpointENS0_26OctreeContainerDataTVectorIiEENS0_20OctreeContainerEmptyIiEENS0_10OctreeBaseIiS4_S6_EEE20genOctreeKeyForDataTERKiRNS0_9OctreeKeyE@Base 1.6
 (optional=templinst)_ZNK3pcl6octree16OctreePointCloudINS_18PointWithViewpointENS0_26OctreeContainerDataTVectorIiEENS0_20OctreeContainerEmptyIiEENS0_10OctreeBaseIiS4_S6_EEE20genOctreeKeyforPointERKS2_RNS0_9OctreeKeyE@Base 1.6
 (optional=templinst)_ZNK3pcl6octree16OctreePointCloudINS_18PointWithViewpointENS0_26OctreeContainerDataTVectorIiEENS0_20OctreeContainerEmptyIiEENS0_10OctreeBaseIiS4_S6_EEE20genOctreeKeyforPointEdddRNS0_9OctreeKeyE@Base 1.6
 (optional=templinst)_ZNK3pcl6octree16OctreePointCloudINS_18PointWithViewpointENS0_26OctreeContainerDataTVectorIiEENS0_20OctreeContainerEmptyIiEENS0_10OctreeBaseIiS4_S6_EEE22getVoxelSquaredSideLenEj@Base 1.6
 (optional=templinst)_ZNK3pcl6octree16OctreePointCloudINS_18PointWithViewpointENS0_26OctreeContainerDataTVectorIiEENS0_20OctreeContainerEmptyIiEENS0_10OctreeBaseIiS4_S6_EEE22getVoxelSquaredSideLenEv@Base 1.6
 (optional=templinst)_ZNK3pcl6octree16OctreePointCloudINS_18PointWithViewpointENS0_26OctreeContainerDataTVectorIiEENS0_20OctreeContainerEmptyIiEENS0_10OctreeBaseIiS4_S6_EEE22isVoxelOccupiedAtPointERKS2_@Base 1.6
 (optional=templinst)_ZNK3pcl6octree16OctreePointCloudINS_18PointWithViewpointENS0_26OctreeContainerDataTVectorIiEENS0_20OctreeContainerEmptyIiEENS0_10OctreeBaseIiS4_S6_EEE22isVoxelOccupiedAtPointERKi@Base 1.6
 (optional=templinst)_ZNK3pcl6octree16OctreePointCloudINS_18PointWithViewpointENS0_26OctreeContainerDataTVectorIiEENS0_20OctreeContainerEmptyIiEENS0_10OctreeBaseIiS4_S6_EEE22isVoxelOccupiedAtPointEddd@Base 1.6
 (optional=templinst)_ZNK3pcl6octree16OctreePointCloudINS_18PointWithViewpointENS0_26OctreeContainerDataTVectorIiEENS0_20OctreeContainerEmptyIiEENS0_10OctreeBaseIiS4_S6_EEE23getOccupiedVoxelCentersERSt6vectorIS2_N5Eigen17aligned_allocatorIS2_EEE@Base 1.6
 (optional=templinst)_ZNK3pcl6octree16OctreePointCloudINS_18PointWithViewpointENS0_26OctreeContainerDataTVectorIiEENS0_20OctreeContainerEmptyIiEENS0_10OctreeBaseIiS4_S6_EEE23getVoxelSquaredDiameterEj@Base 1.6
 (optional=templinst)_ZNK3pcl6octree16OctreePointCloudINS_18PointWithViewpointENS0_26OctreeContainerDataTVectorIiEENS0_20OctreeContainerEmptyIiEENS0_10OctreeBaseIiS4_S6_EEE23getVoxelSquaredDiameterEv@Base 1.6
 (optional=templinst)_ZNK3pcl6octree16OctreePointCloudINS_18PointWithViewpointENS0_26OctreeContainerDataTVectorIiEENS0_20OctreeContainerEmptyIiEENS0_10OctreeBaseIiS4_S6_EEE24isPointWithinBoundingBoxERKS2_@Base 1.6
 (optional=templinst)_ZNK3pcl6octree16OctreePointCloudINS_18PointWithViewpointENS0_26OctreeContainerDataTVectorIiEENS0_20OctreeContainerEmptyIiEENS0_10OctreeBaseIiS4_S6_EEE27genVoxelBoundsFromOctreeKeyERKNS0_9OctreeKeyEjRN5Eigen6MatrixIfLi3ELi1ELi0ELi3ELi1EEESG_@Base 1.6
 (optional=templinst)_ZNK3pcl6octree16OctreePointCloudINS_18PointWithViewpointENS0_26OctreeContainerDataTVectorIiEENS0_20OctreeContainerEmptyIiEENS0_10OctreeBaseIiS4_S6_EEE27genVoxelCenterFromOctreeKeyERKNS0_9OctreeKeyEjRS2_@Base 1.6
 (optional=templinst)_ZNK3pcl6octree16OctreePointCloudINS_18PointWithViewpointENS0_26OctreeContainerDataTVectorIiEENS0_20OctreeContainerEmptyIiEENS0_10OctreeBaseIiS4_S6_EEE30genLeafNodeCenterFromOctreeKeyERKNS0_9OctreeKeyERS2_@Base 1.6
 (optional=templinst)_ZNK3pcl6octree16OctreePointCloudINS_18PointWithViewpointENS0_26OctreeContainerDataTVectorIiEENS0_20OctreeContainerEmptyIiEENS0_10OctreeBaseIiS4_S6_EEE32getOccupiedVoxelCentersRecursiveEPKNS0_16OctreeBranchNodeIS6_EERKNS0_9OctreeKeyERSt6vectorIS2_N5Eigen17aligned_allocatorIS2_EEE@Base 1.6
 (optional=templinst)_ZNK3pcl6octree16OctreePointCloudINS_18PointWithViewpointENS0_26OctreeContainerDataTVectorIiEENS0_20OctreeContainerEmptyIiEENS0_14Octree2BufBaseIiS4_S6_EEE10getEpsilonEv@Base 1.6
 (optional=templinst)_ZNK3pcl6octree16OctreePointCloudINS_18PointWithViewpointENS0_26OctreeContainerDataTVectorIiEENS0_20OctreeContainerEmptyIiEENS0_14Octree2BufBaseIiS4_S6_EEE10getIndicesEv@Base 1.6
 (optional=templinst)_ZNK3pcl6octree16OctreePointCloudINS_18PointWithViewpointENS0_26OctreeContainerDataTVectorIiEENS0_20OctreeContainerEmptyIiEENS0_14Octree2BufBaseIiS4_S6_EEE12getTreeDepthEv@Base 1.6
 (optional=templinst)_ZNK3pcl6octree16OctreePointCloudINS_18PointWithViewpointENS0_26OctreeContainerDataTVectorIiEENS0_20OctreeContainerEmptyIiEENS0_14Octree2BufBaseIiS4_S6_EEE13getInputCloudEv@Base 1.6
 (optional=templinst)_ZNK3pcl6octree16OctreePointCloudINS_18PointWithViewpointENS0_26OctreeContainerDataTVectorIiEENS0_20OctreeContainerEmptyIiEENS0_14Octree2BufBaseIiS4_S6_EEE13getResolutionEv@Base 1.6
 (optional=templinst)_ZNK3pcl6octree16OctreePointCloudINS_18PointWithViewpointENS0_26OctreeContainerDataTVectorIiEENS0_20OctreeContainerEmptyIiEENS0_14Octree2BufBaseIiS4_S6_EEE14getBoundingBoxERdSA_SA_SA_SA_SA_@Base 1.6
 (optional=templinst)_ZNK3pcl6octree16OctreePointCloudINS_18PointWithViewpointENS0_26OctreeContainerDataTVectorIiEENS0_20OctreeContainerEmptyIiEENS0_14Octree2BufBaseIiS4_S6_EEE15findLeafAtPointERKS2_@Base 1.6
 (optional=templinst)_ZNK3pcl6octree16OctreePointCloudINS_18PointWithViewpointENS0_26OctreeContainerDataTVectorIiEENS0_20OctreeContainerEmptyIiEENS0_14Octree2BufBaseIiS4_S6_EEE15getPointByIndexEj@Base 1.6
 (optional=templinst)_ZNK3pcl6octree16OctreePointCloudINS_18PointWithViewpointENS0_26OctreeContainerDataTVectorIiEENS0_20OctreeContainerEmptyIiEENS0_14Octree2BufBaseIiS4_S6_EEE20genOctreeKeyForDataTERKiRNS0_9OctreeKeyE@Base 1.6
 (optional=templinst)_ZNK3pcl6octree16OctreePointCloudINS_18PointWithViewpointENS0_26OctreeContainerDataTVectorIiEENS0_20OctreeContainerEmptyIiEENS0_14Octree2BufBaseIiS4_S6_EEE20genOctreeKeyforPointERKS2_RNS0_9OctreeKeyE@Base 1.6
 (optional=templinst)_ZNK3pcl6octree16OctreePointCloudINS_18PointWithViewpointENS0_26OctreeContainerDataTVectorIiEENS0_20OctreeContainerEmptyIiEENS0_14Octree2BufBaseIiS4_S6_EEE20genOctreeKeyforPointEdddRNS0_9OctreeKeyE@Base 1.6
 (optional=templinst)_ZNK3pcl6octree16OctreePointCloudINS_18PointWithViewpointENS0_26OctreeContainerDataTVectorIiEENS0_20OctreeContainerEmptyIiEENS0_14Octree2BufBaseIiS4_S6_EEE22getVoxelSquaredSideLenEj@Base 1.6
 (optional=templinst)_ZNK3pcl6octree16OctreePointCloudINS_18PointWithViewpointENS0_26OctreeContainerDataTVectorIiEENS0_20OctreeContainerEmptyIiEENS0_14Octree2BufBaseIiS4_S6_EEE22getVoxelSquaredSideLenEv@Base 1.6
 (optional=templinst)_ZNK3pcl6octree16OctreePointCloudINS_18PointWithViewpointENS0_26OctreeContainerDataTVectorIiEENS0_20OctreeContainerEmptyIiEENS0_14Octree2BufBaseIiS4_S6_EEE22isVoxelOccupiedAtPointERKS2_@Base 1.6
 (optional=templinst)_ZNK3pcl6octree16OctreePointCloudINS_18PointWithViewpointENS0_26OctreeContainerDataTVectorIiEENS0_20OctreeContainerEmptyIiEENS0_14Octree2BufBaseIiS4_S6_EEE22isVoxelOccupiedAtPointERKi@Base 1.6
 (optional=templinst)_ZNK3pcl6octree16OctreePointCloudINS_18PointWithViewpointENS0_26OctreeContainerDataTVectorIiEENS0_20OctreeContainerEmptyIiEENS0_14Octree2BufBaseIiS4_S6_EEE22isVoxelOccupiedAtPointEddd@Base 1.6
 (optional=templinst)_ZNK3pcl6octree16OctreePointCloudINS_18PointWithViewpointENS0_26OctreeContainerDataTVectorIiEENS0_20OctreeContainerEmptyIiEENS0_14Octree2BufBaseIiS4_S6_EEE23getOccupiedVoxelCentersERSt6vectorIS2_N5Eigen17aligned_allocatorIS2_EEE@Base 1.6
 (optional=templinst)_ZNK3pcl6octree16OctreePointCloudINS_18PointWithViewpointENS0_26OctreeContainerDataTVectorIiEENS0_20OctreeContainerEmptyIiEENS0_14Octree2BufBaseIiS4_S6_EEE23getVoxelSquaredDiameterEj@Base 1.6
 (optional=templinst)_ZNK3pcl6octree16OctreePointCloudINS_18PointWithViewpointENS0_26OctreeContainerDataTVectorIiEENS0_20OctreeContainerEmptyIiEENS0_14Octree2BufBaseIiS4_S6_EEE23getVoxelSquaredDiameterEv@Base 1.6
 (optional=templinst)_ZNK3pcl6octree16OctreePointCloudINS_18PointWithViewpointENS0_26OctreeContainerDataTVectorIiEENS0_20OctreeContainerEmptyIiEENS0_14Octree2BufBaseIiS4_S6_EEE24isPointWithinBoundingBoxERKS2_@Base 1.6
 (optional=templinst)_ZNK3pcl6octree16OctreePointCloudINS_18PointWithViewpointENS0_26OctreeContainerDataTVectorIiEENS0_20OctreeContainerEmptyIiEENS0_14Octree2BufBaseIiS4_S6_EEE27genVoxelBoundsFromOctreeKeyERKNS0_9OctreeKeyEjRN5Eigen6MatrixIfLi3ELi1ELi0ELi3ELi1EEESG_@Base 1.6
 (optional=templinst)_ZNK3pcl6octree16OctreePointCloudINS_18PointWithViewpointENS0_26OctreeContainerDataTVectorIiEENS0_20OctreeContainerEmptyIiEENS0_14Octree2BufBaseIiS4_S6_EEE27genVoxelCenterFromOctreeKeyERKNS0_9OctreeKeyEjRS2_@Base 1.6
 (optional=templinst)_ZNK3pcl6octree16OctreePointCloudINS_18PointWithViewpointENS0_26OctreeContainerDataTVectorIiEENS0_20OctreeContainerEmptyIiEENS0_14Octree2BufBaseIiS4_S6_EEE30genLeafNodeCenterFromOctreeKeyERKNS0_9OctreeKeyERS2_@Base 1.6
 (optional=templinst)_ZNK3pcl6octree16OctreePointCloudINS_18PointWithViewpointENS0_26OctreeContainerDataTVectorIiEENS0_20OctreeContainerEmptyIiEENS0_14Octree2BufBaseIiS4_S6_EEE32getOccupiedVoxelCentersRecursiveEPKNS0_18BufferedBranchNodeIS6_EERKNS0_9OctreeKeyERSt6vectorIS2_N5Eigen17aligned_allocatorIS2_EEE@Base 1.6
 (optional=templinst)_ZNK3pcl6octree16OctreePointCloudINS_8PointXYZENS0_26OctreeContainerDataTVectorIiEENS0_20OctreeContainerEmptyIiEENS0_10OctreeBaseIiS4_S6_EEE10getEpsilonEv@Base 1.6
 (optional=templinst)_ZNK3pcl6octree16OctreePointCloudINS_8PointXYZENS0_26OctreeContainerDataTVectorIiEENS0_20OctreeContainerEmptyIiEENS0_10OctreeBaseIiS4_S6_EEE10getIndicesEv@Base 1.6
 (optional=templinst)_ZNK3pcl6octree16OctreePointCloudINS_8PointXYZENS0_26OctreeContainerDataTVectorIiEENS0_20OctreeContainerEmptyIiEENS0_10OctreeBaseIiS4_S6_EEE12getTreeDepthEv@Base 1.6
 (optional=templinst)_ZNK3pcl6octree16OctreePointCloudINS_8PointXYZENS0_26OctreeContainerDataTVectorIiEENS0_20OctreeContainerEmptyIiEENS0_10OctreeBaseIiS4_S6_EEE13getInputCloudEv@Base 1.6
 (optional=templinst)_ZNK3pcl6octree16OctreePointCloudINS_8PointXYZENS0_26OctreeContainerDataTVectorIiEENS0_20OctreeContainerEmptyIiEENS0_10OctreeBaseIiS4_S6_EEE13getResolutionEv@Base 1.6
 (optional=templinst)_ZNK3pcl6octree16OctreePointCloudINS_8PointXYZENS0_26OctreeContainerDataTVectorIiEENS0_20OctreeContainerEmptyIiEENS0_10OctreeBaseIiS4_S6_EEE14getBoundingBoxERdSA_SA_SA_SA_SA_@Base 1.6
 (optional=templinst)_ZNK3pcl6octree16OctreePointCloudINS_8PointXYZENS0_26OctreeContainerDataTVectorIiEENS0_20OctreeContainerEmptyIiEENS0_10OctreeBaseIiS4_S6_EEE15findLeafAtPointERKS2_@Base 1.6
 (optional=templinst)_ZNK3pcl6octree16OctreePointCloudINS_8PointXYZENS0_26OctreeContainerDataTVectorIiEENS0_20OctreeContainerEmptyIiEENS0_10OctreeBaseIiS4_S6_EEE15getPointByIndexEj@Base 1.6
 (optional=templinst)_ZNK3pcl6octree16OctreePointCloudINS_8PointXYZENS0_26OctreeContainerDataTVectorIiEENS0_20OctreeContainerEmptyIiEENS0_10OctreeBaseIiS4_S6_EEE20genOctreeKeyForDataTERKiRNS0_9OctreeKeyE@Base 1.6
 (optional=templinst)_ZNK3pcl6octree16OctreePointCloudINS_8PointXYZENS0_26OctreeContainerDataTVectorIiEENS0_20OctreeContainerEmptyIiEENS0_10OctreeBaseIiS4_S6_EEE20genOctreeKeyforPointERKS2_RNS0_9OctreeKeyE@Base 1.6
 (optional=templinst)_ZNK3pcl6octree16OctreePointCloudINS_8PointXYZENS0_26OctreeContainerDataTVectorIiEENS0_20OctreeContainerEmptyIiEENS0_10OctreeBaseIiS4_S6_EEE20genOctreeKeyforPointEdddRNS0_9OctreeKeyE@Base 1.6
 (optional=templinst)_ZNK3pcl6octree16OctreePointCloudINS_8PointXYZENS0_26OctreeContainerDataTVectorIiEENS0_20OctreeContainerEmptyIiEENS0_10OctreeBaseIiS4_S6_EEE22getVoxelSquaredSideLenEj@Base 1.6
 (optional=templinst)_ZNK3pcl6octree16OctreePointCloudINS_8PointXYZENS0_26OctreeContainerDataTVectorIiEENS0_20OctreeContainerEmptyIiEENS0_10OctreeBaseIiS4_S6_EEE22getVoxelSquaredSideLenEv@Base 1.6
 (optional=templinst)_ZNK3pcl6octree16OctreePointCloudINS_8PointXYZENS0_26OctreeContainerDataTVectorIiEENS0_20OctreeContainerEmptyIiEENS0_10OctreeBaseIiS4_S6_EEE22isVoxelOccupiedAtPointERKS2_@Base 1.6
 (optional=templinst)_ZNK3pcl6octree16OctreePointCloudINS_8PointXYZENS0_26OctreeContainerDataTVectorIiEENS0_20OctreeContainerEmptyIiEENS0_10OctreeBaseIiS4_S6_EEE22isVoxelOccupiedAtPointERKi@Base 1.6
 (optional=templinst)_ZNK3pcl6octree16OctreePointCloudINS_8PointXYZENS0_26OctreeContainerDataTVectorIiEENS0_20OctreeContainerEmptyIiEENS0_10OctreeBaseIiS4_S6_EEE22isVoxelOccupiedAtPointEddd@Base 1.6
 (optional=templinst)_ZNK3pcl6octree16OctreePointCloudINS_8PointXYZENS0_26OctreeContainerDataTVectorIiEENS0_20OctreeContainerEmptyIiEENS0_10OctreeBaseIiS4_S6_EEE23getOccupiedVoxelCentersERSt6vectorIS2_N5Eigen17aligned_allocatorIS2_EEE@Base 1.6
 (optional=templinst)_ZNK3pcl6octree16OctreePointCloudINS_8PointXYZENS0_26OctreeContainerDataTVectorIiEENS0_20OctreeContainerEmptyIiEENS0_10OctreeBaseIiS4_S6_EEE23getVoxelSquaredDiameterEj@Base 1.6
 (optional=templinst)_ZNK3pcl6octree16OctreePointCloudINS_8PointXYZENS0_26OctreeContainerDataTVectorIiEENS0_20OctreeContainerEmptyIiEENS0_10OctreeBaseIiS4_S6_EEE23getVoxelSquaredDiameterEv@Base 1.6
 (optional=templinst)_ZNK3pcl6octree16OctreePointCloudINS_8PointXYZENS0_26OctreeContainerDataTVectorIiEENS0_20OctreeContainerEmptyIiEENS0_10OctreeBaseIiS4_S6_EEE24isPointWithinBoundingBoxERKS2_@Base 1.6
 (optional=templinst)_ZNK3pcl6octree16OctreePointCloudINS_8PointXYZENS0_26OctreeContainerDataTVectorIiEENS0_20OctreeContainerEmptyIiEENS0_10OctreeBaseIiS4_S6_EEE27genVoxelBoundsFromOctreeKeyERKNS0_9OctreeKeyEjRN5Eigen6MatrixIfLi3ELi1ELi0ELi3ELi1EEESG_@Base 1.6
 (optional=templinst)_ZNK3pcl6octree16OctreePointCloudINS_8PointXYZENS0_26OctreeContainerDataTVectorIiEENS0_20OctreeContainerEmptyIiEENS0_10OctreeBaseIiS4_S6_EEE27genVoxelCenterFromOctreeKeyERKNS0_9OctreeKeyEjRS2_@Base 1.6
 (optional=templinst)_ZNK3pcl6octree16OctreePointCloudINS_8PointXYZENS0_26OctreeContainerDataTVectorIiEENS0_20OctreeContainerEmptyIiEENS0_10OctreeBaseIiS4_S6_EEE30genLeafNodeCenterFromOctreeKeyERKNS0_9OctreeKeyERS2_@Base 1.6
 (optional=templinst)_ZNK3pcl6octree16OctreePointCloudINS_8PointXYZENS0_26OctreeContainerDataTVectorIiEENS0_20OctreeContainerEmptyIiEENS0_10OctreeBaseIiS4_S6_EEE32getOccupiedVoxelCentersRecursiveEPKNS0_16OctreeBranchNodeIS6_EERKNS0_9OctreeKeyERSt6vectorIS2_N5Eigen17aligned_allocatorIS2_EEE@Base 1.6
 (optional=templinst)_ZNK3pcl6octree16OctreePointCloudINS_8PointXYZENS0_26OctreeContainerDataTVectorIiEENS0_20OctreeContainerEmptyIiEENS0_14Octree2BufBaseIiS4_S6_EEE10getEpsilonEv@Base 1.6
 (optional=templinst)_ZNK3pcl6octree16OctreePointCloudINS_8PointXYZENS0_26OctreeContainerDataTVectorIiEENS0_20OctreeContainerEmptyIiEENS0_14Octree2BufBaseIiS4_S6_EEE10getIndicesEv@Base 1.6
 (optional=templinst)_ZNK3pcl6octree16OctreePointCloudINS_8PointXYZENS0_26OctreeContainerDataTVectorIiEENS0_20OctreeContainerEmptyIiEENS0_14Octree2BufBaseIiS4_S6_EEE12getTreeDepthEv@Base 1.6
 (optional=templinst)_ZNK3pcl6octree16OctreePointCloudINS_8PointXYZENS0_26OctreeContainerDataTVectorIiEENS0_20OctreeContainerEmptyIiEENS0_14Octree2BufBaseIiS4_S6_EEE13getInputCloudEv@Base 1.6
 (optional=templinst)_ZNK3pcl6octree16OctreePointCloudINS_8PointXYZENS0_26OctreeContainerDataTVectorIiEENS0_20OctreeContainerEmptyIiEENS0_14Octree2BufBaseIiS4_S6_EEE13getResolutionEv@Base 1.6
 (optional=templinst)_ZNK3pcl6octree16OctreePointCloudINS_8PointXYZENS0_26OctreeContainerDataTVectorIiEENS0_20OctreeContainerEmptyIiEENS0_14Octree2BufBaseIiS4_S6_EEE14getBoundingBoxERdSA_SA_SA_SA_SA_@Base 1.6
 (optional=templinst)_ZNK3pcl6octree16OctreePointCloudINS_8PointXYZENS0_26OctreeContainerDataTVectorIiEENS0_20OctreeContainerEmptyIiEENS0_14Octree2BufBaseIiS4_S6_EEE15findLeafAtPointERKS2_@Base 1.6
 (optional=templinst)_ZNK3pcl6octree16OctreePointCloudINS_8PointXYZENS0_26OctreeContainerDataTVectorIiEENS0_20OctreeContainerEmptyIiEENS0_14Octree2BufBaseIiS4_S6_EEE15getPointByIndexEj@Base 1.6
 (optional=templinst)_ZNK3pcl6octree16OctreePointCloudINS_8PointXYZENS0_26OctreeContainerDataTVectorIiEENS0_20OctreeContainerEmptyIiEENS0_14Octree2BufBaseIiS4_S6_EEE20genOctreeKeyForDataTERKiRNS0_9OctreeKeyE@Base 1.6
 (optional=templinst)_ZNK3pcl6octree16OctreePointCloudINS_8PointXYZENS0_26OctreeContainerDataTVectorIiEENS0_20OctreeContainerEmptyIiEENS0_14Octree2BufBaseIiS4_S6_EEE20genOctreeKeyforPointERKS2_RNS0_9OctreeKeyE@Base 1.6
 (optional=templinst)_ZNK3pcl6octree16OctreePointCloudINS_8PointXYZENS0_26OctreeContainerDataTVectorIiEENS0_20OctreeContainerEmptyIiEENS0_14Octree2BufBaseIiS4_S6_EEE20genOctreeKeyforPointEdddRNS0_9OctreeKeyE@Base 1.6
 (optional=templinst)_ZNK3pcl6octree16OctreePointCloudINS_8PointXYZENS0_26OctreeContainerDataTVectorIiEENS0_20OctreeContainerEmptyIiEENS0_14Octree2BufBaseIiS4_S6_EEE22getVoxelSquaredSideLenEj@Base 1.6
 (optional=templinst)_ZNK3pcl6octree16OctreePointCloudINS_8PointXYZENS0_26OctreeContainerDataTVectorIiEENS0_20OctreeContainerEmptyIiEENS0_14Octree2BufBaseIiS4_S6_EEE22getVoxelSquaredSideLenEv@Base 1.6
 (optional=templinst)_ZNK3pcl6octree16OctreePointCloudINS_8PointXYZENS0_26OctreeContainerDataTVectorIiEENS0_20OctreeContainerEmptyIiEENS0_14Octree2BufBaseIiS4_S6_EEE22isVoxelOccupiedAtPointERKS2_@Base 1.6
 (optional=templinst)_ZNK3pcl6octree16OctreePointCloudINS_8PointXYZENS0_26OctreeContainerDataTVectorIiEENS0_20OctreeContainerEmptyIiEENS0_14Octree2BufBaseIiS4_S6_EEE22isVoxelOccupiedAtPointERKi@Base 1.6
 (optional=templinst)_ZNK3pcl6octree16OctreePointCloudINS_8PointXYZENS0_26OctreeContainerDataTVectorIiEENS0_20OctreeContainerEmptyIiEENS0_14Octree2BufBaseIiS4_S6_EEE22isVoxelOccupiedAtPointEddd@Base 1.6
 (optional=templinst)_ZNK3pcl6octree16OctreePointCloudINS_8PointXYZENS0_26OctreeContainerDataTVectorIiEENS0_20OctreeContainerEmptyIiEENS0_14Octree2BufBaseIiS4_S6_EEE23getOccupiedVoxelCentersERSt6vectorIS2_N5Eigen17aligned_allocatorIS2_EEE@Base 1.6
 (optional=templinst)_ZNK3pcl6octree16OctreePointCloudINS_8PointXYZENS0_26OctreeContainerDataTVectorIiEENS0_20OctreeContainerEmptyIiEENS0_14Octree2BufBaseIiS4_S6_EEE23getVoxelSquaredDiameterEj@Base 1.6
 (optional=templinst)_ZNK3pcl6octree16OctreePointCloudINS_8PointXYZENS0_26OctreeContainerDataTVectorIiEENS0_20OctreeContainerEmptyIiEENS0_14Octree2BufBaseIiS4_S6_EEE23getVoxelSquaredDiameterEv@Base 1.6
 (optional=templinst)_ZNK3pcl6octree16OctreePointCloudINS_8PointXYZENS0_26OctreeContainerDataTVectorIiEENS0_20OctreeContainerEmptyIiEENS0_14Octree2BufBaseIiS4_S6_EEE24isPointWithinBoundingBoxERKS2_@Base 1.6
 (optional=templinst)_ZNK3pcl6octree16OctreePointCloudINS_8PointXYZENS0_26OctreeContainerDataTVectorIiEENS0_20OctreeContainerEmptyIiEENS0_14Octree2BufBaseIiS4_S6_EEE27genVoxelBoundsFromOctreeKeyERKNS0_9OctreeKeyEjRN5Eigen6MatrixIfLi3ELi1ELi0ELi3ELi1EEESG_@Base 1.6
 (optional=templinst)_ZNK3pcl6octree16OctreePointCloudINS_8PointXYZENS0_26OctreeContainerDataTVectorIiEENS0_20OctreeContainerEmptyIiEENS0_14Octree2BufBaseIiS4_S6_EEE27genVoxelCenterFromOctreeKeyERKNS0_9OctreeKeyEjRS2_@Base 1.6
 (optional=templinst)_ZNK3pcl6octree16OctreePointCloudINS_8PointXYZENS0_26OctreeContainerDataTVectorIiEENS0_20OctreeContainerEmptyIiEENS0_14Octree2BufBaseIiS4_S6_EEE30genLeafNodeCenterFromOctreeKeyERKNS0_9OctreeKeyERS2_@Base 1.6
 (optional=templinst)_ZNK3pcl6octree16OctreePointCloudINS_8PointXYZENS0_26OctreeContainerDataTVectorIiEENS0_20OctreeContainerEmptyIiEENS0_14Octree2BufBaseIiS4_S6_EEE32getOccupiedVoxelCentersRecursiveEPKNS0_18BufferedBranchNodeIS6_EERKNS0_9OctreeKeyERSt6vectorIS2_N5Eigen17aligned_allocatorIS2_EEE@Base 1.6
 (optional=templinst)_ZNK3pcl6octree16OctreePointCloudINS_9PointXYZIENS0_26OctreeContainerDataTVectorIiEENS0_20OctreeContainerEmptyIiEENS0_10OctreeBaseIiS4_S6_EEE10getEpsilonEv@Base 1.6
 (optional=templinst)_ZNK3pcl6octree16OctreePointCloudINS_9PointXYZIENS0_26OctreeContainerDataTVectorIiEENS0_20OctreeContainerEmptyIiEENS0_10OctreeBaseIiS4_S6_EEE10getIndicesEv@Base 1.6
 (optional=templinst)_ZNK3pcl6octree16OctreePointCloudINS_9PointXYZIENS0_26OctreeContainerDataTVectorIiEENS0_20OctreeContainerEmptyIiEENS0_10OctreeBaseIiS4_S6_EEE12getTreeDepthEv@Base 1.6
 (optional=templinst)_ZNK3pcl6octree16OctreePointCloudINS_9PointXYZIENS0_26OctreeContainerDataTVectorIiEENS0_20OctreeContainerEmptyIiEENS0_10OctreeBaseIiS4_S6_EEE13getInputCloudEv@Base 1.6
 (optional=templinst)_ZNK3pcl6octree16OctreePointCloudINS_9PointXYZIENS0_26OctreeContainerDataTVectorIiEENS0_20OctreeContainerEmptyIiEENS0_10OctreeBaseIiS4_S6_EEE13getResolutionEv@Base 1.6
 (optional=templinst)_ZNK3pcl6octree16OctreePointCloudINS_9PointXYZIENS0_26OctreeContainerDataTVectorIiEENS0_20OctreeContainerEmptyIiEENS0_10OctreeBaseIiS4_S6_EEE14getBoundingBoxERdSA_SA_SA_SA_SA_@Base 1.6
 (optional=templinst)_ZNK3pcl6octree16OctreePointCloudINS_9PointXYZIENS0_26OctreeContainerDataTVectorIiEENS0_20OctreeContainerEmptyIiEENS0_10OctreeBaseIiS4_S6_EEE15findLeafAtPointERKS2_@Base 1.6
 (optional=templinst)_ZNK3pcl6octree16OctreePointCloudINS_9PointXYZIENS0_26OctreeContainerDataTVectorIiEENS0_20OctreeContainerEmptyIiEENS0_10OctreeBaseIiS4_S6_EEE15getPointByIndexEj@Base 1.6
 (optional=templinst)_ZNK3pcl6octree16OctreePointCloudINS_9PointXYZIENS0_26OctreeContainerDataTVectorIiEENS0_20OctreeContainerEmptyIiEENS0_10OctreeBaseIiS4_S6_EEE20genOctreeKeyForDataTERKiRNS0_9OctreeKeyE@Base 1.6
 (optional=templinst)_ZNK3pcl6octree16OctreePointCloudINS_9PointXYZIENS0_26OctreeContainerDataTVectorIiEENS0_20OctreeContainerEmptyIiEENS0_10OctreeBaseIiS4_S6_EEE20genOctreeKeyforPointERKS2_RNS0_9OctreeKeyE@Base 1.6
 (optional=templinst)_ZNK3pcl6octree16OctreePointCloudINS_9PointXYZIENS0_26OctreeContainerDataTVectorIiEENS0_20OctreeContainerEmptyIiEENS0_10OctreeBaseIiS4_S6_EEE20genOctreeKeyforPointEdddRNS0_9OctreeKeyE@Base 1.6
 (optional=templinst)_ZNK3pcl6octree16OctreePointCloudINS_9PointXYZIENS0_26OctreeContainerDataTVectorIiEENS0_20OctreeContainerEmptyIiEENS0_10OctreeBaseIiS4_S6_EEE22getVoxelSquaredSideLenEj@Base 1.6
 (optional=templinst)_ZNK3pcl6octree16OctreePointCloudINS_9PointXYZIENS0_26OctreeContainerDataTVectorIiEENS0_20OctreeContainerEmptyIiEENS0_10OctreeBaseIiS4_S6_EEE22getVoxelSquaredSideLenEv@Base 1.6
 (optional=templinst)_ZNK3pcl6octree16OctreePointCloudINS_9PointXYZIENS0_26OctreeContainerDataTVectorIiEENS0_20OctreeContainerEmptyIiEENS0_10OctreeBaseIiS4_S6_EEE22isVoxelOccupiedAtPointERKS2_@Base 1.6
 (optional=templinst)_ZNK3pcl6octree16OctreePointCloudINS_9PointXYZIENS0_26OctreeContainerDataTVectorIiEENS0_20OctreeContainerEmptyIiEENS0_10OctreeBaseIiS4_S6_EEE22isVoxelOccupiedAtPointERKi@Base 1.6
 (optional=templinst)_ZNK3pcl6octree16OctreePointCloudINS_9PointXYZIENS0_26OctreeContainerDataTVectorIiEENS0_20OctreeContainerEmptyIiEENS0_10OctreeBaseIiS4_S6_EEE22isVoxelOccupiedAtPointEddd@Base 1.6
 (optional=templinst)_ZNK3pcl6octree16OctreePointCloudINS_9PointXYZIENS0_26OctreeContainerDataTVectorIiEENS0_20OctreeContainerEmptyIiEENS0_10OctreeBaseIiS4_S6_EEE23getOccupiedVoxelCentersERSt6vectorIS2_N5Eigen17aligned_allocatorIS2_EEE@Base 1.6
 (optional=templinst)_ZNK3pcl6octree16OctreePointCloudINS_9PointXYZIENS0_26OctreeContainerDataTVectorIiEENS0_20OctreeContainerEmptyIiEENS0_10OctreeBaseIiS4_S6_EEE23getVoxelSquaredDiameterEj@Base 1.6
 (optional=templinst)_ZNK3pcl6octree16OctreePointCloudINS_9PointXYZIENS0_26OctreeContainerDataTVectorIiEENS0_20OctreeContainerEmptyIiEENS0_10OctreeBaseIiS4_S6_EEE23getVoxelSquaredDiameterEv@Base 1.6
 (optional=templinst)_ZNK3pcl6octree16OctreePointCloudINS_9PointXYZIENS0_26OctreeContainerDataTVectorIiEENS0_20OctreeContainerEmptyIiEENS0_10OctreeBaseIiS4_S6_EEE24isPointWithinBoundingBoxERKS2_@Base 1.6
 (optional=templinst)_ZNK3pcl6octree16OctreePointCloudINS_9PointXYZIENS0_26OctreeContainerDataTVectorIiEENS0_20OctreeContainerEmptyIiEENS0_10OctreeBaseIiS4_S6_EEE27genVoxelBoundsFromOctreeKeyERKNS0_9OctreeKeyEjRN5Eigen6MatrixIfLi3ELi1ELi0ELi3ELi1EEESG_@Base 1.6
 (optional=templinst)_ZNK3pcl6octree16OctreePointCloudINS_9PointXYZIENS0_26OctreeContainerDataTVectorIiEENS0_20OctreeContainerEmptyIiEENS0_10OctreeBaseIiS4_S6_EEE27genVoxelCenterFromOctreeKeyERKNS0_9OctreeKeyEjRS2_@Base 1.6
 (optional=templinst)_ZNK3pcl6octree16OctreePointCloudINS_9PointXYZIENS0_26OctreeContainerDataTVectorIiEENS0_20OctreeContainerEmptyIiEENS0_10OctreeBaseIiS4_S6_EEE30genLeafNodeCenterFromOctreeKeyERKNS0_9OctreeKeyERS2_@Base 1.6
 (optional=templinst)_ZNK3pcl6octree16OctreePointCloudINS_9PointXYZIENS0_26OctreeContainerDataTVectorIiEENS0_20OctreeContainerEmptyIiEENS0_10OctreeBaseIiS4_S6_EEE32getOccupiedVoxelCentersRecursiveEPKNS0_16OctreeBranchNodeIS6_EERKNS0_9OctreeKeyERSt6vectorIS2_N5Eigen17aligned_allocatorIS2_EEE@Base 1.6
 (optional=templinst)_ZNK3pcl6octree16OctreePointCloudINS_9PointXYZIENS0_26OctreeContainerDataTVectorIiEENS0_20OctreeContainerEmptyIiEENS0_14Octree2BufBaseIiS4_S6_EEE10getEpsilonEv@Base 1.6
 (optional=templinst)_ZNK3pcl6octree16OctreePointCloudINS_9PointXYZIENS0_26OctreeContainerDataTVectorIiEENS0_20OctreeContainerEmptyIiEENS0_14Octree2BufBaseIiS4_S6_EEE10getIndicesEv@Base 1.6
 (optional=templinst)_ZNK3pcl6octree16OctreePointCloudINS_9PointXYZIENS0_26OctreeContainerDataTVectorIiEENS0_20OctreeContainerEmptyIiEENS0_14Octree2BufBaseIiS4_S6_EEE12getTreeDepthEv@Base 1.6
 (optional=templinst)_ZNK3pcl6octree16OctreePointCloudINS_9PointXYZIENS0_26OctreeContainerDataTVectorIiEENS0_20OctreeContainerEmptyIiEENS0_14Octree2BufBaseIiS4_S6_EEE13getInputCloudEv@Base 1.6
 (optional=templinst)_ZNK3pcl6octree16OctreePointCloudINS_9PointXYZIENS0_26OctreeContainerDataTVectorIiEENS0_20OctreeContainerEmptyIiEENS0_14Octree2BufBaseIiS4_S6_EEE13getResolutionEv@Base 1.6
 (optional=templinst)_ZNK3pcl6octree16OctreePointCloudINS_9PointXYZIENS0_26OctreeContainerDataTVectorIiEENS0_20OctreeContainerEmptyIiEENS0_14Octree2BufBaseIiS4_S6_EEE14getBoundingBoxERdSA_SA_SA_SA_SA_@Base 1.6
 (optional=templinst)_ZNK3pcl6octree16OctreePointCloudINS_9PointXYZIENS0_26OctreeContainerDataTVectorIiEENS0_20OctreeContainerEmptyIiEENS0_14Octree2BufBaseIiS4_S6_EEE15findLeafAtPointERKS2_@Base 1.6
 (optional=templinst)_ZNK3pcl6octree16OctreePointCloudINS_9PointXYZIENS0_26OctreeContainerDataTVectorIiEENS0_20OctreeContainerEmptyIiEENS0_14Octree2BufBaseIiS4_S6_EEE15getPointByIndexEj@Base 1.6
 (optional=templinst)_ZNK3pcl6octree16OctreePointCloudINS_9PointXYZIENS0_26OctreeContainerDataTVectorIiEENS0_20OctreeContainerEmptyIiEENS0_14Octree2BufBaseIiS4_S6_EEE20genOctreeKeyForDataTERKiRNS0_9OctreeKeyE@Base 1.6
 (optional=templinst)_ZNK3pcl6octree16OctreePointCloudINS_9PointXYZIENS0_26OctreeContainerDataTVectorIiEENS0_20OctreeContainerEmptyIiEENS0_14Octree2BufBaseIiS4_S6_EEE20genOctreeKeyforPointERKS2_RNS0_9OctreeKeyE@Base 1.6
 (optional=templinst)_ZNK3pcl6octree16OctreePointCloudINS_9PointXYZIENS0_26OctreeContainerDataTVectorIiEENS0_20OctreeContainerEmptyIiEENS0_14Octree2BufBaseIiS4_S6_EEE20genOctreeKeyforPointEdddRNS0_9OctreeKeyE@Base 1.6
 (optional=templinst)_ZNK3pcl6octree16OctreePointCloudINS_9PointXYZIENS0_26OctreeContainerDataTVectorIiEENS0_20OctreeContainerEmptyIiEENS0_14Octree2BufBaseIiS4_S6_EEE22getVoxelSquaredSideLenEj@Base 1.6
 (optional=templinst)_ZNK3pcl6octree16OctreePointCloudINS_9PointXYZIENS0_26OctreeContainerDataTVectorIiEENS0_20OctreeContainerEmptyIiEENS0_14Octree2BufBaseIiS4_S6_EEE22getVoxelSquaredSideLenEv@Base 1.6
 (optional=templinst)_ZNK3pcl6octree16OctreePointCloudINS_9PointXYZIENS0_26OctreeContainerDataTVectorIiEENS0_20OctreeContainerEmptyIiEENS0_14Octree2BufBaseIiS4_S6_EEE22isVoxelOccupiedAtPointERKS2_@Base 1.6
 (optional=templinst)_ZNK3pcl6octree16OctreePointCloudINS_9PointXYZIENS0_26OctreeContainerDataTVectorIiEENS0_20OctreeContainerEmptyIiEENS0_14Octree2BufBaseIiS4_S6_EEE22isVoxelOccupiedAtPointERKi@Base 1.6
 (optional=templinst)_ZNK3pcl6octree16OctreePointCloudINS_9PointXYZIENS0_26OctreeContainerDataTVectorIiEENS0_20OctreeContainerEmptyIiEENS0_14Octree2BufBaseIiS4_S6_EEE22isVoxelOccupiedAtPointEddd@Base 1.6
 (optional=templinst)_ZNK3pcl6octree16OctreePointCloudINS_9PointXYZIENS0_26OctreeContainerDataTVectorIiEENS0_20OctreeContainerEmptyIiEENS0_14Octree2BufBaseIiS4_S6_EEE23getOccupiedVoxelCentersERSt6vectorIS2_N5Eigen17aligned_allocatorIS2_EEE@Base 1.6
 (optional=templinst)_ZNK3pcl6octree16OctreePointCloudINS_9PointXYZIENS0_26OctreeContainerDataTVectorIiEENS0_20OctreeContainerEmptyIiEENS0_14Octree2BufBaseIiS4_S6_EEE23getVoxelSquaredDiameterEj@Base 1.6
 (optional=templinst)_ZNK3pcl6octree16OctreePointCloudINS_9PointXYZIENS0_26OctreeContainerDataTVectorIiEENS0_20OctreeContainerEmptyIiEENS0_14Octree2BufBaseIiS4_S6_EEE23getVoxelSquaredDiameterEv@Base 1.6
 (optional=templinst)_ZNK3pcl6octree16OctreePointCloudINS_9PointXYZIENS0_26OctreeContainerDataTVectorIiEENS0_20OctreeContainerEmptyIiEENS0_14Octree2BufBaseIiS4_S6_EEE24isPointWithinBoundingBoxERKS2_@Base 1.6
 (optional=templinst)_ZNK3pcl6octree16OctreePointCloudINS_9PointXYZIENS0_26OctreeContainerDataTVectorIiEENS0_20OctreeContainerEmptyIiEENS0_14Octree2BufBaseIiS4_S6_EEE27genVoxelBoundsFromOctreeKeyERKNS0_9OctreeKeyEjRN5Eigen6MatrixIfLi3ELi1ELi0ELi3ELi1EEESG_@Base 1.6
 (optional=templinst)_ZNK3pcl6octree16OctreePointCloudINS_9PointXYZIENS0_26OctreeContainerDataTVectorIiEENS0_20OctreeContainerEmptyIiEENS0_14Octree2BufBaseIiS4_S6_EEE27genVoxelCenterFromOctreeKeyERKNS0_9OctreeKeyEjRS2_@Base 1.6
 (optional=templinst)_ZNK3pcl6octree16OctreePointCloudINS_9PointXYZIENS0_26OctreeContainerDataTVectorIiEENS0_20OctreeContainerEmptyIiEENS0_14Octree2BufBaseIiS4_S6_EEE30genLeafNodeCenterFromOctreeKeyERKNS0_9OctreeKeyERS2_@Base 1.6
 (optional=templinst)_ZNK3pcl6octree16OctreePointCloudINS_9PointXYZIENS0_26OctreeContainerDataTVectorIiEENS0_20OctreeContainerEmptyIiEENS0_14Octree2BufBaseIiS4_S6_EEE32getOccupiedVoxelCentersRecursiveEPKNS0_18BufferedBranchNodeIS6_EERKNS0_9OctreeKeyERSt6vectorIS2_N5Eigen17aligned_allocatorIS2_EEE@Base 1.6
 (optional=templinst)_ZNK3pcl6octree16OctreePointCloudINS_9PointXYZLENS0_26OctreeContainerDataTVectorIiEENS0_20OctreeContainerEmptyIiEENS0_10OctreeBaseIiS4_S6_EEE10getEpsilonEv@Base 1.6
 (optional=templinst)_ZNK3pcl6octree16OctreePointCloudINS_9PointXYZLENS0_26OctreeContainerDataTVectorIiEENS0_20OctreeContainerEmptyIiEENS0_10OctreeBaseIiS4_S6_EEE10getIndicesEv@Base 1.6
 (optional=templinst)_ZNK3pcl6octree16OctreePointCloudINS_9PointXYZLENS0_26OctreeContainerDataTVectorIiEENS0_20OctreeContainerEmptyIiEENS0_10OctreeBaseIiS4_S6_EEE12getTreeDepthEv@Base 1.6
 (optional=templinst)_ZNK3pcl6octree16OctreePointCloudINS_9PointXYZLENS0_26OctreeContainerDataTVectorIiEENS0_20OctreeContainerEmptyIiEENS0_10OctreeBaseIiS4_S6_EEE13getInputCloudEv@Base 1.6
 (optional=templinst)_ZNK3pcl6octree16OctreePointCloudINS_9PointXYZLENS0_26OctreeContainerDataTVectorIiEENS0_20OctreeContainerEmptyIiEENS0_10OctreeBaseIiS4_S6_EEE13getResolutionEv@Base 1.6
 (optional=templinst)_ZNK3pcl6octree16OctreePointCloudINS_9PointXYZLENS0_26OctreeContainerDataTVectorIiEENS0_20OctreeContainerEmptyIiEENS0_10OctreeBaseIiS4_S6_EEE14getBoundingBoxERdSA_SA_SA_SA_SA_@Base 1.6
 (optional=templinst)_ZNK3pcl6octree16OctreePointCloudINS_9PointXYZLENS0_26OctreeContainerDataTVectorIiEENS0_20OctreeContainerEmptyIiEENS0_10OctreeBaseIiS4_S6_EEE15findLeafAtPointERKS2_@Base 1.6
 (optional=templinst)_ZNK3pcl6octree16OctreePointCloudINS_9PointXYZLENS0_26OctreeContainerDataTVectorIiEENS0_20OctreeContainerEmptyIiEENS0_10OctreeBaseIiS4_S6_EEE15getPointByIndexEj@Base 1.6
 (optional=templinst)_ZNK3pcl6octree16OctreePointCloudINS_9PointXYZLENS0_26OctreeContainerDataTVectorIiEENS0_20OctreeContainerEmptyIiEENS0_10OctreeBaseIiS4_S6_EEE20genOctreeKeyForDataTERKiRNS0_9OctreeKeyE@Base 1.6
 (optional=templinst)_ZNK3pcl6octree16OctreePointCloudINS_9PointXYZLENS0_26OctreeContainerDataTVectorIiEENS0_20OctreeContainerEmptyIiEENS0_10OctreeBaseIiS4_S6_EEE20genOctreeKeyforPointERKS2_RNS0_9OctreeKeyE@Base 1.6
 (optional=templinst)_ZNK3pcl6octree16OctreePointCloudINS_9PointXYZLENS0_26OctreeContainerDataTVectorIiEENS0_20OctreeContainerEmptyIiEENS0_10OctreeBaseIiS4_S6_EEE20genOctreeKeyforPointEdddRNS0_9OctreeKeyE@Base 1.6
 (optional=templinst)_ZNK3pcl6octree16OctreePointCloudINS_9PointXYZLENS0_26OctreeContainerDataTVectorIiEENS0_20OctreeContainerEmptyIiEENS0_10OctreeBaseIiS4_S6_EEE22getVoxelSquaredSideLenEj@Base 1.6
 (optional=templinst)_ZNK3pcl6octree16OctreePointCloudINS_9PointXYZLENS0_26OctreeContainerDataTVectorIiEENS0_20OctreeContainerEmptyIiEENS0_10OctreeBaseIiS4_S6_EEE22getVoxelSquaredSideLenEv@Base 1.6
 (optional=templinst)_ZNK3pcl6octree16OctreePointCloudINS_9PointXYZLENS0_26OctreeContainerDataTVectorIiEENS0_20OctreeContainerEmptyIiEENS0_10OctreeBaseIiS4_S6_EEE22isVoxelOccupiedAtPointERKS2_@Base 1.6
 (optional=templinst)_ZNK3pcl6octree16OctreePointCloudINS_9PointXYZLENS0_26OctreeContainerDataTVectorIiEENS0_20OctreeContainerEmptyIiEENS0_10OctreeBaseIiS4_S6_EEE22isVoxelOccupiedAtPointERKi@Base 1.6
 (optional=templinst)_ZNK3pcl6octree16OctreePointCloudINS_9PointXYZLENS0_26OctreeContainerDataTVectorIiEENS0_20OctreeContainerEmptyIiEENS0_10OctreeBaseIiS4_S6_EEE22isVoxelOccupiedAtPointEddd@Base 1.6
 (optional=templinst)_ZNK3pcl6octree16OctreePointCloudINS_9PointXYZLENS0_26OctreeContainerDataTVectorIiEENS0_20OctreeContainerEmptyIiEENS0_10OctreeBaseIiS4_S6_EEE23getOccupiedVoxelCentersERSt6vectorIS2_N5Eigen17aligned_allocatorIS2_EEE@Base 1.6
 (optional=templinst)_ZNK3pcl6octree16OctreePointCloudINS_9PointXYZLENS0_26OctreeContainerDataTVectorIiEENS0_20OctreeContainerEmptyIiEENS0_10OctreeBaseIiS4_S6_EEE23getVoxelSquaredDiameterEj@Base 1.6
 (optional=templinst)_ZNK3pcl6octree16OctreePointCloudINS_9PointXYZLENS0_26OctreeContainerDataTVectorIiEENS0_20OctreeContainerEmptyIiEENS0_10OctreeBaseIiS4_S6_EEE23getVoxelSquaredDiameterEv@Base 1.6
 (optional=templinst)_ZNK3pcl6octree16OctreePointCloudINS_9PointXYZLENS0_26OctreeContainerDataTVectorIiEENS0_20OctreeContainerEmptyIiEENS0_10OctreeBaseIiS4_S6_EEE24isPointWithinBoundingBoxERKS2_@Base 1.6
 (optional=templinst)_ZNK3pcl6octree16OctreePointCloudINS_9PointXYZLENS0_26OctreeContainerDataTVectorIiEENS0_20OctreeContainerEmptyIiEENS0_10OctreeBaseIiS4_S6_EEE27genVoxelBoundsFromOctreeKeyERKNS0_9OctreeKeyEjRN5Eigen6MatrixIfLi3ELi1ELi0ELi3ELi1EEESG_@Base 1.6
 (optional=templinst)_ZNK3pcl6octree16OctreePointCloudINS_9PointXYZLENS0_26OctreeContainerDataTVectorIiEENS0_20OctreeContainerEmptyIiEENS0_10OctreeBaseIiS4_S6_EEE27genVoxelCenterFromOctreeKeyERKNS0_9OctreeKeyEjRS2_@Base 1.6
 (optional=templinst)_ZNK3pcl6octree16OctreePointCloudINS_9PointXYZLENS0_26OctreeContainerDataTVectorIiEENS0_20OctreeContainerEmptyIiEENS0_10OctreeBaseIiS4_S6_EEE30genLeafNodeCenterFromOctreeKeyERKNS0_9OctreeKeyERS2_@Base 1.6
 (optional=templinst)_ZNK3pcl6octree16OctreePointCloudINS_9PointXYZLENS0_26OctreeContainerDataTVectorIiEENS0_20OctreeContainerEmptyIiEENS0_10OctreeBaseIiS4_S6_EEE32getOccupiedVoxelCentersRecursiveEPKNS0_16OctreeBranchNodeIS6_EERKNS0_9OctreeKeyERSt6vectorIS2_N5Eigen17aligned_allocatorIS2_EEE@Base 1.6
 (optional=templinst)_ZNK3pcl6octree16OctreePointCloudINS_9PointXYZLENS0_26OctreeContainerDataTVectorIiEENS0_20OctreeContainerEmptyIiEENS0_14Octree2BufBaseIiS4_S6_EEE10getEpsilonEv@Base 1.6
 (optional=templinst)_ZNK3pcl6octree16OctreePointCloudINS_9PointXYZLENS0_26OctreeContainerDataTVectorIiEENS0_20OctreeContainerEmptyIiEENS0_14Octree2BufBaseIiS4_S6_EEE10getIndicesEv@Base 1.6
 (optional=templinst)_ZNK3pcl6octree16OctreePointCloudINS_9PointXYZLENS0_26OctreeContainerDataTVectorIiEENS0_20OctreeContainerEmptyIiEENS0_14Octree2BufBaseIiS4_S6_EEE12getTreeDepthEv@Base 1.6
 (optional=templinst)_ZNK3pcl6octree16OctreePointCloudINS_9PointXYZLENS0_26OctreeContainerDataTVectorIiEENS0_20OctreeContainerEmptyIiEENS0_14Octree2BufBaseIiS4_S6_EEE13getInputCloudEv@Base 1.6
 (optional=templinst)_ZNK3pcl6octree16OctreePointCloudINS_9PointXYZLENS0_26OctreeContainerDataTVectorIiEENS0_20OctreeContainerEmptyIiEENS0_14Octree2BufBaseIiS4_S6_EEE13getResolutionEv@Base 1.6
 (optional=templinst)_ZNK3pcl6octree16OctreePointCloudINS_9PointXYZLENS0_26OctreeContainerDataTVectorIiEENS0_20OctreeContainerEmptyIiEENS0_14Octree2BufBaseIiS4_S6_EEE14getBoundingBoxERdSA_SA_SA_SA_SA_@Base 1.6
 (optional=templinst)_ZNK3pcl6octree16OctreePointCloudINS_9PointXYZLENS0_26OctreeContainerDataTVectorIiEENS0_20OctreeContainerEmptyIiEENS0_14Octree2BufBaseIiS4_S6_EEE15findLeafAtPointERKS2_@Base 1.6
 (optional=templinst)_ZNK3pcl6octree16OctreePointCloudINS_9PointXYZLENS0_26OctreeContainerDataTVectorIiEENS0_20OctreeContainerEmptyIiEENS0_14Octree2BufBaseIiS4_S6_EEE15getPointByIndexEj@Base 1.6
 (optional=templinst)_ZNK3pcl6octree16OctreePointCloudINS_9PointXYZLENS0_26OctreeContainerDataTVectorIiEENS0_20OctreeContainerEmptyIiEENS0_14Octree2BufBaseIiS4_S6_EEE20genOctreeKeyForDataTERKiRNS0_9OctreeKeyE@Base 1.6
 (optional=templinst)_ZNK3pcl6octree16OctreePointCloudINS_9PointXYZLENS0_26OctreeContainerDataTVectorIiEENS0_20OctreeContainerEmptyIiEENS0_14Octree2BufBaseIiS4_S6_EEE20genOctreeKeyforPointERKS2_RNS0_9OctreeKeyE@Base 1.6
 (optional=templinst)_ZNK3pcl6octree16OctreePointCloudINS_9PointXYZLENS0_26OctreeContainerDataTVectorIiEENS0_20OctreeContainerEmptyIiEENS0_14Octree2BufBaseIiS4_S6_EEE20genOctreeKeyforPointEdddRNS0_9OctreeKeyE@Base 1.6
 (optional=templinst)_ZNK3pcl6octree16OctreePointCloudINS_9PointXYZLENS0_26OctreeContainerDataTVectorIiEENS0_20OctreeContainerEmptyIiEENS0_14Octree2BufBaseIiS4_S6_EEE22getVoxelSquaredSideLenEj@Base 1.6
 (optional=templinst)_ZNK3pcl6octree16OctreePointCloudINS_9PointXYZLENS0_26OctreeContainerDataTVectorIiEENS0_20OctreeContainerEmptyIiEENS0_14Octree2BufBaseIiS4_S6_EEE22getVoxelSquaredSideLenEv@Base 1.6
 (optional=templinst)_ZNK3pcl6octree16OctreePointCloudINS_9PointXYZLENS0_26OctreeContainerDataTVectorIiEENS0_20OctreeContainerEmptyIiEENS0_14Octree2BufBaseIiS4_S6_EEE22isVoxelOccupiedAtPointERKS2_@Base 1.6
 (optional=templinst)_ZNK3pcl6octree16OctreePointCloudINS_9PointXYZLENS0_26OctreeContainerDataTVectorIiEENS0_20OctreeContainerEmptyIiEENS0_14Octree2BufBaseIiS4_S6_EEE22isVoxelOccupiedAtPointERKi@Base 1.6
 (optional=templinst)_ZNK3pcl6octree16OctreePointCloudINS_9PointXYZLENS0_26OctreeContainerDataTVectorIiEENS0_20OctreeContainerEmptyIiEENS0_14Octree2BufBaseIiS4_S6_EEE22isVoxelOccupiedAtPointEddd@Base 1.6
 (optional=templinst)_ZNK3pcl6octree16OctreePointCloudINS_9PointXYZLENS0_26OctreeContainerDataTVectorIiEENS0_20OctreeContainerEmptyIiEENS0_14Octree2BufBaseIiS4_S6_EEE23getOccupiedVoxelCentersERSt6vectorIS2_N5Eigen17aligned_allocatorIS2_EEE@Base 1.6
 (optional=templinst)_ZNK3pcl6octree16OctreePointCloudINS_9PointXYZLENS0_26OctreeContainerDataTVectorIiEENS0_20OctreeContainerEmptyIiEENS0_14Octree2BufBaseIiS4_S6_EEE23getVoxelSquaredDiameterEj@Base 1.6
 (optional=templinst)_ZNK3pcl6octree16OctreePointCloudINS_9PointXYZLENS0_26OctreeContainerDataTVectorIiEENS0_20OctreeContainerEmptyIiEENS0_14Octree2BufBaseIiS4_S6_EEE23getVoxelSquaredDiameterEv@Base 1.6
 (optional=templinst)_ZNK3pcl6octree16OctreePointCloudINS_9PointXYZLENS0_26OctreeContainerDataTVectorIiEENS0_20OctreeContainerEmptyIiEENS0_14Octree2BufBaseIiS4_S6_EEE24isPointWithinBoundingBoxERKS2_@Base 1.6
 (optional=templinst)_ZNK3pcl6octree16OctreePointCloudINS_9PointXYZLENS0_26OctreeContainerDataTVectorIiEENS0_20OctreeContainerEmptyIiEENS0_14Octree2BufBaseIiS4_S6_EEE27genVoxelBoundsFromOctreeKeyERKNS0_9OctreeKeyEjRN5Eigen6MatrixIfLi3ELi1ELi0ELi3ELi1EEESG_@Base 1.6
 (optional=templinst)_ZNK3pcl6octree16OctreePointCloudINS_9PointXYZLENS0_26OctreeContainerDataTVectorIiEENS0_20OctreeContainerEmptyIiEENS0_14Octree2BufBaseIiS4_S6_EEE27genVoxelCenterFromOctreeKeyERKNS0_9OctreeKeyEjRS2_@Base 1.6
 (optional=templinst)_ZNK3pcl6octree16OctreePointCloudINS_9PointXYZLENS0_26OctreeContainerDataTVectorIiEENS0_20OctreeContainerEmptyIiEENS0_14Octree2BufBaseIiS4_S6_EEE30genLeafNodeCenterFromOctreeKeyERKNS0_9OctreeKeyERS2_@Base 1.6
 (optional=templinst)_ZNK3pcl6octree16OctreePointCloudINS_9PointXYZLENS0_26OctreeContainerDataTVectorIiEENS0_20OctreeContainerEmptyIiEENS0_14Octree2BufBaseIiS4_S6_EEE32getOccupiedVoxelCentersRecursiveEPKNS0_18BufferedBranchNodeIS6_EERKNS0_9OctreeKeyERSt6vectorIS2_N5Eigen17aligned_allocatorIS2_EEE@Base 1.6
 (optional=templinst)_ZNK3pcl6octree18BufferedBranchNodeINS0_20OctreeContainerEmptyIiEEE11getNodeTypeEv@Base 1.6
 (optional=templinst)_ZNK3pcl6octree18BufferedBranchNodeINS0_20OctreeContainerEmptyIiEEE8deepCopyEv@Base 1.6
 (optional=templinst)_ZNK3pcl6octree20OctreeContainerDataTIiE8deepCopyEv@Base 1.6
 (optional=templinst)_ZNK3pcl6octree20OctreeContainerEmptyIiE8deepCopyEv@Base 1.6
 (optional=templinst)_ZNK3pcl6octree22OctreePointCloudSearchINS_11PointNormalENS0_26OctreeContainerDataTVectorIiEENS0_20OctreeContainerEmptyIiEEE12radiusSearchERKS2_dRSt6vectorIiSaIiEERSA_IfSaIfEEj@Base 1.6
 (optional=templinst)_ZNK3pcl6octree22OctreePointCloudSearchINS_11PointNormalENS0_26OctreeContainerDataTVectorIiEENS0_20OctreeContainerEmptyIiEEE12radiusSearchEidRSt6vectorIiSaIiEERS8_IfSaIfEEj@Base 1.6
 (optional=templinst)_ZNK3pcl6octree22OctreePointCloudSearchINS_11PointNormalENS0_26OctreeContainerDataTVectorIiEENS0_20OctreeContainerEmptyIiEEE16pointSquaredDistERKS2_S9_@Base 1.6
 (optional=templinst)_ZNK3pcl6octree22OctreePointCloudSearchINS_11PointNormalENS0_26OctreeContainerDataTVectorIiEENS0_20OctreeContainerEmptyIiEEE18boxSearchRecursiveERKN5Eigen6MatrixIfLi3ELi1ELi0ELi3ELi1EEESC_PKNS0_16OctreeBranchNodeIS6_EERKNS0_9OctreeKeyEjRSt6vectorIiSaIiEE@Base 1.6
 (optional=templinst)_ZNK3pcl6octree22OctreePointCloudSearchINS_11PointNormalENS0_26OctreeContainerDataTVectorIiEENS0_20OctreeContainerEmptyIiEEE19prioPointQueueEntryltERKS8_@Base 1.6
 (optional=templinst)_ZNK3pcl6octree22OctreePointCloudSearchINS_11PointNormalENS0_26OctreeContainerDataTVectorIiEENS0_20OctreeContainerEmptyIiEEE20initIntersectedVoxelERN5Eigen6MatrixIfLi3ELi1ELi0ELi3ELi1EEESB_RdSC_SC_SC_SC_SC_Rh@Base 1.6
 (optional=templinst)_ZNK3pcl6octree22OctreePointCloudSearchINS_11PointNormalENS0_26OctreeContainerDataTVectorIiEENS0_20OctreeContainerEmptyIiEEE20prioBranchQueueEntryltES8_@Base 1.6
 (optional=templinst)_ZNK3pcl6octree22OctreePointCloudSearchINS_11PointNormalENS0_26OctreeContainerDataTVectorIiEENS0_20OctreeContainerEmptyIiEEE22getNextIntersectedNodeEdddiii@Base 1.6
 (optional=templinst)_ZNK3pcl6octree22OctreePointCloudSearchINS_11PointNormalENS0_26OctreeContainerDataTVectorIiEENS0_20OctreeContainerEmptyIiEEE23getFirstIntersectedNodeEdddddd@Base 1.6
 (optional=templinst)_ZNK3pcl6octree22OctreePointCloudSearchINS_11PointNormalENS0_26OctreeContainerDataTVectorIiEENS0_20OctreeContainerEmptyIiEEE26getIntersectedVoxelCentersEN5Eigen6MatrixIfLi3ELi1ELi0ELi3ELi1EEESA_RSt6vectorIS2_NS8_17aligned_allocatorIS2_EEEi@Base 1.6
 (optional=templinst)_ZNK3pcl6octree22OctreePointCloudSearchINS_11PointNormalENS0_26OctreeContainerDataTVectorIiEENS0_20OctreeContainerEmptyIiEEE26getIntersectedVoxelIndicesEN5Eigen6MatrixIfLi3ELi1ELi0ELi3ELi1EEESA_RSt6vectorIiSaIiEEi@Base 1.6
 (optional=templinst)_ZNK3pcl6octree22OctreePointCloudSearchINS_11PointNormalENS0_26OctreeContainerDataTVectorIiEENS0_20OctreeContainerEmptyIiEEE28getKNearestNeighborRecursiveERKS2_jPKNS0_16OctreeBranchNodeIS6_EERKNS0_9OctreeKeyEjdRSt6vectorINS7_19prioPointQueueEntryESaISI_EE@Base 1.6
 (optional=templinst)_ZNK3pcl6octree22OctreePointCloudSearchINS_11PointNormalENS0_26OctreeContainerDataTVectorIiEENS0_20OctreeContainerEmptyIiEEE33getNeighborsWithinRadiusRecursiveERKS2_dPKNS0_16OctreeBranchNodeIS6_EERKNS0_9OctreeKeyEjRSt6vectorIiSaIiEERSH_IfSaIfEEj@Base 1.6
 (optional=templinst)_ZNK3pcl6octree22OctreePointCloudSearchINS_11PointNormalENS0_26OctreeContainerDataTVectorIiEENS0_20OctreeContainerEmptyIiEEE35getIntersectedVoxelCentersRecursiveEddddddhPKNS0_10OctreeNodeERKNS0_9OctreeKeyERSt6vectorIS2_N5Eigen17aligned_allocatorIS2_EEEi@Base 1.6
 (optional=templinst)_ZNK3pcl6octree22OctreePointCloudSearchINS_11PointNormalENS0_26OctreeContainerDataTVectorIiEENS0_20OctreeContainerEmptyIiEEE35getIntersectedVoxelIndicesRecursiveEddddddhPKNS0_10OctreeNodeERKNS0_9OctreeKeyERSt6vectorIiSaIiEEi@Base 1.6
 (optional=templinst)_ZNK3pcl6octree22OctreePointCloudSearchINS_11PointNormalENS0_26OctreeContainerDataTVectorIiEENS0_20OctreeContainerEmptyIiEEE9boxSearchERKN5Eigen6MatrixIfLi3ELi1ELi0ELi3ELi1EEESC_RSt6vectorIiSaIiEE@Base 1.6
 (optional=templinst)_ZNK3pcl6octree22OctreePointCloudSearchINS_11PointXYZHSVENS0_26OctreeContainerDataTVectorIiEENS0_20OctreeContainerEmptyIiEEE12radiusSearchERKS2_dRSt6vectorIiSaIiEERSA_IfSaIfEEj@Base 1.6
 (optional=templinst)_ZNK3pcl6octree22OctreePointCloudSearchINS_11PointXYZHSVENS0_26OctreeContainerDataTVectorIiEENS0_20OctreeContainerEmptyIiEEE12radiusSearchEidRSt6vectorIiSaIiEERS8_IfSaIfEEj@Base 1.6
 (optional=templinst)_ZNK3pcl6octree22OctreePointCloudSearchINS_11PointXYZHSVENS0_26OctreeContainerDataTVectorIiEENS0_20OctreeContainerEmptyIiEEE16pointSquaredDistERKS2_S9_@Base 1.6
 (optional=templinst)_ZNK3pcl6octree22OctreePointCloudSearchINS_11PointXYZHSVENS0_26OctreeContainerDataTVectorIiEENS0_20OctreeContainerEmptyIiEEE18boxSearchRecursiveERKN5Eigen6MatrixIfLi3ELi1ELi0ELi3ELi1EEESC_PKNS0_16OctreeBranchNodeIS6_EERKNS0_9OctreeKeyEjRSt6vectorIiSaIiEE@Base 1.6
 (optional=templinst)_ZNK3pcl6octree22OctreePointCloudSearchINS_11PointXYZHSVENS0_26OctreeContainerDataTVectorIiEENS0_20OctreeContainerEmptyIiEEE19prioPointQueueEntryltERKS8_@Base 1.6
 (optional=templinst)_ZNK3pcl6octree22OctreePointCloudSearchINS_11PointXYZHSVENS0_26OctreeContainerDataTVectorIiEENS0_20OctreeContainerEmptyIiEEE20initIntersectedVoxelERN5Eigen6MatrixIfLi3ELi1ELi0ELi3ELi1EEESB_RdSC_SC_SC_SC_SC_Rh@Base 1.6
 (optional=templinst)_ZNK3pcl6octree22OctreePointCloudSearchINS_11PointXYZHSVENS0_26OctreeContainerDataTVectorIiEENS0_20OctreeContainerEmptyIiEEE20prioBranchQueueEntryltES8_@Base 1.6
 (optional=templinst)_ZNK3pcl6octree22OctreePointCloudSearchINS_11PointXYZHSVENS0_26OctreeContainerDataTVectorIiEENS0_20OctreeContainerEmptyIiEEE22getNextIntersectedNodeEdddiii@Base 1.6
 (optional=templinst)_ZNK3pcl6octree22OctreePointCloudSearchINS_11PointXYZHSVENS0_26OctreeContainerDataTVectorIiEENS0_20OctreeContainerEmptyIiEEE23getFirstIntersectedNodeEdddddd@Base 1.6
 (optional=templinst)_ZNK3pcl6octree22OctreePointCloudSearchINS_11PointXYZHSVENS0_26OctreeContainerDataTVectorIiEENS0_20OctreeContainerEmptyIiEEE26getIntersectedVoxelCentersEN5Eigen6MatrixIfLi3ELi1ELi0ELi3ELi1EEESA_RSt6vectorIS2_NS8_17aligned_allocatorIS2_EEEi@Base 1.6
 (optional=templinst)_ZNK3pcl6octree22OctreePointCloudSearchINS_11PointXYZHSVENS0_26OctreeContainerDataTVectorIiEENS0_20OctreeContainerEmptyIiEEE26getIntersectedVoxelIndicesEN5Eigen6MatrixIfLi3ELi1ELi0ELi3ELi1EEESA_RSt6vectorIiSaIiEEi@Base 1.6
 (optional=templinst)_ZNK3pcl6octree22OctreePointCloudSearchINS_11PointXYZHSVENS0_26OctreeContainerDataTVectorIiEENS0_20OctreeContainerEmptyIiEEE28getKNearestNeighborRecursiveERKS2_jPKNS0_16OctreeBranchNodeIS6_EERKNS0_9OctreeKeyEjdRSt6vectorINS7_19prioPointQueueEntryESaISI_EE@Base 1.6
 (optional=templinst)_ZNK3pcl6octree22OctreePointCloudSearchINS_11PointXYZHSVENS0_26OctreeContainerDataTVectorIiEENS0_20OctreeContainerEmptyIiEEE33getNeighborsWithinRadiusRecursiveERKS2_dPKNS0_16OctreeBranchNodeIS6_EERKNS0_9OctreeKeyEjRSt6vectorIiSaIiEERSH_IfSaIfEEj@Base 1.6
 (optional=templinst)_ZNK3pcl6octree22OctreePointCloudSearchINS_11PointXYZHSVENS0_26OctreeContainerDataTVectorIiEENS0_20OctreeContainerEmptyIiEEE35getIntersectedVoxelCentersRecursiveEddddddhPKNS0_10OctreeNodeERKNS0_9OctreeKeyERSt6vectorIS2_N5Eigen17aligned_allocatorIS2_EEEi@Base 1.6
 (optional=templinst)_ZNK3pcl6octree22OctreePointCloudSearchINS_11PointXYZHSVENS0_26OctreeContainerDataTVectorIiEENS0_20OctreeContainerEmptyIiEEE35getIntersectedVoxelIndicesRecursiveEddddddhPKNS0_10OctreeNodeERKNS0_9OctreeKeyERSt6vectorIiSaIiEEi@Base 1.6
 (optional=templinst)_ZNK3pcl6octree22OctreePointCloudSearchINS_11PointXYZHSVENS0_26OctreeContainerDataTVectorIiEENS0_20OctreeContainerEmptyIiEEE9boxSearchERKN5Eigen6MatrixIfLi3ELi1ELi0ELi3ELi1EEESC_RSt6vectorIiSaIiEE@Base 1.6
 (optional=templinst)_ZNK3pcl6octree22OctreePointCloudSearchINS_11PointXYZRGBENS0_26OctreeContainerDataTVectorIiEENS0_20OctreeContainerEmptyIiEEE12radiusSearchERKS2_dRSt6vectorIiSaIiEERSA_IfSaIfEEj@Base 1.6
 (optional=templinst)_ZNK3pcl6octree22OctreePointCloudSearchINS_11PointXYZRGBENS0_26OctreeContainerDataTVectorIiEENS0_20OctreeContainerEmptyIiEEE12radiusSearchEidRSt6vectorIiSaIiEERS8_IfSaIfEEj@Base 1.6
 (optional=templinst)_ZNK3pcl6octree22OctreePointCloudSearchINS_11PointXYZRGBENS0_26OctreeContainerDataTVectorIiEENS0_20OctreeContainerEmptyIiEEE16pointSquaredDistERKS2_S9_@Base 1.6
 (optional=templinst)_ZNK3pcl6octree22OctreePointCloudSearchINS_11PointXYZRGBENS0_26OctreeContainerDataTVectorIiEENS0_20OctreeContainerEmptyIiEEE18boxSearchRecursiveERKN5Eigen6MatrixIfLi3ELi1ELi0ELi3ELi1EEESC_PKNS0_16OctreeBranchNodeIS6_EERKNS0_9OctreeKeyEjRSt6vectorIiSaIiEE@Base 1.6
 (optional=templinst)_ZNK3pcl6octree22OctreePointCloudSearchINS_11PointXYZRGBENS0_26OctreeContainerDataTVectorIiEENS0_20OctreeContainerEmptyIiEEE19prioPointQueueEntryltERKS8_@Base 1.6
 (optional=templinst)_ZNK3pcl6octree22OctreePointCloudSearchINS_11PointXYZRGBENS0_26OctreeContainerDataTVectorIiEENS0_20OctreeContainerEmptyIiEEE20initIntersectedVoxelERN5Eigen6MatrixIfLi3ELi1ELi0ELi3ELi1EEESB_RdSC_SC_SC_SC_SC_Rh@Base 1.6
 (optional=templinst)_ZNK3pcl6octree22OctreePointCloudSearchINS_11PointXYZRGBENS0_26OctreeContainerDataTVectorIiEENS0_20OctreeContainerEmptyIiEEE20prioBranchQueueEntryltES8_@Base 1.6
 (optional=templinst)_ZNK3pcl6octree22OctreePointCloudSearchINS_11PointXYZRGBENS0_26OctreeContainerDataTVectorIiEENS0_20OctreeContainerEmptyIiEEE22getNextIntersectedNodeEdddiii@Base 1.6
 (optional=templinst)_ZNK3pcl6octree22OctreePointCloudSearchINS_11PointXYZRGBENS0_26OctreeContainerDataTVectorIiEENS0_20OctreeContainerEmptyIiEEE23getFirstIntersectedNodeEdddddd@Base 1.6
 (optional=templinst)_ZNK3pcl6octree22OctreePointCloudSearchINS_11PointXYZRGBENS0_26OctreeContainerDataTVectorIiEENS0_20OctreeContainerEmptyIiEEE26getIntersectedVoxelCentersEN5Eigen6MatrixIfLi3ELi1ELi0ELi3ELi1EEESA_RSt6vectorIS2_NS8_17aligned_allocatorIS2_EEEi@Base 1.6
 (optional=templinst)_ZNK3pcl6octree22OctreePointCloudSearchINS_11PointXYZRGBENS0_26OctreeContainerDataTVectorIiEENS0_20OctreeContainerEmptyIiEEE26getIntersectedVoxelIndicesEN5Eigen6MatrixIfLi3ELi1ELi0ELi3ELi1EEESA_RSt6vectorIiSaIiEEi@Base 1.6
 (optional=templinst)_ZNK3pcl6octree22OctreePointCloudSearchINS_11PointXYZRGBENS0_26OctreeContainerDataTVectorIiEENS0_20OctreeContainerEmptyIiEEE28getKNearestNeighborRecursiveERKS2_jPKNS0_16OctreeBranchNodeIS6_EERKNS0_9OctreeKeyEjdRSt6vectorINS7_19prioPointQueueEntryESaISI_EE@Base 1.6
 (optional=templinst)_ZNK3pcl6octree22OctreePointCloudSearchINS_11PointXYZRGBENS0_26OctreeContainerDataTVectorIiEENS0_20OctreeContainerEmptyIiEEE33getNeighborsWithinRadiusRecursiveERKS2_dPKNS0_16OctreeBranchNodeIS6_EERKNS0_9OctreeKeyEjRSt6vectorIiSaIiEERSH_IfSaIfEEj@Base 1.6
 (optional=templinst)_ZNK3pcl6octree22OctreePointCloudSearchINS_11PointXYZRGBENS0_26OctreeContainerDataTVectorIiEENS0_20OctreeContainerEmptyIiEEE35getIntersectedVoxelCentersRecursiveEddddddhPKNS0_10OctreeNodeERKNS0_9OctreeKeyERSt6vectorIS2_N5Eigen17aligned_allocatorIS2_EEEi@Base 1.6
 (optional=templinst)_ZNK3pcl6octree22OctreePointCloudSearchINS_11PointXYZRGBENS0_26OctreeContainerDataTVectorIiEENS0_20OctreeContainerEmptyIiEEE35getIntersectedVoxelIndicesRecursiveEddddddhPKNS0_10OctreeNodeERKNS0_9OctreeKeyERSt6vectorIiSaIiEEi@Base 1.6
 (optional=templinst)_ZNK3pcl6octree22OctreePointCloudSearchINS_11PointXYZRGBENS0_26OctreeContainerDataTVectorIiEENS0_20OctreeContainerEmptyIiEEE9boxSearchERKN5Eigen6MatrixIfLi3ELi1ELi0ELi3ELi1EEESC_RSt6vectorIiSaIiEE@Base 1.6
 (optional=templinst)_ZNK3pcl6octree22OctreePointCloudSearchINS_12PointXYZRGBAENS0_26OctreeContainerDataTVectorIiEENS0_20OctreeContainerEmptyIiEEE12radiusSearchERKS2_dRSt6vectorIiSaIiEERSA_IfSaIfEEj@Base 1.6
 (optional=templinst)_ZNK3pcl6octree22OctreePointCloudSearchINS_12PointXYZRGBAENS0_26OctreeContainerDataTVectorIiEENS0_20OctreeContainerEmptyIiEEE12radiusSearchEidRSt6vectorIiSaIiEERS8_IfSaIfEEj@Base 1.6
 (optional=templinst)_ZNK3pcl6octree22OctreePointCloudSearchINS_12PointXYZRGBAENS0_26OctreeContainerDataTVectorIiEENS0_20OctreeContainerEmptyIiEEE16pointSquaredDistERKS2_S9_@Base 1.6
 (optional=templinst)_ZNK3pcl6octree22OctreePointCloudSearchINS_12PointXYZRGBAENS0_26OctreeContainerDataTVectorIiEENS0_20OctreeContainerEmptyIiEEE18boxSearchRecursiveERKN5Eigen6MatrixIfLi3ELi1ELi0ELi3ELi1EEESC_PKNS0_16OctreeBranchNodeIS6_EERKNS0_9OctreeKeyEjRSt6vectorIiSaIiEE@Base 1.6
 (optional=templinst)_ZNK3pcl6octree22OctreePointCloudSearchINS_12PointXYZRGBAENS0_26OctreeContainerDataTVectorIiEENS0_20OctreeContainerEmptyIiEEE19prioPointQueueEntryltERKS8_@Base 1.6
 (optional=templinst)_ZNK3pcl6octree22OctreePointCloudSearchINS_12PointXYZRGBAENS0_26OctreeContainerDataTVectorIiEENS0_20OctreeContainerEmptyIiEEE20initIntersectedVoxelERN5Eigen6MatrixIfLi3ELi1ELi0ELi3ELi1EEESB_RdSC_SC_SC_SC_SC_Rh@Base 1.6
 (optional=templinst)_ZNK3pcl6octree22OctreePointCloudSearchINS_12PointXYZRGBAENS0_26OctreeContainerDataTVectorIiEENS0_20OctreeContainerEmptyIiEEE20prioBranchQueueEntryltES8_@Base 1.6
 (optional=templinst)_ZNK3pcl6octree22OctreePointCloudSearchINS_12PointXYZRGBAENS0_26OctreeContainerDataTVectorIiEENS0_20OctreeContainerEmptyIiEEE22getNextIntersectedNodeEdddiii@Base 1.6
 (optional=templinst)_ZNK3pcl6octree22OctreePointCloudSearchINS_12PointXYZRGBAENS0_26OctreeContainerDataTVectorIiEENS0_20OctreeContainerEmptyIiEEE23getFirstIntersectedNodeEdddddd@Base 1.6
 (optional=templinst)_ZNK3pcl6octree22OctreePointCloudSearchINS_12PointXYZRGBAENS0_26OctreeContainerDataTVectorIiEENS0_20OctreeContainerEmptyIiEEE26getIntersectedVoxelCentersEN5Eigen6MatrixIfLi3ELi1ELi0ELi3ELi1EEESA_RSt6vectorIS2_NS8_17aligned_allocatorIS2_EEEi@Base 1.6
 (optional=templinst)_ZNK3pcl6octree22OctreePointCloudSearchINS_12PointXYZRGBAENS0_26OctreeContainerDataTVectorIiEENS0_20OctreeContainerEmptyIiEEE26getIntersectedVoxelIndicesEN5Eigen6MatrixIfLi3ELi1ELi0ELi3ELi1EEESA_RSt6vectorIiSaIiEEi@Base 1.6
 (optional=templinst)_ZNK3pcl6octree22OctreePointCloudSearchINS_12PointXYZRGBAENS0_26OctreeContainerDataTVectorIiEENS0_20OctreeContainerEmptyIiEEE28getKNearestNeighborRecursiveERKS2_jPKNS0_16OctreeBranchNodeIS6_EERKNS0_9OctreeKeyEjdRSt6vectorINS7_19prioPointQueueEntryESaISI_EE@Base 1.6
 (optional=templinst)_ZNK3pcl6octree22OctreePointCloudSearchINS_12PointXYZRGBAENS0_26OctreeContainerDataTVectorIiEENS0_20OctreeContainerEmptyIiEEE33getNeighborsWithinRadiusRecursiveERKS2_dPKNS0_16OctreeBranchNodeIS6_EERKNS0_9OctreeKeyEjRSt6vectorIiSaIiEERSH_IfSaIfEEj@Base 1.6
 (optional=templinst)_ZNK3pcl6octree22OctreePointCloudSearchINS_12PointXYZRGBAENS0_26OctreeContainerDataTVectorIiEENS0_20OctreeContainerEmptyIiEEE35getIntersectedVoxelCentersRecursiveEddddddhPKNS0_10OctreeNodeERKNS0_9OctreeKeyERSt6vectorIS2_N5Eigen17aligned_allocatorIS2_EEEi@Base 1.6
 (optional=templinst)_ZNK3pcl6octree22OctreePointCloudSearchINS_12PointXYZRGBAENS0_26OctreeContainerDataTVectorIiEENS0_20OctreeContainerEmptyIiEEE35getIntersectedVoxelIndicesRecursiveEddddddhPKNS0_10OctreeNodeERKNS0_9OctreeKeyERSt6vectorIiSaIiEEi@Base 1.6
 (optional=templinst)_ZNK3pcl6octree22OctreePointCloudSearchINS_12PointXYZRGBAENS0_26OctreeContainerDataTVectorIiEENS0_20OctreeContainerEmptyIiEEE9boxSearchERKN5Eigen6MatrixIfLi3ELi1ELi0ELi3ELi1EEESC_RSt6vectorIiSaIiEE@Base 1.6
 (optional=templinst)_ZNK3pcl6octree22OctreePointCloudSearchINS_12PointXYZRGBLENS0_26OctreeContainerDataTVectorIiEENS0_20OctreeContainerEmptyIiEEE12radiusSearchERKS2_dRSt6vectorIiSaIiEERSA_IfSaIfEEj@Base 1.6
 (optional=templinst)_ZNK3pcl6octree22OctreePointCloudSearchINS_12PointXYZRGBLENS0_26OctreeContainerDataTVectorIiEENS0_20OctreeContainerEmptyIiEEE12radiusSearchEidRSt6vectorIiSaIiEERS8_IfSaIfEEj@Base 1.6
 (optional=templinst)_ZNK3pcl6octree22OctreePointCloudSearchINS_12PointXYZRGBLENS0_26OctreeContainerDataTVectorIiEENS0_20OctreeContainerEmptyIiEEE16pointSquaredDistERKS2_S9_@Base 1.6
 (optional=templinst)_ZNK3pcl6octree22OctreePointCloudSearchINS_12PointXYZRGBLENS0_26OctreeContainerDataTVectorIiEENS0_20OctreeContainerEmptyIiEEE18boxSearchRecursiveERKN5Eigen6MatrixIfLi3ELi1ELi0ELi3ELi1EEESC_PKNS0_16OctreeBranchNodeIS6_EERKNS0_9OctreeKeyEjRSt6vectorIiSaIiEE@Base 1.6
 (optional=templinst)_ZNK3pcl6octree22OctreePointCloudSearchINS_12PointXYZRGBLENS0_26OctreeContainerDataTVectorIiEENS0_20OctreeContainerEmptyIiEEE19prioPointQueueEntryltERKS8_@Base 1.6
 (optional=templinst)_ZNK3pcl6octree22OctreePointCloudSearchINS_12PointXYZRGBLENS0_26OctreeContainerDataTVectorIiEENS0_20OctreeContainerEmptyIiEEE20initIntersectedVoxelERN5Eigen6MatrixIfLi3ELi1ELi0ELi3ELi1EEESB_RdSC_SC_SC_SC_SC_Rh@Base 1.6
 (optional=templinst)_ZNK3pcl6octree22OctreePointCloudSearchINS_12PointXYZRGBLENS0_26OctreeContainerDataTVectorIiEENS0_20OctreeContainerEmptyIiEEE20prioBranchQueueEntryltES8_@Base 1.6
 (optional=templinst)_ZNK3pcl6octree22OctreePointCloudSearchINS_12PointXYZRGBLENS0_26OctreeContainerDataTVectorIiEENS0_20OctreeContainerEmptyIiEEE22getNextIntersectedNodeEdddiii@Base 1.6
 (optional=templinst)_ZNK3pcl6octree22OctreePointCloudSearchINS_12PointXYZRGBLENS0_26OctreeContainerDataTVectorIiEENS0_20OctreeContainerEmptyIiEEE23getFirstIntersectedNodeEdddddd@Base 1.6
 (optional=templinst)_ZNK3pcl6octree22OctreePointCloudSearchINS_12PointXYZRGBLENS0_26OctreeContainerDataTVectorIiEENS0_20OctreeContainerEmptyIiEEE26getIntersectedVoxelCentersEN5Eigen6MatrixIfLi3ELi1ELi0ELi3ELi1EEESA_RSt6vectorIS2_NS8_17aligned_allocatorIS2_EEEi@Base 1.6
 (optional=templinst)_ZNK3pcl6octree22OctreePointCloudSearchINS_12PointXYZRGBLENS0_26OctreeContainerDataTVectorIiEENS0_20OctreeContainerEmptyIiEEE26getIntersectedVoxelIndicesEN5Eigen6MatrixIfLi3ELi1ELi0ELi3ELi1EEESA_RSt6vectorIiSaIiEEi@Base 1.6
 (optional=templinst)_ZNK3pcl6octree22OctreePointCloudSearchINS_12PointXYZRGBLENS0_26OctreeContainerDataTVectorIiEENS0_20OctreeContainerEmptyIiEEE28getKNearestNeighborRecursiveERKS2_jPKNS0_16OctreeBranchNodeIS6_EERKNS0_9OctreeKeyEjdRSt6vectorINS7_19prioPointQueueEntryESaISI_EE@Base 1.6
 (optional=templinst)_ZNK3pcl6octree22OctreePointCloudSearchINS_12PointXYZRGBLENS0_26OctreeContainerDataTVectorIiEENS0_20OctreeContainerEmptyIiEEE33getNeighborsWithinRadiusRecursiveERKS2_dPKNS0_16OctreeBranchNodeIS6_EERKNS0_9OctreeKeyEjRSt6vectorIiSaIiEERSH_IfSaIfEEj@Base 1.6
 (optional=templinst)_ZNK3pcl6octree22OctreePointCloudSearchINS_12PointXYZRGBLENS0_26OctreeContainerDataTVectorIiEENS0_20OctreeContainerEmptyIiEEE35getIntersectedVoxelCentersRecursiveEddddddhPKNS0_10OctreeNodeERKNS0_9OctreeKeyERSt6vectorIS2_N5Eigen17aligned_allocatorIS2_EEEi@Base 1.6
 (optional=templinst)_ZNK3pcl6octree22OctreePointCloudSearchINS_12PointXYZRGBLENS0_26OctreeContainerDataTVectorIiEENS0_20OctreeContainerEmptyIiEEE35getIntersectedVoxelIndicesRecursiveEddddddhPKNS0_10OctreeNodeERKNS0_9OctreeKeyERSt6vectorIiSaIiEEi@Base 1.6
 (optional=templinst)_ZNK3pcl6octree22OctreePointCloudSearchINS_12PointXYZRGBLENS0_26OctreeContainerDataTVectorIiEENS0_20OctreeContainerEmptyIiEEE9boxSearchERKN5Eigen6MatrixIfLi3ELi1ELi0ELi3ELi1EEESC_RSt6vectorIiSaIiEE@Base 1.6
 (optional=templinst)_ZNK3pcl6octree22OctreePointCloudSearchINS_13InterestPointENS0_26OctreeContainerDataTVectorIiEENS0_20OctreeContainerEmptyIiEEE12radiusSearchERKS2_dRSt6vectorIiSaIiEERSA_IfSaIfEEj@Base 1.6
 (optional=templinst)_ZNK3pcl6octree22OctreePointCloudSearchINS_13InterestPointENS0_26OctreeContainerDataTVectorIiEENS0_20OctreeContainerEmptyIiEEE12radiusSearchEidRSt6vectorIiSaIiEERS8_IfSaIfEEj@Base 1.6
 (optional=templinst)_ZNK3pcl6octree22OctreePointCloudSearchINS_13InterestPointENS0_26OctreeContainerDataTVectorIiEENS0_20OctreeContainerEmptyIiEEE16pointSquaredDistERKS2_S9_@Base 1.6
 (optional=templinst)_ZNK3pcl6octree22OctreePointCloudSearchINS_13InterestPointENS0_26OctreeContainerDataTVectorIiEENS0_20OctreeContainerEmptyIiEEE18boxSearchRecursiveERKN5Eigen6MatrixIfLi3ELi1ELi0ELi3ELi1EEESC_PKNS0_16OctreeBranchNodeIS6_EERKNS0_9OctreeKeyEjRSt6vectorIiSaIiEE@Base 1.6
 (optional=templinst)_ZNK3pcl6octree22OctreePointCloudSearchINS_13InterestPointENS0_26OctreeContainerDataTVectorIiEENS0_20OctreeContainerEmptyIiEEE19prioPointQueueEntryltERKS8_@Base 1.6
 (optional=templinst)_ZNK3pcl6octree22OctreePointCloudSearchINS_13InterestPointENS0_26OctreeContainerDataTVectorIiEENS0_20OctreeContainerEmptyIiEEE20initIntersectedVoxelERN5Eigen6MatrixIfLi3ELi1ELi0ELi3ELi1EEESB_RdSC_SC_SC_SC_SC_Rh@Base 1.6
 (optional=templinst)_ZNK3pcl6octree22OctreePointCloudSearchINS_13InterestPointENS0_26OctreeContainerDataTVectorIiEENS0_20OctreeContainerEmptyIiEEE20prioBranchQueueEntryltES8_@Base 1.6
 (optional=templinst)_ZNK3pcl6octree22OctreePointCloudSearchINS_13InterestPointENS0_26OctreeContainerDataTVectorIiEENS0_20OctreeContainerEmptyIiEEE22getNextIntersectedNodeEdddiii@Base 1.6
 (optional=templinst)_ZNK3pcl6octree22OctreePointCloudSearchINS_13InterestPointENS0_26OctreeContainerDataTVectorIiEENS0_20OctreeContainerEmptyIiEEE23getFirstIntersectedNodeEdddddd@Base 1.6
 (optional=templinst)_ZNK3pcl6octree22OctreePointCloudSearchINS_13InterestPointENS0_26OctreeContainerDataTVectorIiEENS0_20OctreeContainerEmptyIiEEE26getIntersectedVoxelCentersEN5Eigen6MatrixIfLi3ELi1ELi0ELi3ELi1EEESA_RSt6vectorIS2_NS8_17aligned_allocatorIS2_EEEi@Base 1.6
 (optional=templinst)_ZNK3pcl6octree22OctreePointCloudSearchINS_13InterestPointENS0_26OctreeContainerDataTVectorIiEENS0_20OctreeContainerEmptyIiEEE26getIntersectedVoxelIndicesEN5Eigen6MatrixIfLi3ELi1ELi0ELi3ELi1EEESA_RSt6vectorIiSaIiEEi@Base 1.6
 (optional=templinst)_ZNK3pcl6octree22OctreePointCloudSearchINS_13InterestPointENS0_26OctreeContainerDataTVectorIiEENS0_20OctreeContainerEmptyIiEEE28getKNearestNeighborRecursiveERKS2_jPKNS0_16OctreeBranchNodeIS6_EERKNS0_9OctreeKeyEjdRSt6vectorINS7_19prioPointQueueEntryESaISI_EE@Base 1.6
 (optional=templinst)_ZNK3pcl6octree22OctreePointCloudSearchINS_13InterestPointENS0_26OctreeContainerDataTVectorIiEENS0_20OctreeContainerEmptyIiEEE33getNeighborsWithinRadiusRecursiveERKS2_dPKNS0_16OctreeBranchNodeIS6_EERKNS0_9OctreeKeyEjRSt6vectorIiSaIiEERSH_IfSaIfEEj@Base 1.6
 (optional=templinst)_ZNK3pcl6octree22OctreePointCloudSearchINS_13InterestPointENS0_26OctreeContainerDataTVectorIiEENS0_20OctreeContainerEmptyIiEEE35getIntersectedVoxelCentersRecursiveEddddddhPKNS0_10OctreeNodeERKNS0_9OctreeKeyERSt6vectorIS2_N5Eigen17aligned_allocatorIS2_EEEi@Base 1.6
 (optional=templinst)_ZNK3pcl6octree22OctreePointCloudSearchINS_13InterestPointENS0_26OctreeContainerDataTVectorIiEENS0_20OctreeContainerEmptyIiEEE35getIntersectedVoxelIndicesRecursiveEddddddhPKNS0_10OctreeNodeERKNS0_9OctreeKeyERSt6vectorIiSaIiEEi@Base 1.6
 (optional=templinst)_ZNK3pcl6octree22OctreePointCloudSearchINS_13InterestPointENS0_26OctreeContainerDataTVectorIiEENS0_20OctreeContainerEmptyIiEEE9boxSearchERKN5Eigen6MatrixIfLi3ELi1ELi0ELi3ELi1EEESC_RSt6vectorIiSaIiEE@Base 1.6
 (optional=templinst)_ZNK3pcl6octree22OctreePointCloudSearchINS_14PointWithRangeENS0_26OctreeContainerDataTVectorIiEENS0_20OctreeContainerEmptyIiEEE12radiusSearchERKS2_dRSt6vectorIiSaIiEERSA_IfSaIfEEj@Base 1.6
 (optional=templinst)_ZNK3pcl6octree22OctreePointCloudSearchINS_14PointWithRangeENS0_26OctreeContainerDataTVectorIiEENS0_20OctreeContainerEmptyIiEEE12radiusSearchEidRSt6vectorIiSaIiEERS8_IfSaIfEEj@Base 1.6
 (optional=templinst)_ZNK3pcl6octree22OctreePointCloudSearchINS_14PointWithRangeENS0_26OctreeContainerDataTVectorIiEENS0_20OctreeContainerEmptyIiEEE16pointSquaredDistERKS2_S9_@Base 1.6
 (optional=templinst)_ZNK3pcl6octree22OctreePointCloudSearchINS_14PointWithRangeENS0_26OctreeContainerDataTVectorIiEENS0_20OctreeContainerEmptyIiEEE18boxSearchRecursiveERKN5Eigen6MatrixIfLi3ELi1ELi0ELi3ELi1EEESC_PKNS0_16OctreeBranchNodeIS6_EERKNS0_9OctreeKeyEjRSt6vectorIiSaIiEE@Base 1.6
 (optional=templinst)_ZNK3pcl6octree22OctreePointCloudSearchINS_14PointWithRangeENS0_26OctreeContainerDataTVectorIiEENS0_20OctreeContainerEmptyIiEEE19prioPointQueueEntryltERKS8_@Base 1.6
 (optional=templinst)_ZNK3pcl6octree22OctreePointCloudSearchINS_14PointWithRangeENS0_26OctreeContainerDataTVectorIiEENS0_20OctreeContainerEmptyIiEEE20initIntersectedVoxelERN5Eigen6MatrixIfLi3ELi1ELi0ELi3ELi1EEESB_RdSC_SC_SC_SC_SC_Rh@Base 1.6
 (optional=templinst)_ZNK3pcl6octree22OctreePointCloudSearchINS_14PointWithRangeENS0_26OctreeContainerDataTVectorIiEENS0_20OctreeContainerEmptyIiEEE20prioBranchQueueEntryltES8_@Base 1.6
 (optional=templinst)_ZNK3pcl6octree22OctreePointCloudSearchINS_14PointWithRangeENS0_26OctreeContainerDataTVectorIiEENS0_20OctreeContainerEmptyIiEEE22getNextIntersectedNodeEdddiii@Base 1.6
 (optional=templinst)_ZNK3pcl6octree22OctreePointCloudSearchINS_14PointWithRangeENS0_26OctreeContainerDataTVectorIiEENS0_20OctreeContainerEmptyIiEEE23getFirstIntersectedNodeEdddddd@Base 1.6
 (optional=templinst)_ZNK3pcl6octree22OctreePointCloudSearchINS_14PointWithRangeENS0_26OctreeContainerDataTVectorIiEENS0_20OctreeContainerEmptyIiEEE26getIntersectedVoxelCentersEN5Eigen6MatrixIfLi3ELi1ELi0ELi3ELi1EEESA_RSt6vectorIS2_NS8_17aligned_allocatorIS2_EEEi@Base 1.6
 (optional=templinst)_ZNK3pcl6octree22OctreePointCloudSearchINS_14PointWithRangeENS0_26OctreeContainerDataTVectorIiEENS0_20OctreeContainerEmptyIiEEE26getIntersectedVoxelIndicesEN5Eigen6MatrixIfLi3ELi1ELi0ELi3ELi1EEESA_RSt6vectorIiSaIiEEi@Base 1.6
 (optional=templinst)_ZNK3pcl6octree22OctreePointCloudSearchINS_14PointWithRangeENS0_26OctreeContainerDataTVectorIiEENS0_20OctreeContainerEmptyIiEEE28getKNearestNeighborRecursiveERKS2_jPKNS0_16OctreeBranchNodeIS6_EERKNS0_9OctreeKeyEjdRSt6vectorINS7_19prioPointQueueEntryESaISI_EE@Base 1.6
 (optional=templinst)_ZNK3pcl6octree22OctreePointCloudSearchINS_14PointWithRangeENS0_26OctreeContainerDataTVectorIiEENS0_20OctreeContainerEmptyIiEEE33getNeighborsWithinRadiusRecursiveERKS2_dPKNS0_16OctreeBranchNodeIS6_EERKNS0_9OctreeKeyEjRSt6vectorIiSaIiEERSH_IfSaIfEEj@Base 1.6
 (optional=templinst)_ZNK3pcl6octree22OctreePointCloudSearchINS_14PointWithRangeENS0_26OctreeContainerDataTVectorIiEENS0_20OctreeContainerEmptyIiEEE35getIntersectedVoxelCentersRecursiveEddddddhPKNS0_10OctreeNodeERKNS0_9OctreeKeyERSt6vectorIS2_N5Eigen17aligned_allocatorIS2_EEEi@Base 1.6
 (optional=templinst)_ZNK3pcl6octree22OctreePointCloudSearchINS_14PointWithRangeENS0_26OctreeContainerDataTVectorIiEENS0_20OctreeContainerEmptyIiEEE35getIntersectedVoxelIndicesRecursiveEddddddhPKNS0_10OctreeNodeERKNS0_9OctreeKeyERSt6vectorIiSaIiEEi@Base 1.6
 (optional=templinst)_ZNK3pcl6octree22OctreePointCloudSearchINS_14PointWithRangeENS0_26OctreeContainerDataTVectorIiEENS0_20OctreeContainerEmptyIiEEE9boxSearchERKN5Eigen6MatrixIfLi3ELi1ELi0ELi3ELi1EEESC_RSt6vectorIiSaIiEE@Base 1.6
 (optional=templinst)_ZNK3pcl6octree22OctreePointCloudSearchINS_14PointWithScaleENS0_26OctreeContainerDataTVectorIiEENS0_20OctreeContainerEmptyIiEEE12radiusSearchERKS2_dRSt6vectorIiSaIiEERSA_IfSaIfEEj@Base 1.6
 (optional=templinst)_ZNK3pcl6octree22OctreePointCloudSearchINS_14PointWithScaleENS0_26OctreeContainerDataTVectorIiEENS0_20OctreeContainerEmptyIiEEE12radiusSearchEidRSt6vectorIiSaIiEERS8_IfSaIfEEj@Base 1.6
 (optional=templinst)_ZNK3pcl6octree22OctreePointCloudSearchINS_14PointWithScaleENS0_26OctreeContainerDataTVectorIiEENS0_20OctreeContainerEmptyIiEEE16pointSquaredDistERKS2_S9_@Base 1.6
 (optional=templinst)_ZNK3pcl6octree22OctreePointCloudSearchINS_14PointWithScaleENS0_26OctreeContainerDataTVectorIiEENS0_20OctreeContainerEmptyIiEEE18boxSearchRecursiveERKN5Eigen6MatrixIfLi3ELi1ELi0ELi3ELi1EEESC_PKNS0_16OctreeBranchNodeIS6_EERKNS0_9OctreeKeyEjRSt6vectorIiSaIiEE@Base 1.6
 (optional=templinst)_ZNK3pcl6octree22OctreePointCloudSearchINS_14PointWithScaleENS0_26OctreeContainerDataTVectorIiEENS0_20OctreeContainerEmptyIiEEE19prioPointQueueEntryltERKS8_@Base 1.6
 (optional=templinst)_ZNK3pcl6octree22OctreePointCloudSearchINS_14PointWithScaleENS0_26OctreeContainerDataTVectorIiEENS0_20OctreeContainerEmptyIiEEE20initIntersectedVoxelERN5Eigen6MatrixIfLi3ELi1ELi0ELi3ELi1EEESB_RdSC_SC_SC_SC_SC_Rh@Base 1.6
 (optional=templinst)_ZNK3pcl6octree22OctreePointCloudSearchINS_14PointWithScaleENS0_26OctreeContainerDataTVectorIiEENS0_20OctreeContainerEmptyIiEEE20prioBranchQueueEntryltES8_@Base 1.6
 (optional=templinst)_ZNK3pcl6octree22OctreePointCloudSearchINS_14PointWithScaleENS0_26OctreeContainerDataTVectorIiEENS0_20OctreeContainerEmptyIiEEE22getNextIntersectedNodeEdddiii@Base 1.6
 (optional=templinst)_ZNK3pcl6octree22OctreePointCloudSearchINS_14PointWithScaleENS0_26OctreeContainerDataTVectorIiEENS0_20OctreeContainerEmptyIiEEE23getFirstIntersectedNodeEdddddd@Base 1.6
 (optional=templinst)_ZNK3pcl6octree22OctreePointCloudSearchINS_14PointWithScaleENS0_26OctreeContainerDataTVectorIiEENS0_20OctreeContainerEmptyIiEEE26getIntersectedVoxelCentersEN5Eigen6MatrixIfLi3ELi1ELi0ELi3ELi1EEESA_RSt6vectorIS2_NS8_17aligned_allocatorIS2_EEEi@Base 1.6
 (optional=templinst)_ZNK3pcl6octree22OctreePointCloudSearchINS_14PointWithScaleENS0_26OctreeContainerDataTVectorIiEENS0_20OctreeContainerEmptyIiEEE26getIntersectedVoxelIndicesEN5Eigen6MatrixIfLi3ELi1ELi0ELi3ELi1EEESA_RSt6vectorIiSaIiEEi@Base 1.6
 (optional=templinst)_ZNK3pcl6octree22OctreePointCloudSearchINS_14PointWithScaleENS0_26OctreeContainerDataTVectorIiEENS0_20OctreeContainerEmptyIiEEE28getKNearestNeighborRecursiveERKS2_jPKNS0_16OctreeBranchNodeIS6_EERKNS0_9OctreeKeyEjdRSt6vectorINS7_19prioPointQueueEntryESaISI_EE@Base 1.6
 (optional=templinst)_ZNK3pcl6octree22OctreePointCloudSearchINS_14PointWithScaleENS0_26OctreeContainerDataTVectorIiEENS0_20OctreeContainerEmptyIiEEE33getNeighborsWithinRadiusRecursiveERKS2_dPKNS0_16OctreeBranchNodeIS6_EERKNS0_9OctreeKeyEjRSt6vectorIiSaIiEERSH_IfSaIfEEj@Base 1.6
 (optional=templinst)_ZNK3pcl6octree22OctreePointCloudSearchINS_14PointWithScaleENS0_26OctreeContainerDataTVectorIiEENS0_20OctreeContainerEmptyIiEEE35getIntersectedVoxelCentersRecursiveEddddddhPKNS0_10OctreeNodeERKNS0_9OctreeKeyERSt6vectorIS2_N5Eigen17aligned_allocatorIS2_EEEi@Base 1.6
 (optional=templinst)_ZNK3pcl6octree22OctreePointCloudSearchINS_14PointWithScaleENS0_26OctreeContainerDataTVectorIiEENS0_20OctreeContainerEmptyIiEEE35getIntersectedVoxelIndicesRecursiveEddddddhPKNS0_10OctreeNodeERKNS0_9OctreeKeyERSt6vectorIiSaIiEEi@Base 1.6
 (optional=templinst)_ZNK3pcl6octree22OctreePointCloudSearchINS_14PointWithScaleENS0_26OctreeContainerDataTVectorIiEENS0_20OctreeContainerEmptyIiEEE9boxSearchERKN5Eigen6MatrixIfLi3ELi1ELi0ELi3ELi1EEESC_RSt6vectorIiSaIiEE@Base 1.6
 (optional=templinst)_ZNK3pcl6octree22OctreePointCloudSearchINS_15PointXYZINormalENS0_26OctreeContainerDataTVectorIiEENS0_20OctreeContainerEmptyIiEEE12radiusSearchERKS2_dRSt6vectorIiSaIiEERSA_IfSaIfEEj@Base 1.6
 (optional=templinst)_ZNK3pcl6octree22OctreePointCloudSearchINS_15PointXYZINormalENS0_26OctreeContainerDataTVectorIiEENS0_20OctreeContainerEmptyIiEEE12radiusSearchEidRSt6vectorIiSaIiEERS8_IfSaIfEEj@Base 1.6
 (optional=templinst)_ZNK3pcl6octree22OctreePointCloudSearchINS_15PointXYZINormalENS0_26OctreeContainerDataTVectorIiEENS0_20OctreeContainerEmptyIiEEE16pointSquaredDistERKS2_S9_@Base 1.6
 (optional=templinst)_ZNK3pcl6octree22OctreePointCloudSearchINS_15PointXYZINormalENS0_26OctreeContainerDataTVectorIiEENS0_20OctreeContainerEmptyIiEEE18boxSearchRecursiveERKN5Eigen6MatrixIfLi3ELi1ELi0ELi3ELi1EEESC_PKNS0_16OctreeBranchNodeIS6_EERKNS0_9OctreeKeyEjRSt6vectorIiSaIiEE@Base 1.6
 (optional=templinst)_ZNK3pcl6octree22OctreePointCloudSearchINS_15PointXYZINormalENS0_26OctreeContainerDataTVectorIiEENS0_20OctreeContainerEmptyIiEEE19prioPointQueueEntryltERKS8_@Base 1.6
 (optional=templinst)_ZNK3pcl6octree22OctreePointCloudSearchINS_15PointXYZINormalENS0_26OctreeContainerDataTVectorIiEENS0_20OctreeContainerEmptyIiEEE20initIntersectedVoxelERN5Eigen6MatrixIfLi3ELi1ELi0ELi3ELi1EEESB_RdSC_SC_SC_SC_SC_Rh@Base 1.6
 (optional=templinst)_ZNK3pcl6octree22OctreePointCloudSearchINS_15PointXYZINormalENS0_26OctreeContainerDataTVectorIiEENS0_20OctreeContainerEmptyIiEEE20prioBranchQueueEntryltES8_@Base 1.6
 (optional=templinst)_ZNK3pcl6octree22OctreePointCloudSearchINS_15PointXYZINormalENS0_26OctreeContainerDataTVectorIiEENS0_20OctreeContainerEmptyIiEEE22getNextIntersectedNodeEdddiii@Base 1.6
 (optional=templinst)_ZNK3pcl6octree22OctreePointCloudSearchINS_15PointXYZINormalENS0_26OctreeContainerDataTVectorIiEENS0_20OctreeContainerEmptyIiEEE23getFirstIntersectedNodeEdddddd@Base 1.6
 (optional=templinst)_ZNK3pcl6octree22OctreePointCloudSearchINS_15PointXYZINormalENS0_26OctreeContainerDataTVectorIiEENS0_20OctreeContainerEmptyIiEEE26getIntersectedVoxelCentersEN5Eigen6MatrixIfLi3ELi1ELi0ELi3ELi1EEESA_RSt6vectorIS2_NS8_17aligned_allocatorIS2_EEEi@Base 1.6
 (optional=templinst)_ZNK3pcl6octree22OctreePointCloudSearchINS_15PointXYZINormalENS0_26OctreeContainerDataTVectorIiEENS0_20OctreeContainerEmptyIiEEE26getIntersectedVoxelIndicesEN5Eigen6MatrixIfLi3ELi1ELi0ELi3ELi1EEESA_RSt6vectorIiSaIiEEi@Base 1.6
 (optional=templinst)_ZNK3pcl6octree22OctreePointCloudSearchINS_15PointXYZINormalENS0_26OctreeContainerDataTVectorIiEENS0_20OctreeContainerEmptyIiEEE28getKNearestNeighborRecursiveERKS2_jPKNS0_16OctreeBranchNodeIS6_EERKNS0_9OctreeKeyEjdRSt6vectorINS7_19prioPointQueueEntryESaISI_EE@Base 1.6
 (optional=templinst)_ZNK3pcl6octree22OctreePointCloudSearchINS_15PointXYZINormalENS0_26OctreeContainerDataTVectorIiEENS0_20OctreeContainerEmptyIiEEE33getNeighborsWithinRadiusRecursiveERKS2_dPKNS0_16OctreeBranchNodeIS6_EERKNS0_9OctreeKeyEjRSt6vectorIiSaIiEERSH_IfSaIfEEj@Base 1.6
 (optional=templinst)_ZNK3pcl6octree22OctreePointCloudSearchINS_15PointXYZINormalENS0_26OctreeContainerDataTVectorIiEENS0_20OctreeContainerEmptyIiEEE35getIntersectedVoxelCentersRecursiveEddddddhPKNS0_10OctreeNodeERKNS0_9OctreeKeyERSt6vectorIS2_N5Eigen17aligned_allocatorIS2_EEEi@Base 1.6
 (optional=templinst)_ZNK3pcl6octree22OctreePointCloudSearchINS_15PointXYZINormalENS0_26OctreeContainerDataTVectorIiEENS0_20OctreeContainerEmptyIiEEE35getIntersectedVoxelIndicesRecursiveEddddddhPKNS0_10OctreeNodeERKNS0_9OctreeKeyERSt6vectorIiSaIiEEi@Base 1.6
 (optional=templinst)_ZNK3pcl6octree22OctreePointCloudSearchINS_15PointXYZINormalENS0_26OctreeContainerDataTVectorIiEENS0_20OctreeContainerEmptyIiEEE9boxSearchERKN5Eigen6MatrixIfLi3ELi1ELi0ELi3ELi1EEESC_RSt6vectorIiSaIiEE@Base 1.6
 (optional=templinst)_ZNK3pcl6octree22OctreePointCloudSearchINS_17PointXYZRGBNormalENS0_26OctreeContainerDataTVectorIiEENS0_20OctreeContainerEmptyIiEEE12radiusSearchERKS2_dRSt6vectorIiSaIiEERSA_IfSaIfEEj@Base 1.6
 (optional=templinst)_ZNK3pcl6octree22OctreePointCloudSearchINS_17PointXYZRGBNormalENS0_26OctreeContainerDataTVectorIiEENS0_20OctreeContainerEmptyIiEEE12radiusSearchEidRSt6vectorIiSaIiEERS8_IfSaIfEEj@Base 1.6
 (optional=templinst)_ZNK3pcl6octree22OctreePointCloudSearchINS_17PointXYZRGBNormalENS0_26OctreeContainerDataTVectorIiEENS0_20OctreeContainerEmptyIiEEE16pointSquaredDistERKS2_S9_@Base 1.6
 (optional=templinst)_ZNK3pcl6octree22OctreePointCloudSearchINS_17PointXYZRGBNormalENS0_26OctreeContainerDataTVectorIiEENS0_20OctreeContainerEmptyIiEEE18boxSearchRecursiveERKN5Eigen6MatrixIfLi3ELi1ELi0ELi3ELi1EEESC_PKNS0_16OctreeBranchNodeIS6_EERKNS0_9OctreeKeyEjRSt6vectorIiSaIiEE@Base 1.6
 (optional=templinst)_ZNK3pcl6octree22OctreePointCloudSearchINS_17PointXYZRGBNormalENS0_26OctreeContainerDataTVectorIiEENS0_20OctreeContainerEmptyIiEEE19prioPointQueueEntryltERKS8_@Base 1.6
 (optional=templinst)_ZNK3pcl6octree22OctreePointCloudSearchINS_17PointXYZRGBNormalENS0_26OctreeContainerDataTVectorIiEENS0_20OctreeContainerEmptyIiEEE20initIntersectedVoxelERN5Eigen6MatrixIfLi3ELi1ELi0ELi3ELi1EEESB_RdSC_SC_SC_SC_SC_Rh@Base 1.6
 (optional=templinst)_ZNK3pcl6octree22OctreePointCloudSearchINS_17PointXYZRGBNormalENS0_26OctreeContainerDataTVectorIiEENS0_20OctreeContainerEmptyIiEEE20prioBranchQueueEntryltES8_@Base 1.6
 (optional=templinst)_ZNK3pcl6octree22OctreePointCloudSearchINS_17PointXYZRGBNormalENS0_26OctreeContainerDataTVectorIiEENS0_20OctreeContainerEmptyIiEEE22getNextIntersectedNodeEdddiii@Base 1.6
 (optional=templinst)_ZNK3pcl6octree22OctreePointCloudSearchINS_17PointXYZRGBNormalENS0_26OctreeContainerDataTVectorIiEENS0_20OctreeContainerEmptyIiEEE23getFirstIntersectedNodeEdddddd@Base 1.6
 (optional=templinst)_ZNK3pcl6octree22OctreePointCloudSearchINS_17PointXYZRGBNormalENS0_26OctreeContainerDataTVectorIiEENS0_20OctreeContainerEmptyIiEEE26getIntersectedVoxelCentersEN5Eigen6MatrixIfLi3ELi1ELi0ELi3ELi1EEESA_RSt6vectorIS2_NS8_17aligned_allocatorIS2_EEEi@Base 1.6
 (optional=templinst)_ZNK3pcl6octree22OctreePointCloudSearchINS_17PointXYZRGBNormalENS0_26OctreeContainerDataTVectorIiEENS0_20OctreeContainerEmptyIiEEE26getIntersectedVoxelIndicesEN5Eigen6MatrixIfLi3ELi1ELi0ELi3ELi1EEESA_RSt6vectorIiSaIiEEi@Base 1.6
 (optional=templinst)_ZNK3pcl6octree22OctreePointCloudSearchINS_17PointXYZRGBNormalENS0_26OctreeContainerDataTVectorIiEENS0_20OctreeContainerEmptyIiEEE28getKNearestNeighborRecursiveERKS2_jPKNS0_16OctreeBranchNodeIS6_EERKNS0_9OctreeKeyEjdRSt6vectorINS7_19prioPointQueueEntryESaISI_EE@Base 1.6
 (optional=templinst)_ZNK3pcl6octree22OctreePointCloudSearchINS_17PointXYZRGBNormalENS0_26OctreeContainerDataTVectorIiEENS0_20OctreeContainerEmptyIiEEE33getNeighborsWithinRadiusRecursiveERKS2_dPKNS0_16OctreeBranchNodeIS6_EERKNS0_9OctreeKeyEjRSt6vectorIiSaIiEERSH_IfSaIfEEj@Base 1.6
 (optional=templinst)_ZNK3pcl6octree22OctreePointCloudSearchINS_17PointXYZRGBNormalENS0_26OctreeContainerDataTVectorIiEENS0_20OctreeContainerEmptyIiEEE35getIntersectedVoxelCentersRecursiveEddddddhPKNS0_10OctreeNodeERKNS0_9OctreeKeyERSt6vectorIS2_N5Eigen17aligned_allocatorIS2_EEEi@Base 1.6
 (optional=templinst)_ZNK3pcl6octree22OctreePointCloudSearchINS_17PointXYZRGBNormalENS0_26OctreeContainerDataTVectorIiEENS0_20OctreeContainerEmptyIiEEE35getIntersectedVoxelIndicesRecursiveEddddddhPKNS0_10OctreeNodeERKNS0_9OctreeKeyERSt6vectorIiSaIiEEi@Base 1.6
 (optional=templinst)_ZNK3pcl6octree22OctreePointCloudSearchINS_17PointXYZRGBNormalENS0_26OctreeContainerDataTVectorIiEENS0_20OctreeContainerEmptyIiEEE9boxSearchERKN5Eigen6MatrixIfLi3ELi1ELi0ELi3ELi1EEESC_RSt6vectorIiSaIiEE@Base 1.6
 (optional=templinst)_ZNK3pcl6octree22OctreePointCloudSearchINS_18PointWithViewpointENS0_26OctreeContainerDataTVectorIiEENS0_20OctreeContainerEmptyIiEEE12radiusSearchERKS2_dRSt6vectorIiSaIiEERSA_IfSaIfEEj@Base 1.6
 (optional=templinst)_ZNK3pcl6octree22OctreePointCloudSearchINS_18PointWithViewpointENS0_26OctreeContainerDataTVectorIiEENS0_20OctreeContainerEmptyIiEEE12radiusSearchEidRSt6vectorIiSaIiEERS8_IfSaIfEEj@Base 1.6
 (optional=templinst)_ZNK3pcl6octree22OctreePointCloudSearchINS_18PointWithViewpointENS0_26OctreeContainerDataTVectorIiEENS0_20OctreeContainerEmptyIiEEE16pointSquaredDistERKS2_S9_@Base 1.6
 (optional=templinst)_ZNK3pcl6octree22OctreePointCloudSearchINS_18PointWithViewpointENS0_26OctreeContainerDataTVectorIiEENS0_20OctreeContainerEmptyIiEEE18boxSearchRecursiveERKN5Eigen6MatrixIfLi3ELi1ELi0ELi3ELi1EEESC_PKNS0_16OctreeBranchNodeIS6_EERKNS0_9OctreeKeyEjRSt6vectorIiSaIiEE@Base 1.6
 (optional=templinst)_ZNK3pcl6octree22OctreePointCloudSearchINS_18PointWithViewpointENS0_26OctreeContainerDataTVectorIiEENS0_20OctreeContainerEmptyIiEEE19prioPointQueueEntryltERKS8_@Base 1.6
 (optional=templinst)_ZNK3pcl6octree22OctreePointCloudSearchINS_18PointWithViewpointENS0_26OctreeContainerDataTVectorIiEENS0_20OctreeContainerEmptyIiEEE20initIntersectedVoxelERN5Eigen6MatrixIfLi3ELi1ELi0ELi3ELi1EEESB_RdSC_SC_SC_SC_SC_Rh@Base 1.6
 (optional=templinst)_ZNK3pcl6octree22OctreePointCloudSearchINS_18PointWithViewpointENS0_26OctreeContainerDataTVectorIiEENS0_20OctreeContainerEmptyIiEEE20prioBranchQueueEntryltES8_@Base 1.6
 (optional=templinst)_ZNK3pcl6octree22OctreePointCloudSearchINS_18PointWithViewpointENS0_26OctreeContainerDataTVectorIiEENS0_20OctreeContainerEmptyIiEEE22getNextIntersectedNodeEdddiii@Base 1.6
 (optional=templinst)_ZNK3pcl6octree22OctreePointCloudSearchINS_18PointWithViewpointENS0_26OctreeContainerDataTVectorIiEENS0_20OctreeContainerEmptyIiEEE23getFirstIntersectedNodeEdddddd@Base 1.6
 (optional=templinst)_ZNK3pcl6octree22OctreePointCloudSearchINS_18PointWithViewpointENS0_26OctreeContainerDataTVectorIiEENS0_20OctreeContainerEmptyIiEEE26getIntersectedVoxelCentersEN5Eigen6MatrixIfLi3ELi1ELi0ELi3ELi1EEESA_RSt6vectorIS2_NS8_17aligned_allocatorIS2_EEEi@Base 1.6
 (optional=templinst)_ZNK3pcl6octree22OctreePointCloudSearchINS_18PointWithViewpointENS0_26OctreeContainerDataTVectorIiEENS0_20OctreeContainerEmptyIiEEE26getIntersectedVoxelIndicesEN5Eigen6MatrixIfLi3ELi1ELi0ELi3ELi1EEESA_RSt6vectorIiSaIiEEi@Base 1.6
 (optional=templinst)_ZNK3pcl6octree22OctreePointCloudSearchINS_18PointWithViewpointENS0_26OctreeContainerDataTVectorIiEENS0_20OctreeContainerEmptyIiEEE28getKNearestNeighborRecursiveERKS2_jPKNS0_16OctreeBranchNodeIS6_EERKNS0_9OctreeKeyEjdRSt6vectorINS7_19prioPointQueueEntryESaISI_EE@Base 1.6
 (optional=templinst)_ZNK3pcl6octree22OctreePointCloudSearchINS_18PointWithViewpointENS0_26OctreeContainerDataTVectorIiEENS0_20OctreeContainerEmptyIiEEE33getNeighborsWithinRadiusRecursiveERKS2_dPKNS0_16OctreeBranchNodeIS6_EERKNS0_9OctreeKeyEjRSt6vectorIiSaIiEERSH_IfSaIfEEj@Base 1.6
 (optional=templinst)_ZNK3pcl6octree22OctreePointCloudSearchINS_18PointWithViewpointENS0_26OctreeContainerDataTVectorIiEENS0_20OctreeContainerEmptyIiEEE35getIntersectedVoxelCentersRecursiveEddddddhPKNS0_10OctreeNodeERKNS0_9OctreeKeyERSt6vectorIS2_N5Eigen17aligned_allocatorIS2_EEEi@Base 1.6
 (optional=templinst)_ZNK3pcl6octree22OctreePointCloudSearchINS_18PointWithViewpointENS0_26OctreeContainerDataTVectorIiEENS0_20OctreeContainerEmptyIiEEE35getIntersectedVoxelIndicesRecursiveEddddddhPKNS0_10OctreeNodeERKNS0_9OctreeKeyERSt6vectorIiSaIiEEi@Base 1.6
 (optional=templinst)_ZNK3pcl6octree22OctreePointCloudSearchINS_18PointWithViewpointENS0_26OctreeContainerDataTVectorIiEENS0_20OctreeContainerEmptyIiEEE9boxSearchERKN5Eigen6MatrixIfLi3ELi1ELi0ELi3ELi1EEESC_RSt6vectorIiSaIiEE@Base 1.6
 (optional=templinst)_ZNK3pcl6octree22OctreePointCloudSearchINS_8PointXYZENS0_26OctreeContainerDataTVectorIiEENS0_20OctreeContainerEmptyIiEEE12radiusSearchERKS2_dRSt6vectorIiSaIiEERSA_IfSaIfEEj@Base 1.6
 (optional=templinst)_ZNK3pcl6octree22OctreePointCloudSearchINS_8PointXYZENS0_26OctreeContainerDataTVectorIiEENS0_20OctreeContainerEmptyIiEEE12radiusSearchEidRSt6vectorIiSaIiEERS8_IfSaIfEEj@Base 1.6
 (optional=templinst)_ZNK3pcl6octree22OctreePointCloudSearchINS_8PointXYZENS0_26OctreeContainerDataTVectorIiEENS0_20OctreeContainerEmptyIiEEE16pointSquaredDistERKS2_S9_@Base 1.6
 (optional=templinst)_ZNK3pcl6octree22OctreePointCloudSearchINS_8PointXYZENS0_26OctreeContainerDataTVectorIiEENS0_20OctreeContainerEmptyIiEEE18boxSearchRecursiveERKN5Eigen6MatrixIfLi3ELi1ELi0ELi3ELi1EEESC_PKNS0_16OctreeBranchNodeIS6_EERKNS0_9OctreeKeyEjRSt6vectorIiSaIiEE@Base 1.6
 (optional=templinst)_ZNK3pcl6octree22OctreePointCloudSearchINS_8PointXYZENS0_26OctreeContainerDataTVectorIiEENS0_20OctreeContainerEmptyIiEEE19prioPointQueueEntryltERKS8_@Base 1.6
 (optional=templinst)_ZNK3pcl6octree22OctreePointCloudSearchINS_8PointXYZENS0_26OctreeContainerDataTVectorIiEENS0_20OctreeContainerEmptyIiEEE20initIntersectedVoxelERN5Eigen6MatrixIfLi3ELi1ELi0ELi3ELi1EEESB_RdSC_SC_SC_SC_SC_Rh@Base 1.6
 (optional=templinst)_ZNK3pcl6octree22OctreePointCloudSearchINS_8PointXYZENS0_26OctreeContainerDataTVectorIiEENS0_20OctreeContainerEmptyIiEEE20prioBranchQueueEntryltES8_@Base 1.6
 (optional=templinst)_ZNK3pcl6octree22OctreePointCloudSearchINS_8PointXYZENS0_26OctreeContainerDataTVectorIiEENS0_20OctreeContainerEmptyIiEEE22getNextIntersectedNodeEdddiii@Base 1.6
 (optional=templinst)_ZNK3pcl6octree22OctreePointCloudSearchINS_8PointXYZENS0_26OctreeContainerDataTVectorIiEENS0_20OctreeContainerEmptyIiEEE23getFirstIntersectedNodeEdddddd@Base 1.6
 (optional=templinst)_ZNK3pcl6octree22OctreePointCloudSearchINS_8PointXYZENS0_26OctreeContainerDataTVectorIiEENS0_20OctreeContainerEmptyIiEEE26getIntersectedVoxelCentersEN5Eigen6MatrixIfLi3ELi1ELi0ELi3ELi1EEESA_RSt6vectorIS2_NS8_17aligned_allocatorIS2_EEEi@Base 1.6
 (optional=templinst)_ZNK3pcl6octree22OctreePointCloudSearchINS_8PointXYZENS0_26OctreeContainerDataTVectorIiEENS0_20OctreeContainerEmptyIiEEE26getIntersectedVoxelIndicesEN5Eigen6MatrixIfLi3ELi1ELi0ELi3ELi1EEESA_RSt6vectorIiSaIiEEi@Base 1.6
 (optional=templinst)_ZNK3pcl6octree22OctreePointCloudSearchINS_8PointXYZENS0_26OctreeContainerDataTVectorIiEENS0_20OctreeContainerEmptyIiEEE28getKNearestNeighborRecursiveERKS2_jPKNS0_16OctreeBranchNodeIS6_EERKNS0_9OctreeKeyEjdRSt6vectorINS7_19prioPointQueueEntryESaISI_EE@Base 1.6
 (optional=templinst)_ZNK3pcl6octree22OctreePointCloudSearchINS_8PointXYZENS0_26OctreeContainerDataTVectorIiEENS0_20OctreeContainerEmptyIiEEE33getNeighborsWithinRadiusRecursiveERKS2_dPKNS0_16OctreeBranchNodeIS6_EERKNS0_9OctreeKeyEjRSt6vectorIiSaIiEERSH_IfSaIfEEj@Base 1.6
 (optional=templinst)_ZNK3pcl6octree22OctreePointCloudSearchINS_8PointXYZENS0_26OctreeContainerDataTVectorIiEENS0_20OctreeContainerEmptyIiEEE35getIntersectedVoxelCentersRecursiveEddddddhPKNS0_10OctreeNodeERKNS0_9OctreeKeyERSt6vectorIS2_N5Eigen17aligned_allocatorIS2_EEEi@Base 1.6
 (optional=templinst)_ZNK3pcl6octree22OctreePointCloudSearchINS_8PointXYZENS0_26OctreeContainerDataTVectorIiEENS0_20OctreeContainerEmptyIiEEE35getIntersectedVoxelIndicesRecursiveEddddddhPKNS0_10OctreeNodeERKNS0_9OctreeKeyERSt6vectorIiSaIiEEi@Base 1.6
 (optional=templinst)_ZNK3pcl6octree22OctreePointCloudSearchINS_8PointXYZENS0_26OctreeContainerDataTVectorIiEENS0_20OctreeContainerEmptyIiEEE9boxSearchERKN5Eigen6MatrixIfLi3ELi1ELi0ELi3ELi1EEESC_RSt6vectorIiSaIiEE@Base 1.6
 (optional=templinst)_ZNK3pcl6octree22OctreePointCloudSearchINS_9PointXYZIENS0_26OctreeContainerDataTVectorIiEENS0_20OctreeContainerEmptyIiEEE12radiusSearchERKS2_dRSt6vectorIiSaIiEERSA_IfSaIfEEj@Base 1.6
 (optional=templinst)_ZNK3pcl6octree22OctreePointCloudSearchINS_9PointXYZIENS0_26OctreeContainerDataTVectorIiEENS0_20OctreeContainerEmptyIiEEE12radiusSearchEidRSt6vectorIiSaIiEERS8_IfSaIfEEj@Base 1.6
 (optional=templinst)_ZNK3pcl6octree22OctreePointCloudSearchINS_9PointXYZIENS0_26OctreeContainerDataTVectorIiEENS0_20OctreeContainerEmptyIiEEE16pointSquaredDistERKS2_S9_@Base 1.6
 (optional=templinst)_ZNK3pcl6octree22OctreePointCloudSearchINS_9PointXYZIENS0_26OctreeContainerDataTVectorIiEENS0_20OctreeContainerEmptyIiEEE18boxSearchRecursiveERKN5Eigen6MatrixIfLi3ELi1ELi0ELi3ELi1EEESC_PKNS0_16OctreeBranchNodeIS6_EERKNS0_9OctreeKeyEjRSt6vectorIiSaIiEE@Base 1.6
 (optional=templinst)_ZNK3pcl6octree22OctreePointCloudSearchINS_9PointXYZIENS0_26OctreeContainerDataTVectorIiEENS0_20OctreeContainerEmptyIiEEE19prioPointQueueEntryltERKS8_@Base 1.6
 (optional=templinst)_ZNK3pcl6octree22OctreePointCloudSearchINS_9PointXYZIENS0_26OctreeContainerDataTVectorIiEENS0_20OctreeContainerEmptyIiEEE20initIntersectedVoxelERN5Eigen6MatrixIfLi3ELi1ELi0ELi3ELi1EEESB_RdSC_SC_SC_SC_SC_Rh@Base 1.6
 (optional=templinst)_ZNK3pcl6octree22OctreePointCloudSearchINS_9PointXYZIENS0_26OctreeContainerDataTVectorIiEENS0_20OctreeContainerEmptyIiEEE20prioBranchQueueEntryltES8_@Base 1.6
 (optional=templinst)_ZNK3pcl6octree22OctreePointCloudSearchINS_9PointXYZIENS0_26OctreeContainerDataTVectorIiEENS0_20OctreeContainerEmptyIiEEE22getNextIntersectedNodeEdddiii@Base 1.6
 (optional=templinst)_ZNK3pcl6octree22OctreePointCloudSearchINS_9PointXYZIENS0_26OctreeContainerDataTVectorIiEENS0_20OctreeContainerEmptyIiEEE23getFirstIntersectedNodeEdddddd@Base 1.6
 (optional=templinst)_ZNK3pcl6octree22OctreePointCloudSearchINS_9PointXYZIENS0_26OctreeContainerDataTVectorIiEENS0_20OctreeContainerEmptyIiEEE26getIntersectedVoxelCentersEN5Eigen6MatrixIfLi3ELi1ELi0ELi3ELi1EEESA_RSt6vectorIS2_NS8_17aligned_allocatorIS2_EEEi@Base 1.6
 (optional=templinst)_ZNK3pcl6octree22OctreePointCloudSearchINS_9PointXYZIENS0_26OctreeContainerDataTVectorIiEENS0_20OctreeContainerEmptyIiEEE26getIntersectedVoxelIndicesEN5Eigen6MatrixIfLi3ELi1ELi0ELi3ELi1EEESA_RSt6vectorIiSaIiEEi@Base 1.6
 (optional=templinst)_ZNK3pcl6octree22OctreePointCloudSearchINS_9PointXYZIENS0_26OctreeContainerDataTVectorIiEENS0_20OctreeContainerEmptyIiEEE28getKNearestNeighborRecursiveERKS2_jPKNS0_16OctreeBranchNodeIS6_EERKNS0_9OctreeKeyEjdRSt6vectorINS7_19prioPointQueueEntryESaISI_EE@Base 1.6
 (optional=templinst)_ZNK3pcl6octree22OctreePointCloudSearchINS_9PointXYZIENS0_26OctreeContainerDataTVectorIiEENS0_20OctreeContainerEmptyIiEEE33getNeighborsWithinRadiusRecursiveERKS2_dPKNS0_16OctreeBranchNodeIS6_EERKNS0_9OctreeKeyEjRSt6vectorIiSaIiEERSH_IfSaIfEEj@Base 1.6
 (optional=templinst)_ZNK3pcl6octree22OctreePointCloudSearchINS_9PointXYZIENS0_26OctreeContainerDataTVectorIiEENS0_20OctreeContainerEmptyIiEEE35getIntersectedVoxelCentersRecursiveEddddddhPKNS0_10OctreeNodeERKNS0_9OctreeKeyERSt6vectorIS2_N5Eigen17aligned_allocatorIS2_EEEi@Base 1.6
 (optional=templinst)_ZNK3pcl6octree22OctreePointCloudSearchINS_9PointXYZIENS0_26OctreeContainerDataTVectorIiEENS0_20OctreeContainerEmptyIiEEE35getIntersectedVoxelIndicesRecursiveEddddddhPKNS0_10OctreeNodeERKNS0_9OctreeKeyERSt6vectorIiSaIiEEi@Base 1.6
 (optional=templinst)_ZNK3pcl6octree22OctreePointCloudSearchINS_9PointXYZIENS0_26OctreeContainerDataTVectorIiEENS0_20OctreeContainerEmptyIiEEE9boxSearchERKN5Eigen6MatrixIfLi3ELi1ELi0ELi3ELi1EEESC_RSt6vectorIiSaIiEE@Base 1.6
 (optional=templinst)_ZNK3pcl6octree22OctreePointCloudSearchINS_9PointXYZLENS0_26OctreeContainerDataTVectorIiEENS0_20OctreeContainerEmptyIiEEE12radiusSearchERKS2_dRSt6vectorIiSaIiEERSA_IfSaIfEEj@Base 1.6
 (optional=templinst)_ZNK3pcl6octree22OctreePointCloudSearchINS_9PointXYZLENS0_26OctreeContainerDataTVectorIiEENS0_20OctreeContainerEmptyIiEEE12radiusSearchEidRSt6vectorIiSaIiEERS8_IfSaIfEEj@Base 1.6
 (optional=templinst)_ZNK3pcl6octree22OctreePointCloudSearchINS_9PointXYZLENS0_26OctreeContainerDataTVectorIiEENS0_20OctreeContainerEmptyIiEEE16pointSquaredDistERKS2_S9_@Base 1.6
 (optional=templinst)_ZNK3pcl6octree22OctreePointCloudSearchINS_9PointXYZLENS0_26OctreeContainerDataTVectorIiEENS0_20OctreeContainerEmptyIiEEE18boxSearchRecursiveERKN5Eigen6MatrixIfLi3ELi1ELi0ELi3ELi1EEESC_PKNS0_16OctreeBranchNodeIS6_EERKNS0_9OctreeKeyEjRSt6vectorIiSaIiEE@Base 1.6
 (optional=templinst)_ZNK3pcl6octree22OctreePointCloudSearchINS_9PointXYZLENS0_26OctreeContainerDataTVectorIiEENS0_20OctreeContainerEmptyIiEEE19prioPointQueueEntryltERKS8_@Base 1.6
 (optional=templinst)_ZNK3pcl6octree22OctreePointCloudSearchINS_9PointXYZLENS0_26OctreeContainerDataTVectorIiEENS0_20OctreeContainerEmptyIiEEE20initIntersectedVoxelERN5Eigen6MatrixIfLi3ELi1ELi0ELi3ELi1EEESB_RdSC_SC_SC_SC_SC_Rh@Base 1.6
 (optional=templinst)_ZNK3pcl6octree22OctreePointCloudSearchINS_9PointXYZLENS0_26OctreeContainerDataTVectorIiEENS0_20OctreeContainerEmptyIiEEE20prioBranchQueueEntryltES8_@Base 1.6
 (optional=templinst)_ZNK3pcl6octree22OctreePointCloudSearchINS_9PointXYZLENS0_26OctreeContainerDataTVectorIiEENS0_20OctreeContainerEmptyIiEEE22getNextIntersectedNodeEdddiii@Base 1.6
 (optional=templinst)_ZNK3pcl6octree22OctreePointCloudSearchINS_9PointXYZLENS0_26OctreeContainerDataTVectorIiEENS0_20OctreeContainerEmptyIiEEE23getFirstIntersectedNodeEdddddd@Base 1.6
 (optional=templinst)_ZNK3pcl6octree22OctreePointCloudSearchINS_9PointXYZLENS0_26OctreeContainerDataTVectorIiEENS0_20OctreeContainerEmptyIiEEE26getIntersectedVoxelCentersEN5Eigen6MatrixIfLi3ELi1ELi0ELi3ELi1EEESA_RSt6vectorIS2_NS8_17aligned_allocatorIS2_EEEi@Base 1.6
 (optional=templinst)_ZNK3pcl6octree22OctreePointCloudSearchINS_9PointXYZLENS0_26OctreeContainerDataTVectorIiEENS0_20OctreeContainerEmptyIiEEE26getIntersectedVoxelIndicesEN5Eigen6MatrixIfLi3ELi1ELi0ELi3ELi1EEESA_RSt6vectorIiSaIiEEi@Base 1.6
 (optional=templinst)_ZNK3pcl6octree22OctreePointCloudSearchINS_9PointXYZLENS0_26OctreeContainerDataTVectorIiEENS0_20OctreeContainerEmptyIiEEE28getKNearestNeighborRecursiveERKS2_jPKNS0_16OctreeBranchNodeIS6_EERKNS0_9OctreeKeyEjdRSt6vectorINS7_19prioPointQueueEntryESaISI_EE@Base 1.6
 (optional=templinst)_ZNK3pcl6octree22OctreePointCloudSearchINS_9PointXYZLENS0_26OctreeContainerDataTVectorIiEENS0_20OctreeContainerEmptyIiEEE33getNeighborsWithinRadiusRecursiveERKS2_dPKNS0_16OctreeBranchNodeIS6_EERKNS0_9OctreeKeyEjRSt6vectorIiSaIiEERSH_IfSaIfEEj@Base 1.6
 (optional=templinst)_ZNK3pcl6octree22OctreePointCloudSearchINS_9PointXYZLENS0_26OctreeContainerDataTVectorIiEENS0_20OctreeContainerEmptyIiEEE35getIntersectedVoxelCentersRecursiveEddddddhPKNS0_10OctreeNodeERKNS0_9OctreeKeyERSt6vectorIS2_N5Eigen17aligned_allocatorIS2_EEEi@Base 1.6
 (optional=templinst)_ZNK3pcl6octree22OctreePointCloudSearchINS_9PointXYZLENS0_26OctreeContainerDataTVectorIiEENS0_20OctreeContainerEmptyIiEEE35getIntersectedVoxelIndicesRecursiveEddddddhPKNS0_10OctreeNodeERKNS0_9OctreeKeyERSt6vectorIiSaIiEEi@Base 1.6
 (optional=templinst)_ZNK3pcl6octree22OctreePointCloudSearchINS_9PointXYZLENS0_26OctreeContainerDataTVectorIiEENS0_20OctreeContainerEmptyIiEEE9boxSearchERKN5Eigen6MatrixIfLi3ELi1ELi0ELi3ELi1EEESC_RSt6vectorIiSaIiEE@Base 1.6
 (optional=templinst)_ZNK3pcl6octree26OctreeContainerDataTVectorIiE8deepCopyEv@Base 1.6
 (optional=templinst)_ZNSt12_Vector_baseIiSaIiEED1Ev@Base 1.6
 (optional=templinst)_ZNSt12_Vector_baseIiSaIiEED2Ev@Base 1.6
 (optional=templinst)_ZNSt6vectorIN3pcl11PointNormalEN5Eigen29aligned_allocator_indirectionIS1_EEE13_M_insert_auxEN9__gnu_cxx17__normal_iteratorIPS1_S5_EERKS1_@Base 1.6
 (optional=templinst)_ZNSt6vectorIN3pcl11PointXYZHSVEN5Eigen29aligned_allocator_indirectionIS1_EEE13_M_insert_auxEN9__gnu_cxx17__normal_iteratorIPS1_S5_EERKS1_@Base 1.6
 (optional=templinst)_ZNSt6vectorIN3pcl11PointXYZRGBEN5Eigen29aligned_allocator_indirectionIS1_EEE13_M_insert_auxEN9__gnu_cxx17__normal_iteratorIPS1_S5_EERKS1_@Base 1.6
 (optional=templinst)_ZNSt6vectorIN3pcl12PointXYZRGBAEN5Eigen29aligned_allocator_indirectionIS1_EEE13_M_insert_auxEN9__gnu_cxx17__normal_iteratorIPS1_S5_EERKS1_@Base 1.6
 (optional=templinst)_ZNSt6vectorIN3pcl12PointXYZRGBLEN5Eigen29aligned_allocator_indirectionIS1_EEE13_M_insert_auxEN9__gnu_cxx17__normal_iteratorIPS1_S5_EERKS1_@Base 1.6
 (optional=templinst)_ZNSt6vectorIN3pcl13InterestPointEN5Eigen29aligned_allocator_indirectionIS1_EEE13_M_insert_auxEN9__gnu_cxx17__normal_iteratorIPS1_S5_EERKS1_@Base 1.6
 (optional=templinst)_ZNSt6vectorIN3pcl14PointWithRangeEN5Eigen29aligned_allocator_indirectionIS1_EEE13_M_insert_auxEN9__gnu_cxx17__normal_iteratorIPS1_S5_EERKS1_@Base 1.6
 (optional=templinst)_ZNSt6vectorIN3pcl14PointWithScaleEN5Eigen29aligned_allocator_indirectionIS1_EEE13_M_insert_auxEN9__gnu_cxx17__normal_iteratorIPS1_S5_EERKS1_@Base 1.6
 (optional=templinst)_ZNSt6vectorIN3pcl15PointXYZINormalEN5Eigen29aligned_allocator_indirectionIS1_EEE13_M_insert_auxEN9__gnu_cxx17__normal_iteratorIPS1_S5_EERKS1_@Base 1.6
 (optional=templinst)_ZNSt6vectorIN3pcl17PointXYZRGBNormalEN5Eigen29aligned_allocator_indirectionIS1_EEE13_M_insert_auxEN9__gnu_cxx17__normal_iteratorIPS1_S5_EERKS1_@Base 1.6
 (optional=templinst)_ZNSt6vectorIN3pcl18PointWithViewpointEN5Eigen29aligned_allocator_indirectionIS1_EEE13_M_insert_auxEN9__gnu_cxx17__normal_iteratorIPS1_S5_EERKS1_@Base 1.6
 (optional=templinst)_ZNSt6vectorIN3pcl6octree22OctreePointCloudSearchINS0_11PointNormalENS1_26OctreeContainerDataTVectorIiEENS1_20OctreeContainerEmptyIiEEE19prioPointQueueEntryESaIS9_EE13_M_insert_auxEN9__gnu_cxx17__normal_iteratorIPS9_SB_EERKS9_@Base 1.6
 (optional=templinst)_ZNSt6vectorIN3pcl6octree22OctreePointCloudSearchINS0_11PointNormalENS1_26OctreeContainerDataTVectorIiEENS1_20OctreeContainerEmptyIiEEE19prioPointQueueEntryESaIS9_EE14_M_fill_insertEN9__gnu_cxx17__normal_iteratorIPS9_SB_EEmRKS9_@Base 1.6
 (optional=templinst)_ZNSt6vectorIN3pcl6octree22OctreePointCloudSearchINS0_11PointNormalENS1_26OctreeContainerDataTVectorIiEENS1_20OctreeContainerEmptyIiEEE20prioBranchQueueEntryESaIS9_EE14_M_fill_insertEN9__gnu_cxx17__normal_iteratorIPS9_SB_EEmRKS9_@Base 1.6
 (optional=templinst)_ZNSt6vectorIN3pcl6octree22OctreePointCloudSearchINS0_11PointXYZHSVENS1_26OctreeContainerDataTVectorIiEENS1_20OctreeContainerEmptyIiEEE19prioPointQueueEntryESaIS9_EE13_M_insert_auxEN9__gnu_cxx17__normal_iteratorIPS9_SB_EERKS9_@Base 1.6
 (optional=templinst)_ZNSt6vectorIN3pcl6octree22OctreePointCloudSearchINS0_11PointXYZHSVENS1_26OctreeContainerDataTVectorIiEENS1_20OctreeContainerEmptyIiEEE19prioPointQueueEntryESaIS9_EE14_M_fill_insertEN9__gnu_cxx17__normal_iteratorIPS9_SB_EEmRKS9_@Base 1.6
 (optional=templinst)_ZNSt6vectorIN3pcl6octree22OctreePointCloudSearchINS0_11PointXYZHSVENS1_26OctreeContainerDataTVectorIiEENS1_20OctreeContainerEmptyIiEEE20prioBranchQueueEntryESaIS9_EE14_M_fill_insertEN9__gnu_cxx17__normal_iteratorIPS9_SB_EEmRKS9_@Base 1.6
 (optional=templinst)_ZNSt6vectorIN3pcl6octree22OctreePointCloudSearchINS0_11PointXYZRGBENS1_26OctreeContainerDataTVectorIiEENS1_20OctreeContainerEmptyIiEEE19prioPointQueueEntryESaIS9_EE13_M_insert_auxEN9__gnu_cxx17__normal_iteratorIPS9_SB_EERKS9_@Base 1.6
 (optional=templinst)_ZNSt6vectorIN3pcl6octree22OctreePointCloudSearchINS0_11PointXYZRGBENS1_26OctreeContainerDataTVectorIiEENS1_20OctreeContainerEmptyIiEEE19prioPointQueueEntryESaIS9_EE14_M_fill_insertEN9__gnu_cxx17__normal_iteratorIPS9_SB_EEmRKS9_@Base 1.6
 (optional=templinst)_ZNSt6vectorIN3pcl6octree22OctreePointCloudSearchINS0_11PointXYZRGBENS1_26OctreeContainerDataTVectorIiEENS1_20OctreeContainerEmptyIiEEE20prioBranchQueueEntryESaIS9_EE14_M_fill_insertEN9__gnu_cxx17__normal_iteratorIPS9_SB_EEmRKS9_@Base 1.6
 (optional=templinst)_ZNSt6vectorIN3pcl6octree22OctreePointCloudSearchINS0_12PointXYZRGBAENS1_26OctreeContainerDataTVectorIiEENS1_20OctreeContainerEmptyIiEEE19prioPointQueueEntryESaIS9_EE13_M_insert_auxEN9__gnu_cxx17__normal_iteratorIPS9_SB_EERKS9_@Base 1.6
 (optional=templinst)_ZNSt6vectorIN3pcl6octree22OctreePointCloudSearchINS0_12PointXYZRGBAENS1_26OctreeContainerDataTVectorIiEENS1_20OctreeContainerEmptyIiEEE19prioPointQueueEntryESaIS9_EE14_M_fill_insertEN9__gnu_cxx17__normal_iteratorIPS9_SB_EEmRKS9_@Base 1.6
 (optional=templinst)_ZNSt6vectorIN3pcl6octree22OctreePointCloudSearchINS0_12PointXYZRGBAENS1_26OctreeContainerDataTVectorIiEENS1_20OctreeContainerEmptyIiEEE20prioBranchQueueEntryESaIS9_EE14_M_fill_insertEN9__gnu_cxx17__normal_iteratorIPS9_SB_EEmRKS9_@Base 1.6
 (optional=templinst)_ZNSt6vectorIN3pcl6octree22OctreePointCloudSearchINS0_12PointXYZRGBLENS1_26OctreeContainerDataTVectorIiEENS1_20OctreeContainerEmptyIiEEE19prioPointQueueEntryESaIS9_EE13_M_insert_auxEN9__gnu_cxx17__normal_iteratorIPS9_SB_EERKS9_@Base 1.6
 (optional=templinst)_ZNSt6vectorIN3pcl6octree22OctreePointCloudSearchINS0_12PointXYZRGBLENS1_26OctreeContainerDataTVectorIiEENS1_20OctreeContainerEmptyIiEEE19prioPointQueueEntryESaIS9_EE14_M_fill_insertEN9__gnu_cxx17__normal_iteratorIPS9_SB_EEmRKS9_@Base 1.6
 (optional=templinst)_ZNSt6vectorIN3pcl6octree22OctreePointCloudSearchINS0_12PointXYZRGBLENS1_26OctreeContainerDataTVectorIiEENS1_20OctreeContainerEmptyIiEEE20prioBranchQueueEntryESaIS9_EE14_M_fill_insertEN9__gnu_cxx17__normal_iteratorIPS9_SB_EEmRKS9_@Base 1.6
 (optional=templinst)_ZNSt6vectorIN3pcl6octree22OctreePointCloudSearchINS0_13InterestPointENS1_26OctreeContainerDataTVectorIiEENS1_20OctreeContainerEmptyIiEEE19prioPointQueueEntryESaIS9_EE13_M_insert_auxEN9__gnu_cxx17__normal_iteratorIPS9_SB_EERKS9_@Base 1.6
 (optional=templinst)_ZNSt6vectorIN3pcl6octree22OctreePointCloudSearchINS0_13InterestPointENS1_26OctreeContainerDataTVectorIiEENS1_20OctreeContainerEmptyIiEEE19prioPointQueueEntryESaIS9_EE14_M_fill_insertEN9__gnu_cxx17__normal_iteratorIPS9_SB_EEmRKS9_@Base 1.6
 (optional=templinst)_ZNSt6vectorIN3pcl6octree22OctreePointCloudSearchINS0_13InterestPointENS1_26OctreeContainerDataTVectorIiEENS1_20OctreeContainerEmptyIiEEE20prioBranchQueueEntryESaIS9_EE14_M_fill_insertEN9__gnu_cxx17__normal_iteratorIPS9_SB_EEmRKS9_@Base 1.6
 (optional=templinst)_ZNSt6vectorIN3pcl6octree22OctreePointCloudSearchINS0_14PointWithRangeENS1_26OctreeContainerDataTVectorIiEENS1_20OctreeContainerEmptyIiEEE19prioPointQueueEntryESaIS9_EE13_M_insert_auxEN9__gnu_cxx17__normal_iteratorIPS9_SB_EERKS9_@Base 1.6
 (optional=templinst)_ZNSt6vectorIN3pcl6octree22OctreePointCloudSearchINS0_14PointWithRangeENS1_26OctreeContainerDataTVectorIiEENS1_20OctreeContainerEmptyIiEEE19prioPointQueueEntryESaIS9_EE14_M_fill_insertEN9__gnu_cxx17__normal_iteratorIPS9_SB_EEmRKS9_@Base 1.6
 (optional=templinst)_ZNSt6vectorIN3pcl6octree22OctreePointCloudSearchINS0_14PointWithRangeENS1_26OctreeContainerDataTVectorIiEENS1_20OctreeContainerEmptyIiEEE20prioBranchQueueEntryESaIS9_EE14_M_fill_insertEN9__gnu_cxx17__normal_iteratorIPS9_SB_EEmRKS9_@Base 1.6
 (optional=templinst)_ZNSt6vectorIN3pcl6octree22OctreePointCloudSearchINS0_14PointWithScaleENS1_26OctreeContainerDataTVectorIiEENS1_20OctreeContainerEmptyIiEEE19prioPointQueueEntryESaIS9_EE13_M_insert_auxEN9__gnu_cxx17__normal_iteratorIPS9_SB_EERKS9_@Base 1.6
 (optional=templinst)_ZNSt6vectorIN3pcl6octree22OctreePointCloudSearchINS0_14PointWithScaleENS1_26OctreeContainerDataTVectorIiEENS1_20OctreeContainerEmptyIiEEE19prioPointQueueEntryESaIS9_EE14_M_fill_insertEN9__gnu_cxx17__normal_iteratorIPS9_SB_EEmRKS9_@Base 1.6
 (optional=templinst)_ZNSt6vectorIN3pcl6octree22OctreePointCloudSearchINS0_14PointWithScaleENS1_26OctreeContainerDataTVectorIiEENS1_20OctreeContainerEmptyIiEEE20prioBranchQueueEntryESaIS9_EE14_M_fill_insertEN9__gnu_cxx17__normal_iteratorIPS9_SB_EEmRKS9_@Base 1.6
 (optional=templinst)_ZNSt6vectorIN3pcl6octree22OctreePointCloudSearchINS0_15PointXYZINormalENS1_26OctreeContainerDataTVectorIiEENS1_20OctreeContainerEmptyIiEEE19prioPointQueueEntryESaIS9_EE13_M_insert_auxEN9__gnu_cxx17__normal_iteratorIPS9_SB_EERKS9_@Base 1.6
 (optional=templinst)_ZNSt6vectorIN3pcl6octree22OctreePointCloudSearchINS0_15PointXYZINormalENS1_26OctreeContainerDataTVectorIiEENS1_20OctreeContainerEmptyIiEEE19prioPointQueueEntryESaIS9_EE14_M_fill_insertEN9__gnu_cxx17__normal_iteratorIPS9_SB_EEmRKS9_@Base 1.6
 (optional=templinst)_ZNSt6vectorIN3pcl6octree22OctreePointCloudSearchINS0_15PointXYZINormalENS1_26OctreeContainerDataTVectorIiEENS1_20OctreeContainerEmptyIiEEE20prioBranchQueueEntryESaIS9_EE14_M_fill_insertEN9__gnu_cxx17__normal_iteratorIPS9_SB_EEmRKS9_@Base 1.6
 (optional=templinst)_ZNSt6vectorIN3pcl6octree22OctreePointCloudSearchINS0_17PointXYZRGBNormalENS1_26OctreeContainerDataTVectorIiEENS1_20OctreeContainerEmptyIiEEE19prioPointQueueEntryESaIS9_EE13_M_insert_auxEN9__gnu_cxx17__normal_iteratorIPS9_SB_EERKS9_@Base 1.6
 (optional=templinst)_ZNSt6vectorIN3pcl6octree22OctreePointCloudSearchINS0_17PointXYZRGBNormalENS1_26OctreeContainerDataTVectorIiEENS1_20OctreeContainerEmptyIiEEE19prioPointQueueEntryESaIS9_EE14_M_fill_insertEN9__gnu_cxx17__normal_iteratorIPS9_SB_EEmRKS9_@Base 1.6
 (optional=templinst)_ZNSt6vectorIN3pcl6octree22OctreePointCloudSearchINS0_17PointXYZRGBNormalENS1_26OctreeContainerDataTVectorIiEENS1_20OctreeContainerEmptyIiEEE20prioBranchQueueEntryESaIS9_EE14_M_fill_insertEN9__gnu_cxx17__normal_iteratorIPS9_SB_EEmRKS9_@Base 1.6
 (optional=templinst)_ZNSt6vectorIN3pcl6octree22OctreePointCloudSearchINS0_18PointWithViewpointENS1_26OctreeContainerDataTVectorIiEENS1_20OctreeContainerEmptyIiEEE19prioPointQueueEntryESaIS9_EE13_M_insert_auxEN9__gnu_cxx17__normal_iteratorIPS9_SB_EERKS9_@Base 1.6
 (optional=templinst)_ZNSt6vectorIN3pcl6octree22OctreePointCloudSearchINS0_18PointWithViewpointENS1_26OctreeContainerDataTVectorIiEENS1_20OctreeContainerEmptyIiEEE19prioPointQueueEntryESaIS9_EE14_M_fill_insertEN9__gnu_cxx17__normal_iteratorIPS9_SB_EEmRKS9_@Base 1.6
 (optional=templinst)_ZNSt6vectorIN3pcl6octree22OctreePointCloudSearchINS0_18PointWithViewpointENS1_26OctreeContainerDataTVectorIiEENS1_20OctreeContainerEmptyIiEEE20prioBranchQueueEntryESaIS9_EE14_M_fill_insertEN9__gnu_cxx17__normal_iteratorIPS9_SB_EEmRKS9_@Base 1.6
 (optional=templinst)_ZNSt6vectorIN3pcl6octree22OctreePointCloudSearchINS0_8PointXYZENS1_26OctreeContainerDataTVectorIiEENS1_20OctreeContainerEmptyIiEEE19prioPointQueueEntryESaIS9_EE13_M_insert_auxEN9__gnu_cxx17__normal_iteratorIPS9_SB_EERKS9_@Base 1.6
 (optional=templinst)_ZNSt6vectorIN3pcl6octree22OctreePointCloudSearchINS0_8PointXYZENS1_26OctreeContainerDataTVectorIiEENS1_20OctreeContainerEmptyIiEEE19prioPointQueueEntryESaIS9_EE14_M_fill_insertEN9__gnu_cxx17__normal_iteratorIPS9_SB_EEmRKS9_@Base 1.6
 (optional=templinst)_ZNSt6vectorIN3pcl6octree22OctreePointCloudSearchINS0_8PointXYZENS1_26OctreeContainerDataTVectorIiEENS1_20OctreeContainerEmptyIiEEE20prioBranchQueueEntryESaIS9_EE14_M_fill_insertEN9__gnu_cxx17__normal_iteratorIPS9_SB_EEmRKS9_@Base 1.6
 (optional=templinst)_ZNSt6vectorIN3pcl6octree22OctreePointCloudSearchINS0_9PointXYZIENS1_26OctreeContainerDataTVectorIiEENS1_20OctreeContainerEmptyIiEEE19prioPointQueueEntryESaIS9_EE13_M_insert_auxEN9__gnu_cxx17__normal_iteratorIPS9_SB_EERKS9_@Base 1.6
 (optional=templinst)_ZNSt6vectorIN3pcl6octree22OctreePointCloudSearchINS0_9PointXYZIENS1_26OctreeContainerDataTVectorIiEENS1_20OctreeContainerEmptyIiEEE19prioPointQueueEntryESaIS9_EE14_M_fill_insertEN9__gnu_cxx17__normal_iteratorIPS9_SB_EEmRKS9_@Base 1.6
 (optional=templinst)_ZNSt6vectorIN3pcl6octree22OctreePointCloudSearchINS0_9PointXYZIENS1_26OctreeContainerDataTVectorIiEENS1_20OctreeContainerEmptyIiEEE20prioBranchQueueEntryESaIS9_EE14_M_fill_insertEN9__gnu_cxx17__normal_iteratorIPS9_SB_EEmRKS9_@Base 1.6
 (optional=templinst)_ZNSt6vectorIN3pcl6octree22OctreePointCloudSearchINS0_9PointXYZLENS1_26OctreeContainerDataTVectorIiEENS1_20OctreeContainerEmptyIiEEE19prioPointQueueEntryESaIS9_EE13_M_insert_auxEN9__gnu_cxx17__normal_iteratorIPS9_SB_EERKS9_@Base 1.6
 (optional=templinst)_ZNSt6vectorIN3pcl6octree22OctreePointCloudSearchINS0_9PointXYZLENS1_26OctreeContainerDataTVectorIiEENS1_20OctreeContainerEmptyIiEEE19prioPointQueueEntryESaIS9_EE14_M_fill_insertEN9__gnu_cxx17__normal_iteratorIPS9_SB_EEmRKS9_@Base 1.6
 (optional=templinst)_ZNSt6vectorIN3pcl6octree22OctreePointCloudSearchINS0_9PointXYZLENS1_26OctreeContainerDataTVectorIiEENS1_20OctreeContainerEmptyIiEEE20prioBranchQueueEntryESaIS9_EE14_M_fill_insertEN9__gnu_cxx17__normal_iteratorIPS9_SB_EEmRKS9_@Base 1.6
 (optional=templinst)_ZNSt6vectorIN3pcl8PointXYZEN5Eigen29aligned_allocator_indirectionIS1_EEE13_M_insert_auxEN9__gnu_cxx17__normal_iteratorIPS1_S5_EERKS1_@Base 1.6
 (optional=templinst)_ZNSt6vectorIN3pcl9PointXYZIEN5Eigen29aligned_allocator_indirectionIS1_EEE13_M_insert_auxEN9__gnu_cxx17__normal_iteratorIPS1_S5_EERKS1_@Base 1.6
 (optional=templinst)_ZNSt6vectorIN3pcl9PointXYZLEN5Eigen29aligned_allocator_indirectionIS1_EEE13_M_insert_auxEN9__gnu_cxx17__normal_iteratorIPS1_S5_EERKS1_@Base 1.6
 (optional=templinst)_ZNSt6vectorIPN3pcl6octree14OctreeLeafNodeINS1_20OctreeContainerDataTIiEEEESaIS6_EE13_M_insert_auxEN9__gnu_cxx17__normal_iteratorIPS6_S8_EERKS6_@Base 1.6
 (optional=templinst)_ZNSt6vectorIPN3pcl6octree14OctreeLeafNodeINS1_20OctreeContainerDataTIiEEEESaIS6_EED1Ev@Base 1.6
 (optional=templinst)_ZNSt6vectorIPN3pcl6octree14OctreeLeafNodeINS1_20OctreeContainerDataTIiEEEESaIS6_EED2Ev@Base 1.6
 (optional=templinst)_ZNSt6vectorIPN3pcl6octree14OctreeLeafNodeINS1_26OctreeContainerDataTVectorIiEEEESaIS6_EE13_M_insert_auxEN9__gnu_cxx17__normal_iteratorIPS6_S8_EERKS6_@Base 1.6
 (optional=templinst)_ZNSt6vectorIPN3pcl6octree14OctreeLeafNodeINS1_26OctreeContainerDataTVectorIiEEEESaIS6_EED1Ev@Base 1.6
 (optional=templinst)_ZNSt6vectorIPN3pcl6octree14OctreeLeafNodeINS1_26OctreeContainerDataTVectorIiEEEESaIS6_EED2Ev@Base 1.6
 (optional=templinst)_ZNSt6vectorIPN3pcl6octree16OctreeBranchNodeINS1_20OctreeContainerEmptyIiEEEESaIS6_EE13_M_insert_auxEN9__gnu_cxx17__normal_iteratorIPS6_S8_EERKS6_@Base 1.6
 (optional=templinst)_ZNSt6vectorIPN3pcl6octree16OctreeBranchNodeINS1_20OctreeContainerEmptyIiEEEESaIS6_EED1Ev@Base 1.6
 (optional=templinst)_ZNSt6vectorIPN3pcl6octree16OctreeBranchNodeINS1_20OctreeContainerEmptyIiEEEESaIS6_EED2Ev@Base 1.6
 (optional=templinst)_ZNSt6vectorIPN3pcl6octree18BufferedBranchNodeINS1_20OctreeContainerEmptyIiEEEESaIS6_EE13_M_insert_auxEN9__gnu_cxx17__normal_iteratorIPS6_S8_EERKS6_@Base 1.6
 (optional=templinst)_ZNSt6vectorIPN3pcl6octree18BufferedBranchNodeINS1_20OctreeContainerEmptyIiEEEESaIS6_EED1Ev@Base 1.6
 (optional=templinst)_ZNSt6vectorIPN3pcl6octree18BufferedBranchNodeINS1_20OctreeContainerEmptyIiEEEESaIS6_EED2Ev@Base 1.6
 (optional=templinst)_ZNSt6vectorIcSaIcEE13_M_insert_auxEN9__gnu_cxx17__normal_iteratorIPcS1_EERKc@Base 1.6
 (optional=templinst)_ZNSt6vectorIcSaIcEE7reserveEm@Base 1.6
 (optional=templinst)_ZNSt6vectorIfSaIfEE13_M_insert_auxEN9__gnu_cxx17__normal_iteratorIPfS1_EERKf@Base 1.6
 (optional=templinst)_ZNSt6vectorIfSaIfEE14_M_fill_insertEN9__gnu_cxx17__normal_iteratorIPfS1_EEmRKf@Base 1.6
 (optional=templinst)_ZNSt6vectorIiSaIiEE13_M_insert_auxEN9__gnu_cxx17__normal_iteratorIPiS1_EERKi@Base 1.6
 (optional=templinst)_ZNSt6vectorIiSaIiEE14_M_fill_insertEN9__gnu_cxx17__normal_iteratorIPiS1_EEmRKi@Base 1.6
 (optional=templinst)_ZNSt6vectorIiSaIiEE15_M_range_insertIN9__gnu_cxx17__normal_iteratorIPKiS1_EEEEvNS4_IPiS1_EET_SA_St20forward_iterator_tag@Base 1.6
 (optional=templinst)_ZNSt6vectorIiSaIiEE7reserveEm@Base 1.6
 (optional=templinst)_ZNSt6vectorIiSaIiEED1Ev@Base 1.6
 (optional=templinst)_ZNSt6vectorIiSaIiEED2Ev@Base 1.6
 (optional=templinst)_ZSt13__adjust_heapIN9__gnu_cxx17__normal_iteratorIPN3pcl6octree22OctreePointCloudSearchINS2_11PointNormalENS3_26OctreeContainerDataTVectorIiEENS3_20OctreeContainerEmptyIiEEE19prioPointQueueEntryESt6vectorISB_SaISB_EEEElSB_EvT_T0_SI_T1_@Base 1.6
 (optional=templinst)_ZSt13__adjust_heapIN9__gnu_cxx17__normal_iteratorIPN3pcl6octree22OctreePointCloudSearchINS2_11PointNormalENS3_26OctreeContainerDataTVectorIiEENS3_20OctreeContainerEmptyIiEEE20prioBranchQueueEntryESt6vectorISB_SaISB_EEEElSB_EvT_T0_SI_T1_@Base 1.6
 (optional=templinst)_ZSt13__adjust_heapIN9__gnu_cxx17__normal_iteratorIPN3pcl6octree22OctreePointCloudSearchINS2_11PointXYZHSVENS3_26OctreeContainerDataTVectorIiEENS3_20OctreeContainerEmptyIiEEE19prioPointQueueEntryESt6vectorISB_SaISB_EEEElSB_EvT_T0_SI_T1_@Base 1.6
 (optional=templinst)_ZSt13__adjust_heapIN9__gnu_cxx17__normal_iteratorIPN3pcl6octree22OctreePointCloudSearchINS2_11PointXYZHSVENS3_26OctreeContainerDataTVectorIiEENS3_20OctreeContainerEmptyIiEEE20prioBranchQueueEntryESt6vectorISB_SaISB_EEEElSB_EvT_T0_SI_T1_@Base 1.6
 (optional=templinst)_ZSt13__adjust_heapIN9__gnu_cxx17__normal_iteratorIPN3pcl6octree22OctreePointCloudSearchINS2_11PointXYZRGBENS3_26OctreeContainerDataTVectorIiEENS3_20OctreeContainerEmptyIiEEE19prioPointQueueEntryESt6vectorISB_SaISB_EEEElSB_EvT_T0_SI_T1_@Base 1.6
 (optional=templinst)_ZSt13__adjust_heapIN9__gnu_cxx17__normal_iteratorIPN3pcl6octree22OctreePointCloudSearchINS2_11PointXYZRGBENS3_26OctreeContainerDataTVectorIiEENS3_20OctreeContainerEmptyIiEEE20prioBranchQueueEntryESt6vectorISB_SaISB_EEEElSB_EvT_T0_SI_T1_@Base 1.6
 (optional=templinst)_ZSt13__adjust_heapIN9__gnu_cxx17__normal_iteratorIPN3pcl6octree22OctreePointCloudSearchINS2_12PointXYZRGBAENS3_26OctreeContainerDataTVectorIiEENS3_20OctreeContainerEmptyIiEEE19prioPointQueueEntryESt6vectorISB_SaISB_EEEElSB_EvT_T0_SI_T1_@Base 1.6
 (optional=templinst)_ZSt13__adjust_heapIN9__gnu_cxx17__normal_iteratorIPN3pcl6octree22OctreePointCloudSearchINS2_12PointXYZRGBAENS3_26OctreeContainerDataTVectorIiEENS3_20OctreeContainerEmptyIiEEE20prioBranchQueueEntryESt6vectorISB_SaISB_EEEElSB_EvT_T0_SI_T1_@Base 1.6
 (optional=templinst)_ZSt13__adjust_heapIN9__gnu_cxx17__normal_iteratorIPN3pcl6octree22OctreePointCloudSearchINS2_12PointXYZRGBLENS3_26OctreeContainerDataTVectorIiEENS3_20OctreeContainerEmptyIiEEE19prioPointQueueEntryESt6vectorISB_SaISB_EEEElSB_EvT_T0_SI_T1_@Base 1.6
 (optional=templinst)_ZSt13__adjust_heapIN9__gnu_cxx17__normal_iteratorIPN3pcl6octree22OctreePointCloudSearchINS2_12PointXYZRGBLENS3_26OctreeContainerDataTVectorIiEENS3_20OctreeContainerEmptyIiEEE20prioBranchQueueEntryESt6vectorISB_SaISB_EEEElSB_EvT_T0_SI_T1_@Base 1.6
 (optional=templinst)_ZSt13__adjust_heapIN9__gnu_cxx17__normal_iteratorIPN3pcl6octree22OctreePointCloudSearchINS2_13InterestPointENS3_26OctreeContainerDataTVectorIiEENS3_20OctreeContainerEmptyIiEEE19prioPointQueueEntryESt6vectorISB_SaISB_EEEElSB_EvT_T0_SI_T1_@Base 1.6
 (optional=templinst)_ZSt13__adjust_heapIN9__gnu_cxx17__normal_iteratorIPN3pcl6octree22OctreePointCloudSearchINS2_13InterestPointENS3_26OctreeContainerDataTVectorIiEENS3_20OctreeContainerEmptyIiEEE20prioBranchQueueEntryESt6vectorISB_SaISB_EEEElSB_EvT_T0_SI_T1_@Base 1.6
 (optional=templinst)_ZSt13__adjust_heapIN9__gnu_cxx17__normal_iteratorIPN3pcl6octree22OctreePointCloudSearchINS2_14PointWithRangeENS3_26OctreeContainerDataTVectorIiEENS3_20OctreeContainerEmptyIiEEE19prioPointQueueEntryESt6vectorISB_SaISB_EEEElSB_EvT_T0_SI_T1_@Base 1.6
 (optional=templinst)_ZSt13__adjust_heapIN9__gnu_cxx17__normal_iteratorIPN3pcl6octree22OctreePointCloudSearchINS2_14PointWithRangeENS3_26OctreeContainerDataTVectorIiEENS3_20OctreeContainerEmptyIiEEE20prioBranchQueueEntryESt6vectorISB_SaISB_EEEElSB_EvT_T0_SI_T1_@Base 1.6
 (optional=templinst)_ZSt13__adjust_heapIN9__gnu_cxx17__normal_iteratorIPN3pcl6octree22OctreePointCloudSearchINS2_14PointWithScaleENS3_26OctreeContainerDataTVectorIiEENS3_20OctreeContainerEmptyIiEEE19prioPointQueueEntryESt6vectorISB_SaISB_EEEElSB_EvT_T0_SI_T1_@Base 1.6
 (optional=templinst)_ZSt13__adjust_heapIN9__gnu_cxx17__normal_iteratorIPN3pcl6octree22OctreePointCloudSearchINS2_14PointWithScaleENS3_26OctreeContainerDataTVectorIiEENS3_20OctreeContainerEmptyIiEEE20prioBranchQueueEntryESt6vectorISB_SaISB_EEEElSB_EvT_T0_SI_T1_@Base 1.6
 (optional=templinst)_ZSt13__adjust_heapIN9__gnu_cxx17__normal_iteratorIPN3pcl6octree22OctreePointCloudSearchINS2_15PointXYZINormalENS3_26OctreeContainerDataTVectorIiEENS3_20OctreeContainerEmptyIiEEE19prioPointQueueEntryESt6vectorISB_SaISB_EEEElSB_EvT_T0_SI_T1_@Base 1.6
 (optional=templinst)_ZSt13__adjust_heapIN9__gnu_cxx17__normal_iteratorIPN3pcl6octree22OctreePointCloudSearchINS2_15PointXYZINormalENS3_26OctreeContainerDataTVectorIiEENS3_20OctreeContainerEmptyIiEEE20prioBranchQueueEntryESt6vectorISB_SaISB_EEEElSB_EvT_T0_SI_T1_@Base 1.6
 (optional=templinst)_ZSt13__adjust_heapIN9__gnu_cxx17__normal_iteratorIPN3pcl6octree22OctreePointCloudSearchINS2_17PointXYZRGBNormalENS3_26OctreeContainerDataTVectorIiEENS3_20OctreeContainerEmptyIiEEE19prioPointQueueEntryESt6vectorISB_SaISB_EEEElSB_EvT_T0_SI_T1_@Base 1.6
 (optional=templinst)_ZSt13__adjust_heapIN9__gnu_cxx17__normal_iteratorIPN3pcl6octree22OctreePointCloudSearchINS2_17PointXYZRGBNormalENS3_26OctreeContainerDataTVectorIiEENS3_20OctreeContainerEmptyIiEEE20prioBranchQueueEntryESt6vectorISB_SaISB_EEEElSB_EvT_T0_SI_T1_@Base 1.6
 (optional=templinst)_ZSt13__adjust_heapIN9__gnu_cxx17__normal_iteratorIPN3pcl6octree22OctreePointCloudSearchINS2_18PointWithViewpointENS3_26OctreeContainerDataTVectorIiEENS3_20OctreeContainerEmptyIiEEE19prioPointQueueEntryESt6vectorISB_SaISB_EEEElSB_EvT_T0_SI_T1_@Base 1.6
 (optional=templinst)_ZSt13__adjust_heapIN9__gnu_cxx17__normal_iteratorIPN3pcl6octree22OctreePointCloudSearchINS2_18PointWithViewpointENS3_26OctreeContainerDataTVectorIiEENS3_20OctreeContainerEmptyIiEEE20prioBranchQueueEntryESt6vectorISB_SaISB_EEEElSB_EvT_T0_SI_T1_@Base 1.6
 (optional=templinst)_ZSt13__adjust_heapIN9__gnu_cxx17__normal_iteratorIPN3pcl6octree22OctreePointCloudSearchINS2_8PointXYZENS3_26OctreeContainerDataTVectorIiEENS3_20OctreeContainerEmptyIiEEE19prioPointQueueEntryESt6vectorISB_SaISB_EEEElSB_EvT_T0_SI_T1_@Base 1.6
 (optional=templinst)_ZSt13__adjust_heapIN9__gnu_cxx17__normal_iteratorIPN3pcl6octree22OctreePointCloudSearchINS2_8PointXYZENS3_26OctreeContainerDataTVectorIiEENS3_20OctreeContainerEmptyIiEEE20prioBranchQueueEntryESt6vectorISB_SaISB_EEEElSB_EvT_T0_SI_T1_@Base 1.6
 (optional=templinst)_ZSt13__adjust_heapIN9__gnu_cxx17__normal_iteratorIPN3pcl6octree22OctreePointCloudSearchINS2_9PointXYZIENS3_26OctreeContainerDataTVectorIiEENS3_20OctreeContainerEmptyIiEEE19prioPointQueueEntryESt6vectorISB_SaISB_EEEElSB_EvT_T0_SI_T1_@Base 1.6
 (optional=templinst)_ZSt13__adjust_heapIN9__gnu_cxx17__normal_iteratorIPN3pcl6octree22OctreePointCloudSearchINS2_9PointXYZIENS3_26OctreeContainerDataTVectorIiEENS3_20OctreeContainerEmptyIiEEE20prioBranchQueueEntryESt6vectorISB_SaISB_EEEElSB_EvT_T0_SI_T1_@Base 1.6
 (optional=templinst)_ZSt13__adjust_heapIN9__gnu_cxx17__normal_iteratorIPN3pcl6octree22OctreePointCloudSearchINS2_9PointXYZLENS3_26OctreeContainerDataTVectorIiEENS3_20OctreeContainerEmptyIiEEE19prioPointQueueEntryESt6vectorISB_SaISB_EEEElSB_EvT_T0_SI_T1_@Base 1.6
 (optional=templinst)_ZSt13__adjust_heapIN9__gnu_cxx17__normal_iteratorIPN3pcl6octree22OctreePointCloudSearchINS2_9PointXYZLENS3_26OctreeContainerDataTVectorIiEENS3_20OctreeContainerEmptyIiEEE20prioBranchQueueEntryESt6vectorISB_SaISB_EEEElSB_EvT_T0_SI_T1_@Base 1.6
 (optional=templinst)_ZSt16__insertion_sortIN9__gnu_cxx17__normal_iteratorIPN3pcl6octree22OctreePointCloudSearchINS2_11PointNormalENS3_26OctreeContainerDataTVectorIiEENS3_20OctreeContainerEmptyIiEEE19prioPointQueueEntryESt6vectorISB_SaISB_EEEEEvT_SH_@Base 1.6
 (optional=templinst)_ZSt16__insertion_sortIN9__gnu_cxx17__normal_iteratorIPN3pcl6octree22OctreePointCloudSearchINS2_11PointNormalENS3_26OctreeContainerDataTVectorIiEENS3_20OctreeContainerEmptyIiEEE20prioBranchQueueEntryESt6vectorISB_SaISB_EEEEEvT_SH_@Base 1.6
 (optional=templinst)_ZSt16__insertion_sortIN9__gnu_cxx17__normal_iteratorIPN3pcl6octree22OctreePointCloudSearchINS2_11PointXYZHSVENS3_26OctreeContainerDataTVectorIiEENS3_20OctreeContainerEmptyIiEEE19prioPointQueueEntryESt6vectorISB_SaISB_EEEEEvT_SH_@Base 1.6
 (optional=templinst)_ZSt16__insertion_sortIN9__gnu_cxx17__normal_iteratorIPN3pcl6octree22OctreePointCloudSearchINS2_11PointXYZHSVENS3_26OctreeContainerDataTVectorIiEENS3_20OctreeContainerEmptyIiEEE20prioBranchQueueEntryESt6vectorISB_SaISB_EEEEEvT_SH_@Base 1.6
 (optional=templinst)_ZSt16__insertion_sortIN9__gnu_cxx17__normal_iteratorIPN3pcl6octree22OctreePointCloudSearchINS2_11PointXYZRGBENS3_26OctreeContainerDataTVectorIiEENS3_20OctreeContainerEmptyIiEEE19prioPointQueueEntryESt6vectorISB_SaISB_EEEEEvT_SH_@Base 1.6
 (optional=templinst)_ZSt16__insertion_sortIN9__gnu_cxx17__normal_iteratorIPN3pcl6octree22OctreePointCloudSearchINS2_11PointXYZRGBENS3_26OctreeContainerDataTVectorIiEENS3_20OctreeContainerEmptyIiEEE20prioBranchQueueEntryESt6vectorISB_SaISB_EEEEEvT_SH_@Base 1.6
 (optional=templinst)_ZSt16__insertion_sortIN9__gnu_cxx17__normal_iteratorIPN3pcl6octree22OctreePointCloudSearchINS2_12PointXYZRGBAENS3_26OctreeContainerDataTVectorIiEENS3_20OctreeContainerEmptyIiEEE19prioPointQueueEntryESt6vectorISB_SaISB_EEEEEvT_SH_@Base 1.6
 (optional=templinst)_ZSt16__insertion_sortIN9__gnu_cxx17__normal_iteratorIPN3pcl6octree22OctreePointCloudSearchINS2_12PointXYZRGBAENS3_26OctreeContainerDataTVectorIiEENS3_20OctreeContainerEmptyIiEEE20prioBranchQueueEntryESt6vectorISB_SaISB_EEEEEvT_SH_@Base 1.6
 (optional=templinst)_ZSt16__insertion_sortIN9__gnu_cxx17__normal_iteratorIPN3pcl6octree22OctreePointCloudSearchINS2_12PointXYZRGBLENS3_26OctreeContainerDataTVectorIiEENS3_20OctreeContainerEmptyIiEEE19prioPointQueueEntryESt6vectorISB_SaISB_EEEEEvT_SH_@Base 1.6
 (optional=templinst)_ZSt16__insertion_sortIN9__gnu_cxx17__normal_iteratorIPN3pcl6octree22OctreePointCloudSearchINS2_12PointXYZRGBLENS3_26OctreeContainerDataTVectorIiEENS3_20OctreeContainerEmptyIiEEE20prioBranchQueueEntryESt6vectorISB_SaISB_EEEEEvT_SH_@Base 1.6
 (optional=templinst)_ZSt16__insertion_sortIN9__gnu_cxx17__normal_iteratorIPN3pcl6octree22OctreePointCloudSearchINS2_13InterestPointENS3_26OctreeContainerDataTVectorIiEENS3_20OctreeContainerEmptyIiEEE19prioPointQueueEntryESt6vectorISB_SaISB_EEEEEvT_SH_@Base 1.6
 (optional=templinst)_ZSt16__insertion_sortIN9__gnu_cxx17__normal_iteratorIPN3pcl6octree22OctreePointCloudSearchINS2_13InterestPointENS3_26OctreeContainerDataTVectorIiEENS3_20OctreeContainerEmptyIiEEE20prioBranchQueueEntryESt6vectorISB_SaISB_EEEEEvT_SH_@Base 1.6
 (optional=templinst)_ZSt16__insertion_sortIN9__gnu_cxx17__normal_iteratorIPN3pcl6octree22OctreePointCloudSearchINS2_14PointWithRangeENS3_26OctreeContainerDataTVectorIiEENS3_20OctreeContainerEmptyIiEEE19prioPointQueueEntryESt6vectorISB_SaISB_EEEEEvT_SH_@Base 1.6
 (optional=templinst)_ZSt16__insertion_sortIN9__gnu_cxx17__normal_iteratorIPN3pcl6octree22OctreePointCloudSearchINS2_14PointWithRangeENS3_26OctreeContainerDataTVectorIiEENS3_20OctreeContainerEmptyIiEEE20prioBranchQueueEntryESt6vectorISB_SaISB_EEEEEvT_SH_@Base 1.6
 (optional=templinst)_ZSt16__insertion_sortIN9__gnu_cxx17__normal_iteratorIPN3pcl6octree22OctreePointCloudSearchINS2_14PointWithScaleENS3_26OctreeContainerDataTVectorIiEENS3_20OctreeContainerEmptyIiEEE19prioPointQueueEntryESt6vectorISB_SaISB_EEEEEvT_SH_@Base 1.6
 (optional=templinst)_ZSt16__insertion_sortIN9__gnu_cxx17__normal_iteratorIPN3pcl6octree22OctreePointCloudSearchINS2_14PointWithScaleENS3_26OctreeContainerDataTVectorIiEENS3_20OctreeContainerEmptyIiEEE20prioBranchQueueEntryESt6vectorISB_SaISB_EEEEEvT_SH_@Base 1.6
 (optional=templinst)_ZSt16__insertion_sortIN9__gnu_cxx17__normal_iteratorIPN3pcl6octree22OctreePointCloudSearchINS2_15PointXYZINormalENS3_26OctreeContainerDataTVectorIiEENS3_20OctreeContainerEmptyIiEEE19prioPointQueueEntryESt6vectorISB_SaISB_EEEEEvT_SH_@Base 1.6
 (optional=templinst)_ZSt16__insertion_sortIN9__gnu_cxx17__normal_iteratorIPN3pcl6octree22OctreePointCloudSearchINS2_15PointXYZINormalENS3_26OctreeContainerDataTVectorIiEENS3_20OctreeContainerEmptyIiEEE20prioBranchQueueEntryESt6vectorISB_SaISB_EEEEEvT_SH_@Base 1.6
 (optional=templinst)_ZSt16__insertion_sortIN9__gnu_cxx17__normal_iteratorIPN3pcl6octree22OctreePointCloudSearchINS2_17PointXYZRGBNormalENS3_26OctreeContainerDataTVectorIiEENS3_20OctreeContainerEmptyIiEEE19prioPointQueueEntryESt6vectorISB_SaISB_EEEEEvT_SH_@Base 1.6
 (optional=templinst)_ZSt16__insertion_sortIN9__gnu_cxx17__normal_iteratorIPN3pcl6octree22OctreePointCloudSearchINS2_17PointXYZRGBNormalENS3_26OctreeContainerDataTVectorIiEENS3_20OctreeContainerEmptyIiEEE20prioBranchQueueEntryESt6vectorISB_SaISB_EEEEEvT_SH_@Base 1.6
 (optional=templinst)_ZSt16__insertion_sortIN9__gnu_cxx17__normal_iteratorIPN3pcl6octree22OctreePointCloudSearchINS2_18PointWithViewpointENS3_26OctreeContainerDataTVectorIiEENS3_20OctreeContainerEmptyIiEEE19prioPointQueueEntryESt6vectorISB_SaISB_EEEEEvT_SH_@Base 1.6
 (optional=templinst)_ZSt16__insertion_sortIN9__gnu_cxx17__normal_iteratorIPN3pcl6octree22OctreePointCloudSearchINS2_18PointWithViewpointENS3_26OctreeContainerDataTVectorIiEENS3_20OctreeContainerEmptyIiEEE20prioBranchQueueEntryESt6vectorISB_SaISB_EEEEEvT_SH_@Base 1.6
 (optional=templinst)_ZSt16__insertion_sortIN9__gnu_cxx17__normal_iteratorIPN3pcl6octree22OctreePointCloudSearchINS2_8PointXYZENS3_26OctreeContainerDataTVectorIiEENS3_20OctreeContainerEmptyIiEEE19prioPointQueueEntryESt6vectorISB_SaISB_EEEEEvT_SH_@Base 1.6
 (optional=templinst)_ZSt16__insertion_sortIN9__gnu_cxx17__normal_iteratorIPN3pcl6octree22OctreePointCloudSearchINS2_8PointXYZENS3_26OctreeContainerDataTVectorIiEENS3_20OctreeContainerEmptyIiEEE20prioBranchQueueEntryESt6vectorISB_SaISB_EEEEEvT_SH_@Base 1.6
 (optional=templinst)_ZSt16__insertion_sortIN9__gnu_cxx17__normal_iteratorIPN3pcl6octree22OctreePointCloudSearchINS2_9PointXYZIENS3_26OctreeContainerDataTVectorIiEENS3_20OctreeContainerEmptyIiEEE19prioPointQueueEntryESt6vectorISB_SaISB_EEEEEvT_SH_@Base 1.6
 (optional=templinst)_ZSt16__insertion_sortIN9__gnu_cxx17__normal_iteratorIPN3pcl6octree22OctreePointCloudSearchINS2_9PointXYZIENS3_26OctreeContainerDataTVectorIiEENS3_20OctreeContainerEmptyIiEEE20prioBranchQueueEntryESt6vectorISB_SaISB_EEEEEvT_SH_@Base 1.6
 (optional=templinst)_ZSt16__insertion_sortIN9__gnu_cxx17__normal_iteratorIPN3pcl6octree22OctreePointCloudSearchINS2_9PointXYZLENS3_26OctreeContainerDataTVectorIiEENS3_20OctreeContainerEmptyIiEEE19prioPointQueueEntryESt6vectorISB_SaISB_EEEEEvT_SH_@Base 1.6
 (optional=templinst)_ZSt16__insertion_sortIN9__gnu_cxx17__normal_iteratorIPN3pcl6octree22OctreePointCloudSearchINS2_9PointXYZLENS3_26OctreeContainerDataTVectorIiEENS3_20OctreeContainerEmptyIiEEE20prioBranchQueueEntryESt6vectorISB_SaISB_EEEEEvT_SH_@Base 1.6
 (optional=templinst)_ZSt16__introsort_loopIN9__gnu_cxx17__normal_iteratorIPN3pcl6octree22OctreePointCloudSearchINS2_11PointNormalENS3_26OctreeContainerDataTVectorIiEENS3_20OctreeContainerEmptyIiEEE19prioPointQueueEntryESt6vectorISB_SaISB_EEEElEvT_SH_T0_@Base 1.6
 (optional=templinst)_ZSt16__introsort_loopIN9__gnu_cxx17__normal_iteratorIPN3pcl6octree22OctreePointCloudSearchINS2_11PointNormalENS3_26OctreeContainerDataTVectorIiEENS3_20OctreeContainerEmptyIiEEE20prioBranchQueueEntryESt6vectorISB_SaISB_EEEElEvT_SH_T0_@Base 1.6
 (optional=templinst)_ZSt16__introsort_loopIN9__gnu_cxx17__normal_iteratorIPN3pcl6octree22OctreePointCloudSearchINS2_11PointXYZHSVENS3_26OctreeContainerDataTVectorIiEENS3_20OctreeContainerEmptyIiEEE19prioPointQueueEntryESt6vectorISB_SaISB_EEEElEvT_SH_T0_@Base 1.6
 (optional=templinst)_ZSt16__introsort_loopIN9__gnu_cxx17__normal_iteratorIPN3pcl6octree22OctreePointCloudSearchINS2_11PointXYZHSVENS3_26OctreeContainerDataTVectorIiEENS3_20OctreeContainerEmptyIiEEE20prioBranchQueueEntryESt6vectorISB_SaISB_EEEElEvT_SH_T0_@Base 1.6
 (optional=templinst)_ZSt16__introsort_loopIN9__gnu_cxx17__normal_iteratorIPN3pcl6octree22OctreePointCloudSearchINS2_11PointXYZRGBENS3_26OctreeContainerDataTVectorIiEENS3_20OctreeContainerEmptyIiEEE19prioPointQueueEntryESt6vectorISB_SaISB_EEEElEvT_SH_T0_@Base 1.6
 (optional=templinst)_ZSt16__introsort_loopIN9__gnu_cxx17__normal_iteratorIPN3pcl6octree22OctreePointCloudSearchINS2_11PointXYZRGBENS3_26OctreeContainerDataTVectorIiEENS3_20OctreeContainerEmptyIiEEE20prioBranchQueueEntryESt6vectorISB_SaISB_EEEElEvT_SH_T0_@Base 1.6
 (optional=templinst)_ZSt16__introsort_loopIN9__gnu_cxx17__normal_iteratorIPN3pcl6octree22OctreePointCloudSearchINS2_12PointXYZRGBAENS3_26OctreeContainerDataTVectorIiEENS3_20OctreeContainerEmptyIiEEE19prioPointQueueEntryESt6vectorISB_SaISB_EEEElEvT_SH_T0_@Base 1.6
 (optional=templinst)_ZSt16__introsort_loopIN9__gnu_cxx17__normal_iteratorIPN3pcl6octree22OctreePointCloudSearchINS2_12PointXYZRGBAENS3_26OctreeContainerDataTVectorIiEENS3_20OctreeContainerEmptyIiEEE20prioBranchQueueEntryESt6vectorISB_SaISB_EEEElEvT_SH_T0_@Base 1.6
 (optional=templinst)_ZSt16__introsort_loopIN9__gnu_cxx17__normal_iteratorIPN3pcl6octree22OctreePointCloudSearchINS2_12PointXYZRGBLENS3_26OctreeContainerDataTVectorIiEENS3_20OctreeContainerEmptyIiEEE19prioPointQueueEntryESt6vectorISB_SaISB_EEEElEvT_SH_T0_@Base 1.6
 (optional=templinst)_ZSt16__introsort_loopIN9__gnu_cxx17__normal_iteratorIPN3pcl6octree22OctreePointCloudSearchINS2_12PointXYZRGBLENS3_26OctreeContainerDataTVectorIiEENS3_20OctreeContainerEmptyIiEEE20prioBranchQueueEntryESt6vectorISB_SaISB_EEEElEvT_SH_T0_@Base 1.6
 (optional=templinst)_ZSt16__introsort_loopIN9__gnu_cxx17__normal_iteratorIPN3pcl6octree22OctreePointCloudSearchINS2_13InterestPointENS3_26OctreeContainerDataTVectorIiEENS3_20OctreeContainerEmptyIiEEE19prioPointQueueEntryESt6vectorISB_SaISB_EEEElEvT_SH_T0_@Base 1.6
 (optional=templinst)_ZSt16__introsort_loopIN9__gnu_cxx17__normal_iteratorIPN3pcl6octree22OctreePointCloudSearchINS2_13InterestPointENS3_26OctreeContainerDataTVectorIiEENS3_20OctreeContainerEmptyIiEEE20prioBranchQueueEntryESt6vectorISB_SaISB_EEEElEvT_SH_T0_@Base 1.6
 (optional=templinst)_ZSt16__introsort_loopIN9__gnu_cxx17__normal_iteratorIPN3pcl6octree22OctreePointCloudSearchINS2_14PointWithRangeENS3_26OctreeContainerDataTVectorIiEENS3_20OctreeContainerEmptyIiEEE19prioPointQueueEntryESt6vectorISB_SaISB_EEEElEvT_SH_T0_@Base 1.6
 (optional=templinst)_ZSt16__introsort_loopIN9__gnu_cxx17__normal_iteratorIPN3pcl6octree22OctreePointCloudSearchINS2_14PointWithRangeENS3_26OctreeContainerDataTVectorIiEENS3_20OctreeContainerEmptyIiEEE20prioBranchQueueEntryESt6vectorISB_SaISB_EEEElEvT_SH_T0_@Base 1.6
 (optional=templinst)_ZSt16__introsort_loopIN9__gnu_cxx17__normal_iteratorIPN3pcl6octree22OctreePointCloudSearchINS2_14PointWithScaleENS3_26OctreeContainerDataTVectorIiEENS3_20OctreeContainerEmptyIiEEE19prioPointQueueEntryESt6vectorISB_SaISB_EEEElEvT_SH_T0_@Base 1.6
 (optional=templinst)_ZSt16__introsort_loopIN9__gnu_cxx17__normal_iteratorIPN3pcl6octree22OctreePointCloudSearchINS2_14PointWithScaleENS3_26OctreeContainerDataTVectorIiEENS3_20OctreeContainerEmptyIiEEE20prioBranchQueueEntryESt6vectorISB_SaISB_EEEElEvT_SH_T0_@Base 1.6
 (optional=templinst)_ZSt16__introsort_loopIN9__gnu_cxx17__normal_iteratorIPN3pcl6octree22OctreePointCloudSearchINS2_15PointXYZINormalENS3_26OctreeContainerDataTVectorIiEENS3_20OctreeContainerEmptyIiEEE19prioPointQueueEntryESt6vectorISB_SaISB_EEEElEvT_SH_T0_@Base 1.6
 (optional=templinst)_ZSt16__introsort_loopIN9__gnu_cxx17__normal_iteratorIPN3pcl6octree22OctreePointCloudSearchINS2_15PointXYZINormalENS3_26OctreeContainerDataTVectorIiEENS3_20OctreeContainerEmptyIiEEE20prioBranchQueueEntryESt6vectorISB_SaISB_EEEElEvT_SH_T0_@Base 1.6
 (optional=templinst)_ZSt16__introsort_loopIN9__gnu_cxx17__normal_iteratorIPN3pcl6octree22OctreePointCloudSearchINS2_17PointXYZRGBNormalENS3_26OctreeContainerDataTVectorIiEENS3_20OctreeContainerEmptyIiEEE19prioPointQueueEntryESt6vectorISB_SaISB_EEEElEvT_SH_T0_@Base 1.6
 (optional=templinst)_ZSt16__introsort_loopIN9__gnu_cxx17__normal_iteratorIPN3pcl6octree22OctreePointCloudSearchINS2_17PointXYZRGBNormalENS3_26OctreeContainerDataTVectorIiEENS3_20OctreeContainerEmptyIiEEE20prioBranchQueueEntryESt6vectorISB_SaISB_EEEElEvT_SH_T0_@Base 1.6
 (optional=templinst)_ZSt16__introsort_loopIN9__gnu_cxx17__normal_iteratorIPN3pcl6octree22OctreePointCloudSearchINS2_18PointWithViewpointENS3_26OctreeContainerDataTVectorIiEENS3_20OctreeContainerEmptyIiEEE19prioPointQueueEntryESt6vectorISB_SaISB_EEEElEvT_SH_T0_@Base 1.6
 (optional=templinst)_ZSt16__introsort_loopIN9__gnu_cxx17__normal_iteratorIPN3pcl6octree22OctreePointCloudSearchINS2_18PointWithViewpointENS3_26OctreeContainerDataTVectorIiEENS3_20OctreeContainerEmptyIiEEE20prioBranchQueueEntryESt6vectorISB_SaISB_EEEElEvT_SH_T0_@Base 1.6
 (optional=templinst)_ZSt16__introsort_loopIN9__gnu_cxx17__normal_iteratorIPN3pcl6octree22OctreePointCloudSearchINS2_8PointXYZENS3_26OctreeContainerDataTVectorIiEENS3_20OctreeContainerEmptyIiEEE19prioPointQueueEntryESt6vectorISB_SaISB_EEEElEvT_SH_T0_@Base 1.6
 (optional=templinst)_ZSt16__introsort_loopIN9__gnu_cxx17__normal_iteratorIPN3pcl6octree22OctreePointCloudSearchINS2_8PointXYZENS3_26OctreeContainerDataTVectorIiEENS3_20OctreeContainerEmptyIiEEE20prioBranchQueueEntryESt6vectorISB_SaISB_EEEElEvT_SH_T0_@Base 1.6
 (optional=templinst)_ZSt16__introsort_loopIN9__gnu_cxx17__normal_iteratorIPN3pcl6octree22OctreePointCloudSearchINS2_9PointXYZIENS3_26OctreeContainerDataTVectorIiEENS3_20OctreeContainerEmptyIiEEE19prioPointQueueEntryESt6vectorISB_SaISB_EEEElEvT_SH_T0_@Base 1.6
 (optional=templinst)_ZSt16__introsort_loopIN9__gnu_cxx17__normal_iteratorIPN3pcl6octree22OctreePointCloudSearchINS2_9PointXYZIENS3_26OctreeContainerDataTVectorIiEENS3_20OctreeContainerEmptyIiEEE20prioBranchQueueEntryESt6vectorISB_SaISB_EEEElEvT_SH_T0_@Base 1.6
 (optional=templinst)_ZSt16__introsort_loopIN9__gnu_cxx17__normal_iteratorIPN3pcl6octree22OctreePointCloudSearchINS2_9PointXYZLENS3_26OctreeContainerDataTVectorIiEENS3_20OctreeContainerEmptyIiEEE19prioPointQueueEntryESt6vectorISB_SaISB_EEEElEvT_SH_T0_@Base 1.6
 (optional=templinst)_ZSt16__introsort_loopIN9__gnu_cxx17__normal_iteratorIPN3pcl6octree22OctreePointCloudSearchINS2_9PointXYZLENS3_26OctreeContainerDataTVectorIiEENS3_20OctreeContainerEmptyIiEEE20prioBranchQueueEntryESt6vectorISB_SaISB_EEEElEvT_SH_T0_@Base 1.6
 (optional=templinst)_ZSt25__unguarded_linear_insertIN9__gnu_cxx17__normal_iteratorIPN3pcl6octree22OctreePointCloudSearchINS2_11PointNormalENS3_26OctreeContainerDataTVectorIiEENS3_20OctreeContainerEmptyIiEEE20prioBranchQueueEntryESt6vectorISB_SaISB_EEEEEvT_@Base 1.6
 (optional=templinst)_ZSt25__unguarded_linear_insertIN9__gnu_cxx17__normal_iteratorIPN3pcl6octree22OctreePointCloudSearchINS2_11PointXYZHSVENS3_26OctreeContainerDataTVectorIiEENS3_20OctreeContainerEmptyIiEEE20prioBranchQueueEntryESt6vectorISB_SaISB_EEEEEvT_@Base 1.6
 (optional=templinst)_ZSt25__unguarded_linear_insertIN9__gnu_cxx17__normal_iteratorIPN3pcl6octree22OctreePointCloudSearchINS2_11PointXYZRGBENS3_26OctreeContainerDataTVectorIiEENS3_20OctreeContainerEmptyIiEEE20prioBranchQueueEntryESt6vectorISB_SaISB_EEEEEvT_@Base 1.6
 (optional=templinst)_ZSt25__unguarded_linear_insertIN9__gnu_cxx17__normal_iteratorIPN3pcl6octree22OctreePointCloudSearchINS2_12PointXYZRGBAENS3_26OctreeContainerDataTVectorIiEENS3_20OctreeContainerEmptyIiEEE20prioBranchQueueEntryESt6vectorISB_SaISB_EEEEEvT_@Base 1.6
 (optional=templinst)_ZSt25__unguarded_linear_insertIN9__gnu_cxx17__normal_iteratorIPN3pcl6octree22OctreePointCloudSearchINS2_12PointXYZRGBLENS3_26OctreeContainerDataTVectorIiEENS3_20OctreeContainerEmptyIiEEE20prioBranchQueueEntryESt6vectorISB_SaISB_EEEEEvT_@Base 1.6
 (optional=templinst)_ZSt25__unguarded_linear_insertIN9__gnu_cxx17__normal_iteratorIPN3pcl6octree22OctreePointCloudSearchINS2_13InterestPointENS3_26OctreeContainerDataTVectorIiEENS3_20OctreeContainerEmptyIiEEE20prioBranchQueueEntryESt6vectorISB_SaISB_EEEEEvT_@Base 1.6
